libcasa_coordinates.so.4 libcasa-coordinates4 #MINVER#
 _ZGVN8casacore15NewDelAllocatorINS_6Stokes11StokesTypesEE5valueE@Base 3.2.1-1kern1
 _ZGVN8casacore15NewDelAllocatorINS_7QuantumIdEEE5valueE@Base 3.2.1-1kern1
 _ZGVN8casacore15NewDelAllocatorIPNS_6SlicerEE5valueE@Base 3.2.1-1kern1
 _ZGVN8casacore16DefaultAllocatorINS_6Stokes11StokesTypesEE5valueE@Base 3.2.1-1kern1
 _ZGVN8casacore16DefaultAllocatorINS_7QuantumIdEEE5valueE@Base 3.2.1-1kern1
 _ZGVN8casacore16DefaultAllocatorIPNS_6SlicerEE5valueE@Base 3.2.1-1kern1
 _ZGVN8casacore17Allocator_private17BulkAllocatorImplINS_17new_del_allocatorINS_6Stokes11StokesTypesEEEE9allocatorE@Base 3.2.1-1kern1
 _ZGVN8casacore17Allocator_private17BulkAllocatorImplINS_17new_del_allocatorINS_7QuantumIdEEEEE9allocatorE@Base 3.2.1-1kern1
 _ZGVN8casacore17Allocator_private17BulkAllocatorImplINS_17new_del_allocatorIPNS_6SlicerEEEE9allocatorE@Base 3.2.1-1kern1
 _ZGVN8casacore17Allocator_private17BulkAllocatorImplINS_18casacore_allocatorINS_6Stokes11StokesTypesELm32EEEE9allocatorE@Base 3.2.1-1kern1
 _ZGVN8casacore17Allocator_private17BulkAllocatorImplINS_18casacore_allocatorINS_6StringELm32EEEE9allocatorE@Base 3.2.1-1kern1
 _ZGVN8casacore17Allocator_private17BulkAllocatorImplINS_18casacore_allocatorINS_7QuantumIdEELm32EEEE9allocatorE@Base 3.2.1-1kern1
 _ZGVN8casacore17Allocator_private17BulkAllocatorImplINS_18casacore_allocatorIPNS_6SlicerELm32EEEE9allocatorE@Base 3.2.1-1kern1
 _ZGVN8casacore17Allocator_private17BulkAllocatorImplINS_18casacore_allocatorIPvLm32EEEE9allocatorE@Base 3.2.1-1kern1
 _ZGVN8casacore17Allocator_private17BulkAllocatorImplINS_18casacore_allocatorIbLm32EEEE9allocatorE@Base 3.2.1-1kern1
 _ZGVN8casacore17Allocator_private17BulkAllocatorImplINS_18casacore_allocatorIdLm32EEEE9allocatorE@Base 3.2.1-1kern1
 _ZGVN8casacore17Allocator_private17BulkAllocatorImplINS_18casacore_allocatorIiLm32EEEE9allocatorE@Base 3.2.1-1kern1
 _ZGVN8casacore17Allocator_private17BulkAllocatorImplINS_18casacore_allocatorIjLm32EEEE9allocatorE@Base 3.2.1-1kern1
 _ZGVZN8casacore17Allocator_private17get_allocator_rawINS_17new_del_allocatorINS_6Stokes11StokesTypesEEEEEPNS0_17BulkAllocatorImplIT_EEvE3ptr@Base 3.2.1-1kern1
 _ZGVZN8casacore17Allocator_private17get_allocator_rawINS_17new_del_allocatorINS_7QuantumIdEEEEEEPNS0_17BulkAllocatorImplIT_EEvE3ptr@Base 3.2.1-1kern1
 _ZGVZN8casacore17Allocator_private17get_allocator_rawINS_17new_del_allocatorIPNS_6SlicerEEEEEPNS0_17BulkAllocatorImplIT_EEvE3ptr@Base 3.2.1-1kern1
 _ZGVZN8casacore17Allocator_private17get_allocator_rawINS_18casacore_allocatorINS_6Stokes11StokesTypesELm32EEEEEPNS0_17BulkAllocatorImplIT_EEvE3ptr@Base 3.2.1-1kern1
 _ZGVZN8casacore17Allocator_private17get_allocator_rawINS_18casacore_allocatorINS_7QuantumIdEELm32EEEEEPNS0_17BulkAllocatorImplIT_EEvE3ptr@Base 3.2.1-1kern1
 _ZGVZN8casacore17Allocator_private17get_allocator_rawINS_18casacore_allocatorIPNS_6SlicerELm32EEEEEPNS0_17BulkAllocatorImplIT_EEvE3ptr@Base 3.2.1-1kern1
 _ZGVZN8casacore17Allocator_private17get_allocator_rawINS_18casacore_allocatorIPvLm32EEEEEPNS0_17BulkAllocatorImplIT_EEvE3ptr@Base 3.2.1-1kern1
 _ZGVZN8casacore17Allocator_private17get_allocator_rawINS_18casacore_allocatorIbLm32EEEEEPNS0_17BulkAllocatorImplIT_EEvE3ptr@Base 3.2.1-1kern1
 _ZGVZN8casacore17Allocator_private17get_allocator_rawINS_18casacore_allocatorIdLm32EEEEEPNS0_17BulkAllocatorImplIT_EEvE3ptr@Base 3.2.1-1kern1
 _ZGVZN8casacore17Allocator_private17get_allocator_rawINS_18casacore_allocatorIiLm32EEEEEPNS0_17BulkAllocatorImplIT_EEvE3ptr@Base 3.2.1-1kern1
 _ZGVZN8casacore17Allocator_private17get_allocator_rawINS_18casacore_allocatorIjLm32EEEEEPNS0_17BulkAllocatorImplIT_EEvE3ptr@Base 3.2.1-1kern1
 _ZGVZN8casacore2QC2HIEvE6result@Base 3.2.1-1kern1
 _ZGVZNK8casacore13Interpolate1DIddE4nameEvE1x@Base 3.2.1-1kern1
 _ZGVZNK8casacore8FunctionIddE4nameEvE1x@Base 3.2.1-1kern1
 _ZN8casacore10Coordinate12typeToStringENS0_4TypeE@Base 3.2.1-1kern1
 _ZN8casacore10Coordinate14formatQuantityERNS_6StringENS0_10formatTypeERKNS_7QuantumIdEEjbbi@Base 3.2.1-1kern1
 _ZN8casacore10Coordinate17find_scale_factorERNS_6StringERNS_6VectorIdEERKNS3_IS1_EES8_@Base 3.2.1-1kern1
 _ZN8casacore10Coordinate17setWorldAxisUnitsERKNS_6VectorINS_6StringEEE@Base 3.2.1-1kern1
 _ZN8casacore10Coordinate17setWorldMixRangesERKNS_9IPositionE@Base 3.2.1-1kern1
 _ZN8casacore10Coordinate24setDefaultWorldMixRangesEv@Base 3.2.1-1kern1
 _ZN8casacore10Coordinate7set_wcsER6wcsprm@Base 3.2.1-1kern1
 _ZN8casacore10Coordinate7sub_wcsERK6wcsprmRiPiRS1_@Base 3.2.1-1kern1
 _ZN8casacore10Coordinate8copy_wcsERK6wcsprmRS1_@Base 3.2.1-1kern1
 _ZN8casacore10Coordinate8init_wcsER6wcsprmi@Base 3.2.1-1kern1
 _ZN8casacore10CoordinateC1ERKS0_@Base 3.2.1-1kern1
 _ZN8casacore10CoordinateC1Ev@Base 3.2.1-1kern1
 _ZN8casacore10CoordinateC2ERKS0_@Base 3.2.1-1kern1
 _ZN8casacore10CoordinateC2Ev@Base 3.2.1-1kern1
 _ZN8casacore10CoordinateD0Ev@Base 3.2.1-1kern1
 _ZN8casacore10CoordinateD1Ev@Base 3.2.1-1kern1
 _ZN8casacore10CoordinateD2Ev@Base 3.2.1-1kern1
 _ZN8casacore10CoordinateaSERKS0_@Base 3.2.1-1kern1
 _ZN8casacore10Projection10isZenithalENS0_4TypeE@Base 3.2.1-1kern1
 _ZN8casacore10Projection11nParametersENS0_4TypeE@Base 3.2.1-1kern1
 _ZN8casacore10Projection14nMinParametersENS0_4TypeE@Base 3.2.1-1kern1
 _ZN8casacore10Projection4nameENS0_4TypeE@Base 3.2.1-1kern1
 _ZN8casacore10Projection4typeERKNS_6StringE@Base 3.2.1-1kern1
 _ZN8casacore10Projection8validateEb@Base 3.2.1-1kern1
 _ZN8casacore10ProjectionC1ENS0_4TypeE@Base 3.2.1-1kern1
 _ZN8casacore10ProjectionC1ENS0_4TypeERKNS_6VectorIdEE@Base 3.2.1-1kern1
 _ZN8casacore10ProjectionC1ERKNS_6StringES3_RKNS_6VectorIdEE@Base 3.2.1-1kern1
 _ZN8casacore10ProjectionC1ERKS0_@Base 3.2.1-1kern1
 _ZN8casacore10ProjectionC2ENS0_4TypeE@Base 3.2.1-1kern1
 _ZN8casacore10ProjectionC2ENS0_4TypeERKNS_6VectorIdEE@Base 3.2.1-1kern1
 _ZN8casacore10ProjectionC2ERKNS_6StringES3_RKNS_6VectorIdEE@Base 3.2.1-1kern1
 _ZN8casacore10ProjectionC2ERKS0_@Base 3.2.1-1kern1
 _ZN8casacore10ProjectionD1Ev@Base 3.2.1-1kern1
 _ZN8casacore10ProjectionD2Ev@Base 3.2.1-1kern1
 _ZN8casacore10ProjectionaSERKS0_@Base 3.2.1-1kern1
 _ZN8casacore11LinearXform10set_linprmEv@Base 3.2.1-1kern1
 _ZN8casacore11LinearXform2pcERKNS_6MatrixIdEE@Base 3.2.1-1kern1
 _ZN8casacore11LinearXform5cdeltERKNS_6VectorIdEE@Base 3.2.1-1kern1
 _ZN8casacore11LinearXform5crpixERKNS_6VectorIdEE@Base 3.2.1-1kern1
 _ZN8casacore11LinearXformC1ERKNS_6VectorIdEES4_@Base 3.2.1-1kern1
 _ZN8casacore11LinearXformC1ERKNS_6VectorIdEES4_RKNS_6MatrixIdEE@Base 3.2.1-1kern1
 _ZN8casacore11LinearXformC1ERKS0_@Base 3.2.1-1kern1
 _ZN8casacore11LinearXformC1Ej@Base 3.2.1-1kern1
 _ZN8casacore11LinearXformC2ERKNS_6VectorIdEES4_@Base 3.2.1-1kern1
 _ZN8casacore11LinearXformC2ERKNS_6VectorIdEES4_RKNS_6MatrixIdEE@Base 3.2.1-1kern1
 _ZN8casacore11LinearXformC2ERKS0_@Base 3.2.1-1kern1
 _ZN8casacore11LinearXformC2Ej@Base 3.2.1-1kern1
 _ZN8casacore11LinearXformD1Ev@Base 3.2.1-1kern1
 _ZN8casacore11LinearXformD2Ev@Base 3.2.1-1kern1
 _ZN8casacore11LinearXformaSERKS0_@Base 3.2.1-1kern1
 _ZN8casacore11MeasConvertINS_10MDirectionEE12addFrameTypeEj@Base 3.2.1-1kern1
 _ZN8casacore11MeasConvertINS_10MDirectionEE3setERKNS_4UnitE@Base 3.2.1-1kern1
 _ZN8casacore11MeasConvertINS_10MDirectionEE3setERKNS_9MeasValueE@Base 3.2.1-1kern1
 _ZN8casacore11MeasConvertINS_10MDirectionEE4copyERKS2_@Base 3.2.1-1kern1
 _ZN8casacore11MeasConvertINS_10MDirectionEE4initEv@Base 3.2.1-1kern1
 _ZN8casacore11MeasConvertINS_10MDirectionEE5clearEv@Base 3.2.1-1kern1
 _ZN8casacore11MeasConvertINS_10MDirectionEE6createEv@Base 3.2.1-1kern1
 _ZN8casacore11MeasConvertINS_10MDirectionEE7convertERKNS_11MVDirectionE@Base 3.2.1-1kern1
 _ZN8casacore11MeasConvertINS_10MDirectionEE7convertEv@Base 3.2.1-1kern1
 _ZN8casacore11MeasConvertINS_10MDirectionEE8setModelERKNS_7MeasureE@Base 3.2.1-1kern1
 _ZN8casacore11MeasConvertINS_10MDirectionEE9addMethodEj@Base 3.2.1-1kern1
 _ZN8casacore11MeasConvertINS_10MDirectionEEC1ERKNS_7MeasRefIS1_EES6_@Base 3.2.1-1kern1
 _ZN8casacore11MeasConvertINS_10MDirectionEEC1ERKS1_RKNS_7MeasRefIS1_EE@Base 3.2.1-1kern1
 _ZN8casacore11MeasConvertINS_10MDirectionEEC2ERKNS_7MeasRefIS1_EES6_@Base 3.2.1-1kern1
 _ZN8casacore11MeasConvertINS_10MDirectionEEC2ERKS1_RKNS_7MeasRefIS1_EE@Base 3.2.1-1kern1
 _ZN8casacore11MeasConvertINS_10MDirectionEED0Ev@Base 3.2.1-1kern1
 _ZN8casacore11MeasConvertINS_10MDirectionEED1Ev@Base 3.2.1-1kern1
 _ZN8casacore11MeasConvertINS_10MDirectionEED2Ev@Base 3.2.1-1kern1
 _ZN8casacore11MeasConvertINS_10MDirectionEEclERKNS_11MVDirectionE@Base 3.2.1-1kern1
 _ZN8casacore11MeasConvertINS_10MDirectionEEclERKS1_@Base 3.2.1-1kern1
 _ZN8casacore11MeasConvertINS_10MFrequencyEE12addFrameTypeEj@Base 3.2.1-1kern1
 _ZN8casacore11MeasConvertINS_10MFrequencyEE3setERKNS_4UnitE@Base 3.2.1-1kern1
 _ZN8casacore11MeasConvertINS_10MFrequencyEE3setERKNS_9MeasValueE@Base 3.2.1-1kern1
 _ZN8casacore11MeasConvertINS_10MFrequencyEE4initEv@Base 3.2.1-1kern1
 _ZN8casacore11MeasConvertINS_10MFrequencyEE5clearEv@Base 3.2.1-1kern1
 _ZN8casacore11MeasConvertINS_10MFrequencyEE6createEv@Base 3.2.1-1kern1
 _ZN8casacore11MeasConvertINS_10MFrequencyEE7convertERKNS_11MVFrequencyE@Base 3.2.1-1kern1
 _ZN8casacore11MeasConvertINS_10MFrequencyEE7convertEv@Base 3.2.1-1kern1
 _ZN8casacore11MeasConvertINS_10MFrequencyEE8setModelERKNS_7MeasureE@Base 3.2.1-1kern1
 _ZN8casacore11MeasConvertINS_10MFrequencyEE9addMethodEj@Base 3.2.1-1kern1
 _ZN8casacore11MeasConvertINS_10MFrequencyEEC1ERKS1_RKNS_7MeasRefIS1_EE@Base 3.2.1-1kern1
 _ZN8casacore11MeasConvertINS_10MFrequencyEEC1Ev@Base 3.2.1-1kern1
 _ZN8casacore11MeasConvertINS_10MFrequencyEEC2ERKS1_RKNS_7MeasRefIS1_EE@Base 3.2.1-1kern1
 _ZN8casacore11MeasConvertINS_10MFrequencyEEC2Ev@Base 3.2.1-1kern1
 _ZN8casacore11MeasConvertINS_10MFrequencyEED0Ev@Base 3.2.1-1kern1
 _ZN8casacore11MeasConvertINS_10MFrequencyEED1Ev@Base 3.2.1-1kern1
 _ZN8casacore11MeasConvertINS_10MFrequencyEED2Ev@Base 3.2.1-1kern1
 _ZN8casacore11MeasConvertINS_10MFrequencyEEclERKS1_@Base 3.2.1-1kern1
 _ZN8casacore11MeasConvertINS_10MFrequencyEEclEd@Base 3.2.1-1kern1
 _ZN8casacore11MeasConvertINS_9MPositionEE12addFrameTypeEj@Base 3.2.1-1kern1
 _ZN8casacore11MeasConvertINS_9MPositionEE3setERKNS_4UnitE@Base 3.2.1-1kern1
 _ZN8casacore11MeasConvertINS_9MPositionEE3setERKNS_9MeasValueE@Base 3.2.1-1kern1
 _ZN8casacore11MeasConvertINS_9MPositionEE4initEv@Base 3.2.1-1kern1
 _ZN8casacore11MeasConvertINS_9MPositionEE5clearEv@Base 3.2.1-1kern1
 _ZN8casacore11MeasConvertINS_9MPositionEE6createEv@Base 3.2.1-1kern1
 _ZN8casacore11MeasConvertINS_9MPositionEE7convertERKNS_10MVPositionE@Base 3.2.1-1kern1
 _ZN8casacore11MeasConvertINS_9MPositionEE7convertEv@Base 3.2.1-1kern1
 _ZN8casacore11MeasConvertINS_9MPositionEE8setModelERKNS_7MeasureE@Base 3.2.1-1kern1
 _ZN8casacore11MeasConvertINS_9MPositionEE9addMethodEj@Base 3.2.1-1kern1
 _ZN8casacore11MeasConvertINS_9MPositionEEC1ERKS1_RKNS_7MeasRefIS1_EE@Base 3.2.1-1kern1
 _ZN8casacore11MeasConvertINS_9MPositionEEC2ERKS1_RKNS_7MeasRefIS1_EE@Base 3.2.1-1kern1
 _ZN8casacore11MeasConvertINS_9MPositionEED0Ev@Base 3.2.1-1kern1
 _ZN8casacore11MeasConvertINS_9MPositionEED1Ev@Base 3.2.1-1kern1
 _ZN8casacore11MeasConvertINS_9MPositionEED2Ev@Base 3.2.1-1kern1
 _ZN8casacore11objcopyctorINS_7QuantumIdEEEEvPT_PKS3_m@Base 3.2.1-1kern1
 _ZN8casacore11objcopyctorINS_7QuantumIdEEEEvPT_PKS3_mmm@Base 3.2.1-1kern1
 _ZN8casacore13ArrayIteratorINS_7QuantumIdEEE12apSetPointerEi@Base 3.2.1-1kern1
 _ZN8casacore13ArrayIteratorINS_7QuantumIdEEE3setERKNS_9IPositionE@Base 3.2.1-1kern1
 _ZN8casacore13ArrayIteratorINS_7QuantumIdEEE4initERKNS_5ArrayIS2_EE@Base 3.2.1-1kern1
 _ZN8casacore13ArrayIteratorINS_7QuantumIdEEE4nextEv@Base 3.2.1-1kern1
 _ZN8casacore13ArrayIteratorINS_7QuantumIdEEE5resetEv@Base 3.2.1-1kern1
 _ZN8casacore13ArrayIteratorINS_7QuantumIdEEE8getArrayEv@Base 3.2.1-1kern1
 _ZN8casacore13ArrayIteratorINS_7QuantumIdEEED0Ev@Base 3.2.1-1kern1
 _ZN8casacore13ArrayIteratorINS_7QuantumIdEEED1Ev@Base 3.2.1-1kern1
 _ZN8casacore13ArrayIteratorINS_7QuantumIdEEED2Ev@Base 3.2.1-1kern1
 _ZN8casacore13FunctionParamIdED0Ev@Base 3.2.1-1kern1
 _ZN8casacore13FunctionParamIdED1Ev@Base 3.2.1-1kern1
 _ZN8casacore13FunctionParamIdED2Ev@Base 3.2.1-1kern1
 _ZN8casacore13Interpolate1DIddE7setDataERKNS_17SampledFunctionalIdEES5_bb@Base 3.2.1-1kern1
 _ZN8casacore13Interpolate1DIddEC1ERKNS_17SampledFunctionalIdEES5_bb@Base 3.2.1-1kern1
 _ZN8casacore13Interpolate1DIddEC1ERKS1_@Base 3.2.1-1kern1
 _ZN8casacore13Interpolate1DIddEC2ERKNS_17SampledFunctionalIdEES5_bb@Base 3.2.1-1kern1
 _ZN8casacore13Interpolate1DIddEC2ERKS1_@Base 3.2.1-1kern1
 _ZN8casacore13Interpolate1DIddED0Ev@Base 3.2.1-1kern1
 _ZN8casacore13Interpolate1DIddED1Ev@Base 3.2.1-1kern1
 _ZN8casacore13Interpolate1DIddED2Ev@Base 3.2.1-1kern1
 _ZN8casacore14CoordinateUtil10addDirAxesERNS_16CoordinateSystemE@Base 3.2.1-1kern1
 _ZN8casacore14CoordinateUtil10checkOrderERKNS_6VectorIiEE@Base 3.2.1-1kern1
 _ZN8casacore14CoordinateUtil10removeAxesERNS_16CoordinateSystemERNS_6VectorIdEERKNS3_IiEEb@Base 3.2.1-1kern1
 _ZN8casacore14CoordinateUtil11addFreqAxisERNS_16CoordinateSystemE@Base 3.2.1-1kern1
 _ZN8casacore14CoordinateUtil11addIQUVAxisERNS_16CoordinateSystemE@Base 3.2.1-1kern1
 _ZN8casacore14CoordinateUtil11toPixelAxesERKNS_16CoordinateSystemES3_RKNS_6VectorIiEE@Base 3.2.1-1kern1
 _ZN8casacore14CoordinateUtil13addLinearAxesERNS_16CoordinateSystemERKNS_6VectorINS_6StringEEERKNS_9IPositionE@Base 3.2.1-1kern1
 _ZN8casacore14CoordinateUtil13addStokesAxisERNS_16CoordinateSystemEj@Base 3.2.1-1kern1
 _ZN8casacore14CoordinateUtil13defaultCoordsEj@Base 3.2.1-1kern1
 _ZN8casacore14CoordinateUtil13findPixelAxisERKNS_16CoordinateSystemEi@Base 3.2.1-1kern1
 _ZN8casacore14CoordinateUtil13findWorldAxisERKNS_16CoordinateSystemEi@Base 3.2.1-1kern1
 _ZN8casacore14CoordinateUtil14cylindricalFixERNS_16CoordinateSystemERNS_6StringERKNS_9IPositionE@Base 3.2.1-1kern1
 _ZN8casacore14CoordinateUtil14findExtendAxesERNS_9IPositionES2_RKS1_S4_RKNS_16CoordinateSystemES7_@Base 3.2.1-1kern1
 _ZN8casacore14CoordinateUtil14findStokesAxisERNS_6VectorINS_6Stokes11StokesTypesEEERKNS_16CoordinateSystemE@Base 3.2.1-1kern1
 _ZN8casacore14CoordinateUtil14findStokesAxisERiS1_S1_RKNS_16CoordinateSystemE@Base 3.2.1-1kern1
 _ZN8casacore14CoordinateUtil15defaultCoords2DEv@Base 3.2.1-1kern1
 _ZN8casacore14CoordinateUtil15defaultCoords3DEv@Base 3.2.1-1kern1
 _ZN8casacore14CoordinateUtil15defaultCoords4DEv@Base 3.2.1-1kern1
 _ZN8casacore14CoordinateUtil15dropRemovedAxesERNS_16CoordinateSystemERKS1_b@Base 3.2.1-1kern1
 _ZN8casacore14CoordinateUtil15removePixelAxesERNS_16CoordinateSystemERNS_6VectorIdEERKNS3_IiEEb@Base 3.2.1-1kern1
 _ZN8casacore14CoordinateUtil16findSingleStokesERNS_5LogIOERKNS_16CoordinateSystemEj@Base 3.2.1-1kern1
 _ZN8casacore14CoordinateUtil16findSpectralAxisERKNS_16CoordinateSystemE@Base 3.2.1-1kern1
 _ZN8casacore14CoordinateUtil16findSpectralAxisERiS1_S1_RKNS_16CoordinateSystemE@Base 3.2.1-1kern1
 _ZN8casacore14CoordinateUtil16formatCoordinateERKNS_6VectorIdEERKNS_16CoordinateSystemEi@Base 3.2.1-1kern1
 _ZN8casacore14CoordinateUtil16formatCoordinateERKNS_9IPositionERKNS_16CoordinateSystemEi@Base 3.2.1-1kern1
 _ZN8casacore14CoordinateUtil16setDirectionUnitERNS_16CoordinateSystemERKNS_6StringEi@Base 3.2.1-1kern1
 _ZN8casacore14CoordinateUtil16setRestFrequencyERNS_6StringERNS_16CoordinateSystemERKS1_RKd@Base 3.2.1-1kern1
 _ZN8casacore14CoordinateUtil16setSpectralStateERNS_6StringERNS_16CoordinateSystemERKS1_S6_@Base 3.2.1-1kern1
 _ZN8casacore14CoordinateUtil16setVelocityStateERNS_6StringERNS_16CoordinateSystemERKS1_S6_@Base 3.2.1-1kern1
 _ZN8casacore14CoordinateUtil17findDirectionAxesERKNS_16CoordinateSystemE@Base 3.2.1-1kern1
 _ZN8casacore14CoordinateUtil17findDirectionAxesERNS_6VectorIiEES3_RiRKNS_16CoordinateSystemE@Base 3.2.1-1kern1
 _ZN8casacore14CoordinateUtil18compareCoordinatesERKNS_16CoordinateSystemES3_@Base 3.2.1-1kern1
 _ZN8casacore14CoordinateUtil18setCoordinateUnitsERNS_16CoordinateSystemERKNS_6VectorINS_6StringEEEj@Base 3.2.1-1kern1
 _ZN8casacore14CoordinateUtil20makeCoordinateSystemERKNS_9IPositionEb@Base 3.2.1-1kern1
 _ZN8casacore14CoordinateUtil20makeDirectionMachineERNS_5LogIOERNS_11MeasConvertINS_10MDirectionEEERKNS_19DirectionCoordinateES9_RKNS_7ObsInfoESC_@Base 3.2.1-1kern1
 _ZN8casacore14CoordinateUtil20makeFrequencyMachineERNS_5LogIOERNS_11MeasConvertINS_10MFrequencyEEENS4_5TypesES7_RKNS_10MDirectionESA_RKNS_6MEpochESD_RKNS_9MPositionESG_RKNS_4UnitE@Base 3.2.1-1kern1
 _ZN8casacore14CoordinateUtil20makeFrequencyMachineERNS_5LogIOERNS_11MeasConvertINS_10MFrequencyEEEiiRKNS_16CoordinateSystemES9_RKNS_4UnitE@Base 3.2.1-1kern1
 _ZN8casacore14CoordinateUtil21setNiceAxisLabelUnitsERNS_16CoordinateSystemE@Base 3.2.1-1kern1
 _ZN8casacore14CoordinateUtil21setSpectralConversionERNS_6StringERNS_16CoordinateSystemES1_@Base 3.2.1-1kern1
 _ZN8casacore14CoordinateUtil21setSpectralFormattingERNS_6StringERNS_16CoordinateSystemERKS1_S6_@Base 3.2.1-1kern1
 _ZN8casacore14CoordinateUtil22setDirectionConversionERNS_6StringERNS_16CoordinateSystemES1_@Base 3.2.1-1kern1
 _ZN8casacore14CoordinateUtil26makeBinnedCoordinateSystemERKNS_9IPositionERKNS_16CoordinateSystemEb@Base 3.2.1-1kern1
 _ZN8casacore14CoordinateUtil31findObservatoryOrRaiseExceptionERNS_5LogIOERNS_9MPositionERKNS_6StringE@Base 3.2.1-1kern1
 _ZN8casacore14CoordinateUtil5isSkyERNS_5LogIOERKNS_16CoordinateSystemE@Base 3.2.1-1kern1
 _ZN8casacore14CoordinateUtil7addAxesERNS_16CoordinateSystemEbbRKNS_6StringEbbb@Base 3.2.1-1kern1
 _ZN8casacore14CoordinateUtil7findSkyERNS_6StringERiRNS_6VectorIiEES6_RKNS_16CoordinateSystemE@Base 3.2.1-1kern1
 _ZN8casacore14CoordinateUtil8addIAxisERNS_16CoordinateSystemE@Base 3.2.1-1kern1
 _ZN8casacore14CoordinateUtil8holdsSkyERbRKNS_16CoordinateSystemENS_6VectorIiEE@Base 3.2.1-1kern1
 _ZN8casacore14CoordinateUtil9axisLabelERKNS_10CoordinateEjbbb@Base 3.2.1-1kern1
 _ZN8casacore15GaussianConvert11convertAxesERdS1_RNS_7QuantumIdEEddRKS3_RKNS_16CoordinateSystemENS_6StringE@Base 3.2.1-1kern1
 _ZN8casacore15GaussianConvert12setWorldAxesERKNS_6VectorIjEE@Base 3.2.1-1kern1
 _ZN8casacore15GaussianConvert14checkWorldAxesEv@Base 3.2.1-1kern1
 _ZN8casacore15GaussianConvert18positionAngleRangeEd@Base 3.2.1-1kern1
 _ZN8casacore15GaussianConvert19setCoordinateSystemERKNS_16CoordinateSystemE@Base 3.2.1-1kern1
 _ZN8casacore15GaussianConvert21checkCoordinateSystemEv@Base 3.2.1-1kern1
 _ZN8casacore15GaussianConvert7toPixelERNS_6VectorIdEERKNS1_INS_7QuantumIdEEEE@Base 3.2.1-1kern1
 _ZN8casacore15GaussianConvert7toPixelERdS1_RNS_7QuantumIdEERKS3_S6_S6_@Base 3.2.1-1kern1
 _ZN8casacore15GaussianConvert7toWorldERNS_6VectorINS_7QuantumIdEEEERKNS1_IdEE@Base 3.2.1-1kern1
 _ZN8casacore15GaussianConvert7toWorldERNS_7QuantumIdEES3_S3_ddRKS2_@Base 3.2.1-1kern1
 _ZN8casacore15GaussianConvertC1ERKNS_16CoordinateSystemERKNS_6VectorIjEE@Base 3.2.1-1kern1
 _ZN8casacore15GaussianConvertC1ERKS0_@Base 3.2.1-1kern1
 _ZN8casacore15GaussianConvertC1Ev@Base 3.2.1-1kern1
 _ZN8casacore15GaussianConvertC2ERKNS_16CoordinateSystemERKNS_6VectorIjEE@Base 3.2.1-1kern1
 _ZN8casacore15GaussianConvertC2ERKS0_@Base 3.2.1-1kern1
 _ZN8casacore15GaussianConvertC2Ev@Base 3.2.1-1kern1
 _ZN8casacore15GaussianConvertD1Ev@Base 3.2.1-1kern1
 _ZN8casacore15GaussianConvertD2Ev@Base 3.2.1-1kern1
 _ZN8casacore15GaussianConvertaSERKS0_@Base 3.2.1-1kern1
 _ZN8casacore15GenSortIndirectIdE10insSortAscEPjPKdii@Base 3.2.1-1kern1
 _ZN8casacore15GenSortIndirectIdE11heapSortAscEPjPKdi@Base 3.2.1-1kern1
 _ZN8casacore15GenSortIndirectIdE12quickSortAscEPjPKdibi@Base 3.2.1-1kern1
 _ZN8casacore15GenSortIndirectIdE15heapAscSiftDownEPjiiPKd@Base 3.2.1-1kern1
 _ZN8casacore15GenSortIndirectIdE15insSortAscNoDupEPjPKdi@Base 3.2.1-1kern1
 _ZN8casacore15GenSortIndirectIdE5mergeEPKdPjS4_jS4_j@Base 3.2.1-1kern1
 _ZN8casacore15GenSortIndirectIdE7parSortEPjPKdjNS_4Sort5OrderEii@Base 3.2.1-1kern1
 _ZN8casacore15NewDelAllocatorINS_6Stokes11StokesTypesEE5valueE@Base 3.2.1-1kern1
 _ZN8casacore15NewDelAllocatorINS_6Stokes11StokesTypesEED0Ev@Base 3.2.1-1kern1
 _ZN8casacore15NewDelAllocatorINS_6Stokes11StokesTypesEED1Ev@Base 3.2.1-1kern1
 _ZN8casacore15NewDelAllocatorINS_6Stokes11StokesTypesEED2Ev@Base 3.2.1-1kern1
 _ZN8casacore15NewDelAllocatorINS_7QuantumIdEEE5valueE@Base 3.2.1-1kern1
 _ZN8casacore15NewDelAllocatorINS_7QuantumIdEEED0Ev@Base 3.2.1-1kern1
 _ZN8casacore15NewDelAllocatorINS_7QuantumIdEEED1Ev@Base 3.2.1-1kern1
 _ZN8casacore15NewDelAllocatorINS_7QuantumIdEEED2Ev@Base 3.2.1-1kern1
 _ZN8casacore15NewDelAllocatorIPNS_6SlicerEE5valueE@Base 3.2.1-1kern1
 _ZN8casacore15NewDelAllocatorIPNS_6SlicerEED0Ev@Base 3.2.1-1kern1
 _ZN8casacore15NewDelAllocatorIPNS_6SlicerEED1Ev@Base 3.2.1-1kern1
 _ZN8casacore15NewDelAllocatorIPNS_6SlicerEED2Ev@Base 3.2.1-1kern1
 _ZN8casacore15arrayCompareAllINS_6StringESt8equal_toIS1_EEEbRKNS_5ArrayIT_EES8_T0_@Base 3.2.1-1kern1
 _ZN8casacore15arrayCompareAllIbSt8equal_toIbEEEbRKNS_5ArrayIT_EES4_T0_@Base 3.2.1-1kern1
 _ZN8casacore15arrayCompareAllIiSt8equal_toIiEEEbRKNS_5ArrayIT_EES4_T0_@Base 3.2.1-1kern1
 _ZN8casacore15arrayCompareAllIiSt8equal_toIiEEEbRKNS_5ArrayIT_EES7_T0_@Base 3.2.1-1kern1
 _ZN8casacore15arrayCompareAnyIdSt12not_equal_toIdEEEbRKNS_5ArrayIT_EES4_T0_@Base 3.2.1-1kern1
 _ZN8casacore15arrayCompareAnyIiSt4lessIiEEEbRKNS_5ArrayIT_EES4_T0_@Base 3.2.1-1kern1
 _ZN8casacore15arrayCompareAnyIiSt8equal_toIiEEEbRKNS_5ArrayIT_EES4_T0_@Base 3.2.1-1kern1
 _ZN8casacore16CoordinateSystem10setObsInfoERKNS_7ObsInfoE@Base 3.2.1-1kern1
 _ZN8casacore16CoordinateSystem11deleteTempsEj@Base 3.2.1-1kern1
 _ZN8casacore16CoordinateSystem12setIncrementERKNS_6VectorIdEE@Base 3.2.1-1kern1
 _ZN8casacore16CoordinateSystem13_mapInitMutexE@Base 3.2.1-1kern1
 _ZN8casacore16CoordinateSystem13addCoordinateERKNS_10CoordinateE@Base 3.2.1-1kern1
 _ZN8casacore16CoordinateSystem14fromFITSHeaderERiRS0_RNS_15RecordInterfaceERKNS_6VectorINS_6StringEEERKNS_9IPositionEj@Base 3.2.1-1kern1
 _ZN8casacore16CoordinateSystem14subImageInSituERKNS_6VectorIfEES4_RKNS1_IiEE@Base 3.2.1-1kern1
 _ZN8casacore16CoordinateSystem15removePixelAxisEjd@Base 3.2.1-1kern1
 _ZN8casacore16CoordinateSystem15removeWorldAxisEjd@Base 3.2.1-1kern1
 _ZN8casacore16CoordinateSystem15restoreOriginalEv@Base 3.2.1-1kern1
 _ZN8casacore16CoordinateSystem16_friendlyAxisMapE@Base 3.2.1-1kern1
 _ZN8casacore16CoordinateSystem16cleanUpSpecCoordERNS_8PtrBlockIPNS_18SpectralCoordinateEEES5_@Base 3.2.1-1kern1
 _ZN8casacore16CoordinateSystem16setRestFrequencyERNS_6StringERKNS_7QuantumIdEE@Base 3.2.1-1kern1
 _ZN8casacore16CoordinateSystem17replaceCoordinateERKNS_10CoordinateEj@Base 3.2.1-1kern1
 _ZN8casacore16CoordinateSystem17setReferencePixelERKNS_6VectorIdEE@Base 3.2.1-1kern1
 _ZN8casacore16CoordinateSystem17setReferenceValueERKNS_6VectorIdEE@Base 3.2.1-1kern1
 _ZN8casacore16CoordinateSystem17setWorldAxisNamesERKNS_6VectorINS_6StringEEE@Base 3.2.1-1kern1
 _ZN8casacore16CoordinateSystem17setWorldAxisUnitsERKNS_6VectorINS_6StringEEE@Base 3.2.1-1kern1
 _ZN8casacore16CoordinateSystem17setWorldAxisUnitsERKNS_6VectorINS_6StringEEEb@Base 3.2.1-1kern1
 _ZN8casacore16CoordinateSystem17setWorldMixRangesERKNS_9IPositionE@Base 3.2.1-1kern1
 _ZN8casacore16CoordinateSystem18setLinearTransformERKNS_6MatrixIdEE@Base 3.2.1-1kern1
 _ZN8casacore16CoordinateSystem20_initFriendlyAxisMapEv@Base 3.2.1-1kern1
 _ZN8casacore16CoordinateSystem21setSpectralConversionENS_6StringE@Base 3.2.1-1kern1
 _ZN8casacore16CoordinateSystem21setSpectralConversionERNS_6StringES1_@Base 3.2.1-1kern1
 _ZN8casacore16CoordinateSystem24setDefaultWorldMixRangesEv@Base 3.2.1-1kern1
 _ZN8casacore16CoordinateSystem4copyERKS0_@Base 3.2.1-1kern1
 _ZN8casacore16CoordinateSystem5clearEv@Base 3.2.1-1kern1
 _ZN8casacore16CoordinateSystem6_classE@Base 3.2.1-1kern1
 _ZN8casacore16CoordinateSystem7convertERNS_6MatrixIdEERKS2_RKNS_6VectorIbEERKNS6_INS_6StringEEENS_8MDoppler5TypesES9_SD_SF_dd@Base 3.2.1-1kern1
 _ZN8casacore16CoordinateSystem7convertERNS_6VectorIdEERKS2_RKNS1_IbEERKNS1_INS_6StringEEENS_8MDoppler5TypesES8_SC_SE_dd@Base 3.2.1-1kern1
 _ZN8casacore16CoordinateSystem7restoreERKNS_15RecordInterfaceERKNS_6StringE@Base 3.2.1-1kern1
 _ZN8casacore16CoordinateSystem9transposeERKNS_6VectorIiEES4_@Base 3.2.1-1kern1
 _ZN8casacore16CoordinateSystemC1ERKS0_@Base 3.2.1-1kern1
 _ZN8casacore16CoordinateSystemC1Ev@Base 3.2.1-1kern1
 _ZN8casacore16CoordinateSystemC2ERKS0_@Base 3.2.1-1kern1
 _ZN8casacore16CoordinateSystemC2Ev@Base 3.2.1-1kern1
 _ZN8casacore16CoordinateSystemD0Ev@Base 3.2.1-1kern1
 _ZN8casacore16CoordinateSystemD1Ev@Base 3.2.1-1kern1
 _ZN8casacore16CoordinateSystemD2Ev@Base 3.2.1-1kern1
 _ZN8casacore16CoordinateSystemaSERKS0_@Base 3.2.1-1kern1
 _ZN8casacore16DefaultAllocatorINS_6Stokes11StokesTypesEE5valueE@Base 3.2.1-1kern1
 _ZN8casacore16DefaultAllocatorINS_6Stokes11StokesTypesEED0Ev@Base 3.2.1-1kern1
 _ZN8casacore16DefaultAllocatorINS_6Stokes11StokesTypesEED1Ev@Base 3.2.1-1kern1
 _ZN8casacore16DefaultAllocatorINS_6Stokes11StokesTypesEED2Ev@Base 3.2.1-1kern1
 _ZN8casacore16DefaultAllocatorINS_7QuantumIdEEE5valueE@Base 3.2.1-1kern1
 _ZN8casacore16DefaultAllocatorINS_7QuantumIdEEED0Ev@Base 3.2.1-1kern1
 _ZN8casacore16DefaultAllocatorINS_7QuantumIdEEED1Ev@Base 3.2.1-1kern1
 _ZN8casacore16DefaultAllocatorINS_7QuantumIdEEED2Ev@Base 3.2.1-1kern1
 _ZN8casacore16DefaultAllocatorIPNS_6SlicerEE5valueE@Base 3.2.1-1kern1
 _ZN8casacore16DefaultAllocatorIPNS_6SlicerEED0Ev@Base 3.2.1-1kern1
 _ZN8casacore16DefaultAllocatorIPNS_6SlicerEED1Ev@Base 3.2.1-1kern1
 _ZN8casacore16DefaultAllocatorIPNS_6SlicerEED2Ev@Base 3.2.1-1kern1
 _ZN8casacore16LinearCoordinate12setIncrementERKNS_6VectorIdEE@Base 3.2.1-1kern1
 _ZN8casacore16LinearCoordinate17setReferencePixelERKNS_6VectorIdEE@Base 3.2.1-1kern1
 _ZN8casacore16LinearCoordinate17setReferenceValueERKNS_6VectorIdEE@Base 3.2.1-1kern1
 _ZN8casacore16LinearCoordinate17setWorldAxisNamesERKNS_6VectorINS_6StringEEE@Base 3.2.1-1kern1
 _ZN8casacore16LinearCoordinate17setWorldAxisUnitsERKNS_6VectorINS_6StringEEE@Base 3.2.1-1kern1
 _ZN8casacore16LinearCoordinate18setLinearTransformERKNS_6MatrixIdEE@Base 3.2.1-1kern1
 _ZN8casacore16LinearCoordinate23overwriteWorldAxisUnitsERKNS_6VectorINS_6StringEEE@Base 3.2.1-1kern1
 _ZN8casacore16LinearCoordinate4copyERKS0_@Base 3.2.1-1kern1
 _ZN8casacore16LinearCoordinate7makeWCSER6wcsprmjRKNS_6VectorIdEES6_S6_RKNS_6MatrixIdEERKNS3_INS_6StringEEESE_@Base 3.2.1-1kern1
 _ZN8casacore16LinearCoordinate7restoreERKNS_15RecordInterfaceERKNS_6StringE@Base 3.2.1-1kern1
 _ZN8casacore16LinearCoordinateC1ERK6wcsprmb@Base 3.2.1-1kern1
 _ZN8casacore16LinearCoordinateC1ERKNS_6VectorINS_6StringEEERKNS1_INS_7QuantumIdEEEESA_RKNS_6MatrixIdEERKNS1_IdEE@Base 3.2.1-1kern1
 _ZN8casacore16LinearCoordinateC1ERKNS_6VectorINS_6StringEEES5_RKNS1_IdEES8_RKNS_6MatrixIdEES8_@Base 3.2.1-1kern1
 _ZN8casacore16LinearCoordinateC1ERKS0_@Base 3.2.1-1kern1
 _ZN8casacore16LinearCoordinateC1Ej@Base 3.2.1-1kern1
 _ZN8casacore16LinearCoordinateC2ERK6wcsprmb@Base 3.2.1-1kern1
 _ZN8casacore16LinearCoordinateC2ERKNS_6VectorINS_6StringEEERKNS1_INS_7QuantumIdEEEESA_RKNS_6MatrixIdEERKNS1_IdEE@Base 3.2.1-1kern1
 _ZN8casacore16LinearCoordinateC2ERKNS_6VectorINS_6StringEEES5_RKNS1_IdEES8_RKNS_6MatrixIdEES8_@Base 3.2.1-1kern1
 _ZN8casacore16LinearCoordinateC2ERKS0_@Base 3.2.1-1kern1
 _ZN8casacore16LinearCoordinateC2Ej@Base 3.2.1-1kern1
 _ZN8casacore16LinearCoordinateD0Ev@Base 3.2.1-1kern1
 _ZN8casacore16LinearCoordinateD1Ev@Base 3.2.1-1kern1
 _ZN8casacore16LinearCoordinateD2Ev@Base 3.2.1-1kern1
 _ZN8casacore16LinearCoordinateaSERKS0_@Base 3.2.1-1kern1
 _ZN8casacore16StokesCoordinate12setIncrementERKNS_6VectorIdEE@Base 3.2.1-1kern1
 _ZN8casacore16StokesCoordinate17setReferencePixelERKNS_6VectorIdEE@Base 3.2.1-1kern1
 _ZN8casacore16StokesCoordinate17setReferenceValueERKNS_6VectorIdEE@Base 3.2.1-1kern1
 _ZN8casacore16StokesCoordinate17setWorldAxisNamesERKNS_6VectorINS_6StringEEE@Base 3.2.1-1kern1
 _ZN8casacore16StokesCoordinate17setWorldAxisUnitsERKNS_6VectorINS_6StringEEE@Base 3.2.1-1kern1
 _ZN8casacore16StokesCoordinate17setWorldMixRangesERKNS_9IPositionE@Base 3.2.1-1kern1
 _ZN8casacore16StokesCoordinate18setLinearTransformERKNS_6MatrixIdEE@Base 3.2.1-1kern1
 _ZN8casacore16StokesCoordinate24setDefaultWorldMixRangesEv@Base 3.2.1-1kern1
 _ZN8casacore16StokesCoordinate7restoreERKNS_15RecordInterfaceERKNS_6StringE@Base 3.2.1-1kern1
 _ZN8casacore16StokesCoordinate7toWorldENS_6Stokes11StokesTypesE@Base 3.2.1-1kern1
 _ZN8casacore16StokesCoordinate7toWorldEd@Base 3.2.1-1kern1
 _ZN8casacore16StokesCoordinate9setStokesERKNS_6VectorIiEE@Base 3.2.1-1kern1
 _ZN8casacore16StokesCoordinateC1ERKNS_6VectorIiEE@Base 3.2.1-1kern1
 _ZN8casacore16StokesCoordinateC1ERKS0_@Base 3.2.1-1kern1
 _ZN8casacore16StokesCoordinateC2ERKNS_6VectorIiEE@Base 3.2.1-1kern1
 _ZN8casacore16StokesCoordinateC2ERKS0_@Base 3.2.1-1kern1
 _ZN8casacore16StokesCoordinateD0Ev@Base 3.2.1-1kern1
 _ZN8casacore16StokesCoordinateD1Ev@Base 3.2.1-1kern1
 _ZN8casacore16StokesCoordinateD2Ev@Base 3.2.1-1kern1
 _ZN8casacore16StokesCoordinateaSERKS0_@Base 3.2.1-1kern1
 _ZN8casacore16concatenateArrayIdEENS_5ArrayIT_EERKS3_S5_@Base 3.2.1-1kern1
 _ZN8casacore17Allocator_private17BulkAllocatorImplINS_17new_del_allocatorINS_6Stokes11StokesTypesEEEE10deallocateEPS4_m@Base 3.2.1-1kern1
 _ZN8casacore17Allocator_private17BulkAllocatorImplINS_17new_del_allocatorINS_6Stokes11StokesTypesEEEE7destroyEPS4_m@Base 3.2.1-1kern1
 _ZN8casacore17Allocator_private17BulkAllocatorImplINS_17new_del_allocatorINS_6Stokes11StokesTypesEEEE8allocateEmPKv@Base 3.2.1-1kern1
 _ZN8casacore17Allocator_private17BulkAllocatorImplINS_17new_del_allocatorINS_6Stokes11StokesTypesEEEE9allocatorE@Base 3.2.1-1kern1
 _ZN8casacore17Allocator_private17BulkAllocatorImplINS_17new_del_allocatorINS_6Stokes11StokesTypesEEEE9constructEPS4_m@Base 3.2.1-1kern1
 _ZN8casacore17Allocator_private17BulkAllocatorImplINS_17new_del_allocatorINS_6Stokes11StokesTypesEEEE9constructEPS4_mPKS4_@Base 3.2.1-1kern1
 _ZN8casacore17Allocator_private17BulkAllocatorImplINS_17new_del_allocatorINS_6Stokes11StokesTypesEEEE9constructEPS4_mRKS4_@Base 3.2.1-1kern1
 _ZN8casacore17Allocator_private17BulkAllocatorImplINS_17new_del_allocatorINS_6Stokes11StokesTypesEEEED0Ev@Base 3.2.1-1kern1
 _ZN8casacore17Allocator_private17BulkAllocatorImplINS_17new_del_allocatorINS_6Stokes11StokesTypesEEEED1Ev@Base 3.2.1-1kern1
 _ZN8casacore17Allocator_private17BulkAllocatorImplINS_17new_del_allocatorINS_6Stokes11StokesTypesEEEED2Ev@Base 3.2.1-1kern1
 _ZN8casacore17Allocator_private17BulkAllocatorImplINS_17new_del_allocatorINS_7QuantumIdEEEEE10deallocateEPS4_m@Base 3.2.1-1kern1
 _ZN8casacore17Allocator_private17BulkAllocatorImplINS_17new_del_allocatorINS_7QuantumIdEEEEE7destroyEPS4_m@Base 3.2.1-1kern1
 _ZN8casacore17Allocator_private17BulkAllocatorImplINS_17new_del_allocatorINS_7QuantumIdEEEEE8allocateEmPKv@Base 3.2.1-1kern1
 _ZN8casacore17Allocator_private17BulkAllocatorImplINS_17new_del_allocatorINS_7QuantumIdEEEEE9allocatorE@Base 3.2.1-1kern1
 _ZN8casacore17Allocator_private17BulkAllocatorImplINS_17new_del_allocatorINS_7QuantumIdEEEEE9constructEPS4_m@Base 3.2.1-1kern1
 _ZN8casacore17Allocator_private17BulkAllocatorImplINS_17new_del_allocatorINS_7QuantumIdEEEEE9constructEPS4_mPKS4_@Base 3.2.1-1kern1
 _ZN8casacore17Allocator_private17BulkAllocatorImplINS_17new_del_allocatorINS_7QuantumIdEEEEE9constructEPS4_mRKS4_@Base 3.2.1-1kern1
 _ZN8casacore17Allocator_private17BulkAllocatorImplINS_17new_del_allocatorINS_7QuantumIdEEEEED0Ev@Base 3.2.1-1kern1
 _ZN8casacore17Allocator_private17BulkAllocatorImplINS_17new_del_allocatorINS_7QuantumIdEEEEED1Ev@Base 3.2.1-1kern1
 _ZN8casacore17Allocator_private17BulkAllocatorImplINS_17new_del_allocatorINS_7QuantumIdEEEEED2Ev@Base 3.2.1-1kern1
 _ZN8casacore17Allocator_private17BulkAllocatorImplINS_17new_del_allocatorIPNS_6SlicerEEEE10deallocateEPS4_m@Base 3.2.1-1kern1
 _ZN8casacore17Allocator_private17BulkAllocatorImplINS_17new_del_allocatorIPNS_6SlicerEEEE7destroyEPS4_m@Base 3.2.1-1kern1
 _ZN8casacore17Allocator_private17BulkAllocatorImplINS_17new_del_allocatorIPNS_6SlicerEEEE8allocateEmPKv@Base 3.2.1-1kern1
 _ZN8casacore17Allocator_private17BulkAllocatorImplINS_17new_del_allocatorIPNS_6SlicerEEEE9allocatorE@Base 3.2.1-1kern1
 _ZN8casacore17Allocator_private17BulkAllocatorImplINS_17new_del_allocatorIPNS_6SlicerEEEE9constructEPS4_m@Base 3.2.1-1kern1
 _ZN8casacore17Allocator_private17BulkAllocatorImplINS_17new_del_allocatorIPNS_6SlicerEEEE9constructEPS4_mPKS4_@Base 3.2.1-1kern1
 _ZN8casacore17Allocator_private17BulkAllocatorImplINS_17new_del_allocatorIPNS_6SlicerEEEE9constructEPS4_mRKS4_@Base 3.2.1-1kern1
 _ZN8casacore17Allocator_private17BulkAllocatorImplINS_17new_del_allocatorIPNS_6SlicerEEEED0Ev@Base 3.2.1-1kern1
 _ZN8casacore17Allocator_private17BulkAllocatorImplINS_17new_del_allocatorIPNS_6SlicerEEEED1Ev@Base 3.2.1-1kern1
 _ZN8casacore17Allocator_private17BulkAllocatorImplINS_17new_del_allocatorIPNS_6SlicerEEEED2Ev@Base 3.2.1-1kern1
 _ZN8casacore17Allocator_private17BulkAllocatorImplINS_18casacore_allocatorINS_6Stokes11StokesTypesELm32EEEE10deallocateEPS4_m@Base 3.2.1-1kern1
 _ZN8casacore17Allocator_private17BulkAllocatorImplINS_18casacore_allocatorINS_6Stokes11StokesTypesELm32EEEE7destroyEPS4_m@Base 3.2.1-1kern1
 _ZN8casacore17Allocator_private17BulkAllocatorImplINS_18casacore_allocatorINS_6Stokes11StokesTypesELm32EEEE8allocateEmPKv@Base 3.2.1-1kern1
 _ZN8casacore17Allocator_private17BulkAllocatorImplINS_18casacore_allocatorINS_6Stokes11StokesTypesELm32EEEE9allocatorE@Base 3.2.1-1kern1
 _ZN8casacore17Allocator_private17BulkAllocatorImplINS_18casacore_allocatorINS_6Stokes11StokesTypesELm32EEEE9constructEPS4_m@Base 3.2.1-1kern1
 _ZN8casacore17Allocator_private17BulkAllocatorImplINS_18casacore_allocatorINS_6Stokes11StokesTypesELm32EEEE9constructEPS4_mPKS4_@Base 3.2.1-1kern1
 _ZN8casacore17Allocator_private17BulkAllocatorImplINS_18casacore_allocatorINS_6Stokes11StokesTypesELm32EEEE9constructEPS4_mRKS4_@Base 3.2.1-1kern1
 _ZN8casacore17Allocator_private17BulkAllocatorImplINS_18casacore_allocatorINS_6Stokes11StokesTypesELm32EEEED0Ev@Base 3.2.1-1kern1
 _ZN8casacore17Allocator_private17BulkAllocatorImplINS_18casacore_allocatorINS_6Stokes11StokesTypesELm32EEEED1Ev@Base 3.2.1-1kern1
 _ZN8casacore17Allocator_private17BulkAllocatorImplINS_18casacore_allocatorINS_6Stokes11StokesTypesELm32EEEED2Ev@Base 3.2.1-1kern1
 _ZN8casacore17Allocator_private17BulkAllocatorImplINS_18casacore_allocatorINS_6StringELm32EEEE9allocatorE@Base 3.2.1-1kern1
 _ZN8casacore17Allocator_private17BulkAllocatorImplINS_18casacore_allocatorINS_7QuantumIdEELm32EEEE10deallocateEPS4_m@Base 3.2.1-1kern1
 _ZN8casacore17Allocator_private17BulkAllocatorImplINS_18casacore_allocatorINS_7QuantumIdEELm32EEEE7destroyEPS4_m@Base 3.2.1-1kern1
 _ZN8casacore17Allocator_private17BulkAllocatorImplINS_18casacore_allocatorINS_7QuantumIdEELm32EEEE8allocateEmPKv@Base 3.2.1-1kern1
 _ZN8casacore17Allocator_private17BulkAllocatorImplINS_18casacore_allocatorINS_7QuantumIdEELm32EEEE9allocatorE@Base 3.2.1-1kern1
 _ZN8casacore17Allocator_private17BulkAllocatorImplINS_18casacore_allocatorINS_7QuantumIdEELm32EEEE9constructEPS4_m@Base 3.2.1-1kern1
 _ZN8casacore17Allocator_private17BulkAllocatorImplINS_18casacore_allocatorINS_7QuantumIdEELm32EEEE9constructEPS4_mPKS4_@Base 3.2.1-1kern1
 _ZN8casacore17Allocator_private17BulkAllocatorImplINS_18casacore_allocatorINS_7QuantumIdEELm32EEEE9constructEPS4_mRKS4_@Base 3.2.1-1kern1
 _ZN8casacore17Allocator_private17BulkAllocatorImplINS_18casacore_allocatorINS_7QuantumIdEELm32EEEED0Ev@Base 3.2.1-1kern1
 _ZN8casacore17Allocator_private17BulkAllocatorImplINS_18casacore_allocatorINS_7QuantumIdEELm32EEEED1Ev@Base 3.2.1-1kern1
 _ZN8casacore17Allocator_private17BulkAllocatorImplINS_18casacore_allocatorINS_7QuantumIdEELm32EEEED2Ev@Base 3.2.1-1kern1
 _ZN8casacore17Allocator_private17BulkAllocatorImplINS_18casacore_allocatorIPNS_6SlicerELm32EEEE10deallocateEPS4_m@Base 3.2.1-1kern1
 _ZN8casacore17Allocator_private17BulkAllocatorImplINS_18casacore_allocatorIPNS_6SlicerELm32EEEE7destroyEPS4_m@Base 3.2.1-1kern1
 _ZN8casacore17Allocator_private17BulkAllocatorImplINS_18casacore_allocatorIPNS_6SlicerELm32EEEE8allocateEmPKv@Base 3.2.1-1kern1
 _ZN8casacore17Allocator_private17BulkAllocatorImplINS_18casacore_allocatorIPNS_6SlicerELm32EEEE9allocatorE@Base 3.2.1-1kern1
 _ZN8casacore17Allocator_private17BulkAllocatorImplINS_18casacore_allocatorIPNS_6SlicerELm32EEEE9constructEPS4_m@Base 3.2.1-1kern1
 _ZN8casacore17Allocator_private17BulkAllocatorImplINS_18casacore_allocatorIPNS_6SlicerELm32EEEE9constructEPS4_mPKS4_@Base 3.2.1-1kern1
 _ZN8casacore17Allocator_private17BulkAllocatorImplINS_18casacore_allocatorIPNS_6SlicerELm32EEEE9constructEPS4_mRKS4_@Base 3.2.1-1kern1
 _ZN8casacore17Allocator_private17BulkAllocatorImplINS_18casacore_allocatorIPNS_6SlicerELm32EEEED0Ev@Base 3.2.1-1kern1
 _ZN8casacore17Allocator_private17BulkAllocatorImplINS_18casacore_allocatorIPNS_6SlicerELm32EEEED1Ev@Base 3.2.1-1kern1
 _ZN8casacore17Allocator_private17BulkAllocatorImplINS_18casacore_allocatorIPNS_6SlicerELm32EEEED2Ev@Base 3.2.1-1kern1
 _ZN8casacore17Allocator_private17BulkAllocatorImplINS_18casacore_allocatorIPvLm32EEEE10deallocateEPS3_m@Base 3.2.1-1kern1
 _ZN8casacore17Allocator_private17BulkAllocatorImplINS_18casacore_allocatorIPvLm32EEEE7destroyEPS3_m@Base 3.2.1-1kern1
 _ZN8casacore17Allocator_private17BulkAllocatorImplINS_18casacore_allocatorIPvLm32EEEE8allocateEmPKv@Base 3.2.1-1kern1
 _ZN8casacore17Allocator_private17BulkAllocatorImplINS_18casacore_allocatorIPvLm32EEEE9allocatorE@Base 3.2.1-1kern1
 _ZN8casacore17Allocator_private17BulkAllocatorImplINS_18casacore_allocatorIPvLm32EEEE9constructEPS3_m@Base 3.2.1-1kern1
 _ZN8casacore17Allocator_private17BulkAllocatorImplINS_18casacore_allocatorIPvLm32EEEE9constructEPS3_mPKS3_@Base 3.2.1-1kern1
 _ZN8casacore17Allocator_private17BulkAllocatorImplINS_18casacore_allocatorIPvLm32EEEE9constructEPS3_mRKS3_@Base 3.2.1-1kern1
 _ZN8casacore17Allocator_private17BulkAllocatorImplINS_18casacore_allocatorIPvLm32EEEED0Ev@Base 3.2.1-1kern1
 _ZN8casacore17Allocator_private17BulkAllocatorImplINS_18casacore_allocatorIPvLm32EEEED1Ev@Base 3.2.1-1kern1
 _ZN8casacore17Allocator_private17BulkAllocatorImplINS_18casacore_allocatorIPvLm32EEEED2Ev@Base 3.2.1-1kern1
 _ZN8casacore17Allocator_private17BulkAllocatorImplINS_18casacore_allocatorIbLm32EEEE10deallocateEPbm@Base 3.2.1-1kern1
 _ZN8casacore17Allocator_private17BulkAllocatorImplINS_18casacore_allocatorIbLm32EEEE7destroyEPbm@Base 3.2.1-1kern1
 _ZN8casacore17Allocator_private17BulkAllocatorImplINS_18casacore_allocatorIbLm32EEEE8allocateEmPKv@Base 3.2.1-1kern1
 _ZN8casacore17Allocator_private17BulkAllocatorImplINS_18casacore_allocatorIbLm32EEEE9allocatorE@Base 3.2.1-1kern1
 _ZN8casacore17Allocator_private17BulkAllocatorImplINS_18casacore_allocatorIbLm32EEEE9constructEPbm@Base 3.2.1-1kern1
 _ZN8casacore17Allocator_private17BulkAllocatorImplINS_18casacore_allocatorIbLm32EEEE9constructEPbmPKb@Base 3.2.1-1kern1
 _ZN8casacore17Allocator_private17BulkAllocatorImplINS_18casacore_allocatorIbLm32EEEE9constructEPbmRKb@Base 3.2.1-1kern1
 _ZN8casacore17Allocator_private17BulkAllocatorImplINS_18casacore_allocatorIbLm32EEEED0Ev@Base 3.2.1-1kern1
 _ZN8casacore17Allocator_private17BulkAllocatorImplINS_18casacore_allocatorIbLm32EEEED1Ev@Base 3.2.1-1kern1
 _ZN8casacore17Allocator_private17BulkAllocatorImplINS_18casacore_allocatorIbLm32EEEED2Ev@Base 3.2.1-1kern1
 _ZN8casacore17Allocator_private17BulkAllocatorImplINS_18casacore_allocatorIdLm32EEEE10deallocateEPdm@Base 3.2.1-1kern1
 _ZN8casacore17Allocator_private17BulkAllocatorImplINS_18casacore_allocatorIdLm32EEEE7destroyEPdm@Base 3.2.1-1kern1
 _ZN8casacore17Allocator_private17BulkAllocatorImplINS_18casacore_allocatorIdLm32EEEE8allocateEmPKv@Base 3.2.1-1kern1
 _ZN8casacore17Allocator_private17BulkAllocatorImplINS_18casacore_allocatorIdLm32EEEE9allocatorE@Base 3.2.1-1kern1
 _ZN8casacore17Allocator_private17BulkAllocatorImplINS_18casacore_allocatorIdLm32EEEE9constructEPdm@Base 3.2.1-1kern1
 _ZN8casacore17Allocator_private17BulkAllocatorImplINS_18casacore_allocatorIdLm32EEEE9constructEPdmPKd@Base 3.2.1-1kern1
 _ZN8casacore17Allocator_private17BulkAllocatorImplINS_18casacore_allocatorIdLm32EEEE9constructEPdmRKd@Base 3.2.1-1kern1
 _ZN8casacore17Allocator_private17BulkAllocatorImplINS_18casacore_allocatorIdLm32EEEED0Ev@Base 3.2.1-1kern1
 _ZN8casacore17Allocator_private17BulkAllocatorImplINS_18casacore_allocatorIdLm32EEEED1Ev@Base 3.2.1-1kern1
 _ZN8casacore17Allocator_private17BulkAllocatorImplINS_18casacore_allocatorIdLm32EEEED2Ev@Base 3.2.1-1kern1
 _ZN8casacore17Allocator_private17BulkAllocatorImplINS_18casacore_allocatorIiLm32EEEE10deallocateEPim@Base 3.2.1-1kern1
 _ZN8casacore17Allocator_private17BulkAllocatorImplINS_18casacore_allocatorIiLm32EEEE7destroyEPim@Base 3.2.1-1kern1
 _ZN8casacore17Allocator_private17BulkAllocatorImplINS_18casacore_allocatorIiLm32EEEE8allocateEmPKv@Base 3.2.1-1kern1
 _ZN8casacore17Allocator_private17BulkAllocatorImplINS_18casacore_allocatorIiLm32EEEE9allocatorE@Base 3.2.1-1kern1
 _ZN8casacore17Allocator_private17BulkAllocatorImplINS_18casacore_allocatorIiLm32EEEE9constructEPim@Base 3.2.1-1kern1
 _ZN8casacore17Allocator_private17BulkAllocatorImplINS_18casacore_allocatorIiLm32EEEE9constructEPimPKi@Base 3.2.1-1kern1
 _ZN8casacore17Allocator_private17BulkAllocatorImplINS_18casacore_allocatorIiLm32EEEE9constructEPimRKi@Base 3.2.1-1kern1
 _ZN8casacore17Allocator_private17BulkAllocatorImplINS_18casacore_allocatorIiLm32EEEED0Ev@Base 3.2.1-1kern1
 _ZN8casacore17Allocator_private17BulkAllocatorImplINS_18casacore_allocatorIiLm32EEEED1Ev@Base 3.2.1-1kern1
 _ZN8casacore17Allocator_private17BulkAllocatorImplINS_18casacore_allocatorIiLm32EEEED2Ev@Base 3.2.1-1kern1
 _ZN8casacore17Allocator_private17BulkAllocatorImplINS_18casacore_allocatorIjLm32EEEE10deallocateEPjm@Base 3.2.1-1kern1
 _ZN8casacore17Allocator_private17BulkAllocatorImplINS_18casacore_allocatorIjLm32EEEE7destroyEPjm@Base 3.2.1-1kern1
 _ZN8casacore17Allocator_private17BulkAllocatorImplINS_18casacore_allocatorIjLm32EEEE8allocateEmPKv@Base 3.2.1-1kern1
 _ZN8casacore17Allocator_private17BulkAllocatorImplINS_18casacore_allocatorIjLm32EEEE9allocatorE@Base 3.2.1-1kern1
 _ZN8casacore17Allocator_private17BulkAllocatorImplINS_18casacore_allocatorIjLm32EEEE9constructEPjm@Base 3.2.1-1kern1
 _ZN8casacore17Allocator_private17BulkAllocatorImplINS_18casacore_allocatorIjLm32EEEE9constructEPjmPKj@Base 3.2.1-1kern1
 _ZN8casacore17Allocator_private17BulkAllocatorImplINS_18casacore_allocatorIjLm32EEEE9constructEPjmRKj@Base 3.2.1-1kern1
 _ZN8casacore17Allocator_private17BulkAllocatorImplINS_18casacore_allocatorIjLm32EEEED0Ev@Base 3.2.1-1kern1
 _ZN8casacore17Allocator_private17BulkAllocatorImplINS_18casacore_allocatorIjLm32EEEED1Ev@Base 3.2.1-1kern1
 _ZN8casacore17Allocator_private17BulkAllocatorImplINS_18casacore_allocatorIjLm32EEEED2Ev@Base 3.2.1-1kern1
 _ZN8casacore17Allocator_private17get_allocator_rawINS_18casacore_allocatorIPvLm32EEEEEPNS0_17BulkAllocatorImplIT_EEv@Base 3.2.1-1kern1
 _ZN8casacore17QualityCoordinate10setQualityERKNS_6VectorIiEE@Base 3.2.1-1kern1
 _ZN8casacore17QualityCoordinate12setIncrementERKNS_6VectorIdEE@Base 3.2.1-1kern1
 _ZN8casacore17QualityCoordinate17setReferencePixelERKNS_6VectorIdEE@Base 3.2.1-1kern1
 _ZN8casacore17QualityCoordinate17setReferenceValueERKNS_6VectorIdEE@Base 3.2.1-1kern1
 _ZN8casacore17QualityCoordinate17setWorldAxisNamesERKNS_6VectorINS_6StringEEE@Base 3.2.1-1kern1
 _ZN8casacore17QualityCoordinate17setWorldAxisUnitsERKNS_6VectorINS_6StringEEE@Base 3.2.1-1kern1
 _ZN8casacore17QualityCoordinate17setWorldMixRangesERKNS_9IPositionE@Base 3.2.1-1kern1
 _ZN8casacore17QualityCoordinate18setLinearTransformERKNS_6MatrixIdEE@Base 3.2.1-1kern1
 _ZN8casacore17QualityCoordinate24setDefaultWorldMixRangesEv@Base 3.2.1-1kern1
 _ZN8casacore17QualityCoordinate7restoreERKNS_15RecordInterfaceERKNS_6StringE@Base 3.2.1-1kern1
 _ZN8casacore17QualityCoordinate7toWorldENS_7Quality12QualityTypesE@Base 3.2.1-1kern1
 _ZN8casacore17QualityCoordinate7toWorldEd@Base 3.2.1-1kern1
 _ZN8casacore17QualityCoordinateC1ERKNS_6VectorIiEE@Base 3.2.1-1kern1
 _ZN8casacore17QualityCoordinateC1ERKS0_@Base 3.2.1-1kern1
 _ZN8casacore17QualityCoordinateC2ERKNS_6VectorIiEE@Base 3.2.1-1kern1
 _ZN8casacore17QualityCoordinateC2ERKS0_@Base 3.2.1-1kern1
 _ZN8casacore17QualityCoordinateD0Ev@Base 3.2.1-1kern1
 _ZN8casacore17QualityCoordinateD1Ev@Base 3.2.1-1kern1
 _ZN8casacore17QualityCoordinateD2Ev@Base 3.2.1-1kern1
 _ZN8casacore17QualityCoordinateaSERKS0_@Base 3.2.1-1kern1
 _ZN8casacore17TabularCoordinate10clear_selfEv@Base 3.2.1-1kern1
 _ZN8casacore17TabularCoordinate12setIncrementERKNS_6VectorIdEE@Base 3.2.1-1kern1
 _ZN8casacore17TabularCoordinate17setReferencePixelERKNS_6VectorIdEE@Base 3.2.1-1kern1
 _ZN8casacore17TabularCoordinate17setReferenceValueERKNS_6VectorIdEE@Base 3.2.1-1kern1
 _ZN8casacore17TabularCoordinate17setWorldAxisNamesERKNS_6VectorINS_6StringEEE@Base 3.2.1-1kern1
 _ZN8casacore17TabularCoordinate17setWorldAxisUnitsERKNS_6VectorINS_6StringEEE@Base 3.2.1-1kern1
 _ZN8casacore17TabularCoordinate18setLinearTransformERKNS_6MatrixIdEE@Base 3.2.1-1kern1
 _ZN8casacore17TabularCoordinate23overwriteWorldAxisUnitsERKNS_6VectorINS_6StringEEE@Base 3.2.1-1kern1
 _ZN8casacore17TabularCoordinate30makeNonLinearTabularCoordinateERKNS_6VectorIdEES4_@Base 3.2.1-1kern1
 _ZN8casacore17TabularCoordinate4copyERKS0_@Base 3.2.1-1kern1
 _ZN8casacore17TabularCoordinate7restoreERKNS_15RecordInterfaceERKNS_6StringE@Base 3.2.1-1kern1
 _ZN8casacore17TabularCoordinateC1ERKNS_6VectorIdEERKNS_7QuantumIS2_EERKNS_6StringE@Base 3.2.1-1kern1
 _ZN8casacore17TabularCoordinateC1ERKNS_6VectorIdEES4_RKNS_6StringES7_@Base 3.2.1-1kern1
 _ZN8casacore17TabularCoordinateC1ERKNS_7QuantumIdEES4_dRKNS_6StringE@Base 3.2.1-1kern1
 _ZN8casacore17TabularCoordinateC1ERKS0_@Base 3.2.1-1kern1
 _ZN8casacore17TabularCoordinateC1EdddRKNS_6StringES3_@Base 3.2.1-1kern1
 _ZN8casacore17TabularCoordinateC1Ev@Base 3.2.1-1kern1
 _ZN8casacore17TabularCoordinateC2ERKNS_6VectorIdEERKNS_7QuantumIS2_EERKNS_6StringE@Base 3.2.1-1kern1
 _ZN8casacore17TabularCoordinateC2ERKNS_6VectorIdEES4_RKNS_6StringES7_@Base 3.2.1-1kern1
 _ZN8casacore17TabularCoordinateC2ERKNS_7QuantumIdEES4_dRKNS_6StringE@Base 3.2.1-1kern1
 _ZN8casacore17TabularCoordinateC2ERKS0_@Base 3.2.1-1kern1
 _ZN8casacore17TabularCoordinateC2EdddRKNS_6StringES3_@Base 3.2.1-1kern1
 _ZN8casacore17TabularCoordinateC2Ev@Base 3.2.1-1kern1
 _ZN8casacore17TabularCoordinateD0Ev@Base 3.2.1-1kern1
 _ZN8casacore17TabularCoordinateD1Ev@Base 3.2.1-1kern1
 _ZN8casacore17TabularCoordinateD2Ev@Base 3.2.1-1kern1
 _ZN8casacore17TabularCoordinateaSERKS0_@Base 3.2.1-1kern1
 _ZN8casacore17new_del_allocatorINS_6Stokes11StokesTypesEED1Ev@Base 3.2.1-1kern1
 _ZN8casacore17new_del_allocatorINS_6Stokes11StokesTypesEED2Ev@Base 3.2.1-1kern1
 _ZN8casacore17new_del_allocatorINS_7QuantumIdEEED1Ev@Base 3.2.1-1kern1
 _ZN8casacore17new_del_allocatorINS_7QuantumIdEEED2Ev@Base 3.2.1-1kern1
 _ZN8casacore17new_del_allocatorIPNS_6SlicerEED1Ev@Base 3.2.1-1kern1
 _ZN8casacore17new_del_allocatorIPNS_6SlicerEED2Ev@Base 3.2.1-1kern1
 _ZN8casacore18FITSCoordinateUtil15getCDFromHeaderERNS_6MatrixIdEEjRKNS_15RecordInterfaceE@Base 3.2.1-1kern1
 _ZN8casacore18FITSCoordinateUtil15getPCFromHeaderERNS_5LogIOERiRNS_6MatrixIdEEjRKNS_15RecordInterfaceERKNS_6StringE@Base 3.2.1-1kern1
 _ZN8casacore18FITSCoordinateUtil18cTypeFromDirectionERKNS_10ProjectionERKNS_6VectorINS_6StringEEEb@Base 3.2.1-1kern1
 _ZN8casacore18FITSCoordinateUtil18cTypeFromDirectionERbRKNS_10ProjectionERKNS_6VectorINS_6StringEEEdb@Base 3.2.1-1kern1
 _ZN8casacore18FITSCoordinateUtil7wcsInitER6wcsprm@Base 3.2.1-1kern1
 _ZN8casacore18SpectralCoordinate10wcsRestoreERdS1_S1_S1_RNS_6StringERKNS_15RecordInterfaceE@Base 3.2.1-1kern1
 _ZN8casacore18SpectralCoordinate11setVelocityERKNS_6StringENS_8MDoppler5TypesE@Base 3.2.1-1kern1
 _ZN8casacore18SpectralCoordinate12setIncrementERKNS_6VectorIdEE@Base 3.2.1-1kern1
 _ZN8casacore18SpectralCoordinate13setFormatUnitERKNS_6StringE@Base 3.2.1-1kern1
 _ZN8casacore18SpectralCoordinate13setNativeTypeENS0_8SpecTypeE@Base 3.2.1-1kern1
 _ZN8casacore18SpectralCoordinate15restoreVelocityERPS0_RKNS_15RecordInterfaceE@Base 3.2.1-1kern1
 _ZN8casacore18SpectralCoordinate15restoreVersion1ERKNS_15RecordInterfaceE@Base 3.2.1-1kern1
 _ZN8casacore18SpectralCoordinate15restoreVersion2ERKNS_15RecordInterfaceE@Base 3.2.1-1kern1
 _ZN8casacore18SpectralCoordinate16setRestFrequencyEdb@Base 3.2.1-1kern1
 _ZN8casacore18SpectralCoordinate16specTypetoStringERNS_6StringERKNS0_8SpecTypeE@Base 3.2.1-1kern1
 _ZN8casacore18SpectralCoordinate16stringtoSpecTypeERNS0_8SpecTypeERKNS_6StringE@Base 3.2.1-1kern1
 _ZN8casacore18SpectralCoordinate17restoreConversionERPS0_RKNS_15RecordInterfaceE@Base 3.2.1-1kern1
 _ZN8casacore18SpectralCoordinate17setReferencePixelERKNS_6VectorIdEE@Base 3.2.1-1kern1
 _ZN8casacore18SpectralCoordinate17setReferenceValueERKNS_6VectorIdEE@Base 3.2.1-1kern1
 _ZN8casacore18SpectralCoordinate17setWavelengthUnitERKNS_6StringE@Base 3.2.1-1kern1
 _ZN8casacore18SpectralCoordinate17setWorldAxisNamesERKNS_6VectorINS_6StringEEE@Base 3.2.1-1kern1
 _ZN8casacore18SpectralCoordinate17setWorldAxisUnitsERKNS_6VectorINS_6StringEEE@Base 3.2.1-1kern1
 _ZN8casacore18SpectralCoordinate18setFrequencySystemENS_10MFrequency5TypesEb@Base 3.2.1-1kern1
 _ZN8casacore18SpectralCoordinate18setLinearTransformERKNS_6MatrixIdEE@Base 3.2.1-1kern1
 _ZN8casacore18SpectralCoordinate18setRestFrequenciesERKNS_6VectorIdEEjb@Base 3.2.1-1kern1
 _ZN8casacore18SpectralCoordinate19makeVelocityMachineERKNS_6StringENS_8MDoppler5TypesERKNS_4UnitENS_10MFrequency5TypesEd@Base 3.2.1-1kern1
 _ZN8casacore18SpectralCoordinate19selectRestFrequencyEd@Base 3.2.1-1kern1
 _ZN8casacore18SpectralCoordinate19selectRestFrequencyEj@Base 3.2.1-1kern1
 _ZN8casacore18SpectralCoordinate21deleteVelocityMachineEv@Base 3.2.1-1kern1
 _ZN8casacore18SpectralCoordinate21updateVelocityMachineERKNS_6StringENS_8MDoppler5TypesE@Base 3.2.1-1kern1
 _ZN8casacore18SpectralCoordinate22makeConversionMachinesENS_10MFrequency5TypesES2_RKNS_6MEpochERKNS_9MPositionERKNS_10MDirectionE@Base 3.2.1-1kern1
 _ZN8casacore18SpectralCoordinate22restoreRestFrequenciesERPS0_RKNS_15RecordInterfaceEd@Base 3.2.1-1kern1
 _ZN8casacore18SpectralCoordinate22setReferenceConversionENS_10MFrequency5TypesERKNS_6MEpochERKNS_9MPositionERKNS_10MDirectionE@Base 3.2.1-1kern1
 _ZN8casacore18SpectralCoordinate24_setTabulatedFrequenciesERKNS_6VectorIdEE@Base 3.2.1-1kern1
 _ZN8casacore18SpectralCoordinate24deleteConversionMachinesEv@Base 3.2.1-1kern1
 _ZN8casacore18SpectralCoordinate24transformFrequencySystemENS_10MFrequency5TypesERKNS_6MEpochERKNS_9MPositionERKNS_10MDirectionE@Base 3.2.1-1kern1
 _ZN8casacore18SpectralCoordinate4copyERKS0_@Base 3.2.1-1kern1
 _ZN8casacore18SpectralCoordinate7makeWCSER6wcsprmRKNS_6StringEddddd@Base 3.2.1-1kern1
 _ZN8casacore18SpectralCoordinate7restoreERKNS_15RecordInterfaceERKNS_6StringE@Base 3.2.1-1kern1
 _ZN8casacore18SpectralCoordinateC1ENS_10MFrequency5TypesENS_8MDoppler5TypesERKNS_6VectorIdEERKNS_6StringEd@Base 3.2.1-1kern1
 _ZN8casacore18SpectralCoordinateC1ENS_10MFrequency5TypesERK6wcsprmb@Base 3.2.1-1kern1
 _ZN8casacore18SpectralCoordinateC1ENS_10MFrequency5TypesERKNS_6VectorIdEERKNS_6StringEdb@Base 3.2.1-1kern1
 _ZN8casacore18SpectralCoordinateC1ENS_10MFrequency5TypesERKNS_6VectorIdEEd@Base 3.2.1-1kern1
 _ZN8casacore18SpectralCoordinateC1ENS_10MFrequency5TypesERKNS_7QuantumINS_6VectorIdEEEERKNS3_IdEE@Base 3.2.1-1kern1
 _ZN8casacore18SpectralCoordinateC1ENS_10MFrequency5TypesERKNS_7QuantumIdEES6_dS6_@Base 3.2.1-1kern1
 _ZN8casacore18SpectralCoordinateC1ENS_10MFrequency5TypesEdddd@Base 3.2.1-1kern1
 _ZN8casacore18SpectralCoordinateC1ERKS0_@Base 3.2.1-1kern1
 _ZN8casacore18SpectralCoordinateC1Ev@Base 3.2.1-1kern1
 _ZN8casacore18SpectralCoordinateC2ENS_10MFrequency5TypesENS_8MDoppler5TypesERKNS_6VectorIdEERKNS_6StringEd@Base 3.2.1-1kern1
 _ZN8casacore18SpectralCoordinateC2ENS_10MFrequency5TypesERK6wcsprmb@Base 3.2.1-1kern1
 _ZN8casacore18SpectralCoordinateC2ENS_10MFrequency5TypesERKNS_6VectorIdEERKNS_6StringEdb@Base 3.2.1-1kern1
 _ZN8casacore18SpectralCoordinateC2ENS_10MFrequency5TypesERKNS_6VectorIdEEd@Base 3.2.1-1kern1
 _ZN8casacore18SpectralCoordinateC2ENS_10MFrequency5TypesERKNS_7QuantumINS_6VectorIdEEEERKNS3_IdEE@Base 3.2.1-1kern1
 _ZN8casacore18SpectralCoordinateC2ENS_10MFrequency5TypesERKNS_7QuantumIdEES6_dS6_@Base 3.2.1-1kern1
 _ZN8casacore18SpectralCoordinateC2ENS_10MFrequency5TypesEdddd@Base 3.2.1-1kern1
 _ZN8casacore18SpectralCoordinateC2ERKS0_@Base 3.2.1-1kern1
 _ZN8casacore18SpectralCoordinateC2Ev@Base 3.2.1-1kern1
 _ZN8casacore18SpectralCoordinateD0Ev@Base 3.2.1-1kern1
 _ZN8casacore18SpectralCoordinateD1Ev@Base 3.2.1-1kern1
 _ZN8casacore18SpectralCoordinateD2Ev@Base 3.2.1-1kern1
 _ZN8casacore18SpectralCoordinateaSERKS0_@Base 3.2.1-1kern1
 _ZN8casacore18arrayContTransformIdddSt7dividesIdEEEvRKNS_5ArrayIT_EET0_RNS3_IT1_EET2_@Base 3.2.1-1kern1
 _ZN8casacore18casacore_allocatorINS_6Stokes11StokesTypesELm32EED1Ev@Base 3.2.1-1kern1
 _ZN8casacore18casacore_allocatorINS_6Stokes11StokesTypesELm32EED2Ev@Base 3.2.1-1kern1
 _ZN8casacore18casacore_allocatorINS_6StringELm32EED1Ev@Base 3.2.1-1kern1
 _ZN8casacore18casacore_allocatorINS_6StringELm32EED2Ev@Base 3.2.1-1kern1
 _ZN8casacore18casacore_allocatorINS_7QuantumIdEELm32EED1Ev@Base 3.2.1-1kern1
 _ZN8casacore18casacore_allocatorINS_7QuantumIdEELm32EED2Ev@Base 3.2.1-1kern1
 _ZN8casacore18casacore_allocatorIPNS_6SlicerELm32EED1Ev@Base 3.2.1-1kern1
 _ZN8casacore18casacore_allocatorIPNS_6SlicerELm32EED2Ev@Base 3.2.1-1kern1
 _ZN8casacore18casacore_allocatorIPvLm32EED1Ev@Base 3.2.1-1kern1
 _ZN8casacore18casacore_allocatorIPvLm32EED2Ev@Base 3.2.1-1kern1
 _ZN8casacore18casacore_allocatorIbLm32EED1Ev@Base 3.2.1-1kern1
 _ZN8casacore18casacore_allocatorIbLm32EED2Ev@Base 3.2.1-1kern1
 _ZN8casacore18casacore_allocatorIdLm32EED1Ev@Base 3.2.1-1kern1
 _ZN8casacore18casacore_allocatorIdLm32EED2Ev@Base 3.2.1-1kern1
 _ZN8casacore18casacore_allocatorIiLm32EED1Ev@Base 3.2.1-1kern1
 _ZN8casacore18casacore_allocatorIiLm32EED2Ev@Base 3.2.1-1kern1
 _ZN8casacore18casacore_allocatorIjLm32EED1Ev@Base 3.2.1-1kern1
 _ZN8casacore18casacore_allocatorIjLm32EED2Ev@Base 3.2.1-1kern1
 _ZN8casacore19DirectionCoordinate12setIncrementERKNS_6VectorIdEE@Base 3.2.1-1kern1
 _ZN8casacore19DirectionCoordinate13setProjectionERKNS_10ProjectionE@Base 3.2.1-1kern1
 _ZN8casacore19DirectionCoordinate14cylindricalFixEii@Base 3.2.1-1kern1
 _ZN8casacore19DirectionCoordinate17initializeFactorsEv@Base 3.2.1-1kern1
 _ZN8casacore19DirectionCoordinate17normalizePCMatrixEv@Base 3.2.1-1kern1
 _ZN8casacore19DirectionCoordinate17setReferenceFrameENS_10MDirection5TypesE@Base 3.2.1-1kern1
 _ZN8casacore19DirectionCoordinate17setReferencePixelERKNS_6VectorIdEE@Base 3.2.1-1kern1
 _ZN8casacore19DirectionCoordinate17setReferenceValueERKNS_6VectorIdEE@Base 3.2.1-1kern1
 _ZN8casacore19DirectionCoordinate17setRotationMatrixEv@Base 3.2.1-1kern1
 _ZN8casacore19DirectionCoordinate17setWorldAxisNamesERKNS_6VectorINS_6StringEEE@Base 3.2.1-1kern1
 _ZN8casacore19DirectionCoordinate17setWorldAxisUnitsERKNS_6VectorINS_6StringEEE@Base 3.2.1-1kern1
 _ZN8casacore19DirectionCoordinate17setWorldMixRangesERKNS_6VectorIbEERKNS1_IdEE@Base 3.2.1-1kern1
 _ZN8casacore19DirectionCoordinate17setWorldMixRangesERKNS_9IPositionE@Base 3.2.1-1kern1
 _ZN8casacore19DirectionCoordinate18setLinearTransformERKNS_6MatrixIdEE@Base 3.2.1-1kern1
 _ZN8casacore19DirectionCoordinate22makeConversionMachinesEv@Base 3.2.1-1kern1
 _ZN8casacore19DirectionCoordinate22setReferenceConversionENS_10MDirection5TypesE@Base 3.2.1-1kern1
 _ZN8casacore19DirectionCoordinate23makeDirectionCoordinateENS_10MDirection5TypesERKNS_10ProjectionEddddRKNS_6MatrixIdEEdddd@Base 3.2.1-1kern1
 _ZN8casacore19DirectionCoordinate24setDefaultWorldMixRangesEv@Base 3.2.1-1kern1
 _ZN8casacore19DirectionCoordinate4copyERKS0_@Base 3.2.1-1kern1
 _ZN8casacore19DirectionCoordinate7makeWCSER6wcsprmRKNS_6MatrixIdEERKNS_10ProjectionENS_10MDirection5TypesEdddddddd@Base 3.2.1-1kern1
 _ZN8casacore19DirectionCoordinate7restoreERKNS_15RecordInterfaceERKNS_6StringE@Base 3.2.1-1kern1
 _ZN8casacore19DirectionCoordinate9axisNamesENS_10MDirection5TypesEb@Base 3.2.1-1kern1
 _ZN8casacore19DirectionCoordinateC1ENS_10MDirection5TypesERK6wcsprmb@Base 3.2.1-1kern1
 _ZN8casacore19DirectionCoordinateC1ENS_10MDirection5TypesERKNS_10ProjectionERKNS_7QuantumIdEES9_S9_S9_RKNS_6MatrixIdEEddS9_S9_@Base 3.2.1-1kern1
 _ZN8casacore19DirectionCoordinateC1ENS_10MDirection5TypesERKNS_10ProjectionEddddRKNS_6MatrixIdEEdddd@Base 3.2.1-1kern1
 _ZN8casacore19DirectionCoordinateC1ERKS0_@Base 3.2.1-1kern1
 _ZN8casacore19DirectionCoordinateC1Ev@Base 3.2.1-1kern1
 _ZN8casacore19DirectionCoordinateC2ENS_10MDirection5TypesERK6wcsprmb@Base 3.2.1-1kern1
 _ZN8casacore19DirectionCoordinateC2ENS_10MDirection5TypesERKNS_10ProjectionERKNS_7QuantumIdEES9_S9_S9_RKNS_6MatrixIdEEddS9_S9_@Base 3.2.1-1kern1
 _ZN8casacore19DirectionCoordinateC2ENS_10MDirection5TypesERKNS_10ProjectionEddddRKNS_6MatrixIdEEdddd@Base 3.2.1-1kern1
 _ZN8casacore19DirectionCoordinateC2ERKS0_@Base 3.2.1-1kern1
 _ZN8casacore19DirectionCoordinateC2Ev@Base 3.2.1-1kern1
 _ZN8casacore19DirectionCoordinateD0Ev@Base 3.2.1-1kern1
 _ZN8casacore19DirectionCoordinateD1Ev@Base 3.2.1-1kern1
 _ZN8casacore19DirectionCoordinateD2Ev@Base 3.2.1-1kern1
 _ZN8casacore19DirectionCoordinateaSERKS0_@Base 3.2.1-1kern1
 _ZN8casacore21ArrayPositionIteratorD0Ev@Base 3.2.1-1kern1
 _ZN8casacore21ArrayPositionIteratorD1Ev@Base 3.2.1-1kern1
 _ZN8casacore21ArrayPositionIteratorD2Ev@Base 3.2.1-1kern1
 _ZN8casacore21arrayTransformInPlaceIddSt10multipliesIdEEEvRNS_5ArrayIT_EERKNS3_IT0_EET1_@Base 3.2.1-1kern1
 _ZN8casacore21arrayTransformInPlaceIddSt10multipliesIdEEEvRNS_5ArrayIT_EET0_T1_@Base 3.2.1-1kern1
 _ZN8casacore21arrayTransformInPlaceIddSt4plusIdEEEvRNS_5ArrayIT_EERKNS3_IT0_EET1_@Base 3.2.1-1kern1
 _ZN8casacore21arrayTransformInPlaceIddSt4plusIdEEEvRNS_5ArrayIT_EET0_T1_@Base 3.2.1-1kern1
 _ZN8casacore21arrayTransformInPlaceIddSt5minusIdEEEvRNS_5ArrayIT_EERKNS3_IT0_EET1_@Base 3.2.1-1kern1
 _ZN8casacore21arrayTransformInPlaceIddSt5minusIdEEEvRNS_5ArrayIT_EET0_T1_@Base 3.2.1-1kern1
 _ZN8casacore21arrayTransformInPlaceIddSt7dividesIdEEEvRNS_5ArrayIT_EET0_T1_@Base 3.2.1-1kern1
 _ZN8casacore23ScalarSampledFunctionalIdEC1ERKNS_6VectorIdEE@Base 3.2.1-1kern1
 _ZN8casacore23ScalarSampledFunctionalIdEC2ERKNS_6VectorIdEE@Base 3.2.1-1kern1
 _ZN8casacore23ScalarSampledFunctionalIdED0Ev@Base 3.2.1-1kern1
 _ZN8casacore23ScalarSampledFunctionalIdED1Ev@Base 3.2.1-1kern1
 _ZN8casacore23ScalarSampledFunctionalIdED2Ev@Base 3.2.1-1kern1
 _ZN8casacore26UnitVal_static_initializerC1Ev@Base 3.2.1-1kern1
 _ZN8casacore26UnitVal_static_initializerC2Ev@Base 3.2.1-1kern1
 _ZN8casacore3sumIdEET_RKNS_5ArrayIS1_EE@Base 3.2.1-1kern1
 _ZN8casacore5ArrayINS_7QuantumIdEEE10assignBaseERKNS_9ArrayBaseEb@Base 3.2.1-1kern1
 _ZN8casacore5ArrayINS_7QuantumIdEEE10getStorageERb@Base 3.2.1-1kern1
 _ZN8casacore5ArrayINS_7QuantumIdEEE10putStorageERPS2_b@Base 3.2.1-1kern1
 _ZN8casacore5ArrayINS_7QuantumIdEEE11getVStorageERb@Base 3.2.1-1kern1
 _ZN8casacore5ArrayINS_7QuantumIdEEE11putVStorageERPvb@Base 3.2.1-1kern1
 _ZN8casacore5ArrayINS_7QuantumIdEEE11takeStorageERKNS_9IPositionEPKS2_@Base 3.2.1-1kern1
 _ZN8casacore5ArrayINS_7QuantumIdEEE11takeStorageERKNS_9IPositionEPKS2_RKNS_17AbstractAllocatorIS2_EE@Base 3.2.1-1kern1
 _ZN8casacore5ArrayINS_7QuantumIdEEE11takeStorageERKNS_9IPositionEPS2_NS_17StorageInitPolicyE@Base 3.2.1-1kern1
 _ZN8casacore5ArrayINS_7QuantumIdEEE11takeStorageERKNS_9IPositionEPS2_NS_17StorageInitPolicyERKNS_17AbstractAllocatorIS2_EE@Base 3.2.1-1kern1
 _ZN8casacore5ArrayINS_7QuantumIdEEE14preTakeStorageERKNS_9IPositionE@Base 3.2.1-1kern1
 _ZN8casacore5ArrayINS_7QuantumIdEEE15BaseIteratorSTL9incrementEv@Base 3.2.1-1kern1
 _ZN8casacore5ArrayINS_7QuantumIdEEE15BaseIteratorSTLC1ERKS3_@Base 3.2.1-1kern1
 _ZN8casacore5ArrayINS_7QuantumIdEEE15BaseIteratorSTLC2ERKS3_@Base 3.2.1-1kern1
 _ZN8casacore5ArrayINS_7QuantumIdEEE15doNonDegenerateERKS3_RKNS_9IPositionE@Base 3.2.1-1kern1
 _ZN8casacore5ArrayINS_7QuantumIdEEE15postTakeStorageEv@Base 3.2.1-1kern1
 _ZN8casacore5ArrayINS_7QuantumIdEEE16copyMatchingPartERKS3_@Base 3.2.1-1kern1
 _ZN8casacore5ArrayINS_7QuantumIdEEE23copyToContiguousStorageEPS2_RKS3_NS_15ArrayInitPolicyE@Base 3.2.1-1kern1
 _ZN8casacore5ArrayINS_7QuantumIdEEE6assignERKS3_@Base 3.2.1-1kern1
 _ZN8casacore5ArrayINS_7QuantumIdEEE6resizeERKNS_9IPositionEb@Base 3.2.1-1kern1
 _ZN8casacore5ArrayINS_7QuantumIdEEE6resizeERKNS_9IPositionEbNS_15ArrayInitPolicyE@Base 3.2.1-1kern1
 _ZN8casacore5ArrayINS_7QuantumIdEEE6resizeEv@Base 3.2.1-1kern1
 _ZN8casacore5ArrayINS_7QuantumIdEEE9referenceERKS3_@Base 3.2.1-1kern1
 _ZN8casacore5ArrayINS_7QuantumIdEEEC1ERKNS_9IPositionENS_15ArrayInitPolicyEPNS_17Allocator_private13BulkAllocatorIS2_EE@Base 3.2.1-1kern1
 _ZN8casacore5ArrayINS_7QuantumIdEEEC1ERKS3_@Base 3.2.1-1kern1
 _ZN8casacore5ArrayINS_7QuantumIdEEEC1Ev@Base 3.2.1-1kern1
 _ZN8casacore5ArrayINS_7QuantumIdEEEC2ERKNS_9IPositionENS_15ArrayInitPolicyEPNS_17Allocator_private13BulkAllocatorIS2_EE@Base 3.2.1-1kern1
 _ZN8casacore5ArrayINS_7QuantumIdEEEC2ERKS3_@Base 3.2.1-1kern1
 _ZN8casacore5ArrayINS_7QuantumIdEEEC2Ev@Base 3.2.1-1kern1
 _ZN8casacore5ArrayINS_7QuantumIdEEED0Ev@Base 3.2.1-1kern1
 _ZN8casacore5ArrayINS_7QuantumIdEEED1Ev@Base 3.2.1-1kern1
 _ZN8casacore5ArrayINS_7QuantumIdEEED2Ev@Base 3.2.1-1kern1
 _ZN8casacore5ArrayINS_7QuantumIdEEEaSERKS3_@Base 3.2.1-1kern1
 _ZN8casacore5ArrayINS_7QuantumIdEEEclERKNS_6SlicerE@Base 3.2.1-1kern1
 _ZN8casacore5ArrayINS_7QuantumIdEEEclERKNS_9IPositionES6_@Base 3.2.1-1kern1
 _ZN8casacore5ArrayINS_7QuantumIdEEEclERKNS_9IPositionES6_S6_@Base 3.2.1-1kern1
 _ZN8casacore5BlockINS_7QuantumIdEEE6deinitEv@Base 3.2.1-1kern1
 _ZN8casacore5BlockINS_7QuantumIdEEE7deallocEv@Base 3.2.1-1kern1
 _ZN8casacore5Mutex6unlockEv@Base 3.2.1-1kern1
 _ZN8casacore6String8toStringIjEES0_RKT_@Base 3.2.1-1kern1
 _ZN8casacore6StringD1Ev@Base 3.2.1-1kern1
 _ZN8casacore6StringD2Ev@Base 3.2.1-1kern1
 _ZN8casacore6VectorINS_7QuantumIdEEE14preTakeStorageERKNS_9IPositionE@Base 3.2.1-1kern1
 _ZN8casacore6VectorINS_7QuantumIdEEE15doNonDegenerateERKNS_5ArrayIS2_EERKNS_9IPositionE@Base 3.2.1-1kern1
 _ZN8casacore6VectorINS_7QuantumIdEEE6assignERKNS_5ArrayIS2_EE@Base 3.2.1-1kern1
 _ZN8casacore6VectorINS_7QuantumIdEEE6resizeERKNS_9IPositionEbNS_15ArrayInitPolicyE@Base 3.2.1-1kern1
 _ZN8casacore6VectorINS_7QuantumIdEEE6resizeEv@Base 3.2.1-1kern1
 _ZN8casacore6VectorINS_7QuantumIdEEE9referenceERKNS_5ArrayIS2_EE@Base 3.2.1-1kern1
 _ZN8casacore6VectorINS_7QuantumIdEEEC1ERKNS_5ArrayIS2_EE@Base 3.2.1-1kern1
 _ZN8casacore6VectorINS_7QuantumIdEEEC1Em@Base 3.2.1-1kern1
 _ZN8casacore6VectorINS_7QuantumIdEEEC2ERKNS_5ArrayIS2_EE@Base 3.2.1-1kern1
 _ZN8casacore6VectorINS_7QuantumIdEEEC2Em@Base 3.2.1-1kern1
 _ZN8casacore6VectorINS_7QuantumIdEEED0Ev@Base 3.2.1-1kern1
 _ZN8casacore6VectorINS_7QuantumIdEEED1Ev@Base 3.2.1-1kern1
 _ZN8casacore6VectorINS_7QuantumIdEEED2Ev@Base 3.2.1-1kern1
 _ZN8casacore6VectorINS_7QuantumIdEEEaSERKNS_5ArrayIS2_EE@Base 3.2.1-1kern1
 _ZN8casacore6VectorINS_7QuantumIdEEEaSERKS3_@Base 3.2.1-1kern1
 _ZN8casacore6VectorIiEC1IiSaIiEEERKSt6vectorIT_T0_E@Base 3.2.1-1kern1
 _ZN8casacore6VectorIiEC2IiSaIiEEERKSt6vectorIT_T0_E@Base 3.2.1-1kern1
 _ZN8casacore6indgenIdEEvRNS_5ArrayIT_EES2_S2_@Base 3.2.1-1kern1
 _ZN8casacore6indgenIjEEvRNS_5ArrayIT_EES2_S2_@Base 3.2.1-1kern1
 _ZN8casacore6invertIdEEvRNS_6MatrixIT_EERS2_RKS3_@Base 3.2.1-1kern1
 _ZN8casacore6minMaxIiEEvRT_S2_RKNS_5ArrayIS1_EE@Base 3.2.1-1kern1
 _ZN8casacore7GenSortIiE10insSortAscEPiii@Base 3.2.1-1kern1
 _ZN8casacore7GenSortIiE11heapSortAscEPii@Base 3.2.1-1kern1
 _ZN8casacore7GenSortIiE12quickSortAscEPiibi@Base 3.2.1-1kern1
 _ZN8casacore7GenSortIiE15heapAscSiftDownEiiPi@Base 3.2.1-1kern1
 _ZN8casacore7GenSortIiE4sortERNS_5ArrayIiEENS_4Sort5OrderEi@Base 3.2.1-1kern1
 _ZN8casacore7GenSortIiE5mergeEPiS2_jPjj@Base 3.2.1-1kern1
 _ZN8casacore7GenSortIiE7parSortEPijNS_4Sort5OrderEii@Base 3.2.1-1kern1
 _ZN8casacore7GenSortIiE7reverseEPiPKij@Base 3.2.1-1kern1
 _ZN8casacore7GenSortIjE7reverseEPjPKjj@Base 3.2.1-1kern1
 _ZN8casacore7MeasRefINS_10MDirectionEE3setERKNS_9MeasFrameE@Base 3.2.1-1kern1
 _ZN8casacore7MeasRefINS_10MDirectionEE3setEj@Base 3.2.1-1kern1
 _ZN8casacore7MeasRefINS_10MDirectionEE6createEv@Base 3.2.1-1kern1
 _ZN8casacore7MeasRefINS_10MDirectionEE7setTypeEj@Base 3.2.1-1kern1
 _ZN8casacore7MeasRefINS_10MDirectionEE8getFrameEv@Base 3.2.1-1kern1
 _ZN8casacore7MeasRefINS_10MDirectionEEC1Ej@Base 3.2.1-1kern1
 _ZN8casacore7MeasRefINS_10MDirectionEEC1EjRKNS_9MeasFrameE@Base 3.2.1-1kern1
 _ZN8casacore7MeasRefINS_10MDirectionEEC2Ej@Base 3.2.1-1kern1
 _ZN8casacore7MeasRefINS_10MDirectionEEC2EjRKNS_9MeasFrameE@Base 3.2.1-1kern1
 _ZN8casacore7MeasRefINS_10MDirectionEED0Ev@Base 3.2.1-1kern1
 _ZN8casacore7MeasRefINS_10MDirectionEED1Ev@Base 3.2.1-1kern1
 _ZN8casacore7MeasRefINS_10MDirectionEED2Ev@Base 3.2.1-1kern1
 _ZN8casacore7MeasRefINS_10MFrequencyEE3setERKNS_9MeasFrameE@Base 3.2.1-1kern1
 _ZN8casacore7MeasRefINS_10MFrequencyEE3setEj@Base 3.2.1-1kern1
 _ZN8casacore7MeasRefINS_10MFrequencyEE6createEv@Base 3.2.1-1kern1
 _ZN8casacore7MeasRefINS_10MFrequencyEE7setTypeEj@Base 3.2.1-1kern1
 _ZN8casacore7MeasRefINS_10MFrequencyEE8getFrameEv@Base 3.2.1-1kern1
 _ZN8casacore7MeasRefINS_10MFrequencyEEC1Ej@Base 3.2.1-1kern1
 _ZN8casacore7MeasRefINS_10MFrequencyEEC1EjRKNS_9MeasFrameE@Base 3.2.1-1kern1
 _ZN8casacore7MeasRefINS_10MFrequencyEEC2Ej@Base 3.2.1-1kern1
 _ZN8casacore7MeasRefINS_10MFrequencyEEC2EjRKNS_9MeasFrameE@Base 3.2.1-1kern1
 _ZN8casacore7MeasRefINS_10MFrequencyEED0Ev@Base 3.2.1-1kern1
 _ZN8casacore7MeasRefINS_10MFrequencyEED1Ev@Base 3.2.1-1kern1
 _ZN8casacore7MeasRefINS_10MFrequencyEED2Ev@Base 3.2.1-1kern1
 _ZN8casacore7MeasRefINS_6MEpochEE3setERKNS_9MeasFrameE@Base 3.2.1-1kern1
 _ZN8casacore7MeasRefINS_6MEpochEE3setEj@Base 3.2.1-1kern1
 _ZN8casacore7MeasRefINS_6MEpochEE6createEv@Base 3.2.1-1kern1
 _ZN8casacore7MeasRefINS_6MEpochEE7setTypeEj@Base 3.2.1-1kern1
 _ZN8casacore7MeasRefINS_6MEpochEE8getFrameEv@Base 3.2.1-1kern1
 _ZN8casacore7MeasRefINS_6MEpochEED0Ev@Base 3.2.1-1kern1
 _ZN8casacore7MeasRefINS_6MEpochEED1Ev@Base 3.2.1-1kern1
 _ZN8casacore7MeasRefINS_6MEpochEED2Ev@Base 3.2.1-1kern1
 _ZN8casacore7MeasRefINS_8MDopplerEE3setERKNS_9MeasFrameE@Base 3.2.1-1kern1
 _ZN8casacore7MeasRefINS_8MDopplerEE3setEj@Base 3.2.1-1kern1
 _ZN8casacore7MeasRefINS_8MDopplerEE6createEv@Base 3.2.1-1kern1
 _ZN8casacore7MeasRefINS_8MDopplerEE7setTypeEj@Base 3.2.1-1kern1
 _ZN8casacore7MeasRefINS_8MDopplerEE8getFrameEv@Base 3.2.1-1kern1
 _ZN8casacore7MeasRefINS_8MDopplerEEC1Ej@Base 3.2.1-1kern1
 _ZN8casacore7MeasRefINS_8MDopplerEEC2Ej@Base 3.2.1-1kern1
 _ZN8casacore7MeasRefINS_8MDopplerEED0Ev@Base 3.2.1-1kern1
 _ZN8casacore7MeasRefINS_8MDopplerEED1Ev@Base 3.2.1-1kern1
 _ZN8casacore7MeasRefINS_8MDopplerEED2Ev@Base 3.2.1-1kern1
 _ZN8casacore7MeasRefINS_9MPositionEE3setERKNS_9MeasFrameE@Base 3.2.1-1kern1
 _ZN8casacore7MeasRefINS_9MPositionEE3setEj@Base 3.2.1-1kern1
 _ZN8casacore7MeasRefINS_9MPositionEE6createEv@Base 3.2.1-1kern1
 _ZN8casacore7MeasRefINS_9MPositionEE7setTypeEj@Base 3.2.1-1kern1
 _ZN8casacore7MeasRefINS_9MPositionEE8getFrameEv@Base 3.2.1-1kern1
 _ZN8casacore7MeasRefINS_9MPositionEEC1Ej@Base 3.2.1-1kern1
 _ZN8casacore7MeasRefINS_9MPositionEEC1EjRKNS_9MeasFrameE@Base 3.2.1-1kern1
 _ZN8casacore7MeasRefINS_9MPositionEEC2Ej@Base 3.2.1-1kern1
 _ZN8casacore7MeasRefINS_9MPositionEEC2EjRKNS_9MeasFrameE@Base 3.2.1-1kern1
 _ZN8casacore7MeasRefINS_9MPositionEED0Ev@Base 3.2.1-1kern1
 _ZN8casacore7MeasRefINS_9MPositionEED1Ev@Base 3.2.1-1kern1
 _ZN8casacore7MeasRefINS_9MPositionEED2Ev@Base 3.2.1-1kern1
 _ZN8casacore7ObsInfo10copy_otherERKS0_@Base 3.2.1-1kern1
 _ZN8casacore7ObsInfo10fromRecordERNS_6StringERKNS_15RecordInterfaceE@Base 3.2.1-1kern1
 _ZN8casacore7ObsInfo10setObsDateERKNS_6MEpochE@Base 3.2.1-1kern1
 _ZN8casacore7ObsInfo11setObserverERKNS_6StringE@Base 3.2.1-1kern1
 _ZN8casacore7ObsInfo12setTelescopeERKNS_6StringE@Base 3.2.1-1kern1
 _ZN8casacore7ObsInfo14defaultObsDateEv@Base 3.2.1-1kern1
 _ZN8casacore7ObsInfo15defaultObserverEv@Base 3.2.1-1kern1
 _ZN8casacore7ObsInfo16defaultTelescopeEv@Base 3.2.1-1kern1
 _ZN8casacore7ObsInfo16keywordNamesFITSEv@Base 3.2.1-1kern1
 _ZN8casacore7ObsInfo17setPointingCenterERKNS_11MVDirectionE@Base 3.2.1-1kern1
 _ZN8casacore7ObsInfo20setTelescopePositionERKNS_9MPositionE@Base 3.2.1-1kern1
 _ZN8casacore7ObsInfo21defaultPointingCenterEv@Base 3.2.1-1kern1
 _ZN8casacore7ObsInfo8fromFITSERNS_6VectorINS_6StringEEERKNS_15RecordInterfaceE@Base 3.2.1-1kern1
 _ZN8casacore7ObsInfoC1ERKS0_@Base 3.2.1-1kern1
 _ZN8casacore7ObsInfoC1Ev@Base 3.2.1-1kern1
 _ZN8casacore7ObsInfoC2ERKS0_@Base 3.2.1-1kern1
 _ZN8casacore7ObsInfoC2Ev@Base 3.2.1-1kern1
 _ZN8casacore7ObsInfoD0Ev@Base 3.2.1-1kern1
 _ZN8casacore7ObsInfoD1Ev@Base 3.2.1-1kern1
 _ZN8casacore7ObsInfoD2Ev@Base 3.2.1-1kern1
 _ZN8casacore7ObsInfoaSERKS0_@Base 3.2.1-1kern1
 _ZN8casacore7QuantumINS_6VectorIdEEEC1ERKS2_RKNS_4UnitE@Base 3.2.1-1kern1
 _ZN8casacore7QuantumINS_6VectorIdEEEC1ERKS3_@Base 3.2.1-1kern1
 _ZN8casacore7QuantumINS_6VectorIdEEEC2ERKS2_RKNS_4UnitE@Base 3.2.1-1kern1
 _ZN8casacore7QuantumINS_6VectorIdEEEC2ERKS3_@Base 3.2.1-1kern1
 _ZN8casacore7QuantumINS_6VectorIdEEED0Ev@Base 3.2.1-1kern1
 _ZN8casacore7QuantumINS_6VectorIdEEED1Ev@Base 3.2.1-1kern1
 _ZN8casacore7QuantumINS_6VectorIdEEED2Ev@Base 3.2.1-1kern1
 _ZN8casacore7assert_INS_9AipsErrorEEC1EPKvPKcS6_i@Base 3.2.1-1kern1
 _ZN8casacore7assert_INS_9AipsErrorEEC1EiPKcS4_i@Base 3.2.1-1kern1
 _ZN8casacore7assert_INS_9AipsErrorEEC2EPKvPKcS6_i@Base 3.2.1-1kern1
 _ZN8casacore7assert_INS_9AipsErrorEEC2EiPKcS4_i@Base 3.2.1-1kern1
 _ZN8casacore7objcopyINS_7QuantumIdEEEEvPT_PKS3_m@Base 3.2.1-1kern1
 _ZN8casacore7objcopyINS_7QuantumIdEEEEvPT_PKS3_mmm@Base 3.2.1-1kern1
 _ZN8casacore8FunctionIddE7setModeERKNS_15RecordInterfaceE@Base 3.2.1-1kern1
 _ZN8casacore8MeasBaseINS_11MVDirectionENS_7MeasRefINS_10MDirectionEEEE3setERKNS_9MeasValueE@Base 3.2.1-1kern1
 _ZN8casacore8MeasBaseINS_11MVDirectionENS_7MeasRefINS_10MDirectionEEEE5clearEv@Base 3.2.1-1kern1
 _ZN8casacore8MeasBaseINS_11MVDirectionENS_7MeasRefINS_10MDirectionEEEE8putValueERKNS_6VectorINS_7QuantumIdEEEE@Base 3.2.1-1kern1
 _ZN8casacore8MeasBaseINS_11MVDirectionENS_7MeasRefINS_10MDirectionEEEEC1ERKS5_@Base 3.2.1-1kern1
 _ZN8casacore8MeasBaseINS_11MVDirectionENS_7MeasRefINS_10MDirectionEEEEC2ERKS5_@Base 3.2.1-1kern1
 _ZN8casacore8MeasBaseINS_11MVFrequencyENS_7MeasRefINS_10MFrequencyEEEE3setERKNS_9MeasValueE@Base 3.2.1-1kern1
 _ZN8casacore8MeasBaseINS_11MVFrequencyENS_7MeasRefINS_10MFrequencyEEEE5clearEv@Base 3.2.1-1kern1
 _ZN8casacore8MeasBaseINS_11MVFrequencyENS_7MeasRefINS_10MFrequencyEEEE8putValueERKNS_6VectorINS_7QuantumIdEEEE@Base 3.2.1-1kern1
 _ZN8casacore8MeasBaseINS_7MVEpochENS_7MeasRefINS_6MEpochEEEE3setERKNS_9MeasValueE@Base 3.2.1-1kern1
 _ZN8casacore8MeasBaseINS_7MVEpochENS_7MeasRefINS_6MEpochEEEE5clearEv@Base 3.2.1-1kern1
 _ZN8casacore8MeasBaseINS_7MVEpochENS_7MeasRefINS_6MEpochEEEE8putValueERKNS_6VectorINS_7QuantumIdEEEE@Base 3.2.1-1kern1
 _ZN8casacorelsERSoRKNS_18SpectralCoordinateE@Base 3.2.1-1kern1
 _ZN8casacorelsERSoRKNS_7ObsInfoE@Base 3.2.1-1kern1
 _ZN8casacorelsINS_6StringEEERSoS2_RKNS_5ArrayIT_EE@Base 3.2.1-1kern1
 _ZN8casacorelsIdEERSoS1_RKNS_5ArrayIT_EE@Base 3.2.1-1kern1
 _ZN8casacoremIIdEEvRNS_5ArrayIT_EERKS3_@Base 3.2.1-1kern1
 _ZN8casacoremLIdEEvRNS_5ArrayIT_EERKS3_@Base 3.2.1-1kern1
 _ZN8casacorepLIdEEvRNS_5ArrayIT_EERKS3_@Base 3.2.1-1kern1
 _ZN8casacoreplEPKcRKNS_6StringE@Base 3.2.1-1kern1
 _ZN8casacoreplERKNS_6StringEPKc@Base 3.2.1-1kern1
 _ZN8casacoreplERKNS_6StringES2_@Base 3.2.1-1kern1
 _ZNK8casacore10Coordinate10toPixelWCSERNS_6VectorIdEERKS2_R6wcsprm@Base 3.2.1-1kern1
 _ZNK8casacore10Coordinate10toWorldWCSERNS_6VectorIdEERKS2_R6wcsprm@Base 3.2.1-1kern1
 _ZNK8casacore10Coordinate11checkFormatERNS0_10formatTypeEb@Base 3.2.1-1kern1
 _ZNK8casacore10Coordinate11convertFromERNS_6VectorIdEE@Base 3.2.1-1kern1
 _ZNK8casacore10Coordinate11doNearPixelERKS0_RKNS_6VectorIbEES6_d@Base 3.2.1-1kern1
 _ZNK8casacore10Coordinate11toPixelManyERNS_6MatrixIdEERKS2_RNS_6VectorIbEE@Base 3.2.1-1kern1
 _ZNK8casacore10Coordinate11toWorldManyERNS_6MatrixIdEERKS2_RNS_6VectorIbEE@Base 3.2.1-1kern1
 _ZNK8casacore10Coordinate12fourierUnitsERNS_6StringES2_S2_NS0_4TypeEiRKS1_S5_@Base 3.2.1-1kern1
 _ZNK8casacore10Coordinate12getPrecisionERiRNS0_10formatTypeEbiii@Base 3.2.1-1kern1
 _ZNK8casacore10Coordinate13convertToManyERNS_6MatrixIdEE@Base 3.2.1-1kern1
 _ZNK8casacore10Coordinate13toCurrentManyERNS_6MatrixIdEERKNS_6VectorIdEE@Base 3.2.1-1kern1
 _ZNK8casacore10Coordinate14toPixelManyWCSERNS_6MatrixIdEERKS2_RNS_6VectorIbEER6wcsprm@Base 3.2.1-1kern1
 _ZNK8casacore10Coordinate14toWorldManyWCSERNS_6MatrixIdEERKS2_RNS_6VectorIbEER6wcsprm@Base 3.2.1-1kern1
 _ZNK8casacore10Coordinate15convertFromManyERNS_6MatrixIdEE@Base 3.2.1-1kern1
 _ZNK8casacore10Coordinate15fromCurrentManyERNS_6MatrixIdEERKNS_6VectorIdEE@Base 3.2.1-1kern1
 _ZNK8casacore10Coordinate17makePixelAbsoluteERNS_6VectorIdEE@Base 3.2.1-1kern1
 _ZNK8casacore10Coordinate17makePixelRelativeERNS_6VectorIdEE@Base 3.2.1-1kern1
 _ZNK8casacore10Coordinate17makeWorldAbsoluteERNS_6VectorIdEE@Base 3.2.1-1kern1
 _ZNK8casacore10Coordinate17makeWorldRelativeERNS_6VectorIdEE@Base 3.2.1-1kern1
 _ZNK8casacore10Coordinate19makePixelAbsRelManyERNS_6MatrixIdEEb@Base 3.2.1-1kern1
 _ZNK8casacore10Coordinate19makeWorldAbsRelManyERNS_6MatrixIdEEb@Base 3.2.1-1kern1
 _ZNK8casacore10Coordinate20makeWorldAbsoluteRefERNS_6VectorIdEERKS2_@Base 3.2.1-1kern1
 _ZNK8casacore10Coordinate21makeFourierCoordinateERKNS_6VectorIbEERKNS1_IiEE@Base 3.2.1-1kern1
 _ZNK8casacore10Coordinate21makePixelAbsoluteManyERNS_6MatrixIdEE@Base 3.2.1-1kern1
 _ZNK8casacore10Coordinate21makePixelRelativeManyERNS_6MatrixIdEE@Base 3.2.1-1kern1
 _ZNK8casacore10Coordinate21makeWorldAbsoluteManyERNS_6MatrixIdEE@Base 3.2.1-1kern1
 _ZNK8casacore10Coordinate21makeWorldRelativeManyERNS_6MatrixIdEE@Base 3.2.1-1kern1
 _ZNK8casacore10Coordinate5toMixERNS_6VectorIdEES3_RKS2_S5_RKNS1_IbEES8_S5_S5_@Base 3.2.1-1kern1
 _ZNK8casacore10Coordinate6formatERNS_6StringENS0_10formatTypeEdjbbib@Base 3.2.1-1kern1
 _ZNK8casacore10Coordinate6rotateERKNS_7QuantumIdEE@Base 3.2.1-1kern1
 _ZNK8casacore10Coordinate9convertToERNS_6VectorIdEE@Base 3.2.1-1kern1
 _ZNK8casacore10Coordinate9pcToXformERNS_6MatrixIdEERK6wcsprm@Base 3.2.1-1kern1
 _ZNK8casacore10Coordinate9set_errorERKNS_6StringE@Base 3.2.1-1kern1
 _ZNK8casacore10Coordinate9xFormToPCER6wcsprmRKNS_6MatrixIdEE@Base 3.2.1-1kern1
 _ZNK8casacore10CountedPtrINS_5BlockINS_7QuantumIdEEEEE7DeleterIS4_EclEPS4_@Base 3.2.1-1kern1
 _ZNK8casacore10Function1DIddE4ndimEv@Base 3.2.1-1kern1
 _ZNK8casacore10Projection4nameEv@Base 3.2.1-1kern1
 _ZNK8casacore10Projection4nearERKS0_d@Base 3.2.1-1kern1
 _ZNK8casacore10Projection4typeERNS_6StringES2_@Base 3.2.1-1kern1
 _ZNK8casacore11LinearXform10nWorldAxesEv@Base 3.2.1-1kern1
 _ZNK8casacore11LinearXform13fourierInvertERNS_6StringERKNS_6VectorIbEERKNS3_IdEES9_@Base 3.2.1-1kern1
 _ZNK8casacore11LinearXform2pcEv@Base 3.2.1-1kern1
 _ZNK8casacore11LinearXform4nearERKS0_RKNS_6VectorIiEEd@Base 3.2.1-1kern1
 _ZNK8casacore11LinearXform4nearERKS0_d@Base 3.2.1-1kern1
 _ZNK8casacore11LinearXform5cdeltEv@Base 3.2.1-1kern1
 _ZNK8casacore11LinearXform5crpixEv@Base 3.2.1-1kern1
 _ZNK8casacore11LinearXform7forwardERNS_6VectorIdEERKS2_RNS_6StringE@Base 3.2.1-1kern1
 _ZNK8casacore11LinearXform7reverseERNS_6VectorIdEERKS2_RNS_6StringE@Base 3.2.1-1kern1
 _ZNK8casacore11MeasConvertINS_10MDirectionEE5printERSo@Base 3.2.1-1kern1
 _ZNK8casacore11MeasConvertINS_10MDirectionEE7nMethodEv@Base 3.2.1-1kern1
 _ZNK8casacore11MeasConvertINS_10MDirectionEE9getMethodEj@Base 3.2.1-1kern1
 _ZNK8casacore11MeasConvertINS_10MFrequencyEE5printERSo@Base 3.2.1-1kern1
 _ZNK8casacore11MeasConvertINS_10MFrequencyEE7nMethodEv@Base 3.2.1-1kern1
 _ZNK8casacore11MeasConvertINS_10MFrequencyEE9getMethodEj@Base 3.2.1-1kern1
 _ZNK8casacore11MeasConvertINS_9MPositionEE5printERSo@Base 3.2.1-1kern1
 _ZNK8casacore11MeasConvertINS_9MPositionEE7nMethodEv@Base 3.2.1-1kern1
 _ZNK8casacore11MeasConvertINS_9MPositionEE9getMethodEj@Base 3.2.1-1kern1
 _ZNK8casacore13BaseAllocatorINS_6Stokes11StokesTypesENS_15NewDelAllocatorIS2_EEE12getAllocatorEv@Base 3.2.1-1kern1
 _ZNK8casacore13BaseAllocatorINS_6Stokes11StokesTypesENS_16AlignedAllocatorIS2_Lm32EEEE12getAllocatorEv@Base 3.2.1-1kern1
 _ZNK8casacore13BaseAllocatorINS_7QuantumIdEENS_15NewDelAllocatorIS2_EEE12getAllocatorEv@Base 3.2.1-1kern1
 _ZNK8casacore13BaseAllocatorINS_7QuantumIdEENS_16AlignedAllocatorIS2_Lm32EEEE12getAllocatorEv@Base 3.2.1-1kern1
 _ZNK8casacore13BaseAllocatorIPNS_6SlicerENS_15NewDelAllocatorIS2_EEE12getAllocatorEv@Base 3.2.1-1kern1
 _ZNK8casacore13BaseAllocatorIPNS_6SlicerENS_16AlignedAllocatorIS2_Lm32EEEE12getAllocatorEv@Base 3.2.1-1kern1
 _ZNK8casacore13Interpolate1DIddE23polynomialInterpolationEdjj@Base 3.2.1-1kern1
 _ZNK8casacore13Interpolate1DIddE4evalEPKd@Base 3.2.1-1kern1
 _ZNK8casacore13Interpolate1DIddE4nameEv@Base 3.2.1-1kern1
 _ZNK8casacore13Interpolate1DIddE5cloneEv@Base 3.2.1-1kern1
 _ZNK8casacore15RecordInterface8dataTypeERKNS_13RecordFieldIdE@Base 3.2.1-1kern1
 _ZNK8casacore16CoordinateSystem10clearFlagsERNS_5LogIOE@Base 3.2.1-1kern1
 _ZNK8casacore16CoordinateSystem10coordinateEj@Base 3.2.1-1kern1
 _ZNK8casacore16CoordinateSystem10listHeaderERNS_5LogIOEPNS_10CoordinateERjS5_S5_S5_S5_S5_S5_S5_S5_S5_S5_biiiiiiiiRKNS_9IPositionES8_@Base 3.2.1-1kern1
 _ZNK8casacore16CoordinateSystem10nPixelAxesEv@Base 3.2.1-1kern1
 _ZNK8casacore16CoordinateSystem10nWorldAxesEv@Base 3.2.1-1kern1
 _ZNK8casacore16CoordinateSystem11toPixelManyERNS_6MatrixIdEERKS2_RNS_6VectorIbEE@Base 3.2.1-1kern1
 _ZNK8casacore16CoordinateSystem11toWorldManyERNS_6MatrixIdEERKS2_RNS_6VectorIbEE@Base 3.2.1-1kern1
 _ZNK8casacore16CoordinateSystem11worldMixMaxEv@Base 3.2.1-1kern1
 _ZNK8casacore16CoordinateSystem11worldMixMinEv@Base 3.2.1-1kern1
 _ZNK8casacore16CoordinateSystem12listVelocityERNS_5LogIOEPNS_10CoordinateEjjjRjjjjS5_jS5_S5_biiNS_8MDoppler5TypesEiiiii@Base 3.2.1-1kern1
 _ZNK8casacore16CoordinateSystem12nCoordinatesEv@Base 3.2.1-1kern1
 _ZNK8casacore16CoordinateSystem12toFITSHeaderERNS_15RecordInterfaceERNS_9IPositionEbcbbbbb@Base 3.2.1-1kern1
 _ZNK8casacore16CoordinateSystem13findPixelAxisERiS1_j@Base 3.2.1-1kern1
 _ZNK8casacore16CoordinateSystem13findWorldAxisERiS1_j@Base 3.2.1-1kern1
 _ZNK8casacore16CoordinateSystem13stokesAtPixelEj@Base 3.2.1-1kern1
 _ZNK8casacore16CoordinateSystem13toWorldLengthEdj@Base 3.2.1-1kern1
 _ZNK8casacore16CoordinateSystem14findCoordinateENS_10Coordinate4TypeEi@Base 3.2.1-1kern1
 _ZNK8casacore16CoordinateSystem14getFieldWidthsERNS_5LogIOERjS3_S3_S3_S3_S3_S3_S3_S3_S3_S3_RiS4_S4_S4_S4_RNS_6StringES6_S6_S6_S6_S6_S6_S6_S6_S6_S6_NS_8MDoppler5TypesERKNS_9IPositionESB_@Base 3.2.1-1kern1
 _ZNK8casacore16CoordinateSystem14hasQualityAxisEv@Base 3.2.1-1kern1
 _ZNK8casacore16CoordinateSystem14qualityAtPixelEj@Base 3.2.1-1kern1
 _ZNK8casacore16CoordinateSystem14referencePixelEv@Base 3.2.1-1kern1
 _ZNK8casacore16CoordinateSystem14referenceValueEv@Base 3.2.1-1kern1
 _ZNK8casacore16CoordinateSystem14stokesSubImageERKNS_16StokesCoordinateEiii@Base 3.2.1-1kern1
 _ZNK8casacore16CoordinateSystem14worldAxisNamesEv@Base 3.2.1-1kern1
 _ZNK8casacore16CoordinateSystem14worldAxisUnitsEv@Base 3.2.1-1kern1
 _ZNK8casacore16CoordinateSystem15coordRecordNameEj@Base 3.2.1-1kern1
 _ZNK8casacore16CoordinateSystem15hasSpectralAxisEv@Base 3.2.1-1kern1
 _ZNK8casacore16CoordinateSystem15linearTransformEv@Base 3.2.1-1kern1
 _ZNK8casacore16CoordinateSystem15qualitySubImageERKNS_17QualityCoordinateEiii@Base 3.2.1-1kern1
 _ZNK8casacore16CoordinateSystem16linearCoordinateEj@Base 3.2.1-1kern1
 _ZNK8casacore16CoordinateSystem16stokesCoordinateEj@Base 3.2.1-1kern1
 _ZNK8casacore16CoordinateSystem16stokesCoordinateEv@Base 3.2.1-1kern1
 _ZNK8casacore16CoordinateSystem16stripRemovedAxesERKS0_@Base 3.2.1-1kern1
 _ZNK8casacore16CoordinateSystem17getWorldAxesOrderERNS_6VectorINS_6StringEEEbb@Base 3.2.1-1kern1
 _ZNK8casacore16CoordinateSystem17linearAxesNumbersEv@Base 3.2.1-1kern1
 _ZNK8casacore16CoordinateSystem17makePixelAbsoluteERNS_6VectorIdEE@Base 3.2.1-1kern1
 _ZNK8casacore16CoordinateSystem17makePixelRelativeERNS_6VectorIdEE@Base 3.2.1-1kern1
 _ZNK8casacore16CoordinateSystem17makeWorldAbsoluteERNS_6VectorIdEE@Base 3.2.1-1kern1
 _ZNK8casacore16CoordinateSystem17makeWorldRelativeERNS_6VectorIdEE@Base 3.2.1-1kern1
 _ZNK8casacore16CoordinateSystem17qualityAxisNumberEv@Base 3.2.1-1kern1
 _ZNK8casacore16CoordinateSystem17qualityCoordinateEj@Base 3.2.1-1kern1
 _ZNK8casacore16CoordinateSystem17stokesPixelNumberERKNS_6StringE@Base 3.2.1-1kern1
 _ZNK8casacore16CoordinateSystem17tabularCoordinateEj@Base 3.2.1-1kern1
 _ZNK8casacore16CoordinateSystem17velocityIncrementERdRNS_18SpectralCoordinateENS_8MDoppler5TypesERKNS_6StringE@Base 3.2.1-1kern1
 _ZNK8casacore16CoordinateSystem18listPointingCenterERNS_5LogIOE@Base 3.2.1-1kern1
 _ZNK8casacore16CoordinateSystem18qualityPixelNumberERKNS_6StringE@Base 3.2.1-1kern1
 _ZNK8casacore16CoordinateSystem18spectralAxisNumberEb@Base 3.2.1-1kern1
 _ZNK8casacore16CoordinateSystem18spectralCoordinateEj@Base 3.2.1-1kern1
 _ZNK8casacore16CoordinateSystem18spectralCoordinateEv@Base 3.2.1-1kern1
 _ZNK8casacore16CoordinateSystem19directionCoordinateEj@Base 3.2.1-1kern1
 _ZNK8casacore16CoordinateSystem19directionCoordinateEv@Base 3.2.1-1kern1
 _ZNK8casacore16CoordinateSystem19hasLinearCoordinateEv@Base 3.2.1-1kern1
 _ZNK8casacore16CoordinateSystem19listDirectionSystemERNS_5LogIOE@Base 3.2.1-1kern1
 _ZNK8casacore16CoordinateSystem19listFrequencySystemERNS_5LogIOENS_8MDoppler5TypesE@Base 3.2.1-1kern1
 _ZNK8casacore16CoordinateSystem19makePixelAbsRelManyERNS_6MatrixIdEEb@Base 3.2.1-1kern1
 _ZNK8casacore16CoordinateSystem19makeWorldAbsRelManyERNS_6MatrixIdEEb@Base 3.2.1-1kern1
 _ZNK8casacore16CoordinateSystem20directionAxesNumbersEv@Base 3.2.1-1kern1
 _ZNK8casacore16CoordinateSystem20makeWorldAbsoluteRefERNS_6VectorIdEERKS2_@Base 3.2.1-1kern1
 _ZNK8casacore16CoordinateSystem20pixelAxisToWorldAxisEj@Base 3.2.1-1kern1
 _ZNK8casacore16CoordinateSystem20worldAxisToPixelAxisEj@Base 3.2.1-1kern1
 _ZNK8casacore16CoordinateSystem21makeFourierCoordinateERKNS_6VectorIbEERKNS1_IiEE@Base 3.2.1-1kern1
 _ZNK8casacore16CoordinateSystem21makePixelAbsoluteManyERNS_6MatrixIdEE@Base 3.2.1-1kern1
 _ZNK8casacore16CoordinateSystem21makePixelRelativeManyERNS_6MatrixIdEE@Base 3.2.1-1kern1
 _ZNK8casacore16CoordinateSystem21makeWorldAbsoluteManyERNS_6MatrixIdEE@Base 3.2.1-1kern1
 _ZNK8casacore16CoordinateSystem21makeWorldRelativeManyERNS_6MatrixIdEE@Base 3.2.1-1kern1
 _ZNK8casacore16CoordinateSystem22hasDirectionCoordinateEv@Base 3.2.1-1kern1
 _ZNK8casacore16CoordinateSystem22linearCoordinateNumberEv@Base 3.2.1-1kern1
 _ZNK8casacore16CoordinateSystem22polarizationAxisNumberEb@Base 3.2.1-1kern1
 _ZNK8casacore16CoordinateSystem23qualityCoordinateNumberEv@Base 3.2.1-1kern1
 _ZNK8casacore16CoordinateSystem24spectralCoordinateNumberEv@Base 3.2.1-1kern1
 _ZNK8casacore16CoordinateSystem25checkAxesInThisCoordinateERKNS_6VectorIbEEj@Base 3.2.1-1kern1
 _ZNK8casacore16CoordinateSystem25directionCoordinateNumberEv@Base 3.2.1-1kern1
 _ZNK8casacore16CoordinateSystem25hasPolarizationCoordinateEv@Base 3.2.1-1kern1
 _ZNK8casacore16CoordinateSystem28isDirectionAbscissaLongitudeEv@Base 3.2.1-1kern1
 _ZNK8casacore16CoordinateSystem28polarizationCoordinateNumberEv@Base 3.2.1-1kern1
 _ZNK8casacore16CoordinateSystem4listERNS_5LogIOENS_8MDoppler5TypesERKNS_9IPositionES7_b@Base 3.2.1-1kern1
 _ZNK8casacore16CoordinateSystem4nearERKNS_10CoordinateERKNS_6VectorIiEEd@Base 3.2.1-1kern1
 _ZNK8casacore16CoordinateSystem4nearERKNS_10CoordinateEd@Base 3.2.1-1kern1
 _ZNK8casacore16CoordinateSystem4saveERNS_15RecordInterfaceERKNS_6StringE@Base 3.2.1-1kern1
 _ZNK8casacore16CoordinateSystem4typeEj@Base 3.2.1-1kern1
 _ZNK8casacore16CoordinateSystem4typeEv@Base 3.2.1-1kern1
 _ZNK8casacore16CoordinateSystem5cloneEv@Base 3.2.1-1kern1
 _ZNK8casacore16CoordinateSystem5toMixERNS_6VectorIdEES3_RKS2_S5_RKNS1_IbEES8_S5_S5_@Base 3.2.1-1kern1
 _ZNK8casacore16CoordinateSystem6formatERNS_6StringENS_10Coordinate10formatTypeEdjbbib@Base 3.2.1-1kern1
 _ZNK8casacore16CoordinateSystem6mapOneERNS_6VectorIiEES3_RNS1_IbEERKS0_S7_jj@Base 3.2.1-1kern1
 _ZNK8casacore16CoordinateSystem7obsInfoEv@Base 3.2.1-1kern1
 _ZNK8casacore16CoordinateSystem7toPixelERKNS_6VectorIdEE@Base 3.2.1-1kern1
 _ZNK8casacore16CoordinateSystem7toPixelERNS_6VectorIdEERKS2_@Base 3.2.1-1kern1
 _ZNK8casacore16CoordinateSystem7toWorldERKNS_6VectorIdEE@Base 3.2.1-1kern1
 _ZNK8casacore16CoordinateSystem7toWorldERKNS_9IPositionE@Base 3.2.1-1kern1
 _ZNK8casacore16CoordinateSystem7toWorldERNS_6VectorIdEERKNS_9IPositionE@Base 3.2.1-1kern1
 _ZNK8casacore16CoordinateSystem7toWorldERNS_6VectorIdEERKS2_b@Base 3.2.1-1kern1
 _ZNK8casacore16CoordinateSystem8pixelMapERNS_6VectorIiEES3_RKS0_@Base 3.2.1-1kern1
 _ZNK8casacore16CoordinateSystem8showTypeEj@Base 3.2.1-1kern1
 _ZNK8casacore16CoordinateSystem8showTypeEv@Base 3.2.1-1kern1
 _ZNK8casacore16CoordinateSystem8subImageERKNS_6VectorIfEES4_RKNS1_IiEE@Base 3.2.1-1kern1
 _ZNK8casacore16CoordinateSystem8worldMapERNS_6VectorIiEES3_RNS1_IbEERKS0_@Base 3.2.1-1kern1
 _ZNK8casacore16CoordinateSystem9incrementEv@Base 3.2.1-1kern1
 _ZNK8casacore16CoordinateSystem9nearPixelERKS0_d@Base 3.2.1-1kern1
 _ZNK8casacore16CoordinateSystem9pixelAxesEj@Base 3.2.1-1kern1
 _ZNK8casacore16CoordinateSystem9worldAxesEj@Base 3.2.1-1kern1
 _ZNK8casacore16LinearCoordinate10nPixelAxesEv@Base 3.2.1-1kern1
 _ZNK8casacore16LinearCoordinate10nWorldAxesEv@Base 3.2.1-1kern1
 _ZNK8casacore16LinearCoordinate14referencePixelEv@Base 3.2.1-1kern1
 _ZNK8casacore16LinearCoordinate14referenceValueEv@Base 3.2.1-1kern1
 _ZNK8casacore16LinearCoordinate14worldAxisNamesEv@Base 3.2.1-1kern1
 _ZNK8casacore16LinearCoordinate14worldAxisUnitsEv@Base 3.2.1-1kern1
 _ZNK8casacore16LinearCoordinate15linearTransformEv@Base 3.2.1-1kern1
 _ZNK8casacore16LinearCoordinate21makeFourierCoordinateERKNS_6VectorIbEERKNS1_IiEE@Base 3.2.1-1kern1
 _ZNK8casacore16LinearCoordinate4nearERKNS_10CoordinateERKNS_6VectorIiEEd@Base 3.2.1-1kern1
 _ZNK8casacore16LinearCoordinate4nearERKNS_10CoordinateEd@Base 3.2.1-1kern1
 _ZNK8casacore16LinearCoordinate4saveERNS_15RecordInterfaceERKNS_6StringE@Base 3.2.1-1kern1
 _ZNK8casacore16LinearCoordinate4typeEv@Base 3.2.1-1kern1
 _ZNK8casacore16LinearCoordinate5cloneEv@Base 3.2.1-1kern1
 _ZNK8casacore16LinearCoordinate7toPixelERNS_6VectorIdEERKS2_@Base 3.2.1-1kern1
 _ZNK8casacore16LinearCoordinate7toWorldERNS_6VectorIdEERKS2_b@Base 3.2.1-1kern1
 _ZNK8casacore16LinearCoordinate8showTypeEv@Base 3.2.1-1kern1
 _ZNK8casacore16LinearCoordinate9incrementEv@Base 3.2.1-1kern1
 _ZNK8casacore16StokesCoordinate10nPixelAxesEv@Base 3.2.1-1kern1
 _ZNK8casacore16StokesCoordinate10nWorldAxesEv@Base 3.2.1-1kern1
 _ZNK8casacore16StokesCoordinate11doNearPixelERKNS_10CoordinateERKNS_6VectorIbEES7_d@Base 3.2.1-1kern1
 _ZNK8casacore16StokesCoordinate13stokesStringsEv@Base 3.2.1-1kern1
 _ZNK8casacore16StokesCoordinate14referencePixelEv@Base 3.2.1-1kern1
 _ZNK8casacore16StokesCoordinate14referenceValueEv@Base 3.2.1-1kern1
 _ZNK8casacore16StokesCoordinate14worldAxisNamesEv@Base 3.2.1-1kern1
 _ZNK8casacore16StokesCoordinate14worldAxisUnitsEv@Base 3.2.1-1kern1
 _ZNK8casacore16StokesCoordinate15linearTransformEv@Base 3.2.1-1kern1
 _ZNK8casacore16StokesCoordinate17makePixelAbsoluteERNS_6VectorIdEE@Base 3.2.1-1kern1
 _ZNK8casacore16StokesCoordinate17makePixelRelativeERNS_6VectorIdEE@Base 3.2.1-1kern1
 _ZNK8casacore16StokesCoordinate17makeWorldAbsoluteERNS_6VectorIdEE@Base 3.2.1-1kern1
 _ZNK8casacore16StokesCoordinate17makeWorldRelativeERNS_6VectorIdEE@Base 3.2.1-1kern1
 _ZNK8casacore16StokesCoordinate4nearERKNS_10CoordinateERKNS_6VectorIiEEd@Base 3.2.1-1kern1
 _ZNK8casacore16StokesCoordinate4nearERKNS_10CoordinateEd@Base 3.2.1-1kern1
 _ZNK8casacore16StokesCoordinate4saveERNS_15RecordInterfaceERKNS_6StringE@Base 3.2.1-1kern1
 _ZNK8casacore16StokesCoordinate4typeEv@Base 3.2.1-1kern1
 _ZNK8casacore16StokesCoordinate5cloneEv@Base 3.2.1-1kern1
 _ZNK8casacore16StokesCoordinate6formatERNS_6StringENS_10Coordinate10formatTypeEdjbbib@Base 3.2.1-1kern1
 _ZNK8casacore16StokesCoordinate6stokesEv@Base 3.2.1-1kern1
 _ZNK8casacore16StokesCoordinate7toPixelERNS_6VectorIdEERKS2_@Base 3.2.1-1kern1
 _ZNK8casacore16StokesCoordinate7toPixelERdd@Base 3.2.1-1kern1
 _ZNK8casacore16StokesCoordinate7toPixelERiNS_6Stokes11StokesTypesE@Base 3.2.1-1kern1
 _ZNK8casacore16StokesCoordinate7toWorldERNS_6Stokes11StokesTypesEi@Base 3.2.1-1kern1
 _ZNK8casacore16StokesCoordinate7toWorldERNS_6VectorIdEERKS2_b@Base 3.2.1-1kern1
 _ZNK8casacore16StokesCoordinate7toWorldERdd@Base 3.2.1-1kern1
 _ZNK8casacore16StokesCoordinate8showTypeEv@Base 3.2.1-1kern1
 _ZNK8casacore16StokesCoordinate9incrementEv@Base 3.2.1-1kern1
 _ZNK8casacore17Allocator_private17BulkAllocatorImplINS_17new_del_allocatorINS_6Stokes11StokesTypesEEEE16allocator_typeidEv@Base 3.2.1-1kern1
 _ZNK8casacore17Allocator_private17BulkAllocatorImplINS_17new_del_allocatorINS_7QuantumIdEEEEE16allocator_typeidEv@Base 3.2.1-1kern1
 _ZNK8casacore17Allocator_private17BulkAllocatorImplINS_17new_del_allocatorIPNS_6SlicerEEEE16allocator_typeidEv@Base 3.2.1-1kern1
 _ZNK8casacore17Allocator_private17BulkAllocatorImplINS_18casacore_allocatorINS_6Stokes11StokesTypesELm32EEEE16allocator_typeidEv@Base 3.2.1-1kern1
 _ZNK8casacore17Allocator_private17BulkAllocatorImplINS_18casacore_allocatorINS_7QuantumIdEELm32EEEE16allocator_typeidEv@Base 3.2.1-1kern1
 _ZNK8casacore17Allocator_private17BulkAllocatorImplINS_18casacore_allocatorIPNS_6SlicerELm32EEEE16allocator_typeidEv@Base 3.2.1-1kern1
 _ZNK8casacore17Allocator_private17BulkAllocatorImplINS_18casacore_allocatorIPvLm32EEEE16allocator_typeidEv@Base 3.2.1-1kern1
 _ZNK8casacore17Allocator_private17BulkAllocatorImplINS_18casacore_allocatorIbLm32EEEE16allocator_typeidEv@Base 3.2.1-1kern1
 _ZNK8casacore17Allocator_private17BulkAllocatorImplINS_18casacore_allocatorIdLm32EEEE16allocator_typeidEv@Base 3.2.1-1kern1
 _ZNK8casacore17Allocator_private17BulkAllocatorImplINS_18casacore_allocatorIiLm32EEEE16allocator_typeidEv@Base 3.2.1-1kern1
 _ZNK8casacore17Allocator_private17BulkAllocatorImplINS_18casacore_allocatorIjLm32EEEE16allocator_typeidEv@Base 3.2.1-1kern1
 _ZNK8casacore17QualityCoordinate10nPixelAxesEv@Base 3.2.1-1kern1
 _ZNK8casacore17QualityCoordinate10nWorldAxesEv@Base 3.2.1-1kern1
 _ZNK8casacore17QualityCoordinate11doNearPixelERKNS_10CoordinateERKNS_6VectorIbEES7_d@Base 3.2.1-1kern1
 _ZNK8casacore17QualityCoordinate14referencePixelEv@Base 3.2.1-1kern1
 _ZNK8casacore17QualityCoordinate14referenceValueEv@Base 3.2.1-1kern1
 _ZNK8casacore17QualityCoordinate14worldAxisNamesEv@Base 3.2.1-1kern1
 _ZNK8casacore17QualityCoordinate14worldAxisUnitsEv@Base 3.2.1-1kern1
 _ZNK8casacore17QualityCoordinate15linearTransformEv@Base 3.2.1-1kern1
 _ZNK8casacore17QualityCoordinate17makePixelAbsoluteERNS_6VectorIdEE@Base 3.2.1-1kern1
 _ZNK8casacore17QualityCoordinate17makePixelRelativeERNS_6VectorIdEE@Base 3.2.1-1kern1
 _ZNK8casacore17QualityCoordinate17makeWorldAbsoluteERNS_6VectorIdEE@Base 3.2.1-1kern1
 _ZNK8casacore17QualityCoordinate17makeWorldRelativeERNS_6VectorIdEE@Base 3.2.1-1kern1
 _ZNK8casacore17QualityCoordinate4nearERKNS_10CoordinateERKNS_6VectorIiEEd@Base 3.2.1-1kern1
 _ZNK8casacore17QualityCoordinate4nearERKNS_10CoordinateEd@Base 3.2.1-1kern1
 _ZNK8casacore17QualityCoordinate4saveERNS_15RecordInterfaceERKNS_6StringE@Base 3.2.1-1kern1
 _ZNK8casacore17QualityCoordinate4typeEv@Base 3.2.1-1kern1
 _ZNK8casacore17QualityCoordinate5cloneEv@Base 3.2.1-1kern1
 _ZNK8casacore17QualityCoordinate6formatERNS_6StringENS_10Coordinate10formatTypeEdjbbib@Base 3.2.1-1kern1
 _ZNK8casacore17QualityCoordinate7qualityEv@Base 3.2.1-1kern1
 _ZNK8casacore17QualityCoordinate7toPixelERNS_6VectorIdEERKS2_@Base 3.2.1-1kern1
 _ZNK8casacore17QualityCoordinate7toPixelERdd@Base 3.2.1-1kern1
 _ZNK8casacore17QualityCoordinate7toPixelERiNS_7Quality12QualityTypesE@Base 3.2.1-1kern1
 _ZNK8casacore17QualityCoordinate7toWorldERNS_6VectorIdEERKS2_b@Base 3.2.1-1kern1
 _ZNK8casacore17QualityCoordinate7toWorldERNS_7Quality12QualityTypesEi@Base 3.2.1-1kern1
 _ZNK8casacore17QualityCoordinate7toWorldERdd@Base 3.2.1-1kern1
 _ZNK8casacore17QualityCoordinate8showTypeEv@Base 3.2.1-1kern1
 _ZNK8casacore17QualityCoordinate9incrementEv@Base 3.2.1-1kern1
 _ZNK8casacore17TabularCoordinate10nPixelAxesEv@Base 3.2.1-1kern1
 _ZNK8casacore17TabularCoordinate10nWorldAxesEv@Base 3.2.1-1kern1
 _ZNK8casacore17TabularCoordinate11pixelValuesEv@Base 3.2.1-1kern1
 _ZNK8casacore17TabularCoordinate11toPixelManyERNS_6MatrixIdEERKS2_RNS_6VectorIbEE@Base 3.2.1-1kern1
 _ZNK8casacore17TabularCoordinate11toWorldManyERNS_6MatrixIdEERKS2_RNS_6VectorIbEE@Base 3.2.1-1kern1
 _ZNK8casacore17TabularCoordinate11worldValuesEv@Base 3.2.1-1kern1
 _ZNK8casacore17TabularCoordinate14referencePixelEv@Base 3.2.1-1kern1
 _ZNK8casacore17TabularCoordinate14referenceValueEv@Base 3.2.1-1kern1
 _ZNK8casacore17TabularCoordinate14worldAxisNamesEv@Base 3.2.1-1kern1
 _ZNK8casacore17TabularCoordinate14worldAxisUnitsEv@Base 3.2.1-1kern1
 _ZNK8casacore17TabularCoordinate15linearTransformEv@Base 3.2.1-1kern1
 _ZNK8casacore17TabularCoordinate17makePixelAbsoluteERNS_6VectorIdEE@Base 3.2.1-1kern1
 _ZNK8casacore17TabularCoordinate17makePixelRelativeERNS_6VectorIdEE@Base 3.2.1-1kern1
 _ZNK8casacore17TabularCoordinate17makeWorldAbsoluteERNS_6VectorIdEE@Base 3.2.1-1kern1
 _ZNK8casacore17TabularCoordinate17makeWorldRelativeERNS_6VectorIdEE@Base 3.2.1-1kern1
 _ZNK8casacore17TabularCoordinate21makeFourierCoordinateERKNS_6VectorIbEERKNS1_IiEE@Base 3.2.1-1kern1
 _ZNK8casacore17TabularCoordinate4nearERKNS_10CoordinateERKNS_6VectorIiEEd@Base 3.2.1-1kern1
 _ZNK8casacore17TabularCoordinate4nearERKNS_10CoordinateEd@Base 3.2.1-1kern1
 _ZNK8casacore17TabularCoordinate4saveERNS_15RecordInterfaceERKNS_6StringE@Base 3.2.1-1kern1
 _ZNK8casacore17TabularCoordinate4typeEv@Base 3.2.1-1kern1
 _ZNK8casacore17TabularCoordinate5cloneEv@Base 3.2.1-1kern1
 _ZNK8casacore17TabularCoordinate7toPixelERNS_6VectorIdEERKS2_@Base 3.2.1-1kern1
 _ZNK8casacore17TabularCoordinate7toPixelERdd@Base 3.2.1-1kern1
 _ZNK8casacore17TabularCoordinate7toWorldERNS_6VectorIdEERKS2_b@Base 3.2.1-1kern1
 _ZNK8casacore17TabularCoordinate7toWorldERdd@Base 3.2.1-1kern1
 _ZNK8casacore17TabularCoordinate8showTypeEv@Base 3.2.1-1kern1
 _ZNK8casacore17TabularCoordinate9incrementEv@Base 3.2.1-1kern1
 _ZNK8casacore18FITSCoordinateUtil10getObsInfoERNS_5LogIOERNS_15RecordInterfaceERK6wcsprm@Base 3.2.1-1kern1
 _ZNK8casacore18FITSCoordinateUtil12toFITSHeaderERNS_15RecordInterfaceERNS_9IPositionERKNS_16CoordinateSystemEbcbbbbb@Base 3.2.1-1kern1
 _ZNK8casacore18FITSCoordinateUtil13cardsToRecordERNS_5LogIOERNS_15RecordInterfaceEPc@Base 3.2.1-1kern1
 _ZNK8casacore18FITSCoordinateUtil13fixCoordinateERNS_10CoordinateERNS_5LogIOE@Base 3.2.1-1kern1
 _ZNK8casacore18FITSCoordinateUtil14fromFITSHeaderERiRNS_16CoordinateSystemERNS_15RecordInterfaceERKNS_6VectorINS_6StringEEERKNS_9IPositionEj@Base 3.2.1-1kern1
 _ZNK8casacore18FITSCoordinateUtil18toFITSHeaderStokesERNS_6VectorIdEES3_S3_RNS_5LogIOERKNS_16CoordinateSystemEii@Base 3.2.1-1kern1
 _ZNK8casacore18FITSCoordinateUtil19addLinearCoordinateERNS_16CoordinateSystemERNS_6VectorIiEERK6wcsprmRNS_5LogIOE@Base 3.2.1-1kern1
 _ZNK8casacore18FITSCoordinateUtil19addStokesCoordinateERNS_16CoordinateSystemERiS3_RK6wcsprmRKNS_9IPositionERNS_5LogIOE@Base 3.2.1-1kern1
 _ZNK8casacore18FITSCoordinateUtil20generateFITSKeywordsERNS_5LogIOERbRdS4_RNS_6VectorIdEES7_S7_S7_RNS5_INS_6StringEEESA_RNS_6MatrixIdEERKNS_16CoordinateSystemEiiiiibdRKS8_@Base 3.2.1-1kern1
 _ZNK8casacore18FITSCoordinateUtil21addSpectralCoordinateERNS_16CoordinateSystemERiRK6wcsprmRKNS_9IPositionERNS_5LogIOE@Base 3.2.1-1kern1
 _ZNK8casacore18FITSCoordinateUtil22addDirectionCoordinateERNS_16CoordinateSystemERNS_6VectorIiEERK6wcsprmRNS_5LogIOE@Base 3.2.1-1kern1
 _ZNK8casacore18FITSCoordinateUtil22directionSystemFromWCSERNS_5LogIOERNS_10MDirection5TypesERNS_6StringERK6wcsprm@Base 3.2.1-1kern1
 _ZNK8casacore18FITSCoordinateUtil22frequencySystemFromWCSERNS_5LogIOERNS_10MFrequency5TypesERNS_6StringERK6wcsprm@Base 3.2.1-1kern1
 _ZNK8casacore18FITSCoordinateUtil23stokesCoordinateFromWCSERNS_5LogIOERNS_16StokesCoordinateERiRNS_6StringERK6wcsprmjb@Base 3.2.1-1kern1
 _ZNK8casacore18FITSCoordinateUtil6setWCSER6wcsprm@Base 3.2.1-1kern1
 _ZNK8casacore18SpectralCoordinate10nPixelAxesEv@Base 3.2.1-1kern1
 _ZNK8casacore18SpectralCoordinate10nWorldAxesEv@Base 3.2.1-1kern1
 _ZNK8casacore18SpectralCoordinate11checkFormatERNS_10Coordinate10formatTypeEb@Base 3.2.1-1kern1
 _ZNK8casacore18SpectralCoordinate11convertFromERNS_6VectorIdEE@Base 3.2.1-1kern1
 _ZNK8casacore18SpectralCoordinate11fromCurrentERNS_6VectorIdEE@Base 3.2.1-1kern1
 _ZNK8casacore18SpectralCoordinate11pixelValuesEv@Base 3.2.1-1kern1
 _ZNK8casacore18SpectralCoordinate11toPixelManyERNS_6MatrixIdEERKS2_RNS_6VectorIbEE@Base 3.2.1-1kern1
 _ZNK8casacore18SpectralCoordinate11toWorldManyERNS_6MatrixIdEERKS2_RNS_6VectorIbEE@Base 3.2.1-1kern1
 _ZNK8casacore18SpectralCoordinate11worldValuesEv@Base 3.2.1-1kern1
 _ZNK8casacore18SpectralCoordinate13restFrequencyEv@Base 3.2.1-1kern1
 _ZNK8casacore18SpectralCoordinate14referencePixelEv@Base 3.2.1-1kern1
 _ZNK8casacore18SpectralCoordinate14referenceValueEv@Base 3.2.1-1kern1
 _ZNK8casacore18SpectralCoordinate14worldAxisNamesEv@Base 3.2.1-1kern1
 _ZNK8casacore18SpectralCoordinate14worldAxisUnitsEv@Base 3.2.1-1kern1
 _ZNK8casacore18SpectralCoordinate15frequencySystemEb@Base 3.2.1-1kern1
 _ZNK8casacore18SpectralCoordinate15linearTransformEv@Base 3.2.1-1kern1
 _ZNK8casacore18SpectralCoordinate15pixelToVelocityERNS_6VectorIdEERKS2_@Base 3.2.1-1kern1
 _ZNK8casacore18SpectralCoordinate15pixelToVelocityERNS_7QuantumIdEEd@Base 3.2.1-1kern1
 _ZNK8casacore18SpectralCoordinate15pixelToVelocityERdd@Base 3.2.1-1kern1
 _ZNK8casacore18SpectralCoordinate15restFrequenciesEv@Base 3.2.1-1kern1
 _ZNK8casacore18SpectralCoordinate15velocityToPixelERNS_6VectorIdEERKS2_@Base 3.2.1-1kern1
 _ZNK8casacore18SpectralCoordinate15velocityToPixelERdd@Base 3.2.1-1kern1
 _ZNK8casacore18SpectralCoordinate16toCurrentFactorsEv@Base 3.2.1-1kern1
 _ZNK8casacore18SpectralCoordinate19frequencyToVelocityERNS_6VectorIdEERKS2_@Base 3.2.1-1kern1
 _ZNK8casacore18SpectralCoordinate19frequencyToVelocityERNS_7QuantumIdEERKNS_10MFrequencyE@Base 3.2.1-1kern1
 _ZNK8casacore18SpectralCoordinate19frequencyToVelocityERNS_7QuantumIdEERKNS_11MVFrequencyE@Base 3.2.1-1kern1
 _ZNK8casacore18SpectralCoordinate19frequencyToVelocityERNS_7QuantumIdEEd@Base 3.2.1-1kern1
 _ZNK8casacore18SpectralCoordinate19frequencyToVelocityERdd@Base 3.2.1-1kern1
 _ZNK8casacore18SpectralCoordinate19velocityToFrequencyERNS_6VectorIdEERKS2_@Base 3.2.1-1kern1
 _ZNK8casacore18SpectralCoordinate19velocityToFrequencyERdd@Base 3.2.1-1kern1
 _ZNK8casacore18SpectralCoordinate21formatRestFrequenciesEv@Base 3.2.1-1kern1
 _ZNK8casacore18SpectralCoordinate21frequencyToWavelengthERNS_6VectorIdEERKS2_@Base 3.2.1-1kern1
 _ZNK8casacore18SpectralCoordinate21makeFourierCoordinateERKNS_6VectorIbEERKNS1_IiEE@Base 3.2.1-1kern1
 _ZNK8casacore18SpectralCoordinate21wavelengthToFrequencyERNS_6VectorIdEERKS2_@Base 3.2.1-1kern1
 _ZNK8casacore18SpectralCoordinate24airWavelengthToFrequencyERNS_6VectorIdEERKS2_@Base 3.2.1-1kern1
 _ZNK8casacore18SpectralCoordinate24frequencyToAirWavelengthERNS_6VectorIdEERKS2_@Base 3.2.1-1kern1
 _ZNK8casacore18SpectralCoordinate4nearERKNS_10CoordinateERKNS_6VectorIiEEd@Base 3.2.1-1kern1
 _ZNK8casacore18SpectralCoordinate4nearERKNS_10CoordinateEd@Base 3.2.1-1kern1
 _ZNK8casacore18SpectralCoordinate4saveERNS_15RecordInterfaceERKNS_6StringE@Base 3.2.1-1kern1
 _ZNK8casacore18SpectralCoordinate4typeEv@Base 3.2.1-1kern1
 _ZNK8casacore18SpectralCoordinate5cloneEv@Base 3.2.1-1kern1
 _ZNK8casacore18SpectralCoordinate5printERSo@Base 3.2.1-1kern1
 _ZNK8casacore18SpectralCoordinate6formatERNS_6StringENS_10Coordinate10formatTypeEdjbbib@Base 3.2.1-1kern1
 _ZNK8casacore18SpectralCoordinate6toFITSERNS_15RecordInterfaceEjRNS_5LogIOEbbbbb@Base 3.2.1-1kern1
 _ZNK8casacore18SpectralCoordinate7toPixelERNS_6VectorIdEERKS2_@Base 3.2.1-1kern1
 _ZNK8casacore18SpectralCoordinate7toPixelERdRKNS_10MFrequencyE@Base 3.2.1-1kern1
 _ZNK8casacore18SpectralCoordinate7toPixelERdRKNS_11MVFrequencyE@Base 3.2.1-1kern1
 _ZNK8casacore18SpectralCoordinate7toPixelERdRKd@Base 3.2.1-1kern1
 _ZNK8casacore18SpectralCoordinate7toWorldERNS_10MFrequencyEd@Base 3.2.1-1kern1
 _ZNK8casacore18SpectralCoordinate7toWorldERNS_11MVFrequencyEd@Base 3.2.1-1kern1
 _ZNK8casacore18SpectralCoordinate7toWorldERNS_6VectorIdEERKS2_b@Base 3.2.1-1kern1
 _ZNK8casacore18SpectralCoordinate7toWorldERdRKd@Base 3.2.1-1kern1
 _ZNK8casacore18SpectralCoordinate7wcsSaveERNS_15RecordInterfaceERK6wcsprmRKNS_6StringE@Base 3.2.1-1kern1
 _ZNK8casacore18SpectralCoordinate8showTypeEv@Base 3.2.1-1kern1
 _ZNK8casacore18SpectralCoordinate9convertToERNS_6VectorIdEE@Base 3.2.1-1kern1
 _ZNK8casacore18SpectralCoordinate9incrementEv@Base 3.2.1-1kern1
 _ZNK8casacore18SpectralCoordinate9isTabularEv@Base 3.2.1-1kern1
 _ZNK8casacore18SpectralCoordinate9toCurrentERNS_6VectorIdEE@Base 3.2.1-1kern1
 _ZNK8casacore19DirectionCoordinate10nPixelAxesEv@Base 3.2.1-1kern1
 _ZNK8casacore19DirectionCoordinate10nWorldAxesEv@Base 3.2.1-1kern1
 _ZNK8casacore19DirectionCoordinate10projectionEv@Base 3.2.1-1kern1
 _ZNK8casacore19DirectionCoordinate11checkFormatERNS_10Coordinate10formatTypeEb@Base 3.2.1-1kern1
 _ZNK8casacore19DirectionCoordinate11convertFromERNS_6VectorIdEE@Base 3.2.1-1kern1
 _ZNK8casacore19DirectionCoordinate11fromCurrentERNS_6VectorIdEE@Base 3.2.1-1kern1
 _ZNK8casacore19DirectionCoordinate11toPixelManyERNS_6MatrixIdEERKS2_RNS_6VectorIbEE@Base 3.2.1-1kern1
 _ZNK8casacore19DirectionCoordinate11toWorldManyERNS_6MatrixIdEERKS2_RNS_6VectorIbEE@Base 3.2.1-1kern1
 _ZNK8casacore19DirectionCoordinate12getPixelAreaEv@Base 3.2.1-1kern1
 _ZNK8casacore19DirectionCoordinate12getPrecisionERiRNS_10Coordinate10formatTypeEbiii@Base 3.2.1-1kern1
 _ZNK8casacore19DirectionCoordinate12longLatPolesEv@Base 3.2.1-1kern1
 _ZNK8casacore19DirectionCoordinate13directionTypeEb@Base 3.2.1-1kern1
 _ZNK8casacore19DirectionCoordinate14formatLatitudeERNS_6StringERNS_7MVAngleEbNS_10Coordinate10formatTypeEi@Base 3.2.1-1kern1
 _ZNK8casacore19DirectionCoordinate14referencePixelEv@Base 3.2.1-1kern1
 _ZNK8casacore19DirectionCoordinate14referenceValueEv@Base 3.2.1-1kern1
 _ZNK8casacore19DirectionCoordinate14worldAxisNamesEv@Base 3.2.1-1kern1
 _ZNK8casacore19DirectionCoordinate14worldAxisUnitsEv@Base 3.2.1-1kern1
 _ZNK8casacore19DirectionCoordinate15formatLongitudeERNS_6StringERNS_7MVAngleENS_10MDirection11GlobalTypesEbNS_10Coordinate10formatTypeEi@Base 3.2.1-1kern1
 _ZNK8casacore19DirectionCoordinate15hasSquarePixelsEv@Base 3.2.1-1kern1
 _ZNK8casacore19DirectionCoordinate15linearTransformEv@Base 3.2.1-1kern1
 _ZNK8casacore19DirectionCoordinate16putLongInPiRangeEdRKNS_6StringE@Base 3.2.1-1kern1
 _ZNK8casacore19DirectionCoordinate16toCurrentFactorsEv@Base 3.2.1-1kern1
 _ZNK8casacore19DirectionCoordinate17makeWorldAbsoluteERNS_10MDirectionE@Base 3.2.1-1kern1
 _ZNK8casacore19DirectionCoordinate17makeWorldAbsoluteERNS_6VectorIdEE@Base 3.2.1-1kern1
 _ZNK8casacore19DirectionCoordinate17makeWorldRelativeERNS_10MDirectionE@Base 3.2.1-1kern1
 _ZNK8casacore19DirectionCoordinate17makeWorldRelativeERNS_6VectorIdEE@Base 3.2.1-1kern1
 _ZNK8casacore19DirectionCoordinate17setRotationMatrixERNS_9RotMatrixEdd@Base 3.2.1-1kern1
 _ZNK8casacore19DirectionCoordinate20makeWorldAbsoluteRefERNS_6VectorIdEERKS2_@Base 3.2.1-1kern1
 _ZNK8casacore19DirectionCoordinate21makeFourierCoordinateERKNS_6VectorIbEERKNS1_IiEE@Base 3.2.1-1kern1
 _ZNK8casacore19DirectionCoordinate4nearERKNS_10CoordinateERKNS_6VectorIiEEd@Base 3.2.1-1kern1
 _ZNK8casacore19DirectionCoordinate4nearERKNS_10CoordinateEd@Base 3.2.1-1kern1
 _ZNK8casacore19DirectionCoordinate4saveERNS_15RecordInterfaceERKNS_6StringE@Base 3.2.1-1kern1
 _ZNK8casacore19DirectionCoordinate4typeEv@Base 3.2.1-1kern1
 _ZNK8casacore19DirectionCoordinate5cloneEv@Base 3.2.1-1kern1
 _ZNK8casacore19DirectionCoordinate5isNCPEv@Base 3.2.1-1kern1
 _ZNK8casacore19DirectionCoordinate5toMixERNS_6VectorIdEES3_RKS2_S5_RKNS1_IbEES8_S5_S5_@Base 3.2.1-1kern1
 _ZNK8casacore19DirectionCoordinate6formatERNS_6StringENS_10Coordinate10formatTypeEdjbbib@Base 3.2.1-1kern1
 _ZNK8casacore19DirectionCoordinate6toMix2ERNS_6VectorIdEERKS2_S5_S5_b@Base 3.2.1-1kern1
 _ZNK8casacore19DirectionCoordinate7convertERNS_7QuantumIdEENS_10MDirection5TypesE@Base 3.2.1-1kern1
 _ZNK8casacore19DirectionCoordinate7toPixelERKNS_10MDirectionE@Base 3.2.1-1kern1
 _ZNK8casacore19DirectionCoordinate7toPixelERKNS_11MVDirectionE@Base 3.2.1-1kern1
 _ZNK8casacore19DirectionCoordinate7toPixelERNS_6VectorIdEERKNS_10MDirectionE@Base 3.2.1-1kern1
 _ZNK8casacore19DirectionCoordinate7toPixelERNS_6VectorIdEERKNS_11MVDirectionE@Base 3.2.1-1kern1
 _ZNK8casacore19DirectionCoordinate7toPixelERNS_6VectorIdEERKS2_@Base 3.2.1-1kern1
 _ZNK8casacore19DirectionCoordinate7toWorldERKNS_6VectorIdEE@Base 3.2.1-1kern1
 _ZNK8casacore19DirectionCoordinate7toWorldERNS_10MDirectionERKNS_6VectorIdEE@Base 3.2.1-1kern1
 _ZNK8casacore19DirectionCoordinate7toWorldERNS_11MVDirectionERKNS_6VectorIdEE@Base 3.2.1-1kern1
 _ZNK8casacore19DirectionCoordinate7toWorldERNS_6VectorIdEERKS2_b@Base 3.2.1-1kern1
 _ZNK8casacore19DirectionCoordinate8showTypeEv@Base 3.2.1-1kern1
 _ZNK8casacore19DirectionCoordinate9convertToERNS_6VectorIdEE@Base 3.2.1-1kern1
 _ZNK8casacore19DirectionCoordinate9incrementEv@Base 3.2.1-1kern1
 _ZNK8casacore19DirectionCoordinate9toCurrentERNS_6VectorIdEE@Base 3.2.1-1kern1
 _ZNK8casacore23ScalarSampledFunctionalIdE9nelementsEv@Base 3.2.1-1kern1
 _ZNK8casacore23ScalarSampledFunctionalIdEclERKj@Base 3.2.1-1kern1
 _ZNK8casacore5ArrayINS_7QuantumIdEEE10getSectionERKNS_6SlicerE@Base 3.2.1-1kern1
 _ZNK8casacore5ArrayINS_7QuantumIdEEE11freeStorageERPKS2_b@Base 3.2.1-1kern1
 _ZNK8casacore5ArrayINS_7QuantumIdEEE11getVStorageERb@Base 3.2.1-1kern1
 _ZNK8casacore5ArrayINS_7QuantumIdEEE12freeVStorageERPKvb@Base 3.2.1-1kern1
 _ZNK8casacore5ArrayINS_7QuantumIdEEE12makeIteratorEj@Base 3.2.1-1kern1
 _ZNK8casacore5ArrayINS_7QuantumIdEEE18nonNewDelAllocatorEv@Base 3.2.1-1kern1
 _ZNK8casacore5ArrayINS_7QuantumIdEEE2okEv@Base 3.2.1-1kern1
 _ZNK8casacore5ArrayINS_7QuantumIdEEE4copyENS_15ArrayInitPolicyEPNS_17Allocator_private13BulkAllocatorIS2_EE@Base 3.2.1-1kern1
 _ZNK8casacore5ArrayINS_7QuantumIdEEE9makeArrayEv@Base 3.2.1-1kern1
 _ZNK8casacore6String8containsEPKc@Base 3.2.1-1kern1
 _ZNK8casacore6VectorINS_7QuantumIdEEE2okEv@Base 3.2.1-1kern1
 _ZNK8casacore7MeasRefINS_10MDirectionEE5emptyEv@Base 3.2.1-1kern1
 _ZNK8casacore7MeasRefINS_10MDirectionEE5printERSo@Base 3.2.1-1kern1
 _ZNK8casacore7MeasRefINS_10MDirectionEE6offsetEv@Base 3.2.1-1kern1
 _ZNK8casacore7MeasRefINS_10MDirectionEE7getTypeEv@Base 3.2.1-1kern1
 _ZNK8casacore7MeasRefINS_10MFrequencyEE5emptyEv@Base 3.2.1-1kern1
 _ZNK8casacore7MeasRefINS_10MFrequencyEE5printERSo@Base 3.2.1-1kern1
 _ZNK8casacore7MeasRefINS_10MFrequencyEE6offsetEv@Base 3.2.1-1kern1
 _ZNK8casacore7MeasRefINS_10MFrequencyEE7getTypeEv@Base 3.2.1-1kern1
 _ZNK8casacore7MeasRefINS_6MEpochEE5emptyEv@Base 3.2.1-1kern1
 _ZNK8casacore7MeasRefINS_6MEpochEE5printERSo@Base 3.2.1-1kern1
 _ZNK8casacore7MeasRefINS_6MEpochEE6offsetEv@Base 3.2.1-1kern1
 _ZNK8casacore7MeasRefINS_6MEpochEE7getTypeEv@Base 3.2.1-1kern1
 _ZNK8casacore7MeasRefINS_8MDopplerEE5emptyEv@Base 3.2.1-1kern1
 _ZNK8casacore7MeasRefINS_8MDopplerEE5printERSo@Base 3.2.1-1kern1
 _ZNK8casacore7MeasRefINS_8MDopplerEE6offsetEv@Base 3.2.1-1kern1
 _ZNK8casacore7MeasRefINS_8MDopplerEE7getTypeEv@Base 3.2.1-1kern1
 _ZNK8casacore7MeasRefINS_9MPositionEE5emptyEv@Base 3.2.1-1kern1
 _ZNK8casacore7MeasRefINS_9MPositionEE5printERSo@Base 3.2.1-1kern1
 _ZNK8casacore7MeasRefINS_9MPositionEE6offsetEv@Base 3.2.1-1kern1
 _ZNK8casacore7MeasRefINS_9MPositionEE7getTypeEv@Base 3.2.1-1kern1
 _ZNK8casacore7ObsInfo14pointingCenterEv@Base 3.2.1-1kern1
 _ZNK8casacore7ObsInfo23telescopePositionStringEv@Base 3.2.1-1kern1
 _ZNK8casacore7ObsInfo6toFITSERNS_6StringERNS_15RecordInterfaceE@Base 3.2.1-1kern1
 _ZNK8casacore7ObsInfo7obsDateEv@Base 3.2.1-1kern1
 _ZNK8casacore7ObsInfo8observerEv@Base 3.2.1-1kern1
 _ZNK8casacore7ObsInfo8toRecordERNS_6StringERNS_15RecordInterfaceE@Base 3.2.1-1kern1
 _ZNK8casacore7ObsInfo9telescopeEv@Base 3.2.1-1kern1
 _ZNK8casacore7QuantumINS_6VectorIdEEE11getFullUnitEv@Base 3.2.1-1kern1
 _ZNK8casacore7QuantumINS_6VectorIdEEE4typeEv@Base 3.2.1-1kern1
 _ZNK8casacore7QuantumINS_6VectorIdEEE5cloneEv@Base 3.2.1-1kern1
 _ZNK8casacore7QuantumINS_6VectorIdEEE5printERSo@Base 3.2.1-1kern1
 _ZNK8casacore7QuantumINS_6VectorIdEEE8getValueERKNS_4UnitEb@Base 3.2.1-1kern1
 _ZNK8casacore8FunctionIddE10cloneNonADEv@Base 3.2.1-1kern1
 _ZNK8casacore8FunctionIddE4nameEv@Base 3.2.1-1kern1
 _ZNK8casacore8FunctionIddE7cloneADEv@Base 3.2.1-1kern1
 _ZNK8casacore8FunctionIddE7getModeERNS_15RecordInterfaceE@Base 3.2.1-1kern1
 _ZNK8casacore8FunctionIddE7hasModeEv@Base 3.2.1-1kern1
 _ZNK8casacore8FunctionIddEclEPKd@Base 3.2.1-1kern1
 _ZNK8casacore8FunctionIddEclERKNS_6VectorIdEE@Base 3.2.1-1kern1
 _ZNK8casacore8FunctionIddEclERKd@Base 3.2.1-1kern1
 _ZNK8casacore8FunctionIddEclERKdS3_@Base 3.2.1-1kern1
 _ZNK8casacore8FunctionIddEclERKdS3_S3_@Base 3.2.1-1kern1
 _ZNK8casacore8FunctionIddEclEv@Base 3.2.1-1kern1
 _ZNK8casacore8MeasBaseINS_11MVDirectionENS_7MeasRefINS_10MDirectionEEEE5printERSo@Base 3.2.1-1kern1
 _ZNK8casacore8MeasBaseINS_11MVDirectionENS_7MeasRefINS_10MDirectionEEEE6areYouERKNS_6StringE@Base 3.2.1-1kern1
 _ZNK8casacore8MeasBaseINS_11MVDirectionENS_7MeasRefINS_10MDirectionEEEE7assuredERKNS_6StringE@Base 3.2.1-1kern1
 _ZNK8casacore8MeasBaseINS_11MVDirectionENS_7MeasRefINS_10MDirectionEEEE7getDataEv@Base 3.2.1-1kern1
 _ZNK8casacore8MeasBaseINS_11MVDirectionENS_7MeasRefINS_10MDirectionEEEE7getUnitEv@Base 3.2.1-1kern1
 _ZNK8casacore8MeasBaseINS_11MVDirectionENS_7MeasRefINS_10MDirectionEEEE9getRefPtrEv@Base 3.2.1-1kern1
 _ZNK8casacore8MeasBaseINS_11MVFrequencyENS_7MeasRefINS_10MFrequencyEEEE5printERSo@Base 3.2.1-1kern1
 _ZNK8casacore8MeasBaseINS_11MVFrequencyENS_7MeasRefINS_10MFrequencyEEEE6areYouERKNS_6StringE@Base 3.2.1-1kern1
 _ZNK8casacore8MeasBaseINS_11MVFrequencyENS_7MeasRefINS_10MFrequencyEEEE7assuredERKNS_6StringE@Base 3.2.1-1kern1
 _ZNK8casacore8MeasBaseINS_11MVFrequencyENS_7MeasRefINS_10MFrequencyEEEE7getDataEv@Base 3.2.1-1kern1
 _ZNK8casacore8MeasBaseINS_11MVFrequencyENS_7MeasRefINS_10MFrequencyEEEE7getUnitEv@Base 3.2.1-1kern1
 _ZNK8casacore8MeasBaseINS_11MVFrequencyENS_7MeasRefINS_10MFrequencyEEEE9getRefPtrEv@Base 3.2.1-1kern1
 _ZNK8casacore8MeasBaseINS_7MVEpochENS_7MeasRefINS_6MEpochEEEE5printERSo@Base 3.2.1-1kern1
 _ZNK8casacore8MeasBaseINS_7MVEpochENS_7MeasRefINS_6MEpochEEEE6areYouERKNS_6StringE@Base 3.2.1-1kern1
 _ZNK8casacore8MeasBaseINS_7MVEpochENS_7MeasRefINS_6MEpochEEEE7assuredERKNS_6StringE@Base 3.2.1-1kern1
 _ZNK8casacore8MeasBaseINS_7MVEpochENS_7MeasRefINS_6MEpochEEEE7getDataEv@Base 3.2.1-1kern1
 _ZNK8casacore8MeasBaseINS_7MVEpochENS_7MeasRefINS_6MEpochEEEE7getUnitEv@Base 3.2.1-1kern1
 _ZNK8casacore8MeasBaseINS_7MVEpochENS_7MeasRefINS_6MEpochEEEE9getRefPtrEv@Base 3.2.1-1kern1
 _ZNKSt5ctypeIcE8do_widenEc@Base 3.2.1-1kern1
 _ZNSt14__shared_countILN9__gnu_cxx12_Lock_policyE2EEaSERKS2_@Base 3.2.1-1kern1
 _ZNSt15_Sp_counted_ptrIPN8casacore5BlockINS0_7QuantumIdEEEELN9__gnu_cxx12_Lock_policyE2EE10_M_destroyEv@Base 3.2.1-1kern1
 _ZNSt15_Sp_counted_ptrIPN8casacore5BlockINS0_7QuantumIdEEEELN9__gnu_cxx12_Lock_policyE2EE10_M_disposeEv@Base 3.2.1-1kern1
 _ZNSt15_Sp_counted_ptrIPN8casacore5BlockINS0_7QuantumIdEEEELN9__gnu_cxx12_Lock_policyE2EE14_M_get_deleterERKSt9type_info@Base 3.2.1-1kern1
 _ZNSt15_Sp_counted_ptrIPN8casacore5BlockINS0_7QuantumIdEEEELN9__gnu_cxx12_Lock_policyE2EED0Ev@Base 3.2.1-1kern1
 _ZNSt15_Sp_counted_ptrIPN8casacore5BlockINS0_7QuantumIdEEEELN9__gnu_cxx12_Lock_policyE2EED1Ev@Base 3.2.1-1kern1
 _ZNSt15_Sp_counted_ptrIPN8casacore5BlockINS0_7QuantumIdEEEELN9__gnu_cxx12_Lock_policyE2EED2Ev@Base 3.2.1-1kern1
 _ZNSt15_Sp_counted_ptrIPN8casacore7MeasRefINS0_10MDirectionEE6RefRepELN9__gnu_cxx12_Lock_policyE2EE10_M_destroyEv@Base 3.2.1-1kern1
 _ZNSt15_Sp_counted_ptrIPN8casacore7MeasRefINS0_10MDirectionEE6RefRepELN9__gnu_cxx12_Lock_policyE2EE10_M_disposeEv@Base 3.2.1-1kern1
 _ZNSt15_Sp_counted_ptrIPN8casacore7MeasRefINS0_10MDirectionEE6RefRepELN9__gnu_cxx12_Lock_policyE2EE14_M_get_deleterERKSt9type_info@Base 3.2.1-1kern1
 _ZNSt15_Sp_counted_ptrIPN8casacore7MeasRefINS0_10MDirectionEE6RefRepELN9__gnu_cxx12_Lock_policyE2EED0Ev@Base 3.2.1-1kern1
 _ZNSt15_Sp_counted_ptrIPN8casacore7MeasRefINS0_10MDirectionEE6RefRepELN9__gnu_cxx12_Lock_policyE2EED1Ev@Base 3.2.1-1kern1
 _ZNSt15_Sp_counted_ptrIPN8casacore7MeasRefINS0_10MDirectionEE6RefRepELN9__gnu_cxx12_Lock_policyE2EED2Ev@Base 3.2.1-1kern1
 _ZNSt15_Sp_counted_ptrIPN8casacore7MeasRefINS0_10MFrequencyEE6RefRepELN9__gnu_cxx12_Lock_policyE2EE10_M_destroyEv@Base 3.2.1-1kern1
 _ZNSt15_Sp_counted_ptrIPN8casacore7MeasRefINS0_10MFrequencyEE6RefRepELN9__gnu_cxx12_Lock_policyE2EE10_M_disposeEv@Base 3.2.1-1kern1
 _ZNSt15_Sp_counted_ptrIPN8casacore7MeasRefINS0_10MFrequencyEE6RefRepELN9__gnu_cxx12_Lock_policyE2EE14_M_get_deleterERKSt9type_info@Base 3.2.1-1kern1
 _ZNSt15_Sp_counted_ptrIPN8casacore7MeasRefINS0_10MFrequencyEE6RefRepELN9__gnu_cxx12_Lock_policyE2EED0Ev@Base 3.2.1-1kern1
 _ZNSt15_Sp_counted_ptrIPN8casacore7MeasRefINS0_10MFrequencyEE6RefRepELN9__gnu_cxx12_Lock_policyE2EED1Ev@Base 3.2.1-1kern1
 _ZNSt15_Sp_counted_ptrIPN8casacore7MeasRefINS0_10MFrequencyEE6RefRepELN9__gnu_cxx12_Lock_policyE2EED2Ev@Base 3.2.1-1kern1
 _ZNSt15_Sp_counted_ptrIPN8casacore7MeasRefINS0_6MEpochEE6RefRepELN9__gnu_cxx12_Lock_policyE2EE10_M_destroyEv@Base 3.2.1-1kern1
 _ZNSt15_Sp_counted_ptrIPN8casacore7MeasRefINS0_6MEpochEE6RefRepELN9__gnu_cxx12_Lock_policyE2EE10_M_disposeEv@Base 3.2.1-1kern1
 _ZNSt15_Sp_counted_ptrIPN8casacore7MeasRefINS0_6MEpochEE6RefRepELN9__gnu_cxx12_Lock_policyE2EE14_M_get_deleterERKSt9type_info@Base 3.2.1-1kern1
 _ZNSt15_Sp_counted_ptrIPN8casacore7MeasRefINS0_6MEpochEE6RefRepELN9__gnu_cxx12_Lock_policyE2EED0Ev@Base 3.2.1-1kern1
 _ZNSt15_Sp_counted_ptrIPN8casacore7MeasRefINS0_6MEpochEE6RefRepELN9__gnu_cxx12_Lock_policyE2EED1Ev@Base 3.2.1-1kern1
 _ZNSt15_Sp_counted_ptrIPN8casacore7MeasRefINS0_6MEpochEE6RefRepELN9__gnu_cxx12_Lock_policyE2EED2Ev@Base 3.2.1-1kern1
 _ZNSt15_Sp_counted_ptrIPN8casacore7MeasRefINS0_8MDopplerEE6RefRepELN9__gnu_cxx12_Lock_policyE2EE10_M_destroyEv@Base 3.2.1-1kern1
 _ZNSt15_Sp_counted_ptrIPN8casacore7MeasRefINS0_8MDopplerEE6RefRepELN9__gnu_cxx12_Lock_policyE2EE10_M_disposeEv@Base 3.2.1-1kern1
 _ZNSt15_Sp_counted_ptrIPN8casacore7MeasRefINS0_8MDopplerEE6RefRepELN9__gnu_cxx12_Lock_policyE2EE14_M_get_deleterERKSt9type_info@Base 3.2.1-1kern1
 _ZNSt15_Sp_counted_ptrIPN8casacore7MeasRefINS0_8MDopplerEE6RefRepELN9__gnu_cxx12_Lock_policyE2EED0Ev@Base 3.2.1-1kern1
 _ZNSt15_Sp_counted_ptrIPN8casacore7MeasRefINS0_8MDopplerEE6RefRepELN9__gnu_cxx12_Lock_policyE2EED1Ev@Base 3.2.1-1kern1
 _ZNSt15_Sp_counted_ptrIPN8casacore7MeasRefINS0_8MDopplerEE6RefRepELN9__gnu_cxx12_Lock_policyE2EED2Ev@Base 3.2.1-1kern1
 _ZNSt15_Sp_counted_ptrIPN8casacore7MeasRefINS0_9MPositionEE6RefRepELN9__gnu_cxx12_Lock_policyE2EE10_M_destroyEv@Base 3.2.1-1kern1
 _ZNSt15_Sp_counted_ptrIPN8casacore7MeasRefINS0_9MPositionEE6RefRepELN9__gnu_cxx12_Lock_policyE2EE10_M_disposeEv@Base 3.2.1-1kern1
 _ZNSt15_Sp_counted_ptrIPN8casacore7MeasRefINS0_9MPositionEE6RefRepELN9__gnu_cxx12_Lock_policyE2EE14_M_get_deleterERKSt9type_info@Base 3.2.1-1kern1
 _ZNSt15_Sp_counted_ptrIPN8casacore7MeasRefINS0_9MPositionEE6RefRepELN9__gnu_cxx12_Lock_policyE2EED0Ev@Base 3.2.1-1kern1
 _ZNSt15_Sp_counted_ptrIPN8casacore7MeasRefINS0_9MPositionEE6RefRepELN9__gnu_cxx12_Lock_policyE2EED1Ev@Base 3.2.1-1kern1
 _ZNSt15_Sp_counted_ptrIPN8casacore7MeasRefINS0_9MPositionEE6RefRepELN9__gnu_cxx12_Lock_policyE2EED2Ev@Base 3.2.1-1kern1
 _ZNSt16_Sp_counted_baseILN9__gnu_cxx12_Lock_policyE2EE10_M_releaseEv@Base 3.2.1-1kern1
 _ZNSt19_Sp_counted_deleterIPN8casacore21ArrayPositionIteratorENS0_10CountedPtrIS1_E7DeleterIS1_EESaIvELN9__gnu_cxx12_Lock_policyE2EE10_M_destroyEv@Base 3.2.1-1kern1
 _ZNSt19_Sp_counted_deleterIPN8casacore21ArrayPositionIteratorENS0_10CountedPtrIS1_E7DeleterIS1_EESaIvELN9__gnu_cxx12_Lock_policyE2EE10_M_disposeEv@Base 3.2.1-1kern1
 _ZNSt19_Sp_counted_deleterIPN8casacore21ArrayPositionIteratorENS0_10CountedPtrIS1_E7DeleterIS1_EESaIvELN9__gnu_cxx12_Lock_policyE2EE14_M_get_deleterERKSt9type_info@Base 3.2.1-1kern1
 _ZNSt19_Sp_counted_deleterIPN8casacore21ArrayPositionIteratorENS0_10CountedPtrIS1_E7DeleterIS1_EESaIvELN9__gnu_cxx12_Lock_policyE2EED0Ev@Base 3.2.1-1kern1
 _ZNSt19_Sp_counted_deleterIPN8casacore21ArrayPositionIteratorENS0_10CountedPtrIS1_E7DeleterIS1_EESaIvELN9__gnu_cxx12_Lock_policyE2EED1Ev@Base 3.2.1-1kern1
 _ZNSt19_Sp_counted_deleterIPN8casacore21ArrayPositionIteratorENS0_10CountedPtrIS1_E7DeleterIS1_EESaIvELN9__gnu_cxx12_Lock_policyE2EED2Ev@Base 3.2.1-1kern1
 _ZNSt19_Sp_counted_deleterIPN8casacore5BlockINS0_7QuantumIdEEEENS0_10CountedPtrIS4_E7DeleterIS4_EESaIvELN9__gnu_cxx12_Lock_policyE2EE10_M_destroyEv@Base 3.2.1-1kern1
 _ZNSt19_Sp_counted_deleterIPN8casacore5BlockINS0_7QuantumIdEEEENS0_10CountedPtrIS4_E7DeleterIS4_EESaIvELN9__gnu_cxx12_Lock_policyE2EE10_M_disposeEv@Base 3.2.1-1kern1
 _ZNSt19_Sp_counted_deleterIPN8casacore5BlockINS0_7QuantumIdEEEENS0_10CountedPtrIS4_E7DeleterIS4_EESaIvELN9__gnu_cxx12_Lock_policyE2EE14_M_get_deleterERKSt9type_info@Base 3.2.1-1kern1
 _ZNSt19_Sp_counted_deleterIPN8casacore5BlockINS0_7QuantumIdEEEENS0_10CountedPtrIS4_E7DeleterIS4_EESaIvELN9__gnu_cxx12_Lock_policyE2EED0Ev@Base 3.2.1-1kern1
 _ZNSt19_Sp_counted_deleterIPN8casacore5BlockINS0_7QuantumIdEEEENS0_10CountedPtrIS4_E7DeleterIS4_EESaIvELN9__gnu_cxx12_Lock_policyE2EED1Ev@Base 3.2.1-1kern1
 _ZNSt19_Sp_counted_deleterIPN8casacore5BlockINS0_7QuantumIdEEEENS0_10CountedPtrIS4_E7DeleterIS4_EESaIvELN9__gnu_cxx12_Lock_policyE2EED2Ev@Base 3.2.1-1kern1
 _ZNSt19_Sp_counted_deleterIPN8casacore9ArrayBaseENS0_10CountedPtrIS1_E7DeleterIS1_EESaIvELN9__gnu_cxx12_Lock_policyE2EE10_M_destroyEv@Base 3.2.1-1kern1
 _ZNSt19_Sp_counted_deleterIPN8casacore9ArrayBaseENS0_10CountedPtrIS1_E7DeleterIS1_EESaIvELN9__gnu_cxx12_Lock_policyE2EE10_M_disposeEv@Base 3.2.1-1kern1
 _ZNSt19_Sp_counted_deleterIPN8casacore9ArrayBaseENS0_10CountedPtrIS1_E7DeleterIS1_EESaIvELN9__gnu_cxx12_Lock_policyE2EE14_M_get_deleterERKSt9type_info@Base 3.2.1-1kern1
 _ZNSt19_Sp_counted_deleterIPN8casacore9ArrayBaseENS0_10CountedPtrIS1_E7DeleterIS1_EESaIvELN9__gnu_cxx12_Lock_policyE2EED0Ev@Base 3.2.1-1kern1
 _ZNSt19_Sp_counted_deleterIPN8casacore9ArrayBaseENS0_10CountedPtrIS1_E7DeleterIS1_EESaIvELN9__gnu_cxx12_Lock_policyE2EED1Ev@Base 3.2.1-1kern1
 _ZNSt19_Sp_counted_deleterIPN8casacore9ArrayBaseENS0_10CountedPtrIS1_E7DeleterIS1_EESaIvELN9__gnu_cxx12_Lock_policyE2EED2Ev@Base 3.2.1-1kern1
 _ZNSt3mapIN8casacore6StringES1_St4lessIS1_ESaISt4pairIKS1_S1_EEED1Ev@Base 3.2.1-1kern1
 _ZNSt3mapIN8casacore6StringES1_St4lessIS1_ESaISt4pairIKS1_S1_EEED2Ev@Base 3.2.1-1kern1
 _ZNSt6vectorIN8casacore6StringESaIS1_EE17_M_realloc_insertIJRKS1_EEEvN9__gnu_cxx17__normal_iteratorIPS1_S3_EEDpOT_@Base 3.2.1-1kern1
 _ZNSt6vectorIiSaIiEE17_M_realloc_insertIJRKiEEEvN9__gnu_cxx17__normal_iteratorIPiS1_EEDpOT_@Base 3.2.1-1kern1
 _ZNSt6vectorIjSaIjEE17_M_realloc_insertIJRKjEEEvN9__gnu_cxx17__normal_iteratorIPjS1_EEDpOT_@Base 3.2.1-1kern1
 _ZNSt7__cxx1115basic_stringbufIcSt11char_traitsIcESaIcEED0Ev@Base 3.2.1-1kern1
 _ZNSt7__cxx1115basic_stringbufIcSt11char_traitsIcESaIcEED1Ev@Base 3.2.1-1kern1
 _ZNSt7__cxx1115basic_stringbufIcSt11char_traitsIcESaIcEED2Ev@Base 3.2.1-1kern1
 _ZNSt8_Rb_treeIN8casacore6StringESt4pairIKS1_S1_ESt10_Select1stIS4_ESt4lessIS1_ESaIS4_EE14_M_insert_nodeEPSt18_Rb_tree_node_baseSC_PSt13_Rb_tree_nodeIS4_E@Base 3.2.1-1kern1
 _ZNSt8_Rb_treeIN8casacore6StringESt4pairIKS1_S1_ESt10_Select1stIS4_ESt4lessIS1_ESaIS4_EE24_M_get_insert_unique_posERS3_@Base 3.2.1-1kern1
 _ZNSt8_Rb_treeIN8casacore6StringESt4pairIKS1_S1_ESt10_Select1stIS4_ESt4lessIS1_ESaIS4_EE29_M_get_insert_hint_unique_posESt23_Rb_tree_const_iteratorIS4_ERS3_@Base 3.2.1-1kern1
 _ZNSt8_Rb_treeIN8casacore6StringESt4pairIKS1_S1_ESt10_Select1stIS4_ESt4lessIS1_ESaIS4_EE8_M_eraseEPSt13_Rb_tree_nodeIS4_E@Base 3.2.1-1kern1
 _ZTIN8casacore10CoordinateE@Base 3.2.1-1kern1
 _ZTIN8casacore10Function1DIddEE@Base 3.2.1-1kern1
 _ZTIN8casacore10FunctionalINS_6VectorIdEEdEE@Base 3.2.1-1kern1
 _ZTIN8casacore10FunctionalIddEE@Base 3.2.1-1kern1
 _ZTIN8casacore10FunctionalIjdEE@Base 3.2.1-1kern1
 _ZTIN8casacore11MeasConvertINS_10MDirectionEEE@Base 3.2.1-1kern1
 _ZTIN8casacore11MeasConvertINS_10MFrequencyEEE@Base 3.2.1-1kern1
 _ZTIN8casacore11MeasConvertINS_9MPositionEEE@Base 3.2.1-1kern1
 _ZTIN8casacore13ArrayIteratorINS_7QuantumIdEEEE@Base 3.2.1-1kern1
 _ZTIN8casacore13BaseAllocatorINS_6Stokes11StokesTypesENS_15NewDelAllocatorIS2_EEEE@Base 3.2.1-1kern1
 _ZTIN8casacore13BaseAllocatorINS_6Stokes11StokesTypesENS_16AlignedAllocatorIS2_Lm32EEEEE@Base 3.2.1-1kern1
 _ZTIN8casacore13BaseAllocatorINS_7QuantumIdEENS_15NewDelAllocatorIS2_EEEE@Base 3.2.1-1kern1
 _ZTIN8casacore13BaseAllocatorINS_7QuantumIdEENS_16AlignedAllocatorIS2_Lm32EEEEE@Base 3.2.1-1kern1
 _ZTIN8casacore13BaseAllocatorIPNS_6SlicerENS_15NewDelAllocatorIS2_EEEE@Base 3.2.1-1kern1
 _ZTIN8casacore13BaseAllocatorIPNS_6SlicerENS_16AlignedAllocatorIS2_Lm32EEEEE@Base 3.2.1-1kern1
 _ZTIN8casacore13FunctionParamIdEE@Base 3.2.1-1kern1
 _ZTIN8casacore13Interpolate1DIddEE@Base 3.2.1-1kern1
 _ZTIN8casacore15NewDelAllocatorINS_6Stokes11StokesTypesEEE@Base 3.2.1-1kern1
 _ZTIN8casacore15NewDelAllocatorINS_7QuantumIdEEEE@Base 3.2.1-1kern1
 _ZTIN8casacore15NewDelAllocatorIPNS_6SlicerEEE@Base 3.2.1-1kern1
 _ZTIN8casacore16AlignedAllocatorINS_6Stokes11StokesTypesELm32EEE@Base 3.2.1-1kern1
 _ZTIN8casacore16AlignedAllocatorINS_7QuantumIdEELm32EEE@Base 3.2.1-1kern1
 _ZTIN8casacore16AlignedAllocatorIPNS_6SlicerELm32EEE@Base 3.2.1-1kern1
 _ZTIN8casacore16CoordinateSystemE@Base 3.2.1-1kern1
 _ZTIN8casacore16DefaultAllocatorINS_6Stokes11StokesTypesEEE@Base 3.2.1-1kern1
 _ZTIN8casacore16DefaultAllocatorINS_7QuantumIdEEEE@Base 3.2.1-1kern1
 _ZTIN8casacore16DefaultAllocatorIPNS_6SlicerEEE@Base 3.2.1-1kern1
 _ZTIN8casacore16LinearCoordinateE@Base 3.2.1-1kern1
 _ZTIN8casacore16StokesCoordinateE@Base 3.2.1-1kern1
 _ZTIN8casacore17AbstractAllocatorINS_6Stokes11StokesTypesEEE@Base 3.2.1-1kern1
 _ZTIN8casacore17AbstractAllocatorINS_7QuantumIdEEEE@Base 3.2.1-1kern1
 _ZTIN8casacore17AbstractAllocatorIPNS_6SlicerEEE@Base 3.2.1-1kern1
 _ZTIN8casacore17Allocator_private13BulkAllocatorINS_6Stokes11StokesTypesEEE@Base 3.2.1-1kern1
 _ZTIN8casacore17Allocator_private13BulkAllocatorINS_7QuantumIdEEEE@Base 3.2.1-1kern1
 _ZTIN8casacore17Allocator_private13BulkAllocatorIPNS_6SlicerEEE@Base 3.2.1-1kern1
 _ZTIN8casacore17Allocator_private13BulkAllocatorIPvEE@Base 3.2.1-1kern1
 _ZTIN8casacore17Allocator_private13BulkAllocatorIbEE@Base 3.2.1-1kern1
 _ZTIN8casacore17Allocator_private13BulkAllocatorIdEE@Base 3.2.1-1kern1
 _ZTIN8casacore17Allocator_private13BulkAllocatorIiEE@Base 3.2.1-1kern1
 _ZTIN8casacore17Allocator_private13BulkAllocatorIjEE@Base 3.2.1-1kern1
 _ZTIN8casacore17Allocator_private17BulkAllocatorImplINS_17new_del_allocatorINS_6Stokes11StokesTypesEEEEE@Base 3.2.1-1kern1
 _ZTIN8casacore17Allocator_private17BulkAllocatorImplINS_17new_del_allocatorINS_7QuantumIdEEEEEE@Base 3.2.1-1kern1
 _ZTIN8casacore17Allocator_private17BulkAllocatorImplINS_17new_del_allocatorIPNS_6SlicerEEEEE@Base 3.2.1-1kern1
 _ZTIN8casacore17Allocator_private17BulkAllocatorImplINS_18casacore_allocatorINS_6Stokes11StokesTypesELm32EEEEE@Base 3.2.1-1kern1
 _ZTIN8casacore17Allocator_private17BulkAllocatorImplINS_18casacore_allocatorINS_7QuantumIdEELm32EEEEE@Base 3.2.1-1kern1
 _ZTIN8casacore17Allocator_private17BulkAllocatorImplINS_18casacore_allocatorIPNS_6SlicerELm32EEEEE@Base 3.2.1-1kern1
 _ZTIN8casacore17Allocator_private17BulkAllocatorImplINS_18casacore_allocatorIPvLm32EEEEE@Base 3.2.1-1kern1
 _ZTIN8casacore17Allocator_private17BulkAllocatorImplINS_18casacore_allocatorIbLm32EEEEE@Base 3.2.1-1kern1
 _ZTIN8casacore17Allocator_private17BulkAllocatorImplINS_18casacore_allocatorIdLm32EEEEE@Base 3.2.1-1kern1
 _ZTIN8casacore17Allocator_private17BulkAllocatorImplINS_18casacore_allocatorIiLm32EEEEE@Base 3.2.1-1kern1
 _ZTIN8casacore17Allocator_private17BulkAllocatorImplINS_18casacore_allocatorIjLm32EEEEE@Base 3.2.1-1kern1
 _ZTIN8casacore17QualityCoordinateE@Base 3.2.1-1kern1
 _ZTIN8casacore17SampledFunctionalIdEE@Base 3.2.1-1kern1
 _ZTIN8casacore17TabularCoordinateE@Base 3.2.1-1kern1
 _ZTIN8casacore17new_del_allocatorINS_6Stokes11StokesTypesEEE@Base 3.2.1-1kern1
 _ZTIN8casacore17new_del_allocatorINS_7QuantumIdEEEE@Base 3.2.1-1kern1
 _ZTIN8casacore17new_del_allocatorIPNS_6SlicerEEE@Base 3.2.1-1kern1
 _ZTIN8casacore18SpectralCoordinateE@Base 3.2.1-1kern1
 _ZTIN8casacore18casacore_allocatorINS_6Stokes11StokesTypesELm32EEE@Base 3.2.1-1kern1
 _ZTIN8casacore18casacore_allocatorINS_7QuantumIdEELm32EEE@Base 3.2.1-1kern1
 _ZTIN8casacore18casacore_allocatorIPNS_6SlicerELm32EEE@Base 3.2.1-1kern1
 _ZTIN8casacore18casacore_allocatorIPvLm32EEE@Base 3.2.1-1kern1
 _ZTIN8casacore18casacore_allocatorIbLm32EEE@Base 3.2.1-1kern1
 _ZTIN8casacore18casacore_allocatorIdLm32EEE@Base 3.2.1-1kern1
 _ZTIN8casacore18casacore_allocatorIiLm32EEE@Base 3.2.1-1kern1
 _ZTIN8casacore18casacore_allocatorIjLm32EEE@Base 3.2.1-1kern1
 _ZTIN8casacore19DirectionCoordinateE@Base 3.2.1-1kern1
 _ZTIN8casacore23ScalarSampledFunctionalIdEE@Base 3.2.1-1kern1
 _ZTIN8casacore5ArrayINS_7QuantumIdEEEE@Base 3.2.1-1kern1
 _ZTIN8casacore6VectorINS_7QuantumIdEEEE@Base 3.2.1-1kern1
 _ZTIN8casacore7MeasRefINS_10MDirectionEEE@Base 3.2.1-1kern1
 _ZTIN8casacore7MeasRefINS_10MFrequencyEEE@Base 3.2.1-1kern1
 _ZTIN8casacore7MeasRefINS_6MEpochEEE@Base 3.2.1-1kern1
 _ZTIN8casacore7MeasRefINS_8MDopplerEEE@Base 3.2.1-1kern1
 _ZTIN8casacore7MeasRefINS_9MPositionEEE@Base 3.2.1-1kern1
 _ZTIN8casacore7ObsInfoE@Base 3.2.1-1kern1
 _ZTIN8casacore7QuantumINS_6VectorIdEEEE@Base 3.2.1-1kern1
 _ZTIN8casacore8FunctionIddEE@Base 3.2.1-1kern1
 _ZTIN8casacore8MeasBaseINS_11MVDirectionENS_7MeasRefINS_10MDirectionEEEEE@Base 3.2.1-1kern1
 _ZTIN8casacore8MeasBaseINS_11MVFrequencyENS_7MeasRefINS_10MFrequencyEEEEE@Base 3.2.1-1kern1
 _ZTIN8casacore8MeasBaseINS_7MVEpochENS_7MeasRefINS_6MEpochEEEEE@Base 3.2.1-1kern1
 _ZTIN9__gnu_cxx13new_allocatorIN8casacore6Stokes11StokesTypesEEE@Base 3.2.1-1kern1
 _ZTIN9__gnu_cxx13new_allocatorIN8casacore7QuantumIdEEEE@Base 3.2.1-1kern1
 _ZTIN9__gnu_cxx13new_allocatorIPN8casacore6SlicerEEE@Base 3.2.1-1kern1
 _ZTIN9__gnu_cxx13new_allocatorIPvEE@Base 3.2.1-1kern1
 _ZTIN9__gnu_cxx13new_allocatorIbEE@Base 3.2.1-1kern1
 _ZTIN9__gnu_cxx13new_allocatorIdEE@Base 3.2.1-1kern1
 _ZTIN9__gnu_cxx13new_allocatorIiEE@Base 3.2.1-1kern1
 _ZTIN9__gnu_cxx13new_allocatorIjEE@Base 3.2.1-1kern1
 _ZTISaIN8casacore6Stokes11StokesTypesEE@Base 3.2.1-1kern1
 _ZTISaIN8casacore7QuantumIdEEE@Base 3.2.1-1kern1
 _ZTISaIPN8casacore6SlicerEE@Base 3.2.1-1kern1
 _ZTISaIPvE@Base 3.2.1-1kern1
 _ZTISaIbE@Base 3.2.1-1kern1
 _ZTISaIdE@Base 3.2.1-1kern1
 _ZTISaIiE@Base 3.2.1-1kern1
 _ZTISaIjE@Base 3.2.1-1kern1
 _ZTISt11_Mutex_baseILN9__gnu_cxx12_Lock_policyE2EE@Base 3.2.1-1kern1
 _ZTISt15_Sp_counted_ptrIPN8casacore5BlockINS0_7QuantumIdEEEELN9__gnu_cxx12_Lock_policyE2EE@Base 3.2.1-1kern1
 _ZTISt15_Sp_counted_ptrIPN8casacore7MeasRefINS0_10MDirectionEE6RefRepELN9__gnu_cxx12_Lock_policyE2EE@Base 3.2.1-1kern1
 _ZTISt15_Sp_counted_ptrIPN8casacore7MeasRefINS0_10MFrequencyEE6RefRepELN9__gnu_cxx12_Lock_policyE2EE@Base 3.2.1-1kern1
 _ZTISt15_Sp_counted_ptrIPN8casacore7MeasRefINS0_6MEpochEE6RefRepELN9__gnu_cxx12_Lock_policyE2EE@Base 3.2.1-1kern1
 _ZTISt15_Sp_counted_ptrIPN8casacore7MeasRefINS0_8MDopplerEE6RefRepELN9__gnu_cxx12_Lock_policyE2EE@Base 3.2.1-1kern1
 _ZTISt15_Sp_counted_ptrIPN8casacore7MeasRefINS0_9MPositionEE6RefRepELN9__gnu_cxx12_Lock_policyE2EE@Base 3.2.1-1kern1
 _ZTISt16_Sp_counted_baseILN9__gnu_cxx12_Lock_policyE2EE@Base 3.2.1-1kern1
 _ZTISt19_Sp_counted_deleterIPN8casacore21ArrayPositionIteratorENS0_10CountedPtrIS1_E7DeleterIS1_EESaIvELN9__gnu_cxx12_Lock_policyE2EE@Base 3.2.1-1kern1
 _ZTISt19_Sp_counted_deleterIPN8casacore5BlockINS0_7QuantumIdEEEENS0_10CountedPtrIS4_E7DeleterIS4_EESaIvELN9__gnu_cxx12_Lock_policyE2EE@Base 3.2.1-1kern1
 _ZTISt19_Sp_counted_deleterIPN8casacore9ArrayBaseENS0_10CountedPtrIS1_E7DeleterIS1_EESaIvELN9__gnu_cxx12_Lock_policyE2EE@Base 3.2.1-1kern1
 _ZTSN8casacore10CoordinateE@Base 3.2.1-1kern1
 _ZTSN8casacore10CountedPtrINS_21ArrayPositionIteratorEE7DeleterIS1_EE@Base 3.2.1-1kern1
 _ZTSN8casacore10CountedPtrINS_5BlockINS_7QuantumIdEEEEE7DeleterIS4_EE@Base 3.2.1-1kern1
 _ZTSN8casacore10CountedPtrINS_9ArrayBaseEE7DeleterIS1_EE@Base 3.2.1-1kern1
 _ZTSN8casacore10Function1DIddEE@Base 3.2.1-1kern1
 _ZTSN8casacore10FunctionalINS_6VectorIdEEdEE@Base 3.2.1-1kern1
 _ZTSN8casacore10FunctionalIddEE@Base 3.2.1-1kern1
 _ZTSN8casacore10FunctionalIjdEE@Base 3.2.1-1kern1
 _ZTSN8casacore11MeasConvertINS_10MDirectionEEE@Base 3.2.1-1kern1
 _ZTSN8casacore11MeasConvertINS_10MFrequencyEEE@Base 3.2.1-1kern1
 _ZTSN8casacore11MeasConvertINS_9MPositionEEE@Base 3.2.1-1kern1
 _ZTSN8casacore13ArrayIteratorINS_7QuantumIdEEEE@Base 3.2.1-1kern1
 _ZTSN8casacore13BaseAllocatorINS_6Stokes11StokesTypesENS_15NewDelAllocatorIS2_EEEE@Base 3.2.1-1kern1
 _ZTSN8casacore13BaseAllocatorINS_6Stokes11StokesTypesENS_16AlignedAllocatorIS2_Lm32EEEEE@Base 3.2.1-1kern1
 _ZTSN8casacore13BaseAllocatorINS_7QuantumIdEENS_15NewDelAllocatorIS2_EEEE@Base 3.2.1-1kern1
 _ZTSN8casacore13BaseAllocatorINS_7QuantumIdEENS_16AlignedAllocatorIS2_Lm32EEEEE@Base 3.2.1-1kern1
 _ZTSN8casacore13BaseAllocatorIPNS_6SlicerENS_15NewDelAllocatorIS2_EEEE@Base 3.2.1-1kern1
 _ZTSN8casacore13BaseAllocatorIPNS_6SlicerENS_16AlignedAllocatorIS2_Lm32EEEEE@Base 3.2.1-1kern1
 _ZTSN8casacore13FunctionParamIdEE@Base 3.2.1-1kern1
 _ZTSN8casacore13Interpolate1DIddEE@Base 3.2.1-1kern1
 _ZTSN8casacore15NewDelAllocatorINS_6Stokes11StokesTypesEEE@Base 3.2.1-1kern1
 _ZTSN8casacore15NewDelAllocatorINS_7QuantumIdEEEE@Base 3.2.1-1kern1
 _ZTSN8casacore15NewDelAllocatorIPNS_6SlicerEEE@Base 3.2.1-1kern1
 _ZTSN8casacore16AlignedAllocatorINS_6Stokes11StokesTypesELm32EEE@Base 3.2.1-1kern1
 _ZTSN8casacore16AlignedAllocatorINS_7QuantumIdEELm32EEE@Base 3.2.1-1kern1
 _ZTSN8casacore16AlignedAllocatorIPNS_6SlicerELm32EEE@Base 3.2.1-1kern1
 _ZTSN8casacore16CoordinateSystemE@Base 3.2.1-1kern1
 _ZTSN8casacore16DefaultAllocatorINS_6Stokes11StokesTypesEEE@Base 3.2.1-1kern1
 _ZTSN8casacore16DefaultAllocatorINS_7QuantumIdEEEE@Base 3.2.1-1kern1
 _ZTSN8casacore16DefaultAllocatorIPNS_6SlicerEEE@Base 3.2.1-1kern1
 _ZTSN8casacore16LinearCoordinateE@Base 3.2.1-1kern1
 _ZTSN8casacore16StokesCoordinateE@Base 3.2.1-1kern1
 _ZTSN8casacore17AbstractAllocatorINS_6Stokes11StokesTypesEEE@Base 3.2.1-1kern1
 _ZTSN8casacore17AbstractAllocatorINS_7QuantumIdEEEE@Base 3.2.1-1kern1
 _ZTSN8casacore17AbstractAllocatorIPNS_6SlicerEEE@Base 3.2.1-1kern1
 _ZTSN8casacore17Allocator_private13BulkAllocatorINS_6Stokes11StokesTypesEEE@Base 3.2.1-1kern1
 _ZTSN8casacore17Allocator_private13BulkAllocatorINS_7QuantumIdEEEE@Base 3.2.1-1kern1
 _ZTSN8casacore17Allocator_private13BulkAllocatorIPNS_6SlicerEEE@Base 3.2.1-1kern1
 _ZTSN8casacore17Allocator_private13BulkAllocatorIPvEE@Base 3.2.1-1kern1
 _ZTSN8casacore17Allocator_private13BulkAllocatorIbEE@Base 3.2.1-1kern1
 _ZTSN8casacore17Allocator_private13BulkAllocatorIdEE@Base 3.2.1-1kern1
 _ZTSN8casacore17Allocator_private13BulkAllocatorIiEE@Base 3.2.1-1kern1
 _ZTSN8casacore17Allocator_private13BulkAllocatorIjEE@Base 3.2.1-1kern1
 _ZTSN8casacore17Allocator_private17BulkAllocatorImplINS_17new_del_allocatorINS_6Stokes11StokesTypesEEEEE@Base 3.2.1-1kern1
 _ZTSN8casacore17Allocator_private17BulkAllocatorImplINS_17new_del_allocatorINS_7QuantumIdEEEEEE@Base 3.2.1-1kern1
 _ZTSN8casacore17Allocator_private17BulkAllocatorImplINS_17new_del_allocatorIPNS_6SlicerEEEEE@Base 3.2.1-1kern1
 _ZTSN8casacore17Allocator_private17BulkAllocatorImplINS_18casacore_allocatorINS_6Stokes11StokesTypesELm32EEEEE@Base 3.2.1-1kern1
 _ZTSN8casacore17Allocator_private17BulkAllocatorImplINS_18casacore_allocatorINS_7QuantumIdEELm32EEEEE@Base 3.2.1-1kern1
 _ZTSN8casacore17Allocator_private17BulkAllocatorImplINS_18casacore_allocatorIPNS_6SlicerELm32EEEEE@Base 3.2.1-1kern1
 _ZTSN8casacore17Allocator_private17BulkAllocatorImplINS_18casacore_allocatorIPvLm32EEEEE@Base 3.2.1-1kern1
 _ZTSN8casacore17Allocator_private17BulkAllocatorImplINS_18casacore_allocatorIbLm32EEEEE@Base 3.2.1-1kern1
 _ZTSN8casacore17Allocator_private17BulkAllocatorImplINS_18casacore_allocatorIdLm32EEEEE@Base 3.2.1-1kern1
 _ZTSN8casacore17Allocator_private17BulkAllocatorImplINS_18casacore_allocatorIiLm32EEEEE@Base 3.2.1-1kern1
 _ZTSN8casacore17Allocator_private17BulkAllocatorImplINS_18casacore_allocatorIjLm32EEEEE@Base 3.2.1-1kern1
 _ZTSN8casacore17QualityCoordinateE@Base 3.2.1-1kern1
 _ZTSN8casacore17SampledFunctionalIdEE@Base 3.2.1-1kern1
 _ZTSN8casacore17TabularCoordinateE@Base 3.2.1-1kern1
 _ZTSN8casacore17new_del_allocatorINS_6Stokes11StokesTypesEEE@Base 3.2.1-1kern1
 _ZTSN8casacore17new_del_allocatorINS_7QuantumIdEEEE@Base 3.2.1-1kern1
 _ZTSN8casacore17new_del_allocatorIPNS_6SlicerEEE@Base 3.2.1-1kern1
 _ZTSN8casacore18SpectralCoordinateE@Base 3.2.1-1kern1
 _ZTSN8casacore18casacore_allocatorINS_6Stokes11StokesTypesELm32EEE@Base 3.2.1-1kern1
 _ZTSN8casacore18casacore_allocatorINS_7QuantumIdEELm32EEE@Base 3.2.1-1kern1
 _ZTSN8casacore18casacore_allocatorIPNS_6SlicerELm32EEE@Base 3.2.1-1kern1
 _ZTSN8casacore18casacore_allocatorIPvLm32EEE@Base 3.2.1-1kern1
 _ZTSN8casacore18casacore_allocatorIbLm32EEE@Base 3.2.1-1kern1
 _ZTSN8casacore18casacore_allocatorIdLm32EEE@Base 3.2.1-1kern1
 _ZTSN8casacore18casacore_allocatorIiLm32EEE@Base 3.2.1-1kern1
 _ZTSN8casacore18casacore_allocatorIjLm32EEE@Base 3.2.1-1kern1
 _ZTSN8casacore19DirectionCoordinateE@Base 3.2.1-1kern1
 _ZTSN8casacore23ScalarSampledFunctionalIdEE@Base 3.2.1-1kern1
 _ZTSN8casacore5ArrayINS_7QuantumIdEEEE@Base 3.2.1-1kern1
 _ZTSN8casacore6VectorINS_7QuantumIdEEEE@Base 3.2.1-1kern1
 _ZTSN8casacore7MeasRefINS_10MDirectionEEE@Base 3.2.1-1kern1
 _ZTSN8casacore7MeasRefINS_10MFrequencyEEE@Base 3.2.1-1kern1
 _ZTSN8casacore7MeasRefINS_6MEpochEEE@Base 3.2.1-1kern1
 _ZTSN8casacore7MeasRefINS_8MDopplerEEE@Base 3.2.1-1kern1
 _ZTSN8casacore7MeasRefINS_9MPositionEEE@Base 3.2.1-1kern1
 _ZTSN8casacore7ObsInfoE@Base 3.2.1-1kern1
 _ZTSN8casacore7QuantumINS_6VectorIdEEEE@Base 3.2.1-1kern1
 _ZTSN8casacore8FunctionIddEE@Base 3.2.1-1kern1
 _ZTSN8casacore8MeasBaseINS_11MVDirectionENS_7MeasRefINS_10MDirectionEEEEE@Base 3.2.1-1kern1
 _ZTSN8casacore8MeasBaseINS_11MVFrequencyENS_7MeasRefINS_10MFrequencyEEEEE@Base 3.2.1-1kern1
 _ZTSN8casacore8MeasBaseINS_7MVEpochENS_7MeasRefINS_6MEpochEEEEE@Base 3.2.1-1kern1
 _ZTSN9__gnu_cxx13new_allocatorIN8casacore6Stokes11StokesTypesEEE@Base 3.2.1-1kern1
 _ZTSN9__gnu_cxx13new_allocatorIN8casacore7QuantumIdEEEE@Base 3.2.1-1kern1
 _ZTSN9__gnu_cxx13new_allocatorIPN8casacore6SlicerEEE@Base 3.2.1-1kern1
 _ZTSN9__gnu_cxx13new_allocatorIPvEE@Base 3.2.1-1kern1
 _ZTSN9__gnu_cxx13new_allocatorIbEE@Base 3.2.1-1kern1
 _ZTSN9__gnu_cxx13new_allocatorIdEE@Base 3.2.1-1kern1
 _ZTSN9__gnu_cxx13new_allocatorIiEE@Base 3.2.1-1kern1
 _ZTSN9__gnu_cxx13new_allocatorIjEE@Base 3.2.1-1kern1
 _ZTSSaIN8casacore6Stokes11StokesTypesEE@Base 3.2.1-1kern1
 _ZTSSaIN8casacore7QuantumIdEEE@Base 3.2.1-1kern1
 _ZTSSaIPN8casacore6SlicerEE@Base 3.2.1-1kern1
 _ZTSSaIPvE@Base 3.2.1-1kern1
 _ZTSSaIbE@Base 3.2.1-1kern1
 _ZTSSaIdE@Base 3.2.1-1kern1
 _ZTSSaIiE@Base 3.2.1-1kern1
 _ZTSSaIjE@Base 3.2.1-1kern1
 _ZTSSt11_Mutex_baseILN9__gnu_cxx12_Lock_policyE2EE@Base 3.2.1-1kern1
 _ZTSSt15_Sp_counted_ptrIPN8casacore5BlockINS0_7QuantumIdEEEELN9__gnu_cxx12_Lock_policyE2EE@Base 3.2.1-1kern1
 _ZTSSt15_Sp_counted_ptrIPN8casacore7MeasRefINS0_10MDirectionEE6RefRepELN9__gnu_cxx12_Lock_policyE2EE@Base 3.2.1-1kern1
 _ZTSSt15_Sp_counted_ptrIPN8casacore7MeasRefINS0_10MFrequencyEE6RefRepELN9__gnu_cxx12_Lock_policyE2EE@Base 3.2.1-1kern1
 _ZTSSt15_Sp_counted_ptrIPN8casacore7MeasRefINS0_6MEpochEE6RefRepELN9__gnu_cxx12_Lock_policyE2EE@Base 3.2.1-1kern1
 _ZTSSt15_Sp_counted_ptrIPN8casacore7MeasRefINS0_8MDopplerEE6RefRepELN9__gnu_cxx12_Lock_policyE2EE@Base 3.2.1-1kern1
 _ZTSSt15_Sp_counted_ptrIPN8casacore7MeasRefINS0_9MPositionEE6RefRepELN9__gnu_cxx12_Lock_policyE2EE@Base 3.2.1-1kern1
 _ZTSSt16_Sp_counted_baseILN9__gnu_cxx12_Lock_policyE2EE@Base 3.2.1-1kern1
 _ZTSSt19_Sp_counted_deleterIPN8casacore21ArrayPositionIteratorENS0_10CountedPtrIS1_E7DeleterIS1_EESaIvELN9__gnu_cxx12_Lock_policyE2EE@Base 3.2.1-1kern1
 _ZTSSt19_Sp_counted_deleterIPN8casacore5BlockINS0_7QuantumIdEEEENS0_10CountedPtrIS4_E7DeleterIS4_EESaIvELN9__gnu_cxx12_Lock_policyE2EE@Base 3.2.1-1kern1
 _ZTSSt19_Sp_counted_deleterIPN8casacore9ArrayBaseENS0_10CountedPtrIS1_E7DeleterIS1_EESaIvELN9__gnu_cxx12_Lock_policyE2EE@Base 3.2.1-1kern1
 _ZTVN8casacore10CoordinateE@Base 3.2.1-1kern1
 _ZTVN8casacore11MeasConvertINS_10MDirectionEEE@Base 3.2.1-1kern1
 _ZTVN8casacore11MeasConvertINS_10MFrequencyEEE@Base 3.2.1-1kern1
 _ZTVN8casacore11MeasConvertINS_9MPositionEEE@Base 3.2.1-1kern1
 _ZTVN8casacore13ArrayIteratorINS_7QuantumIdEEEE@Base 3.2.1-1kern1
 _ZTVN8casacore13FunctionParamIdEE@Base 3.2.1-1kern1
 _ZTVN8casacore13Interpolate1DIddEE@Base 3.2.1-1kern1
 _ZTVN8casacore15NewDelAllocatorINS_6Stokes11StokesTypesEEE@Base 3.2.1-1kern1
 _ZTVN8casacore15NewDelAllocatorINS_7QuantumIdEEEE@Base 3.2.1-1kern1
 _ZTVN8casacore15NewDelAllocatorIPNS_6SlicerEEE@Base 3.2.1-1kern1
 _ZTVN8casacore16CoordinateSystemE@Base 3.2.1-1kern1
 _ZTVN8casacore16DefaultAllocatorINS_6Stokes11StokesTypesEEE@Base 3.2.1-1kern1
 _ZTVN8casacore16DefaultAllocatorINS_7QuantumIdEEEE@Base 3.2.1-1kern1
 _ZTVN8casacore16DefaultAllocatorIPNS_6SlicerEEE@Base 3.2.1-1kern1
 _ZTVN8casacore16LinearCoordinateE@Base 3.2.1-1kern1
 _ZTVN8casacore16StokesCoordinateE@Base 3.2.1-1kern1
 _ZTVN8casacore17Allocator_private17BulkAllocatorImplINS_17new_del_allocatorINS_6Stokes11StokesTypesEEEEE@Base 3.2.1-1kern1
 _ZTVN8casacore17Allocator_private17BulkAllocatorImplINS_17new_del_allocatorINS_7QuantumIdEEEEEE@Base 3.2.1-1kern1
 _ZTVN8casacore17Allocator_private17BulkAllocatorImplINS_17new_del_allocatorIPNS_6SlicerEEEEE@Base 3.2.1-1kern1
 _ZTVN8casacore17Allocator_private17BulkAllocatorImplINS_18casacore_allocatorINS_6Stokes11StokesTypesELm32EEEEE@Base 3.2.1-1kern1
 _ZTVN8casacore17Allocator_private17BulkAllocatorImplINS_18casacore_allocatorINS_7QuantumIdEELm32EEEEE@Base 3.2.1-1kern1
 _ZTVN8casacore17Allocator_private17BulkAllocatorImplINS_18casacore_allocatorIPNS_6SlicerELm32EEEEE@Base 3.2.1-1kern1
 _ZTVN8casacore17Allocator_private17BulkAllocatorImplINS_18casacore_allocatorIPvLm32EEEEE@Base 3.2.1-1kern1
 _ZTVN8casacore17Allocator_private17BulkAllocatorImplINS_18casacore_allocatorIbLm32EEEEE@Base 3.2.1-1kern1
 _ZTVN8casacore17Allocator_private17BulkAllocatorImplINS_18casacore_allocatorIdLm32EEEEE@Base 3.2.1-1kern1
 _ZTVN8casacore17Allocator_private17BulkAllocatorImplINS_18casacore_allocatorIiLm32EEEEE@Base 3.2.1-1kern1
 _ZTVN8casacore17Allocator_private17BulkAllocatorImplINS_18casacore_allocatorIjLm32EEEEE@Base 3.2.1-1kern1
 _ZTVN8casacore17QualityCoordinateE@Base 3.2.1-1kern1
 _ZTVN8casacore17TabularCoordinateE@Base 3.2.1-1kern1
 _ZTVN8casacore18SpectralCoordinateE@Base 3.2.1-1kern1
 _ZTVN8casacore19DirectionCoordinateE@Base 3.2.1-1kern1
 _ZTVN8casacore23ScalarSampledFunctionalIdEE@Base 3.2.1-1kern1
 _ZTVN8casacore5ArrayINS_7QuantumIdEEEE@Base 3.2.1-1kern1
 _ZTVN8casacore6VectorINS_7QuantumIdEEEE@Base 3.2.1-1kern1
 _ZTVN8casacore7MeasRefINS_10MDirectionEEE@Base 3.2.1-1kern1
 _ZTVN8casacore7MeasRefINS_10MFrequencyEEE@Base 3.2.1-1kern1
 _ZTVN8casacore7MeasRefINS_6MEpochEEE@Base 3.2.1-1kern1
 _ZTVN8casacore7MeasRefINS_8MDopplerEEE@Base 3.2.1-1kern1
 _ZTVN8casacore7MeasRefINS_9MPositionEEE@Base 3.2.1-1kern1
 _ZTVN8casacore7ObsInfoE@Base 3.2.1-1kern1
 _ZTVN8casacore7QuantumINS_6VectorIdEEEE@Base 3.2.1-1kern1
 _ZTVN8casacore8FunctionIddEE@Base 3.2.1-1kern1
 _ZTVN8casacore8MeasBaseINS_11MVDirectionENS_7MeasRefINS_10MDirectionEEEEE@Base 3.2.1-1kern1
 _ZTVN8casacore8MeasBaseINS_11MVFrequencyENS_7MeasRefINS_10MFrequencyEEEEE@Base 3.2.1-1kern1
 _ZTVN8casacore8MeasBaseINS_7MVEpochENS_7MeasRefINS_6MEpochEEEEE@Base 3.2.1-1kern1
 _ZTVSt15_Sp_counted_ptrIPN8casacore5BlockINS0_7QuantumIdEEEELN9__gnu_cxx12_Lock_policyE2EE@Base 3.2.1-1kern1
 _ZTVSt15_Sp_counted_ptrIPN8casacore7MeasRefINS0_10MDirectionEE6RefRepELN9__gnu_cxx12_Lock_policyE2EE@Base 3.2.1-1kern1
 _ZTVSt15_Sp_counted_ptrIPN8casacore7MeasRefINS0_10MFrequencyEE6RefRepELN9__gnu_cxx12_Lock_policyE2EE@Base 3.2.1-1kern1
 _ZTVSt15_Sp_counted_ptrIPN8casacore7MeasRefINS0_6MEpochEE6RefRepELN9__gnu_cxx12_Lock_policyE2EE@Base 3.2.1-1kern1
 _ZTVSt15_Sp_counted_ptrIPN8casacore7MeasRefINS0_8MDopplerEE6RefRepELN9__gnu_cxx12_Lock_policyE2EE@Base 3.2.1-1kern1
 _ZTVSt15_Sp_counted_ptrIPN8casacore7MeasRefINS0_9MPositionEE6RefRepELN9__gnu_cxx12_Lock_policyE2EE@Base 3.2.1-1kern1
 _ZTVSt19_Sp_counted_deleterIPN8casacore21ArrayPositionIteratorENS0_10CountedPtrIS1_E7DeleterIS1_EESaIvELN9__gnu_cxx12_Lock_policyE2EE@Base 3.2.1-1kern1
 _ZTVSt19_Sp_counted_deleterIPN8casacore5BlockINS0_7QuantumIdEEEENS0_10CountedPtrIS4_E7DeleterIS4_EESaIvELN9__gnu_cxx12_Lock_policyE2EE@Base 3.2.1-1kern1
 _ZTVSt19_Sp_counted_deleterIPN8casacore9ArrayBaseENS0_10CountedPtrIS1_E7DeleterIS1_EESaIvELN9__gnu_cxx12_Lock_policyE2EE@Base 3.2.1-1kern1
 _ZThn8_N8casacore13Interpolate1DIddED0Ev@Base 3.2.1-1kern1
 _ZThn8_N8casacore13Interpolate1DIddED1Ev@Base 3.2.1-1kern1
 _ZThn8_NK8casacore8FunctionIddEclERKNS_6VectorIdEE@Base 3.2.1-1kern1
 _ZZN8casacore17Allocator_private17get_allocator_rawINS_17new_del_allocatorINS_6Stokes11StokesTypesEEEEEPNS0_17BulkAllocatorImplIT_EEvE3ptr@Base 3.2.1-1kern1
 _ZZN8casacore17Allocator_private17get_allocator_rawINS_17new_del_allocatorINS_6Stokes11StokesTypesEEEEEPNS0_17BulkAllocatorImplIT_EEvE7storage@Base 3.2.1-1kern1
 _ZZN8casacore17Allocator_private17get_allocator_rawINS_17new_del_allocatorINS_7QuantumIdEEEEEEPNS0_17BulkAllocatorImplIT_EEvE3ptr@Base 3.2.1-1kern1
 _ZZN8casacore17Allocator_private17get_allocator_rawINS_17new_del_allocatorINS_7QuantumIdEEEEEEPNS0_17BulkAllocatorImplIT_EEvE7storage@Base 3.2.1-1kern1
 _ZZN8casacore17Allocator_private17get_allocator_rawINS_17new_del_allocatorIPNS_6SlicerEEEEEPNS0_17BulkAllocatorImplIT_EEvE3ptr@Base 3.2.1-1kern1
 _ZZN8casacore17Allocator_private17get_allocator_rawINS_17new_del_allocatorIPNS_6SlicerEEEEEPNS0_17BulkAllocatorImplIT_EEvE7storage@Base 3.2.1-1kern1
 _ZZN8casacore17Allocator_private17get_allocator_rawINS_18casacore_allocatorINS_6Stokes11StokesTypesELm32EEEEEPNS0_17BulkAllocatorImplIT_EEvE3ptr@Base 3.2.1-1kern1
 _ZZN8casacore17Allocator_private17get_allocator_rawINS_18casacore_allocatorINS_6Stokes11StokesTypesELm32EEEEEPNS0_17BulkAllocatorImplIT_EEvE7storage@Base 3.2.1-1kern1
 _ZZN8casacore17Allocator_private17get_allocator_rawINS_18casacore_allocatorINS_7QuantumIdEELm32EEEEEPNS0_17BulkAllocatorImplIT_EEvE3ptr@Base 3.2.1-1kern1
 _ZZN8casacore17Allocator_private17get_allocator_rawINS_18casacore_allocatorINS_7QuantumIdEELm32EEEEEPNS0_17BulkAllocatorImplIT_EEvE7storage@Base 3.2.1-1kern1
 _ZZN8casacore17Allocator_private17get_allocator_rawINS_18casacore_allocatorIPNS_6SlicerELm32EEEEEPNS0_17BulkAllocatorImplIT_EEvE3ptr@Base 3.2.1-1kern1
 _ZZN8casacore17Allocator_private17get_allocator_rawINS_18casacore_allocatorIPNS_6SlicerELm32EEEEEPNS0_17BulkAllocatorImplIT_EEvE7storage@Base 3.2.1-1kern1
 _ZZN8casacore17Allocator_private17get_allocator_rawINS_18casacore_allocatorIPvLm32EEEEEPNS0_17BulkAllocatorImplIT_EEvE3ptr@Base 3.2.1-1kern1
 _ZZN8casacore17Allocator_private17get_allocator_rawINS_18casacore_allocatorIPvLm32EEEEEPNS0_17BulkAllocatorImplIT_EEvE7storage@Base 3.2.1-1kern1
 _ZZN8casacore17Allocator_private17get_allocator_rawINS_18casacore_allocatorIbLm32EEEEEPNS0_17BulkAllocatorImplIT_EEvE3ptr@Base 3.2.1-1kern1
 _ZZN8casacore17Allocator_private17get_allocator_rawINS_18casacore_allocatorIbLm32EEEEEPNS0_17BulkAllocatorImplIT_EEvE7storage@Base 3.2.1-1kern1
 _ZZN8casacore17Allocator_private17get_allocator_rawINS_18casacore_allocatorIdLm32EEEEEPNS0_17BulkAllocatorImplIT_EEvE3ptr@Base 3.2.1-1kern1
 _ZZN8casacore17Allocator_private17get_allocator_rawINS_18casacore_allocatorIdLm32EEEEEPNS0_17BulkAllocatorImplIT_EEvE7storage@Base 3.2.1-1kern1
 _ZZN8casacore17Allocator_private17get_allocator_rawINS_18casacore_allocatorIiLm32EEEEEPNS0_17BulkAllocatorImplIT_EEvE3ptr@Base 3.2.1-1kern1
 _ZZN8casacore17Allocator_private17get_allocator_rawINS_18casacore_allocatorIiLm32EEEEEPNS0_17BulkAllocatorImplIT_EEvE7storage@Base 3.2.1-1kern1
 _ZZN8casacore17Allocator_private17get_allocator_rawINS_18casacore_allocatorIjLm32EEEEEPNS0_17BulkAllocatorImplIT_EEvE3ptr@Base 3.2.1-1kern1
 _ZZN8casacore17Allocator_private17get_allocator_rawINS_18casacore_allocatorIjLm32EEEEEPNS0_17BulkAllocatorImplIT_EEvE7storage@Base 3.2.1-1kern1
 _ZZN8casacore2QC2HIEvE6result@Base 3.2.1-1kern1
 _ZZN8casacore7assert_INS_9AipsErrorEEC4EPKvPKcS6_iE7message@Base 3.2.1-1kern1
 _ZZN8casacore7assert_INS_9AipsErrorEEC4EiPKcS4_iE7message@Base 3.2.1-1kern1
 _ZZNK8casacore13Interpolate1DIddE4nameEvE1x@Base 3.2.1-1kern1
 _ZZNK8casacore8FunctionIddE4nameEvE1x@Base 3.2.1-1kern1
