libcasa_ms.so.4 libcasa-ms4 #MINVER#
 MSAntennaGramNegate@Base 3.2.1-1kern1
 MSAntennaGram_flex_debug@Base 3.2.1-1kern1
 MSAntennaGramin@Base 3.2.1-1kern1
 MSAntennaGramleng@Base 3.2.1-1kern1
 MSAntennaGramlineno@Base 3.2.1-1kern1
 MSAntennaGramout@Base 3.2.1-1kern1
 MSAntennaGramtext@Base 3.2.1-1kern1
 MSAntennaGramwrap@Base 3.2.1-1kern1
 MSArrayGram_flex_debug@Base 3.2.1-1kern1
 MSArrayGramin@Base 3.2.1-1kern1
 MSArrayGramleng@Base 3.2.1-1kern1
 MSArrayGramlineno@Base 3.2.1-1kern1
 MSArrayGramout@Base 3.2.1-1kern1
 MSArrayGramtext@Base 3.2.1-1kern1
 MSArrayGramwrap@Base 3.2.1-1kern1
 MSCorrGram_flex_debug@Base 3.2.1-1kern1
 MSCorrGramin@Base 3.2.1-1kern1
 MSCorrGramleng@Base 3.2.1-1kern1
 MSCorrGramlineno@Base 3.2.1-1kern1
 MSCorrGramout@Base 3.2.1-1kern1
 MSCorrGramtext@Base 3.2.1-1kern1
 MSCorrGramwrap@Base 3.2.1-1kern1
 MSFeedGramNegate@Base 3.2.1-1kern1
 MSFeedGram_flex_debug@Base 3.2.1-1kern1
 MSFeedGramin@Base 3.2.1-1kern1
 MSFeedGramleng@Base 3.2.1-1kern1
 MSFeedGramlineno@Base 3.2.1-1kern1
 MSFeedGramout@Base 3.2.1-1kern1
 MSFeedGramtext@Base 3.2.1-1kern1
 MSFeedGramwrap@Base 3.2.1-1kern1
 MSFieldGram_flex_debug@Base 3.2.1-1kern1
 MSFieldGramin@Base 3.2.1-1kern1
 MSFieldGramleng@Base 3.2.1-1kern1
 MSFieldGramlineno@Base 3.2.1-1kern1
 MSFieldGramout@Base 3.2.1-1kern1
 MSFieldGramtext@Base 3.2.1-1kern1
 MSFieldGramwrap@Base 3.2.1-1kern1
 MSObservationGram_flex_debug@Base 3.2.1-1kern1
 MSObservationGramin@Base 3.2.1-1kern1
 MSObservationGramleng@Base 3.2.1-1kern1
 MSObservationGramlineno@Base 3.2.1-1kern1
 MSObservationGramout@Base 3.2.1-1kern1
 MSObservationGramtext@Base 3.2.1-1kern1
 MSObservationGramwrap@Base 3.2.1-1kern1
 MSScanGram_flex_debug@Base 3.2.1-1kern1
 MSScanGramin@Base 3.2.1-1kern1
 MSScanGramleng@Base 3.2.1-1kern1
 MSScanGramlineno@Base 3.2.1-1kern1
 MSScanGramout@Base 3.2.1-1kern1
 MSScanGramtext@Base 3.2.1-1kern1
 MSScanGramwrap@Base 3.2.1-1kern1
 MSSpwGram_flex_debug@Base 3.2.1-1kern1
 MSSpwGramin@Base 3.2.1-1kern1
 MSSpwGramleng@Base 3.2.1-1kern1
 MSSpwGramlineno@Base 3.2.1-1kern1
 MSSpwGramout@Base 3.2.1-1kern1
 MSSpwGramtext@Base 3.2.1-1kern1
 MSSpwGramwrap@Base 3.2.1-1kern1
 MSStateGram_flex_debug@Base 3.2.1-1kern1
 MSStateGramin@Base 3.2.1-1kern1
 MSStateGramleng@Base 3.2.1-1kern1
 MSStateGramlineno@Base 3.2.1-1kern1
 MSStateGramout@Base 3.2.1-1kern1
 MSStateGramtext@Base 3.2.1-1kern1
 MSStateGramwrap@Base 3.2.1-1kern1
 MSTimeEdgeBuffer@Base 3.2.1-1kern1
 MSTimeEdgeInclusiveRange@Base 3.2.1-1kern1
 MSTimeGram_flex_debug@Base 3.2.1-1kern1
 MSTimeGramin@Base 3.2.1-1kern1
 MSTimeGramleng@Base 3.2.1-1kern1
 MSTimeGramlineno@Base 3.2.1-1kern1
 MSTimeGramout@Base 3.2.1-1kern1
 MSTimeGramtext@Base 3.2.1-1kern1
 MSTimeGramwrap@Base 3.2.1-1kern1
 MSUvDistGram_flex_debug@Base 3.2.1-1kern1
 MSUvDistGramin@Base 3.2.1-1kern1
 MSUvDistGramleng@Base 3.2.1-1kern1
 MSUvDistGramlexGlobalUnits@Base 3.2.1-1kern1
 MSUvDistGramlineno@Base 3.2.1-1kern1
 MSUvDistGramout@Base 3.2.1-1kern1
 MSUvDistGramtext@Base 3.2.1-1kern1
 MSUvDistGramwrap@Base 3.2.1-1kern1
 _Z11reportErrorPcN8casacore6StringE@Base 3.2.1-1kern1
 _Z12MSSpwGramlexP7YYSTYPE@Base 3.2.1-1kern1
 _Z13MSCorrGramlexP7YYSTYPE@Base 3.2.1-1kern1
 _Z13MSFeedGramlexP7YYSTYPE@Base 3.2.1-1kern1
 _Z13MSScanGramlexP7YYSTYPE@Base 3.2.1-1kern1
 _Z13MSSpwGramfreePv@Base 3.2.1-1kern1
 _Z13MSTimeGramlexP7YYSTYPE@Base 3.2.1-1kern1
 _Z13checkSpwErrorRN8casacore6VectorIiEERNSt7__cxx1119basic_ostringstreamIcSt11char_traitsIcESaIcEEEPKc@Base 3.2.1-1kern1
 _Z14MSArrayGramlexP7YYSTYPE@Base 3.2.1-1kern1
 _Z14MSCorrGramfreePv@Base 3.2.1-1kern1
 _Z14MSFeedGramfreePv@Base 3.2.1-1kern1
 _Z14MSFieldGramlexP7YYSTYPE@Base 3.2.1-1kern1
 _Z14MSPolnGramwrapv@Base 3.2.1-1kern1
 _Z14MSScanGramfreePv@Base 3.2.1-1kern1
 _Z14MSSpwGramallocm@Base 3.2.1-1kern1
 _Z14MSSpwGramparsev@Base 3.2.1-1kern1
 _Z14MSStateGramlexP7YYSTYPE@Base 3.2.1-1kern1
 _Z14MSTimeGramfreePv@Base 3.2.1-1kern1
 _Z15MSArrayGramfreePv@Base 3.2.1-1kern1
 _Z15MSCorrGramallocm@Base 3.2.1-1kern1
 _Z15MSCorrGramparsev@Base 3.2.1-1kern1
 _Z15MSFeedGramallocm@Base 3.2.1-1kern1
 _Z15MSFeedGramparsev@Base 3.2.1-1kern1
 _Z15MSFieldGramfreePv@Base 3.2.1-1kern1
 _Z15MSScanGramallocm@Base 3.2.1-1kern1
 _Z15MSScanGramparsev@Base 3.2.1-1kern1
 _Z15MSSpwGramget_inv@Base 3.2.1-1kern1
 _Z15MSSpwGramset_inP8_IO_FILE@Base 3.2.1-1kern1
 _Z15MSStateGramfreePv@Base 3.2.1-1kern1
 _Z15MSTimeGramallocm@Base 3.2.1-1kern1
 _Z15MSTimeGramparsev@Base 3.2.1-1kern1
 _Z15MSUvDistGramlexP7YYSTYPE@Base 3.2.1-1kern1
 _Z15checkFieldErrorRN8casacore6VectorIiEERNSt7__cxx1119basic_ostringstreamIcSt11char_traitsIcESaIcEEEbPc@Base 3.2.1-1kern1
 _Z15checkStateErrorRN8casacore6VectorIiEERNSt7__cxx1119basic_ostringstreamIcSt11char_traitsIcESaIcEEEbPc@Base 3.2.1-1kern1
 _Z16MSAntennaGramlexP7YYSTYPE@Base 3.2.1-1kern1
 _Z16MSArrayGramallocm@Base 3.2.1-1kern1
 _Z16MSArrayGramparsev@Base 3.2.1-1kern1
 _Z16MSCorrGramget_inv@Base 3.2.1-1kern1
 _Z16MSCorrGramset_inP8_IO_FILE@Base 3.2.1-1kern1
 _Z16MSFeedGramget_inv@Base 3.2.1-1kern1
 _Z16MSFeedGramset_inP8_IO_FILE@Base 3.2.1-1kern1
 _Z16MSFieldGramallocm@Base 3.2.1-1kern1
 _Z16MSFieldGramparsev@Base 3.2.1-1kern1
 _Z16MSScanGramget_inv@Base 3.2.1-1kern1
 _Z16MSScanGramset_inP8_IO_FILE@Base 3.2.1-1kern1
 _Z16MSSpwGramget_outv@Base 3.2.1-1kern1
 _Z16MSSpwGramreallocPvm@Base 3.2.1-1kern1
 _Z16MSSpwGramrestartP8_IO_FILE@Base 3.2.1-1kern1
 _Z16MSSpwGramset_outP8_IO_FILE@Base 3.2.1-1kern1
 _Z16MSStateGramallocm@Base 3.2.1-1kern1
 _Z16MSStateGramparsev@Base 3.2.1-1kern1
 _Z16MSTimeGramget_inv@Base 3.2.1-1kern1
 _Z16MSTimeGramset_inP8_IO_FILE@Base 3.2.1-1kern1
 _Z16MSUvDistGramfreePv@Base 3.2.1-1kern1
 _Z16kungrachulationsRKSt6bitsetILm7EE@Base 3.2.1-1kern1
 _Z17MSAntennaGramfreePv@Base 3.2.1-1kern1
 _Z17MSArrayGramget_inv@Base 3.2.1-1kern1
 _Z17MSArrayGramset_inP8_IO_FILE@Base 3.2.1-1kern1
 _Z17MSCorrGramget_outv@Base 3.2.1-1kern1
 _Z17MSCorrGramreallocPvm@Base 3.2.1-1kern1
 _Z17MSCorrGramrestartP8_IO_FILE@Base 3.2.1-1kern1
 _Z17MSCorrGramset_outP8_IO_FILE@Base 3.2.1-1kern1
 _Z17MSFeedGramget_outv@Base 3.2.1-1kern1
 _Z17MSFeedGramreallocPvm@Base 3.2.1-1kern1
 _Z17MSFeedGramrestartP8_IO_FILE@Base 3.2.1-1kern1
 _Z17MSFeedGramset_outP8_IO_FILE@Base 3.2.1-1kern1
 _Z17MSFieldGramget_inv@Base 3.2.1-1kern1
 _Z17MSFieldGramset_inP8_IO_FILE@Base 3.2.1-1kern1
 _Z17MSScanGramget_outv@Base 3.2.1-1kern1
 _Z17MSScanGramreallocPvm@Base 3.2.1-1kern1
 _Z17MSScanGramrestartP8_IO_FILE@Base 3.2.1-1kern1
 _Z17MSScanGramset_outP8_IO_FILE@Base 3.2.1-1kern1
 _Z17MSSpwGramget_lengv@Base 3.2.1-1kern1
 _Z17MSSpwGramget_textv@Base 3.2.1-1kern1
 _Z17MSStateGramget_inv@Base 3.2.1-1kern1
 _Z17MSStateGramset_inP8_IO_FILE@Base 3.2.1-1kern1
 _Z17MSTimeGramget_outv@Base 3.2.1-1kern1
 _Z17MSTimeGramreallocPvm@Base 3.2.1-1kern1
 _Z17MSTimeGramrestartP8_IO_FILE@Base 3.2.1-1kern1
 _Z17MSTimeGramset_outP8_IO_FILE@Base 3.2.1-1kern1
 _Z17MSUvDistGramallocm@Base 3.2.1-1kern1
 _Z17MSUvDistGramparsev@Base 3.2.1-1kern1
 _Z18MSAntennaGramallocm@Base 3.2.1-1kern1
 _Z18MSAntennaGramparsev@Base 3.2.1-1kern1
 _Z18MSArrayGramget_outv@Base 3.2.1-1kern1
 _Z18MSArrayGramreallocPvm@Base 3.2.1-1kern1
 _Z18MSArrayGramrestartP8_IO_FILE@Base 3.2.1-1kern1
 _Z18MSArrayGramset_outP8_IO_FILE@Base 3.2.1-1kern1
 _Z18MSCorrGramget_lengv@Base 3.2.1-1kern1
 _Z18MSCorrGramget_textv@Base 3.2.1-1kern1
 _Z18MSFeedGramget_lengv@Base 3.2.1-1kern1
 _Z18MSFeedGramget_textv@Base 3.2.1-1kern1
 _Z18MSFieldGramget_outv@Base 3.2.1-1kern1
 _Z18MSFieldGramreallocPvm@Base 3.2.1-1kern1
 _Z18MSFieldGramrestartP8_IO_FILE@Base 3.2.1-1kern1
 _Z18MSFieldGramset_outP8_IO_FILE@Base 3.2.1-1kern1
 _Z18MSScanGramget_lengv@Base 3.2.1-1kern1
 _Z18MSScanGramget_textv@Base 3.2.1-1kern1
 _Z18MSSpwGramget_debugv@Base 3.2.1-1kern1
 _Z18MSSpwGramset_debugi@Base 3.2.1-1kern1
 _Z18MSStateGramget_outv@Base 3.2.1-1kern1
 _Z18MSStateGramreallocPvm@Base 3.2.1-1kern1
 _Z18MSStateGramrestartP8_IO_FILE@Base 3.2.1-1kern1
 _Z18MSStateGramset_outP8_IO_FILE@Base 3.2.1-1kern1
 _Z18MSTimeGramget_lengv@Base 3.2.1-1kern1
 _Z18MSTimeGramget_textv@Base 3.2.1-1kern1
 _Z18MSUvDistGramget_inv@Base 3.2.1-1kern1
 _Z18MSUvDistGramset_inP8_IO_FILE@Base 3.2.1-1kern1
 _Z19MSAntennaGramget_inv@Base 3.2.1-1kern1
 _Z19MSAntennaGramset_inP8_IO_FILE@Base 3.2.1-1kern1
 _Z19MSArrayGramget_lengv@Base 3.2.1-1kern1
 _Z19MSArrayGramget_textv@Base 3.2.1-1kern1
 _Z19MSCorrGramget_debugv@Base 3.2.1-1kern1
 _Z19MSCorrGramset_debugi@Base 3.2.1-1kern1
 _Z19MSFeedGramget_debugv@Base 3.2.1-1kern1
 _Z19MSFeedGramset_debugi@Base 3.2.1-1kern1
 _Z19MSFieldGramget_lengv@Base 3.2.1-1kern1
 _Z19MSFieldGramget_textv@Base 3.2.1-1kern1
 _Z19MSScanGramget_debugv@Base 3.2.1-1kern1
 _Z19MSScanGramset_debugi@Base 3.2.1-1kern1
 _Z19MSSpwGramget_linenov@Base 3.2.1-1kern1
 _Z19MSSpwGramset_linenoi@Base 3.2.1-1kern1
 _Z19MSStateGramget_lengv@Base 3.2.1-1kern1
 _Z19MSStateGramget_textv@Base 3.2.1-1kern1
 _Z19MSTimeGramget_debugv@Base 3.2.1-1kern1
 _Z19MSTimeGramset_debugi@Base 3.2.1-1kern1
 _Z19MSUvDistGramget_outv@Base 3.2.1-1kern1
 _Z19MSUvDistGramreallocPvm@Base 3.2.1-1kern1
 _Z19MSUvDistGramrestartP8_IO_FILE@Base 3.2.1-1kern1
 _Z19MSUvDistGramset_outP8_IO_FILE@Base 3.2.1-1kern1
 _Z20MSAntennaGramget_outv@Base 3.2.1-1kern1
 _Z20MSAntennaGramreallocPvm@Base 3.2.1-1kern1
 _Z20MSAntennaGramrestartP8_IO_FILE@Base 3.2.1-1kern1
 _Z20MSAntennaGramset_outP8_IO_FILE@Base 3.2.1-1kern1
 _Z20MSArrayGramget_debugv@Base 3.2.1-1kern1
 _Z20MSArrayGramset_debugi@Base 3.2.1-1kern1
 _Z20MSCorrGramget_linenov@Base 3.2.1-1kern1
 _Z20MSCorrGramset_linenoi@Base 3.2.1-1kern1
 _Z20MSFeedGramget_linenov@Base 3.2.1-1kern1
 _Z20MSFeedGramset_linenoi@Base 3.2.1-1kern1
 _Z20MSFieldGramget_debugv@Base 3.2.1-1kern1
 _Z20MSFieldGramset_debugi@Base 3.2.1-1kern1
 _Z20MSObservationGramlexP7YYSTYPE@Base 3.2.1-1kern1
 _Z20MSScanGramget_linenov@Base 3.2.1-1kern1
 _Z20MSScanGramset_linenoi@Base 3.2.1-1kern1
 _Z20MSSpwGram_scan_bytesPKci@Base 3.2.1-1kern1
 _Z20MSSpwGramlex_destroyv@Base 3.2.1-1kern1
 _Z20MSStateGramget_debugv@Base 3.2.1-1kern1
 _Z20MSStateGramset_debugi@Base 3.2.1-1kern1
 _Z20MSTimeGramget_linenov@Base 3.2.1-1kern1
 _Z20MSTimeGramset_linenoi@Base 3.2.1-1kern1
 _Z20MSUvDistGramget_lengv@Base 3.2.1-1kern1
 _Z20MSUvDistGramget_textv@Base 3.2.1-1kern1
 _Z21MSAntennaGramget_lengv@Base 3.2.1-1kern1
 _Z21MSAntennaGramget_textv@Base 3.2.1-1kern1
 _Z21MSArrayGramget_linenov@Base 3.2.1-1kern1
 _Z21MSArrayGramset_linenoi@Base 3.2.1-1kern1
 _Z21MSCorrGram_scan_bytesPKci@Base 3.2.1-1kern1
 _Z21MSCorrGramlex_destroyv@Base 3.2.1-1kern1
 _Z21MSFeedGram_scan_bytesPKci@Base 3.2.1-1kern1
 _Z21MSFeedGramlex_destroyv@Base 3.2.1-1kern1
 _Z21MSFieldGramget_linenov@Base 3.2.1-1kern1
 _Z21MSFieldGramset_linenoi@Base 3.2.1-1kern1
 _Z21MSObservationGramfreePv@Base 3.2.1-1kern1
 _Z21MSScanGram_scan_bytesPKci@Base 3.2.1-1kern1
 _Z21MSScanGramlex_destroyv@Base 3.2.1-1kern1
 _Z21MSSpwGram_scan_bufferPcm@Base 3.2.1-1kern1
 _Z21MSSpwGram_scan_stringPKc@Base 3.2.1-1kern1
 _Z21MSStateGramget_linenov@Base 3.2.1-1kern1
 _Z21MSStateGramset_linenoi@Base 3.2.1-1kern1
 _Z21MSTimeGram_scan_bytesPKci@Base 3.2.1-1kern1
 _Z21MSTimeGramlex_destroyv@Base 3.2.1-1kern1
 _Z21MSUvDistGramget_debugv@Base 3.2.1-1kern1
 _Z21MSUvDistGramset_debugi@Base 3.2.1-1kern1
 _Z22MSAntennaGramget_debugv@Base 3.2.1-1kern1
 _Z22MSAntennaGramset_debugi@Base 3.2.1-1kern1
 _Z22MSArrayGram_scan_bytesPKci@Base 3.2.1-1kern1
 _Z22MSArrayGramlex_destroyv@Base 3.2.1-1kern1
 _Z22MSCorrGram_scan_bufferPcm@Base 3.2.1-1kern1
 _Z22MSCorrGram_scan_stringPKc@Base 3.2.1-1kern1
 _Z22MSFeedGram_scan_bufferPcm@Base 3.2.1-1kern1
 _Z22MSFeedGram_scan_stringPKc@Base 3.2.1-1kern1
 _Z22MSFieldGram_scan_bytesPKci@Base 3.2.1-1kern1
 _Z22MSFieldGramlex_destroyv@Base 3.2.1-1kern1
 _Z22MSObservationGramallocm@Base 3.2.1-1kern1
 _Z22MSObservationGramparsev@Base 3.2.1-1kern1
 _Z22MSScanGram_scan_bufferPcm@Base 3.2.1-1kern1
 _Z22MSScanGram_scan_stringPKc@Base 3.2.1-1kern1
 _Z22MSSpwGram_flush_bufferP15yy_buffer_state@Base 3.2.1-1kern1
 _Z22MSStateGram_scan_bytesPKci@Base 3.2.1-1kern1
 _Z22MSStateGramlex_destroyv@Base 3.2.1-1kern1
 _Z22MSTimeGram_scan_bufferPcm@Base 3.2.1-1kern1
 _Z22MSTimeGram_scan_stringPKc@Base 3.2.1-1kern1
 _Z22MSUvDistGramget_linenov@Base 3.2.1-1kern1
 _Z22MSUvDistGramset_linenoi@Base 3.2.1-1kern1
 _Z23MSAntennaGramget_linenov@Base 3.2.1-1kern1
 _Z23MSAntennaGramset_linenoi@Base 3.2.1-1kern1
 _Z23MSArrayGram_scan_bufferPcm@Base 3.2.1-1kern1
 _Z23MSArrayGram_scan_stringPKc@Base 3.2.1-1kern1
 _Z23MSCorrGram_flush_bufferP15yy_buffer_state@Base 3.2.1-1kern1
 _Z23MSFeedGram_flush_bufferP15yy_buffer_state@Base 3.2.1-1kern1
 _Z23MSFieldGram_scan_bufferPcm@Base 3.2.1-1kern1
 _Z23MSFieldGram_scan_stringPKc@Base 3.2.1-1kern1
 _Z23MSObservationGramget_inv@Base 3.2.1-1kern1
 _Z23MSObservationGramset_inP8_IO_FILE@Base 3.2.1-1kern1
 _Z23MSScanGram_flush_bufferP15yy_buffer_state@Base 3.2.1-1kern1
 _Z23MSSpwGram_create_bufferP8_IO_FILEi@Base 3.2.1-1kern1
 _Z23MSSpwGram_delete_bufferP15yy_buffer_state@Base 3.2.1-1kern1
 _Z23MSStateGram_scan_bufferPcm@Base 3.2.1-1kern1
 _Z23MSStateGram_scan_stringPKc@Base 3.2.1-1kern1
 _Z23MSTimeGram_flush_bufferP15yy_buffer_state@Base 3.2.1-1kern1
 _Z23MSUvDistGram_scan_bytesPKci@Base 3.2.1-1kern1
 _Z23MSUvDistGramlex_destroyv@Base 3.2.1-1kern1
 _Z24MSAntennaGram_scan_bytesPKci@Base 3.2.1-1kern1
 _Z24MSAntennaGramlex_destroyv@Base 3.2.1-1kern1
 _Z24MSArrayGram_flush_bufferP15yy_buffer_state@Base 3.2.1-1kern1
 _Z24MSCorrGram_create_bufferP8_IO_FILEi@Base 3.2.1-1kern1
 _Z24MSCorrGram_delete_bufferP15yy_buffer_state@Base 3.2.1-1kern1
 _Z24MSFeedGram_create_bufferP8_IO_FILEi@Base 3.2.1-1kern1
 _Z24MSFeedGram_delete_bufferP15yy_buffer_state@Base 3.2.1-1kern1
 _Z24MSFieldGram_flush_bufferP15yy_buffer_state@Base 3.2.1-1kern1
 _Z24MSObservationGramget_outv@Base 3.2.1-1kern1
 _Z24MSObservationGramreallocPvm@Base 3.2.1-1kern1
 _Z24MSObservationGramrestartP8_IO_FILE@Base 3.2.1-1kern1
 _Z24MSObservationGramset_outP8_IO_FILE@Base 3.2.1-1kern1
 _Z24MSScanGram_create_bufferP8_IO_FILEi@Base 3.2.1-1kern1
 _Z24MSScanGram_delete_bufferP15yy_buffer_state@Base 3.2.1-1kern1
 _Z24MSStateGram_flush_bufferP15yy_buffer_state@Base 3.2.1-1kern1
 _Z24MSTimeGram_create_bufferP8_IO_FILEi@Base 3.2.1-1kern1
 _Z24MSTimeGram_delete_bufferP15yy_buffer_state@Base 3.2.1-1kern1
 _Z24MSUvDistGram_scan_bufferPcm@Base 3.2.1-1kern1
 _Z24MSUvDistGram_scan_stringPKc@Base 3.2.1-1kern1
 _Z25MSAntennaGram_scan_bufferPcm@Base 3.2.1-1kern1
 _Z25MSAntennaGram_scan_stringPKc@Base 3.2.1-1kern1
 _Z25MSArrayGram_create_bufferP8_IO_FILEi@Base 3.2.1-1kern1
 _Z25MSArrayGram_delete_bufferP15yy_buffer_state@Base 3.2.1-1kern1
 _Z25MSFieldGram_create_bufferP8_IO_FILEi@Base 3.2.1-1kern1
 _Z25MSFieldGram_delete_bufferP15yy_buffer_state@Base 3.2.1-1kern1
 _Z25MSObservationGramget_lengv@Base 3.2.1-1kern1
 _Z25MSObservationGramget_textv@Base 3.2.1-1kern1
 _Z25MSSpwGrampop_buffer_statev@Base 3.2.1-1kern1
 _Z25MSStateGram_create_bufferP8_IO_FILEi@Base 3.2.1-1kern1
 _Z25MSStateGram_delete_bufferP15yy_buffer_state@Base 3.2.1-1kern1
 _Z25MSUvDistGram_flush_bufferP15yy_buffer_state@Base 3.2.1-1kern1
 _Z26MSAntennaGram_flush_bufferP15yy_buffer_state@Base 3.2.1-1kern1
 _Z26MSCorrGrampop_buffer_statev@Base 3.2.1-1kern1
 _Z26MSFeedGrampop_buffer_statev@Base 3.2.1-1kern1
 _Z26MSObservationGramget_debugv@Base 3.2.1-1kern1
 _Z26MSObservationGramset_debugi@Base 3.2.1-1kern1
 _Z26MSScanGrampop_buffer_statev@Base 3.2.1-1kern1
 _Z26MSSpwGram_switch_to_bufferP15yy_buffer_state@Base 3.2.1-1kern1
 _Z26MSSpwGrampush_buffer_stateP15yy_buffer_state@Base 3.2.1-1kern1
 _Z26MSTimeGrampop_buffer_statev@Base 3.2.1-1kern1
 _Z26MSUvDistGram_create_bufferP8_IO_FILEi@Base 3.2.1-1kern1
 _Z26MSUvDistGram_delete_bufferP15yy_buffer_state@Base 3.2.1-1kern1
 _Z27MSAntennaGram_create_bufferP8_IO_FILEi@Base 3.2.1-1kern1
 _Z27MSAntennaGram_delete_bufferP15yy_buffer_state@Base 3.2.1-1kern1
 _Z27MSArrayGrampop_buffer_statev@Base 3.2.1-1kern1
 _Z27MSCorrGram_switch_to_bufferP15yy_buffer_state@Base 3.2.1-1kern1
 _Z27MSCorrGrampush_buffer_stateP15yy_buffer_state@Base 3.2.1-1kern1
 _Z27MSFeedGram_switch_to_bufferP15yy_buffer_state@Base 3.2.1-1kern1
 _Z27MSFeedGrampush_buffer_stateP15yy_buffer_state@Base 3.2.1-1kern1
 _Z27MSFieldGrampop_buffer_statev@Base 3.2.1-1kern1
 _Z27MSObservationGramget_linenov@Base 3.2.1-1kern1
 _Z27MSObservationGramset_linenoi@Base 3.2.1-1kern1
 _Z27MSScanGram_switch_to_bufferP15yy_buffer_state@Base 3.2.1-1kern1
 _Z27MSScanGrampush_buffer_stateP15yy_buffer_state@Base 3.2.1-1kern1
 _Z27MSStateGrampop_buffer_statev@Base 3.2.1-1kern1
 _Z27MSTimeGram_switch_to_bufferP15yy_buffer_state@Base 3.2.1-1kern1
 _Z27MSTimeGrampush_buffer_stateP15yy_buffer_state@Base 3.2.1-1kern1
 _Z28MSArrayGram_switch_to_bufferP15yy_buffer_state@Base 3.2.1-1kern1
 _Z28MSArrayGrampush_buffer_stateP15yy_buffer_state@Base 3.2.1-1kern1
 _Z28MSFieldGram_switch_to_bufferP15yy_buffer_state@Base 3.2.1-1kern1
 _Z28MSFieldGrampush_buffer_stateP15yy_buffer_state@Base 3.2.1-1kern1
 _Z28MSObservationGram_scan_bytesPKci@Base 3.2.1-1kern1
 _Z28MSObservationGramlex_destroyv@Base 3.2.1-1kern1
 _Z28MSStateGram_switch_to_bufferP15yy_buffer_state@Base 3.2.1-1kern1
 _Z28MSStateGrampush_buffer_stateP15yy_buffer_state@Base 3.2.1-1kern1
 _Z28MSUvDistGrampop_buffer_statev@Base 3.2.1-1kern1
 _Z29MSAntennaGrampop_buffer_statev@Base 3.2.1-1kern1
 _Z29MSObservationGram_scan_bufferPcm@Base 3.2.1-1kern1
 _Z29MSObservationGram_scan_stringPKc@Base 3.2.1-1kern1
 _Z29MSUvDistGram_switch_to_bufferP15yy_buffer_state@Base 3.2.1-1kern1
 _Z29MSUvDistGrampush_buffer_stateP15yy_buffer_state@Base 3.2.1-1kern1
 _Z30MSAntennaGram_switch_to_bufferP15yy_buffer_state@Base 3.2.1-1kern1
 _Z30MSAntennaGrampush_buffer_stateP15yy_buffer_state@Base 3.2.1-1kern1
 _Z30MSObservationGram_flush_bufferP15yy_buffer_state@Base 3.2.1-1kern1
 _Z31MSObservationGram_create_bufferP8_IO_FILEi@Base 3.2.1-1kern1
 _Z31MSObservationGram_delete_bufferP15yy_buffer_state@Base 3.2.1-1kern1
 _Z33MSObservationGrampop_buffer_statev@Base 3.2.1-1kern1
 _Z34MSObservationGram_switch_to_bufferP15yy_buffer_state@Base 3.2.1-1kern1
 _Z34MSObservationGrampush_buffer_stateP15yy_buffer_state@Base 3.2.1-1kern1
 _Z8splitSecRKdRiS1_@Base 3.2.1-1kern1
 _ZGVN8casacore15NewDelAllocatorINS_10MDirectionEE5valueE@Base 3.2.1-1kern1
 _ZGVN8casacore15NewDelAllocatorINS_10MFrequencyEE5valueE@Base 3.2.1-1kern1
 _ZGVN8casacore15NewDelAllocatorINS_11RigidVectorIdLi2EEEE5valueE@Base 3.2.1-1kern1
 _ZGVN8casacore15NewDelAllocatorINS_12SquareMatrixISt7complexIfELi2EEEE5valueE@Base 3.2.1-1kern1
 _ZGVN8casacore15NewDelAllocatorINS_4UnitEE5valueE@Base 3.2.1-1kern1
 _ZGVN8casacore15NewDelAllocatorINS_5SliceEE5valueE@Base 3.2.1-1kern1
 _ZGVN8casacore15NewDelAllocatorINS_6MVTimeEE5valueE@Base 3.2.1-1kern1
 _ZGVN8casacore15NewDelAllocatorINS_6Stokes11StokesTypesEE5valueE@Base 3.2.1-1kern1
 _ZGVN8casacore15NewDelAllocatorINS_6VectorINS_5SliceEEEE5valueE@Base 3.2.1-1kern1
 _ZGVN8casacore15NewDelAllocatorINS_6VectorIiEEE5valueE@Base 3.2.1-1kern1
 _ZGVN8casacore15NewDelAllocatorINS_7QuantumIdEEE5valueE@Base 3.2.1-1kern1
 _ZGVN8casacore15NewDelAllocatorINS_9MPositionEE5valueE@Base 3.2.1-1kern1
 _ZGVN8casacore15NewDelAllocatorIPNS_6SlicerEE5valueE@Base 3.2.1-1kern1
 _ZGVN8casacore15NewDelAllocatorIPNS_9MeasCometEE5valueE@Base 3.2.1-1kern1
 _ZGVN8casacore16DefaultAllocatorINS_10MDirectionEE5valueE@Base 3.2.1-1kern1
 _ZGVN8casacore16DefaultAllocatorINS_10MFrequencyEE5valueE@Base 3.2.1-1kern1
 _ZGVN8casacore16DefaultAllocatorINS_11RigidVectorIdLi2EEEE5valueE@Base 3.2.1-1kern1
 _ZGVN8casacore16DefaultAllocatorINS_12SquareMatrixISt7complexIfELi2EEEE5valueE@Base 3.2.1-1kern1
 _ZGVN8casacore16DefaultAllocatorINS_4UnitEE5valueE@Base 3.2.1-1kern1
 _ZGVN8casacore16DefaultAllocatorINS_5SliceEE5valueE@Base 3.2.1-1kern1
 _ZGVN8casacore16DefaultAllocatorINS_6MVTimeEE5valueE@Base 3.2.1-1kern1
 _ZGVN8casacore16DefaultAllocatorINS_6Stokes11StokesTypesEE5valueE@Base 3.2.1-1kern1
 _ZGVN8casacore16DefaultAllocatorINS_6VectorINS_5SliceEEEE5valueE@Base 3.2.1-1kern1
 _ZGVN8casacore16DefaultAllocatorINS_6VectorIiEEE5valueE@Base 3.2.1-1kern1
 _ZGVN8casacore16DefaultAllocatorINS_7QuantumIdEEE5valueE@Base 3.2.1-1kern1
 _ZGVN8casacore16DefaultAllocatorINS_9MPositionEE5valueE@Base 3.2.1-1kern1
 _ZGVN8casacore16DefaultAllocatorIPNS_6SlicerEE5valueE@Base 3.2.1-1kern1
 _ZGVN8casacore16DefaultAllocatorIPNS_9MeasCometEE5valueE@Base 3.2.1-1kern1
 _ZGVN8casacore17Allocator_private17BulkAllocatorImplINS_17new_del_allocatorINS_10MDirectionEEEE9allocatorE@Base 3.2.1-1kern1
 _ZGVN8casacore17Allocator_private17BulkAllocatorImplINS_17new_del_allocatorINS_10MFrequencyEEEE9allocatorE@Base 3.2.1-1kern1
 _ZGVN8casacore17Allocator_private17BulkAllocatorImplINS_17new_del_allocatorINS_11RigidVectorIdLi2EEEEEE9allocatorE@Base 3.2.1-1kern1
 _ZGVN8casacore17Allocator_private17BulkAllocatorImplINS_17new_del_allocatorINS_12SquareMatrixISt7complexIfELi2EEEEEE9allocatorE@Base 3.2.1-1kern1
 _ZGVN8casacore17Allocator_private17BulkAllocatorImplINS_17new_del_allocatorINS_4UnitEEEE9allocatorE@Base 3.2.1-1kern1
 _ZGVN8casacore17Allocator_private17BulkAllocatorImplINS_17new_del_allocatorINS_5SliceEEEE9allocatorE@Base 3.2.1-1kern1
 _ZGVN8casacore17Allocator_private17BulkAllocatorImplINS_17new_del_allocatorINS_6MVTimeEEEE9allocatorE@Base 3.2.1-1kern1
 _ZGVN8casacore17Allocator_private17BulkAllocatorImplINS_17new_del_allocatorINS_6Stokes11StokesTypesEEEE9allocatorE@Base 3.2.1-1kern1
 _ZGVN8casacore17Allocator_private17BulkAllocatorImplINS_17new_del_allocatorINS_6VectorINS_5SliceEEEEEE9allocatorE@Base 3.2.1-1kern1
 _ZGVN8casacore17Allocator_private17BulkAllocatorImplINS_17new_del_allocatorINS_6VectorIiEEEEE9allocatorE@Base 3.2.1-1kern1
 _ZGVN8casacore17Allocator_private17BulkAllocatorImplINS_17new_del_allocatorINS_7QuantumIdEEEEE9allocatorE@Base 3.2.1-1kern1
 _ZGVN8casacore17Allocator_private17BulkAllocatorImplINS_17new_del_allocatorINS_9MPositionEEEE9allocatorE@Base 3.2.1-1kern1
 _ZGVN8casacore17Allocator_private17BulkAllocatorImplINS_17new_del_allocatorIPNS_6SlicerEEEE9allocatorE@Base 3.2.1-1kern1
 _ZGVN8casacore17Allocator_private17BulkAllocatorImplINS_17new_del_allocatorIPNS_9MeasCometEEEE9allocatorE@Base 3.2.1-1kern1
 _ZGVN8casacore17Allocator_private17BulkAllocatorImplINS_18casacore_allocatorINS_10CountedPtrINS_11BaseCompareEEELm32EEEE9allocatorE@Base 3.2.1-1kern1
 _ZGVN8casacore17Allocator_private17BulkAllocatorImplINS_18casacore_allocatorINS_10MDirectionELm32EEEE9allocatorE@Base 3.2.1-1kern1
 _ZGVN8casacore17Allocator_private17BulkAllocatorImplINS_18casacore_allocatorINS_10MFrequencyELm32EEEE9allocatorE@Base 3.2.1-1kern1
 _ZGVN8casacore17Allocator_private17BulkAllocatorImplINS_18casacore_allocatorINS_10ROTableRowELm32EEEE9allocatorE@Base 3.2.1-1kern1
 _ZGVN8casacore17Allocator_private17BulkAllocatorImplINS_18casacore_allocatorINS_11RigidVectorIdLi2EEELm32EEEE9allocatorE@Base 3.2.1-1kern1
 _ZGVN8casacore17Allocator_private17BulkAllocatorImplINS_18casacore_allocatorINS_12MSTableIndexELm32EEEE9allocatorE@Base 3.2.1-1kern1
 _ZGVN8casacore17Allocator_private17BulkAllocatorImplINS_18casacore_allocatorINS_12SquareMatrixISt7complexIfELi2EEELm32EEEE9allocatorE@Base 3.2.1-1kern1
 _ZGVN8casacore17Allocator_private17BulkAllocatorImplINS_18casacore_allocatorINS_14MeasurementSetELm32EEEE9allocatorE@Base 3.2.1-1kern1
 _ZGVN8casacore17Allocator_private17BulkAllocatorImplINS_18casacore_allocatorINS_14RecordFieldPtrIiEELm32EEEE9allocatorE@Base 3.2.1-1kern1
 _ZGVN8casacore17Allocator_private17BulkAllocatorImplINS_18casacore_allocatorINS_4UnitELm32EEEE9allocatorE@Base 3.2.1-1kern1
 _ZGVN8casacore17Allocator_private17BulkAllocatorImplINS_18casacore_allocatorINS_5SliceELm32EEEE9allocatorE@Base 3.2.1-1kern1
 _ZGVN8casacore17Allocator_private17BulkAllocatorImplINS_18casacore_allocatorINS_6MVTimeELm32EEEE9allocatorE@Base 3.2.1-1kern1
 _ZGVN8casacore17Allocator_private17BulkAllocatorImplINS_18casacore_allocatorINS_6Stokes11StokesTypesELm32EEEE9allocatorE@Base 3.2.1-1kern1
 _ZGVN8casacore17Allocator_private17BulkAllocatorImplINS_18casacore_allocatorINS_6StringELm32EEEE9allocatorE@Base 3.2.1-1kern1
 _ZGVN8casacore17Allocator_private17BulkAllocatorImplINS_18casacore_allocatorINS_6VectorINS_5SliceEEELm32EEEE9allocatorE@Base 3.2.1-1kern1
 _ZGVN8casacore17Allocator_private17BulkAllocatorImplINS_18casacore_allocatorINS_6VectorIiEELm32EEEE9allocatorE@Base 3.2.1-1kern1
 _ZGVN8casacore17Allocator_private17BulkAllocatorImplINS_18casacore_allocatorINS_7QuantumIdEELm32EEEE9allocatorE@Base 3.2.1-1kern1
 _ZGVN8casacore17Allocator_private17BulkAllocatorImplINS_18casacore_allocatorINS_9MPositionELm32EEEE9allocatorE@Base 3.2.1-1kern1
 _ZGVN8casacore17Allocator_private17BulkAllocatorImplINS_18casacore_allocatorIPNS_6SlicerELm32EEEE9allocatorE@Base 3.2.1-1kern1
 _ZGVN8casacore17Allocator_private17BulkAllocatorImplINS_18casacore_allocatorIPNS_9MeasCometELm32EEEE9allocatorE@Base 3.2.1-1kern1
 _ZGVN8casacore17Allocator_private17BulkAllocatorImplINS_18casacore_allocatorIPvLm32EEEE9allocatorE@Base 3.2.1-1kern1
 _ZGVN8casacore17Allocator_private17BulkAllocatorImplINS_18casacore_allocatorISt7complexIfELm32EEEE9allocatorE@Base 3.2.1-1kern1
 _ZGVN8casacore17Allocator_private17BulkAllocatorImplINS_18casacore_allocatorIbLm32EEEE9allocatorE@Base 3.2.1-1kern1
 _ZGVN8casacore17Allocator_private17BulkAllocatorImplINS_18casacore_allocatorIdLm32EEEE9allocatorE@Base 3.2.1-1kern1
 _ZGVN8casacore17Allocator_private17BulkAllocatorImplINS_18casacore_allocatorIfLm32EEEE9allocatorE@Base 3.2.1-1kern1
 _ZGVN8casacore17Allocator_private17BulkAllocatorImplINS_18casacore_allocatorIiLm32EEEE9allocatorE@Base 3.2.1-1kern1
 _ZGVN8casacore17Allocator_private17BulkAllocatorImplINS_18casacore_allocatorIjLm32EEEE9allocatorE@Base 3.2.1-1kern1
 _ZGVZN8casacore17Allocator_private17get_allocator_rawINS_17new_del_allocatorINS_10MDirectionEEEEEPNS0_17BulkAllocatorImplIT_EEvE3ptr@Base 3.2.1-1kern1
 _ZGVZN8casacore17Allocator_private17get_allocator_rawINS_17new_del_allocatorINS_10MFrequencyEEEEEPNS0_17BulkAllocatorImplIT_EEvE3ptr@Base 3.2.1-1kern1
 _ZGVZN8casacore17Allocator_private17get_allocator_rawINS_17new_del_allocatorINS_11RigidVectorIdLi2EEEEEEEPNS0_17BulkAllocatorImplIT_EEvE3ptr@Base 3.2.1-1kern1
 _ZGVZN8casacore17Allocator_private17get_allocator_rawINS_17new_del_allocatorINS_12SquareMatrixISt7complexIfELi2EEEEEEEPNS0_17BulkAllocatorImplIT_EEvE3ptr@Base 3.2.1-1kern1
 _ZGVZN8casacore17Allocator_private17get_allocator_rawINS_17new_del_allocatorINS_4UnitEEEEEPNS0_17BulkAllocatorImplIT_EEvE3ptr@Base 3.2.1-1kern1
 _ZGVZN8casacore17Allocator_private17get_allocator_rawINS_17new_del_allocatorINS_5SliceEEEEEPNS0_17BulkAllocatorImplIT_EEvE3ptr@Base 3.2.1-1kern1
 _ZGVZN8casacore17Allocator_private17get_allocator_rawINS_17new_del_allocatorINS_6MVTimeEEEEEPNS0_17BulkAllocatorImplIT_EEvE3ptr@Base 3.2.1-1kern1
 _ZGVZN8casacore17Allocator_private17get_allocator_rawINS_17new_del_allocatorINS_6Stokes11StokesTypesEEEEEPNS0_17BulkAllocatorImplIT_EEvE3ptr@Base 3.2.1-1kern1
 _ZGVZN8casacore17Allocator_private17get_allocator_rawINS_17new_del_allocatorINS_6VectorINS_5SliceEEEEEEEPNS0_17BulkAllocatorImplIT_EEvE3ptr@Base 3.2.1-1kern1
 _ZGVZN8casacore17Allocator_private17get_allocator_rawINS_17new_del_allocatorINS_6VectorIiEEEEEEPNS0_17BulkAllocatorImplIT_EEvE3ptr@Base 3.2.1-1kern1
 _ZGVZN8casacore17Allocator_private17get_allocator_rawINS_17new_del_allocatorINS_7QuantumIdEEEEEEPNS0_17BulkAllocatorImplIT_EEvE3ptr@Base 3.2.1-1kern1
 _ZGVZN8casacore17Allocator_private17get_allocator_rawINS_17new_del_allocatorINS_9MPositionEEEEEPNS0_17BulkAllocatorImplIT_EEvE3ptr@Base 3.2.1-1kern1
 _ZGVZN8casacore17Allocator_private17get_allocator_rawINS_17new_del_allocatorIPNS_6SlicerEEEEEPNS0_17BulkAllocatorImplIT_EEvE3ptr@Base 3.2.1-1kern1
 _ZGVZN8casacore17Allocator_private17get_allocator_rawINS_17new_del_allocatorIPNS_9MeasCometEEEEEPNS0_17BulkAllocatorImplIT_EEvE3ptr@Base 3.2.1-1kern1
 _ZGVZN8casacore17Allocator_private17get_allocator_rawINS_18casacore_allocatorINS_10CountedPtrINS_11BaseCompareEEELm32EEEEEPNS0_17BulkAllocatorImplIT_EEvE3ptr@Base 3.2.1-1kern1
 _ZGVZN8casacore17Allocator_private17get_allocator_rawINS_18casacore_allocatorINS_10MDirectionELm32EEEEEPNS0_17BulkAllocatorImplIT_EEvE3ptr@Base 3.2.1-1kern1
 _ZGVZN8casacore17Allocator_private17get_allocator_rawINS_18casacore_allocatorINS_10MFrequencyELm32EEEEEPNS0_17BulkAllocatorImplIT_EEvE3ptr@Base 3.2.1-1kern1
 _ZGVZN8casacore17Allocator_private17get_allocator_rawINS_18casacore_allocatorINS_10ROTableRowELm32EEEEEPNS0_17BulkAllocatorImplIT_EEvE3ptr@Base 3.2.1-1kern1
 _ZGVZN8casacore17Allocator_private17get_allocator_rawINS_18casacore_allocatorINS_11RigidVectorIdLi2EEELm32EEEEEPNS0_17BulkAllocatorImplIT_EEvE3ptr@Base 3.2.1-1kern1
 _ZGVZN8casacore17Allocator_private17get_allocator_rawINS_18casacore_allocatorINS_12MSTableIndexELm32EEEEEPNS0_17BulkAllocatorImplIT_EEvE3ptr@Base 3.2.1-1kern1
 _ZGVZN8casacore17Allocator_private17get_allocator_rawINS_18casacore_allocatorINS_12SquareMatrixISt7complexIfELi2EEELm32EEEEEPNS0_17BulkAllocatorImplIT_EEvE3ptr@Base 3.2.1-1kern1
 _ZGVZN8casacore17Allocator_private17get_allocator_rawINS_18casacore_allocatorINS_14MeasurementSetELm32EEEEEPNS0_17BulkAllocatorImplIT_EEvE3ptr@Base 3.2.1-1kern1
 _ZGVZN8casacore17Allocator_private17get_allocator_rawINS_18casacore_allocatorINS_14RecordFieldPtrIiEELm32EEEEEPNS0_17BulkAllocatorImplIT_EEvE3ptr@Base 3.2.1-1kern1
 _ZGVZN8casacore17Allocator_private17get_allocator_rawINS_18casacore_allocatorINS_4UnitELm32EEEEEPNS0_17BulkAllocatorImplIT_EEvE3ptr@Base 3.2.1-1kern1
 _ZGVZN8casacore17Allocator_private17get_allocator_rawINS_18casacore_allocatorINS_5SliceELm32EEEEEPNS0_17BulkAllocatorImplIT_EEvE3ptr@Base 3.2.1-1kern1
 _ZGVZN8casacore17Allocator_private17get_allocator_rawINS_18casacore_allocatorINS_6MVTimeELm32EEEEEPNS0_17BulkAllocatorImplIT_EEvE3ptr@Base 3.2.1-1kern1
 _ZGVZN8casacore17Allocator_private17get_allocator_rawINS_18casacore_allocatorINS_6Stokes11StokesTypesELm32EEEEEPNS0_17BulkAllocatorImplIT_EEvE3ptr@Base 3.2.1-1kern1
 _ZGVZN8casacore17Allocator_private17get_allocator_rawINS_18casacore_allocatorINS_6StringELm32EEEEEPNS0_17BulkAllocatorImplIT_EEvE3ptr@Base 3.2.1-1kern1
 _ZGVZN8casacore17Allocator_private17get_allocator_rawINS_18casacore_allocatorINS_6VectorINS_5SliceEEELm32EEEEEPNS0_17BulkAllocatorImplIT_EEvE3ptr@Base 3.2.1-1kern1
 _ZGVZN8casacore17Allocator_private17get_allocator_rawINS_18casacore_allocatorINS_6VectorIiEELm32EEEEEPNS0_17BulkAllocatorImplIT_EEvE3ptr@Base 3.2.1-1kern1
 _ZGVZN8casacore17Allocator_private17get_allocator_rawINS_18casacore_allocatorINS_7QuantumIdEELm32EEEEEPNS0_17BulkAllocatorImplIT_EEvE3ptr@Base 3.2.1-1kern1
 _ZGVZN8casacore17Allocator_private17get_allocator_rawINS_18casacore_allocatorINS_9MPositionELm32EEEEEPNS0_17BulkAllocatorImplIT_EEvE3ptr@Base 3.2.1-1kern1
 _ZGVZN8casacore17Allocator_private17get_allocator_rawINS_18casacore_allocatorIPNS_6SlicerELm32EEEEEPNS0_17BulkAllocatorImplIT_EEvE3ptr@Base 3.2.1-1kern1
 _ZGVZN8casacore17Allocator_private17get_allocator_rawINS_18casacore_allocatorIPNS_9MeasCometELm32EEEEEPNS0_17BulkAllocatorImplIT_EEvE3ptr@Base 3.2.1-1kern1
 _ZGVZN8casacore17Allocator_private17get_allocator_rawINS_18casacore_allocatorIPvLm32EEEEEPNS0_17BulkAllocatorImplIT_EEvE3ptr@Base 3.2.1-1kern1
 _ZGVZN8casacore17Allocator_private17get_allocator_rawINS_18casacore_allocatorISt7complexIfELm32EEEEEPNS0_17BulkAllocatorImplIT_EEvE3ptr@Base 3.2.1-1kern1
 _ZGVZN8casacore17Allocator_private17get_allocator_rawINS_18casacore_allocatorIbLm32EEEEEPNS0_17BulkAllocatorImplIT_EEvE3ptr@Base 3.2.1-1kern1
 _ZGVZN8casacore17Allocator_private17get_allocator_rawINS_18casacore_allocatorIdLm32EEEEEPNS0_17BulkAllocatorImplIT_EEvE3ptr@Base 3.2.1-1kern1
 _ZGVZN8casacore17Allocator_private17get_allocator_rawINS_18casacore_allocatorIfLm32EEEEEPNS0_17BulkAllocatorImplIT_EEvE3ptr@Base 3.2.1-1kern1
 _ZGVZN8casacore17Allocator_private17get_allocator_rawINS_18casacore_allocatorIiLm32EEEEEPNS0_17BulkAllocatorImplIT_EEvE3ptr@Base 3.2.1-1kern1
 _ZGVZN8casacore17Allocator_private17get_allocator_rawINS_18casacore_allocatorIjLm32EEEEEPNS0_17BulkAllocatorImplIT_EEvE3ptr@Base 3.2.1-1kern1
 _ZGVZN8casacore7MSTableINS_11MSFeedEnumsEE7getMapsEvE4maps@Base 3.2.1-1kern1
 _ZGVZN8casacore7MSTableINS_11MSMainEnumsEE7getMapsEvE4maps@Base 3.2.1-1kern1
 _ZGVZN8casacore7MSTableINS_12MSFieldEnumsEE7getMapsEvE4maps@Base 3.2.1-1kern1
 _ZGVZN8casacore7MSTableINS_12MSStateEnumsEE7getMapsEvE4maps@Base 3.2.1-1kern1
 _ZGVZN8casacore7MSTableINS_13MSSourceEnumsEE7getMapsEvE4maps@Base 3.2.1-1kern1
 _ZGVZN8casacore7MSTableINS_13MSSysCalEnumsEE7getMapsEvE4maps@Base 3.2.1-1kern1
 _ZGVZN8casacore7MSTableINS_14MSAntennaEnumsEE7getMapsEvE4maps@Base 3.2.1-1kern1
 _ZGVZN8casacore7MSTableINS_14MSDopplerEnumsEE7getMapsEvE4maps@Base 3.2.1-1kern1
 _ZGVZN8casacore7MSTableINS_14MSFlagCmdEnumsEE7getMapsEvE4maps@Base 3.2.1-1kern1
 _ZGVZN8casacore7MSTableINS_14MSHistoryEnumsEE7getMapsEvE4maps@Base 3.2.1-1kern1
 _ZGVZN8casacore7MSTableINS_14MSWeatherEnumsEE7getMapsEvE4maps@Base 3.2.1-1kern1
 _ZGVZN8casacore7MSTableINS_15MSPointingEnumsEE7getMapsEvE4maps@Base 3.2.1-1kern1
 _ZGVZN8casacore7MSTableINS_16MSProcessorEnumsEE7getMapsEvE4maps@Base 3.2.1-1kern1
 _ZGVZN8casacore7MSTableINS_17MSFreqOffsetEnumsEE7getMapsEvE4maps@Base 3.2.1-1kern1
 _ZGVZN8casacore7MSTableINS_18MSObservationEnumsEE7getMapsEvE4maps@Base 3.2.1-1kern1
 _ZGVZN8casacore7MSTableINS_19MSPolarizationEnumsEE7getMapsEvE4maps@Base 3.2.1-1kern1
 _ZGVZN8casacore7MSTableINS_21MSSpectralWindowEnumsEE7getMapsEvE4maps@Base 3.2.1-1kern1
 _ZGVZN8casacore7MSTableINS_22MSDataDescriptionEnumsEE7getMapsEvE4maps@Base 3.2.1-1kern1
 _ZGVZNK8casacore19ClassicalStatisticsIdNS_5ArrayIdE16ConstIteratorSTLEPKbS3_E16_getInitialStatsEvE5stats@Base 3.2.1-1kern1
 _ZN8casacore10CountedPtrINS_23MSSelectionErrorHandlerEED1Ev@Base 3.2.1-1kern1
 _ZN8casacore10CountedPtrINS_23MSSelectionErrorHandlerEED2Ev@Base 3.2.1-1kern1
 _ZN8casacore10CountedPtrINS_23MSSelectionErrorHandlerEEaSEPS1_@Base 3.2.1-1kern1
 _ZN8casacore10CountedPtrINS_5BlockINS_4UnitEEEEaSEPS3_@Base 3.2.1-1kern1
 _ZN8casacore10CountedPtrINS_5BlockINS_6VectorIiEEEEEaSEPS4_@Base 3.2.1-1kern1
 _ZN8casacore10CountedPtrINS_5BlockINS_7QuantumIdEEEEEaSEPS4_@Base 3.2.1-1kern1
 _ZN8casacore10CountedPtrINS_5BlockINS_9MPositionEEEEaSEPS3_@Base 3.2.1-1kern1
 _ZN8casacore10CountedPtrIdEaSEPd@Base 3.2.1-1kern1
 _ZN8casacore10MSInterval9setOffsetEd@Base 3.2.1-1kern1
 _ZN8casacore10MSIntervalD0Ev@Base 3.2.1-1kern1
 _ZN8casacore10MSIntervalD1Ev@Base 3.2.1-1kern1
 _ZN8casacore10MSIntervalD2Ev@Base 3.2.1-1kern1
 _ZN8casacore10MSMetaData10_toUIntMapERKNS_6VectorIiEE@Base 3.2.1-1kern1
 _ZN8casacore10MSMetaData10getSQLDSpwEv@Base 3.2.1-1kern1
 _ZN8casacore10MSMetaData10nBaselinesEb@Base 3.2.1-1kern1
 _ZN8casacore10MSMetaData12getEdgeChansEv@Base 3.2.1-1kern1
 _ZN8casacore10MSMetaData13SpwPropertiesC1ERKS1_@Base 3.2.1-1kern1
 _ZN8casacore10MSMetaData13SpwPropertiesC2ERKS1_@Base 3.2.1-1kern1
 _ZN8casacore10MSMetaData13SpwPropertiesD1Ev@Base 3.2.1-1kern1
 _ZN8casacore10MSMetaData13SpwPropertiesD2Ev@Base 3.2.1-1kern1
 _ZN8casacore10MSMetaData13_hasAntennaIDEi@Base 3.2.1-1kern1
 _ZN8casacore10MSMetaData15_checkToleranceEd@Base 3.2.1-1kern1
 _ZN8casacore10MSMetaData15getSpwsForFieldERKNS_6StringE@Base 3.2.1-1kern1
 _ZN8casacore10MSMetaData16SourcePropertiesD1Ev@Base 3.2.1-1kern1
 _ZN8casacore10MSMetaData16SourcePropertiesD2Ev@Base 3.2.1-1kern1
 _ZN8casacore10MSMetaData16_getStationNamesEv@Base 3.2.1-1kern1
 _ZN8casacore10MSMetaData16getChannelAvgSpwEv@Base 3.2.1-1kern1
 _ZN8casacore10MSMetaData16getIntentsForSpwEj@Base 3.2.1-1kern1
 _ZN8casacore10MSMetaData16getSpwsForIntentERKNS_6StringE@Base 3.2.1-1kern1
 _ZN8casacore10MSMetaData16getTimesForFieldEi@Base 3.2.1-1kern1
 _ZN8casacore10MSMetaData17SubScanPropertiesC1ERKS1_@Base 3.2.1-1kern1
 _ZN8casacore10MSMetaData17SubScanPropertiesC2ERKS1_@Base 3.2.1-1kern1
 _ZN8casacore10MSMetaData17SubScanPropertiesD1Ev@Base 3.2.1-1kern1
 _ZN8casacore10MSMetaData17SubScanPropertiesD2Ev@Base 3.2.1-1kern1
 _ZN8casacore10MSMetaData17getBBCNosToSpwMapENS0_10SQLDSwitchE@Base 3.2.1-1kern1
 _ZN8casacore10MSMetaData17getFieldIDsForSpwEj@Base 3.2.1-1kern1
 _ZN8casacore10MSMetaData17getFieldsForTimesEdd@Base 3.2.1-1kern1
 _ZN8casacore10MSMetaData18getAntennaStationsERKSt6vectorINS_6StringESaIS2_EE@Base 3.2.1-1kern1
 _ZN8casacore10MSMetaData18getAntennaStationsERKSt6vectorIjSaIjEE@Base 3.2.1-1kern1
 _ZN8casacore10MSMetaData18getFieldsForIntentERKNS_6StringE@Base 3.2.1-1kern1
 _ZN8casacore10MSMetaData18getIntentToSpwsMapEv@Base 3.2.1-1kern1
 _ZN8casacore10MSMetaData18getIntentsForFieldENS_6StringE@Base 3.2.1-1kern1
 _ZN8casacore10MSMetaData18getIntentsForFieldEi@Base 3.2.1-1kern1
 _ZN8casacore10MSMetaData18getUniqueBaselinesEv@Base 3.2.1-1kern1
 _ZN8casacore10MSMetaData19_getScalarIntColumnERNS_6VectorIiEERNS_10TableProxyERKNS_6StringEii@Base 3.2.1-1kern1
 _ZN8casacore10MSMetaData19_getSpwToIntentsMapEv@Base 3.2.1-1kern1
 _ZN8casacore10MSMetaData19getAntennaPositionsERKSt6vectorINS_6StringESaIS2_EE@Base 3.2.1-1kern1
 _ZN8casacore10MSMetaData19getFieldNamesForSpwEj@Base 3.2.1-1kern1
 _ZN8casacore10MSMetaData19getIntentToScansMapEv@Base 3.2.1-1kern1
 _ZN8casacore10MSMetaData19getObservatoryNamesEv@Base 3.2.1-1kern1
 _ZN8casacore10MSMetaData20_freqWidthToVelWidthERKNS_7QVectorIdEERKNS_7QuantumIdEE@Base 3.2.1-1kern1
 _ZN8casacore10MSMetaData20_getTimeToTotalBWMapERKNS_6VectorIdEERKNS1_IiEE@Base 3.2.1-1kern1
 _ZN8casacore10MSMetaData20getIntentToFieldsMapEv@Base 3.2.1-1kern1
 _ZN8casacore10MSMetaData22_getFieldsAndTimesMapsERSt10shared_ptrISt3mapIiSt3setIdSt4lessIdESaIdEES4_IiESaISt4pairIKiS7_EEEERS1_IS2_IdS3_IiS8_SaIiEES5_SaIS9_IKdSH_EEEE@Base 3.2.1-1kern1
 _ZN8casacore10MSMetaData22_getScalarDoubleColumnERNS_6VectorIdEERNS_10TableProxyERKNS_6StringEii@Base 3.2.1-1kern1
 _ZN8casacore10MSMetaData22_getSpwsAndIntentsMapsERSt6vectorISt3setINS_6StringESt4lessIS3_ESaIS3_EESaIS7_EERSt3mapIS3_S2_IjS4_IjESaIjEES5_SaISt4pairIKS3_SE_EEE@Base 3.2.1-1kern1
 _ZN8casacore10MSMetaData23_createTimeStampRecordsERNS_6RecordERKNS0_17SubScanPropertiesE@Base 3.2.1-1kern1
 _ZN8casacore10MSMetaData23_getFieldsAndStatesMapsERSt3mapIiSt3setIiSt4lessIiESaIiEES4_SaISt4pairIKiS6_EEESC_@Base 3.2.1-1kern1
 _ZN8casacore10MSMetaData23getFirstExposureTimeMapEv@Base 3.2.1-1kern1
 _ZN8casacore10MSMetaData24_getFieldsAndIntentsMapsERSt6vectorISt3setINS_6StringESt4lessIS3_ESaIS3_EESaIS7_EERSt3mapIS3_S2_IiS4_IiESaIiEES5_SaISt4pairIKS3_SE_EEE@Base 3.2.1-1kern1
 _ZN8casacore10MSMetaData24getFieldNamesForFieldIDsERKSt6vectorIjSaIjEE@Base 3.2.1-1kern1
 _ZN8casacore10MSMetaData27_getScalarQuantDoubleColumnERNS_7QuantumINS_6VectorIdEEEERNS_10TableProxyERKNS_6StringEii@Base 3.2.1-1kern1
 _ZN8casacore10MSMetaData29getEffectiveTotalExposureTimeEv@Base 3.2.1-1kern1
 _ZN8casacore10MSMetaData35_modifyFirstExposureTimeIfNecessaryERSt3mapIiSt4pairIdNS_7QuantumIdEEESt4lessIiESaIS2_IKiS5_EEERKSB_@Base 3.2.1-1kern1
 _ZN8casacore10MSMetaData35_modifyFirstExposureTimeIfNecessaryERSt3mapIiSt4pairIdNS_7QuantumIdEEESt4lessIiESaIS2_IKiS5_EEEiddRKNS_4UnitE@Base 3.2.1-1kern1
 _ZN8casacore10MSMetaData4nPolEv@Base 3.2.1-1kern1
 _ZN8casacore10MSMetaData5nRowsENS0_15CorrelationTypeE@Base 3.2.1-1kern1
 _ZN8casacore10MSMetaData6nScansEv@Base 3.2.1-1kern1
 _ZN8casacore10MSMetaData7_sizeofERKNS_7QuantumINS_6VectorIdEEEE@Base 3.2.1-1kern1
 _ZN8casacore10MSMetaData7_sizeofERKSt3mapISt4pairIijESt3setIjSt4lessIjESaIjEES5_IS3_ESaIS2_IKS3_S8_EEE@Base 3.2.1-1kern1
 _ZN8casacore10MSMetaData7_sizeofERKSt3mapIdNS0_19TimeStampPropertiesESt4lessIdESaISt4pairIKdS2_EEE@Base 3.2.1-1kern1
 _ZN8casacore10MSMetaData7_sizeofERKSt6vectorINS_6StringESaIS2_EE@Base 3.2.1-1kern1
 _ZN8casacore10MSMetaData7_sizeofERKSt6vectorIS1_INS_6StringESaIS2_EESaIS4_EE@Base 3.2.1-1kern1
 _ZN8casacore10MSMetaData7_sizeofERKSt6vectorISt3mapIiNS_7QuantumIdEESt4lessIiESaISt4pairIKiS4_EEESaISB_EE@Base 3.2.1-1kern1
 _ZN8casacore10MSMetaData7_sizeofERKSt6vectorISt3setINS_6StringESt4lessIS3_ESaIS3_EESaIS7_EE@Base 3.2.1-1kern1
 _ZN8casacore10MSMetaData7_sizeofINS_7ScanKeyEjEEjRKSt3mapIT_St3setIT0_St4lessIS6_ESaIS6_EES7_IS4_ESaISt4pairIKS4_SA_EEE@Base 3.2.1-1kern1
 _ZN8casacore10MSMetaData7_sizeofIiiEEjRKSt3mapIT_St3setIT0_St4lessIS5_ESaIS5_EES6_IS3_ESaISt4pairIKS3_S9_EEE@Base 3.2.1-1kern1
 _ZN8casacore10MSMetaData7nArraysEv@Base 3.2.1-1kern1
 _ZN8casacore10MSMetaData9getFDMSpwEv@Base 3.2.1-1kern1
 _ZN8casacore10MSMetaData9getTDMSpwEv@Base 3.2.1-1kern1
 _ZN8casacore10MSMetaDataC1ERKPKNS_14MeasurementSetEf@Base 3.2.1-1kern1
 _ZN8casacore10MSMetaDataC2ERKPKNS_14MeasurementSetEf@Base 3.2.1-1kern1
 _ZN8casacore10MSMetaDataD0Ev@Base 3.2.1-1kern1
 _ZN8casacore10MSMetaDataD1Ev@Base 3.2.1-1kern1
 _ZN8casacore10MSMetaDataD2Ev@Base 3.2.1-1kern1
 _ZN8casacore10MSPointing8initMapsEv@Base 3.2.1-1kern1
 _ZN8casacore10MSPointingC1ERKNS_5TableE@Base 3.2.1-1kern1
 _ZN8casacore10MSPointingC1ERKNS_6StringENS_5Table11TableOptionE@Base 3.2.1-1kern1
 _ZN8casacore10MSPointingC1ERKNS_6StringES3_NS_5Table11TableOptionE@Base 3.2.1-1kern1
 _ZN8casacore10MSPointingC1ERKS0_@Base 3.2.1-1kern1
 _ZN8casacore10MSPointingC1ERNS_13SetupNewTableEjb@Base 3.2.1-1kern1
 _ZN8casacore10MSPointingC1Ev@Base 3.2.1-1kern1
 _ZN8casacore10MSPointingC2ERKNS_5TableE@Base 3.2.1-1kern1
 _ZN8casacore10MSPointingC2ERKNS_6StringENS_5Table11TableOptionE@Base 3.2.1-1kern1
 _ZN8casacore10MSPointingC2ERKNS_6StringES3_NS_5Table11TableOptionE@Base 3.2.1-1kern1
 _ZN8casacore10MSPointingC2ERKS0_@Base 3.2.1-1kern1
 _ZN8casacore10MSPointingC2ERNS_13SetupNewTableEjb@Base 3.2.1-1kern1
 _ZN8casacore10MSPointingC2Ev@Base 3.2.1-1kern1
 _ZN8casacore10MSPointingD0Ev@Base 3.2.1-1kern1
 _ZN8casacore10MSPointingD1Ev@Base 3.2.1-1kern1
 _ZN8casacore10MSPointingD2Ev@Base 3.2.1-1kern1
 _ZN8casacore10MSPointingaSERKS0_@Base 3.2.1-1kern1
 _ZN8casacore10MSSelUtil2ISt7complexIfEE11reorderDataERNS_5ArrayIS2_EERKNS_6MatrixIiEEi@Base 3.2.1-1kern1
 _ZN8casacore10MSSelUtil2ISt7complexIfEE11reorderDataERNS_5ArrayIS2_EERKNS_6VectorIiEEiSA_iRKS2_@Base 3.2.1-1kern1
 _ZN8casacore10MSSelUtil2ISt7complexIfEE11timeAverageERNS_5ArrayIbEERNS4_IS2_EERKS5_RKNS4_IfEE@Base 3.2.1-1kern1
 _ZN8casacore10MSSelUtil2IbE11reorderDataERNS_5ArrayIbEERKNS_6MatrixIiEEi@Base 3.2.1-1kern1
 _ZN8casacore10MSSelUtil2IbE11reorderDataERNS_5ArrayIbEERKNS_6VectorIiEEiS8_iRKb@Base 3.2.1-1kern1
 _ZN8casacore10MSSelUtil2IfE11reorderDataERNS_5ArrayIfEERKNS_6MatrixIiEEi@Base 3.2.1-1kern1
 _ZN8casacore10MSSelUtil2IfE11reorderDataERNS_5ArrayIfEERKNS_6VectorIiEEiS8_iRKf@Base 3.2.1-1kern1
 _ZN8casacore10MSSelUtil2IfE11timeAverageERNS_5ArrayIbEERNS2_IfEERKS3_RKS5_@Base 3.2.1-1kern1
 _ZN8casacore10MSSelector10iterOriginEv@Base 3.2.1-1kern1
 _ZN8casacore10MSSelector13initSelectionERKNS_6VectorIiEEb@Base 3.2.1-1kern1
 _ZN8casacore10MSSelector13initSelectionEb@Base 3.2.1-1kern1
 _ZN8casacore10MSSelector13reorderWeightERNS_5ArrayIfEE@Base 3.2.1-1kern1
 _ZN8casacore10MSSelector13selectChannelEiiii@Base 3.2.1-1kern1
 _ZN8casacore10MSSelector14checkSelectionEv@Base 3.2.1-1kern1
 _ZN8casacore10MSSelector14reorderFlagRowERNS_5ArrayIbEE@Base 3.2.1-1kern1
 _ZN8casacore10MSSelector15putAveragedFlagERKNS_5ArrayIbEERNS_11ArrayColumnIbEE@Base 3.2.1-1kern1
 _ZN8casacore10MSSelector18selectPolarizationERKNS_6VectorINS_6StringEEE@Base 3.2.1-1kern1
 _ZN8casacore10MSSelector5setMSERNS_14MeasurementSetE@Base 3.2.1-1kern1
 _ZN8casacore10MSSelector6selectERKNS_6RecordEb@Base 3.2.1-1kern1
 _ZN8casacore10MSSelector6selectERKNS_6StringE@Base 3.2.1-1kern1
 _ZN8casacore10MSSelector7getDataERKNS_6VectorINS_6StringEEEbiibb@Base 3.2.1-1kern1
 _ZN8casacore10MSSelector7iterEndEv@Base 3.2.1-1kern1
 _ZN8casacore10MSSelector7putDataERKNS_6RecordE@Base 3.2.1-1kern1
 _ZN8casacore10MSSelector8iterInitERKNS_6VectorINS_6StringEEEdib@Base 3.2.1-1kern1
 _ZN8casacore10MSSelector8iterNextEv@Base 3.2.1-1kern1
 _ZN8casacore10MSSelectorC1ERKS0_@Base 3.2.1-1kern1
 _ZN8casacore10MSSelectorC1ERNS_14MeasurementSetE@Base 3.2.1-1kern1
 _ZN8casacore10MSSelectorC1Ev@Base 3.2.1-1kern1
 _ZN8casacore10MSSelectorC2ERKS0_@Base 3.2.1-1kern1
 _ZN8casacore10MSSelectorC2ERNS_14MeasurementSetE@Base 3.2.1-1kern1
 _ZN8casacore10MSSelectorC2Ev@Base 3.2.1-1kern1
 _ZN8casacore10MSSelectorD1Ev@Base 3.2.1-1kern1
 _ZN8casacore10MSSelectorD2Ev@Base 3.2.1-1kern1
 _ZN8casacore10MSSelectoraSERKS0_@Base 3.2.1-1kern1
 _ZN8casacore10MSSpwIndex12convertToMKSEffRKNS_6StringE@Base 3.2.1-1kern1
 _ZN8casacore10MSSpwIndex12matchGTAndLTEPKfS2_@Base 3.2.1-1kern1
 _ZN8casacore10MSSpwIndex12matchGTAndLTEii@Base 3.2.1-1kern1
 _ZN8casacore10MSSpwIndex15findChanIndex_pERKfRKNS_6VectorIdEERKbS8_@Base 3.2.1-1kern1
 _ZN8casacore10MSSpwIndex16matchNameAsIntIDERNS_6VectorIiEE@Base 3.2.1-1kern1
 _ZN8casacore10MSSpwIndex17convertToSpwIndexERKNS_6VectorIfEERi@Base 3.2.1-1kern1
 _ZN8casacore10MSSpwIndex19matchFrequencyRangeEddRNS_6VectorIiEES3_S3_@Base 3.2.1-1kern1
 _ZN8casacore10MSSpwIndex19matchFrequencyRangeEffbf@Base 3.2.1-1kern1
 _ZN8casacore10MSSpwIndex19matchRegexOrPatternERKNS_6StringEb@Base 3.2.1-1kern1
 _ZN8casacore10MSSpwIndex21convertToChannelIndexERKNS_6VectorIiEERKNS1_IfEERi@Base 3.2.1-1kern1
 _ZN8casacore10MSSpwIndex7matchGTEPKf@Base 3.2.1-1kern1
 _ZN8casacore10MSSpwIndex7matchGTEi@Base 3.2.1-1kern1
 _ZN8casacore10MSSpwIndex7matchIdERKNS_6VectorIiEE@Base 3.2.1-1kern1
 _ZN8casacore10MSSpwIndex7matchLTEPKf@Base 3.2.1-1kern1
 _ZN8casacore10MSSpwIndex7matchLTEi@Base 3.2.1-1kern1
 _ZN8casacore10MSSpwIndex9matchNameERKNS_6StringE@Base 3.2.1-1kern1
 _ZN8casacore10MSSpwIndexC1ERKNS_16MSSpectralWindowE@Base 3.2.1-1kern1
 _ZN8casacore10MSSpwIndexC2ERKNS_16MSSpectralWindowE@Base 3.2.1-1kern1
 _ZN8casacore10MSSpwIndexD0Ev@Base 3.2.1-1kern1
 _ZN8casacore10MSSpwIndexD1Ev@Base 3.2.1-1kern1
 _ZN8casacore10MSSpwIndexD2Ev@Base 3.2.1-1kern1
 _ZN8casacore10MSSpwParse13columnAsTEN_pE@Base 3.2.1-1kern1
 _ZN8casacore10MSSpwParse13endOfCeremonyERKNS_13TableExprNodeE@Base 3.2.1-1kern1
 _ZN8casacore10MSSpwParse13thisMSSParserE@Base 3.2.1-1kern1
 _ZN8casacore10MSSpwParse21thisMSSpwErrorHandlerE@Base 3.2.1-1kern1
 _ZN8casacore10MSSpwParse22selectSpwIdsFromIDListERKNS_6VectorIiEEbb@Base 3.2.1-1kern1
 _ZN8casacore10MSSpwParse24selectChannelsFromIDListERNS_6VectorIiEES3_i@Base 3.2.1-1kern1
 _ZN8casacore10MSSpwParse24selectSpwIdsFromFreqListERKNS_6VectorIfEEf@Base 3.2.1-1kern1
 _ZN8casacore10MSSpwParse29selectChannelsFromDefaultListERNS_6VectorIiEES3_@Base 3.2.1-1kern1
 _ZN8casacore10MSSpwParse4nodeEv@Base 3.2.1-1kern1
 _ZN8casacore10MSSpwParse6idListE@Base 3.2.1-1kern1
 _ZN8casacore10MSSpwParse6node_pE@Base 3.2.1-1kern1
 _ZN8casacore10MSSpwParse8chanListE@Base 3.2.1-1kern1
 _ZN8casacore10MSSpwParse8ddidListE@Base 3.2.1-1kern1
 _ZN8casacore10MSSpwParseC1EPKNS_14MeasurementSetE@Base 3.2.1-1kern1
 _ZN8casacore10MSSpwParseC1ERKNS_16MSSpectralWindowERKNS_17MSDataDescriptionERKNS_13TableExprNodeE@Base 3.2.1-1kern1
 _ZN8casacore10MSSpwParseC1Ev@Base 3.2.1-1kern1
 _ZN8casacore10MSSpwParseC2EPKNS_14MeasurementSetE@Base 3.2.1-1kern1
 _ZN8casacore10MSSpwParseC2ERKNS_16MSSpectralWindowERKNS_17MSDataDescriptionERKNS_13TableExprNodeE@Base 3.2.1-1kern1
 _ZN8casacore10MSSpwParseC2Ev@Base 3.2.1-1kern1
 _ZN8casacore10MSSpwParseD1Ev@Base 3.2.1-1kern1
 _ZN8casacore10MSSpwParseD2Ev@Base 3.2.1-1kern1
 _ZN8casacore10MSValidIds5clearEv@Base 3.2.1-1kern1
 _ZN8casacore10MSValidIds6attachERKNS_14MeasurementSetE@Base 3.2.1-1kern1
 _ZN8casacore10MSValidIdsC1ERKNS_14MeasurementSetE@Base 3.2.1-1kern1
 _ZN8casacore10MSValidIdsC1ERKS0_@Base 3.2.1-1kern1
 _ZN8casacore10MSValidIdsC1Ev@Base 3.2.1-1kern1
 _ZN8casacore10MSValidIdsC2ERKNS_14MeasurementSetE@Base 3.2.1-1kern1
 _ZN8casacore10MSValidIdsC2ERKS0_@Base 3.2.1-1kern1
 _ZN8casacore10MSValidIdsC2Ev@Base 3.2.1-1kern1
 _ZN8casacore10MSValidIdsD1Ev@Base 3.2.1-1kern1
 _ZN8casacore10MSValidIdsD2Ev@Base 3.2.1-1kern1
 _ZN8casacore10MSValidIdsaSERKS0_@Base 3.2.1-1kern1
 _ZN8casacore10TabVecTempIdE3setERKd@Base 3.2.1-1kern1
 _ZN8casacore10TabVecTempIdE6putValEjRKd@Base 3.2.1-1kern1
 _ZN8casacore10TabVecTempIdED0Ev@Base 3.2.1-1kern1
 _ZN8casacore10TabVecTempIdED1Ev@Base 3.2.1-1kern1
 _ZN8casacore10TabVecTempIdED2Ev@Base 3.2.1-1kern1
 _ZN8casacore10formatTimeEd@Base 3.2.1-1kern1
 _ZN8casacore10mssSetDataERKNS_14MeasurementSetERS0_RKNS_6StringES6_S6_S6_S6_S6_S6_S6_S6_S6_S6_S6_PNS_11MSSelectionE@Base 3.2.1-1kern1
 _ZN8casacore10mssSetDataERKNS_14MeasurementSetERS0_RNS_6VectorINS4_INS_5SliceEEEEES8_RKNS_6StringESB_SB_SB_SB_SB_SB_SB_SB_SB_SB_SB_iPNS_11MSSelectionE@Base 3.2.1-1kern1
 _ZN8casacore10stripWhiteERKNS_6StringEb@Base 3.2.1-1kern1
 _ZN8casacore11MSCorrParse14selectCorrTypeERKNS_6StringE@Base 3.2.1-1kern1
 _ZN8casacore11MSCorrParse4nodeEv@Base 3.2.1-1kern1
 _ZN8casacore11MSCorrParse6node_pE@Base 3.2.1-1kern1
 _ZN8casacore11MSCorrParseC1EPKNS_14MeasurementSetE@Base 3.2.1-1kern1
 _ZN8casacore11MSCorrParseC1Ev@Base 3.2.1-1kern1
 _ZN8casacore11MSCorrParseC2EPKNS_14MeasurementSetE@Base 3.2.1-1kern1
 _ZN8casacore11MSCorrParseC2Ev@Base 3.2.1-1kern1
 _ZN8casacore11MSFeedIndex11matchFeedIdERKNS_6VectorIiEE@Base 3.2.1-1kern1
 _ZN8casacore11MSFeedIndex14matchAntennaIdERKiRNS_6VectorIiEE@Base 3.2.1-1kern1
 _ZN8casacore11MSFeedIndex22matchFeedPolznAndAngleERKiRKNS_6VectorINS_6StringEEERKNS3_IfEERKfRNS3_IiEE@Base 3.2.1-1kern1
 _ZN8casacore11MSFeedIndex6attachERKNS_6MSFeedE@Base 3.2.1-1kern1
 _ZN8casacore11MSFeedIndex7compareERKNS_5BlockIPvEES5_RKNS1_IiEEi@Base 3.2.1-1kern1
 _ZN8casacore11MSFeedIndex9attachIdsEv@Base 3.2.1-1kern1
 _ZN8casacore11MSFeedIndexC1ERKNS_6MSFeedE@Base 3.2.1-1kern1
 _ZN8casacore11MSFeedIndexC1ERKS0_@Base 3.2.1-1kern1
 _ZN8casacore11MSFeedIndexC1Ev@Base 3.2.1-1kern1
 _ZN8casacore11MSFeedIndexC2ERKNS_6MSFeedE@Base 3.2.1-1kern1
 _ZN8casacore11MSFeedIndexC2ERKS0_@Base 3.2.1-1kern1
 _ZN8casacore11MSFeedIndexC2Ev@Base 3.2.1-1kern1
 _ZN8casacore11MSFeedIndexD0Ev@Base 3.2.1-1kern1
 _ZN8casacore11MSFeedIndexD1Ev@Base 3.2.1-1kern1
 _ZN8casacore11MSFeedIndexD2Ev@Base 3.2.1-1kern1
 _ZN8casacore11MSFeedIndexaSERKS0_@Base 3.2.1-1kern1
 _ZN8casacore11MSFeedParse11addFeedPairERKNS_6MatrixIiEEiiNS0_16BaselineListTypeE@Base 3.2.1-1kern1
 _ZN8casacore11MSFeedParse12makeFeedListERNS_6VectorIiEERKS2_b@Base 3.2.1-1kern1
 _ZN8casacore11MSFeedParse13selectFeedIdsERKNS_6VectorIiEENS0_16BaselineListTypeEb@Base 3.2.1-1kern1
 _ZN8casacore11MSFeedParse13selectFeedIdsERKNS_6VectorIiEES4_NS0_16BaselineListTypeEb@Base 3.2.1-1kern1
 _ZN8casacore11MSFeedParse13thisMSFParserE@Base 3.2.1-1kern1
 _ZN8casacore11MSFeedParse14column1AsTEN_pE@Base 3.2.1-1kern1
 _ZN8casacore11MSFeedParse14column2AsTEN_pE@Base 3.2.1-1kern1
 _ZN8casacore11MSFeedParse16makeFeedPairListERKNS_6VectorIiEES4_RNS_6MatrixIiEENS0_16BaselineListTypeEb@Base 3.2.1-1kern1
 _ZN8casacore11MSFeedParse19thisMSFErrorHandlerE@Base 3.2.1-1kern1
 _ZN8casacore11MSFeedParse6setTENERNS_13TableExprNodeENS0_16BaselineListTypeEb@Base 3.2.1-1kern1
 _ZN8casacore11MSFeedParseC1EPKNS_14MeasurementSetE@Base 3.2.1-1kern1
 _ZN8casacore11MSFeedParseC1ERKNS_6MSFeedERKNS_13TableExprNodeES6_@Base 3.2.1-1kern1
 _ZN8casacore11MSFeedParseC1Ev@Base 3.2.1-1kern1
 _ZN8casacore11MSFeedParseC2EPKNS_14MeasurementSetE@Base 3.2.1-1kern1
 _ZN8casacore11MSFeedParseC2ERKNS_6MSFeedERKNS_13TableExprNodeES6_@Base 3.2.1-1kern1
 _ZN8casacore11MSFeedParseC2Ev@Base 3.2.1-1kern1
 _ZN8casacore11MSFeedParseD1Ev@Base 3.2.1-1kern1
 _ZN8casacore11MSFeedParseD2Ev@Base 3.2.1-1kern1
 _ZN8casacore11MSInterface10columnNameENS_11MSMainEnums17PredefinedColumnsE@Base 3.2.1-1kern1
 _ZN8casacore11MSInterface11mainColumnsEv@Base 3.2.1-1kern1
 _ZN8casacore11MSInterface11observationEv@Base 3.2.1-1kern1
 _ZN8casacore11MSInterface14spectralWindowEv@Base 3.2.1-1kern1
 _ZN8casacore11MSInterface15dataDescriptionEv@Base 3.2.1-1kern1
 _ZN8casacore11MSInterface4asMSEv@Base 3.2.1-1kern1
 _ZN8casacore11MSInterface4isMSEv@Base 3.2.1-1kern1
 _ZN8casacore11MSInterface5fieldEv@Base 3.2.1-1kern1
 _ZN8casacore11MSInterface7antennaEv@Base 3.2.1-1kern1
 _ZN8casacore11MSInterface8dataTypeEv@Base 3.2.1-1kern1
 _ZN8casacore11MSInterfaceC1ERKNS_5TableE@Base 3.2.1-1kern1
 _ZN8casacore11MSInterfaceC2ERKNS_5TableE@Base 3.2.1-1kern1
 _ZN8casacore11MSInterfaceD0Ev@Base 3.2.1-1kern1
 _ZN8casacore11MSInterfaceD1Ev@Base 3.2.1-1kern1
 _ZN8casacore11MSInterfaceD2Ev@Base 3.2.1-1kern1
 _ZN8casacore11MSPolnParse10getPolnIDsERKNS_6StringERNS_6VectorIiEE@Base 3.2.1-1kern1
 _ZN8casacore11MSPolnParse10setIDListsEiiRNS_6VectorIiEE@Base 3.2.1-1kern1
 _ZN8casacore11MSPolnParse12getPolnIDsV2ERKNS_6StringERNS_6VectorIiEE@Base 3.2.1-1kern1
 _ZN8casacore11MSPolnParse13getMapToDDIDsERNS_15MSDataDescIndexERNS_19MSPolarizationIndexERKNS_6VectorIiEERS6_S9_@Base 3.2.1-1kern1
 _ZN8casacore11MSPolnParse14getPolnIndicesERKiRKNS_6VectorIiEE@Base 3.2.1-1kern1
 _ZN8casacore11MSPolnParse15getMapToDDIDsV2ERKNS_6StringERKNS_6VectorIiEERS5_S8_@Base 3.2.1-1kern1
 _ZN8casacore11MSPolnParse16selectFromIDListERKNS_6VectorIiEE@Base 3.2.1-1kern1
 _ZN8casacore11MSPolnParse24matchPolIDsToPolTableRowERKNS_6VectorIiEERSt3mapIiS2_St4lessIiESaISt4pairIKiS2_EEERS2_b@Base 3.2.1-1kern1
 _ZN8casacore11MSPolnParse4nodeEv@Base 3.2.1-1kern1
 _ZN8casacore11MSPolnParse9theParserERKNS_6StringE@Base 3.2.1-1kern1
 _ZN8casacore11MSPolnParseC1EPKNS_14MeasurementSetE@Base 3.2.1-1kern1
 _ZN8casacore11MSPolnParseC1Ev@Base 3.2.1-1kern1
 _ZN8casacore11MSPolnParseC2EPKNS_14MeasurementSetE@Base 3.2.1-1kern1
 _ZN8casacore11MSPolnParseC2Ev@Base 3.2.1-1kern1
 _ZN8casacore11MSProcessor8initMapsEv@Base 3.2.1-1kern1
 _ZN8casacore11MSProcessorC1ERKNS_5TableE@Base 3.2.1-1kern1
 _ZN8casacore11MSProcessorC1ERKNS_6StringENS_5Table11TableOptionE@Base 3.2.1-1kern1
 _ZN8casacore11MSProcessorC1ERKNS_6StringES3_NS_5Table11TableOptionE@Base 3.2.1-1kern1
 _ZN8casacore11MSProcessorC1ERKS0_@Base 3.2.1-1kern1
 _ZN8casacore11MSProcessorC1ERNS_13SetupNewTableEjb@Base 3.2.1-1kern1
 _ZN8casacore11MSProcessorC1Ev@Base 3.2.1-1kern1
 _ZN8casacore11MSProcessorC2ERKNS_5TableE@Base 3.2.1-1kern1
 _ZN8casacore11MSProcessorC2ERKNS_6StringENS_5Table11TableOptionE@Base 3.2.1-1kern1
 _ZN8casacore11MSProcessorC2ERKNS_6StringES3_NS_5Table11TableOptionE@Base 3.2.1-1kern1
 _ZN8casacore11MSProcessorC2ERKS0_@Base 3.2.1-1kern1
 _ZN8casacore11MSProcessorC2ERNS_13SetupNewTableEjb@Base 3.2.1-1kern1
 _ZN8casacore11MSProcessorC2Ev@Base 3.2.1-1kern1
 _ZN8casacore11MSProcessorD0Ev@Base 3.2.1-1kern1
 _ZN8casacore11MSProcessorD1Ev@Base 3.2.1-1kern1
 _ZN8casacore11MSProcessorD2Ev@Base 3.2.1-1kern1
 _ZN8casacore11MSProcessoraSERKS0_@Base 3.2.1-1kern1
 _ZN8casacore11MSScanParse13accumulateIDsEii@Base 3.2.1-1kern1
 _ZN8casacore11MSScanParse13columnAsTEN_pE@Base 3.2.1-1kern1
 _ZN8casacore11MSScanParse13selectScanIdsERKNS_6VectorIiEE@Base 3.2.1-1kern1
 _ZN8casacore11MSScanParse13thisMSSParserE@Base 3.2.1-1kern1
 _ZN8casacore11MSScanParse14appendToIDListERKNS_6VectorIiEE@Base 3.2.1-1kern1
 _ZN8casacore11MSScanParse15selectScanIdsGTERKNS_6VectorIiEE@Base 3.2.1-1kern1
 _ZN8casacore11MSScanParse15selectScanIdsLTERKNS_6VectorIiEE@Base 3.2.1-1kern1
 _ZN8casacore11MSScanParse17selectScanIdsGTEQERKNS_6VectorIiEE@Base 3.2.1-1kern1
 _ZN8casacore11MSScanParse17selectScanIdsLTEQERKNS_6VectorIiEE@Base 3.2.1-1kern1
 _ZN8casacore11MSScanParse18selectRangeGEAndLEERKiS2_@Base 3.2.1-1kern1
 _ZN8casacore11MSScanParse18selectRangeGTAndLTERKiS2_@Base 3.2.1-1kern1
 _ZN8casacore11MSScanParse4nodeEv@Base 3.2.1-1kern1
 _ZN8casacore11MSScanParseC1EPKNS_14MeasurementSetE@Base 3.2.1-1kern1
 _ZN8casacore11MSScanParseC1EPKNS_14MeasurementSetERKNS_13TableExprNodeE@Base 3.2.1-1kern1
 _ZN8casacore11MSScanParseC1Ev@Base 3.2.1-1kern1
 _ZN8casacore11MSScanParseC2EPKNS_14MeasurementSetE@Base 3.2.1-1kern1
 _ZN8casacore11MSScanParseC2EPKNS_14MeasurementSetERKNS_13TableExprNodeE@Base 3.2.1-1kern1
 _ZN8casacore11MSScanParseC2Ev@Base 3.2.1-1kern1
 _ZN8casacore11MSScanParseD1Ev@Base 3.2.1-1kern1
 _ZN8casacore11MSScanParseD2Ev@Base 3.2.1-1kern1
 _ZN8casacore11MSSelection10exprIsNullENS0_10MSExprTypeE@Base 3.2.1-1kern1
 _ZN8casacore11MSSelection10setSpwExprERKNS_6StringE@Base 3.2.1-1kern1
 _ZN8casacore11MSSelection11deleteNodesEv@Base 3.2.1-1kern1
 _ZN8casacore11MSSelection11getChanListEPKNS_14MeasurementSetEib@Base 3.2.1-1kern1
 _ZN8casacore11MSSelection11nameExprStrENS_6VectorINS_6StringEEE@Base 3.2.1-1kern1
 _ZN8casacore11MSSelection11setFeedExprERKNS_6StringE@Base 3.2.1-1kern1
 _ZN8casacore11MSSelection11setPolnExprERKNS_6StringE@Base 3.2.1-1kern1
 _ZN8casacore11MSSelection11setScanExprERKNS_6StringE@Base 3.2.1-1kern1
 _ZN8casacore11MSSelection11setTaQLExprERKNS_6StringE@Base 3.2.1-1kern1
 _ZN8casacore11MSSelection11setTimeExprERKNS_6StringE@Base 3.2.1-1kern1
 _ZN8casacore11MSSelection12indexExprStrENS_6VectorIiEE@Base 3.2.1-1kern1
 _ZN8casacore11MSSelection12setArrayExprERKNS_6StringE@Base 3.2.1-1kern1
 _ZN8casacore11MSSelection12setFieldExprERKNS_6StringE@Base 3.2.1-1kern1
 _ZN8casacore11MSSelection12setStateExprERKNS_6StringE@Base 3.2.1-1kern1
 _ZN8casacore11MSSelection13definedAndSetERKNS_6RecordERKNS_6StringE@Base 3.2.1-1kern1
 _ZN8casacore11MSSelection13getChanSlicesERNS_6VectorINS1_INS_5SliceEEEEEPKNS_14MeasurementSetEi@Base 3.2.1-1kern1
 _ZN8casacore11MSSelection13getCorrSlicesERNS_6VectorINS1_INS_5SliceEEEEEPKNS_14MeasurementSetE@Base 3.2.1-1kern1
 _ZN8casacore11MSSelection13getSelectedMSERNS_14MeasurementSetERKNS_6StringE@Base 3.2.1-1kern1
 _ZN8casacore11MSSelection13setUvDistExprERKNS_6StringE@Base 3.2.1-1kern1
 _ZN8casacore11MSSelection14setAntennaExprERKNS_6StringE@Base 3.2.1-1kern1
 _ZN8casacore11MSSelection15getChanFreqListEPKNS_14MeasurementSetEb@Base 3.2.1-1kern1
 _ZN8casacore11MSSelection15runErrorHandlerEv@Base 3.2.1-1kern1
 _ZN8casacore11MSSelection15setErrorHandlerENS0_10MSExprTypeEPNS_23MSSelectionErrorHandlerEb@Base 3.2.1-1kern1
 _ZN8casacore11MSSelection15toTableExprNodeEPKNS_14MeasurementSetE@Base 3.2.1-1kern1
 _ZN8casacore11MSSelection15toTableExprNodeEPNS_17MSSelectableTableE@Base 3.2.1-1kern1
 _ZN8casacore11MSSelection16initErrorHandlerENS0_10MSExprTypeE@Base 3.2.1-1kern1
 _ZN8casacore11MSSelection17fromSelectionItemERKNS_6RecordE@Base 3.2.1-1kern1
 _ZN8casacore11MSSelection18clearErrorHandlersEv@Base 3.2.1-1kern1
 _ZN8casacore11MSSelection18setObservationExprERKNS_6StringE@Base 3.2.1-1kern1
 _ZN8casacore11MSSelection19deleteErrorHandlersEv@Base 3.2.1-1kern1
 _ZN8casacore11MSSelection5clearENS0_10MSExprTypeE@Base 3.2.1-1kern1
 _ZN8casacore11MSSelection5getMSEPNS_17MSSelectableTableE@Base 3.2.1-1kern1
 _ZN8casacore11MSSelection5resetERKNS_14MeasurementSetERKNS0_7MSSModeERKNS_6StringES9_S9_S9_S9_S9_S9_S9_S9_S9_S9_@Base 3.2.1-1kern1
 _ZN8casacore11MSSelection5resetERNS_17MSSelectableTableERKNS0_7MSSModeERKNS_6StringES8_S8_S8_S8_S8_S8_S8_S8_S8_S8_@Base 3.2.1-1kern1
 _ZN8casacore11MSSelection6getTENEPKNS_14MeasurementSetE@Base 3.2.1-1kern1
 _ZN8casacore11MSSelection6reset2ERKNS_14MeasurementSetERKNS0_7MSSModeERKNS_6StringES9_S9_S9_S9_S9_S9_S9_S9_S9_S9_S9_@Base 3.2.1-1kern1
 _ZN8casacore11MSSelection6reset2ERNS_17MSSelectableTableERKNS0_7MSSModeERKNS_6StringES8_S8_S8_S8_S8_S8_S8_S8_S8_S8_S8_@Base 3.2.1-1kern1
 _ZN8casacore11MSSelection7getExprENS0_10MSExprTypeE@Base 3.2.1-1kern1
 _ZN8casacore11MSSelection8setOrderENS0_10MSExprTypeE@Base 3.2.1-1kern1
 _ZN8casacore11MSSelectionC1ERKNS_14MeasurementSetERKNS0_7MSSModeERKNS_6StringES9_S9_S9_S9_S9_S9_S9_S9_S9_S9_S9_@Base 3.2.1-1kern1
 _ZN8casacore11MSSelectionC1ERKNS_6RecordE@Base 3.2.1-1kern1
 _ZN8casacore11MSSelectionC1ERKS0_@Base 3.2.1-1kern1
 _ZN8casacore11MSSelectionC1Ev@Base 3.2.1-1kern1
 _ZN8casacore11MSSelectionC2ERKNS_14MeasurementSetERKNS0_7MSSModeERKNS_6StringES9_S9_S9_S9_S9_S9_S9_S9_S9_S9_S9_@Base 3.2.1-1kern1
 _ZN8casacore11MSSelectionC2ERKNS_6RecordE@Base 3.2.1-1kern1
 _ZN8casacore11MSSelectionC2ERKS0_@Base 3.2.1-1kern1
 _ZN8casacore11MSSelectionC2Ev@Base 3.2.1-1kern1
 _ZN8casacore11MSSelectionD0Ev@Base 3.2.1-1kern1
 _ZN8casacore11MSSelectionD1Ev@Base 3.2.1-1kern1
 _ZN8casacore11MSSelectionD2Ev@Base 3.2.1-1kern1
 _ZN8casacore11MSSelectionaSERKS0_@Base 3.2.1-1kern1
 _ZN8casacore11MSTableImpl12addKeyToDescERNS_9TableDescERKNS_6StringEiS5_@Base 3.2.1-1kern1
 _ZN8casacore11MSTableImpl13addMeasColumnERNS_9TableDescERKNS_6StringES5_S5_@Base 3.2.1-1kern1
 _ZN8casacore11MSTableImpl13referenceCopyERKNS_5TableERKNS_6StringERKNS_5BlockIS4_EE@Base 3.2.1-1kern1
 _ZN8casacore11MSTableImpl15addColumnToDescERNS_9TableDescERKNS_6StringEiS5_S5_S5_iRKNS_9IPositionEiS5_@Base 3.2.1-1kern1
 _ZN8casacore11MSTableImpl16setupCompressionERNS_13SetupNewTableE@Base 3.2.1-1kern1
 _ZN8casacore11MSTableImpl20addColumnCompressionERNS_9TableDescERKNS_6StringEbS5_@Base 3.2.1-1kern1
 _ZN8casacore11MSTableImpl8initMapsEPNS_11MSFeedEnumsE@Base 3.2.1-1kern1
 _ZN8casacore11MSTableImpl8initMapsEPNS_11MSMainEnumsE@Base 3.2.1-1kern1
 _ZN8casacore11MSTableImpl8initMapsEPNS_12MSFieldEnumsE@Base 3.2.1-1kern1
 _ZN8casacore11MSTableImpl8initMapsEPNS_12MSStateEnumsE@Base 3.2.1-1kern1
 _ZN8casacore11MSTableImpl8initMapsEPNS_13MSSourceEnumsE@Base 3.2.1-1kern1
 _ZN8casacore11MSTableImpl8initMapsEPNS_13MSSysCalEnumsE@Base 3.2.1-1kern1
 _ZN8casacore11MSTableImpl8initMapsEPNS_14MSAntennaEnumsE@Base 3.2.1-1kern1
 _ZN8casacore11MSTableImpl8initMapsEPNS_14MSDopplerEnumsE@Base 3.2.1-1kern1
 _ZN8casacore11MSTableImpl8initMapsEPNS_14MSFlagCmdEnumsE@Base 3.2.1-1kern1
 _ZN8casacore11MSTableImpl8initMapsEPNS_14MSHistoryEnumsE@Base 3.2.1-1kern1
 _ZN8casacore11MSTableImpl8initMapsEPNS_14MSWeatherEnumsE@Base 3.2.1-1kern1
 _ZN8casacore11MSTableImpl8initMapsEPNS_15MSPointingEnumsE@Base 3.2.1-1kern1
 _ZN8casacore11MSTableImpl8initMapsEPNS_16MSProcessorEnumsE@Base 3.2.1-1kern1
 _ZN8casacore11MSTableImpl8initMapsEPNS_17MSFreqOffsetEnumsE@Base 3.2.1-1kern1
 _ZN8casacore11MSTableImpl8initMapsEPNS_18MSObservationEnumsE@Base 3.2.1-1kern1
 _ZN8casacore11MSTableImpl8initMapsEPNS_19MSPolarizationEnumsE@Base 3.2.1-1kern1
 _ZN8casacore11MSTableImpl8initMapsEPNS_21MSSpectralWindowEnumsE@Base 3.2.1-1kern1
 _ZN8casacore11MSTableImpl8initMapsEPNS_22MSDataDescriptionEnumsE@Base 3.2.1-1kern1
 _ZN8casacore11MSTableImpl8validateERKNS_11TableRecordERKNS_9TableDescE@Base 3.2.1-1kern1
 _ZN8casacore11MSTableImpl8validateERKNS_9TableDescES3_@Base 3.2.1-1kern1
 _ZN8casacore11MSTableImpl9colMapDefERSt3mapIiNS_6StringESt4lessIiESaISt4pairIKiS2_EEERS1_IiiS4_SaIS5_IS6_iEEESA_SA_SA_iRKS2_iSG_SG_SG_@Base 3.2.1-1kern1
 _ZN8casacore11MSTableImpl9keyMapDefERSt3mapIiNS_6StringESt4lessIiESaISt4pairIKiS2_EEERS1_IiiS4_SaIS5_IS6_iEEESA_iRKS2_iSG_@Base 3.2.1-1kern1
 _ZN8casacore11MSTableMapsD1Ev@Base 3.2.1-1kern1
 _ZN8casacore11MSTableMapsD2Ev@Base 3.2.1-1kern1
 _ZN8casacore11MSTimeParse10selectTimeERKNS_6MEpochEb@Base 3.2.1-1kern1
 _ZN8casacore11MSTimeParse10toTAIInSecERKNS_6MEpochE@Base 3.2.1-1kern1
 _ZN8casacore11MSTimeParse11getDefaultsEv@Base 3.2.1-1kern1
 _ZN8casacore11MSTimeParse11otherTens_pE@Base 3.2.1-1kern1
 _ZN8casacore11MSTimeParse11setDefaultsERNS_10TimeFieldsEb@Base 3.2.1-1kern1
 _ZN8casacore11MSTimeParse12addConditionERNS_13TableExprNodeE@Base 3.2.1-1kern1
 _ZN8casacore11MSTimeParse12copyDefaultsERNS_10TimeFieldsES2_@Base 3.2.1-1kern1
 _ZN8casacore11MSTimeParse12mainColumn_pE@Base 3.2.1-1kern1
 _ZN8casacore11MSTimeParse12selectTimeGTERKNS_6MEpochEb@Base 3.2.1-1kern1
 _ZN8casacore11MSTimeParse12selectTimeLTERKNS_6MEpochEb@Base 3.2.1-1kern1
 _ZN8casacore11MSTimeParse13columnAsTEN_pE@Base 3.2.1-1kern1
 _ZN8casacore11MSTimeParse13thisMSTParserE@Base 3.2.1-1kern1
 _ZN8casacore11MSTimeParse15selectTimeRangeERKNS_6MEpochES3_bf@Base 3.2.1-1kern1
 _ZN8casacore11MSTimeParse15yearTimeConvertERKNS_10TimeFieldsE@Base 3.2.1-1kern1
 _ZN8casacore11MSTimeParse15yearTimeConvertEiiiiiii@Base 3.2.1-1kern1
 _ZN8casacore11MSTimeParse18accumulateTimeListEddd@Base 3.2.1-1kern1
 _ZN8casacore11MSTimeParse19defaultTimeComputedE@Base 3.2.1-1kern1
 _ZN8casacore11MSTimeParse4ms_pE@Base 3.2.1-1kern1
 _ZN8casacore11MSTimeParse4nodeEv@Base 3.2.1-1kern1
 _ZN8casacore11MSTimeParse6node_pE@Base 3.2.1-1kern1
 _ZN8casacore11MSTimeParse7daytimeE@Base 3.2.1-1kern1
 _ZN8casacore11MSTimeParse8timeListE@Base 3.2.1-1kern1
 _ZN8casacore11MSTimeParse8validateERKNS_10TimeFieldsE@Base 3.2.1-1kern1
 _ZN8casacore11MSTimeParse8yeartimeE@Base 3.2.1-1kern1
 _ZN8casacore11MSTimeParseC1EPKNS_14MeasurementSetERKNS_13TableExprNodeERNS_22MSSelectableMainColumnES6_b@Base 3.2.1-1kern1
 _ZN8casacore11MSTimeParseC1EPKNS_14MeasurementSetERKNS_13TableExprNodeEb@Base 3.2.1-1kern1
 _ZN8casacore11MSTimeParseC1Ev@Base 3.2.1-1kern1
 _ZN8casacore11MSTimeParseC2EPKNS_14MeasurementSetERKNS_13TableExprNodeERNS_22MSSelectableMainColumnES6_b@Base 3.2.1-1kern1
 _ZN8casacore11MSTimeParseC2EPKNS_14MeasurementSetERKNS_13TableExprNodeEb@Base 3.2.1-1kern1
 _ZN8casacore11MSTimeParseC2Ev@Base 3.2.1-1kern1
 _ZN8casacore11MSTimeParseD1Ev@Base 3.2.1-1kern1
 _ZN8casacore11MSTimeParseD2Ev@Base 3.2.1-1kern1
 _ZN8casacore11MaskedArrayISt7complexIfEEC1ERKNS_5ArrayIS2_EERKNS4_IbEE@Base 3.2.1-1kern1
 _ZN8casacore11MaskedArrayISt7complexIfEEC2ERKNS_5ArrayIS2_EERKNS4_IbEE@Base 3.2.1-1kern1
 _ZN8casacore11MaskedArrayISt7complexIfEED1Ev@Base 3.2.1-1kern1
 _ZN8casacore11MaskedArrayISt7complexIfEED2Ev@Base 3.2.1-1kern1
 _ZN8casacore11MaskedArrayISt7complexIfEEaSERKS2_@Base 3.2.1-1kern1
 _ZN8casacore11MaskedArrayIdEC1ERKNS_5ArrayIdEERKNS2_IbEEb@Base 3.2.1-1kern1
 _ZN8casacore11MaskedArrayIdEC2ERKNS_5ArrayIdEERKNS2_IbEEb@Base 3.2.1-1kern1
 _ZN8casacore11MaskedArrayIdED1Ev@Base 3.2.1-1kern1
 _ZN8casacore11MaskedArrayIdED2Ev@Base 3.2.1-1kern1
 _ZN8casacore11MaskedArrayIfEC1ERKNS_5ArrayIfEERKNS2_IbEE@Base 3.2.1-1kern1
 _ZN8casacore11MaskedArrayIfEC2ERKNS_5ArrayIfEERKNS2_IbEE@Base 3.2.1-1kern1
 _ZN8casacore11MaskedArrayIfED1Ev@Base 3.2.1-1kern1
 _ZN8casacore11MaskedArrayIfED2Ev@Base 3.2.1-1kern1
 _ZN8casacore11MaskedArrayIfEaSERKf@Base 3.2.1-1kern1
 _ZN8casacore11MaskedArrayIiE7setDataERKNS_5ArrayIiEERKNS2_IbEEb@Base 3.2.1-1kern1
 _ZN8casacore11MaskedArrayIiEC1ERKNS_5ArrayIiEERKNS2_IbEE@Base 3.2.1-1kern1
 _ZN8casacore11MaskedArrayIiEC2ERKNS_5ArrayIiEERKNS2_IbEE@Base 3.2.1-1kern1
 _ZN8casacore11MaskedArrayIiED1Ev@Base 3.2.1-1kern1
 _ZN8casacore11MaskedArrayIiED2Ev@Base 3.2.1-1kern1
 _ZN8casacore11MeasConvertINS_10MDirectionEE12addFrameTypeEj@Base 3.2.1-1kern1
 _ZN8casacore11MeasConvertINS_10MDirectionEE3setERKNS_4UnitE@Base 3.2.1-1kern1
 _ZN8casacore11MeasConvertINS_10MDirectionEE3setERKNS_9MeasValueE@Base 3.2.1-1kern1
 _ZN8casacore11MeasConvertINS_10MDirectionEE3setERKS1_RKNS_7MeasRefIS1_EE@Base 3.2.1-1kern1
 _ZN8casacore11MeasConvertINS_10MDirectionEE4initEv@Base 3.2.1-1kern1
 _ZN8casacore11MeasConvertINS_10MDirectionEE5clearEv@Base 3.2.1-1kern1
 _ZN8casacore11MeasConvertINS_10MDirectionEE6createEv@Base 3.2.1-1kern1
 _ZN8casacore11MeasConvertINS_10MDirectionEE7convertERKNS_11MVDirectionE@Base 3.2.1-1kern1
 _ZN8casacore11MeasConvertINS_10MDirectionEE7convertEv@Base 3.2.1-1kern1
 _ZN8casacore11MeasConvertINS_10MDirectionEE8setModelERKNS_7MeasureE@Base 3.2.1-1kern1
 _ZN8casacore11MeasConvertINS_10MDirectionEE9addMethodEj@Base 3.2.1-1kern1
 _ZN8casacore11MeasConvertINS_10MDirectionEEC1ENS1_5TypesES3_@Base 3.2.1-1kern1
 _ZN8casacore11MeasConvertINS_10MDirectionEEC1ERKS1_RKNS_7MeasRefIS1_EE@Base 3.2.1-1kern1
 _ZN8casacore11MeasConvertINS_10MDirectionEEC1Ev@Base 3.2.1-1kern1
 _ZN8casacore11MeasConvertINS_10MDirectionEEC2ENS1_5TypesES3_@Base 3.2.1-1kern1
 _ZN8casacore11MeasConvertINS_10MDirectionEEC2ERKS1_RKNS_7MeasRefIS1_EE@Base 3.2.1-1kern1
 _ZN8casacore11MeasConvertINS_10MDirectionEEC2Ev@Base 3.2.1-1kern1
 _ZN8casacore11MeasConvertINS_10MDirectionEED0Ev@Base 3.2.1-1kern1
 _ZN8casacore11MeasConvertINS_10MDirectionEED1Ev@Base 3.2.1-1kern1
 _ZN8casacore11MeasConvertINS_10MDirectionEED2Ev@Base 3.2.1-1kern1
 _ZN8casacore11MeasConvertINS_10MDirectionEEclERKNS_11MVDirectionE@Base 3.2.1-1kern1
 _ZN8casacore11MeasConvertINS_10MDirectionEEclEv@Base 3.2.1-1kern1
 _ZN8casacore11MeasConvertINS_10MFrequencyEE12addFrameTypeEj@Base 3.2.1-1kern1
 _ZN8casacore11MeasConvertINS_10MFrequencyEE3setERKNS_4UnitE@Base 3.2.1-1kern1
 _ZN8casacore11MeasConvertINS_10MFrequencyEE3setERKNS_9MeasValueE@Base 3.2.1-1kern1
 _ZN8casacore11MeasConvertINS_10MFrequencyEE4initEv@Base 3.2.1-1kern1
 _ZN8casacore11MeasConvertINS_10MFrequencyEE5clearEv@Base 3.2.1-1kern1
 _ZN8casacore11MeasConvertINS_10MFrequencyEE6createEv@Base 3.2.1-1kern1
 _ZN8casacore11MeasConvertINS_10MFrequencyEE7convertERKNS_11MVFrequencyE@Base 3.2.1-1kern1
 _ZN8casacore11MeasConvertINS_10MFrequencyEE7convertEv@Base 3.2.1-1kern1
 _ZN8casacore11MeasConvertINS_10MFrequencyEE8setModelERKNS_7MeasureE@Base 3.2.1-1kern1
 _ZN8casacore11MeasConvertINS_10MFrequencyEE9addMethodEj@Base 3.2.1-1kern1
 _ZN8casacore11MeasConvertINS_10MFrequencyEEC1ERKNS_4UnitERKNS_7MeasRefIS1_EES9_@Base 3.2.1-1kern1
 _ZN8casacore11MeasConvertINS_10MFrequencyEEC1ERKS1_RKNS_7MeasRefIS1_EE@Base 3.2.1-1kern1
 _ZN8casacore11MeasConvertINS_10MFrequencyEEC2ERKNS_4UnitERKNS_7MeasRefIS1_EES9_@Base 3.2.1-1kern1
 _ZN8casacore11MeasConvertINS_10MFrequencyEEC2ERKS1_RKNS_7MeasRefIS1_EE@Base 3.2.1-1kern1
 _ZN8casacore11MeasConvertINS_10MFrequencyEED0Ev@Base 3.2.1-1kern1
 _ZN8casacore11MeasConvertINS_10MFrequencyEED1Ev@Base 3.2.1-1kern1
 _ZN8casacore11MeasConvertINS_10MFrequencyEED2Ev@Base 3.2.1-1kern1
 _ZN8casacore11MeasConvertINS_10MFrequencyEEclERKS1_@Base 3.2.1-1kern1
 _ZN8casacore11MeasConvertINS_15MRadialVelocityEE12addFrameTypeEj@Base 3.2.1-1kern1
 _ZN8casacore11MeasConvertINS_15MRadialVelocityEE3setERKNS_4UnitE@Base 3.2.1-1kern1
 _ZN8casacore11MeasConvertINS_15MRadialVelocityEE3setERKNS_9MeasValueE@Base 3.2.1-1kern1
 _ZN8casacore11MeasConvertINS_15MRadialVelocityEE4initEv@Base 3.2.1-1kern1
 _ZN8casacore11MeasConvertINS_15MRadialVelocityEE5clearEv@Base 3.2.1-1kern1
 _ZN8casacore11MeasConvertINS_15MRadialVelocityEE6createEv@Base 3.2.1-1kern1
 _ZN8casacore11MeasConvertINS_15MRadialVelocityEE7convertERKNS_16MVRadialVelocityE@Base 3.2.1-1kern1
 _ZN8casacore11MeasConvertINS_15MRadialVelocityEE7convertEv@Base 3.2.1-1kern1
 _ZN8casacore11MeasConvertINS_15MRadialVelocityEE8setModelERKNS_7MeasureE@Base 3.2.1-1kern1
 _ZN8casacore11MeasConvertINS_15MRadialVelocityEE9addMethodEj@Base 3.2.1-1kern1
 _ZN8casacore11MeasConvertINS_15MRadialVelocityEEC1ERKS1_RKNS_7MeasRefIS1_EE@Base 3.2.1-1kern1
 _ZN8casacore11MeasConvertINS_15MRadialVelocityEEC1Ev@Base 3.2.1-1kern1
 _ZN8casacore11MeasConvertINS_15MRadialVelocityEEC2ERKS1_RKNS_7MeasRefIS1_EE@Base 3.2.1-1kern1
 _ZN8casacore11MeasConvertINS_15MRadialVelocityEEC2Ev@Base 3.2.1-1kern1
 _ZN8casacore11MeasConvertINS_15MRadialVelocityEED0Ev@Base 3.2.1-1kern1
 _ZN8casacore11MeasConvertINS_15MRadialVelocityEED1Ev@Base 3.2.1-1kern1
 _ZN8casacore11MeasConvertINS_15MRadialVelocityEED2Ev@Base 3.2.1-1kern1
 _ZN8casacore11MeasConvertINS_4MuvwEE12addFrameTypeEj@Base 3.2.1-1kern1
 _ZN8casacore11MeasConvertINS_4MuvwEE3setERKNS_4UnitE@Base 3.2.1-1kern1
 _ZN8casacore11MeasConvertINS_4MuvwEE3setERKNS_9MeasValueE@Base 3.2.1-1kern1
 _ZN8casacore11MeasConvertINS_4MuvwEE4initEv@Base 3.2.1-1kern1
 _ZN8casacore11MeasConvertINS_4MuvwEE5clearEv@Base 3.2.1-1kern1
 _ZN8casacore11MeasConvertINS_4MuvwEE6createEv@Base 3.2.1-1kern1
 _ZN8casacore11MeasConvertINS_4MuvwEE7convertEv@Base 3.2.1-1kern1
 _ZN8casacore11MeasConvertINS_4MuvwEE8setModelERKNS_7MeasureE@Base 3.2.1-1kern1
 _ZN8casacore11MeasConvertINS_4MuvwEE9addMethodEj@Base 3.2.1-1kern1
 _ZN8casacore11MeasConvertINS_4MuvwEEC1ERKS1_RKNS_7MeasRefIS1_EE@Base 3.2.1-1kern1
 _ZN8casacore11MeasConvertINS_4MuvwEEC2ERKS1_RKNS_7MeasRefIS1_EE@Base 3.2.1-1kern1
 _ZN8casacore11MeasConvertINS_4MuvwEED0Ev@Base 3.2.1-1kern1
 _ZN8casacore11MeasConvertINS_4MuvwEED1Ev@Base 3.2.1-1kern1
 _ZN8casacore11MeasConvertINS_4MuvwEED2Ev@Base 3.2.1-1kern1
 _ZN8casacore11MeasConvertINS_6MEpochEE12addFrameTypeEj@Base 3.2.1-1kern1
 _ZN8casacore11MeasConvertINS_6MEpochEE3setERKNS_4UnitE@Base 3.2.1-1kern1
 _ZN8casacore11MeasConvertINS_6MEpochEE3setERKNS_9MeasValueE@Base 3.2.1-1kern1
 _ZN8casacore11MeasConvertINS_6MEpochEE4initEv@Base 3.2.1-1kern1
 _ZN8casacore11MeasConvertINS_6MEpochEE5clearEv@Base 3.2.1-1kern1
 _ZN8casacore11MeasConvertINS_6MEpochEE6createEv@Base 3.2.1-1kern1
 _ZN8casacore11MeasConvertINS_6MEpochEE7convertERKNS_7MVEpochE@Base 3.2.1-1kern1
 _ZN8casacore11MeasConvertINS_6MEpochEE7convertEv@Base 3.2.1-1kern1
 _ZN8casacore11MeasConvertINS_6MEpochEE8setModelERKNS_7MeasureE@Base 3.2.1-1kern1
 _ZN8casacore11MeasConvertINS_6MEpochEE9addMethodEj@Base 3.2.1-1kern1
 _ZN8casacore11MeasConvertINS_6MEpochEEC1ERKS1_NS1_5TypesE@Base 3.2.1-1kern1
 _ZN8casacore11MeasConvertINS_6MEpochEEC1ERKS1_RKNS_7MeasRefIS1_EE@Base 3.2.1-1kern1
 _ZN8casacore11MeasConvertINS_6MEpochEEC1Ev@Base 3.2.1-1kern1
 _ZN8casacore11MeasConvertINS_6MEpochEEC2ERKS1_NS1_5TypesE@Base 3.2.1-1kern1
 _ZN8casacore11MeasConvertINS_6MEpochEEC2ERKS1_RKNS_7MeasRefIS1_EE@Base 3.2.1-1kern1
 _ZN8casacore11MeasConvertINS_6MEpochEEC2Ev@Base 3.2.1-1kern1
 _ZN8casacore11MeasConvertINS_6MEpochEED0Ev@Base 3.2.1-1kern1
 _ZN8casacore11MeasConvertINS_6MEpochEED1Ev@Base 3.2.1-1kern1
 _ZN8casacore11MeasConvertINS_6MEpochEED2Ev@Base 3.2.1-1kern1
 _ZN8casacore11MeasConvertINS_6MEpochEEclEv@Base 3.2.1-1kern1
 _ZN8casacore11MeasConvertINS_9MBaselineEE12addFrameTypeEj@Base 3.2.1-1kern1
 _ZN8casacore11MeasConvertINS_9MBaselineEE3setERKNS_4UnitE@Base 3.2.1-1kern1
 _ZN8casacore11MeasConvertINS_9MBaselineEE3setERKNS_9MeasValueE@Base 3.2.1-1kern1
 _ZN8casacore11MeasConvertINS_9MBaselineEE4initEv@Base 3.2.1-1kern1
 _ZN8casacore11MeasConvertINS_9MBaselineEE5clearEv@Base 3.2.1-1kern1
 _ZN8casacore11MeasConvertINS_9MBaselineEE6createEv@Base 3.2.1-1kern1
 _ZN8casacore11MeasConvertINS_9MBaselineEE7convertERKNS_10MVBaselineE@Base 3.2.1-1kern1
 _ZN8casacore11MeasConvertINS_9MBaselineEE7convertEv@Base 3.2.1-1kern1
 _ZN8casacore11MeasConvertINS_9MBaselineEE8setModelERKNS_7MeasureE@Base 3.2.1-1kern1
 _ZN8casacore11MeasConvertINS_9MBaselineEE9addMethodEj@Base 3.2.1-1kern1
 _ZN8casacore11MeasConvertINS_9MBaselineEEC1ERKS1_RKNS_7MeasRefIS1_EE@Base 3.2.1-1kern1
 _ZN8casacore11MeasConvertINS_9MBaselineEEC2ERKS1_RKNS_7MeasRefIS1_EE@Base 3.2.1-1kern1
 _ZN8casacore11MeasConvertINS_9MBaselineEED0Ev@Base 3.2.1-1kern1
 _ZN8casacore11MeasConvertINS_9MBaselineEED1Ev@Base 3.2.1-1kern1
 _ZN8casacore11MeasConvertINS_9MBaselineEED2Ev@Base 3.2.1-1kern1
 _ZN8casacore11MeasConvertINS_9MPositionEE12addFrameTypeEj@Base 3.2.1-1kern1
 _ZN8casacore11MeasConvertINS_9MPositionEE3setERKNS_4UnitE@Base 3.2.1-1kern1
 _ZN8casacore11MeasConvertINS_9MPositionEE3setERKNS_9MeasValueE@Base 3.2.1-1kern1
 _ZN8casacore11MeasConvertINS_9MPositionEE4initEv@Base 3.2.1-1kern1
 _ZN8casacore11MeasConvertINS_9MPositionEE5clearEv@Base 3.2.1-1kern1
 _ZN8casacore11MeasConvertINS_9MPositionEE6createEv@Base 3.2.1-1kern1
 _ZN8casacore11MeasConvertINS_9MPositionEE7convertERKNS_10MVPositionE@Base 3.2.1-1kern1
 _ZN8casacore11MeasConvertINS_9MPositionEE7convertEv@Base 3.2.1-1kern1
 _ZN8casacore11MeasConvertINS_9MPositionEE8setModelERKNS_7MeasureE@Base 3.2.1-1kern1
 _ZN8casacore11MeasConvertINS_9MPositionEE9addMethodEj@Base 3.2.1-1kern1
 _ZN8casacore11MeasConvertINS_9MPositionEEC1ERKS1_RKNS_7MeasRefIS1_EE@Base 3.2.1-1kern1
 _ZN8casacore11MeasConvertINS_9MPositionEEC2ERKS1_RKNS_7MeasRefIS1_EE@Base 3.2.1-1kern1
 _ZN8casacore11MeasConvertINS_9MPositionEED0Ev@Base 3.2.1-1kern1
 _ZN8casacore11MeasConvertINS_9MPositionEED1Ev@Base 3.2.1-1kern1
 _ZN8casacore11MeasConvertINS_9MPositionEED2Ev@Base 3.2.1-1kern1
 _ZN8casacore11MeasConvertINS_9MPositionEEclERKNS_10MVPositionE@Base 3.2.1-1kern1
 _ZN8casacore11MeasConvertINS_9MPositionEEclEv@Base 3.2.1-1kern1
 _ZN8casacore11TableVectorIdEC1ERKNS_5TableERKNS_6StringE@Base 3.2.1-1kern1
 _ZN8casacore11TableVectorIdEC2ERKNS_5TableERKNS_6StringE@Base 3.2.1-1kern1
 _ZN8casacore11TableVectorIiEC1ERKNS_5TableERKNS_6StringE@Base 3.2.1-1kern1
 _ZN8casacore11TableVectorIiEC2ERKNS_5TableERKNS_6StringE@Base 3.2.1-1kern1
 _ZN8casacore11mssSetData2ERKNS_14MeasurementSetERS0_RKNS_6StringES6_S6_S6_S6_S6_S6_S6_S6_S6_S6_S6_S6_PNS_11MSSelectionE@Base 3.2.1-1kern1
 _ZN8casacore11mssSetData2ERKNS_14MeasurementSetERS0_RNS_6VectorINS4_INS_5SliceEEEEES8_RKNS_6StringESB_SB_SB_SB_SB_SB_SB_SB_SB_SB_SB_SB_iPNS_11MSSelectionE@Base 3.2.1-1kern1
 _ZN8casacore11objcopyctorINS_10MDirectionEEEvPT_PKS2_m@Base 3.2.1-1kern1
 _ZN8casacore11objcopyctorINS_10MDirectionEEEvPT_PKS2_mmm@Base 3.2.1-1kern1
 _ZN8casacore11objcopyctorINS_10MFrequencyEEEvPT_PKS2_m@Base 3.2.1-1kern1
 _ZN8casacore11objcopyctorINS_10MFrequencyEEEvPT_PKS2_mmm@Base 3.2.1-1kern1
 _ZN8casacore11objcopyctorINS_11RigidVectorIdLi2EEEEEvPT_PKS3_mmm@Base 3.2.1-1kern1
 _ZN8casacore11objcopyctorINS_12SquareMatrixISt7complexIfELi2EEEEEvPT_PKS5_mmm@Base 3.2.1-1kern1
 _ZN8casacore11objcopyctorINS_4UnitEEEvPT_PKS2_m@Base 3.2.1-1kern1
 _ZN8casacore11objcopyctorINS_4UnitEEEvPT_PKS2_mmm@Base 3.2.1-1kern1
 _ZN8casacore11objcopyctorINS_5SliceEEEvPT_PKS2_mmm@Base 3.2.1-1kern1
 _ZN8casacore11objcopyctorINS_6Stokes11StokesTypesEEEvPT_PKS3_mmm@Base 3.2.1-1kern1
 _ZN8casacore11objcopyctorINS_6VectorIiEEEEvPT_PKS3_m@Base 3.2.1-1kern1
 _ZN8casacore11objcopyctorINS_6VectorIiEEEEvPT_PKS3_mmm@Base 3.2.1-1kern1
 _ZN8casacore11objcopyctorINS_7QuantumIdEEEEvPT_PKS3_m@Base 3.2.1-1kern1
 _ZN8casacore11objcopyctorINS_7QuantumIdEEEEvPT_PKS3_mmm@Base 3.2.1-1kern1
 _ZN8casacore11objcopyctorINS_9MPositionEEEvPT_PKS2_m@Base 3.2.1-1kern1
 _ZN8casacore11objcopyctorINS_9MPositionEEEvPT_PKS2_mmm@Base 3.2.1-1kern1
 _ZN8casacore11objcopyctorIPNS_9MeasCometEEEvPT_PKS3_mmm@Base 3.2.1-1kern1
 _ZN8casacore11scanNumbersERKSt3setINS_7ScanKeyESt4lessIS1_ESaIS1_EE@Base 3.2.1-1kern1
 _ZN8casacore12MSArrayParse13accumulateIDsEii@Base 3.2.1-1kern1
 _ZN8casacore12MSArrayParse13thisMSAParserE@Base 3.2.1-1kern1
 _ZN8casacore12MSArrayParse14appendToIDListERKNS_6VectorIiEE@Base 3.2.1-1kern1
 _ZN8casacore12MSArrayParse14selectArrayIdsERKNS_6VectorIiEE@Base 3.2.1-1kern1
 _ZN8casacore12MSArrayParse16selectArrayIdsGTERKNS_6VectorIiEE@Base 3.2.1-1kern1
 _ZN8casacore12MSArrayParse16selectArrayIdsLTERKNS_6VectorIiEE@Base 3.2.1-1kern1
 _ZN8casacore12MSArrayParse18selectArrayIdsGTEQERKNS_6VectorIiEE@Base 3.2.1-1kern1
 _ZN8casacore12MSArrayParse18selectArrayIdsLTEQERKNS_6VectorIiEE@Base 3.2.1-1kern1
 _ZN8casacore12MSArrayParse18selectRangeGEAndLEERKiS2_@Base 3.2.1-1kern1
 _ZN8casacore12MSArrayParse18selectRangeGTAndLTERKiS2_@Base 3.2.1-1kern1
 _ZN8casacore12MSArrayParse4nodeEv@Base 3.2.1-1kern1
 _ZN8casacore12MSArrayParseC1EPKNS_14MeasurementSetE@Base 3.2.1-1kern1
 _ZN8casacore12MSArrayParseC1Ev@Base 3.2.1-1kern1
 _ZN8casacore12MSArrayParseC2EPKNS_14MeasurementSetE@Base 3.2.1-1kern1
 _ZN8casacore12MSArrayParseC2Ev@Base 3.2.1-1kern1
 _ZN8casacore12MSFieldIndex12maskFieldIDsERKNS_6VectorIiEE@Base 3.2.1-1kern1
 _ZN8casacore12MSFieldIndex13matchSourceIdERKNS_6VectorIiEE@Base 3.2.1-1kern1
 _ZN8casacore12MSFieldIndex13matchSourceIdERKi@Base 3.2.1-1kern1
 _ZN8casacore12MSFieldIndex14matchFieldCodeERKNS_6StringE@Base 3.2.1-1kern1
 _ZN8casacore12MSFieldIndex14matchFieldIDGTEi@Base 3.2.1-1kern1
 _ZN8casacore12MSFieldIndex14matchFieldIDLTEi@Base 3.2.1-1kern1
 _ZN8casacore12MSFieldIndex14matchFieldNameERKNS_6StringE@Base 3.2.1-1kern1
 _ZN8casacore12MSFieldIndex14matchFieldNameERKNS_6VectorINS_6StringEEE@Base 3.2.1-1kern1
 _ZN8casacore12MSFieldIndex15validateIndicesERKNS_6VectorIiEE@Base 3.2.1-1kern1
 _ZN8casacore12MSFieldIndex17matchSubFieldNameERKNS_6StringE@Base 3.2.1-1kern1
 _ZN8casacore12MSFieldIndex19matchFieldIDGTAndLTEii@Base 3.2.1-1kern1
 _ZN8casacore12MSFieldIndex19matchIdAgainstNamesERNS_6VectorIiEE@Base 3.2.1-1kern1
 _ZN8casacore12MSFieldIndex20matchFieldNameOrCodeERKNS_6StringE@Base 3.2.1-1kern1
 _ZN8casacore12MSFieldIndex24matchFieldRegexOrPatternERKNS_6StringEb@Base 3.2.1-1kern1
 _ZN8casacore12MSFieldIndex28matchFieldCodeRegexOrPatternERKNS_6StringEb@Base 3.2.1-1kern1
 _ZN8casacore12MSFieldIndex28matchFieldNameRegexOrPatternERKNS_6StringEb@Base 3.2.1-1kern1
 _ZN8casacore12MSFieldIndexC1ERKNS_7MSFieldE@Base 3.2.1-1kern1
 _ZN8casacore12MSFieldIndexC2ERKNS_7MSFieldE@Base 3.2.1-1kern1
 _ZN8casacore12MSFieldIndexD0Ev@Base 3.2.1-1kern1
 _ZN8casacore12MSFieldIndexD1Ev@Base 3.2.1-1kern1
 _ZN8casacore12MSFieldIndexD2Ev@Base 3.2.1-1kern1
 _ZN8casacore12MSFieldParse13columnAsTEN_pE@Base 3.2.1-1kern1
 _ZN8casacore12MSFieldParse13thisMSFParserE@Base 3.2.1-1kern1
 _ZN8casacore12MSFieldParse14selectFieldIdsERKNS_6VectorIiEE@Base 3.2.1-1kern1
 _ZN8casacore12MSFieldParse4nodeEv@Base 3.2.1-1kern1
 _ZN8casacore12MSFieldParse5resetEv@Base 3.2.1-1kern1
 _ZN8casacore12MSFieldParse6idListE@Base 3.2.1-1kern1
 _ZN8casacore12MSFieldParse6node_pE@Base 3.2.1-1kern1
 _ZN8casacore12MSFieldParseC1EPKNS_14MeasurementSetE@Base 3.2.1-1kern1
 _ZN8casacore12MSFieldParseC1ERKNS_7MSFieldERKNS_13TableExprNodeE@Base 3.2.1-1kern1
 _ZN8casacore12MSFieldParseC1Ev@Base 3.2.1-1kern1
 _ZN8casacore12MSFieldParseC2EPKNS_14MeasurementSetE@Base 3.2.1-1kern1
 _ZN8casacore12MSFieldParseC2ERKNS_7MSFieldERKNS_13TableExprNodeE@Base 3.2.1-1kern1
 _ZN8casacore12MSFieldParseC2Ev@Base 3.2.1-1kern1
 _ZN8casacore12MSFieldParseD1Ev@Base 3.2.1-1kern1
 _ZN8casacore12MSFieldParseD2Ev@Base 3.2.1-1kern1
 _ZN8casacore12MSFreqOffset8initMapsEv@Base 3.2.1-1kern1
 _ZN8casacore12MSFreqOffsetC1ERKNS_5TableE@Base 3.2.1-1kern1
 _ZN8casacore12MSFreqOffsetC1ERKNS_6StringENS_5Table11TableOptionE@Base 3.2.1-1kern1
 _ZN8casacore12MSFreqOffsetC1ERKNS_6StringES3_NS_5Table11TableOptionE@Base 3.2.1-1kern1
 _ZN8casacore12MSFreqOffsetC1ERKS0_@Base 3.2.1-1kern1
 _ZN8casacore12MSFreqOffsetC1ERNS_13SetupNewTableEjb@Base 3.2.1-1kern1
 _ZN8casacore12MSFreqOffsetC1Ev@Base 3.2.1-1kern1
 _ZN8casacore12MSFreqOffsetC2ERKNS_5TableE@Base 3.2.1-1kern1
 _ZN8casacore12MSFreqOffsetC2ERKNS_6StringENS_5Table11TableOptionE@Base 3.2.1-1kern1
 _ZN8casacore12MSFreqOffsetC2ERKNS_6StringES3_NS_5Table11TableOptionE@Base 3.2.1-1kern1
 _ZN8casacore12MSFreqOffsetC2ERKS0_@Base 3.2.1-1kern1
 _ZN8casacore12MSFreqOffsetC2ERNS_13SetupNewTableEjb@Base 3.2.1-1kern1
 _ZN8casacore12MSFreqOffsetC2Ev@Base 3.2.1-1kern1
 _ZN8casacore12MSFreqOffsetD0Ev@Base 3.2.1-1kern1
 _ZN8casacore12MSFreqOffsetD1Ev@Base 3.2.1-1kern1
 _ZN8casacore12MSFreqOffsetD2Ev@Base 3.2.1-1kern1
 _ZN8casacore12MSFreqOffsetaSERKS0_@Base 3.2.1-1kern1
 _ZN8casacore12MSStateIndex12maskStateIDsERKNS_6VectorIiEE@Base 3.2.1-1kern1
 _ZN8casacore12MSStateIndex12matchStateIdERKNS_6VectorIiEE@Base 3.2.1-1kern1
 _ZN8casacore12MSStateIndex12matchStateIdERKi@Base 3.2.1-1kern1
 _ZN8casacore12MSStateIndex13matchAnyRegexERKNS_6VectorINS_6StringEEERKNS_5RegexEi@Base 3.2.1-1kern1
 _ZN8casacore12MSStateIndex14matchStateIDGTEi@Base 3.2.1-1kern1
 _ZN8casacore12MSStateIndex14matchStateIDLTEi@Base 3.2.1-1kern1
 _ZN8casacore12MSStateIndex17matchStateObsModeERKNS_6StringE@Base 3.2.1-1kern1
 _ZN8casacore12MSStateIndex17matchStateObsModeERKNS_6VectorINS_6StringEEE@Base 3.2.1-1kern1
 _ZN8casacore12MSStateIndex19matchStateIDGTAndLTEii@Base 3.2.1-1kern1
 _ZN8casacore12MSStateIndex24matchStateRegexOrPatternERKNS_6StringEb@Base 3.2.1-1kern1
 _ZN8casacore12MSStateIndex31matchStateObsModeRegexOrPatternERKNS_6StringEb@Base 3.2.1-1kern1
 _ZN8casacore12MSStateIndexC1ERKNS_7MSStateE@Base 3.2.1-1kern1
 _ZN8casacore12MSStateIndexC2ERKNS_7MSStateE@Base 3.2.1-1kern1
 _ZN8casacore12MSStateIndexD0Ev@Base 3.2.1-1kern1
 _ZN8casacore12MSStateIndexD1Ev@Base 3.2.1-1kern1
 _ZN8casacore12MSStateIndexD2Ev@Base 3.2.1-1kern1
 _ZN8casacore12MSStateParse14selectStateIdsERKNS_6VectorIiEE@Base 3.2.1-1kern1
 _ZN8casacore12MSStateParse14thisMSSIParserE@Base 3.2.1-1kern1
 _ZN8casacore12MSStateParse19thisMSSErrorHandlerE@Base 3.2.1-1kern1
 _ZN8casacore12MSStateParse4nodeEv@Base 3.2.1-1kern1
 _ZN8casacore12MSStateParse6idListE@Base 3.2.1-1kern1
 _ZN8casacore12MSStateParse6node_pE@Base 3.2.1-1kern1
 _ZN8casacore12MSStateParseC1EPKNS_14MeasurementSetE@Base 3.2.1-1kern1
 _ZN8casacore12MSStateParseC1Ev@Base 3.2.1-1kern1
 _ZN8casacore12MSStateParseC2EPKNS_14MeasurementSetE@Base 3.2.1-1kern1
 _ZN8casacore12MSStateParseC2Ev@Base 3.2.1-1kern1
 _ZN8casacore12MSStateParseD1Ev@Base 3.2.1-1kern1
 _ZN8casacore12MSStateParseD2Ev@Base 3.2.1-1kern1
 _ZN8casacore12MSTableIndex10setChangedEv@Base 3.2.1-1kern1
 _ZN8casacore12MSTableIndex11keysChangedEv@Base 3.2.1-1kern1
 _ZN8casacore12MSTableIndex11nearestTimeEv@Base 3.2.1-1kern1
 _ZN8casacore12MSTableIndex12getInternalsEv@Base 3.2.1-1kern1
 _ZN8casacore12MSTableIndex13getNearestRowERb@Base 3.2.1-1kern1
 _ZN8casacore12MSTableIndex13getRowNumbersEv@Base 3.2.1-1kern1
 _ZN8casacore12MSTableIndex4timeEv@Base 3.2.1-1kern1
 _ZN8casacore12MSTableIndex5clearEv@Base 3.2.1-1kern1
 _ZN8casacore12MSTableIndex5tableEv@Base 3.2.1-1kern1
 _ZN8casacore12MSTableIndex6attachERKNS_5TableERKNS_6VectorINS_6StringEEEPFiRKNS_5BlockIPvEESD_RKNS9_IiEEiE@Base 3.2.1-1kern1
 _ZN8casacore12MSTableIndex6isNullEv@Base 3.2.1-1kern1
 _ZN8casacore12MSTableIndex8intervalEv@Base 3.2.1-1kern1
 _ZN8casacore12MSTableIndex8makeKeysEv@Base 3.2.1-1kern1
 _ZN8casacore12MSTableIndex9accessKeyEv@Base 3.2.1-1kern1
 _ZN8casacore12MSTableIndexC1ERKNS_5TableERKNS_6VectorINS_6StringEEEPFiRKNS_5BlockIPvEESD_RKNS9_IiEEiE@Base 3.2.1-1kern1
 _ZN8casacore12MSTableIndexC1ERKS0_@Base 3.2.1-1kern1
 _ZN8casacore12MSTableIndexC1Ev@Base 3.2.1-1kern1
 _ZN8casacore12MSTableIndexC2ERKNS_5TableERKNS_6VectorINS_6StringEEEPFiRKNS_5BlockIPvEESD_RKNS9_IiEEiE@Base 3.2.1-1kern1
 _ZN8casacore12MSTableIndexC2ERKS0_@Base 3.2.1-1kern1
 _ZN8casacore12MSTableIndexC2Ev@Base 3.2.1-1kern1
 _ZN8casacore12MSTableIndexD0Ev@Base 3.2.1-1kern1
 _ZN8casacore12MSTableIndexD1Ev@Base 3.2.1-1kern1
 _ZN8casacore12MSTableIndexD2Ev@Base 3.2.1-1kern1
 _ZN8casacore12MSTableIndexaSERKS0_@Base 3.2.1-1kern1
 _ZN8casacore12MSTileLayout9tileShapeERKNS_9IPositionEiRKNS_6StringE@Base 3.2.1-1kern1
 _ZN8casacore12MSTileLayout9tileShapeERKNS_9IPositionEiii@Base 3.2.1-1kern1
 _ZN8casacore12ScalarColumnINS_11TableRecordEE3putEjRKNS_11TableColumnEjb@Base 3.2.1-1kern1
 _ZN8casacore12ScalarColumnINS_11TableRecordEED0Ev@Base 3.2.1-1kern1
 _ZN8casacore12ScalarColumnINS_11TableRecordEED1Ev@Base 3.2.1-1kern1
 _ZN8casacore12ScalarColumnINS_11TableRecordEED2Ev@Base 3.2.1-1kern1
 _ZN8casacore12SquareMatrixISt7complexIfELi2EEaSERKS3_@Base 3.2.1-1kern1
 _ZN8casacore12SquareMatrixISt7complexIfELi4EEaSERKS3_@Base 3.2.1-1kern1
 _ZN8casacore12SquareMatrixISt7complexIfELi4EEmLERKS3_@Base 3.2.1-1kern1
 _ZN8casacore12TabVecScaColIdE3setERKd@Base 3.2.1-1kern1
 _ZN8casacore12TabVecScaColIdE6putValEjRKd@Base 3.2.1-1kern1
 _ZN8casacore12TabVecScaColIdED0Ev@Base 3.2.1-1kern1
 _ZN8casacore12TabVecScaColIdED1Ev@Base 3.2.1-1kern1
 _ZN8casacore12TabVecScaColIdED2Ev@Base 3.2.1-1kern1
 _ZN8casacore12TabVecScaColIiE3setERKi@Base 3.2.1-1kern1
 _ZN8casacore12TabVecScaColIiE6putValEjRKi@Base 3.2.1-1kern1
 _ZN8casacore12TabVecScaColIiED0Ev@Base 3.2.1-1kern1
 _ZN8casacore12TabVecScaColIiED1Ev@Base 3.2.1-1kern1
 _ZN8casacore12TabVecScaColIiED2Ev@Base 3.2.1-1kern1
 _ZN8casacore12convertArrayISt7complexIfEfEEvRNS_5ArrayIT_EERKNS3_IT0_EE@Base 3.2.1-1kern1
 _ZN8casacore12convertArrayIijEEvRNS_5ArrayIT_EERKNS1_IT0_EE@Base 3.2.1-1kern1
 _ZN8casacore12convertArrayIjiEEvRNS_5ArrayIT_EERKNS1_IT0_EE@Base 3.2.1-1kern1
 _ZN8casacore13ArrayIteratorINS_10MDirectionEE12apSetPointerEi@Base 3.2.1-1kern1
 _ZN8casacore13ArrayIteratorINS_10MDirectionEE3setERKNS_9IPositionE@Base 3.2.1-1kern1
 _ZN8casacore13ArrayIteratorINS_10MDirectionEE4initERKNS_5ArrayIS1_EE@Base 3.2.1-1kern1
 _ZN8casacore13ArrayIteratorINS_10MDirectionEE4nextEv@Base 3.2.1-1kern1
 _ZN8casacore13ArrayIteratorINS_10MDirectionEE5resetEv@Base 3.2.1-1kern1
 _ZN8casacore13ArrayIteratorINS_10MDirectionEE8getArrayEv@Base 3.2.1-1kern1
 _ZN8casacore13ArrayIteratorINS_10MDirectionEED0Ev@Base 3.2.1-1kern1
 _ZN8casacore13ArrayIteratorINS_10MDirectionEED1Ev@Base 3.2.1-1kern1
 _ZN8casacore13ArrayIteratorINS_10MDirectionEED2Ev@Base 3.2.1-1kern1
 _ZN8casacore13ArrayIteratorINS_10MFrequencyEE12apSetPointerEi@Base 3.2.1-1kern1
 _ZN8casacore13ArrayIteratorINS_10MFrequencyEE3setERKNS_9IPositionE@Base 3.2.1-1kern1
 _ZN8casacore13ArrayIteratorINS_10MFrequencyEE4initERKNS_5ArrayIS1_EE@Base 3.2.1-1kern1
 _ZN8casacore13ArrayIteratorINS_10MFrequencyEE4nextEv@Base 3.2.1-1kern1
 _ZN8casacore13ArrayIteratorINS_10MFrequencyEE5resetEv@Base 3.2.1-1kern1
 _ZN8casacore13ArrayIteratorINS_10MFrequencyEE8getArrayEv@Base 3.2.1-1kern1
 _ZN8casacore13ArrayIteratorINS_10MFrequencyEED0Ev@Base 3.2.1-1kern1
 _ZN8casacore13ArrayIteratorINS_10MFrequencyEED1Ev@Base 3.2.1-1kern1
 _ZN8casacore13ArrayIteratorINS_10MFrequencyEED2Ev@Base 3.2.1-1kern1
 _ZN8casacore13ArrayIteratorINS_11RigidVectorIdLi2EEEE12apSetPointerEi@Base 3.2.1-1kern1
 _ZN8casacore13ArrayIteratorINS_11RigidVectorIdLi2EEEE3setERKNS_9IPositionE@Base 3.2.1-1kern1
 _ZN8casacore13ArrayIteratorINS_11RigidVectorIdLi2EEEE4initERKNS_5ArrayIS2_EE@Base 3.2.1-1kern1
 _ZN8casacore13ArrayIteratorINS_11RigidVectorIdLi2EEEE4nextEv@Base 3.2.1-1kern1
 _ZN8casacore13ArrayIteratorINS_11RigidVectorIdLi2EEEE5resetEv@Base 3.2.1-1kern1
 _ZN8casacore13ArrayIteratorINS_11RigidVectorIdLi2EEEE8getArrayEv@Base 3.2.1-1kern1
 _ZN8casacore13ArrayIteratorINS_11RigidVectorIdLi2EEEED0Ev@Base 3.2.1-1kern1
 _ZN8casacore13ArrayIteratorINS_11RigidVectorIdLi2EEEED1Ev@Base 3.2.1-1kern1
 _ZN8casacore13ArrayIteratorINS_11RigidVectorIdLi2EEEED2Ev@Base 3.2.1-1kern1
 _ZN8casacore13ArrayIteratorINS_12SquareMatrixISt7complexIfELi2EEEE12apSetPointerEi@Base 3.2.1-1kern1
 _ZN8casacore13ArrayIteratorINS_12SquareMatrixISt7complexIfELi2EEEE3setERKNS_9IPositionE@Base 3.2.1-1kern1
 _ZN8casacore13ArrayIteratorINS_12SquareMatrixISt7complexIfELi2EEEE4initERKNS_5ArrayIS4_EE@Base 3.2.1-1kern1
 _ZN8casacore13ArrayIteratorINS_12SquareMatrixISt7complexIfELi2EEEE4nextEv@Base 3.2.1-1kern1
 _ZN8casacore13ArrayIteratorINS_12SquareMatrixISt7complexIfELi2EEEE5resetEv@Base 3.2.1-1kern1
 _ZN8casacore13ArrayIteratorINS_12SquareMatrixISt7complexIfELi2EEEE8getArrayEv@Base 3.2.1-1kern1
 _ZN8casacore13ArrayIteratorINS_12SquareMatrixISt7complexIfELi2EEEED0Ev@Base 3.2.1-1kern1
 _ZN8casacore13ArrayIteratorINS_12SquareMatrixISt7complexIfELi2EEEED1Ev@Base 3.2.1-1kern1
 _ZN8casacore13ArrayIteratorINS_12SquareMatrixISt7complexIfELi2EEEED2Ev@Base 3.2.1-1kern1
 _ZN8casacore13ArrayIteratorINS_4UnitEE12apSetPointerEi@Base 3.2.1-1kern1
 _ZN8casacore13ArrayIteratorINS_4UnitEE3setERKNS_9IPositionE@Base 3.2.1-1kern1
 _ZN8casacore13ArrayIteratorINS_4UnitEE4initERKNS_5ArrayIS1_EE@Base 3.2.1-1kern1
 _ZN8casacore13ArrayIteratorINS_4UnitEE4nextEv@Base 3.2.1-1kern1
 _ZN8casacore13ArrayIteratorINS_4UnitEE5resetEv@Base 3.2.1-1kern1
 _ZN8casacore13ArrayIteratorINS_4UnitEE8getArrayEv@Base 3.2.1-1kern1
 _ZN8casacore13ArrayIteratorINS_4UnitEED0Ev@Base 3.2.1-1kern1
 _ZN8casacore13ArrayIteratorINS_4UnitEED1Ev@Base 3.2.1-1kern1
 _ZN8casacore13ArrayIteratorINS_4UnitEED2Ev@Base 3.2.1-1kern1
 _ZN8casacore13ArrayIteratorINS_5SliceEE12apSetPointerEi@Base 3.2.1-1kern1
 _ZN8casacore13ArrayIteratorINS_5SliceEE3setERKNS_9IPositionE@Base 3.2.1-1kern1
 _ZN8casacore13ArrayIteratorINS_5SliceEE4initERKNS_5ArrayIS1_EE@Base 3.2.1-1kern1
 _ZN8casacore13ArrayIteratorINS_5SliceEE4nextEv@Base 3.2.1-1kern1
 _ZN8casacore13ArrayIteratorINS_5SliceEE5resetEv@Base 3.2.1-1kern1
 _ZN8casacore13ArrayIteratorINS_5SliceEE8getArrayEv@Base 3.2.1-1kern1
 _ZN8casacore13ArrayIteratorINS_5SliceEED0Ev@Base 3.2.1-1kern1
 _ZN8casacore13ArrayIteratorINS_5SliceEED1Ev@Base 3.2.1-1kern1
 _ZN8casacore13ArrayIteratorINS_5SliceEED2Ev@Base 3.2.1-1kern1
 _ZN8casacore13ArrayIteratorINS_6Stokes11StokesTypesEE12apSetPointerEi@Base 3.2.1-1kern1
 _ZN8casacore13ArrayIteratorINS_6Stokes11StokesTypesEE3setERKNS_9IPositionE@Base 3.2.1-1kern1
 _ZN8casacore13ArrayIteratorINS_6Stokes11StokesTypesEE4initERKNS_5ArrayIS2_EE@Base 3.2.1-1kern1
 _ZN8casacore13ArrayIteratorINS_6Stokes11StokesTypesEE4nextEv@Base 3.2.1-1kern1
 _ZN8casacore13ArrayIteratorINS_6Stokes11StokesTypesEE5resetEv@Base 3.2.1-1kern1
 _ZN8casacore13ArrayIteratorINS_6Stokes11StokesTypesEE8getArrayEv@Base 3.2.1-1kern1
 _ZN8casacore13ArrayIteratorINS_6Stokes11StokesTypesEED0Ev@Base 3.2.1-1kern1
 _ZN8casacore13ArrayIteratorINS_6Stokes11StokesTypesEED1Ev@Base 3.2.1-1kern1
 _ZN8casacore13ArrayIteratorINS_6Stokes11StokesTypesEED2Ev@Base 3.2.1-1kern1
 _ZN8casacore13ArrayIteratorINS_6VectorIiEEE12apSetPointerEi@Base 3.2.1-1kern1
 _ZN8casacore13ArrayIteratorINS_6VectorIiEEE3setERKNS_9IPositionE@Base 3.2.1-1kern1
 _ZN8casacore13ArrayIteratorINS_6VectorIiEEE4initERKNS_5ArrayIS2_EE@Base 3.2.1-1kern1
 _ZN8casacore13ArrayIteratorINS_6VectorIiEEE4nextEv@Base 3.2.1-1kern1
 _ZN8casacore13ArrayIteratorINS_6VectorIiEEE5resetEv@Base 3.2.1-1kern1
 _ZN8casacore13ArrayIteratorINS_6VectorIiEEE8getArrayEv@Base 3.2.1-1kern1
 _ZN8casacore13ArrayIteratorINS_6VectorIiEEED0Ev@Base 3.2.1-1kern1
 _ZN8casacore13ArrayIteratorINS_6VectorIiEEED1Ev@Base 3.2.1-1kern1
 _ZN8casacore13ArrayIteratorINS_6VectorIiEEED2Ev@Base 3.2.1-1kern1
 _ZN8casacore13ArrayIteratorINS_7QuantumIdEEE12apSetPointerEi@Base 3.2.1-1kern1
 _ZN8casacore13ArrayIteratorINS_7QuantumIdEEE3setERKNS_9IPositionE@Base 3.2.1-1kern1
 _ZN8casacore13ArrayIteratorINS_7QuantumIdEEE4initERKNS_5ArrayIS2_EE@Base 3.2.1-1kern1
 _ZN8casacore13ArrayIteratorINS_7QuantumIdEEE4nextEv@Base 3.2.1-1kern1
 _ZN8casacore13ArrayIteratorINS_7QuantumIdEEE5resetEv@Base 3.2.1-1kern1
 _ZN8casacore13ArrayIteratorINS_7QuantumIdEEE8getArrayEv@Base 3.2.1-1kern1
 _ZN8casacore13ArrayIteratorINS_7QuantumIdEEED0Ev@Base 3.2.1-1kern1
 _ZN8casacore13ArrayIteratorINS_7QuantumIdEEED1Ev@Base 3.2.1-1kern1
 _ZN8casacore13ArrayIteratorINS_7QuantumIdEEED2Ev@Base 3.2.1-1kern1
 _ZN8casacore13ArrayIteratorINS_9MPositionEE12apSetPointerEi@Base 3.2.1-1kern1
 _ZN8casacore13ArrayIteratorINS_9MPositionEE3setERKNS_9IPositionE@Base 3.2.1-1kern1
 _ZN8casacore13ArrayIteratorINS_9MPositionEE4initERKNS_5ArrayIS1_EE@Base 3.2.1-1kern1
 _ZN8casacore13ArrayIteratorINS_9MPositionEE4nextEv@Base 3.2.1-1kern1
 _ZN8casacore13ArrayIteratorINS_9MPositionEE5resetEv@Base 3.2.1-1kern1
 _ZN8casacore13ArrayIteratorINS_9MPositionEE8getArrayEv@Base 3.2.1-1kern1
 _ZN8casacore13ArrayIteratorINS_9MPositionEED0Ev@Base 3.2.1-1kern1
 _ZN8casacore13ArrayIteratorINS_9MPositionEED1Ev@Base 3.2.1-1kern1
 _ZN8casacore13ArrayIteratorINS_9MPositionEED2Ev@Base 3.2.1-1kern1
 _ZN8casacore13ArrayIteratorIPNS_9MeasCometEE12apSetPointerEi@Base 3.2.1-1kern1
 _ZN8casacore13ArrayIteratorIPNS_9MeasCometEE3setERKNS_9IPositionE@Base 3.2.1-1kern1
 _ZN8casacore13ArrayIteratorIPNS_9MeasCometEE4initERKNS_5ArrayIS2_EE@Base 3.2.1-1kern1
 _ZN8casacore13ArrayIteratorIPNS_9MeasCometEE4nextEv@Base 3.2.1-1kern1
 _ZN8casacore13ArrayIteratorIPNS_9MeasCometEE5resetEv@Base 3.2.1-1kern1
 _ZN8casacore13ArrayIteratorIPNS_9MeasCometEE8getArrayEv@Base 3.2.1-1kern1
 _ZN8casacore13ArrayIteratorIPNS_9MeasCometEED0Ev@Base 3.2.1-1kern1
 _ZN8casacore13ArrayIteratorIPNS_9MeasCometEED1Ev@Base 3.2.1-1kern1
 _ZN8casacore13ArrayIteratorIPNS_9MeasCometEED2Ev@Base 3.2.1-1kern1
 _ZN8casacore13MSDopplerUtil11dopplerInfoERNS_6VectorIdEEii@Base 3.2.1-1kern1
 _ZN8casacore13MSDopplerUtilC1ERKNS_14MeasurementSetE@Base 3.2.1-1kern1
 _ZN8casacore13MSDopplerUtilC2ERKNS_14MeasurementSetE@Base 3.2.1-1kern1
 _ZN8casacore13MSDopplerUtilD1Ev@Base 3.2.1-1kern1
 _ZN8casacore13MSDopplerUtilD2Ev@Base 3.2.1-1kern1
 _ZN8casacore13MSFeedColumns11setEpochRefENS_6MEpoch5TypesEb@Base 3.2.1-1kern1
 _ZN8casacore13MSFeedColumns14setPositionRefENS_9MPosition5TypesE@Base 3.2.1-1kern1
 _ZN8casacore13MSFeedColumns15setDirectionRefENS_10MDirection5TypesE@Base 3.2.1-1kern1
 _ZN8casacore13MSFeedColumns18attachOptionalColsERKNS_6MSFeedE@Base 3.2.1-1kern1
 _ZN8casacore13MSFeedColumns6attachERKNS_6MSFeedE@Base 3.2.1-1kern1
 _ZN8casacore13MSFeedColumns9matchFeedERNS_7QuantumIdEES3_RKiS5_S5_RKS2_S7_S5_RKNS_5ArrayIS2_EERKNS8_INS_6StringEEERKNS8_ISt7complexIfEEESB_SB_RKNS_6VectorIjEES7_@Base 3.2.1-1kern1
 _ZN8casacore13MSFeedColumnsC1ERKNS_6MSFeedE@Base 3.2.1-1kern1
 _ZN8casacore13MSFeedColumnsC1Ev@Base 3.2.1-1kern1
 _ZN8casacore13MSFeedColumnsC2ERKNS_6MSFeedE@Base 3.2.1-1kern1
 _ZN8casacore13MSFeedColumnsC2Ev@Base 3.2.1-1kern1
 _ZN8casacore13MSFeedColumnsD1Ev@Base 3.2.1-1kern1
 _ZN8casacore13MSFeedColumnsD2Ev@Base 3.2.1-1kern1
 _ZN8casacore13MSMainColumns11setEpochRefENS_6MEpoch5TypesEb@Base 3.2.1-1kern1
 _ZN8casacore13MSMainColumns17setFlagCategoriesERKNS_6VectorINS_6StringEEE@Base 3.2.1-1kern1
 _ZN8casacore13MSMainColumns18attachOptionalColsERKNS_14MeasurementSetE@Base 3.2.1-1kern1
 _ZN8casacore13MSMainColumns6attachERKNS_14MeasurementSetE@Base 3.2.1-1kern1
 _ZN8casacore13MSMainColumns9setUVWRefENS_4Muvw5TypesE@Base 3.2.1-1kern1
 _ZN8casacore13MSMainColumnsC1ERKNS_14MeasurementSetE@Base 3.2.1-1kern1
 _ZN8casacore13MSMainColumnsC1Ev@Base 3.2.1-1kern1
 _ZN8casacore13MSMainColumnsC2ERKNS_14MeasurementSetE@Base 3.2.1-1kern1
 _ZN8casacore13MSMainColumnsC2Ev@Base 3.2.1-1kern1
 _ZN8casacore13MSMainColumnsD1Ev@Base 3.2.1-1kern1
 _ZN8casacore13MSMainColumnsD2Ev@Base 3.2.1-1kern1
 _ZN8casacore13MSObservation8initMapsEv@Base 3.2.1-1kern1
 _ZN8casacore13MSObservationC1ERKNS_5TableE@Base 3.2.1-1kern1
 _ZN8casacore13MSObservationC1ERKNS_6StringENS_5Table11TableOptionE@Base 3.2.1-1kern1
 _ZN8casacore13MSObservationC1ERKNS_6StringES3_NS_5Table11TableOptionE@Base 3.2.1-1kern1
 _ZN8casacore13MSObservationC1ERKS0_@Base 3.2.1-1kern1
 _ZN8casacore13MSObservationC1ERNS_13SetupNewTableEjb@Base 3.2.1-1kern1
 _ZN8casacore13MSObservationC1Ev@Base 3.2.1-1kern1
 _ZN8casacore13MSObservationC2ERKNS_5TableE@Base 3.2.1-1kern1
 _ZN8casacore13MSObservationC2ERKNS_6StringENS_5Table11TableOptionE@Base 3.2.1-1kern1
 _ZN8casacore13MSObservationC2ERKNS_6StringES3_NS_5Table11TableOptionE@Base 3.2.1-1kern1
 _ZN8casacore13MSObservationC2ERKS0_@Base 3.2.1-1kern1
 _ZN8casacore13MSObservationC2ERNS_13SetupNewTableEjb@Base 3.2.1-1kern1
 _ZN8casacore13MSObservationC2Ev@Base 3.2.1-1kern1
 _ZN8casacore13MSObservationD0Ev@Base 3.2.1-1kern1
 _ZN8casacore13MSObservationD1Ev@Base 3.2.1-1kern1
 _ZN8casacore13MSObservationD2Ev@Base 3.2.1-1kern1
 _ZN8casacore13MSObservationaSERKS0_@Base 3.2.1-1kern1
 _ZN8casacore13MSSourceIndex15matchSourceCodeERKNS_6StringE@Base 3.2.1-1kern1
 _ZN8casacore13MSSourceIndex15matchSourceNameERKNS_6StringE@Base 3.2.1-1kern1
 _ZN8casacore13MSSourceIndex15matchSourceNameERKNS_6VectorINS_6StringEEE@Base 3.2.1-1kern1
 _ZN8casacore13MSSourceIndex23getRowNumbersOfSourceIDEi@Base 3.2.1-1kern1
 _ZN8casacore13MSSourceIndex6attachERKNS_8MSSourceE@Base 3.2.1-1kern1
 _ZN8casacore13MSSourceIndex7compareERKNS_5BlockIPvEES5_RKNS1_IiEEi@Base 3.2.1-1kern1
 _ZN8casacore13MSSourceIndex9attachIdsEv@Base 3.2.1-1kern1
 _ZN8casacore13MSSourceIndexC1ERKNS_8MSSourceE@Base 3.2.1-1kern1
 _ZN8casacore13MSSourceIndexC1ERKS0_@Base 3.2.1-1kern1
 _ZN8casacore13MSSourceIndexC1Ev@Base 3.2.1-1kern1
 _ZN8casacore13MSSourceIndexC2ERKNS_8MSSourceE@Base 3.2.1-1kern1
 _ZN8casacore13MSSourceIndexC2ERKS0_@Base 3.2.1-1kern1
 _ZN8casacore13MSSourceIndexC2Ev@Base 3.2.1-1kern1
 _ZN8casacore13MSSourceIndexD0Ev@Base 3.2.1-1kern1
 _ZN8casacore13MSSourceIndexD1Ev@Base 3.2.1-1kern1
 _ZN8casacore13MSSourceIndexD2Ev@Base 3.2.1-1kern1
 _ZN8casacore13MSSourceIndexaSERKS0_@Base 3.2.1-1kern1
 _ZN8casacore13MSSysCalIndex6attachERKNS_8MSSysCalE@Base 3.2.1-1kern1
 _ZN8casacore13MSSysCalIndex9attachIdsEv@Base 3.2.1-1kern1
 _ZN8casacore13MSSysCalIndexC1ERKNS_8MSSysCalE@Base 3.2.1-1kern1
 _ZN8casacore13MSSysCalIndexC1ERKS0_@Base 3.2.1-1kern1
 _ZN8casacore13MSSysCalIndexC1Ev@Base 3.2.1-1kern1
 _ZN8casacore13MSSysCalIndexC2ERKNS_8MSSysCalE@Base 3.2.1-1kern1
 _ZN8casacore13MSSysCalIndexC2ERKS0_@Base 3.2.1-1kern1
 _ZN8casacore13MSSysCalIndexC2Ev@Base 3.2.1-1kern1
 _ZN8casacore13MSSysCalIndexD0Ev@Base 3.2.1-1kern1
 _ZN8casacore13MSSysCalIndexD1Ev@Base 3.2.1-1kern1
 _ZN8casacore13MSSysCalIndexD2Ev@Base 3.2.1-1kern1
 _ZN8casacore13MSSysCalIndexaSERKS0_@Base 3.2.1-1kern1
 _ZN8casacore13MSUvDistParse12meterUnits_pE@Base 3.2.1-1kern1
 _ZN8casacore13MSUvDistParse12selectedUV_pE@Base 3.2.1-1kern1
 _ZN8casacore13MSUvDistParse13selectUVRangeERKdS2_RKNS_6StringEb@Base 3.2.1-1kern1
 _ZN8casacore13MSUvDistParse13thisMSUParserE@Base 3.2.1-1kern1
 _ZN8casacore13MSUvDistParse16accumulateUVListEddbb@Base 3.2.1-1kern1
 _ZN8casacore13MSUvDistParse4nodeEv@Base 3.2.1-1kern1
 _ZN8casacore13MSUvDistParse6node_pE@Base 3.2.1-1kern1
 _ZN8casacore13MSUvDistParseC1EPKNS_14MeasurementSetE@Base 3.2.1-1kern1
 _ZN8casacore13MSUvDistParseC1Ev@Base 3.2.1-1kern1
 _ZN8casacore13MSUvDistParseC2EPKNS_14MeasurementSetE@Base 3.2.1-1kern1
 _ZN8casacore13MSUvDistParseC2Ev@Base 3.2.1-1kern1
 _ZN8casacore13TableMeasDescINS_10MDirectionEEC1ERKNS_18TableMeasValueDescERKNS_16TableMeasRefDescE@Base 3.2.1-1kern1
 _ZN8casacore13TableMeasDescINS_10MDirectionEEC2ERKNS_18TableMeasValueDescERKNS_16TableMeasRefDescE@Base 3.2.1-1kern1
 _ZN8casacore13TableMeasDescINS_10MDirectionEED0Ev@Base 3.2.1-1kern1
 _ZN8casacore13TableMeasDescINS_10MDirectionEED1Ev@Base 3.2.1-1kern1
 _ZN8casacore13TableMeasDescINS_10MDirectionEED2Ev@Base 3.2.1-1kern1
 _ZN8casacore13TableMeasDescINS_10MFrequencyEEC1ERKNS_18TableMeasValueDescERKNS_16TableMeasRefDescE@Base 3.2.1-1kern1
 _ZN8casacore13TableMeasDescINS_10MFrequencyEEC2ERKNS_18TableMeasValueDescERKNS_16TableMeasRefDescE@Base 3.2.1-1kern1
 _ZN8casacore13TableMeasDescINS_10MFrequencyEED0Ev@Base 3.2.1-1kern1
 _ZN8casacore13TableMeasDescINS_10MFrequencyEED1Ev@Base 3.2.1-1kern1
 _ZN8casacore13TableMeasDescINS_10MFrequencyEED2Ev@Base 3.2.1-1kern1
 _ZN8casacore13TableMeasDescINS_14MEarthMagneticEEC1ERKNS_18TableMeasValueDescERKNS_16TableMeasRefDescE@Base 3.2.1-1kern1
 _ZN8casacore13TableMeasDescINS_14MEarthMagneticEEC2ERKNS_18TableMeasValueDescERKNS_16TableMeasRefDescE@Base 3.2.1-1kern1
 _ZN8casacore13TableMeasDescINS_14MEarthMagneticEED0Ev@Base 3.2.1-1kern1
 _ZN8casacore13TableMeasDescINS_14MEarthMagneticEED1Ev@Base 3.2.1-1kern1
 _ZN8casacore13TableMeasDescINS_14MEarthMagneticEED2Ev@Base 3.2.1-1kern1
 _ZN8casacore13TableMeasDescINS_15MRadialVelocityEEC1ERKNS_18TableMeasValueDescE@Base 3.2.1-1kern1
 _ZN8casacore13TableMeasDescINS_15MRadialVelocityEEC1ERKNS_18TableMeasValueDescERKNS_16TableMeasRefDescE@Base 3.2.1-1kern1
 _ZN8casacore13TableMeasDescINS_15MRadialVelocityEEC2ERKNS_18TableMeasValueDescE@Base 3.2.1-1kern1
 _ZN8casacore13TableMeasDescINS_15MRadialVelocityEEC2ERKNS_18TableMeasValueDescERKNS_16TableMeasRefDescE@Base 3.2.1-1kern1
 _ZN8casacore13TableMeasDescINS_15MRadialVelocityEED0Ev@Base 3.2.1-1kern1
 _ZN8casacore13TableMeasDescINS_15MRadialVelocityEED1Ev@Base 3.2.1-1kern1
 _ZN8casacore13TableMeasDescINS_15MRadialVelocityEED2Ev@Base 3.2.1-1kern1
 _ZN8casacore13TableMeasDescINS_4MuvwEEC1ERKNS_18TableMeasValueDescERKNS_16TableMeasRefDescE@Base 3.2.1-1kern1
 _ZN8casacore13TableMeasDescINS_4MuvwEEC2ERKNS_18TableMeasValueDescERKNS_16TableMeasRefDescE@Base 3.2.1-1kern1
 _ZN8casacore13TableMeasDescINS_4MuvwEED0Ev@Base 3.2.1-1kern1
 _ZN8casacore13TableMeasDescINS_4MuvwEED1Ev@Base 3.2.1-1kern1
 _ZN8casacore13TableMeasDescINS_4MuvwEED2Ev@Base 3.2.1-1kern1
 _ZN8casacore13TableMeasDescINS_6MEpochEEC1ERKNS_18TableMeasValueDescERKNS_16TableMeasRefDescE@Base 3.2.1-1kern1
 _ZN8casacore13TableMeasDescINS_6MEpochEEC2ERKNS_18TableMeasValueDescERKNS_16TableMeasRefDescE@Base 3.2.1-1kern1
 _ZN8casacore13TableMeasDescINS_6MEpochEED0Ev@Base 3.2.1-1kern1
 _ZN8casacore13TableMeasDescINS_6MEpochEED1Ev@Base 3.2.1-1kern1
 _ZN8casacore13TableMeasDescINS_6MEpochEED2Ev@Base 3.2.1-1kern1
 _ZN8casacore13TableMeasDescINS_8MDopplerEEC1ERKNS_18TableMeasValueDescERKNS_16TableMeasRefDescE@Base 3.2.1-1kern1
 _ZN8casacore13TableMeasDescINS_8MDopplerEEC2ERKNS_18TableMeasValueDescERKNS_16TableMeasRefDescE@Base 3.2.1-1kern1
 _ZN8casacore13TableMeasDescINS_8MDopplerEED0Ev@Base 3.2.1-1kern1
 _ZN8casacore13TableMeasDescINS_8MDopplerEED1Ev@Base 3.2.1-1kern1
 _ZN8casacore13TableMeasDescINS_8MDopplerEED2Ev@Base 3.2.1-1kern1
 _ZN8casacore13TableMeasDescINS_9MBaselineEEC1ERKNS_18TableMeasValueDescERKNS_16TableMeasRefDescE@Base 3.2.1-1kern1
 _ZN8casacore13TableMeasDescINS_9MBaselineEEC2ERKNS_18TableMeasValueDescERKNS_16TableMeasRefDescE@Base 3.2.1-1kern1
 _ZN8casacore13TableMeasDescINS_9MBaselineEED0Ev@Base 3.2.1-1kern1
 _ZN8casacore13TableMeasDescINS_9MBaselineEED1Ev@Base 3.2.1-1kern1
 _ZN8casacore13TableMeasDescINS_9MBaselineEED2Ev@Base 3.2.1-1kern1
 _ZN8casacore13TableMeasDescINS_9MPositionEEC1ERKNS_18TableMeasValueDescERKNS_16TableMeasRefDescE@Base 3.2.1-1kern1
 _ZN8casacore13TableMeasDescINS_9MPositionEEC2ERKNS_18TableMeasValueDescERKNS_16TableMeasRefDescE@Base 3.2.1-1kern1
 _ZN8casacore13TableMeasDescINS_9MPositionEED0Ev@Base 3.2.1-1kern1
 _ZN8casacore13TableMeasDescINS_9MPositionEED1Ev@Base 3.2.1-1kern1
 _ZN8casacore13TableMeasDescINS_9MPositionEED2Ev@Base 3.2.1-1kern1
 _ZN8casacore14MSAntennaIndex16matchAntennaNameERKNS_6StringE@Base 3.2.1-1kern1
 _ZN8casacore14MSAntennaIndex16matchAntennaNameERKNS_6VectorINS_6StringEEE@Base 3.2.1-1kern1
 _ZN8casacore14MSAntennaIndex16matchStationNameERKNS_6StringE@Base 3.2.1-1kern1
 _ZN8casacore14MSAntennaIndex16matchStationNameERKNS_6VectorINS_6StringEEE@Base 3.2.1-1kern1
 _ZN8casacore14MSAntennaIndex26matchAntennaNameAndStationERKNS_6StringES3_@Base 3.2.1-1kern1
 _ZN8casacore14MSAntennaIndex26matchAntennaRegexOrPatternERKNS_6StringEb@Base 3.2.1-1kern1
 _ZN8casacore14MSAntennaIndex26matchStationRegexOrPatternERKNS_6StringEb@Base 3.2.1-1kern1
 _ZN8casacore14MSAntennaIndex7matchIdERKNS_6VectorIiEE@Base 3.2.1-1kern1
 _ZN8casacore14MSAntennaIndexC1ERKNS_9MSAntennaE@Base 3.2.1-1kern1
 _ZN8casacore14MSAntennaIndexC2ERKNS_9MSAntennaE@Base 3.2.1-1kern1
 _ZN8casacore14MSAntennaIndexD0Ev@Base 3.2.1-1kern1
 _ZN8casacore14MSAntennaIndexD1Ev@Base 3.2.1-1kern1
 _ZN8casacore14MSAntennaIndexD2Ev@Base 3.2.1-1kern1
 _ZN8casacore14MSAntennaParse10makeBLNodeERKNS_6MatrixIbEEb@Base 3.2.1-1kern1
 _ZN8casacore14MSAntennaParse11addBaselineERKNS_6MatrixIiEEiiNS0_16BaselineListTypeE@Base 3.2.1-1kern1
 _ZN8casacore14MSAntennaParse12selectLengthERKSt6vectorIdSaIdEEb@Base 3.2.1-1kern1
 _ZN8casacore14MSAntennaParse13getUnitFactorEPKc@Base 3.2.1-1kern1
 _ZN8casacore14MSAntennaParse13selectBLRegexERKSt6vectorINS_6StringESaIS2_EEb@Base 3.2.1-1kern1
 _ZN8casacore14MSAntennaParse13thisMSAParserE@Base 3.2.1-1kern1
 _ZN8casacore14MSAntennaParse14column1AsTEN_pE@Base 3.2.1-1kern1
 _ZN8casacore14MSAntennaParse14column2AsTEN_pE@Base 3.2.1-1kern1
 _ZN8casacore14MSAntennaParse15makeAntennaListERNS_6VectorIiEERKS2_b@Base 3.2.1-1kern1
 _ZN8casacore14MSAntennaParse16makeBaselineListERKNS_6VectorIiEES4_RNS_6MatrixIiEENS0_16BaselineListTypeEb@Base 3.2.1-1kern1
 _ZN8casacore14MSAntennaParse16selectAntennaIdsERKNS_6VectorIiEENS0_16BaselineListTypeEb@Base 3.2.1-1kern1
 _ZN8casacore14MSAntennaParse16selectAntennaIdsERKNS_6VectorIiEES4_NS0_16BaselineListTypeEb@Base 3.2.1-1kern1
 _ZN8casacore14MSAntennaParse18getBaselineLengthsEv@Base 3.2.1-1kern1
 _ZN8casacore14MSAntennaParse19selectNameOrStationERKNS_6StringES3_NS0_16BaselineListTypeEb@Base 3.2.1-1kern1
 _ZN8casacore14MSAntennaParse19selectNameOrStationERKNS_6VectorINS_6StringEEENS0_16BaselineListTypeEb@Base 3.2.1-1kern1
 _ZN8casacore14MSAntennaParse19selectNameOrStationERKNS_6VectorINS_6StringEEES5_NS0_16BaselineListTypeEb@Base 3.2.1-1kern1
 _ZN8casacore14MSAntennaParse19thisMSAErrorHandlerE@Base 3.2.1-1kern1
 _ZN8casacore14MSAntennaParse6setTENERNS_13TableExprNodeENS0_16BaselineListTypeEb@Base 3.2.1-1kern1
 _ZN8casacore14MSAntennaParseC1EPKNS_14MeasurementSetE@Base 3.2.1-1kern1
 _ZN8casacore14MSAntennaParseC1ERKNS_9MSAntennaERKNS_13TableExprNodeES6_@Base 3.2.1-1kern1
 _ZN8casacore14MSAntennaParseC1Ev@Base 3.2.1-1kern1
 _ZN8casacore14MSAntennaParseC2EPKNS_14MeasurementSetE@Base 3.2.1-1kern1
 _ZN8casacore14MSAntennaParseC2ERKNS_9MSAntennaERKNS_13TableExprNodeES6_@Base 3.2.1-1kern1
 _ZN8casacore14MSAntennaParseC2Ev@Base 3.2.1-1kern1
 _ZN8casacore14MSAntennaParseD1Ev@Base 3.2.1-1kern1
 _ZN8casacore14MSAntennaParseD2Ev@Base 3.2.1-1kern1
 _ZN8casacore14MSDopplerIndex6attachERKNS_9MSDopplerE@Base 3.2.1-1kern1
 _ZN8casacore14MSDopplerIndex9attachIdsEv@Base 3.2.1-1kern1
 _ZN8casacore14MSDopplerIndexC1ERKNS_9MSDopplerE@Base 3.2.1-1kern1
 _ZN8casacore14MSDopplerIndexC1ERKS0_@Base 3.2.1-1kern1
 _ZN8casacore14MSDopplerIndexC1Ev@Base 3.2.1-1kern1
 _ZN8casacore14MSDopplerIndexC2ERKNS_9MSDopplerE@Base 3.2.1-1kern1
 _ZN8casacore14MSDopplerIndexC2ERKS0_@Base 3.2.1-1kern1
 _ZN8casacore14MSDopplerIndexC2Ev@Base 3.2.1-1kern1
 _ZN8casacore14MSDopplerIndexD0Ev@Base 3.2.1-1kern1
 _ZN8casacore14MSDopplerIndexD1Ev@Base 3.2.1-1kern1
 _ZN8casacore14MSDopplerIndexD2Ev@Base 3.2.1-1kern1
 _ZN8casacore14MSDopplerIndexaSERKS0_@Base 3.2.1-1kern1
 _ZN8casacore14MSFieldColumns11setEpochRefENS_6MEpoch5TypesEb@Base 3.2.1-1kern1
 _ZN8casacore14MSFieldColumns14matchDirectionERKNS_10MDirectionES3_S3_RKNS_7QuantumIdEEid@Base 3.2.1-1kern1
 _ZN8casacore14MSFieldColumns15setDirectionRefENS_10MDirection5TypesE@Base 3.2.1-1kern1
 _ZN8casacore14MSFieldColumns16updateMeasCometsEv@Base 3.2.1-1kern1
 _ZN8casacore14MSFieldColumns18attachOptionalColsERKNS_7MSFieldE@Base 3.2.1-1kern1
 _ZN8casacore14MSFieldColumns18interpolateDirMeasERKNS_5ArrayINS_10MDirectionEEEidd@Base 3.2.1-1kern1
 _ZN8casacore14MSFieldColumns6attachERKNS_7MSFieldE@Base 3.2.1-1kern1
 _ZN8casacore14MSFieldColumnsC1ERKNS_7MSFieldE@Base 3.2.1-1kern1
 _ZN8casacore14MSFieldColumnsC1Ev@Base 3.2.1-1kern1
 _ZN8casacore14MSFieldColumnsC2ERKNS_7MSFieldE@Base 3.2.1-1kern1
 _ZN8casacore14MSFieldColumnsC2Ev@Base 3.2.1-1kern1
 _ZN8casacore14MSFieldColumnsD1Ev@Base 3.2.1-1kern1
 _ZN8casacore14MSFieldColumnsD2Ev@Base 3.2.1-1kern1
 _ZN8casacore14MSFreqOffIndex6attachERKNS_12MSFreqOffsetE@Base 3.2.1-1kern1
 _ZN8casacore14MSFreqOffIndex9attachIdsEv@Base 3.2.1-1kern1
 _ZN8casacore14MSFreqOffIndexC1ERKNS_12MSFreqOffsetE@Base 3.2.1-1kern1
 _ZN8casacore14MSFreqOffIndexC1ERKS0_@Base 3.2.1-1kern1
 _ZN8casacore14MSFreqOffIndexC1Ev@Base 3.2.1-1kern1
 _ZN8casacore14MSFreqOffIndexC2ERKNS_12MSFreqOffsetE@Base 3.2.1-1kern1
 _ZN8casacore14MSFreqOffIndexC2ERKS0_@Base 3.2.1-1kern1
 _ZN8casacore14MSFreqOffIndexC2Ev@Base 3.2.1-1kern1
 _ZN8casacore14MSFreqOffIndexD0Ev@Base 3.2.1-1kern1
 _ZN8casacore14MSFreqOffIndexD1Ev@Base 3.2.1-1kern1
 _ZN8casacore14MSFreqOffIndexD2Ev@Base 3.2.1-1kern1
 _ZN8casacore14MSFreqOffIndexaSERKS0_@Base 3.2.1-1kern1
 _ZN8casacore14MSPolarization8initMapsEv@Base 3.2.1-1kern1
 _ZN8casacore14MSPolarizationC1ERKNS_5TableE@Base 3.2.1-1kern1
 _ZN8casacore14MSPolarizationC1ERKNS_6StringENS_5Table11TableOptionE@Base 3.2.1-1kern1
 _ZN8casacore14MSPolarizationC1ERKNS_6StringES3_NS_5Table11TableOptionE@Base 3.2.1-1kern1
 _ZN8casacore14MSPolarizationC1ERKS0_@Base 3.2.1-1kern1
 _ZN8casacore14MSPolarizationC1ERNS_13SetupNewTableEjb@Base 3.2.1-1kern1
 _ZN8casacore14MSPolarizationC1Ev@Base 3.2.1-1kern1
 _ZN8casacore14MSPolarizationC2ERKNS_5TableE@Base 3.2.1-1kern1
 _ZN8casacore14MSPolarizationC2ERKNS_6StringENS_5Table11TableOptionE@Base 3.2.1-1kern1
 _ZN8casacore14MSPolarizationC2ERKNS_6StringES3_NS_5Table11TableOptionE@Base 3.2.1-1kern1
 _ZN8casacore14MSPolarizationC2ERKS0_@Base 3.2.1-1kern1
 _ZN8casacore14MSPolarizationC2ERNS_13SetupNewTableEjb@Base 3.2.1-1kern1
 _ZN8casacore14MSPolarizationC2Ev@Base 3.2.1-1kern1
 _ZN8casacore14MSPolarizationD0Ev@Base 3.2.1-1kern1
 _ZN8casacore14MSPolarizationD1Ev@Base 3.2.1-1kern1
 _ZN8casacore14MSPolarizationD2Ev@Base 3.2.1-1kern1
 _ZN8casacore14MSPolarizationaSERKS0_@Base 3.2.1-1kern1
 _ZN8casacore14MSSpwGramerrorEPKc@Base 3.2.1-1kern1
 _ZN8casacore14MSStateColumns10matchStateERKNS_7QuantumIdEES4_RKNS_6StringERKbS9_RKiS4_i@Base 3.2.1-1kern1
 _ZN8casacore14MSStateColumns6attachERKNS_7MSStateE@Base 3.2.1-1kern1
 _ZN8casacore14MSStateColumnsC1ERKNS_7MSStateE@Base 3.2.1-1kern1
 _ZN8casacore14MSStateColumnsC1Ev@Base 3.2.1-1kern1
 _ZN8casacore14MSStateColumnsC2ERKNS_7MSStateE@Base 3.2.1-1kern1
 _ZN8casacore14MSStateColumnsC2Ev@Base 3.2.1-1kern1
 _ZN8casacore14MSStateColumnsD1Ev@Base 3.2.1-1kern1
 _ZN8casacore14MSStateColumnsD2Ev@Base 3.2.1-1kern1
 _ZN8casacore14MSWeatherIndex6attachERKNS_9MSWeatherE@Base 3.2.1-1kern1
 _ZN8casacore14MSWeatherIndex9attachIdsEv@Base 3.2.1-1kern1
 _ZN8casacore14MSWeatherIndexC1ERKNS_9MSWeatherE@Base 3.2.1-1kern1
 _ZN8casacore14MSWeatherIndexC1ERKS0_@Base 3.2.1-1kern1
 _ZN8casacore14MSWeatherIndexC1Ev@Base 3.2.1-1kern1
 _ZN8casacore14MSWeatherIndexC2ERKNS_9MSWeatherE@Base 3.2.1-1kern1
 _ZN8casacore14MSWeatherIndexC2ERKS0_@Base 3.2.1-1kern1
 _ZN8casacore14MSWeatherIndexC2Ev@Base 3.2.1-1kern1
 _ZN8casacore14MSWeatherIndexD0Ev@Base 3.2.1-1kern1
 _ZN8casacore14MSWeatherIndexD1Ev@Base 3.2.1-1kern1
 _ZN8casacore14MSWeatherIndexD2Ev@Base 3.2.1-1kern1
 _ZN8casacore14MSWeatherIndexaSERKS0_@Base 3.2.1-1kern1
 _ZN8casacore14MeasurementSet12checkVersionEv@Base 3.2.1-1kern1
 _ZN8casacore14MeasurementSet12copySubtableERKNS_5TableERS1_@Base 3.2.1-1kern1
 _ZN8casacore14MeasurementSet12msseltoindexERKNS_6StringES3_S3_S3_S3_S3_S3_S3_S3_@Base 3.2.1-1kern1
 _ZN8casacore14MeasurementSet12openSubtableINS_10MSPointingEEEvRT_RKNS_6StringEb@Base 3.2.1-1kern1
 _ZN8casacore14MeasurementSet12openSubtableINS_11MSProcessorEEEvRT_RKNS_6StringEb@Base 3.2.1-1kern1
 _ZN8casacore14MeasurementSet12openSubtableINS_12MSFreqOffsetEEEvRT_RKNS_6StringEb@Base 3.2.1-1kern1
 _ZN8casacore14MeasurementSet12openSubtableINS_13MSObservationEEEvRT_RKNS_6StringEb@Base 3.2.1-1kern1
 _ZN8casacore14MeasurementSet12openSubtableINS_14MSPolarizationEEEvRT_RKNS_6StringEb@Base 3.2.1-1kern1
 _ZN8casacore14MeasurementSet12openSubtableINS_16MSSpectralWindowEEEvRT_RKNS_6StringEb@Base 3.2.1-1kern1
 _ZN8casacore14MeasurementSet12openSubtableINS_17MSDataDescriptionEEEvRT_RKNS_6StringEb@Base 3.2.1-1kern1
 _ZN8casacore14MeasurementSet12openSubtableINS_6MSFeedEEEvRT_RKNS_6StringEb@Base 3.2.1-1kern1
 _ZN8casacore14MeasurementSet12openSubtableINS_7MSFieldEEEvRT_RKNS_6StringEb@Base 3.2.1-1kern1
 _ZN8casacore14MeasurementSet12openSubtableINS_7MSStateEEEvRT_RKNS_6StringEb@Base 3.2.1-1kern1
 _ZN8casacore14MeasurementSet12openSubtableINS_8MSSourceEEEvRT_RKNS_6StringEb@Base 3.2.1-1kern1
 _ZN8casacore14MeasurementSet12openSubtableINS_8MSSysCalEEEvRT_RKNS_6StringEb@Base 3.2.1-1kern1
 _ZN8casacore14MeasurementSet12openSubtableINS_9MSAntennaEEEvRT_RKNS_6StringEb@Base 3.2.1-1kern1
 _ZN8casacore14MeasurementSet12openSubtableINS_9MSDopplerEEEvRT_RKNS_6StringEb@Base 3.2.1-1kern1
 _ZN8casacore14MeasurementSet12openSubtableINS_9MSFlagCmdEEEvRT_RKNS_6StringEb@Base 3.2.1-1kern1
 _ZN8casacore14MeasurementSet12openSubtableINS_9MSHistoryEEEvRT_RKNS_6StringEb@Base 3.2.1-1kern1
 _ZN8casacore14MeasurementSet12openSubtableINS_9MSWeatherEEEvRT_RKNS_6StringEb@Base 3.2.1-1kern1
 _ZN8casacore14MeasurementSet13copySubtablesERKS0_@Base 3.2.1-1kern1
 _ZN8casacore14MeasurementSet14clearSubtablesEv@Base 3.2.1-1kern1
 _ZN8casacore14MeasurementSet14openMrSubtableINS_10MSPointingEEEvRT_RKNS_6StringE@Base 3.2.1-1kern1
 _ZN8casacore14MeasurementSet14openMrSubtableINS_11MSProcessorEEEvRT_RKNS_6StringE@Base 3.2.1-1kern1
 _ZN8casacore14MeasurementSet14openMrSubtableINS_12MSFreqOffsetEEEvRT_RKNS_6StringE@Base 3.2.1-1kern1
 _ZN8casacore14MeasurementSet14openMrSubtableINS_13MSObservationEEEvRT_RKNS_6StringE@Base 3.2.1-1kern1
 _ZN8casacore14MeasurementSet14openMrSubtableINS_14MSPolarizationEEEvRT_RKNS_6StringE@Base 3.2.1-1kern1
 _ZN8casacore14MeasurementSet14openMrSubtableINS_16MSSpectralWindowEEEvRT_RKNS_6StringE@Base 3.2.1-1kern1
 _ZN8casacore14MeasurementSet14openMrSubtableINS_17MSDataDescriptionEEEvRT_RKNS_6StringE@Base 3.2.1-1kern1
 _ZN8casacore14MeasurementSet14openMrSubtableINS_6MSFeedEEEvRT_RKNS_6StringE@Base 3.2.1-1kern1
 _ZN8casacore14MeasurementSet14openMrSubtableINS_7MSFieldEEEvRT_RKNS_6StringE@Base 3.2.1-1kern1
 _ZN8casacore14MeasurementSet14openMrSubtableINS_7MSStateEEEvRT_RKNS_6StringE@Base 3.2.1-1kern1
 _ZN8casacore14MeasurementSet14openMrSubtableINS_8MSSourceEEEvRT_RKNS_6StringE@Base 3.2.1-1kern1
 _ZN8casacore14MeasurementSet14openMrSubtableINS_8MSSysCalEEEvRT_RKNS_6StringE@Base 3.2.1-1kern1
 _ZN8casacore14MeasurementSet14openMrSubtableINS_9MSAntennaEEEvRT_RKNS_6StringE@Base 3.2.1-1kern1
 _ZN8casacore14MeasurementSet14openMrSubtableINS_9MSDopplerEEEvRT_RKNS_6StringE@Base 3.2.1-1kern1
 _ZN8casacore14MeasurementSet14openMrSubtableINS_9MSFlagCmdEEEvRT_RKNS_6StringE@Base 3.2.1-1kern1
 _ZN8casacore14MeasurementSet14openMrSubtableINS_9MSHistoryEEEvRT_RKNS_6StringE@Base 3.2.1-1kern1
 _ZN8casacore14MeasurementSet14openMrSubtableINS_9MSWeatherEEEvRT_RKNS_6StringE@Base 3.2.1-1kern1
 _ZN8casacore14MeasurementSet15makeComplexDataEv@Base 3.2.1-1kern1
 _ZN8casacore14MeasurementSet19validateMeasureRefsEv@Base 3.2.1-1kern1
 _ZN8casacore14MeasurementSet22createDefaultSubtablesENS_5Table11TableOptionE@Base 3.2.1-1kern1
 _ZN8casacore14MeasurementSet26setMemoryResidentSubtablesERKNS_14MrsEligibilityE@Base 3.2.1-1kern1
 _ZN8casacore14MeasurementSet27createDefaultSubtables_implIiEEvNS_5Table11TableOptionET_@Base 3.2.1-1kern1
 _ZN8casacore14MeasurementSet5flushEb@Base 3.2.1-1kern1
 _ZN8casacore14MeasurementSet6addCatEv@Base 3.2.1-1kern1
 _ZN8casacore14MeasurementSet8initMapsEv@Base 3.2.1-1kern1
 _ZN8casacore14MeasurementSet8initRefsEb@Base 3.2.1-1kern1
 _ZN8casacore14MeasurementSetC1ERKNS_5TableEPKS0_@Base 3.2.1-1kern1
 _ZN8casacore14MeasurementSetC1ERKNS_6StringENS_5Table11TableOptionE@Base 3.2.1-1kern1
 _ZN8casacore14MeasurementSetC1ERKNS_6StringERKNS_9TableLockENS_5Table11TableOptionE@Base 3.2.1-1kern1
 _ZN8casacore14MeasurementSetC1ERKNS_6StringERKNS_9TableLockEbNS_5Table11TableOptionE@Base 3.2.1-1kern1
 _ZN8casacore14MeasurementSetC1ERKNS_6StringES3_NS_5Table11TableOptionE@Base 3.2.1-1kern1
 _ZN8casacore14MeasurementSetC1ERKNS_6StringES3_RKNS_9TableLockENS_5Table11TableOptionE@Base 3.2.1-1kern1
 _ZN8casacore14MeasurementSetC1ERKS0_@Base 3.2.1-1kern1
 _ZN8casacore14MeasurementSetC1ERNS_13SetupNewTableERKNS_9TableLockEjb@Base 3.2.1-1kern1
 _ZN8casacore14MeasurementSetC1ERNS_13SetupNewTableEjb@Base 3.2.1-1kern1
 _ZN8casacore14MeasurementSetC1Ev@Base 3.2.1-1kern1
 _ZN8casacore14MeasurementSetC2ERKNS_5TableEPKS0_@Base 3.2.1-1kern1
 _ZN8casacore14MeasurementSetC2ERKNS_6StringENS_5Table11TableOptionE@Base 3.2.1-1kern1
 _ZN8casacore14MeasurementSetC2ERKNS_6StringERKNS_9TableLockENS_5Table11TableOptionE@Base 3.2.1-1kern1
 _ZN8casacore14MeasurementSetC2ERKNS_6StringERKNS_9TableLockEbNS_5Table11TableOptionE@Base 3.2.1-1kern1
 _ZN8casacore14MeasurementSetC2ERKNS_6StringES3_NS_5Table11TableOptionE@Base 3.2.1-1kern1
 _ZN8casacore14MeasurementSetC2ERKNS_6StringES3_RKNS_9TableLockENS_5Table11TableOptionE@Base 3.2.1-1kern1
 _ZN8casacore14MeasurementSetC2ERKS0_@Base 3.2.1-1kern1
 _ZN8casacore14MeasurementSetC2ERNS_13SetupNewTableERKNS_9TableLockEjb@Base 3.2.1-1kern1
 _ZN8casacore14MeasurementSetC2ERNS_13SetupNewTableEjb@Base 3.2.1-1kern1
 _ZN8casacore14MeasurementSetC2Ev@Base 3.2.1-1kern1
 _ZN8casacore14MeasurementSetD0Ev@Base 3.2.1-1kern1
 _ZN8casacore14MeasurementSetD1Ev@Base 3.2.1-1kern1
 _ZN8casacore14MeasurementSetD2Ev@Base 3.2.1-1kern1
 _ZN8casacore14MeasurementSetaSERKS0_@Base 3.2.1-1kern1
 _ZN8casacore14MrsEligibility10isSubtableENS_11MSMainEnums18PredefinedKeywordsE@Base 3.2.1-1kern1
 _ZN8casacore14MrsEligibility11allEligibleEv@Base 3.2.1-1kern1
 _ZN8casacore14MrsEligibility12noneEligibleEv@Base 3.2.1-1kern1
 _ZN8casacore14MrsEligibility14allSubtables_pE@Base 3.2.1-1kern1
 _ZN8casacore14MrsEligibility15defaultEligibleEv@Base 3.2.1-1kern1
 _ZN8casacore14MrsEligibility17eligibleSubtablesENS_11MSMainEnums18PredefinedKeywordsEz@Base 3.2.1-1kern1
 _ZN8casacore14MrsEligibility20allButTheseSubtablesENS_11MSMainEnums18PredefinedKeywordsEz@Base 3.2.1-1kern1
 _ZN8casacore14MrsEligibilityD1Ev@Base 3.2.1-1kern1
 _ZN8casacore14MrsEligibilityD2Ev@Base 3.2.1-1kern1
 _ZN8casacore14NewMSSimulator10calcAntUVWERNS_6MEpochERNS_10MDirectionERNS_6MatrixIdEE@Base 3.2.1-1kern1
 _ZN8casacore14NewMSSimulator10formatTimeEd@Base 3.2.1-1kern1
 _ZN8casacore14NewMSSimulator10initFieldsERKNS_6StringERKNS_10MDirectionES3_@Base 3.2.1-1kern1
 _ZN8casacore14NewMSSimulator11getFeedModeERNS_6StringE@Base 3.2.1-1kern1
 _ZN8casacore14NewMSSimulator12getSpWindowsERiRNS_6VectorINS_6StringEEERNS2_IiEERNS2_INS_7QuantumIdEEEESB_S5_@Base 3.2.1-1kern1
 _ZN8casacore14NewMSSimulator12local2globalERNS_6VectorIdEES3_S3_RKNS_9MPositionERKS2_S8_S8_@Base 3.2.1-1kern1
 _ZN8casacore14NewMSSimulator13addHyperCubesEiiii@Base 3.2.1-1kern1
 _ZN8casacore14NewMSSimulator13initSpWindowsERKNS_6StringERKiRKNS_7QuantumIdEES9_S9_RKNS_10MFrequency5TypesES3_@Base 3.2.1-1kern1
 _ZN8casacore14NewMSSimulator14longlat2globalERNS_6VectorIdEES3_S3_RKNS_9MPositionERKS2_S8_S8_@Base 3.2.1-1kern1
 _ZN8casacore14NewMSSimulator15formatDirectionERKNS_10MDirectionE@Base 3.2.1-1kern1
 _ZN8casacore14NewMSSimulator6getAntERNS_6StringERiPNS_6MatrixIdEERNS_6VectorIdEES9_RNS7_IS1_EESB_SB_S2_RNS_9MPositionE@Base 3.2.1-1kern1
 _ZN8casacore14NewMSSimulator7initAntERKNS_6StringERKNS_6VectorIdEES7_S7_S7_S7_RKNS4_IS1_EESA_SA_S3_RKNS_9MPositionE@Base 3.2.1-1kern1
 _ZN8casacore14NewMSSimulator7observeERKNS_6StringES3_RKNS_7QuantumIdEES7_bbbRKdS9_jS3_S3_S3_@Base 3.2.1-1kern1
 _ZN8casacore14NewMSSimulator7observeERKNS_6VectorINS_6StringEEERKS2_RKNS1_INS_7QuantumIdEEEESC_RKNS1_INS_10MDirectionEEEbbbRKdSI_jS7_S7_S7_@Base 3.2.1-1kern1
 _ZN8casacore14NewMSSimulator8blockageERdS1_RKNS_6VectorIdEEdd@Base 3.2.1-1kern1
 _ZN8casacore14NewMSSimulator8defaultsEv@Base 3.2.1-1kern1
 _ZN8casacore14NewMSSimulator8settimesERKNS_7QuantumIdEEbRKNS_6MEpochE@Base 3.2.1-1kern1
 _ZN8casacore14NewMSSimulator9getFieldsERiRNS_6VectorINS_6StringEEERNS2_INS_10MDirectionEEES5_@Base 3.2.1-1kern1
 _ZN8casacore14NewMSSimulator9initFeedsERKNS_6StringE@Base 3.2.1-1kern1
 _ZN8casacore14NewMSSimulator9initFeedsERKNS_6StringERKNS_6VectorIdEES7_RKNS4_IS1_EE@Base 3.2.1-1kern1
 _ZN8casacore14NewMSSimulatorC1ERKNS_6StringE@Base 3.2.1-1kern1
 _ZN8casacore14NewMSSimulatorC1ERKS0_@Base 3.2.1-1kern1
 _ZN8casacore14NewMSSimulatorC1ERNS_14MeasurementSetE@Base 3.2.1-1kern1
 _ZN8casacore14NewMSSimulatorC2ERKNS_6StringE@Base 3.2.1-1kern1
 _ZN8casacore14NewMSSimulatorC2ERKS0_@Base 3.2.1-1kern1
 _ZN8casacore14NewMSSimulatorC2ERNS_14MeasurementSetE@Base 3.2.1-1kern1
 _ZN8casacore14NewMSSimulatorD1Ev@Base 3.2.1-1kern1
 _ZN8casacore14NewMSSimulatorD2Ev@Base 3.2.1-1kern1
 _ZN8casacore14NewMSSimulatoraSERKS0_@Base 3.2.1-1kern1
 _ZN8casacore14RecordFieldPtrIiE14attachToRecordERNS_15RecordInterfaceEi@Base 3.2.1-1kern1
 _ZN8casacore14RecordFieldPtrIiE6notifyERKNS_6NoticeE@Base 3.2.1-1kern1
 _ZN8casacore14RecordFieldPtrIiEC1ERKS1_@Base 3.2.1-1kern1
 _ZN8casacore14RecordFieldPtrIiEC1ERNS_15RecordInterfaceERKNS_13RecordFieldIdE@Base 3.2.1-1kern1
 _ZN8casacore14RecordFieldPtrIiEC2ERKS1_@Base 3.2.1-1kern1
 _ZN8casacore14RecordFieldPtrIiEC2ERNS_15RecordInterfaceERKNS_13RecordFieldIdE@Base 3.2.1-1kern1
 _ZN8casacore14RecordFieldPtrIiED0Ev@Base 3.2.1-1kern1
 _ZN8casacore14RecordFieldPtrIiED1Ev@Base 3.2.1-1kern1
 _ZN8casacore14RecordFieldPtrIiED2Ev@Base 3.2.1-1kern1
 _ZN8casacore14StatsHistogramIdEC1Eddj@Base 3.2.1-1kern1
 _ZN8casacore14StatsHistogramIdEC2Eddj@Base 3.2.1-1kern1
 _ZN8casacore14arrayTransformIfffNS_3MaxIfffEEEEvRKNS_5ArrayIT_EERKNS3_IT0_EERNS3_IT1_EET2_@Base 3.2.1-1kern1
 _ZN8casacore14arrayTransformIfffNS_3MinIfffEEEEvRKNS_5ArrayIT_EERKNS3_IT0_EERNS3_IT1_EET2_@Base 3.2.1-1kern1
 _ZN8casacore14msSpwGramInputEPci@Base 3.2.1-1kern1
 _ZN8casacore15ArrayMeasColumnINS_10MDirectionEE12setDescUnitsERKNS_6VectorINS_4UnitEEEb@Base 3.2.1-1kern1
 _ZN8casacore15ArrayMeasColumnINS_10MDirectionEE13setDescOffsetERKNS_7MeasureEb@Base 3.2.1-1kern1
 _ZN8casacore15ArrayMeasColumnINS_10MDirectionEE14setDescRefCodeEjb@Base 3.2.1-1kern1
 _ZN8casacore15ArrayMeasColumnINS_10MDirectionEE3putEjRKNS_5ArrayIS1_EE@Base 3.2.1-1kern1
 _ZN8casacore15ArrayMeasColumnINS_10MDirectionEE6attachERKNS_5TableERKNS_6StringE@Base 3.2.1-1kern1
 _ZN8casacore15ArrayMeasColumnINS_10MDirectionEE7cleanUpEv@Base 3.2.1-1kern1
 _ZN8casacore15ArrayMeasColumnINS_10MDirectionEE9referenceERKS2_@Base 3.2.1-1kern1
 _ZN8casacore15ArrayMeasColumnINS_10MDirectionEEC1ERKNS_5TableERKNS_6StringE@Base 3.2.1-1kern1
 _ZN8casacore15ArrayMeasColumnINS_10MDirectionEEC1ERKS2_@Base 3.2.1-1kern1
 _ZN8casacore15ArrayMeasColumnINS_10MDirectionEEC1Ev@Base 3.2.1-1kern1
 _ZN8casacore15ArrayMeasColumnINS_10MDirectionEEC2ERKNS_5TableERKNS_6StringE@Base 3.2.1-1kern1
 _ZN8casacore15ArrayMeasColumnINS_10MDirectionEEC2ERKS2_@Base 3.2.1-1kern1
 _ZN8casacore15ArrayMeasColumnINS_10MDirectionEEC2Ev@Base 3.2.1-1kern1
 _ZN8casacore15ArrayMeasColumnINS_10MDirectionEED0Ev@Base 3.2.1-1kern1
 _ZN8casacore15ArrayMeasColumnINS_10MDirectionEED1Ev@Base 3.2.1-1kern1
 _ZN8casacore15ArrayMeasColumnINS_10MDirectionEED2Ev@Base 3.2.1-1kern1
 _ZN8casacore15ArrayMeasColumnINS_10MFrequencyEE7cleanUpEv@Base 3.2.1-1kern1
 _ZN8casacore15ArrayMeasColumnINS_10MFrequencyEE9referenceERKS2_@Base 3.2.1-1kern1
 _ZN8casacore15ArrayMeasColumnINS_10MFrequencyEEC1ERKNS_5TableERKNS_6StringE@Base 3.2.1-1kern1
 _ZN8casacore15ArrayMeasColumnINS_10MFrequencyEEC2ERKNS_5TableERKNS_6StringE@Base 3.2.1-1kern1
 _ZN8casacore15ArrayMeasColumnINS_10MFrequencyEED0Ev@Base 3.2.1-1kern1
 _ZN8casacore15ArrayMeasColumnINS_10MFrequencyEED1Ev@Base 3.2.1-1kern1
 _ZN8casacore15ArrayMeasColumnINS_10MFrequencyEED2Ev@Base 3.2.1-1kern1
 _ZN8casacore15ArrayMeasColumnINS_15MRadialVelocityEE7cleanUpEv@Base 3.2.1-1kern1
 _ZN8casacore15ArrayMeasColumnINS_15MRadialVelocityEE9referenceERKS2_@Base 3.2.1-1kern1
 _ZN8casacore15ArrayMeasColumnINS_15MRadialVelocityEEC1ERKNS_5TableERKNS_6StringE@Base 3.2.1-1kern1
 _ZN8casacore15ArrayMeasColumnINS_15MRadialVelocityEEC2ERKNS_5TableERKNS_6StringE@Base 3.2.1-1kern1
 _ZN8casacore15ArrayMeasColumnINS_15MRadialVelocityEED0Ev@Base 3.2.1-1kern1
 _ZN8casacore15ArrayMeasColumnINS_15MRadialVelocityEED1Ev@Base 3.2.1-1kern1
 _ZN8casacore15ArrayMeasColumnINS_15MRadialVelocityEED2Ev@Base 3.2.1-1kern1
 _ZN8casacore15ArrayMeasColumnINS_6MEpochEE14setDescRefCodeEjb@Base 3.2.1-1kern1
 _ZN8casacore15ArrayMeasColumnINS_6MEpochEE7cleanUpEv@Base 3.2.1-1kern1
 _ZN8casacore15ArrayMeasColumnINS_6MEpochEE9referenceERKS2_@Base 3.2.1-1kern1
 _ZN8casacore15ArrayMeasColumnINS_6MEpochEEC1ERKNS_5TableERKNS_6StringE@Base 3.2.1-1kern1
 _ZN8casacore15ArrayMeasColumnINS_6MEpochEEC2ERKNS_5TableERKNS_6StringE@Base 3.2.1-1kern1
 _ZN8casacore15ArrayMeasColumnINS_6MEpochEED0Ev@Base 3.2.1-1kern1
 _ZN8casacore15ArrayMeasColumnINS_6MEpochEED1Ev@Base 3.2.1-1kern1
 _ZN8casacore15ArrayMeasColumnINS_6MEpochEED2Ev@Base 3.2.1-1kern1
 _ZN8casacore15GenSortIndirectIdE10insSortAscEPjPKdii@Base 3.2.1-1kern1
 _ZN8casacore15GenSortIndirectIdE11heapSortAscEPjPKdi@Base 3.2.1-1kern1
 _ZN8casacore15GenSortIndirectIdE12quickSortAscEPjPKdibi@Base 3.2.1-1kern1
 _ZN8casacore15GenSortIndirectIdE15heapAscSiftDownEPjiiPKd@Base 3.2.1-1kern1
 _ZN8casacore15GenSortIndirectIdE15insSortAscNoDupEPjPKdi@Base 3.2.1-1kern1
 _ZN8casacore15GenSortIndirectIdE5mergeEPKdPjS4_jS4_j@Base 3.2.1-1kern1
 _ZN8casacore15GenSortIndirectIdE7parSortEPjPKdjNS_4Sort5OrderEii@Base 3.2.1-1kern1
 _ZN8casacore15MSCorrGramerrorEPKc@Base 3.2.1-1kern1
 _ZN8casacore15MSDataDescIndex10matchPolIdERKNS_6VectorIiEE@Base 3.2.1-1kern1
 _ZN8casacore15MSDataDescIndex10matchPolIdERKi@Base 3.2.1-1kern1
 _ZN8casacore15MSDataDescIndex10matchSpwIdERKNS_6VectorIiEE@Base 3.2.1-1kern1
 _ZN8casacore15MSDataDescIndex10matchSpwIdERKi@Base 3.2.1-1kern1
 _ZN8casacore15MSDataDescIndex20matchSpwIdAndPolznIdERKiS2_@Base 3.2.1-1kern1
 _ZN8casacore15MSDataDescIndexC1ERKNS_17MSDataDescriptionE@Base 3.2.1-1kern1
 _ZN8casacore15MSDataDescIndexC2ERKNS_17MSDataDescriptionE@Base 3.2.1-1kern1
 _ZN8casacore15MSDataDescIndexD0Ev@Base 3.2.1-1kern1
 _ZN8casacore15MSDataDescIndexD1Ev@Base 3.2.1-1kern1
 _ZN8casacore15MSDataDescIndexD2Ev@Base 3.2.1-1kern1
 _ZN8casacore15MSDerivedValues10setAntennaEi@Base 3.2.1-1kern1
 _ZN8casacore15MSDerivedValues10toVelocityERKNS_7QuantumIdEE@Base 3.2.1-1kern1
 _ZN8casacore15MSDerivedValues10toVelocityERKNS_7QuantumIdEES4_@Base 3.2.1-1kern1
 _ZN8casacore15MSDerivedValues11setAntennasERKNS_16MSAntennaColumnsE@Base 3.2.1-1kern1
 _ZN8casacore15MSDerivedValues11toFrequencyERKNS_7QuantumIdEE@Base 3.2.1-1kern1
 _ZN8casacore15MSDerivedValues11toFrequencyERKNS_7QuantumIdEES4_@Base 3.2.1-1kern1
 _ZN8casacore15MSDerivedValues14setFieldCenterERKNS_10MDirectionE@Base 3.2.1-1kern1
 _ZN8casacore15MSDerivedValues14setFieldCenterEj@Base 3.2.1-1kern1
 _ZN8casacore15MSDerivedValues15setAntennaMountERKNS_6VectorINS_6StringEEE@Base 3.2.1-1kern1
 _ZN8casacore15MSDerivedValues16setRestFrequencyERKNS_7QuantumIdEE@Base 3.2.1-1kern1
 _ZN8casacore15MSDerivedValues16setRestFrequencyEiii@Base 3.2.1-1kern1
 _ZN8casacore15MSDerivedValues16setVelocityFrameENS_15MRadialVelocity5TypesE@Base 3.2.1-1kern1
 _ZN8casacore15MSDerivedValues17setMeasurementSetERKNS_14MeasurementSetE@Base 3.2.1-1kern1
 _ZN8casacore15MSDerivedValues19setAntennaPositionsERKNS_6VectorINS_9MPositionEEE@Base 3.2.1-1kern1
 _ZN8casacore15MSDerivedValues20setVelocityReferenceENS_8MDoppler5TypesE@Base 3.2.1-1kern1
 _ZN8casacore15MSDerivedValues21setFrequencyReferenceENS_10MFrequency5TypesE@Base 3.2.1-1kern1
 _ZN8casacore15MSDerivedValues22setObservatoryPositionERKNS_9MPositionE@Base 3.2.1-1kern1
 _ZN8casacore15MSDerivedValues4azelEv@Base 3.2.1-1kern1
 _ZN8casacore15MSDerivedValues4initEv@Base 3.2.1-1kern1
 _ZN8casacore15MSDerivedValues4lastEv@Base 3.2.1-1kern1
 _ZN8casacore15MSDerivedValues6obsVelEv@Base 3.2.1-1kern1
 _ZN8casacore15MSDerivedValues8parAngleEv@Base 3.2.1-1kern1
 _ZN8casacore15MSDerivedValues8setEpochERKNS_6MEpochE@Base 3.2.1-1kern1
 _ZN8casacore15MSDerivedValues9hourAngleEv@Base 3.2.1-1kern1
 _ZN8casacore15MSDerivedValuesC1ERKS0_@Base 3.2.1-1kern1
 _ZN8casacore15MSDerivedValuesC1Ev@Base 3.2.1-1kern1
 _ZN8casacore15MSDerivedValuesC2ERKS0_@Base 3.2.1-1kern1
 _ZN8casacore15MSDerivedValuesC2Ev@Base 3.2.1-1kern1
 _ZN8casacore15MSDerivedValuesD1Ev@Base 3.2.1-1kern1
 _ZN8casacore15MSDerivedValuesD2Ev@Base 3.2.1-1kern1
 _ZN8casacore15MSDerivedValuesaSERKS0_@Base 3.2.1-1kern1
 _ZN8casacore15MSFeedGramerrorEPKc@Base 3.2.1-1kern1
 _ZN8casacore15MSPointingIndex6attachERKNS_10MSPointingE@Base 3.2.1-1kern1
 _ZN8casacore15MSPointingIndex9attachIdsEv@Base 3.2.1-1kern1
 _ZN8casacore15MSPointingIndexC1ERKNS_10MSPointingE@Base 3.2.1-1kern1
 _ZN8casacore15MSPointingIndexC1ERKS0_@Base 3.2.1-1kern1
 _ZN8casacore15MSPointingIndexC1Ev@Base 3.2.1-1kern1
 _ZN8casacore15MSPointingIndexC2ERKNS_10MSPointingE@Base 3.2.1-1kern1
 _ZN8casacore15MSPointingIndexC2ERKS0_@Base 3.2.1-1kern1
 _ZN8casacore15MSPointingIndexC2Ev@Base 3.2.1-1kern1
 _ZN8casacore15MSPointingIndexD0Ev@Base 3.2.1-1kern1
 _ZN8casacore15MSPointingIndexD1Ev@Base 3.2.1-1kern1
 _ZN8casacore15MSPointingIndexD2Ev@Base 3.2.1-1kern1
 _ZN8casacore15MSPointingIndexaSERKS0_@Base 3.2.1-1kern1
 _ZN8casacore15MSPolnGramerrorEPc@Base 3.2.1-1kern1
 _ZN8casacore15MSScanGramerrorEPKc@Base 3.2.1-1kern1
 _ZN8casacore15MSSourceColumns11setEpochRefENS_6MEpoch5TypesEb@Base 3.2.1-1kern1
 _ZN8casacore15MSSourceColumns14setPositionRefENS_9MPosition5TypesE@Base 3.2.1-1kern1
 _ZN8casacore15MSSourceColumns15setDirectionRefENS_10MDirection5TypesE@Base 3.2.1-1kern1
 _ZN8casacore15MSSourceColumns15setFrequencyRefENS_10MFrequency5TypesE@Base 3.2.1-1kern1
 _ZN8casacore15MSSourceColumns18attachOptionalColsERKNS_8MSSourceE@Base 3.2.1-1kern1
 _ZN8casacore15MSSourceColumns20setRadialVelocityRefENS_15MRadialVelocity5TypesE@Base 3.2.1-1kern1
 _ZN8casacore15MSSourceColumns6attachERKNS_8MSSourceE@Base 3.2.1-1kern1
 _ZN8casacore15MSSourceColumnsC1ERKNS_8MSSourceE@Base 3.2.1-1kern1
 _ZN8casacore15MSSourceColumnsC1Ev@Base 3.2.1-1kern1
 _ZN8casacore15MSSourceColumnsC2ERKNS_8MSSourceE@Base 3.2.1-1kern1
 _ZN8casacore15MSSourceColumnsC2Ev@Base 3.2.1-1kern1
 _ZN8casacore15MSSourceColumnsD1Ev@Base 3.2.1-1kern1
 _ZN8casacore15MSSourceColumnsD2Ev@Base 3.2.1-1kern1
 _ZN8casacore15MSSpWindowIndex12matchFreqGrpERKNS_6VectorIiEE@Base 3.2.1-1kern1
 _ZN8casacore15MSSpWindowIndex12matchFreqGrpERKi@Base 3.2.1-1kern1
 _ZN8casacore15MSSpWindowIndex16matchFreqGrpNameERKNS_6StringE@Base 3.2.1-1kern1
 _ZN8casacore15MSSpWindowIndex9matchFreqERKNS_6VectorINS_10MFrequencyEEERKNS1_INS_11MVFrequencyEEERKd@Base 3.2.1-1kern1
 _ZN8casacore15MSSpWindowIndexC1ERKNS_16MSSpectralWindowE@Base 3.2.1-1kern1
 _ZN8casacore15MSSpWindowIndexC2ERKNS_16MSSpectralWindowE@Base 3.2.1-1kern1
 _ZN8casacore15MSSpWindowIndexD0Ev@Base 3.2.1-1kern1
 _ZN8casacore15MSSpWindowIndexD1Ev@Base 3.2.1-1kern1
 _ZN8casacore15MSSpWindowIndexD2Ev@Base 3.2.1-1kern1
 _ZN8casacore15MSSysCalColumns11setEpochRefENS_6MEpoch5TypesEb@Base 3.2.1-1kern1
 _ZN8casacore15MSSysCalColumns6attachERKNS_8MSSysCalE@Base 3.2.1-1kern1
 _ZN8casacore15MSSysCalColumnsC1ERKNS_8MSSysCalE@Base 3.2.1-1kern1
 _ZN8casacore15MSSysCalColumnsC1Ev@Base 3.2.1-1kern1
 _ZN8casacore15MSSysCalColumnsC2ERKNS_8MSSysCalE@Base 3.2.1-1kern1
 _ZN8casacore15MSSysCalColumnsC2Ev@Base 3.2.1-1kern1
 _ZN8casacore15MSSysCalColumnsD1Ev@Base 3.2.1-1kern1
 _ZN8casacore15MSSysCalColumnsD2Ev@Base 3.2.1-1kern1
 _ZN8casacore15MSTimeGramerrorEPKc@Base 3.2.1-1kern1
 _ZN8casacore15NewDelAllocatorINS_10MDirectionEE5valueE@Base 3.2.1-1kern1
 _ZN8casacore15NewDelAllocatorINS_10MDirectionEED0Ev@Base 3.2.1-1kern1
 _ZN8casacore15NewDelAllocatorINS_10MDirectionEED1Ev@Base 3.2.1-1kern1
 _ZN8casacore15NewDelAllocatorINS_10MDirectionEED2Ev@Base 3.2.1-1kern1
 _ZN8casacore15NewDelAllocatorINS_10MFrequencyEE5valueE@Base 3.2.1-1kern1
 _ZN8casacore15NewDelAllocatorINS_10MFrequencyEED0Ev@Base 3.2.1-1kern1
 _ZN8casacore15NewDelAllocatorINS_10MFrequencyEED1Ev@Base 3.2.1-1kern1
 _ZN8casacore15NewDelAllocatorINS_10MFrequencyEED2Ev@Base 3.2.1-1kern1
 _ZN8casacore15NewDelAllocatorINS_11RigidVectorIdLi2EEEE5valueE@Base 3.2.1-1kern1
 _ZN8casacore15NewDelAllocatorINS_11RigidVectorIdLi2EEEED0Ev@Base 3.2.1-1kern1
 _ZN8casacore15NewDelAllocatorINS_11RigidVectorIdLi2EEEED1Ev@Base 3.2.1-1kern1
 _ZN8casacore15NewDelAllocatorINS_11RigidVectorIdLi2EEEED2Ev@Base 3.2.1-1kern1
 _ZN8casacore15NewDelAllocatorINS_12SquareMatrixISt7complexIfELi2EEEE5valueE@Base 3.2.1-1kern1
 _ZN8casacore15NewDelAllocatorINS_12SquareMatrixISt7complexIfELi2EEEED0Ev@Base 3.2.1-1kern1
 _ZN8casacore15NewDelAllocatorINS_12SquareMatrixISt7complexIfELi2EEEED1Ev@Base 3.2.1-1kern1
 _ZN8casacore15NewDelAllocatorINS_12SquareMatrixISt7complexIfELi2EEEED2Ev@Base 3.2.1-1kern1
 _ZN8casacore15NewDelAllocatorINS_4UnitEE5valueE@Base 3.2.1-1kern1
 _ZN8casacore15NewDelAllocatorINS_4UnitEED0Ev@Base 3.2.1-1kern1
 _ZN8casacore15NewDelAllocatorINS_4UnitEED1Ev@Base 3.2.1-1kern1
 _ZN8casacore15NewDelAllocatorINS_4UnitEED2Ev@Base 3.2.1-1kern1
 _ZN8casacore15NewDelAllocatorINS_5SliceEE5valueE@Base 3.2.1-1kern1
 _ZN8casacore15NewDelAllocatorINS_5SliceEED0Ev@Base 3.2.1-1kern1
 _ZN8casacore15NewDelAllocatorINS_5SliceEED1Ev@Base 3.2.1-1kern1
 _ZN8casacore15NewDelAllocatorINS_5SliceEED2Ev@Base 3.2.1-1kern1
 _ZN8casacore15NewDelAllocatorINS_6MVTimeEE5valueE@Base 3.2.1-1kern1
 _ZN8casacore15NewDelAllocatorINS_6MVTimeEED0Ev@Base 3.2.1-1kern1
 _ZN8casacore15NewDelAllocatorINS_6MVTimeEED1Ev@Base 3.2.1-1kern1
 _ZN8casacore15NewDelAllocatorINS_6MVTimeEED2Ev@Base 3.2.1-1kern1
 _ZN8casacore15NewDelAllocatorINS_6Stokes11StokesTypesEE5valueE@Base 3.2.1-1kern1
 _ZN8casacore15NewDelAllocatorINS_6Stokes11StokesTypesEED0Ev@Base 3.2.1-1kern1
 _ZN8casacore15NewDelAllocatorINS_6Stokes11StokesTypesEED1Ev@Base 3.2.1-1kern1
 _ZN8casacore15NewDelAllocatorINS_6Stokes11StokesTypesEED2Ev@Base 3.2.1-1kern1
 _ZN8casacore15NewDelAllocatorINS_6VectorINS_5SliceEEEE5valueE@Base 3.2.1-1kern1
 _ZN8casacore15NewDelAllocatorINS_6VectorINS_5SliceEEEED0Ev@Base 3.2.1-1kern1
 _ZN8casacore15NewDelAllocatorINS_6VectorINS_5SliceEEEED1Ev@Base 3.2.1-1kern1
 _ZN8casacore15NewDelAllocatorINS_6VectorINS_5SliceEEEED2Ev@Base 3.2.1-1kern1
 _ZN8casacore15NewDelAllocatorINS_6VectorIiEEE5valueE@Base 3.2.1-1kern1
 _ZN8casacore15NewDelAllocatorINS_6VectorIiEEED0Ev@Base 3.2.1-1kern1
 _ZN8casacore15NewDelAllocatorINS_6VectorIiEEED1Ev@Base 3.2.1-1kern1
 _ZN8casacore15NewDelAllocatorINS_6VectorIiEEED2Ev@Base 3.2.1-1kern1
 _ZN8casacore15NewDelAllocatorINS_7QuantumIdEEE5valueE@Base 3.2.1-1kern1
 _ZN8casacore15NewDelAllocatorINS_7QuantumIdEEED0Ev@Base 3.2.1-1kern1
 _ZN8casacore15NewDelAllocatorINS_7QuantumIdEEED1Ev@Base 3.2.1-1kern1
 _ZN8casacore15NewDelAllocatorINS_7QuantumIdEEED2Ev@Base 3.2.1-1kern1
 _ZN8casacore15NewDelAllocatorINS_9MPositionEE5valueE@Base 3.2.1-1kern1
 _ZN8casacore15NewDelAllocatorINS_9MPositionEED0Ev@Base 3.2.1-1kern1
 _ZN8casacore15NewDelAllocatorINS_9MPositionEED1Ev@Base 3.2.1-1kern1
 _ZN8casacore15NewDelAllocatorINS_9MPositionEED2Ev@Base 3.2.1-1kern1
 _ZN8casacore15NewDelAllocatorIPNS_6SlicerEE5valueE@Base 3.2.1-1kern1
 _ZN8casacore15NewDelAllocatorIPNS_6SlicerEED0Ev@Base 3.2.1-1kern1
 _ZN8casacore15NewDelAllocatorIPNS_6SlicerEED1Ev@Base 3.2.1-1kern1
 _ZN8casacore15NewDelAllocatorIPNS_6SlicerEED2Ev@Base 3.2.1-1kern1
 _ZN8casacore15NewDelAllocatorIPNS_9MeasCometEE5valueE@Base 3.2.1-1kern1
 _ZN8casacore15NewDelAllocatorIPNS_9MeasCometEED0Ev@Base 3.2.1-1kern1
 _ZN8casacore15NewDelAllocatorIPNS_9MeasCometEED1Ev@Base 3.2.1-1kern1
 _ZN8casacore15NewDelAllocatorIPNS_9MeasCometEED2Ev@Base 3.2.1-1kern1
 _ZN8casacore15StokesConverter13setConversionERKNS_6VectorIiEES4_b@Base 3.2.1-1kern1
 _ZN8casacore15StokesConverter14initConvMatrixEv@Base 3.2.1-1kern1
 _ZN8casacore15StokesConverterC1ERKNS_6VectorIiEES4_b@Base 3.2.1-1kern1
 _ZN8casacore15StokesConverterC1ERKS0_@Base 3.2.1-1kern1
 _ZN8casacore15StokesConverterC1Ev@Base 3.2.1-1kern1
 _ZN8casacore15StokesConverterC2ERKNS_6VectorIiEES4_b@Base 3.2.1-1kern1
 _ZN8casacore15StokesConverterC2ERKS0_@Base 3.2.1-1kern1
 _ZN8casacore15StokesConverterC2Ev@Base 3.2.1-1kern1
 _ZN8casacore15StokesConverterD1Ev@Base 3.2.1-1kern1
 _ZN8casacore15StokesConverterD2Ev@Base 3.2.1-1kern1
 _ZN8casacore15StokesConverteraSERKS0_@Base 3.2.1-1kern1
 _ZN8casacore15arrayCompareAllINS_6StringESt8equal_toIS1_EEEbRKNS_5ArrayIT_EES8_T0_@Base 3.2.1-1kern1
 _ZN8casacore15arrayCompareAllISt7complexIfESt8equal_toIS2_EEEbRKNS_5ArrayIT_EES9_T0_@Base 3.2.1-1kern1
 _ZN8casacore15arrayCompareAllIbSt8equal_toIbEEEbRKNS_5ArrayIT_EES4_T0_@Base 3.2.1-1kern1
 _ZN8casacore15arrayCompareAllIdNS_7NearAbsIddEEEEbRKNS_5ArrayIT_EES7_T0_@Base 3.2.1-1kern1
 _ZN8casacore15arrayCompareAllIdSt10less_equalIdEEEbRKNS_5ArrayIT_EES4_T0_@Base 3.2.1-1kern1
 _ZN8casacore15arrayCompareAllIdSt13greater_equalIdEEEbRKNS_5ArrayIT_EES4_T0_@Base 3.2.1-1kern1
 _ZN8casacore15arrayCompareAllIdSt8equal_toIdEEEbRKNS_5ArrayIT_EES4_T0_@Base 3.2.1-1kern1
 _ZN8casacore15arrayCompareAllIdSt8equal_toIdEEEbRKNS_5ArrayIT_EES7_T0_@Base 3.2.1-1kern1
 _ZN8casacore15arrayCompareAllIiSt8equal_toIiEEEbRKNS_5ArrayIT_EES4_T0_@Base 3.2.1-1kern1
 _ZN8casacore15arrayCompareAllIiSt8equal_toIiEEEbRKNS_5ArrayIT_EES7_T0_@Base 3.2.1-1kern1
 _ZN8casacore15arrayCompareAnyIbSt8equal_toIbEEEbRKNS_5ArrayIT_EES4_T0_@Base 3.2.1-1kern1
 _ZN8casacore15arrayCompareAnyIiSt12not_equal_toIiEEEbRKNS_5ArrayIT_EES7_T0_@Base 3.2.1-1kern1
 _ZN8casacore15arrayCompareAnyIiSt4lessIiEEEbRKNS_5ArrayIT_EES4_T0_@Base 3.2.1-1kern1
 _ZN8casacore15arrayCompareAnyIiSt8equal_toIiEEEbRKNS_5ArrayIT_EES4_T0_@Base 3.2.1-1kern1
 _ZN8casacore15msCorrGramInputEPci@Base 3.2.1-1kern1
 _ZN8casacore15msFeedGramInputEPci@Base 3.2.1-1kern1
 _ZN8casacore15msScanGramInputEPci@Base 3.2.1-1kern1
 _ZN8casacore15msTimeGramInputEPci@Base 3.2.1-1kern1
 _ZN8casacore15uniqueArrayKeysERKSt3setINS_7ScanKeyESt4lessIS1_ESaIS1_EE@Base 3.2.1-1kern1
 _ZN8casacore16ArrayQuantColumnIdE3putEjRKNS_5ArrayINS_7QuantumIdEEEE@Base 3.2.1-1kern1
 _ZN8casacore16ArrayQuantColumnIdE4initERKNS_5TableERKNS_6StringE@Base 3.2.1-1kern1
 _ZN8casacore16ArrayQuantColumnIdE6attachERKNS_5TableERKNS_6StringE@Base 3.2.1-1kern1
 _ZN8casacore16ArrayQuantColumnIdE6attachERKNS_5TableERKNS_6StringERKNS_4UnitE@Base 3.2.1-1kern1
 _ZN8casacore16ArrayQuantColumnIdE6attachERKNS_5TableERKNS_6StringERKNS_6VectorINS_4UnitEEE@Base 3.2.1-1kern1
 _ZN8casacore16ArrayQuantColumnIdE7cleanUpEv@Base 3.2.1-1kern1
 _ZN8casacore16ArrayQuantColumnIdE9referenceERKS1_@Base 3.2.1-1kern1
 _ZN8casacore16ArrayQuantColumnIdEC1ERKNS_5TableERKNS_6StringE@Base 3.2.1-1kern1
 _ZN8casacore16ArrayQuantColumnIdEC1ERKNS_5TableERKNS_6StringERKNS_4UnitE@Base 3.2.1-1kern1
 _ZN8casacore16ArrayQuantColumnIdEC1ERKNS_5TableERKNS_6StringERKNS_6VectorINS_4UnitEEE@Base 3.2.1-1kern1
 _ZN8casacore16ArrayQuantColumnIdEC1ERKS1_@Base 3.2.1-1kern1
 _ZN8casacore16ArrayQuantColumnIdEC1Ev@Base 3.2.1-1kern1
 _ZN8casacore16ArrayQuantColumnIdEC2ERKNS_5TableERKNS_6StringE@Base 3.2.1-1kern1
 _ZN8casacore16ArrayQuantColumnIdEC2ERKNS_5TableERKNS_6StringERKNS_4UnitE@Base 3.2.1-1kern1
 _ZN8casacore16ArrayQuantColumnIdEC2ERKNS_5TableERKNS_6StringERKNS_6VectorINS_4UnitEEE@Base 3.2.1-1kern1
 _ZN8casacore16ArrayQuantColumnIdEC2ERKS1_@Base 3.2.1-1kern1
 _ZN8casacore16ArrayQuantColumnIdEC2Ev@Base 3.2.1-1kern1
 _ZN8casacore16ArrayQuantColumnIdED1Ev@Base 3.2.1-1kern1
 _ZN8casacore16ArrayQuantColumnIdED2Ev@Base 3.2.1-1kern1
 _ZN8casacore16ArrayQuantColumnIfE4initERKNS_5TableERKNS_6StringE@Base 3.2.1-1kern1
 _ZN8casacore16ArrayQuantColumnIfE6attachERKNS_5TableERKNS_6StringE@Base 3.2.1-1kern1
 _ZN8casacore16ArrayQuantColumnIfE7cleanUpEv@Base 3.2.1-1kern1
 _ZN8casacore16ArrayQuantColumnIfE9referenceERKS1_@Base 3.2.1-1kern1
 _ZN8casacore16ArrayQuantColumnIfEC1Ev@Base 3.2.1-1kern1
 _ZN8casacore16ArrayQuantColumnIfEC2Ev@Base 3.2.1-1kern1
 _ZN8casacore16ArrayQuantColumnIfED1Ev@Base 3.2.1-1kern1
 _ZN8casacore16ArrayQuantColumnIfED2Ev@Base 3.2.1-1kern1
 _ZN8casacore16DefaultAllocatorINS_10MDirectionEE5valueE@Base 3.2.1-1kern1
 _ZN8casacore16DefaultAllocatorINS_10MDirectionEED0Ev@Base 3.2.1-1kern1
 _ZN8casacore16DefaultAllocatorINS_10MDirectionEED1Ev@Base 3.2.1-1kern1
 _ZN8casacore16DefaultAllocatorINS_10MDirectionEED2Ev@Base 3.2.1-1kern1
 _ZN8casacore16DefaultAllocatorINS_10MFrequencyEE5valueE@Base 3.2.1-1kern1
 _ZN8casacore16DefaultAllocatorINS_10MFrequencyEED0Ev@Base 3.2.1-1kern1
 _ZN8casacore16DefaultAllocatorINS_10MFrequencyEED1Ev@Base 3.2.1-1kern1
 _ZN8casacore16DefaultAllocatorINS_10MFrequencyEED2Ev@Base 3.2.1-1kern1
 _ZN8casacore16DefaultAllocatorINS_11RigidVectorIdLi2EEEE5valueE@Base 3.2.1-1kern1
 _ZN8casacore16DefaultAllocatorINS_11RigidVectorIdLi2EEEED0Ev@Base 3.2.1-1kern1
 _ZN8casacore16DefaultAllocatorINS_11RigidVectorIdLi2EEEED1Ev@Base 3.2.1-1kern1
 _ZN8casacore16DefaultAllocatorINS_11RigidVectorIdLi2EEEED2Ev@Base 3.2.1-1kern1
 _ZN8casacore16DefaultAllocatorINS_12SquareMatrixISt7complexIfELi2EEEE5valueE@Base 3.2.1-1kern1
 _ZN8casacore16DefaultAllocatorINS_12SquareMatrixISt7complexIfELi2EEEED0Ev@Base 3.2.1-1kern1
 _ZN8casacore16DefaultAllocatorINS_12SquareMatrixISt7complexIfELi2EEEED1Ev@Base 3.2.1-1kern1
 _ZN8casacore16DefaultAllocatorINS_12SquareMatrixISt7complexIfELi2EEEED2Ev@Base 3.2.1-1kern1
 _ZN8casacore16DefaultAllocatorINS_4UnitEE5valueE@Base 3.2.1-1kern1
 _ZN8casacore16DefaultAllocatorINS_4UnitEED0Ev@Base 3.2.1-1kern1
 _ZN8casacore16DefaultAllocatorINS_4UnitEED1Ev@Base 3.2.1-1kern1
 _ZN8casacore16DefaultAllocatorINS_4UnitEED2Ev@Base 3.2.1-1kern1
 _ZN8casacore16DefaultAllocatorINS_5SliceEE5valueE@Base 3.2.1-1kern1
 _ZN8casacore16DefaultAllocatorINS_5SliceEED0Ev@Base 3.2.1-1kern1
 _ZN8casacore16DefaultAllocatorINS_5SliceEED1Ev@Base 3.2.1-1kern1
 _ZN8casacore16DefaultAllocatorINS_5SliceEED2Ev@Base 3.2.1-1kern1
 _ZN8casacore16DefaultAllocatorINS_6MVTimeEE5valueE@Base 3.2.1-1kern1
 _ZN8casacore16DefaultAllocatorINS_6MVTimeEED0Ev@Base 3.2.1-1kern1
 _ZN8casacore16DefaultAllocatorINS_6MVTimeEED1Ev@Base 3.2.1-1kern1
 _ZN8casacore16DefaultAllocatorINS_6MVTimeEED2Ev@Base 3.2.1-1kern1
 _ZN8casacore16DefaultAllocatorINS_6Stokes11StokesTypesEE5valueE@Base 3.2.1-1kern1
 _ZN8casacore16DefaultAllocatorINS_6Stokes11StokesTypesEED0Ev@Base 3.2.1-1kern1
 _ZN8casacore16DefaultAllocatorINS_6Stokes11StokesTypesEED1Ev@Base 3.2.1-1kern1
 _ZN8casacore16DefaultAllocatorINS_6Stokes11StokesTypesEED2Ev@Base 3.2.1-1kern1
 _ZN8casacore16DefaultAllocatorINS_6VectorINS_5SliceEEEE5valueE@Base 3.2.1-1kern1
 _ZN8casacore16DefaultAllocatorINS_6VectorINS_5SliceEEEED0Ev@Base 3.2.1-1kern1
 _ZN8casacore16DefaultAllocatorINS_6VectorINS_5SliceEEEED1Ev@Base 3.2.1-1kern1
 _ZN8casacore16DefaultAllocatorINS_6VectorINS_5SliceEEEED2Ev@Base 3.2.1-1kern1
 _ZN8casacore16DefaultAllocatorINS_6VectorIiEEE5valueE@Base 3.2.1-1kern1
 _ZN8casacore16DefaultAllocatorINS_6VectorIiEEED0Ev@Base 3.2.1-1kern1
 _ZN8casacore16DefaultAllocatorINS_6VectorIiEEED1Ev@Base 3.2.1-1kern1
 _ZN8casacore16DefaultAllocatorINS_6VectorIiEEED2Ev@Base 3.2.1-1kern1
 _ZN8casacore16DefaultAllocatorINS_7QuantumIdEEE5valueE@Base 3.2.1-1kern1
 _ZN8casacore16DefaultAllocatorINS_7QuantumIdEEED0Ev@Base 3.2.1-1kern1
 _ZN8casacore16DefaultAllocatorINS_7QuantumIdEEED1Ev@Base 3.2.1-1kern1
 _ZN8casacore16DefaultAllocatorINS_7QuantumIdEEED2Ev@Base 3.2.1-1kern1
 _ZN8casacore16DefaultAllocatorINS_9MPositionEE5valueE@Base 3.2.1-1kern1
 _ZN8casacore16DefaultAllocatorINS_9MPositionEED0Ev@Base 3.2.1-1kern1
 _ZN8casacore16DefaultAllocatorINS_9MPositionEED1Ev@Base 3.2.1-1kern1
 _ZN8casacore16DefaultAllocatorINS_9MPositionEED2Ev@Base 3.2.1-1kern1
 _ZN8casacore16DefaultAllocatorIPNS_6SlicerEE5valueE@Base 3.2.1-1kern1
 _ZN8casacore16DefaultAllocatorIPNS_6SlicerEED0Ev@Base 3.2.1-1kern1
 _ZN8casacore16DefaultAllocatorIPNS_6SlicerEED1Ev@Base 3.2.1-1kern1
 _ZN8casacore16DefaultAllocatorIPNS_6SlicerEED2Ev@Base 3.2.1-1kern1
 _ZN8casacore16DefaultAllocatorIPNS_9MeasCometEE5valueE@Base 3.2.1-1kern1
 _ZN8casacore16DefaultAllocatorIPNS_9MeasCometEED0Ev@Base 3.2.1-1kern1
 _ZN8casacore16DefaultAllocatorIPNS_9MeasCometEED1Ev@Base 3.2.1-1kern1
 _ZN8casacore16DefaultAllocatorIPNS_9MeasCometEED2Ev@Base 3.2.1-1kern1
 _ZN8casacore16MSAntennaColumns12matchAntennaERKNS_6StringERKNS_9MPositionERKNS_7QuantumIdEEi@Base 3.2.1-1kern1
 _ZN8casacore16MSAntennaColumns12matchAntennaERKNS_9MPositionERKNS_7QuantumIdEEi@Base 3.2.1-1kern1
 _ZN8casacore16MSAntennaColumns12setOffsetRefENS_9MPosition5TypesE@Base 3.2.1-1kern1
 _ZN8casacore16MSAntennaColumns14setPositionRefENS_9MPosition5TypesE@Base 3.2.1-1kern1
 _ZN8casacore16MSAntennaColumns18attachOptionalColsERKNS_9MSAntennaE@Base 3.2.1-1kern1
 _ZN8casacore16MSAntennaColumns22matchAntennaAndStationERKNS_6StringES3_RKNS_9MPositionERKNS_7QuantumIdEEi@Base 3.2.1-1kern1
 _ZN8casacore16MSAntennaColumns6attachERKNS_9MSAntennaE@Base 3.2.1-1kern1
 _ZN8casacore16MSAntennaColumnsC1ERKNS_9MSAntennaE@Base 3.2.1-1kern1
 _ZN8casacore16MSAntennaColumnsC1Ev@Base 3.2.1-1kern1
 _ZN8casacore16MSAntennaColumnsC2ERKNS_9MSAntennaE@Base 3.2.1-1kern1
 _ZN8casacore16MSAntennaColumnsC2Ev@Base 3.2.1-1kern1
 _ZN8casacore16MSAntennaColumnsD1Ev@Base 3.2.1-1kern1
 _ZN8casacore16MSAntennaColumnsD2Ev@Base 3.2.1-1kern1
 _ZN8casacore16MSArrayGramerrorEPKc@Base 3.2.1-1kern1
 _ZN8casacore16MSDopplerColumns12setVelDefRefENS_8MDoppler5TypesE@Base 3.2.1-1kern1
 _ZN8casacore16MSDopplerColumns6attachERKNS_9MSDopplerE@Base 3.2.1-1kern1
 _ZN8casacore16MSDopplerColumnsC1ERKNS_9MSDopplerE@Base 3.2.1-1kern1
 _ZN8casacore16MSDopplerColumnsC1Ev@Base 3.2.1-1kern1
 _ZN8casacore16MSDopplerColumnsC2ERKNS_9MSDopplerE@Base 3.2.1-1kern1
 _ZN8casacore16MSDopplerColumnsC2Ev@Base 3.2.1-1kern1
 _ZN8casacore16MSDopplerColumnsD1Ev@Base 3.2.1-1kern1
 _ZN8casacore16MSDopplerColumnsD2Ev@Base 3.2.1-1kern1
 _ZN8casacore16MSFieldGramerrorEPKc@Base 3.2.1-1kern1
 _ZN8casacore16MSFlagCmdColumns11setEpochRefENS_6MEpoch5TypesEb@Base 3.2.1-1kern1
 _ZN8casacore16MSFlagCmdColumns6attachERKNS_9MSFlagCmdE@Base 3.2.1-1kern1
 _ZN8casacore16MSFlagCmdColumnsC1ERKNS_9MSFlagCmdE@Base 3.2.1-1kern1
 _ZN8casacore16MSFlagCmdColumnsC1Ev@Base 3.2.1-1kern1
 _ZN8casacore16MSFlagCmdColumnsC2ERKNS_9MSFlagCmdE@Base 3.2.1-1kern1
 _ZN8casacore16MSFlagCmdColumnsC2Ev@Base 3.2.1-1kern1
 _ZN8casacore16MSFlagCmdColumnsD1Ev@Base 3.2.1-1kern1
 _ZN8casacore16MSFlagCmdColumnsD2Ev@Base 3.2.1-1kern1
 _ZN8casacore16MSHistoryColumns11setEpochRefENS_6MEpoch5TypesEb@Base 3.2.1-1kern1
 _ZN8casacore16MSHistoryColumns6attachERKNS_9MSHistoryE@Base 3.2.1-1kern1
 _ZN8casacore16MSHistoryColumnsC1ERKNS_9MSHistoryE@Base 3.2.1-1kern1
 _ZN8casacore16MSHistoryColumnsC1Ev@Base 3.2.1-1kern1
 _ZN8casacore16MSHistoryColumnsC2ERKNS_9MSHistoryE@Base 3.2.1-1kern1
 _ZN8casacore16MSHistoryColumnsC2Ev@Base 3.2.1-1kern1
 _ZN8casacore16MSHistoryColumnsD1Ev@Base 3.2.1-1kern1
 _ZN8casacore16MSHistoryColumnsD2Ev@Base 3.2.1-1kern1
 _ZN8casacore16MSHistoryHandler10addMessageERKNS_6StringES3_S3_@Base 3.2.1-1kern1
 _ZN8casacore16MSHistoryHandler10addMessageERNS_14MeasurementSetERKNS_6StringES5_S5_S5_@Base 3.2.1-1kern1
 _ZN8casacore16MSHistoryHandler10addMessageERNS_16LogSinkInterfaceERKNS_6StringE@Base 3.2.1-1kern1
 _ZN8casacore16MSHistoryHandler10addMessageERNS_5LogIOERKNS_6StringE@Base 3.2.1-1kern1
 _ZN8casacore16MSHistoryHandler10cliCommandERKNS_6StringE@Base 3.2.1-1kern1
 _ZN8casacore16MSHistoryHandler10cliCommandERNS_16LogSinkInterfaceE@Base 3.2.1-1kern1
 _ZN8casacore16MSHistoryHandler10cliCommandERNS_5LogIOE@Base 3.2.1-1kern1
 _ZN8casacore16MSHistoryHandlerC1ERNS_14MeasurementSetERKNS_6StringE@Base 3.2.1-1kern1
 _ZN8casacore16MSHistoryHandlerC2ERNS_14MeasurementSetERKNS_6StringE@Base 3.2.1-1kern1
 _ZN8casacore16MSHistoryHandlerD1Ev@Base 3.2.1-1kern1
 _ZN8casacore16MSHistoryHandlerD2Ev@Base 3.2.1-1kern1
 _ZN8casacore16MSHistoryHandleraSERKS0_@Base 3.2.1-1kern1
 _ZN8casacore16MSSelectionError10addMessageERNS_6StringE@Base 3.2.1-1kern1
 _ZN8casacore16MSSelectionError13changeMessageERNS_6StringE@Base 3.2.1-1kern1
 _ZN8casacore16MSSelectionErrorC1ENS_9AipsError8CategoryE@Base 3.2.1-1kern1
 _ZN8casacore16MSSelectionErrorC1ERKNS_6StringENS_9AipsError8CategoryE@Base 3.2.1-1kern1
 _ZN8casacore16MSSelectionErrorC2ENS_9AipsError8CategoryE@Base 3.2.1-1kern1
 _ZN8casacore16MSSelectionErrorC2ERKNS_6StringENS_9AipsError8CategoryE@Base 3.2.1-1kern1
 _ZN8casacore16MSSelectionErrorD0Ev@Base 3.2.1-1kern1
 _ZN8casacore16MSSelectionErrorD1Ev@Base 3.2.1-1kern1
 _ZN8casacore16MSSelectionErrorD2Ev@Base 3.2.1-1kern1
 _ZN8casacore16MSSpectralWindow8initMapsEv@Base 3.2.1-1kern1
 _ZN8casacore16MSSpectralWindowC1ERKNS_5TableE@Base 3.2.1-1kern1
 _ZN8casacore16MSSpectralWindowC1ERKNS_6StringENS_5Table11TableOptionE@Base 3.2.1-1kern1
 _ZN8casacore16MSSpectralWindowC1ERKNS_6StringES3_NS_5Table11TableOptionE@Base 3.2.1-1kern1
 _ZN8casacore16MSSpectralWindowC1ERKS0_@Base 3.2.1-1kern1
 _ZN8casacore16MSSpectralWindowC1ERNS_13SetupNewTableEjb@Base 3.2.1-1kern1
 _ZN8casacore16MSSpectralWindowC1Ev@Base 3.2.1-1kern1
 _ZN8casacore16MSSpectralWindowC2ERKNS_5TableE@Base 3.2.1-1kern1
 _ZN8casacore16MSSpectralWindowC2ERKNS_6StringENS_5Table11TableOptionE@Base 3.2.1-1kern1
 _ZN8casacore16MSSpectralWindowC2ERKNS_6StringES3_NS_5Table11TableOptionE@Base 3.2.1-1kern1
 _ZN8casacore16MSSpectralWindowC2ERKS0_@Base 3.2.1-1kern1
 _ZN8casacore16MSSpectralWindowC2ERNS_13SetupNewTableEjb@Base 3.2.1-1kern1
 _ZN8casacore16MSSpectralWindowC2Ev@Base 3.2.1-1kern1
 _ZN8casacore16MSSpectralWindowD0Ev@Base 3.2.1-1kern1
 _ZN8casacore16MSSpectralWindowD1Ev@Base 3.2.1-1kern1
 _ZN8casacore16MSSpectralWindowD2Ev@Base 3.2.1-1kern1
 _ZN8casacore16MSSpectralWindowaSERKS0_@Base 3.2.1-1kern1
 _ZN8casacore16MSStateGramerrorEPKc@Base 3.2.1-1kern1
 _ZN8casacore16MSWeatherColumns11setEpochRefENS_6MEpoch5TypesEb@Base 3.2.1-1kern1
 _ZN8casacore16MSWeatherColumns6attachERKNS_9MSWeatherE@Base 3.2.1-1kern1
 _ZN8casacore16MSWeatherColumnsC1ERKNS_9MSWeatherE@Base 3.2.1-1kern1
 _ZN8casacore16MSWeatherColumnsC1Ev@Base 3.2.1-1kern1
 _ZN8casacore16MSWeatherColumnsC2ERKNS_9MSWeatherE@Base 3.2.1-1kern1
 _ZN8casacore16MSWeatherColumnsC2Ev@Base 3.2.1-1kern1
 _ZN8casacore16MSWeatherColumnsD1Ev@Base 3.2.1-1kern1
 _ZN8casacore16MSWeatherColumnsD2Ev@Base 3.2.1-1kern1
 _ZN8casacore16ScalarMeasColumnINS_10MDirectionEE3putEjRKS1_@Base 3.2.1-1kern1
 _ZN8casacore16ScalarMeasColumnINS_10MDirectionEE7cleanUpEv@Base 3.2.1-1kern1
 _ZN8casacore16ScalarMeasColumnINS_10MDirectionEE9referenceERKS2_@Base 3.2.1-1kern1
 _ZN8casacore16ScalarMeasColumnINS_10MDirectionEEC1ERKNS_5TableERKNS_6StringE@Base 3.2.1-1kern1
 _ZN8casacore16ScalarMeasColumnINS_10MDirectionEEC1ERKS2_@Base 3.2.1-1kern1
 _ZN8casacore16ScalarMeasColumnINS_10MDirectionEEC2ERKNS_5TableERKNS_6StringE@Base 3.2.1-1kern1
 _ZN8casacore16ScalarMeasColumnINS_10MDirectionEEC2ERKS2_@Base 3.2.1-1kern1
 _ZN8casacore16ScalarMeasColumnINS_10MDirectionEED0Ev@Base 3.2.1-1kern1
 _ZN8casacore16ScalarMeasColumnINS_10MDirectionEED1Ev@Base 3.2.1-1kern1
 _ZN8casacore16ScalarMeasColumnINS_10MDirectionEED2Ev@Base 3.2.1-1kern1
 _ZN8casacore16ScalarMeasColumnINS_10MFrequencyEE7cleanUpEv@Base 3.2.1-1kern1
 _ZN8casacore16ScalarMeasColumnINS_10MFrequencyEE9referenceERKS2_@Base 3.2.1-1kern1
 _ZN8casacore16ScalarMeasColumnINS_10MFrequencyEEC1ERKNS_5TableERKNS_6StringE@Base 3.2.1-1kern1
 _ZN8casacore16ScalarMeasColumnINS_10MFrequencyEEC1ERKS2_@Base 3.2.1-1kern1
 _ZN8casacore16ScalarMeasColumnINS_10MFrequencyEEC2ERKNS_5TableERKNS_6StringE@Base 3.2.1-1kern1
 _ZN8casacore16ScalarMeasColumnINS_10MFrequencyEEC2ERKS2_@Base 3.2.1-1kern1
 _ZN8casacore16ScalarMeasColumnINS_10MFrequencyEED0Ev@Base 3.2.1-1kern1
 _ZN8casacore16ScalarMeasColumnINS_10MFrequencyEED1Ev@Base 3.2.1-1kern1
 _ZN8casacore16ScalarMeasColumnINS_10MFrequencyEED2Ev@Base 3.2.1-1kern1
 _ZN8casacore16ScalarMeasColumnINS_15MRadialVelocityEE7cleanUpEv@Base 3.2.1-1kern1
 _ZN8casacore16ScalarMeasColumnINS_15MRadialVelocityEEC1ERKNS_5TableERKNS_6StringE@Base 3.2.1-1kern1
 _ZN8casacore16ScalarMeasColumnINS_15MRadialVelocityEEC1ERKS2_@Base 3.2.1-1kern1
 _ZN8casacore16ScalarMeasColumnINS_15MRadialVelocityEEC2ERKNS_5TableERKNS_6StringE@Base 3.2.1-1kern1
 _ZN8casacore16ScalarMeasColumnINS_15MRadialVelocityEEC2ERKS2_@Base 3.2.1-1kern1
 _ZN8casacore16ScalarMeasColumnINS_15MRadialVelocityEED0Ev@Base 3.2.1-1kern1
 _ZN8casacore16ScalarMeasColumnINS_15MRadialVelocityEED1Ev@Base 3.2.1-1kern1
 _ZN8casacore16ScalarMeasColumnINS_15MRadialVelocityEED2Ev@Base 3.2.1-1kern1
 _ZN8casacore16ScalarMeasColumnINS_4MuvwEE14setDescRefCodeEjb@Base 3.2.1-1kern1
 _ZN8casacore16ScalarMeasColumnINS_4MuvwEE6attachERKNS_5TableERKNS_6StringE@Base 3.2.1-1kern1
 _ZN8casacore16ScalarMeasColumnINS_4MuvwEE7cleanUpEv@Base 3.2.1-1kern1
 _ZN8casacore16ScalarMeasColumnINS_4MuvwEE9referenceERKS2_@Base 3.2.1-1kern1
 _ZN8casacore16ScalarMeasColumnINS_4MuvwEEC1ERKNS_5TableERKNS_6StringE@Base 3.2.1-1kern1
 _ZN8casacore16ScalarMeasColumnINS_4MuvwEEC2ERKNS_5TableERKNS_6StringE@Base 3.2.1-1kern1
 _ZN8casacore16ScalarMeasColumnINS_4MuvwEED0Ev@Base 3.2.1-1kern1
 _ZN8casacore16ScalarMeasColumnINS_4MuvwEED1Ev@Base 3.2.1-1kern1
 _ZN8casacore16ScalarMeasColumnINS_4MuvwEED2Ev@Base 3.2.1-1kern1
 _ZN8casacore16ScalarMeasColumnINS_6MEpochEE12setDescUnitsERKNS_6VectorINS_4UnitEEEb@Base 3.2.1-1kern1
 _ZN8casacore16ScalarMeasColumnINS_6MEpochEE13setDescOffsetERKNS_7MeasureEb@Base 3.2.1-1kern1
 _ZN8casacore16ScalarMeasColumnINS_6MEpochEE14setDescRefCodeEjb@Base 3.2.1-1kern1
 _ZN8casacore16ScalarMeasColumnINS_6MEpochEE3putEjRKS1_@Base 3.2.1-1kern1
 _ZN8casacore16ScalarMeasColumnINS_6MEpochEE6attachERKNS_5TableERKNS_6StringE@Base 3.2.1-1kern1
 _ZN8casacore16ScalarMeasColumnINS_6MEpochEE7cleanUpEv@Base 3.2.1-1kern1
 _ZN8casacore16ScalarMeasColumnINS_6MEpochEE9referenceERKS2_@Base 3.2.1-1kern1
 _ZN8casacore16ScalarMeasColumnINS_6MEpochEEC1ERKNS_5TableERKNS_6StringE@Base 3.2.1-1kern1
 _ZN8casacore16ScalarMeasColumnINS_6MEpochEEC1ERKS2_@Base 3.2.1-1kern1
 _ZN8casacore16ScalarMeasColumnINS_6MEpochEEC1Ev@Base 3.2.1-1kern1
 _ZN8casacore16ScalarMeasColumnINS_6MEpochEEC2ERKNS_5TableERKNS_6StringE@Base 3.2.1-1kern1
 _ZN8casacore16ScalarMeasColumnINS_6MEpochEEC2ERKS2_@Base 3.2.1-1kern1
 _ZN8casacore16ScalarMeasColumnINS_6MEpochEEC2Ev@Base 3.2.1-1kern1
 _ZN8casacore16ScalarMeasColumnINS_6MEpochEED0Ev@Base 3.2.1-1kern1
 _ZN8casacore16ScalarMeasColumnINS_6MEpochEED1Ev@Base 3.2.1-1kern1
 _ZN8casacore16ScalarMeasColumnINS_6MEpochEED2Ev@Base 3.2.1-1kern1
 _ZN8casacore16ScalarMeasColumnINS_8MDopplerEE7cleanUpEv@Base 3.2.1-1kern1
 _ZN8casacore16ScalarMeasColumnINS_8MDopplerEE9referenceERKS2_@Base 3.2.1-1kern1
 _ZN8casacore16ScalarMeasColumnINS_8MDopplerEEC1ERKNS_5TableERKNS_6StringE@Base 3.2.1-1kern1
 _ZN8casacore16ScalarMeasColumnINS_8MDopplerEEC2ERKNS_5TableERKNS_6StringE@Base 3.2.1-1kern1
 _ZN8casacore16ScalarMeasColumnINS_8MDopplerEED0Ev@Base 3.2.1-1kern1
 _ZN8casacore16ScalarMeasColumnINS_8MDopplerEED1Ev@Base 3.2.1-1kern1
 _ZN8casacore16ScalarMeasColumnINS_8MDopplerEED2Ev@Base 3.2.1-1kern1
 _ZN8casacore16ScalarMeasColumnINS_9MPositionEE12setDescUnitsERKNS_6VectorINS_4UnitEEEb@Base 3.2.1-1kern1
 _ZN8casacore16ScalarMeasColumnINS_9MPositionEE13setDescOffsetERKNS_7MeasureEb@Base 3.2.1-1kern1
 _ZN8casacore16ScalarMeasColumnINS_9MPositionEE14setDescRefCodeEjb@Base 3.2.1-1kern1
 _ZN8casacore16ScalarMeasColumnINS_9MPositionEE3putEjRKS1_@Base 3.2.1-1kern1
 _ZN8casacore16ScalarMeasColumnINS_9MPositionEE6attachERKNS_5TableERKNS_6StringE@Base 3.2.1-1kern1
 _ZN8casacore16ScalarMeasColumnINS_9MPositionEE7cleanUpEv@Base 3.2.1-1kern1
 _ZN8casacore16ScalarMeasColumnINS_9MPositionEE9referenceERKS2_@Base 3.2.1-1kern1
 _ZN8casacore16ScalarMeasColumnINS_9MPositionEEC1ERKNS_5TableERKNS_6StringE@Base 3.2.1-1kern1
 _ZN8casacore16ScalarMeasColumnINS_9MPositionEEC1ERKS2_@Base 3.2.1-1kern1
 _ZN8casacore16ScalarMeasColumnINS_9MPositionEEC1Ev@Base 3.2.1-1kern1
 _ZN8casacore16ScalarMeasColumnINS_9MPositionEEC2ERKNS_5TableERKNS_6StringE@Base 3.2.1-1kern1
 _ZN8casacore16ScalarMeasColumnINS_9MPositionEEC2ERKS2_@Base 3.2.1-1kern1
 _ZN8casacore16ScalarMeasColumnINS_9MPositionEEC2Ev@Base 3.2.1-1kern1
 _ZN8casacore16ScalarMeasColumnINS_9MPositionEED0Ev@Base 3.2.1-1kern1
 _ZN8casacore16ScalarMeasColumnINS_9MPositionEED1Ev@Base 3.2.1-1kern1
 _ZN8casacore16ScalarMeasColumnINS_9MPositionEED2Ev@Base 3.2.1-1kern1
 _ZN8casacore16concatenateArrayIiEENS_5ArrayIT_EERKS3_S5_@Base 3.2.1-1kern1
 _ZN8casacore16constructMessageEiRKNS_6StringE@Base 3.2.1-1kern1
 _ZN8casacore16getSelectedTableERNS_5TableERKS0_RNS_13TableExprNodeERKNS_6StringE@Base 3.2.1-1kern1
 _ZN8casacore16msArrayGramInputEPci@Base 3.2.1-1kern1
 _ZN8casacore16msFieldGramInputEPci@Base 3.2.1-1kern1
 _ZN8casacore16msStateGramInputEPci@Base 3.2.1-1kern1
 _ZN8casacore16set_intersectionERKNS_6VectorIiEES3_@Base 3.2.1-1kern1
 _ZN8casacore17Allocator_private17BulkAllocatorImplINS_17new_del_allocatorINS_10MDirectionEEEE10deallocateEPS3_m@Base 3.2.1-1kern1
 _ZN8casacore17Allocator_private17BulkAllocatorImplINS_17new_del_allocatorINS_10MDirectionEEEE7destroyEPS3_m@Base 3.2.1-1kern1
 _ZN8casacore17Allocator_private17BulkAllocatorImplINS_17new_del_allocatorINS_10MDirectionEEEE8allocateEmPKv@Base 3.2.1-1kern1
 _ZN8casacore17Allocator_private17BulkAllocatorImplINS_17new_del_allocatorINS_10MDirectionEEEE9allocatorE@Base 3.2.1-1kern1
 _ZN8casacore17Allocator_private17BulkAllocatorImplINS_17new_del_allocatorINS_10MDirectionEEEE9constructEPS3_m@Base 3.2.1-1kern1
 _ZN8casacore17Allocator_private17BulkAllocatorImplINS_17new_del_allocatorINS_10MDirectionEEEE9constructEPS3_mPKS3_@Base 3.2.1-1kern1
 _ZN8casacore17Allocator_private17BulkAllocatorImplINS_17new_del_allocatorINS_10MDirectionEEEE9constructEPS3_mRKS3_@Base 3.2.1-1kern1
 _ZN8casacore17Allocator_private17BulkAllocatorImplINS_17new_del_allocatorINS_10MDirectionEEEED0Ev@Base 3.2.1-1kern1
 _ZN8casacore17Allocator_private17BulkAllocatorImplINS_17new_del_allocatorINS_10MDirectionEEEED1Ev@Base 3.2.1-1kern1
 _ZN8casacore17Allocator_private17BulkAllocatorImplINS_17new_del_allocatorINS_10MDirectionEEEED2Ev@Base 3.2.1-1kern1
 _ZN8casacore17Allocator_private17BulkAllocatorImplINS_17new_del_allocatorINS_10MFrequencyEEEE10deallocateEPS3_m@Base 3.2.1-1kern1
 _ZN8casacore17Allocator_private17BulkAllocatorImplINS_17new_del_allocatorINS_10MFrequencyEEEE7destroyEPS3_m@Base 3.2.1-1kern1
 _ZN8casacore17Allocator_private17BulkAllocatorImplINS_17new_del_allocatorINS_10MFrequencyEEEE8allocateEmPKv@Base 3.2.1-1kern1
 _ZN8casacore17Allocator_private17BulkAllocatorImplINS_17new_del_allocatorINS_10MFrequencyEEEE9allocatorE@Base 3.2.1-1kern1
 _ZN8casacore17Allocator_private17BulkAllocatorImplINS_17new_del_allocatorINS_10MFrequencyEEEE9constructEPS3_m@Base 3.2.1-1kern1
 _ZN8casacore17Allocator_private17BulkAllocatorImplINS_17new_del_allocatorINS_10MFrequencyEEEE9constructEPS3_mPKS3_@Base 3.2.1-1kern1
 _ZN8casacore17Allocator_private17BulkAllocatorImplINS_17new_del_allocatorINS_10MFrequencyEEEE9constructEPS3_mRKS3_@Base 3.2.1-1kern1
 _ZN8casacore17Allocator_private17BulkAllocatorImplINS_17new_del_allocatorINS_10MFrequencyEEEED0Ev@Base 3.2.1-1kern1
 _ZN8casacore17Allocator_private17BulkAllocatorImplINS_17new_del_allocatorINS_10MFrequencyEEEED1Ev@Base 3.2.1-1kern1
 _ZN8casacore17Allocator_private17BulkAllocatorImplINS_17new_del_allocatorINS_10MFrequencyEEEED2Ev@Base 3.2.1-1kern1
 _ZN8casacore17Allocator_private17BulkAllocatorImplINS_17new_del_allocatorINS_11RigidVectorIdLi2EEEEEE10deallocateEPS4_m@Base 3.2.1-1kern1
 _ZN8casacore17Allocator_private17BulkAllocatorImplINS_17new_del_allocatorINS_11RigidVectorIdLi2EEEEEE7destroyEPS4_m@Base 3.2.1-1kern1
 _ZN8casacore17Allocator_private17BulkAllocatorImplINS_17new_del_allocatorINS_11RigidVectorIdLi2EEEEEE8allocateEmPKv@Base 3.2.1-1kern1
 _ZN8casacore17Allocator_private17BulkAllocatorImplINS_17new_del_allocatorINS_11RigidVectorIdLi2EEEEEE9allocatorE@Base 3.2.1-1kern1
 _ZN8casacore17Allocator_private17BulkAllocatorImplINS_17new_del_allocatorINS_11RigidVectorIdLi2EEEEEE9constructEPS4_m@Base 3.2.1-1kern1
 _ZN8casacore17Allocator_private17BulkAllocatorImplINS_17new_del_allocatorINS_11RigidVectorIdLi2EEEEEE9constructEPS4_mPKS4_@Base 3.2.1-1kern1
 _ZN8casacore17Allocator_private17BulkAllocatorImplINS_17new_del_allocatorINS_11RigidVectorIdLi2EEEEEE9constructEPS4_mRKS4_@Base 3.2.1-1kern1
 _ZN8casacore17Allocator_private17BulkAllocatorImplINS_17new_del_allocatorINS_11RigidVectorIdLi2EEEEEED0Ev@Base 3.2.1-1kern1
 _ZN8casacore17Allocator_private17BulkAllocatorImplINS_17new_del_allocatorINS_11RigidVectorIdLi2EEEEEED1Ev@Base 3.2.1-1kern1
 _ZN8casacore17Allocator_private17BulkAllocatorImplINS_17new_del_allocatorINS_11RigidVectorIdLi2EEEEEED2Ev@Base 3.2.1-1kern1
 _ZN8casacore17Allocator_private17BulkAllocatorImplINS_17new_del_allocatorINS_12SquareMatrixISt7complexIfELi2EEEEEE10deallocateEPS6_m@Base 3.2.1-1kern1
 _ZN8casacore17Allocator_private17BulkAllocatorImplINS_17new_del_allocatorINS_12SquareMatrixISt7complexIfELi2EEEEEE7destroyEPS6_m@Base 3.2.1-1kern1
 _ZN8casacore17Allocator_private17BulkAllocatorImplINS_17new_del_allocatorINS_12SquareMatrixISt7complexIfELi2EEEEEE8allocateEmPKv@Base 3.2.1-1kern1
 _ZN8casacore17Allocator_private17BulkAllocatorImplINS_17new_del_allocatorINS_12SquareMatrixISt7complexIfELi2EEEEEE9allocatorE@Base 3.2.1-1kern1
 _ZN8casacore17Allocator_private17BulkAllocatorImplINS_17new_del_allocatorINS_12SquareMatrixISt7complexIfELi2EEEEEE9constructEPS6_m@Base 3.2.1-1kern1
 _ZN8casacore17Allocator_private17BulkAllocatorImplINS_17new_del_allocatorINS_12SquareMatrixISt7complexIfELi2EEEEEE9constructEPS6_mPKS6_@Base 3.2.1-1kern1
 _ZN8casacore17Allocator_private17BulkAllocatorImplINS_17new_del_allocatorINS_12SquareMatrixISt7complexIfELi2EEEEEE9constructEPS6_mRKS6_@Base 3.2.1-1kern1
 _ZN8casacore17Allocator_private17BulkAllocatorImplINS_17new_del_allocatorINS_12SquareMatrixISt7complexIfELi2EEEEEED0Ev@Base 3.2.1-1kern1
 _ZN8casacore17Allocator_private17BulkAllocatorImplINS_17new_del_allocatorINS_12SquareMatrixISt7complexIfELi2EEEEEED1Ev@Base 3.2.1-1kern1
 _ZN8casacore17Allocator_private17BulkAllocatorImplINS_17new_del_allocatorINS_12SquareMatrixISt7complexIfELi2EEEEEED2Ev@Base 3.2.1-1kern1
 _ZN8casacore17Allocator_private17BulkAllocatorImplINS_17new_del_allocatorINS_4UnitEEEE10deallocateEPS3_m@Base 3.2.1-1kern1
 _ZN8casacore17Allocator_private17BulkAllocatorImplINS_17new_del_allocatorINS_4UnitEEEE7destroyEPS3_m@Base 3.2.1-1kern1
 _ZN8casacore17Allocator_private17BulkAllocatorImplINS_17new_del_allocatorINS_4UnitEEEE8allocateEmPKv@Base 3.2.1-1kern1
 _ZN8casacore17Allocator_private17BulkAllocatorImplINS_17new_del_allocatorINS_4UnitEEEE9allocatorE@Base 3.2.1-1kern1
 _ZN8casacore17Allocator_private17BulkAllocatorImplINS_17new_del_allocatorINS_4UnitEEEE9constructEPS3_m@Base 3.2.1-1kern1
 _ZN8casacore17Allocator_private17BulkAllocatorImplINS_17new_del_allocatorINS_4UnitEEEE9constructEPS3_mPKS3_@Base 3.2.1-1kern1
 _ZN8casacore17Allocator_private17BulkAllocatorImplINS_17new_del_allocatorINS_4UnitEEEE9constructEPS3_mRKS3_@Base 3.2.1-1kern1
 _ZN8casacore17Allocator_private17BulkAllocatorImplINS_17new_del_allocatorINS_4UnitEEEED0Ev@Base 3.2.1-1kern1
 _ZN8casacore17Allocator_private17BulkAllocatorImplINS_17new_del_allocatorINS_4UnitEEEED1Ev@Base 3.2.1-1kern1
 _ZN8casacore17Allocator_private17BulkAllocatorImplINS_17new_del_allocatorINS_4UnitEEEED2Ev@Base 3.2.1-1kern1
 _ZN8casacore17Allocator_private17BulkAllocatorImplINS_17new_del_allocatorINS_5SliceEEEE10deallocateEPS3_m@Base 3.2.1-1kern1
 _ZN8casacore17Allocator_private17BulkAllocatorImplINS_17new_del_allocatorINS_5SliceEEEE7destroyEPS3_m@Base 3.2.1-1kern1
 _ZN8casacore17Allocator_private17BulkAllocatorImplINS_17new_del_allocatorINS_5SliceEEEE8allocateEmPKv@Base 3.2.1-1kern1
 _ZN8casacore17Allocator_private17BulkAllocatorImplINS_17new_del_allocatorINS_5SliceEEEE9allocatorE@Base 3.2.1-1kern1
 _ZN8casacore17Allocator_private17BulkAllocatorImplINS_17new_del_allocatorINS_5SliceEEEE9constructEPS3_m@Base 3.2.1-1kern1
 _ZN8casacore17Allocator_private17BulkAllocatorImplINS_17new_del_allocatorINS_5SliceEEEE9constructEPS3_mPKS3_@Base 3.2.1-1kern1
 _ZN8casacore17Allocator_private17BulkAllocatorImplINS_17new_del_allocatorINS_5SliceEEEE9constructEPS3_mRKS3_@Base 3.2.1-1kern1
 _ZN8casacore17Allocator_private17BulkAllocatorImplINS_17new_del_allocatorINS_5SliceEEEED0Ev@Base 3.2.1-1kern1
 _ZN8casacore17Allocator_private17BulkAllocatorImplINS_17new_del_allocatorINS_5SliceEEEED1Ev@Base 3.2.1-1kern1
 _ZN8casacore17Allocator_private17BulkAllocatorImplINS_17new_del_allocatorINS_5SliceEEEED2Ev@Base 3.2.1-1kern1
 _ZN8casacore17Allocator_private17BulkAllocatorImplINS_17new_del_allocatorINS_6MVTimeEEEE10deallocateEPS3_m@Base 3.2.1-1kern1
 _ZN8casacore17Allocator_private17BulkAllocatorImplINS_17new_del_allocatorINS_6MVTimeEEEE7destroyEPS3_m@Base 3.2.1-1kern1
 _ZN8casacore17Allocator_private17BulkAllocatorImplINS_17new_del_allocatorINS_6MVTimeEEEE8allocateEmPKv@Base 3.2.1-1kern1
 _ZN8casacore17Allocator_private17BulkAllocatorImplINS_17new_del_allocatorINS_6MVTimeEEEE9allocatorE@Base 3.2.1-1kern1
 _ZN8casacore17Allocator_private17BulkAllocatorImplINS_17new_del_allocatorINS_6MVTimeEEEE9constructEPS3_m@Base 3.2.1-1kern1
 _ZN8casacore17Allocator_private17BulkAllocatorImplINS_17new_del_allocatorINS_6MVTimeEEEE9constructEPS3_mPKS3_@Base 3.2.1-1kern1
 _ZN8casacore17Allocator_private17BulkAllocatorImplINS_17new_del_allocatorINS_6MVTimeEEEE9constructEPS3_mRKS3_@Base 3.2.1-1kern1
 _ZN8casacore17Allocator_private17BulkAllocatorImplINS_17new_del_allocatorINS_6MVTimeEEEED0Ev@Base 3.2.1-1kern1
 _ZN8casacore17Allocator_private17BulkAllocatorImplINS_17new_del_allocatorINS_6MVTimeEEEED1Ev@Base 3.2.1-1kern1
 _ZN8casacore17Allocator_private17BulkAllocatorImplINS_17new_del_allocatorINS_6MVTimeEEEED2Ev@Base 3.2.1-1kern1
 _ZN8casacore17Allocator_private17BulkAllocatorImplINS_17new_del_allocatorINS_6Stokes11StokesTypesEEEE10deallocateEPS4_m@Base 3.2.1-1kern1
 _ZN8casacore17Allocator_private17BulkAllocatorImplINS_17new_del_allocatorINS_6Stokes11StokesTypesEEEE7destroyEPS4_m@Base 3.2.1-1kern1
 _ZN8casacore17Allocator_private17BulkAllocatorImplINS_17new_del_allocatorINS_6Stokes11StokesTypesEEEE8allocateEmPKv@Base 3.2.1-1kern1
 _ZN8casacore17Allocator_private17BulkAllocatorImplINS_17new_del_allocatorINS_6Stokes11StokesTypesEEEE9allocatorE@Base 3.2.1-1kern1
 _ZN8casacore17Allocator_private17BulkAllocatorImplINS_17new_del_allocatorINS_6Stokes11StokesTypesEEEE9constructEPS4_m@Base 3.2.1-1kern1
 _ZN8casacore17Allocator_private17BulkAllocatorImplINS_17new_del_allocatorINS_6Stokes11StokesTypesEEEE9constructEPS4_mPKS4_@Base 3.2.1-1kern1
 _ZN8casacore17Allocator_private17BulkAllocatorImplINS_17new_del_allocatorINS_6Stokes11StokesTypesEEEE9constructEPS4_mRKS4_@Base 3.2.1-1kern1
 _ZN8casacore17Allocator_private17BulkAllocatorImplINS_17new_del_allocatorINS_6Stokes11StokesTypesEEEED0Ev@Base 3.2.1-1kern1
 _ZN8casacore17Allocator_private17BulkAllocatorImplINS_17new_del_allocatorINS_6Stokes11StokesTypesEEEED1Ev@Base 3.2.1-1kern1
 _ZN8casacore17Allocator_private17BulkAllocatorImplINS_17new_del_allocatorINS_6Stokes11StokesTypesEEEED2Ev@Base 3.2.1-1kern1
 _ZN8casacore17Allocator_private17BulkAllocatorImplINS_17new_del_allocatorINS_6VectorINS_5SliceEEEEEE10deallocateEPS5_m@Base 3.2.1-1kern1
 _ZN8casacore17Allocator_private17BulkAllocatorImplINS_17new_del_allocatorINS_6VectorINS_5SliceEEEEEE7destroyEPS5_m@Base 3.2.1-1kern1
 _ZN8casacore17Allocator_private17BulkAllocatorImplINS_17new_del_allocatorINS_6VectorINS_5SliceEEEEEE8allocateEmPKv@Base 3.2.1-1kern1
 _ZN8casacore17Allocator_private17BulkAllocatorImplINS_17new_del_allocatorINS_6VectorINS_5SliceEEEEEE9allocatorE@Base 3.2.1-1kern1
 _ZN8casacore17Allocator_private17BulkAllocatorImplINS_17new_del_allocatorINS_6VectorINS_5SliceEEEEEE9constructEPS5_m@Base 3.2.1-1kern1
 _ZN8casacore17Allocator_private17BulkAllocatorImplINS_17new_del_allocatorINS_6VectorINS_5SliceEEEEEE9constructEPS5_mPKS5_@Base 3.2.1-1kern1
 _ZN8casacore17Allocator_private17BulkAllocatorImplINS_17new_del_allocatorINS_6VectorINS_5SliceEEEEEE9constructEPS5_mRKS5_@Base 3.2.1-1kern1
 _ZN8casacore17Allocator_private17BulkAllocatorImplINS_17new_del_allocatorINS_6VectorINS_5SliceEEEEEED0Ev@Base 3.2.1-1kern1
 _ZN8casacore17Allocator_private17BulkAllocatorImplINS_17new_del_allocatorINS_6VectorINS_5SliceEEEEEED1Ev@Base 3.2.1-1kern1
 _ZN8casacore17Allocator_private17BulkAllocatorImplINS_17new_del_allocatorINS_6VectorINS_5SliceEEEEEED2Ev@Base 3.2.1-1kern1
 _ZN8casacore17Allocator_private17BulkAllocatorImplINS_17new_del_allocatorINS_6VectorIiEEEEE10deallocateEPS4_m@Base 3.2.1-1kern1
 _ZN8casacore17Allocator_private17BulkAllocatorImplINS_17new_del_allocatorINS_6VectorIiEEEEE7destroyEPS4_m@Base 3.2.1-1kern1
 _ZN8casacore17Allocator_private17BulkAllocatorImplINS_17new_del_allocatorINS_6VectorIiEEEEE8allocateEmPKv@Base 3.2.1-1kern1
 _ZN8casacore17Allocator_private17BulkAllocatorImplINS_17new_del_allocatorINS_6VectorIiEEEEE9allocatorE@Base 3.2.1-1kern1
 _ZN8casacore17Allocator_private17BulkAllocatorImplINS_17new_del_allocatorINS_6VectorIiEEEEE9constructEPS4_m@Base 3.2.1-1kern1
 _ZN8casacore17Allocator_private17BulkAllocatorImplINS_17new_del_allocatorINS_6VectorIiEEEEE9constructEPS4_mPKS4_@Base 3.2.1-1kern1
 _ZN8casacore17Allocator_private17BulkAllocatorImplINS_17new_del_allocatorINS_6VectorIiEEEEE9constructEPS4_mRKS4_@Base 3.2.1-1kern1
 _ZN8casacore17Allocator_private17BulkAllocatorImplINS_17new_del_allocatorINS_6VectorIiEEEEED0Ev@Base 3.2.1-1kern1
 _ZN8casacore17Allocator_private17BulkAllocatorImplINS_17new_del_allocatorINS_6VectorIiEEEEED1Ev@Base 3.2.1-1kern1
 _ZN8casacore17Allocator_private17BulkAllocatorImplINS_17new_del_allocatorINS_6VectorIiEEEEED2Ev@Base 3.2.1-1kern1
 _ZN8casacore17Allocator_private17BulkAllocatorImplINS_17new_del_allocatorINS_7QuantumIdEEEEE10deallocateEPS4_m@Base 3.2.1-1kern1
 _ZN8casacore17Allocator_private17BulkAllocatorImplINS_17new_del_allocatorINS_7QuantumIdEEEEE7destroyEPS4_m@Base 3.2.1-1kern1
 _ZN8casacore17Allocator_private17BulkAllocatorImplINS_17new_del_allocatorINS_7QuantumIdEEEEE8allocateEmPKv@Base 3.2.1-1kern1
 _ZN8casacore17Allocator_private17BulkAllocatorImplINS_17new_del_allocatorINS_7QuantumIdEEEEE9allocatorE@Base 3.2.1-1kern1
 _ZN8casacore17Allocator_private17BulkAllocatorImplINS_17new_del_allocatorINS_7QuantumIdEEEEE9constructEPS4_m@Base 3.2.1-1kern1
 _ZN8casacore17Allocator_private17BulkAllocatorImplINS_17new_del_allocatorINS_7QuantumIdEEEEE9constructEPS4_mPKS4_@Base 3.2.1-1kern1
 _ZN8casacore17Allocator_private17BulkAllocatorImplINS_17new_del_allocatorINS_7QuantumIdEEEEE9constructEPS4_mRKS4_@Base 3.2.1-1kern1
 _ZN8casacore17Allocator_private17BulkAllocatorImplINS_17new_del_allocatorINS_7QuantumIdEEEEED0Ev@Base 3.2.1-1kern1
 _ZN8casacore17Allocator_private17BulkAllocatorImplINS_17new_del_allocatorINS_7QuantumIdEEEEED1Ev@Base 3.2.1-1kern1
 _ZN8casacore17Allocator_private17BulkAllocatorImplINS_17new_del_allocatorINS_7QuantumIdEEEEED2Ev@Base 3.2.1-1kern1
 _ZN8casacore17Allocator_private17BulkAllocatorImplINS_17new_del_allocatorINS_9MPositionEEEE10deallocateEPS3_m@Base 3.2.1-1kern1
 _ZN8casacore17Allocator_private17BulkAllocatorImplINS_17new_del_allocatorINS_9MPositionEEEE7destroyEPS3_m@Base 3.2.1-1kern1
 _ZN8casacore17Allocator_private17BulkAllocatorImplINS_17new_del_allocatorINS_9MPositionEEEE8allocateEmPKv@Base 3.2.1-1kern1
 _ZN8casacore17Allocator_private17BulkAllocatorImplINS_17new_del_allocatorINS_9MPositionEEEE9allocatorE@Base 3.2.1-1kern1
 _ZN8casacore17Allocator_private17BulkAllocatorImplINS_17new_del_allocatorINS_9MPositionEEEE9constructEPS3_m@Base 3.2.1-1kern1
 _ZN8casacore17Allocator_private17BulkAllocatorImplINS_17new_del_allocatorINS_9MPositionEEEE9constructEPS3_mPKS3_@Base 3.2.1-1kern1
 _ZN8casacore17Allocator_private17BulkAllocatorImplINS_17new_del_allocatorINS_9MPositionEEEE9constructEPS3_mRKS3_@Base 3.2.1-1kern1
 _ZN8casacore17Allocator_private17BulkAllocatorImplINS_17new_del_allocatorINS_9MPositionEEEED0Ev@Base 3.2.1-1kern1
 _ZN8casacore17Allocator_private17BulkAllocatorImplINS_17new_del_allocatorINS_9MPositionEEEED1Ev@Base 3.2.1-1kern1
 _ZN8casacore17Allocator_private17BulkAllocatorImplINS_17new_del_allocatorINS_9MPositionEEEED2Ev@Base 3.2.1-1kern1
 _ZN8casacore17Allocator_private17BulkAllocatorImplINS_17new_del_allocatorIPNS_6SlicerEEEE10deallocateEPS4_m@Base 3.2.1-1kern1
 _ZN8casacore17Allocator_private17BulkAllocatorImplINS_17new_del_allocatorIPNS_6SlicerEEEE7destroyEPS4_m@Base 3.2.1-1kern1
 _ZN8casacore17Allocator_private17BulkAllocatorImplINS_17new_del_allocatorIPNS_6SlicerEEEE8allocateEmPKv@Base 3.2.1-1kern1
 _ZN8casacore17Allocator_private17BulkAllocatorImplINS_17new_del_allocatorIPNS_6SlicerEEEE9allocatorE@Base 3.2.1-1kern1
 _ZN8casacore17Allocator_private17BulkAllocatorImplINS_17new_del_allocatorIPNS_6SlicerEEEE9constructEPS4_m@Base 3.2.1-1kern1
 _ZN8casacore17Allocator_private17BulkAllocatorImplINS_17new_del_allocatorIPNS_6SlicerEEEE9constructEPS4_mPKS4_@Base 3.2.1-1kern1
 _ZN8casacore17Allocator_private17BulkAllocatorImplINS_17new_del_allocatorIPNS_6SlicerEEEE9constructEPS4_mRKS4_@Base 3.2.1-1kern1
 _ZN8casacore17Allocator_private17BulkAllocatorImplINS_17new_del_allocatorIPNS_6SlicerEEEED0Ev@Base 3.2.1-1kern1
 _ZN8casacore17Allocator_private17BulkAllocatorImplINS_17new_del_allocatorIPNS_6SlicerEEEED1Ev@Base 3.2.1-1kern1
 _ZN8casacore17Allocator_private17BulkAllocatorImplINS_17new_del_allocatorIPNS_6SlicerEEEED2Ev@Base 3.2.1-1kern1
 _ZN8casacore17Allocator_private17BulkAllocatorImplINS_17new_del_allocatorIPNS_9MeasCometEEEE10deallocateEPS4_m@Base 3.2.1-1kern1
 _ZN8casacore17Allocator_private17BulkAllocatorImplINS_17new_del_allocatorIPNS_9MeasCometEEEE7destroyEPS4_m@Base 3.2.1-1kern1
 _ZN8casacore17Allocator_private17BulkAllocatorImplINS_17new_del_allocatorIPNS_9MeasCometEEEE8allocateEmPKv@Base 3.2.1-1kern1
 _ZN8casacore17Allocator_private17BulkAllocatorImplINS_17new_del_allocatorIPNS_9MeasCometEEEE9allocatorE@Base 3.2.1-1kern1
 _ZN8casacore17Allocator_private17BulkAllocatorImplINS_17new_del_allocatorIPNS_9MeasCometEEEE9constructEPS4_m@Base 3.2.1-1kern1
 _ZN8casacore17Allocator_private17BulkAllocatorImplINS_17new_del_allocatorIPNS_9MeasCometEEEE9constructEPS4_mPKS4_@Base 3.2.1-1kern1
 _ZN8casacore17Allocator_private17BulkAllocatorImplINS_17new_del_allocatorIPNS_9MeasCometEEEE9constructEPS4_mRKS4_@Base 3.2.1-1kern1
 _ZN8casacore17Allocator_private17BulkAllocatorImplINS_17new_del_allocatorIPNS_9MeasCometEEEED0Ev@Base 3.2.1-1kern1
 _ZN8casacore17Allocator_private17BulkAllocatorImplINS_17new_del_allocatorIPNS_9MeasCometEEEED1Ev@Base 3.2.1-1kern1
 _ZN8casacore17Allocator_private17BulkAllocatorImplINS_17new_del_allocatorIPNS_9MeasCometEEEED2Ev@Base 3.2.1-1kern1
 _ZN8casacore17Allocator_private17BulkAllocatorImplINS_18casacore_allocatorINS_10CountedPtrINS_11BaseCompareEEELm32EEEE10deallocateEPS5_m@Base 3.2.1-1kern1
 _ZN8casacore17Allocator_private17BulkAllocatorImplINS_18casacore_allocatorINS_10CountedPtrINS_11BaseCompareEEELm32EEEE7destroyEPS5_m@Base 3.2.1-1kern1
 _ZN8casacore17Allocator_private17BulkAllocatorImplINS_18casacore_allocatorINS_10CountedPtrINS_11BaseCompareEEELm32EEEE8allocateEmPKv@Base 3.2.1-1kern1
 _ZN8casacore17Allocator_private17BulkAllocatorImplINS_18casacore_allocatorINS_10CountedPtrINS_11BaseCompareEEELm32EEEE9allocatorE@Base 3.2.1-1kern1
 _ZN8casacore17Allocator_private17BulkAllocatorImplINS_18casacore_allocatorINS_10CountedPtrINS_11BaseCompareEEELm32EEEE9constructEPS5_m@Base 3.2.1-1kern1
 _ZN8casacore17Allocator_private17BulkAllocatorImplINS_18casacore_allocatorINS_10CountedPtrINS_11BaseCompareEEELm32EEEE9constructEPS5_mPKS5_@Base 3.2.1-1kern1
 _ZN8casacore17Allocator_private17BulkAllocatorImplINS_18casacore_allocatorINS_10CountedPtrINS_11BaseCompareEEELm32EEEE9constructEPS5_mRKS5_@Base 3.2.1-1kern1
 _ZN8casacore17Allocator_private17BulkAllocatorImplINS_18casacore_allocatorINS_10CountedPtrINS_11BaseCompareEEELm32EEEED0Ev@Base 3.2.1-1kern1
 _ZN8casacore17Allocator_private17BulkAllocatorImplINS_18casacore_allocatorINS_10CountedPtrINS_11BaseCompareEEELm32EEEED1Ev@Base 3.2.1-1kern1
 _ZN8casacore17Allocator_private17BulkAllocatorImplINS_18casacore_allocatorINS_10CountedPtrINS_11BaseCompareEEELm32EEEED2Ev@Base 3.2.1-1kern1
 _ZN8casacore17Allocator_private17BulkAllocatorImplINS_18casacore_allocatorINS_10MDirectionELm32EEEE10deallocateEPS3_m@Base 3.2.1-1kern1
 _ZN8casacore17Allocator_private17BulkAllocatorImplINS_18casacore_allocatorINS_10MDirectionELm32EEEE7destroyEPS3_m@Base 3.2.1-1kern1
 _ZN8casacore17Allocator_private17BulkAllocatorImplINS_18casacore_allocatorINS_10MDirectionELm32EEEE8allocateEmPKv@Base 3.2.1-1kern1
 _ZN8casacore17Allocator_private17BulkAllocatorImplINS_18casacore_allocatorINS_10MDirectionELm32EEEE9allocatorE@Base 3.2.1-1kern1
 _ZN8casacore17Allocator_private17BulkAllocatorImplINS_18casacore_allocatorINS_10MDirectionELm32EEEE9constructEPS3_m@Base 3.2.1-1kern1
 _ZN8casacore17Allocator_private17BulkAllocatorImplINS_18casacore_allocatorINS_10MDirectionELm32EEEE9constructEPS3_mPKS3_@Base 3.2.1-1kern1
 _ZN8casacore17Allocator_private17BulkAllocatorImplINS_18casacore_allocatorINS_10MDirectionELm32EEEE9constructEPS3_mRKS3_@Base 3.2.1-1kern1
 _ZN8casacore17Allocator_private17BulkAllocatorImplINS_18casacore_allocatorINS_10MDirectionELm32EEEED0Ev@Base 3.2.1-1kern1
 _ZN8casacore17Allocator_private17BulkAllocatorImplINS_18casacore_allocatorINS_10MDirectionELm32EEEED1Ev@Base 3.2.1-1kern1
 _ZN8casacore17Allocator_private17BulkAllocatorImplINS_18casacore_allocatorINS_10MDirectionELm32EEEED2Ev@Base 3.2.1-1kern1
 _ZN8casacore17Allocator_private17BulkAllocatorImplINS_18casacore_allocatorINS_10MFrequencyELm32EEEE10deallocateEPS3_m@Base 3.2.1-1kern1
 _ZN8casacore17Allocator_private17BulkAllocatorImplINS_18casacore_allocatorINS_10MFrequencyELm32EEEE7destroyEPS3_m@Base 3.2.1-1kern1
 _ZN8casacore17Allocator_private17BulkAllocatorImplINS_18casacore_allocatorINS_10MFrequencyELm32EEEE8allocateEmPKv@Base 3.2.1-1kern1
 _ZN8casacore17Allocator_private17BulkAllocatorImplINS_18casacore_allocatorINS_10MFrequencyELm32EEEE9allocatorE@Base 3.2.1-1kern1
 _ZN8casacore17Allocator_private17BulkAllocatorImplINS_18casacore_allocatorINS_10MFrequencyELm32EEEE9constructEPS3_m@Base 3.2.1-1kern1
 _ZN8casacore17Allocator_private17BulkAllocatorImplINS_18casacore_allocatorINS_10MFrequencyELm32EEEE9constructEPS3_mPKS3_@Base 3.2.1-1kern1
 _ZN8casacore17Allocator_private17BulkAllocatorImplINS_18casacore_allocatorINS_10MFrequencyELm32EEEE9constructEPS3_mRKS3_@Base 3.2.1-1kern1
 _ZN8casacore17Allocator_private17BulkAllocatorImplINS_18casacore_allocatorINS_10MFrequencyELm32EEEED0Ev@Base 3.2.1-1kern1
 _ZN8casacore17Allocator_private17BulkAllocatorImplINS_18casacore_allocatorINS_10MFrequencyELm32EEEED1Ev@Base 3.2.1-1kern1
 _ZN8casacore17Allocator_private17BulkAllocatorImplINS_18casacore_allocatorINS_10MFrequencyELm32EEEED2Ev@Base 3.2.1-1kern1
 _ZN8casacore17Allocator_private17BulkAllocatorImplINS_18casacore_allocatorINS_10ROTableRowELm32EEEE10deallocateEPS3_m@Base 3.2.1-1kern1
 _ZN8casacore17Allocator_private17BulkAllocatorImplINS_18casacore_allocatorINS_10ROTableRowELm32EEEE7destroyEPS3_m@Base 3.2.1-1kern1
 _ZN8casacore17Allocator_private17BulkAllocatorImplINS_18casacore_allocatorINS_10ROTableRowELm32EEEE8allocateEmPKv@Base 3.2.1-1kern1
 _ZN8casacore17Allocator_private17BulkAllocatorImplINS_18casacore_allocatorINS_10ROTableRowELm32EEEE9allocatorE@Base 3.2.1-1kern1
 _ZN8casacore17Allocator_private17BulkAllocatorImplINS_18casacore_allocatorINS_10ROTableRowELm32EEEE9constructEPS3_m@Base 3.2.1-1kern1
 _ZN8casacore17Allocator_private17BulkAllocatorImplINS_18casacore_allocatorINS_10ROTableRowELm32EEEE9constructEPS3_mPKS3_@Base 3.2.1-1kern1
 _ZN8casacore17Allocator_private17BulkAllocatorImplINS_18casacore_allocatorINS_10ROTableRowELm32EEEE9constructEPS3_mRKS3_@Base 3.2.1-1kern1
 _ZN8casacore17Allocator_private17BulkAllocatorImplINS_18casacore_allocatorINS_10ROTableRowELm32EEEED0Ev@Base 3.2.1-1kern1
 _ZN8casacore17Allocator_private17BulkAllocatorImplINS_18casacore_allocatorINS_10ROTableRowELm32EEEED1Ev@Base 3.2.1-1kern1
 _ZN8casacore17Allocator_private17BulkAllocatorImplINS_18casacore_allocatorINS_10ROTableRowELm32EEEED2Ev@Base 3.2.1-1kern1
 _ZN8casacore17Allocator_private17BulkAllocatorImplINS_18casacore_allocatorINS_11RigidVectorIdLi2EEELm32EEEE10deallocateEPS4_m@Base 3.2.1-1kern1
 _ZN8casacore17Allocator_private17BulkAllocatorImplINS_18casacore_allocatorINS_11RigidVectorIdLi2EEELm32EEEE7destroyEPS4_m@Base 3.2.1-1kern1
 _ZN8casacore17Allocator_private17BulkAllocatorImplINS_18casacore_allocatorINS_11RigidVectorIdLi2EEELm32EEEE8allocateEmPKv@Base 3.2.1-1kern1
 _ZN8casacore17Allocator_private17BulkAllocatorImplINS_18casacore_allocatorINS_11RigidVectorIdLi2EEELm32EEEE9allocatorE@Base 3.2.1-1kern1
 _ZN8casacore17Allocator_private17BulkAllocatorImplINS_18casacore_allocatorINS_11RigidVectorIdLi2EEELm32EEEE9constructEPS4_m@Base 3.2.1-1kern1
 _ZN8casacore17Allocator_private17BulkAllocatorImplINS_18casacore_allocatorINS_11RigidVectorIdLi2EEELm32EEEE9constructEPS4_mPKS4_@Base 3.2.1-1kern1
 _ZN8casacore17Allocator_private17BulkAllocatorImplINS_18casacore_allocatorINS_11RigidVectorIdLi2EEELm32EEEE9constructEPS4_mRKS4_@Base 3.2.1-1kern1
 _ZN8casacore17Allocator_private17BulkAllocatorImplINS_18casacore_allocatorINS_11RigidVectorIdLi2EEELm32EEEED0Ev@Base 3.2.1-1kern1
 _ZN8casacore17Allocator_private17BulkAllocatorImplINS_18casacore_allocatorINS_11RigidVectorIdLi2EEELm32EEEED1Ev@Base 3.2.1-1kern1
 _ZN8casacore17Allocator_private17BulkAllocatorImplINS_18casacore_allocatorINS_11RigidVectorIdLi2EEELm32EEEED2Ev@Base 3.2.1-1kern1
 _ZN8casacore17Allocator_private17BulkAllocatorImplINS_18casacore_allocatorINS_12MSTableIndexELm32EEEE10deallocateEPS3_m@Base 3.2.1-1kern1
 _ZN8casacore17Allocator_private17BulkAllocatorImplINS_18casacore_allocatorINS_12MSTableIndexELm32EEEE7destroyEPS3_m@Base 3.2.1-1kern1
 _ZN8casacore17Allocator_private17BulkAllocatorImplINS_18casacore_allocatorINS_12MSTableIndexELm32EEEE8allocateEmPKv@Base 3.2.1-1kern1
 _ZN8casacore17Allocator_private17BulkAllocatorImplINS_18casacore_allocatorINS_12MSTableIndexELm32EEEE9allocatorE@Base 3.2.1-1kern1
 _ZN8casacore17Allocator_private17BulkAllocatorImplINS_18casacore_allocatorINS_12MSTableIndexELm32EEEE9constructEPS3_m@Base 3.2.1-1kern1
 _ZN8casacore17Allocator_private17BulkAllocatorImplINS_18casacore_allocatorINS_12MSTableIndexELm32EEEE9constructEPS3_mPKS3_@Base 3.2.1-1kern1
 _ZN8casacore17Allocator_private17BulkAllocatorImplINS_18casacore_allocatorINS_12MSTableIndexELm32EEEE9constructEPS3_mRKS3_@Base 3.2.1-1kern1
 _ZN8casacore17Allocator_private17BulkAllocatorImplINS_18casacore_allocatorINS_12MSTableIndexELm32EEEED0Ev@Base 3.2.1-1kern1
 _ZN8casacore17Allocator_private17BulkAllocatorImplINS_18casacore_allocatorINS_12MSTableIndexELm32EEEED1Ev@Base 3.2.1-1kern1
 _ZN8casacore17Allocator_private17BulkAllocatorImplINS_18casacore_allocatorINS_12MSTableIndexELm32EEEED2Ev@Base 3.2.1-1kern1
 _ZN8casacore17Allocator_private17BulkAllocatorImplINS_18casacore_allocatorINS_12SquareMatrixISt7complexIfELi2EEELm32EEEE10deallocateEPS6_m@Base 3.2.1-1kern1
 _ZN8casacore17Allocator_private17BulkAllocatorImplINS_18casacore_allocatorINS_12SquareMatrixISt7complexIfELi2EEELm32EEEE7destroyEPS6_m@Base 3.2.1-1kern1
 _ZN8casacore17Allocator_private17BulkAllocatorImplINS_18casacore_allocatorINS_12SquareMatrixISt7complexIfELi2EEELm32EEEE8allocateEmPKv@Base 3.2.1-1kern1
 _ZN8casacore17Allocator_private17BulkAllocatorImplINS_18casacore_allocatorINS_12SquareMatrixISt7complexIfELi2EEELm32EEEE9allocatorE@Base 3.2.1-1kern1
 _ZN8casacore17Allocator_private17BulkAllocatorImplINS_18casacore_allocatorINS_12SquareMatrixISt7complexIfELi2EEELm32EEEE9constructEPS6_m@Base 3.2.1-1kern1
 _ZN8casacore17Allocator_private17BulkAllocatorImplINS_18casacore_allocatorINS_12SquareMatrixISt7complexIfELi2EEELm32EEEE9constructEPS6_mPKS6_@Base 3.2.1-1kern1
 _ZN8casacore17Allocator_private17BulkAllocatorImplINS_18casacore_allocatorINS_12SquareMatrixISt7complexIfELi2EEELm32EEEE9constructEPS6_mRKS6_@Base 3.2.1-1kern1
 _ZN8casacore17Allocator_private17BulkAllocatorImplINS_18casacore_allocatorINS_12SquareMatrixISt7complexIfELi2EEELm32EEEED0Ev@Base 3.2.1-1kern1
 _ZN8casacore17Allocator_private17BulkAllocatorImplINS_18casacore_allocatorINS_12SquareMatrixISt7complexIfELi2EEELm32EEEED1Ev@Base 3.2.1-1kern1
 _ZN8casacore17Allocator_private17BulkAllocatorImplINS_18casacore_allocatorINS_12SquareMatrixISt7complexIfELi2EEELm32EEEED2Ev@Base 3.2.1-1kern1
 _ZN8casacore17Allocator_private17BulkAllocatorImplINS_18casacore_allocatorINS_14MeasurementSetELm32EEEE10deallocateEPS3_m@Base 3.2.1-1kern1
 _ZN8casacore17Allocator_private17BulkAllocatorImplINS_18casacore_allocatorINS_14MeasurementSetELm32EEEE7destroyEPS3_m@Base 3.2.1-1kern1
 _ZN8casacore17Allocator_private17BulkAllocatorImplINS_18casacore_allocatorINS_14MeasurementSetELm32EEEE8allocateEmPKv@Base 3.2.1-1kern1
 _ZN8casacore17Allocator_private17BulkAllocatorImplINS_18casacore_allocatorINS_14MeasurementSetELm32EEEE9allocatorE@Base 3.2.1-1kern1
 _ZN8casacore17Allocator_private17BulkAllocatorImplINS_18casacore_allocatorINS_14MeasurementSetELm32EEEE9constructEPS3_m@Base 3.2.1-1kern1
 _ZN8casacore17Allocator_private17BulkAllocatorImplINS_18casacore_allocatorINS_14MeasurementSetELm32EEEE9constructEPS3_mPKS3_@Base 3.2.1-1kern1
 _ZN8casacore17Allocator_private17BulkAllocatorImplINS_18casacore_allocatorINS_14MeasurementSetELm32EEEE9constructEPS3_mRKS3_@Base 3.2.1-1kern1
 _ZN8casacore17Allocator_private17BulkAllocatorImplINS_18casacore_allocatorINS_14MeasurementSetELm32EEEED0Ev@Base 3.2.1-1kern1
 _ZN8casacore17Allocator_private17BulkAllocatorImplINS_18casacore_allocatorINS_14MeasurementSetELm32EEEED1Ev@Base 3.2.1-1kern1
 _ZN8casacore17Allocator_private17BulkAllocatorImplINS_18casacore_allocatorINS_14MeasurementSetELm32EEEED2Ev@Base 3.2.1-1kern1
 _ZN8casacore17Allocator_private17BulkAllocatorImplINS_18casacore_allocatorINS_14RecordFieldPtrIiEELm32EEEE10deallocateEPS4_m@Base 3.2.1-1kern1
 _ZN8casacore17Allocator_private17BulkAllocatorImplINS_18casacore_allocatorINS_14RecordFieldPtrIiEELm32EEEE7destroyEPS4_m@Base 3.2.1-1kern1
 _ZN8casacore17Allocator_private17BulkAllocatorImplINS_18casacore_allocatorINS_14RecordFieldPtrIiEELm32EEEE8allocateEmPKv@Base 3.2.1-1kern1
 _ZN8casacore17Allocator_private17BulkAllocatorImplINS_18casacore_allocatorINS_14RecordFieldPtrIiEELm32EEEE9allocatorE@Base 3.2.1-1kern1
 _ZN8casacore17Allocator_private17BulkAllocatorImplINS_18casacore_allocatorINS_14RecordFieldPtrIiEELm32EEEE9constructEPS4_m@Base 3.2.1-1kern1
 _ZN8casacore17Allocator_private17BulkAllocatorImplINS_18casacore_allocatorINS_14RecordFieldPtrIiEELm32EEEE9constructEPS4_mPKS4_@Base 3.2.1-1kern1
 _ZN8casacore17Allocator_private17BulkAllocatorImplINS_18casacore_allocatorINS_14RecordFieldPtrIiEELm32EEEE9constructEPS4_mRKS4_@Base 3.2.1-1kern1
 _ZN8casacore17Allocator_private17BulkAllocatorImplINS_18casacore_allocatorINS_14RecordFieldPtrIiEELm32EEEED0Ev@Base 3.2.1-1kern1
 _ZN8casacore17Allocator_private17BulkAllocatorImplINS_18casacore_allocatorINS_14RecordFieldPtrIiEELm32EEEED1Ev@Base 3.2.1-1kern1
 _ZN8casacore17Allocator_private17BulkAllocatorImplINS_18casacore_allocatorINS_14RecordFieldPtrIiEELm32EEEED2Ev@Base 3.2.1-1kern1
 _ZN8casacore17Allocator_private17BulkAllocatorImplINS_18casacore_allocatorINS_4UnitELm32EEEE10deallocateEPS3_m@Base 3.2.1-1kern1
 _ZN8casacore17Allocator_private17BulkAllocatorImplINS_18casacore_allocatorINS_4UnitELm32EEEE7destroyEPS3_m@Base 3.2.1-1kern1
 _ZN8casacore17Allocator_private17BulkAllocatorImplINS_18casacore_allocatorINS_4UnitELm32EEEE8allocateEmPKv@Base 3.2.1-1kern1
 _ZN8casacore17Allocator_private17BulkAllocatorImplINS_18casacore_allocatorINS_4UnitELm32EEEE9allocatorE@Base 3.2.1-1kern1
 _ZN8casacore17Allocator_private17BulkAllocatorImplINS_18casacore_allocatorINS_4UnitELm32EEEE9constructEPS3_m@Base 3.2.1-1kern1
 _ZN8casacore17Allocator_private17BulkAllocatorImplINS_18casacore_allocatorINS_4UnitELm32EEEE9constructEPS3_mPKS3_@Base 3.2.1-1kern1
 _ZN8casacore17Allocator_private17BulkAllocatorImplINS_18casacore_allocatorINS_4UnitELm32EEEE9constructEPS3_mRKS3_@Base 3.2.1-1kern1
 _ZN8casacore17Allocator_private17BulkAllocatorImplINS_18casacore_allocatorINS_4UnitELm32EEEED0Ev@Base 3.2.1-1kern1
 _ZN8casacore17Allocator_private17BulkAllocatorImplINS_18casacore_allocatorINS_4UnitELm32EEEED1Ev@Base 3.2.1-1kern1
 _ZN8casacore17Allocator_private17BulkAllocatorImplINS_18casacore_allocatorINS_4UnitELm32EEEED2Ev@Base 3.2.1-1kern1
 _ZN8casacore17Allocator_private17BulkAllocatorImplINS_18casacore_allocatorINS_5SliceELm32EEEE10deallocateEPS3_m@Base 3.2.1-1kern1
 _ZN8casacore17Allocator_private17BulkAllocatorImplINS_18casacore_allocatorINS_5SliceELm32EEEE7destroyEPS3_m@Base 3.2.1-1kern1
 _ZN8casacore17Allocator_private17BulkAllocatorImplINS_18casacore_allocatorINS_5SliceELm32EEEE8allocateEmPKv@Base 3.2.1-1kern1
 _ZN8casacore17Allocator_private17BulkAllocatorImplINS_18casacore_allocatorINS_5SliceELm32EEEE9allocatorE@Base 3.2.1-1kern1
 _ZN8casacore17Allocator_private17BulkAllocatorImplINS_18casacore_allocatorINS_5SliceELm32EEEE9constructEPS3_m@Base 3.2.1-1kern1
 _ZN8casacore17Allocator_private17BulkAllocatorImplINS_18casacore_allocatorINS_5SliceELm32EEEE9constructEPS3_mPKS3_@Base 3.2.1-1kern1
 _ZN8casacore17Allocator_private17BulkAllocatorImplINS_18casacore_allocatorINS_5SliceELm32EEEE9constructEPS3_mRKS3_@Base 3.2.1-1kern1
 _ZN8casacore17Allocator_private17BulkAllocatorImplINS_18casacore_allocatorINS_5SliceELm32EEEED0Ev@Base 3.2.1-1kern1
 _ZN8casacore17Allocator_private17BulkAllocatorImplINS_18casacore_allocatorINS_5SliceELm32EEEED1Ev@Base 3.2.1-1kern1
 _ZN8casacore17Allocator_private17BulkAllocatorImplINS_18casacore_allocatorINS_5SliceELm32EEEED2Ev@Base 3.2.1-1kern1
 _ZN8casacore17Allocator_private17BulkAllocatorImplINS_18casacore_allocatorINS_6MVTimeELm32EEEE10deallocateEPS3_m@Base 3.2.1-1kern1
 _ZN8casacore17Allocator_private17BulkAllocatorImplINS_18casacore_allocatorINS_6MVTimeELm32EEEE7destroyEPS3_m@Base 3.2.1-1kern1
 _ZN8casacore17Allocator_private17BulkAllocatorImplINS_18casacore_allocatorINS_6MVTimeELm32EEEE8allocateEmPKv@Base 3.2.1-1kern1
 _ZN8casacore17Allocator_private17BulkAllocatorImplINS_18casacore_allocatorINS_6MVTimeELm32EEEE9allocatorE@Base 3.2.1-1kern1
 _ZN8casacore17Allocator_private17BulkAllocatorImplINS_18casacore_allocatorINS_6MVTimeELm32EEEE9constructEPS3_m@Base 3.2.1-1kern1
 _ZN8casacore17Allocator_private17BulkAllocatorImplINS_18casacore_allocatorINS_6MVTimeELm32EEEE9constructEPS3_mPKS3_@Base 3.2.1-1kern1
 _ZN8casacore17Allocator_private17BulkAllocatorImplINS_18casacore_allocatorINS_6MVTimeELm32EEEE9constructEPS3_mRKS3_@Base 3.2.1-1kern1
 _ZN8casacore17Allocator_private17BulkAllocatorImplINS_18casacore_allocatorINS_6MVTimeELm32EEEED0Ev@Base 3.2.1-1kern1
 _ZN8casacore17Allocator_private17BulkAllocatorImplINS_18casacore_allocatorINS_6MVTimeELm32EEEED1Ev@Base 3.2.1-1kern1
 _ZN8casacore17Allocator_private17BulkAllocatorImplINS_18casacore_allocatorINS_6MVTimeELm32EEEED2Ev@Base 3.2.1-1kern1
 _ZN8casacore17Allocator_private17BulkAllocatorImplINS_18casacore_allocatorINS_6Stokes11StokesTypesELm32EEEE10deallocateEPS4_m@Base 3.2.1-1kern1
 _ZN8casacore17Allocator_private17BulkAllocatorImplINS_18casacore_allocatorINS_6Stokes11StokesTypesELm32EEEE7destroyEPS4_m@Base 3.2.1-1kern1
 _ZN8casacore17Allocator_private17BulkAllocatorImplINS_18casacore_allocatorINS_6Stokes11StokesTypesELm32EEEE8allocateEmPKv@Base 3.2.1-1kern1
 _ZN8casacore17Allocator_private17BulkAllocatorImplINS_18casacore_allocatorINS_6Stokes11StokesTypesELm32EEEE9allocatorE@Base 3.2.1-1kern1
 _ZN8casacore17Allocator_private17BulkAllocatorImplINS_18casacore_allocatorINS_6Stokes11StokesTypesELm32EEEE9constructEPS4_m@Base 3.2.1-1kern1
 _ZN8casacore17Allocator_private17BulkAllocatorImplINS_18casacore_allocatorINS_6Stokes11StokesTypesELm32EEEE9constructEPS4_mPKS4_@Base 3.2.1-1kern1
 _ZN8casacore17Allocator_private17BulkAllocatorImplINS_18casacore_allocatorINS_6Stokes11StokesTypesELm32EEEE9constructEPS4_mRKS4_@Base 3.2.1-1kern1
 _ZN8casacore17Allocator_private17BulkAllocatorImplINS_18casacore_allocatorINS_6Stokes11StokesTypesELm32EEEED0Ev@Base 3.2.1-1kern1
 _ZN8casacore17Allocator_private17BulkAllocatorImplINS_18casacore_allocatorINS_6Stokes11StokesTypesELm32EEEED1Ev@Base 3.2.1-1kern1
 _ZN8casacore17Allocator_private17BulkAllocatorImplINS_18casacore_allocatorINS_6Stokes11StokesTypesELm32EEEED2Ev@Base 3.2.1-1kern1
 _ZN8casacore17Allocator_private17BulkAllocatorImplINS_18casacore_allocatorINS_6StringELm32EEEE10deallocateEPS3_m@Base 3.2.1-1kern1
 _ZN8casacore17Allocator_private17BulkAllocatorImplINS_18casacore_allocatorINS_6StringELm32EEEE7destroyEPS3_m@Base 3.2.1-1kern1
 _ZN8casacore17Allocator_private17BulkAllocatorImplINS_18casacore_allocatorINS_6StringELm32EEEE8allocateEmPKv@Base 3.2.1-1kern1
 _ZN8casacore17Allocator_private17BulkAllocatorImplINS_18casacore_allocatorINS_6StringELm32EEEE9allocatorE@Base 3.2.1-1kern1
 _ZN8casacore17Allocator_private17BulkAllocatorImplINS_18casacore_allocatorINS_6StringELm32EEEE9constructEPS3_m@Base 3.2.1-1kern1
 _ZN8casacore17Allocator_private17BulkAllocatorImplINS_18casacore_allocatorINS_6StringELm32EEEE9constructEPS3_mPKS3_@Base 3.2.1-1kern1
 _ZN8casacore17Allocator_private17BulkAllocatorImplINS_18casacore_allocatorINS_6StringELm32EEEE9constructEPS3_mRKS3_@Base 3.2.1-1kern1
 _ZN8casacore17Allocator_private17BulkAllocatorImplINS_18casacore_allocatorINS_6StringELm32EEEED0Ev@Base 3.2.1-1kern1
 _ZN8casacore17Allocator_private17BulkAllocatorImplINS_18casacore_allocatorINS_6StringELm32EEEED1Ev@Base 3.2.1-1kern1
 _ZN8casacore17Allocator_private17BulkAllocatorImplINS_18casacore_allocatorINS_6StringELm32EEEED2Ev@Base 3.2.1-1kern1
 _ZN8casacore17Allocator_private17BulkAllocatorImplINS_18casacore_allocatorINS_6VectorINS_5SliceEEELm32EEEE10deallocateEPS5_m@Base 3.2.1-1kern1
 _ZN8casacore17Allocator_private17BulkAllocatorImplINS_18casacore_allocatorINS_6VectorINS_5SliceEEELm32EEEE7destroyEPS5_m@Base 3.2.1-1kern1
 _ZN8casacore17Allocator_private17BulkAllocatorImplINS_18casacore_allocatorINS_6VectorINS_5SliceEEELm32EEEE8allocateEmPKv@Base 3.2.1-1kern1
 _ZN8casacore17Allocator_private17BulkAllocatorImplINS_18casacore_allocatorINS_6VectorINS_5SliceEEELm32EEEE9allocatorE@Base 3.2.1-1kern1
 _ZN8casacore17Allocator_private17BulkAllocatorImplINS_18casacore_allocatorINS_6VectorINS_5SliceEEELm32EEEE9constructEPS5_m@Base 3.2.1-1kern1
 _ZN8casacore17Allocator_private17BulkAllocatorImplINS_18casacore_allocatorINS_6VectorINS_5SliceEEELm32EEEE9constructEPS5_mPKS5_@Base 3.2.1-1kern1
 _ZN8casacore17Allocator_private17BulkAllocatorImplINS_18casacore_allocatorINS_6VectorINS_5SliceEEELm32EEEE9constructEPS5_mRKS5_@Base 3.2.1-1kern1
 _ZN8casacore17Allocator_private17BulkAllocatorImplINS_18casacore_allocatorINS_6VectorINS_5SliceEEELm32EEEED0Ev@Base 3.2.1-1kern1
 _ZN8casacore17Allocator_private17BulkAllocatorImplINS_18casacore_allocatorINS_6VectorINS_5SliceEEELm32EEEED1Ev@Base 3.2.1-1kern1
 _ZN8casacore17Allocator_private17BulkAllocatorImplINS_18casacore_allocatorINS_6VectorINS_5SliceEEELm32EEEED2Ev@Base 3.2.1-1kern1
 _ZN8casacore17Allocator_private17BulkAllocatorImplINS_18casacore_allocatorINS_6VectorIiEELm32EEEE10deallocateEPS4_m@Base 3.2.1-1kern1
 _ZN8casacore17Allocator_private17BulkAllocatorImplINS_18casacore_allocatorINS_6VectorIiEELm32EEEE7destroyEPS4_m@Base 3.2.1-1kern1
 _ZN8casacore17Allocator_private17BulkAllocatorImplINS_18casacore_allocatorINS_6VectorIiEELm32EEEE8allocateEmPKv@Base 3.2.1-1kern1
 _ZN8casacore17Allocator_private17BulkAllocatorImplINS_18casacore_allocatorINS_6VectorIiEELm32EEEE9allocatorE@Base 3.2.1-1kern1
 _ZN8casacore17Allocator_private17BulkAllocatorImplINS_18casacore_allocatorINS_6VectorIiEELm32EEEE9constructEPS4_m@Base 3.2.1-1kern1
 _ZN8casacore17Allocator_private17BulkAllocatorImplINS_18casacore_allocatorINS_6VectorIiEELm32EEEE9constructEPS4_mPKS4_@Base 3.2.1-1kern1
 _ZN8casacore17Allocator_private17BulkAllocatorImplINS_18casacore_allocatorINS_6VectorIiEELm32EEEE9constructEPS4_mRKS4_@Base 3.2.1-1kern1
 _ZN8casacore17Allocator_private17BulkAllocatorImplINS_18casacore_allocatorINS_6VectorIiEELm32EEEED0Ev@Base 3.2.1-1kern1
 _ZN8casacore17Allocator_private17BulkAllocatorImplINS_18casacore_allocatorINS_6VectorIiEELm32EEEED1Ev@Base 3.2.1-1kern1
 _ZN8casacore17Allocator_private17BulkAllocatorImplINS_18casacore_allocatorINS_6VectorIiEELm32EEEED2Ev@Base 3.2.1-1kern1
 _ZN8casacore17Allocator_private17BulkAllocatorImplINS_18casacore_allocatorINS_7QuantumIdEELm32EEEE10deallocateEPS4_m@Base 3.2.1-1kern1
 _ZN8casacore17Allocator_private17BulkAllocatorImplINS_18casacore_allocatorINS_7QuantumIdEELm32EEEE7destroyEPS4_m@Base 3.2.1-1kern1
 _ZN8casacore17Allocator_private17BulkAllocatorImplINS_18casacore_allocatorINS_7QuantumIdEELm32EEEE8allocateEmPKv@Base 3.2.1-1kern1
 _ZN8casacore17Allocator_private17BulkAllocatorImplINS_18casacore_allocatorINS_7QuantumIdEELm32EEEE9allocatorE@Base 3.2.1-1kern1
 _ZN8casacore17Allocator_private17BulkAllocatorImplINS_18casacore_allocatorINS_7QuantumIdEELm32EEEE9constructEPS4_m@Base 3.2.1-1kern1
 _ZN8casacore17Allocator_private17BulkAllocatorImplINS_18casacore_allocatorINS_7QuantumIdEELm32EEEE9constructEPS4_mPKS4_@Base 3.2.1-1kern1
 _ZN8casacore17Allocator_private17BulkAllocatorImplINS_18casacore_allocatorINS_7QuantumIdEELm32EEEE9constructEPS4_mRKS4_@Base 3.2.1-1kern1
 _ZN8casacore17Allocator_private17BulkAllocatorImplINS_18casacore_allocatorINS_7QuantumIdEELm32EEEED0Ev@Base 3.2.1-1kern1
 _ZN8casacore17Allocator_private17BulkAllocatorImplINS_18casacore_allocatorINS_7QuantumIdEELm32EEEED1Ev@Base 3.2.1-1kern1
 _ZN8casacore17Allocator_private17BulkAllocatorImplINS_18casacore_allocatorINS_7QuantumIdEELm32EEEED2Ev@Base 3.2.1-1kern1
 _ZN8casacore17Allocator_private17BulkAllocatorImplINS_18casacore_allocatorINS_9MPositionELm32EEEE10deallocateEPS3_m@Base 3.2.1-1kern1
 _ZN8casacore17Allocator_private17BulkAllocatorImplINS_18casacore_allocatorINS_9MPositionELm32EEEE7destroyEPS3_m@Base 3.2.1-1kern1
 _ZN8casacore17Allocator_private17BulkAllocatorImplINS_18casacore_allocatorINS_9MPositionELm32EEEE8allocateEmPKv@Base 3.2.1-1kern1
 _ZN8casacore17Allocator_private17BulkAllocatorImplINS_18casacore_allocatorINS_9MPositionELm32EEEE9allocatorE@Base 3.2.1-1kern1
 _ZN8casacore17Allocator_private17BulkAllocatorImplINS_18casacore_allocatorINS_9MPositionELm32EEEE9constructEPS3_m@Base 3.2.1-1kern1
 _ZN8casacore17Allocator_private17BulkAllocatorImplINS_18casacore_allocatorINS_9MPositionELm32EEEE9constructEPS3_mPKS3_@Base 3.2.1-1kern1
 _ZN8casacore17Allocator_private17BulkAllocatorImplINS_18casacore_allocatorINS_9MPositionELm32EEEE9constructEPS3_mRKS3_@Base 3.2.1-1kern1
 _ZN8casacore17Allocator_private17BulkAllocatorImplINS_18casacore_allocatorINS_9MPositionELm32EEEED0Ev@Base 3.2.1-1kern1
 _ZN8casacore17Allocator_private17BulkAllocatorImplINS_18casacore_allocatorINS_9MPositionELm32EEEED1Ev@Base 3.2.1-1kern1
 _ZN8casacore17Allocator_private17BulkAllocatorImplINS_18casacore_allocatorINS_9MPositionELm32EEEED2Ev@Base 3.2.1-1kern1
 _ZN8casacore17Allocator_private17BulkAllocatorImplINS_18casacore_allocatorIPNS_6SlicerELm32EEEE10deallocateEPS4_m@Base 3.2.1-1kern1
 _ZN8casacore17Allocator_private17BulkAllocatorImplINS_18casacore_allocatorIPNS_6SlicerELm32EEEE7destroyEPS4_m@Base 3.2.1-1kern1
 _ZN8casacore17Allocator_private17BulkAllocatorImplINS_18casacore_allocatorIPNS_6SlicerELm32EEEE8allocateEmPKv@Base 3.2.1-1kern1
 _ZN8casacore17Allocator_private17BulkAllocatorImplINS_18casacore_allocatorIPNS_6SlicerELm32EEEE9allocatorE@Base 3.2.1-1kern1
 _ZN8casacore17Allocator_private17BulkAllocatorImplINS_18casacore_allocatorIPNS_6SlicerELm32EEEE9constructEPS4_m@Base 3.2.1-1kern1
 _ZN8casacore17Allocator_private17BulkAllocatorImplINS_18casacore_allocatorIPNS_6SlicerELm32EEEE9constructEPS4_mPKS4_@Base 3.2.1-1kern1
 _ZN8casacore17Allocator_private17BulkAllocatorImplINS_18casacore_allocatorIPNS_6SlicerELm32EEEE9constructEPS4_mRKS4_@Base 3.2.1-1kern1
 _ZN8casacore17Allocator_private17BulkAllocatorImplINS_18casacore_allocatorIPNS_6SlicerELm32EEEED0Ev@Base 3.2.1-1kern1
 _ZN8casacore17Allocator_private17BulkAllocatorImplINS_18casacore_allocatorIPNS_6SlicerELm32EEEED1Ev@Base 3.2.1-1kern1
 _ZN8casacore17Allocator_private17BulkAllocatorImplINS_18casacore_allocatorIPNS_6SlicerELm32EEEED2Ev@Base 3.2.1-1kern1
 _ZN8casacore17Allocator_private17BulkAllocatorImplINS_18casacore_allocatorIPNS_9MeasCometELm32EEEE10deallocateEPS4_m@Base 3.2.1-1kern1
 _ZN8casacore17Allocator_private17BulkAllocatorImplINS_18casacore_allocatorIPNS_9MeasCometELm32EEEE7destroyEPS4_m@Base 3.2.1-1kern1
 _ZN8casacore17Allocator_private17BulkAllocatorImplINS_18casacore_allocatorIPNS_9MeasCometELm32EEEE8allocateEmPKv@Base 3.2.1-1kern1
 _ZN8casacore17Allocator_private17BulkAllocatorImplINS_18casacore_allocatorIPNS_9MeasCometELm32EEEE9allocatorE@Base 3.2.1-1kern1
 _ZN8casacore17Allocator_private17BulkAllocatorImplINS_18casacore_allocatorIPNS_9MeasCometELm32EEEE9constructEPS4_m@Base 3.2.1-1kern1
 _ZN8casacore17Allocator_private17BulkAllocatorImplINS_18casacore_allocatorIPNS_9MeasCometELm32EEEE9constructEPS4_mPKS4_@Base 3.2.1-1kern1
 _ZN8casacore17Allocator_private17BulkAllocatorImplINS_18casacore_allocatorIPNS_9MeasCometELm32EEEE9constructEPS4_mRKS4_@Base 3.2.1-1kern1
 _ZN8casacore17Allocator_private17BulkAllocatorImplINS_18casacore_allocatorIPNS_9MeasCometELm32EEEED0Ev@Base 3.2.1-1kern1
 _ZN8casacore17Allocator_private17BulkAllocatorImplINS_18casacore_allocatorIPNS_9MeasCometELm32EEEED1Ev@Base 3.2.1-1kern1
 _ZN8casacore17Allocator_private17BulkAllocatorImplINS_18casacore_allocatorIPNS_9MeasCometELm32EEEED2Ev@Base 3.2.1-1kern1
 _ZN8casacore17Allocator_private17BulkAllocatorImplINS_18casacore_allocatorIPvLm32EEEE10deallocateEPS3_m@Base 3.2.1-1kern1
 _ZN8casacore17Allocator_private17BulkAllocatorImplINS_18casacore_allocatorIPvLm32EEEE7destroyEPS3_m@Base 3.2.1-1kern1
 _ZN8casacore17Allocator_private17BulkAllocatorImplINS_18casacore_allocatorIPvLm32EEEE8allocateEmPKv@Base 3.2.1-1kern1
 _ZN8casacore17Allocator_private17BulkAllocatorImplINS_18casacore_allocatorIPvLm32EEEE9allocatorE@Base 3.2.1-1kern1
 _ZN8casacore17Allocator_private17BulkAllocatorImplINS_18casacore_allocatorIPvLm32EEEE9constructEPS3_m@Base 3.2.1-1kern1
 _ZN8casacore17Allocator_private17BulkAllocatorImplINS_18casacore_allocatorIPvLm32EEEE9constructEPS3_mPKS3_@Base 3.2.1-1kern1
 _ZN8casacore17Allocator_private17BulkAllocatorImplINS_18casacore_allocatorIPvLm32EEEE9constructEPS3_mRKS3_@Base 3.2.1-1kern1
 _ZN8casacore17Allocator_private17BulkAllocatorImplINS_18casacore_allocatorIPvLm32EEEED0Ev@Base 3.2.1-1kern1
 _ZN8casacore17Allocator_private17BulkAllocatorImplINS_18casacore_allocatorIPvLm32EEEED1Ev@Base 3.2.1-1kern1
 _ZN8casacore17Allocator_private17BulkAllocatorImplINS_18casacore_allocatorIPvLm32EEEED2Ev@Base 3.2.1-1kern1
 _ZN8casacore17Allocator_private17BulkAllocatorImplINS_18casacore_allocatorISt7complexIfELm32EEEE10deallocateEPS4_m@Base 3.2.1-1kern1
 _ZN8casacore17Allocator_private17BulkAllocatorImplINS_18casacore_allocatorISt7complexIfELm32EEEE7destroyEPS4_m@Base 3.2.1-1kern1
 _ZN8casacore17Allocator_private17BulkAllocatorImplINS_18casacore_allocatorISt7complexIfELm32EEEE8allocateEmPKv@Base 3.2.1-1kern1
 _ZN8casacore17Allocator_private17BulkAllocatorImplINS_18casacore_allocatorISt7complexIfELm32EEEE9allocatorE@Base 3.2.1-1kern1
 _ZN8casacore17Allocator_private17BulkAllocatorImplINS_18casacore_allocatorISt7complexIfELm32EEEE9constructEPS4_m@Base 3.2.1-1kern1
 _ZN8casacore17Allocator_private17BulkAllocatorImplINS_18casacore_allocatorISt7complexIfELm32EEEE9constructEPS4_mPKS4_@Base 3.2.1-1kern1
 _ZN8casacore17Allocator_private17BulkAllocatorImplINS_18casacore_allocatorISt7complexIfELm32EEEE9constructEPS4_mRKS4_@Base 3.2.1-1kern1
 _ZN8casacore17Allocator_private17BulkAllocatorImplINS_18casacore_allocatorISt7complexIfELm32EEEED0Ev@Base 3.2.1-1kern1
 _ZN8casacore17Allocator_private17BulkAllocatorImplINS_18casacore_allocatorISt7complexIfELm32EEEED1Ev@Base 3.2.1-1kern1
 _ZN8casacore17Allocator_private17BulkAllocatorImplINS_18casacore_allocatorISt7complexIfELm32EEEED2Ev@Base 3.2.1-1kern1
 _ZN8casacore17Allocator_private17BulkAllocatorImplINS_18casacore_allocatorIbLm32EEEE10deallocateEPbm@Base 3.2.1-1kern1
 _ZN8casacore17Allocator_private17BulkAllocatorImplINS_18casacore_allocatorIbLm32EEEE7destroyEPbm@Base 3.2.1-1kern1
 _ZN8casacore17Allocator_private17BulkAllocatorImplINS_18casacore_allocatorIbLm32EEEE8allocateEmPKv@Base 3.2.1-1kern1
 _ZN8casacore17Allocator_private17BulkAllocatorImplINS_18casacore_allocatorIbLm32EEEE9allocatorE@Base 3.2.1-1kern1
 _ZN8casacore17Allocator_private17BulkAllocatorImplINS_18casacore_allocatorIbLm32EEEE9constructEPbm@Base 3.2.1-1kern1
 _ZN8casacore17Allocator_private17BulkAllocatorImplINS_18casacore_allocatorIbLm32EEEE9constructEPbmPKb@Base 3.2.1-1kern1
 _ZN8casacore17Allocator_private17BulkAllocatorImplINS_18casacore_allocatorIbLm32EEEE9constructEPbmRKb@Base 3.2.1-1kern1
 _ZN8casacore17Allocator_private17BulkAllocatorImplINS_18casacore_allocatorIbLm32EEEED0Ev@Base 3.2.1-1kern1
 _ZN8casacore17Allocator_private17BulkAllocatorImplINS_18casacore_allocatorIbLm32EEEED1Ev@Base 3.2.1-1kern1
 _ZN8casacore17Allocator_private17BulkAllocatorImplINS_18casacore_allocatorIbLm32EEEED2Ev@Base 3.2.1-1kern1
 _ZN8casacore17Allocator_private17BulkAllocatorImplINS_18casacore_allocatorIdLm32EEEE10deallocateEPdm@Base 3.2.1-1kern1
 _ZN8casacore17Allocator_private17BulkAllocatorImplINS_18casacore_allocatorIdLm32EEEE7destroyEPdm@Base 3.2.1-1kern1
 _ZN8casacore17Allocator_private17BulkAllocatorImplINS_18casacore_allocatorIdLm32EEEE8allocateEmPKv@Base 3.2.1-1kern1
 _ZN8casacore17Allocator_private17BulkAllocatorImplINS_18casacore_allocatorIdLm32EEEE9allocatorE@Base 3.2.1-1kern1
 _ZN8casacore17Allocator_private17BulkAllocatorImplINS_18casacore_allocatorIdLm32EEEE9constructEPdm@Base 3.2.1-1kern1
 _ZN8casacore17Allocator_private17BulkAllocatorImplINS_18casacore_allocatorIdLm32EEEE9constructEPdmPKd@Base 3.2.1-1kern1
 _ZN8casacore17Allocator_private17BulkAllocatorImplINS_18casacore_allocatorIdLm32EEEE9constructEPdmRKd@Base 3.2.1-1kern1
 _ZN8casacore17Allocator_private17BulkAllocatorImplINS_18casacore_allocatorIdLm32EEEED0Ev@Base 3.2.1-1kern1
 _ZN8casacore17Allocator_private17BulkAllocatorImplINS_18casacore_allocatorIdLm32EEEED1Ev@Base 3.2.1-1kern1
 _ZN8casacore17Allocator_private17BulkAllocatorImplINS_18casacore_allocatorIdLm32EEEED2Ev@Base 3.2.1-1kern1
 _ZN8casacore17Allocator_private17BulkAllocatorImplINS_18casacore_allocatorIfLm32EEEE10deallocateEPfm@Base 3.2.1-1kern1
 _ZN8casacore17Allocator_private17BulkAllocatorImplINS_18casacore_allocatorIfLm32EEEE7destroyEPfm@Base 3.2.1-1kern1
 _ZN8casacore17Allocator_private17BulkAllocatorImplINS_18casacore_allocatorIfLm32EEEE8allocateEmPKv@Base 3.2.1-1kern1
 _ZN8casacore17Allocator_private17BulkAllocatorImplINS_18casacore_allocatorIfLm32EEEE9allocatorE@Base 3.2.1-1kern1
 _ZN8casacore17Allocator_private17BulkAllocatorImplINS_18casacore_allocatorIfLm32EEEE9constructEPfm@Base 3.2.1-1kern1
 _ZN8casacore17Allocator_private17BulkAllocatorImplINS_18casacore_allocatorIfLm32EEEE9constructEPfmPKf@Base 3.2.1-1kern1
 _ZN8casacore17Allocator_private17BulkAllocatorImplINS_18casacore_allocatorIfLm32EEEE9constructEPfmRKf@Base 3.2.1-1kern1
 _ZN8casacore17Allocator_private17BulkAllocatorImplINS_18casacore_allocatorIfLm32EEEED0Ev@Base 3.2.1-1kern1
 _ZN8casacore17Allocator_private17BulkAllocatorImplINS_18casacore_allocatorIfLm32EEEED1Ev@Base 3.2.1-1kern1
 _ZN8casacore17Allocator_private17BulkAllocatorImplINS_18casacore_allocatorIfLm32EEEED2Ev@Base 3.2.1-1kern1
 _ZN8casacore17Allocator_private17BulkAllocatorImplINS_18casacore_allocatorIiLm32EEEE10deallocateEPim@Base 3.2.1-1kern1
 _ZN8casacore17Allocator_private17BulkAllocatorImplINS_18casacore_allocatorIiLm32EEEE7destroyEPim@Base 3.2.1-1kern1
 _ZN8casacore17Allocator_private17BulkAllocatorImplINS_18casacore_allocatorIiLm32EEEE8allocateEmPKv@Base 3.2.1-1kern1
 _ZN8casacore17Allocator_private17BulkAllocatorImplINS_18casacore_allocatorIiLm32EEEE9allocatorE@Base 3.2.1-1kern1
 _ZN8casacore17Allocator_private17BulkAllocatorImplINS_18casacore_allocatorIiLm32EEEE9constructEPim@Base 3.2.1-1kern1
 _ZN8casacore17Allocator_private17BulkAllocatorImplINS_18casacore_allocatorIiLm32EEEE9constructEPimPKi@Base 3.2.1-1kern1
 _ZN8casacore17Allocator_private17BulkAllocatorImplINS_18casacore_allocatorIiLm32EEEE9constructEPimRKi@Base 3.2.1-1kern1
 _ZN8casacore17Allocator_private17BulkAllocatorImplINS_18casacore_allocatorIiLm32EEEED0Ev@Base 3.2.1-1kern1
 _ZN8casacore17Allocator_private17BulkAllocatorImplINS_18casacore_allocatorIiLm32EEEED1Ev@Base 3.2.1-1kern1
 _ZN8casacore17Allocator_private17BulkAllocatorImplINS_18casacore_allocatorIiLm32EEEED2Ev@Base 3.2.1-1kern1
 _ZN8casacore17Allocator_private17BulkAllocatorImplINS_18casacore_allocatorIjLm32EEEE10deallocateEPjm@Base 3.2.1-1kern1
 _ZN8casacore17Allocator_private17BulkAllocatorImplINS_18casacore_allocatorIjLm32EEEE7destroyEPjm@Base 3.2.1-1kern1
 _ZN8casacore17Allocator_private17BulkAllocatorImplINS_18casacore_allocatorIjLm32EEEE8allocateEmPKv@Base 3.2.1-1kern1
 _ZN8casacore17Allocator_private17BulkAllocatorImplINS_18casacore_allocatorIjLm32EEEE9allocatorE@Base 3.2.1-1kern1
 _ZN8casacore17Allocator_private17BulkAllocatorImplINS_18casacore_allocatorIjLm32EEEE9constructEPjm@Base 3.2.1-1kern1
 _ZN8casacore17Allocator_private17BulkAllocatorImplINS_18casacore_allocatorIjLm32EEEE9constructEPjmPKj@Base 3.2.1-1kern1
 _ZN8casacore17Allocator_private17BulkAllocatorImplINS_18casacore_allocatorIjLm32EEEE9constructEPjmRKj@Base 3.2.1-1kern1
 _ZN8casacore17Allocator_private17BulkAllocatorImplINS_18casacore_allocatorIjLm32EEEED0Ev@Base 3.2.1-1kern1
 _ZN8casacore17Allocator_private17BulkAllocatorImplINS_18casacore_allocatorIjLm32EEEED1Ev@Base 3.2.1-1kern1
 _ZN8casacore17Allocator_private17BulkAllocatorImplINS_18casacore_allocatorIjLm32EEEED2Ev@Base 3.2.1-1kern1
 _ZN8casacore17Allocator_private17get_allocator_rawINS_18casacore_allocatorIiLm32EEEEEPNS0_17BulkAllocatorImplIT_EEv@Base 3.2.1-1kern1
 _ZN8casacore17Allocator_private17get_allocator_rawINS_18casacore_allocatorIjLm32EEEEEPNS0_17BulkAllocatorImplIT_EEv@Base 3.2.1-1kern1
 _ZN8casacore17MS1ToMS2Converter12removeColumnERNS_5TableERKNS_6StringE@Base 3.2.1-1kern1
 _ZN8casacore17MS1ToMS2Converter7convertEv@Base 3.2.1-1kern1
 _ZN8casacore17MS1ToMS2ConverterC1ERKNS_6StringES3_b@Base 3.2.1-1kern1
 _ZN8casacore17MS1ToMS2ConverterC2ERKNS_6StringES3_b@Base 3.2.1-1kern1
 _ZN8casacore17MS1ToMS2ConverterD1Ev@Base 3.2.1-1kern1
 _ZN8casacore17MS1ToMS2ConverterD2Ev@Base 3.2.1-1kern1
 _ZN8casacore17MSDataDescColumns18attachOptionalColsERKNS_17MSDataDescriptionE@Base 3.2.1-1kern1
 _ZN8casacore17MSDataDescColumns5matchEjji@Base 3.2.1-1kern1
 _ZN8casacore17MSDataDescColumns6attachERKNS_17MSDataDescriptionE@Base 3.2.1-1kern1
 _ZN8casacore17MSDataDescColumnsC1ERKNS_17MSDataDescriptionE@Base 3.2.1-1kern1
 _ZN8casacore17MSDataDescColumnsC1Ev@Base 3.2.1-1kern1
 _ZN8casacore17MSDataDescColumnsC2ERKNS_17MSDataDescriptionE@Base 3.2.1-1kern1
 _ZN8casacore17MSDataDescColumnsC2Ev@Base 3.2.1-1kern1
 _ZN8casacore17MSDataDescColumnsD1Ev@Base 3.2.1-1kern1
 _ZN8casacore17MSDataDescColumnsD2Ev@Base 3.2.1-1kern1
 _ZN8casacore17MSDataDescription8initMapsEv@Base 3.2.1-1kern1
 _ZN8casacore17MSDataDescriptionC1ERKNS_5TableE@Base 3.2.1-1kern1
 _ZN8casacore17MSDataDescriptionC1ERKNS_6StringENS_5Table11TableOptionE@Base 3.2.1-1kern1
 _ZN8casacore17MSDataDescriptionC1ERKNS_6StringES3_NS_5Table11TableOptionE@Base 3.2.1-1kern1
 _ZN8casacore17MSDataDescriptionC1ERKS0_@Base 3.2.1-1kern1
 _ZN8casacore17MSDataDescriptionC1ERNS_13SetupNewTableEjb@Base 3.2.1-1kern1
 _ZN8casacore17MSDataDescriptionC1Ev@Base 3.2.1-1kern1
 _ZN8casacore17MSDataDescriptionC2ERKNS_5TableE@Base 3.2.1-1kern1
 _ZN8casacore17MSDataDescriptionC2ERKNS_6StringENS_5Table11TableOptionE@Base 3.2.1-1kern1
 _ZN8casacore17MSDataDescriptionC2ERKNS_6StringES3_NS_5Table11TableOptionE@Base 3.2.1-1kern1
 _ZN8casacore17MSDataDescriptionC2ERKS0_@Base 3.2.1-1kern1
 _ZN8casacore17MSDataDescriptionC2ERNS_13SetupNewTableEjb@Base 3.2.1-1kern1
 _ZN8casacore17MSDataDescriptionC2Ev@Base 3.2.1-1kern1
 _ZN8casacore17MSDataDescriptionD0Ev@Base 3.2.1-1kern1
 _ZN8casacore17MSDataDescriptionD1Ev@Base 3.2.1-1kern1
 _ZN8casacore17MSDataDescriptionD2Ev@Base 3.2.1-1kern1
 _ZN8casacore17MSDataDescriptionaSERKS0_@Base 3.2.1-1kern1
 _ZN8casacore17MSPointingColumns11setEpochRefENS_6MEpoch5TypesEb@Base 3.2.1-1kern1
 _ZN8casacore17MSPointingColumns15setDirectionRefENS_10MDirection5TypesE@Base 3.2.1-1kern1
 _ZN8casacore17MSPointingColumns18attachOptionalColsERKNS_10MSPointingE@Base 3.2.1-1kern1
 _ZN8casacore17MSPointingColumns22setEncoderDirectionRefENS_10MDirection5TypesE@Base 3.2.1-1kern1
 _ZN8casacore17MSPointingColumns6attachERKNS_10MSPointingE@Base 3.2.1-1kern1
 _ZN8casacore17MSPointingColumnsC1ERKNS_10MSPointingE@Base 3.2.1-1kern1
 _ZN8casacore17MSPointingColumnsC1Ev@Base 3.2.1-1kern1
 _ZN8casacore17MSPointingColumnsC2ERKNS_10MSPointingE@Base 3.2.1-1kern1
 _ZN8casacore17MSPointingColumnsC2Ev@Base 3.2.1-1kern1
 _ZN8casacore17MSPointingColumnsD1Ev@Base 3.2.1-1kern1
 _ZN8casacore17MSPointingColumnsD2Ev@Base 3.2.1-1kern1
 _ZN8casacore17MSSelectableTable8setTableERKNS_5TableE@Base 3.2.1-1kern1
 _ZN8casacore17MSSpWindowColumns18attachOptionalColsERKNS_16MSSpectralWindowE@Base 3.2.1-1kern1
 _ZN8casacore17MSSpWindowColumns6attachERKNS_16MSSpectralWindowE@Base 3.2.1-1kern1
 _ZN8casacore17MSSpWindowColumnsC1ERKNS_16MSSpectralWindowE@Base 3.2.1-1kern1
 _ZN8casacore17MSSpWindowColumnsC1Ev@Base 3.2.1-1kern1
 _ZN8casacore17MSSpWindowColumnsC2ERKNS_16MSSpectralWindowE@Base 3.2.1-1kern1
 _ZN8casacore17MSSpWindowColumnsC2Ev@Base 3.2.1-1kern1
 _ZN8casacore17MSSpWindowColumnsD1Ev@Base 3.2.1-1kern1
 _ZN8casacore17MSSpWindowColumnsD2Ev@Base 3.2.1-1kern1
 _ZN8casacore17MSUvDistGramerrorEPKc@Base 3.2.1-1kern1
 _ZN8casacore17ScalarQuantColumnIdE3putEjRKNS_7QuantumIdEE@Base 3.2.1-1kern1
 _ZN8casacore17ScalarQuantColumnIdE4initERKNS_5TableERKNS_6StringE@Base 3.2.1-1kern1
 _ZN8casacore17ScalarQuantColumnIdE6attachERKNS_5TableERKNS_6StringE@Base 3.2.1-1kern1
 _ZN8casacore17ScalarQuantColumnIdE6attachERKNS_5TableERKNS_6StringERKNS_4UnitE@Base 3.2.1-1kern1
 _ZN8casacore17ScalarQuantColumnIdE7cleanUpEv@Base 3.2.1-1kern1
 _ZN8casacore17ScalarQuantColumnIdE9referenceERKS1_@Base 3.2.1-1kern1
 _ZN8casacore17ScalarQuantColumnIdEC1ERKNS_5TableERKNS_6StringE@Base 3.2.1-1kern1
 _ZN8casacore17ScalarQuantColumnIdEC1ERKNS_5TableERKNS_6StringERKNS_4UnitE@Base 3.2.1-1kern1
 _ZN8casacore17ScalarQuantColumnIdEC1ERKS1_@Base 3.2.1-1kern1
 _ZN8casacore17ScalarQuantColumnIdEC1Ev@Base 3.2.1-1kern1
 _ZN8casacore17ScalarQuantColumnIdEC2ERKNS_5TableERKNS_6StringE@Base 3.2.1-1kern1
 _ZN8casacore17ScalarQuantColumnIdEC2ERKNS_5TableERKNS_6StringERKNS_4UnitE@Base 3.2.1-1kern1
 _ZN8casacore17ScalarQuantColumnIdEC2ERKS1_@Base 3.2.1-1kern1
 _ZN8casacore17ScalarQuantColumnIdEC2Ev@Base 3.2.1-1kern1
 _ZN8casacore17ScalarQuantColumnIdED1Ev@Base 3.2.1-1kern1
 _ZN8casacore17ScalarQuantColumnIdED2Ev@Base 3.2.1-1kern1
 _ZN8casacore17ScalarQuantColumnIfE4initERKNS_5TableERKNS_6StringE@Base 3.2.1-1kern1
 _ZN8casacore17ScalarQuantColumnIfE6attachERKNS_5TableERKNS_6StringE@Base 3.2.1-1kern1
 _ZN8casacore17ScalarQuantColumnIfEC1Ev@Base 3.2.1-1kern1
 _ZN8casacore17ScalarQuantColumnIfEC2Ev@Base 3.2.1-1kern1
 _ZN8casacore17ScalarQuantColumnIfED1Ev@Base 3.2.1-1kern1
 _ZN8casacore17ScalarQuantColumnIfED2Ev@Base 3.2.1-1kern1
 _ZN8casacore17StatisticsDatasetIdNS_5ArrayIdE16ConstIteratorSTLEPKbS3_E12initLoopVarsEv@Base 3.2.1-1kern1
 _ZN8casacore17StatisticsDatasetIdNS_5ArrayIdE16ConstIteratorSTLEPKbS3_E13initIteratorsEv@Base 3.2.1-1kern1
 _ZN8casacore17StatisticsDatasetIdNS_5ArrayIdE16ConstIteratorSTLEPKbS3_E15setDataProviderEPNS_17StatsDataProviderIdS3_S5_S3_EE@Base 3.2.1-1kern1
 _ZN8casacore17StatisticsDatasetIdNS_5ArrayIdE16ConstIteratorSTLEPKbS3_E5resetEv@Base 3.2.1-1kern1
 _ZN8casacore17StatisticsDatasetIdNS_5ArrayIdE16ConstIteratorSTLEPKbS3_E7addDataERKS3_jjb@Base 3.2.1-1kern1
 _ZN8casacore17StatisticsDatasetIdNS_5ArrayIdE16ConstIteratorSTLEPKbS3_E9incrementEb@Base 3.2.1-1kern1
 _ZN8casacore17StatisticsDatasetIdNS_5ArrayIdE16ConstIteratorSTLEPKbS3_EC1ERKS6_@Base 3.2.1-1kern1
 _ZN8casacore17StatisticsDatasetIdNS_5ArrayIdE16ConstIteratorSTLEPKbS3_EC2ERKS6_@Base 3.2.1-1kern1
 _ZN8casacore17StatisticsDatasetIdNS_5ArrayIdE16ConstIteratorSTLEPKbS3_ED1Ev@Base 3.2.1-1kern1
 _ZN8casacore17StatisticsDatasetIdNS_5ArrayIdE16ConstIteratorSTLEPKbS3_ED2Ev@Base 3.2.1-1kern1
 _ZN8casacore17StatsDataProviderIdNS_5ArrayIdE16ConstIteratorSTLEPKbS3_E12updateMaxPosERKSt4pairIxxE@Base 3.2.1-1kern1
 _ZN8casacore17StatsDataProviderIdNS_5ArrayIdE16ConstIteratorSTLEPKbS3_E12updateMinPosERKSt4pairIxxE@Base 3.2.1-1kern1
 _ZN8casacore17msSpwGramPositionEv@Base 3.2.1-1kern1
 _ZN8casacore17msUvDistGramInputEPci@Base 3.2.1-1kern1
 _ZN8casacore17new_del_allocatorINS_10MDirectionEED1Ev@Base 3.2.1-1kern1
 _ZN8casacore17new_del_allocatorINS_10MDirectionEED2Ev@Base 3.2.1-1kern1
 _ZN8casacore17new_del_allocatorINS_10MFrequencyEED1Ev@Base 3.2.1-1kern1
 _ZN8casacore17new_del_allocatorINS_10MFrequencyEED2Ev@Base 3.2.1-1kern1
 _ZN8casacore17new_del_allocatorINS_11RigidVectorIdLi2EEEED1Ev@Base 3.2.1-1kern1
 _ZN8casacore17new_del_allocatorINS_11RigidVectorIdLi2EEEED2Ev@Base 3.2.1-1kern1
 _ZN8casacore17new_del_allocatorINS_12SquareMatrixISt7complexIfELi2EEEED1Ev@Base 3.2.1-1kern1
 _ZN8casacore17new_del_allocatorINS_12SquareMatrixISt7complexIfELi2EEEED2Ev@Base 3.2.1-1kern1
 _ZN8casacore17new_del_allocatorINS_4UnitEED1Ev@Base 3.2.1-1kern1
 _ZN8casacore17new_del_allocatorINS_4UnitEED2Ev@Base 3.2.1-1kern1
 _ZN8casacore17new_del_allocatorINS_5SliceEED1Ev@Base 3.2.1-1kern1
 _ZN8casacore17new_del_allocatorINS_5SliceEED2Ev@Base 3.2.1-1kern1
 _ZN8casacore17new_del_allocatorINS_6MVTimeEED1Ev@Base 3.2.1-1kern1
 _ZN8casacore17new_del_allocatorINS_6MVTimeEED2Ev@Base 3.2.1-1kern1
 _ZN8casacore17new_del_allocatorINS_6Stokes11StokesTypesEED1Ev@Base 3.2.1-1kern1
 _ZN8casacore17new_del_allocatorINS_6Stokes11StokesTypesEED2Ev@Base 3.2.1-1kern1
 _ZN8casacore17new_del_allocatorINS_6VectorINS_5SliceEEEED1Ev@Base 3.2.1-1kern1
 _ZN8casacore17new_del_allocatorINS_6VectorINS_5SliceEEEED2Ev@Base 3.2.1-1kern1
 _ZN8casacore17new_del_allocatorINS_6VectorIiEEED1Ev@Base 3.2.1-1kern1
 _ZN8casacore17new_del_allocatorINS_6VectorIiEEED2Ev@Base 3.2.1-1kern1
 _ZN8casacore17new_del_allocatorINS_7QuantumIdEEED1Ev@Base 3.2.1-1kern1
 _ZN8casacore17new_del_allocatorINS_7QuantumIdEEED2Ev@Base 3.2.1-1kern1
 _ZN8casacore17new_del_allocatorINS_9MPositionEED1Ev@Base 3.2.1-1kern1
 _ZN8casacore17new_del_allocatorINS_9MPositionEED2Ev@Base 3.2.1-1kern1
 _ZN8casacore17new_del_allocatorIPNS_6SlicerEED1Ev@Base 3.2.1-1kern1
 _ZN8casacore17new_del_allocatorIPNS_6SlicerEED2Ev@Base 3.2.1-1kern1
 _ZN8casacore17new_del_allocatorIPNS_9MeasCometEED1Ev@Base 3.2.1-1kern1
 _ZN8casacore17new_del_allocatorIPNS_9MeasCometEED2Ev@Base 3.2.1-1kern1
 _ZN8casacore18MSAntennaGramerrorEPKc@Base 3.2.1-1kern1
 _ZN8casacore18MSMainColInterface13exposureQuantEv@Base 3.2.1-1kern1
 _ZN8casacore18MSMainColInterface4asMSEv@Base 3.2.1-1kern1
 _ZN8casacore18MSMainColInterface4flagEv@Base 3.2.1-1kern1
 _ZN8casacore18MSMainColInterface4initERKNS_5TableE@Base 3.2.1-1kern1
 _ZN8casacore18MSMainColInterface7flagRowERKi@Base 3.2.1-1kern1
 _ZN8casacore18MSMainColInterface9timeQuantEv@Base 3.2.1-1kern1
 _ZN8casacore18MSMainColInterfaceD0Ev@Base 3.2.1-1kern1
 _ZN8casacore18MSMainColInterfaceD1Ev@Base 3.2.1-1kern1
 _ZN8casacore18MSMainColInterfaceD2Ev@Base 3.2.1-1kern1
 _ZN8casacore18MSObservationIndex16matchProjectCodeERKNS_6StringE@Base 3.2.1-1kern1
 _ZN8casacore18MSObservationIndexC1ERKNS_13MSObservationE@Base 3.2.1-1kern1
 _ZN8casacore18MSObservationIndexC2ERKNS_13MSObservationE@Base 3.2.1-1kern1
 _ZN8casacore18MSObservationIndexD0Ev@Base 3.2.1-1kern1
 _ZN8casacore18MSObservationIndexD1Ev@Base 3.2.1-1kern1
 _ZN8casacore18MSObservationIndexD2Ev@Base 3.2.1-1kern1
 _ZN8casacore18MSObservationParse11selectedIDsEv@Base 3.2.1-1kern1
 _ZN8casacore18MSObservationParse13accumulateIDsEii@Base 3.2.1-1kern1
 _ZN8casacore18MSObservationParse13columnAsTEN_pE@Base 3.2.1-1kern1
 _ZN8casacore18MSObservationParse14appendToIDListERKNS_6VectorIiEE@Base 3.2.1-1kern1
 _ZN8casacore18MSObservationParse15thisMSObsParserE@Base 3.2.1-1kern1
 _ZN8casacore18MSObservationParse18selectRangeGEAndLEERKiS2_@Base 3.2.1-1kern1
 _ZN8casacore18MSObservationParse18selectRangeGTAndLTERKiS2_@Base 3.2.1-1kern1
 _ZN8casacore18MSObservationParse20selectObservationIdsERKNS_6VectorIiEE@Base 3.2.1-1kern1
 _ZN8casacore18MSObservationParse22selectObservationIdsGTERKNS_6VectorIiEE@Base 3.2.1-1kern1
 _ZN8casacore18MSObservationParse22selectObservationIdsLTERKNS_6VectorIiEE@Base 3.2.1-1kern1
 _ZN8casacore18MSObservationParse24selectObservationIdsGTEQERKNS_6VectorIiEE@Base 3.2.1-1kern1
 _ZN8casacore18MSObservationParse24selectObservationIdsLTEQERKNS_6VectorIiEE@Base 3.2.1-1kern1
 _ZN8casacore18MSObservationParse4nodeEv@Base 3.2.1-1kern1
 _ZN8casacore18MSObservationParseC1EPKNS_14MeasurementSetERKNS_13MSObservationERKNS_13TableExprNodeE@Base 3.2.1-1kern1
 _ZN8casacore18MSObservationParseC1Ev@Base 3.2.1-1kern1
 _ZN8casacore18MSObservationParseC2EPKNS_14MeasurementSetERKNS_13MSObservationERKNS_13TableExprNodeE@Base 3.2.1-1kern1
 _ZN8casacore18MSObservationParseC2Ev@Base 3.2.1-1kern1
 _ZN8casacore18MSProcessorColumns18attachOptionalColsERKNS_11MSProcessorE@Base 3.2.1-1kern1
 _ZN8casacore18MSProcessorColumns6attachERKNS_11MSProcessorE@Base 3.2.1-1kern1
 _ZN8casacore18MSProcessorColumnsC1ERKNS_11MSProcessorE@Base 3.2.1-1kern1
 _ZN8casacore18MSProcessorColumnsC1Ev@Base 3.2.1-1kern1
 _ZN8casacore18MSProcessorColumnsC2ERKNS_11MSProcessorE@Base 3.2.1-1kern1
 _ZN8casacore18MSProcessorColumnsC2Ev@Base 3.2.1-1kern1
 _ZN8casacore18MSProcessorColumnsD1Ev@Base 3.2.1-1kern1
 _ZN8casacore18MSProcessorColumnsD2Ev@Base 3.2.1-1kern1
 _ZN8casacore18MSSSpwErrorHandler11handleErrorERNS_16MSSelectionErrorE@Base 3.2.1-1kern1
 _ZN8casacore18MSSSpwErrorHandler16constructMessageEv@Base 3.2.1-1kern1
 _ZN8casacore18MSSSpwErrorHandlerD0Ev@Base 3.2.1-1kern1
 _ZN8casacore18MSSSpwErrorHandlerD1Ev@Base 3.2.1-1kern1
 _ZN8casacore18MSSSpwErrorHandlerD2Ev@Base 3.2.1-1kern1
 _ZN8casacore18MSSelectionNullTENC1ERKNS_6StringENS_9AipsError8CategoryE@Base 3.2.1-1kern1
 _ZN8casacore18MSSelectionNullTENC2ERKNS_6StringENS_9AipsError8CategoryE@Base 3.2.1-1kern1
 _ZN8casacore18MSSelectionNullTEND0Ev@Base 3.2.1-1kern1
 _ZN8casacore18MSSelectionNullTEND1Ev@Base 3.2.1-1kern1
 _ZN8casacore18MSSelectionNullTEND2Ev@Base 3.2.1-1kern1
 _ZN8casacore18arrayContTransformINS_6StringES1_bSt8equal_toIS1_EEEvRKNS_5ArrayIT_EET0_RNS4_IT1_EET2_@Base 3.2.1-1kern1
 _ZN8casacore18arrayContTransformIbbSt11logical_notIbEEEvRKNS_5ArrayIT_EERNS3_IT0_EET1_@Base 3.2.1-1kern1
 _ZN8casacore18arrayContTransformIbbbSt11logical_andIbEEEvRKNS_5ArrayIT_EERKNS3_IT0_EERNS3_IT1_EET2_@Base 3.2.1-1kern1
 _ZN8casacore18arrayContTransformIdddSt10multipliesIdEEEvRKNS_5ArrayIT_EET0_RNS3_IT1_EET2_@Base 3.2.1-1kern1
 _ZN8casacore18arrayContTransformIdddSt7dividesIdEEEvRKNS_5ArrayIT_EET0_RNS3_IT1_EET2_@Base 3.2.1-1kern1
 _ZN8casacore18arrayContTransformIffNS_3AbsIffEEEEvRKNS_5ArrayIT_EERNS3_IT0_EET1_@Base 3.2.1-1kern1
 _ZN8casacore18arrayContTransformIffbSt7greaterIfEEEvRKNS_5ArrayIT_EET0_RNS3_IT1_EET2_@Base 3.2.1-1kern1
 _ZN8casacore18arrayContTransformIfffSt10multipliesIfEEEvRKNS_5ArrayIT_EET0_RNS3_IT1_EET2_@Base 3.2.1-1kern1
 _ZN8casacore18arrayContTransformIiiSt6negateIiEEEvRKNS_5ArrayIT_EERNS3_IT0_EET1_@Base 3.2.1-1kern1
 _ZN8casacore18arrayContTransformIiibSt8equal_toIiEEEvRKNS_5ArrayIT_EET0_RNS3_IT1_EET2_@Base 3.2.1-1kern1
 _ZN8casacore18casacore_allocatorINS_10CountedPtrINS_11BaseCompareEEELm32EED1Ev@Base 3.2.1-1kern1
 _ZN8casacore18casacore_allocatorINS_10CountedPtrINS_11BaseCompareEEELm32EED2Ev@Base 3.2.1-1kern1
 _ZN8casacore18casacore_allocatorINS_10MDirectionELm32EED1Ev@Base 3.2.1-1kern1
 _ZN8casacore18casacore_allocatorINS_10MDirectionELm32EED2Ev@Base 3.2.1-1kern1
 _ZN8casacore18casacore_allocatorINS_10MFrequencyELm32EED1Ev@Base 3.2.1-1kern1
 _ZN8casacore18casacore_allocatorINS_10MFrequencyELm32EED2Ev@Base 3.2.1-1kern1
 _ZN8casacore18casacore_allocatorINS_10ROTableRowELm32EED1Ev@Base 3.2.1-1kern1
 _ZN8casacore18casacore_allocatorINS_10ROTableRowELm32EED2Ev@Base 3.2.1-1kern1
 _ZN8casacore18casacore_allocatorINS_11RigidVectorIdLi2EEELm32EED1Ev@Base 3.2.1-1kern1
 _ZN8casacore18casacore_allocatorINS_11RigidVectorIdLi2EEELm32EED2Ev@Base 3.2.1-1kern1
 _ZN8casacore18casacore_allocatorINS_12MSTableIndexELm32EED1Ev@Base 3.2.1-1kern1
 _ZN8casacore18casacore_allocatorINS_12MSTableIndexELm32EED2Ev@Base 3.2.1-1kern1
 _ZN8casacore18casacore_allocatorINS_12SquareMatrixISt7complexIfELi2EEELm32EED1Ev@Base 3.2.1-1kern1
 _ZN8casacore18casacore_allocatorINS_12SquareMatrixISt7complexIfELi2EEELm32EED2Ev@Base 3.2.1-1kern1
 _ZN8casacore18casacore_allocatorINS_14MeasurementSetELm32EED1Ev@Base 3.2.1-1kern1
 _ZN8casacore18casacore_allocatorINS_14MeasurementSetELm32EED2Ev@Base 3.2.1-1kern1
 _ZN8casacore18casacore_allocatorINS_14RecordFieldPtrIiEELm32EED1Ev@Base 3.2.1-1kern1
 _ZN8casacore18casacore_allocatorINS_14RecordFieldPtrIiEELm32EED2Ev@Base 3.2.1-1kern1
 _ZN8casacore18casacore_allocatorINS_4UnitELm32EED1Ev@Base 3.2.1-1kern1
 _ZN8casacore18casacore_allocatorINS_4UnitELm32EED2Ev@Base 3.2.1-1kern1
 _ZN8casacore18casacore_allocatorINS_5SliceELm32EED1Ev@Base 3.2.1-1kern1
 _ZN8casacore18casacore_allocatorINS_5SliceELm32EED2Ev@Base 3.2.1-1kern1
 _ZN8casacore18casacore_allocatorINS_6MVTimeELm32EED1Ev@Base 3.2.1-1kern1
 _ZN8casacore18casacore_allocatorINS_6MVTimeELm32EED2Ev@Base 3.2.1-1kern1
 _ZN8casacore18casacore_allocatorINS_6Stokes11StokesTypesELm32EED1Ev@Base 3.2.1-1kern1
 _ZN8casacore18casacore_allocatorINS_6Stokes11StokesTypesELm32EED2Ev@Base 3.2.1-1kern1
 _ZN8casacore18casacore_allocatorINS_6StringELm32EED1Ev@Base 3.2.1-1kern1
 _ZN8casacore18casacore_allocatorINS_6StringELm32EED2Ev@Base 3.2.1-1kern1
 _ZN8casacore18casacore_allocatorINS_6VectorINS_5SliceEEELm32EED1Ev@Base 3.2.1-1kern1
 _ZN8casacore18casacore_allocatorINS_6VectorINS_5SliceEEELm32EED2Ev@Base 3.2.1-1kern1
 _ZN8casacore18casacore_allocatorINS_6VectorIiEELm32EED1Ev@Base 3.2.1-1kern1
 _ZN8casacore18casacore_allocatorINS_6VectorIiEELm32EED2Ev@Base 3.2.1-1kern1
 _ZN8casacore18casacore_allocatorINS_7QuantumIdEELm32EED1Ev@Base 3.2.1-1kern1
 _ZN8casacore18casacore_allocatorINS_7QuantumIdEELm32EED2Ev@Base 3.2.1-1kern1
 _ZN8casacore18casacore_allocatorINS_9MPositionELm32EED1Ev@Base 3.2.1-1kern1
 _ZN8casacore18casacore_allocatorINS_9MPositionELm32EED2Ev@Base 3.2.1-1kern1
 _ZN8casacore18casacore_allocatorIPNS_6SlicerELm32EED1Ev@Base 3.2.1-1kern1
 _ZN8casacore18casacore_allocatorIPNS_6SlicerELm32EED2Ev@Base 3.2.1-1kern1
 _ZN8casacore18casacore_allocatorIPNS_9MeasCometELm32EED1Ev@Base 3.2.1-1kern1
 _ZN8casacore18casacore_allocatorIPNS_9MeasCometELm32EED2Ev@Base 3.2.1-1kern1
 _ZN8casacore18casacore_allocatorIPvLm32EED1Ev@Base 3.2.1-1kern1
 _ZN8casacore18casacore_allocatorIPvLm32EED2Ev@Base 3.2.1-1kern1
 _ZN8casacore18casacore_allocatorISt7complexIfELm32EED1Ev@Base 3.2.1-1kern1
 _ZN8casacore18casacore_allocatorISt7complexIfELm32EED2Ev@Base 3.2.1-1kern1
 _ZN8casacore18casacore_allocatorIbLm32EED1Ev@Base 3.2.1-1kern1
 _ZN8casacore18casacore_allocatorIbLm32EED2Ev@Base 3.2.1-1kern1
 _ZN8casacore18casacore_allocatorIdLm32EED1Ev@Base 3.2.1-1kern1
 _ZN8casacore18casacore_allocatorIdLm32EED2Ev@Base 3.2.1-1kern1
 _ZN8casacore18casacore_allocatorIfLm32EED1Ev@Base 3.2.1-1kern1
 _ZN8casacore18casacore_allocatorIfLm32EED2Ev@Base 3.2.1-1kern1
 _ZN8casacore18casacore_allocatorIiLm32EED1Ev@Base 3.2.1-1kern1
 _ZN8casacore18casacore_allocatorIiLm32EED2Ev@Base 3.2.1-1kern1
 _ZN8casacore18casacore_allocatorIjLm32EED1Ev@Base 3.2.1-1kern1
 _ZN8casacore18casacore_allocatorIjLm32EED2Ev@Base 3.2.1-1kern1
 _ZN8casacore18msAntennaGramInputEPci@Base 3.2.1-1kern1
 _ZN8casacore18msCorrGramPositionEv@Base 3.2.1-1kern1
 _ZN8casacore18msFeedGramPositionEv@Base 3.2.1-1kern1
 _ZN8casacore18msPolnGramPositionEv@Base 3.2.1-1kern1
 _ZN8casacore18msScanGramPositionEv@Base 3.2.1-1kern1
 _ZN8casacore18msSpwGramParseNodeEv@Base 3.2.1-1kern1
 _ZN8casacore18msTimeGramPositionEv@Base 3.2.1-1kern1
 _ZN8casacore18mssSelectedIndicesERNS_11MSSelectionEPKNS_14MeasurementSetE@Base 3.2.1-1kern1
 _ZN8casacore19ClassicalStatisticsIdNS_5ArrayIdE16ConstIteratorSTLEPKbS3_E12_computeNptsERyS3_S5_S3_yRKNS_17StatisticsDatasetIdS3_S5_S3_E9ChunkDataE@Base 3.2.1-1kern1
 _ZN8casacore19ClassicalStatisticsIdNS_5ArrayIdE16ConstIteratorSTLEPKbS3_E12getQuantilesERKSt3setIdSt4lessIdESaIdEENS_10CountedPtrIyEENSE_IdEESG_jbj@Base 3.2.1-1kern1
 _ZN8casacore19ClassicalStatisticsIdNS_5ArrayIdE16ConstIteratorSTLEPKbS3_E13_computeStatsERNS_9StatsDataIdEERyRSt4pairIxxES3_S5_S3_yRKNS_17StatisticsDatasetIdS3_S5_S3_E9ChunkDataE@Base 3.2.1-1kern1
 _ZN8casacore19ClassicalStatisticsIdNS_5ArrayIdE16ConstIteratorSTLEPKbS3_E13_doMinMaxNptsERdS7_@Base 3.2.1-1kern1
 _ZN8casacore19ClassicalStatisticsIdNS_5ArrayIdE16ConstIteratorSTLEPKbS3_E13_doNptsMinMaxERyRdS8_NS_10CountedPtrIyEENS9_IdEESB_@Base 3.2.1-1kern1
 _ZN8casacore19ClassicalStatisticsIdNS_5ArrayIdE16ConstIteratorSTLEPKbS3_E13_getStatisticENS_14StatisticsData5STATSE@Base 3.2.1-1kern1
 _ZN8casacore19ClassicalStatisticsIdNS_5ArrayIdE16ConstIteratorSTLEPKbS3_E13_getStatsDataEv@Base 3.2.1-1kern1
 _ZN8casacore19ClassicalStatisticsIdNS_5ArrayIdE16ConstIteratorSTLEPKbS3_E13getMinMaxNptsERyRdS8_@Base 3.2.1-1kern1
 _ZN8casacore19ClassicalStatisticsIdNS_5ArrayIdE16ConstIteratorSTLEPKbS3_E14_computeMinMaxERNS_10CountedPtrIdEES9_S3_S5_S3_yRKNS_17StatisticsDatasetIdS3_S5_S3_E9ChunkDataE@Base 3.2.1-1kern1
 _ZN8casacore19ClassicalStatisticsIdNS_5ArrayIdE16ConstIteratorSTLEPKbS3_E14_getStatisticsEv@Base 3.2.1-1kern1
 _ZN8casacore19ClassicalStatisticsIdNS_5ArrayIdE16ConstIteratorSTLEPKbS3_E14_weightedStatsERNS_9StatsDataIdEERSt4pairIxxERKS3_SE_yj@Base 3.2.1-1kern1
 _ZN8casacore19ClassicalStatisticsIdNS_5ArrayIdE16ConstIteratorSTLEPKbS3_E14_weightedStatsERNS_9StatsDataIdEERSt4pairIxxERKS3_SE_yjRKS5_j@Base 3.2.1-1kern1
 _ZN8casacore19ClassicalStatisticsIdNS_5ArrayIdE16ConstIteratorSTLEPKbS3_E14_weightedStatsERNS_9StatsDataIdEERSt4pairIxxERKS3_SE_yjRKS5_jRKSt6vectorISA_IddESaISI_EEb@Base 3.2.1-1kern1
 _ZN8casacore19ClassicalStatisticsIdNS_5ArrayIdE16ConstIteratorSTLEPKbS3_E14_weightedStatsERNS_9StatsDataIdEERSt4pairIxxERKS3_SE_yjRKSt6vectorISA_IddESaISG_EEb@Base 3.2.1-1kern1
 _ZN8casacore19ClassicalStatisticsIdNS_5ArrayIdE16ConstIteratorSTLEPKbS3_E15setDataProviderEPNS_17StatsDataProviderIdS3_S5_S3_EE@Base 3.2.1-1kern1
 _ZN8casacore19ClassicalStatisticsIdNS_5ArrayIdE16ConstIteratorSTLEPKbS3_E16_unweightedStatsERNS_9StatsDataIdEERyRSt4pairIxxERKS3_yj@Base 3.2.1-1kern1
 _ZN8casacore19ClassicalStatisticsIdNS_5ArrayIdE16ConstIteratorSTLEPKbS3_E16_unweightedStatsERNS_9StatsDataIdEERyRSt4pairIxxERKS3_yjRKS5_j@Base 3.2.1-1kern1
 _ZN8casacore19ClassicalStatisticsIdNS_5ArrayIdE16ConstIteratorSTLEPKbS3_E16_unweightedStatsERNS_9StatsDataIdEERyRSt4pairIxxERKS3_yjRKS5_jRKSt6vectorISB_IddESaISJ_EEb@Base 3.2.1-1kern1
 _ZN8casacore19ClassicalStatisticsIdNS_5ArrayIdE16ConstIteratorSTLEPKbS3_E16_unweightedStatsERNS_9StatsDataIdEERyRSt4pairIxxERKS3_yjRKSt6vectorISB_IddESaISH_EEb@Base 3.2.1-1kern1
 _ZN8casacore19ClassicalStatisticsIdNS_5ArrayIdE16ConstIteratorSTLEPKbS3_E17getStatisticIndexENS_14StatisticsData5STATSE@Base 3.2.1-1kern1
 _ZN8casacore19ClassicalStatisticsIdNS_5ArrayIdE16ConstIteratorSTLEPKbS3_E18_computeMinMaxNptsERyRNS_10CountedPtrIdEESA_S3_S5_S3_yRKNS_17StatisticsDatasetIdS3_S5_S3_E9ChunkDataE@Base 3.2.1-1kern1
 _ZN8casacore19ClassicalStatisticsIdNS_5ArrayIdE16ConstIteratorSTLEPKbS3_E18getMedianAbsDevMedENS_10CountedPtrIyEENS7_IdEES9_jbj@Base 3.2.1-1kern1
 _ZN8casacore19ClassicalStatisticsIdNS_5ArrayIdE16ConstIteratorSTLEPKbS3_E19setCalculateAsAddedEb@Base 3.2.1-1kern1
 _ZN8casacore19ClassicalStatisticsIdNS_5ArrayIdE16ConstIteratorSTLEPKbS3_E19setStatsToCalculateERSt3setINS_14StatisticsData5STATSESt4lessIS9_ESaIS9_EE@Base 3.2.1-1kern1
 _ZN8casacore19ClassicalStatisticsIdNS_5ArrayIdE16ConstIteratorSTLEPKbS3_E21getMedianAndQuantilesERSt3mapIddSt4lessIdESaISt4pairIKddEEERKSt3setIdS9_SaIdEENS_10CountedPtrIyEENSL_IdEESN_jbj@Base 3.2.1-1kern1
 _ZN8casacore19ClassicalStatisticsIdNS_5ArrayIdE16ConstIteratorSTLEPKbS3_E25_updateDataProviderMaxMinERKNS_9StatsDataIdEE@Base 3.2.1-1kern1
 _ZN8casacore19ClassicalStatisticsIdNS_5ArrayIdE16ConstIteratorSTLEPKbS3_E5resetEv@Base 3.2.1-1kern1
 _ZN8casacore19ClassicalStatisticsIdNS_5ArrayIdE16ConstIteratorSTLEPKbS3_E7_doNptsEv@Base 3.2.1-1kern1
 _ZN8casacore19ClassicalStatisticsIdNS_5ArrayIdE16ConstIteratorSTLEPKbS3_E7getNPtsEv@Base 3.2.1-1kern1
 _ZN8casacore19ClassicalStatisticsIdNS_5ArrayIdE16ConstIteratorSTLEPKbS3_E8_addDataEv@Base 3.2.1-1kern1
 _ZN8casacore19ClassicalStatisticsIdNS_5ArrayIdE16ConstIteratorSTLEPKbS3_E9_doMinMaxERdS7_@Base 3.2.1-1kern1
 _ZN8casacore19ClassicalStatisticsIdNS_5ArrayIdE16ConstIteratorSTLEPKbS3_E9getMedianENS_10CountedPtrIyEENS7_IdEES9_jbj@Base 3.2.1-1kern1
 _ZN8casacore19ClassicalStatisticsIdNS_5ArrayIdE16ConstIteratorSTLEPKbS3_E9getMinMaxERdS7_@Base 3.2.1-1kern1
 _ZN8casacore19ClassicalStatisticsIdNS_5ArrayIdE16ConstIteratorSTLEPKbS3_EC1Ev@Base 3.2.1-1kern1
 _ZN8casacore19ClassicalStatisticsIdNS_5ArrayIdE16ConstIteratorSTLEPKbS3_EC2Ev@Base 3.2.1-1kern1
 _ZN8casacore19ClassicalStatisticsIdNS_5ArrayIdE16ConstIteratorSTLEPKbS3_ED0Ev@Base 3.2.1-1kern1
 _ZN8casacore19ClassicalStatisticsIdNS_5ArrayIdE16ConstIteratorSTLEPKbS3_ED1Ev@Base 3.2.1-1kern1
 _ZN8casacore19ClassicalStatisticsIdNS_5ArrayIdE16ConstIteratorSTLEPKbS3_ED2Ev@Base 3.2.1-1kern1
 _ZN8casacore19MSFreqOffsetColumns11setEpochRefENS_6MEpoch5TypesEb@Base 3.2.1-1kern1
 _ZN8casacore19MSFreqOffsetColumns6attachERKNS_12MSFreqOffsetE@Base 3.2.1-1kern1
 _ZN8casacore19MSFreqOffsetColumnsC1ERKNS_12MSFreqOffsetE@Base 3.2.1-1kern1
 _ZN8casacore19MSFreqOffsetColumnsC1Ev@Base 3.2.1-1kern1
 _ZN8casacore19MSFreqOffsetColumnsC2ERKNS_12MSFreqOffsetE@Base 3.2.1-1kern1
 _ZN8casacore19MSFreqOffsetColumnsC2Ev@Base 3.2.1-1kern1
 _ZN8casacore19MSFreqOffsetColumnsD1Ev@Base 3.2.1-1kern1
 _ZN8casacore19MSFreqOffsetColumnsD2Ev@Base 3.2.1-1kern1
 _ZN8casacore19MSPolarizationIndex13matchCorrTypeERKNS_6VectorIiEEb@Base 3.2.1-1kern1
 _ZN8casacore19MSPolarizationIndex23matchCorrTypeAndProductERKNS_6VectorIiEERKNS_6MatrixIiEE@Base 3.2.1-1kern1
 _ZN8casacore19MSPolarizationIndexC1ERKNS_14MSPolarizationE@Base 3.2.1-1kern1
 _ZN8casacore19MSPolarizationIndexC2ERKNS_14MSPolarizationE@Base 3.2.1-1kern1
 _ZN8casacore19MSPolarizationIndexD0Ev@Base 3.2.1-1kern1
 _ZN8casacore19MSPolarizationIndexD1Ev@Base 3.2.1-1kern1
 _ZN8casacore19MSPolarizationIndexD2Ev@Base 3.2.1-1kern1
 _ZN8casacore19MSSelectionKeywords13getReverseMapEv@Base 3.2.1-1kern1
 _ZN8casacore19MSSelectionKeywords14initReverseMapEv@Base 3.2.1-1kern1
 _ZN8casacore19MSSelectionKeywords5fieldERKNS_6StringE@Base 3.2.1-1kern1
 _ZN8casacore19MSSelectionKeywords6getMapEv@Base 3.2.1-1kern1
 _ZN8casacore19MSSelectionKeywords7initMapEv@Base 3.2.1-1kern1
 _ZN8casacore19MSSelectionKeywords7keywordENS0_5FieldE@Base 3.2.1-1kern1
 _ZN8casacore19MSSelectionNullExprC1ERKNS_6StringENS_9AipsError8CategoryE@Base 3.2.1-1kern1
 _ZN8casacore19MSSelectionNullExprC2ERKNS_6StringENS_9AipsError8CategoryE@Base 3.2.1-1kern1
 _ZN8casacore19MSSelectionNullExprD0Ev@Base 3.2.1-1kern1
 _ZN8casacore19MSSelectionNullExprD1Ev@Base 3.2.1-1kern1
 _ZN8casacore19MSSelectionNullExprD2Ev@Base 3.2.1-1kern1
 _ZN8casacore19MSSelectionSpwErrorC1ERKNS_6StringENS_9AipsError8CategoryE@Base 3.2.1-1kern1
 _ZN8casacore19MSSelectionSpwErrorC2ERKNS_6StringENS_9AipsError8CategoryE@Base 3.2.1-1kern1
 _ZN8casacore19MSSelectionSpwErrorD0Ev@Base 3.2.1-1kern1
 _ZN8casacore19MSSelectionSpwErrorD1Ev@Base 3.2.1-1kern1
 _ZN8casacore19MSSelectionSpwErrorD2Ev@Base 3.2.1-1kern1
 _ZN8casacore19StatisticsAlgorithmIdNS_5ArrayIdE16ConstIteratorSTLEPKbS3_E15setDataProviderEPNS_17StatsDataProviderIdS3_S5_S3_EE@Base 3.2.1-1kern1
 _ZN8casacore19StatisticsAlgorithmIdNS_5ArrayIdE16ConstIteratorSTLEPKbS3_E19setStatsToCalculateERSt3setINS_14StatisticsData5STATSESt4lessIS9_ESaIS9_EE@Base 3.2.1-1kern1
 _ZN8casacore19StatisticsAlgorithmIdNS_5ArrayIdE16ConstIteratorSTLEPKbS3_E5resetEv@Base 3.2.1-1kern1
 _ZN8casacore19StatisticsAlgorithmIdNS_5ArrayIdE16ConstIteratorSTLEPKbS3_E8_addDataEv@Base 3.2.1-1kern1
 _ZN8casacore19StatisticsAlgorithmIdNS_5ArrayIdE16ConstIteratorSTLEPKbS3_ED0Ev@Base 3.2.1-1kern1
 _ZN8casacore19StatisticsAlgorithmIdNS_5ArrayIdE16ConstIteratorSTLEPKbS3_ED1Ev@Base 3.2.1-1kern1
 _ZN8casacore19StatisticsAlgorithmIdNS_5ArrayIdE16ConstIteratorSTLEPKbS3_ED2Ev@Base 3.2.1-1kern1
 _ZN8casacore19StatisticsUtilitiesIdE11nThreadsMaxINS_5ArrayIdE16ConstIteratorSTLEPKbS5_EEjPKNS_17StatsDataProviderIdT_T0_T1_EE@Base 3.2.1-1kern1
 _ZN8casacore19StatisticsUtilitiesIdE12mergeResultsERSt6vectorIS2_IySaIyEESaIS4_EERS2_INS_10CountedPtrIdEESaIS9_EERS2_IbSaIbEERKNS_9PtrHolderIS6_EERKNSG_ISB_EERKNSG_ISE_EEj@Base 3.2.1-1kern1
 _ZN8casacore19StatisticsUtilitiesIdE15indicesToValuesERSt6vectorIdSaIdEERKSt3setIySt4lessIyESaIyEE@Base 3.2.1-1kern1
 _ZN8casacore19initializeStatsDataIdEENS_9StatsDataIT_EEv@Base 3.2.1-1kern1
 _ZN8casacore19msArrayGramPositionEv@Base 3.2.1-1kern1
 _ZN8casacore19msCorrGramParseNodeEv@Base 3.2.1-1kern1
 _ZN8casacore19msFieldGramPositionEv@Base 3.2.1-1kern1
 _ZN8casacore19msPolnGramParseNodeEv@Base 3.2.1-1kern1
 _ZN8casacore19msStateGramPositionEv@Base 3.2.1-1kern1
 _ZN8casacore19msTimeGramParseNodeEv@Base 3.2.1-1kern1
 _ZN8casacore20MSObservationColumns11setEpochRefENS_6MEpoch5TypesEb@Base 3.2.1-1kern1
 _ZN8casacore20MSObservationColumns6attachERKNS_13MSObservationE@Base 3.2.1-1kern1
 _ZN8casacore20MSObservationColumnsC1ERKNS_13MSObservationE@Base 3.2.1-1kern1
 _ZN8casacore20MSObservationColumnsC1Ev@Base 3.2.1-1kern1
 _ZN8casacore20MSObservationColumnsC2ERKNS_13MSObservationE@Base 3.2.1-1kern1
 _ZN8casacore20MSObservationColumnsC2Ev@Base 3.2.1-1kern1
 _ZN8casacore20MSObservationColumnsD1Ev@Base 3.2.1-1kern1
 _ZN8casacore20MSObservationColumnsD2Ev@Base 3.2.1-1kern1
 _ZN8casacore20MSSelectionFeedErrorC1ERKNS_6StringENS_9AipsError8CategoryE@Base 3.2.1-1kern1
 _ZN8casacore20MSSelectionFeedErrorC2ERKNS_6StringENS_9AipsError8CategoryE@Base 3.2.1-1kern1
 _ZN8casacore20MSSelectionFeedErrorD0Ev@Base 3.2.1-1kern1
 _ZN8casacore20MSSelectionFeedErrorD1Ev@Base 3.2.1-1kern1
 _ZN8casacore20MSSelectionFeedErrorD2Ev@Base 3.2.1-1kern1
 _ZN8casacore20MSSelectionPolnErrorC1ERKNS_6StringENS_9AipsError8CategoryE@Base 3.2.1-1kern1
 _ZN8casacore20MSSelectionPolnErrorC2ERKNS_6StringENS_9AipsError8CategoryE@Base 3.2.1-1kern1
 _ZN8casacore20MSSelectionPolnErrorD0Ev@Base 3.2.1-1kern1
 _ZN8casacore20MSSelectionPolnErrorD1Ev@Base 3.2.1-1kern1
 _ZN8casacore20MSSelectionPolnErrorD2Ev@Base 3.2.1-1kern1
 _ZN8casacore20MSSelectionScanErrorC1ERKNS_6StringENS_9AipsError8CategoryE@Base 3.2.1-1kern1
 _ZN8casacore20MSSelectionScanErrorC2ERKNS_6StringENS_9AipsError8CategoryE@Base 3.2.1-1kern1
 _ZN8casacore20MSSelectionScanErrorD0Ev@Base 3.2.1-1kern1
 _ZN8casacore20MSSelectionScanErrorD1Ev@Base 3.2.1-1kern1
 _ZN8casacore20MSSelectionScanErrorD2Ev@Base 3.2.1-1kern1
 _ZN8casacore20MSSelectionTimeErrorC1ERKNS_6StringENS_9AipsError8CategoryE@Base 3.2.1-1kern1
 _ZN8casacore20MSSelectionTimeErrorC2ERKNS_6StringENS_9AipsError8CategoryE@Base 3.2.1-1kern1
 _ZN8casacore20MSSelectionTimeErrorD0Ev@Base 3.2.1-1kern1
 _ZN8casacore20MSSelectionTimeErrorD1Ev@Base 3.2.1-1kern1
 _ZN8casacore20MSSelectionTimeErrorD2Ev@Base 3.2.1-1kern1
 _ZN8casacore20msFieldGramParseNodeEv@Base 3.2.1-1kern1
 _ZN8casacore20msStateGramParseNodeEv@Base 3.2.1-1kern1
 _ZN8casacore20msUvDistGramPositionEv@Base 3.2.1-1kern1
 _ZN8casacore21ArrayPositionIteratorD0Ev@Base 3.2.1-1kern1
 _ZN8casacore21ArrayPositionIteratorD1Ev@Base 3.2.1-1kern1
 _ZN8casacore21ArrayPositionIteratorD2Ev@Base 3.2.1-1kern1
 _ZN8casacore21MSPolarizationColumns5matchERKNS_6VectorINS_6Stokes11StokesTypesEEEi@Base 3.2.1-1kern1
 _ZN8casacore21MSPolarizationColumns6attachERKNS_14MSPolarizationE@Base 3.2.1-1kern1
 _ZN8casacore21MSPolarizationColumnsC1ERKNS_14MSPolarizationE@Base 3.2.1-1kern1
 _ZN8casacore21MSPolarizationColumnsC1Ev@Base 3.2.1-1kern1
 _ZN8casacore21MSPolarizationColumnsC2ERKNS_14MSPolarizationE@Base 3.2.1-1kern1
 _ZN8casacore21MSPolarizationColumnsC2Ev@Base 3.2.1-1kern1
 _ZN8casacore21MSPolarizationColumnsD1Ev@Base 3.2.1-1kern1
 _ZN8casacore21MSPolarizationColumnsD2Ev@Base 3.2.1-1kern1
 _ZN8casacore21MSSelectionArrayErrorC1ERKNS_6StringENS_9AipsError8CategoryE@Base 3.2.1-1kern1
 _ZN8casacore21MSSelectionArrayErrorC2ERKNS_6StringENS_9AipsError8CategoryE@Base 3.2.1-1kern1
 _ZN8casacore21MSSelectionArrayErrorD0Ev@Base 3.2.1-1kern1
 _ZN8casacore21MSSelectionArrayErrorD1Ev@Base 3.2.1-1kern1
 _ZN8casacore21MSSelectionArrayErrorD2Ev@Base 3.2.1-1kern1
 _ZN8casacore21MSSelectionFieldErrorC1ERKNS_6StringENS_9AipsError8CategoryE@Base 3.2.1-1kern1
 _ZN8casacore21MSSelectionFieldErrorC2ERKNS_6StringENS_9AipsError8CategoryE@Base 3.2.1-1kern1
 _ZN8casacore21MSSelectionFieldErrorD0Ev@Base 3.2.1-1kern1
 _ZN8casacore21MSSelectionFieldErrorD1Ev@Base 3.2.1-1kern1
 _ZN8casacore21MSSelectionFieldErrorD2Ev@Base 3.2.1-1kern1
 _ZN8casacore21MSSelectionSpwWarningC1ERKNS_6StringENS_9AipsError8CategoryE@Base 3.2.1-1kern1
 _ZN8casacore21MSSelectionSpwWarningC2ERKNS_6StringENS_9AipsError8CategoryE@Base 3.2.1-1kern1
 _ZN8casacore21MSSelectionSpwWarningD0Ev@Base 3.2.1-1kern1
 _ZN8casacore21MSSelectionSpwWarningD1Ev@Base 3.2.1-1kern1
 _ZN8casacore21MSSelectionSpwWarningD2Ev@Base 3.2.1-1kern1
 _ZN8casacore21MSSelectionStateErrorC1ERKNS_6StringENS_9AipsError8CategoryE@Base 3.2.1-1kern1
 _ZN8casacore21MSSelectionStateErrorC2ERKNS_6StringENS_9AipsError8CategoryE@Base 3.2.1-1kern1
 _ZN8casacore21MSSelectionStateErrorD0Ev@Base 3.2.1-1kern1
 _ZN8casacore21MSSelectionStateErrorD1Ev@Base 3.2.1-1kern1
 _ZN8casacore21MSSelectionStateErrorD2Ev@Base 3.2.1-1kern1
 _ZN8casacore21arrayTransformInPlaceISt7complexIfES2_St10multipliesIS2_EEEvRNS_5ArrayIT_EERKNS5_IT0_EET1_@Base 3.2.1-1kern1
 _ZN8casacore21arrayTransformInPlaceISt7complexIfES2_St5minusIS2_EEEvRNS_5ArrayIT_EERKNS5_IT0_EET1_@Base 3.2.1-1kern1
 _ZN8casacore21arrayTransformInPlaceIddSt10multipliesIdEEEvRNS_5ArrayIT_EERKNS3_IT0_EET1_@Base 3.2.1-1kern1
 _ZN8casacore21arrayTransformInPlaceIddSt10multipliesIdEEEvRNS_5ArrayIT_EET0_T1_@Base 3.2.1-1kern1
 _ZN8casacore21arrayTransformInPlaceIddSt4plusIdEEEvRNS_5ArrayIT_EERKNS3_IT0_EET1_@Base 3.2.1-1kern1
 _ZN8casacore21arrayTransformInPlaceIffSt4plusIfEEEvRNS_5ArrayIT_EERKNS3_IT0_EET1_@Base 3.2.1-1kern1
 _ZN8casacore21arrayTransformInPlaceIffSt7dividesIfEEEvRNS_5ArrayIT_EERKNS3_IT0_EET1_@Base 3.2.1-1kern1
 _ZN8casacore21arrayTransformInPlaceIiiSt10multipliesIiEEEvRNS_5ArrayIT_EET0_T1_@Base 3.2.1-1kern1
 _ZN8casacore21arrayTransformInPlaceIiiSt4plusIiEEEvRNS_5ArrayIT_EERKNS3_IT0_EET1_@Base 3.2.1-1kern1
 _ZN8casacore21arrayTransformInPlaceIiiSt4plusIiEEEvRNS_5ArrayIT_EET0_T1_@Base 3.2.1-1kern1
 _ZN8casacore21msAntennaGramPositionEv@Base 3.2.1-1kern1
 _ZN8casacore21msSpwGramParseCommandEPKNS_14MeasurementSetERKNS_6StringE@Base 3.2.1-1kern1
 _ZN8casacore21msSpwGramParseCommandEPKNS_14MeasurementSetERKNS_6StringERNS_6VectorIiEERNS_6MatrixIiEE@Base 3.2.1-1kern1
 _ZN8casacore21msSpwGramParseCommandERKNS_16MSSpectralWindowERKNS_17MSDataDescriptionERKNS_13TableExprNodeERKNS_6StringERNS_6VectorIiEERNS_6MatrixIiEESE_@Base 3.2.1-1kern1
 _ZN8casacore21msUvDistGramParseNodeEv@Base 3.2.1-1kern1
 _ZN8casacore22MSObservationGramerrorEPKc@Base 3.2.1-1kern1
 _ZN8casacore22MSSelectionUvDistErrorC1ERKNS_6StringENS_9AipsError8CategoryE@Base 3.2.1-1kern1
 _ZN8casacore22MSSelectionUvDistErrorC2ERKNS_6StringENS_9AipsError8CategoryE@Base 3.2.1-1kern1
 _ZN8casacore22MSSelectionUvDistErrorD0Ev@Base 3.2.1-1kern1
 _ZN8casacore22MSSelectionUvDistErrorD1Ev@Base 3.2.1-1kern1
 _ZN8casacore22MSSelectionUvDistErrorD2Ev@Base 3.2.1-1kern1
 _ZN8casacore22msCorrGramParseCommandEPKNS_14MeasurementSetERKNS_6StringE@Base 3.2.1-1kern1
 _ZN8casacore22msCorrGramRemoveQuotesERKNS_6StringE@Base 3.2.1-1kern1
 _ZN8casacore22msFeedGramParseCommandEPKNS_14MeasurementSetERKNS_6StringERNS_6VectorIiEES8_RNS_6MatrixIiEE@Base 3.2.1-1kern1
 _ZN8casacore22msFeedGramParseCommandEPNS_11MSFeedParseERKNS_6StringERNS_6VectorIiEES7_RNS_6MatrixIiEE@Base 3.2.1-1kern1
 _ZN8casacore22msFeedGramParseCommandERNS_5TableERNS_13TableExprNodeES3_RKNS_6StringERNS_6VectorIiEES9_RNS_6MatrixIiEE@Base 3.2.1-1kern1
 _ZN8casacore22msObservationGramInputEPci@Base 3.2.1-1kern1
 _ZN8casacore22msPolnGramParseCommandEPKNS_14MeasurementSetERKNS_6StringERNS_13TableExprNodeERNS_6VectorIiEERSt3mapIiS9_St4lessIiESaISt4pairIKiS9_EEERSB_IiNS8_IS9_EESD_SaISE_ISF_SK_EEE@Base 3.2.1-1kern1
 _ZN8casacore22msScanGramParseCommandEPKNS_14MeasurementSetERKNS_13TableExprNodeERKNS_6StringERNS_6VectorIiEEi@Base 3.2.1-1kern1
 _ZN8casacore22msScanGramParseCommandEPKNS_14MeasurementSetERKNS_6StringERNS_6VectorIiEEi@Base 3.2.1-1kern1
 _ZN8casacore22msTimeGramParseCommandEPKNS_14MeasurementSetERKNS_6StringERKNS_13TableExprNodeE@Base 3.2.1-1kern1
 _ZN8casacore22msTimeGramParseCommandEPKNS_14MeasurementSetERKNS_6StringERKNS_13TableExprNodeERNS_22MSSelectableMainColumnES8_RNS_6MatrixIdEE@Base 3.2.1-1kern1
 _ZN8casacore22msTimeGramParseCommandEPKNS_14MeasurementSetERKNS_6StringERKNS_13TableExprNodeERNS_6MatrixIdEE@Base 3.2.1-1kern1
 _ZN8casacore23MSSelectionAntennaErrorC1ERKNS_6StringENS_9AipsError8CategoryE@Base 3.2.1-1kern1
 _ZN8casacore23MSSelectionAntennaErrorC2ERKNS_6StringENS_9AipsError8CategoryE@Base 3.2.1-1kern1
 _ZN8casacore23MSSelectionAntennaErrorD0Ev@Base 3.2.1-1kern1
 _ZN8casacore23MSSelectionAntennaErrorD1Ev@Base 3.2.1-1kern1
 _ZN8casacore23MSSelectionAntennaErrorD2Ev@Base 3.2.1-1kern1
 _ZN8casacore23MSSelectionErrorHandler11handleErrorERNS_16MSSelectionErrorE@Base 3.2.1-1kern1
 _ZN8casacore23MSSelectionErrorHandler11reportErrorEPKcNS_6StringE@Base 3.2.1-1kern1
 _ZN8casacore23MSSelectionErrorHandler16constructMessageEv@Base 3.2.1-1kern1
 _ZN8casacore23MSSelectionErrorHandler5cloneEv@Base 3.2.1-1kern1
 _ZN8casacore23MSSelectionErrorHandler5resetEv@Base 3.2.1-1kern1
 _ZN8casacore23MSSelectionErrorHandlerC1ERKS0_@Base 3.2.1-1kern1
 _ZN8casacore23MSSelectionErrorHandlerC1Ev@Base 3.2.1-1kern1
 _ZN8casacore23MSSelectionErrorHandlerC2ERKS0_@Base 3.2.1-1kern1
 _ZN8casacore23MSSelectionErrorHandlerC2Ev@Base 3.2.1-1kern1
 _ZN8casacore23MSSelectionErrorHandlerD0Ev@Base 3.2.1-1kern1
 _ZN8casacore23MSSelectionErrorHandlerD1Ev@Base 3.2.1-1kern1
 _ZN8casacore23MSSelectionErrorHandlerD2Ev@Base 3.2.1-1kern1
 _ZN8casacore23MSSelectionErrorHandleraSERKS0_@Base 3.2.1-1kern1
 _ZN8casacore23MSSelectionFieldWarningC1ERKNS_6StringENS_9AipsError8CategoryE@Base 3.2.1-1kern1
 _ZN8casacore23MSSelectionFieldWarningC2ERKNS_6StringENS_9AipsError8CategoryE@Base 3.2.1-1kern1
 _ZN8casacore23MSSelectionFieldWarningD0Ev@Base 3.2.1-1kern1
 _ZN8casacore23MSSelectionFieldWarningD1Ev@Base 3.2.1-1kern1
 _ZN8casacore23MSSelectionFieldWarningD2Ev@Base 3.2.1-1kern1
 _ZN8casacore23msArrayGramParseCommandEPKNS_14MeasurementSetERKNS_6StringERNS_6VectorIiEEi@Base 3.2.1-1kern1
 _ZN8casacore23msCorrGramRemoveEscapesERKNS_6StringE@Base 3.2.1-1kern1
 _ZN8casacore23msFieldGramParseCommandERKNS_7MSFieldERKNS_13TableExprNodeERKNS_6StringERNS_6VectorIiEE@Base 3.2.1-1kern1
 _ZN8casacore23msStateGramParseCommandEPKNS_14MeasurementSetERKNS_6StringE@Base 3.2.1-1kern1
 _ZN8casacore23msStateGramParseCommandEPKNS_14MeasurementSetERKNS_6StringERNS_6VectorIiEE@Base 3.2.1-1kern1
 _ZN8casacore23msTimeGramRemoveEscapesERKNS_6StringE@Base 3.2.1-1kern1
 _ZN8casacore23msTimeGramSetTimeFieldsERNS_10TimeFieldsEiiiiiii@Base 3.2.1-1kern1
 _ZN8casacore24MSFeedParameterExtractorD0Ev@Base 3.2.1-1kern1
 _ZN8casacore24MSFeedParameterExtractorD1Ev@Base 3.2.1-1kern1
 _ZN8casacore24MSFeedParameterExtractorD2Ev@Base 3.2.1-1kern1
 _ZN8casacore24MSSelectionNullSelectionC1ERKNS_6StringENS_9AipsError8CategoryE@Base 3.2.1-1kern1
 _ZN8casacore24MSSelectionNullSelectionC2ERKNS_6StringENS_9AipsError8CategoryE@Base 3.2.1-1kern1
 _ZN8casacore24MSSelectionNullSelectionD0Ev@Base 3.2.1-1kern1
 _ZN8casacore24MSSelectionNullSelectionD1Ev@Base 3.2.1-1kern1
 _ZN8casacore24MSSelectionNullSelectionD2Ev@Base 3.2.1-1kern1
 _ZN8casacore24MSSelectionSpwParseErrorC1ERKNS_6StringENS_9AipsError8CategoryE@Base 3.2.1-1kern1
 _ZN8casacore24MSSelectionSpwParseErrorC2ERKNS_6StringENS_9AipsError8CategoryE@Base 3.2.1-1kern1
 _ZN8casacore24MSSelectionSpwParseErrorD0Ev@Base 3.2.1-1kern1
 _ZN8casacore24MSSelectionSpwParseErrorD1Ev@Base 3.2.1-1kern1
 _ZN8casacore24MSSelectionSpwParseErrorD2Ev@Base 3.2.1-1kern1
 _ZN8casacore24msSpwGramParseDeleteNodeEv@Base 3.2.1-1kern1
 _ZN8casacore24msUvDistGramParseCommandEPKNS_14MeasurementSetERKNS_6StringE@Base 3.2.1-1kern1
 _ZN8casacore24msUvDistGramParseCommandEPKNS_14MeasurementSetERKNS_6StringERNS_6MatrixIdEERNS_6VectorIbEE@Base 3.2.1-1kern1
 _ZN8casacore25ClassicalQuantileComputerIdNS_5ArrayIdE16ConstIteratorSTLEPKbS3_E10_binCountsERSt6vectorINS_10CountedPtrIdEESaIS9_EERKS7_INS_14StatsHistogramIdEESaISE_EE@Base 3.2.1-1kern1
 _ZN8casacore25ClassicalQuantileComputerIdNS_5ArrayIdE16ConstIteratorSTLEPKbS3_E12_computeBinsERSt6vectorIS7_IySaIyEESaIS9_EERS7_INS_10CountedPtrIdEESaISE_EERS7_IbSaIbEES3_S5_S3_yRKS7_INS_14StatsHistogramIdEESaISM_EERKS7_IdSaIdEERKNS_17StatisticsDatasetIdS3_S5_S3_E9ChunkDataE@Base 3.2.1-1kern1
 _ZN8casacore25ClassicalQuantileComputerIdNS_5ArrayIdE16ConstIteratorSTLEPKbS3_E12getQuantilesERKSt3setIdSt4lessIdESaIdEEyddjbj@Base 3.2.1-1kern1
 _ZN8casacore25ClassicalQuantileComputerIdNS_5ArrayIdE16ConstIteratorSTLEPKbS3_E14_medianIndicesEy@Base 3.2.1-1kern1
 _ZN8casacore25ClassicalQuantileComputerIdNS_5ArrayIdE16ConstIteratorSTLEPKbS3_E16_createDataArrayERSt6vectorIdSaIdEE@Base 3.2.1-1kern1
 _ZN8casacore25ClassicalQuantileComputerIdNS_5ArrayIdE16ConstIteratorSTLEPKbS3_E16_indicesToValuesEyddyRKSt3setIySt4lessIyESaIyEEbj@Base 3.2.1-1kern1
 _ZN8casacore25ClassicalQuantileComputerIdNS_5ArrayIdE16ConstIteratorSTLEPKbS3_E17_computeDataArrayERSt6vectorIdSaIdEES3_S5_S3_yRKNS_17StatisticsDatasetIdS3_S5_S3_E9ChunkDataE@Base 3.2.1-1kern1
 _ZN8casacore25ClassicalQuantileComputerIdNS_5ArrayIdE16ConstIteratorSTLEPKbS3_E17_createDataArraysERSt6vectorIS7_IdSaIdEESaIS9_EERKS7_ISt4pairIddESaISE_EEy@Base 3.2.1-1kern1
 _ZN8casacore25ClassicalQuantileComputerIdNS_5ArrayIdE16ConstIteratorSTLEPKbS3_E18_computeDataArraysERSt6vectorIS7_IdSaIdEESaIS9_EERyS3_S5_S3_yRKS7_ISt4pairIddESaISF_EEyRKNS_17StatisticsDatasetIdS3_S5_S3_E9ChunkDataE@Base 3.2.1-1kern1
 _ZN8casacore25ClassicalQuantileComputerIdNS_5ArrayIdE16ConstIteratorSTLEPKbS3_E18getMedianAbsDevMedEyddjbj@Base 3.2.1-1kern1
 _ZN8casacore25ClassicalQuantileComputerIdNS_5ArrayIdE16ConstIteratorSTLEPKbS3_E19_dataFromSingleBinsERKSt6vectorIySaIyEEyRKS7_ISt4pairIddESaISD_EERKS7_ISt3setIySt4lessIyES8_ESaISL_EEj@Base 3.2.1-1kern1
 _ZN8casacore25ClassicalQuantileComputerIdNS_5ArrayIdE16ConstIteratorSTLEPKbS3_E21_dataFromMultipleBinsERKSt6vectorINS_14StatsHistogramIdEESaIS9_EEyRKS7_ISt3setIySt4lessIyESaIyEESaISI_EEj@Base 3.2.1-1kern1
 _ZN8casacore25ClassicalQuantileComputerIdNS_5ArrayIdE16ConstIteratorSTLEPKbS3_E21getMedianAndQuantilesERSt3mapIddSt4lessIdESaISt4pairIKddEEERKSt3setIdS9_SaIdEEyddjbj@Base 3.2.1-1kern1
 _ZN8casacore25ClassicalQuantileComputerIdNS_5ArrayIdE16ConstIteratorSTLEPKbS3_E22_valuesFromSortedArrayERSt3mapIydSt4lessIyESaISt4pairIKydEEEyRKSt3setIyS9_SaIyEEyb@Base 3.2.1-1kern1
 _ZN8casacore25ClassicalQuantileComputerIdNS_5ArrayIdE16ConstIteratorSTLEPKbS3_E5resetEv@Base 3.2.1-1kern1
 _ZN8casacore25ClassicalQuantileComputerIdNS_5ArrayIdE16ConstIteratorSTLEPKbS3_E9getMedianEyddjbj@Base 3.2.1-1kern1
 _ZN8casacore25ClassicalQuantileComputerIdNS_5ArrayIdE16ConstIteratorSTLEPKbS3_ED0Ev@Base 3.2.1-1kern1
 _ZN8casacore25ClassicalQuantileComputerIdNS_5ArrayIdE16ConstIteratorSTLEPKbS3_ED1Ev@Base 3.2.1-1kern1
 _ZN8casacore25ClassicalQuantileComputerIdNS_5ArrayIdE16ConstIteratorSTLEPKbS3_ED2Ev@Base 3.2.1-1kern1
 _ZN8casacore25MSSelectionFeedParseErrorC1ERKNS_6StringENS_9AipsError8CategoryE@Base 3.2.1-1kern1
 _ZN8casacore25MSSelectionFeedParseErrorC2ERKNS_6StringENS_9AipsError8CategoryE@Base 3.2.1-1kern1
 _ZN8casacore25MSSelectionFeedParseErrorD0Ev@Base 3.2.1-1kern1
 _ZN8casacore25MSSelectionFeedParseErrorD1Ev@Base 3.2.1-1kern1
 _ZN8casacore25MSSelectionFeedParseErrorD2Ev@Base 3.2.1-1kern1
 _ZN8casacore25MSSelectionPolnParseErrorC1ERKNS_6StringENS_9AipsError8CategoryE@Base 3.2.1-1kern1
 _ZN8casacore25MSSelectionPolnParseErrorC2ERKNS_6StringENS_9AipsError8CategoryE@Base 3.2.1-1kern1
 _ZN8casacore25MSSelectionPolnParseErrorD0Ev@Base 3.2.1-1kern1
 _ZN8casacore25MSSelectionPolnParseErrorD1Ev@Base 3.2.1-1kern1
 _ZN8casacore25MSSelectionPolnParseErrorD2Ev@Base 3.2.1-1kern1
 _ZN8casacore25MSSelectionScanParseErrorC1ERKNS_6StringENS_9AipsError8CategoryE@Base 3.2.1-1kern1
 _ZN8casacore25MSSelectionScanParseErrorC2ERKNS_6StringENS_9AipsError8CategoryE@Base 3.2.1-1kern1
 _ZN8casacore25MSSelectionScanParseErrorD0Ev@Base 3.2.1-1kern1
 _ZN8casacore25MSSelectionScanParseErrorD1Ev@Base 3.2.1-1kern1
 _ZN8casacore25MSSelectionScanParseErrorD2Ev@Base 3.2.1-1kern1
 _ZN8casacore25MSSelectionTimeParseErrorC1ERKNS_6StringENS_9AipsError8CategoryE@Base 3.2.1-1kern1
 _ZN8casacore25MSSelectionTimeParseErrorC2ERKNS_6StringENS_9AipsError8CategoryE@Base 3.2.1-1kern1
 _ZN8casacore25MSSelectionTimeParseErrorD0Ev@Base 3.2.1-1kern1
 _ZN8casacore25MSSelectionTimeParseErrorD1Ev@Base 3.2.1-1kern1
 _ZN8casacore25MSSelectionTimeParseErrorD2Ev@Base 3.2.1-1kern1
 _ZN8casacore25baseMSSpwGramParseCommandEPNS_10MSSpwParseERKNS_6StringERNS_6VectorIiEERNS_6MatrixIiEES7_@Base 3.2.1-1kern1
 _ZN8casacore25msAntennaGramParseCommandEPKNS_14MeasurementSetERKNS_6StringERNS_6VectorIiEES8_RNS_6MatrixIiEE@Base 3.2.1-1kern1
 _ZN8casacore25msAntennaGramParseCommandEPNS_14MSAntennaParseERKNS_6StringERNS_6VectorIiEES7_RNS_6MatrixIiEE@Base 3.2.1-1kern1
 _ZN8casacore25msAntennaGramParseCommandERNS_17MSSelectableTableERKNS_6StringERNS_6VectorIiEES7_RNS_6MatrixIiEE@Base 3.2.1-1kern1
 _ZN8casacore25msAntennaGramParseCommandERNS_5TableERNS_13TableExprNodeES3_RKNS_6StringERNS_6VectorIiEES9_RNS_6MatrixIiEE@Base 3.2.1-1kern1
 _ZN8casacore25msCorrGramParseDeleteNodeEv@Base 3.2.1-1kern1
 _ZN8casacore25msObservationGramPositionEv@Base 3.2.1-1kern1
 _ZN8casacore25msPolnGramParseDeleteNodeEv@Base 3.2.1-1kern1
 _ZN8casacore25msScanGramParseDeleteNodeEv@Base 3.2.1-1kern1
 _ZN8casacore25msTimeGramParseDeleteNodeEv@Base 3.2.1-1kern1
 _ZN8casacore26MSSelectionArrayParseErrorC1ERKNS_6StringENS_9AipsError8CategoryE@Base 3.2.1-1kern1
 _ZN8casacore26MSSelectionArrayParseErrorC2ERKNS_6StringENS_9AipsError8CategoryE@Base 3.2.1-1kern1
 _ZN8casacore26MSSelectionArrayParseErrorD0Ev@Base 3.2.1-1kern1
 _ZN8casacore26MSSelectionArrayParseErrorD1Ev@Base 3.2.1-1kern1
 _ZN8casacore26MSSelectionArrayParseErrorD2Ev@Base 3.2.1-1kern1
 _ZN8casacore26MSSelectionFieldParseErrorC1ERKNS_6StringENS_9AipsError8CategoryE@Base 3.2.1-1kern1
 _ZN8casacore26MSSelectionFieldParseErrorC2ERKNS_6StringENS_9AipsError8CategoryE@Base 3.2.1-1kern1
 _ZN8casacore26MSSelectionFieldParseErrorD0Ev@Base 3.2.1-1kern1
 _ZN8casacore26MSSelectionFieldParseErrorD1Ev@Base 3.2.1-1kern1
 _ZN8casacore26MSSelectionFieldParseErrorD2Ev@Base 3.2.1-1kern1
 _ZN8casacore26MSSelectionStateParseErrorC1ERKNS_6StringENS_9AipsError8CategoryE@Base 3.2.1-1kern1
 _ZN8casacore26MSSelectionStateParseErrorC2ERKNS_6StringENS_9AipsError8CategoryE@Base 3.2.1-1kern1
 _ZN8casacore26MSSelectionStateParseErrorD0Ev@Base 3.2.1-1kern1
 _ZN8casacore26MSSelectionStateParseErrorD1Ev@Base 3.2.1-1kern1
 _ZN8casacore26MSSelectionStateParseErrorD2Ev@Base 3.2.1-1kern1
 _ZN8casacore26UnitVal_static_initializerC1Ev@Base 3.2.1-1kern1
 _ZN8casacore26UnitVal_static_initializerC2Ev@Base 3.2.1-1kern1
 _ZN8casacore26baseMSFeedGramParseCommandEPNS_11MSFeedParseERKNS_6StringERNS_6VectorIiEES7_RNS_6MatrixIiEE@Base 3.2.1-1kern1
 _ZN8casacore26baseMSScanGramParseCommandEPNS_11MSScanParseERKNS_6StringERNS_6VectorIiEEi@Base 3.2.1-1kern1
 _ZN8casacore26baseMSTimeGramParseCommandEPNS_11MSTimeParseERKNS_6StringERNS_6MatrixIdEE@Base 3.2.1-1kern1
 _ZN8casacore26msFieldGramParseDeleteNodeEv@Base 3.2.1-1kern1
 _ZN8casacore26msStateGramParseDeleteNodeEv@Base 3.2.1-1kern1
 _ZN8casacore27MSSelectionObservationErrorC1ERKNS_6StringENS_9AipsError8CategoryE@Base 3.2.1-1kern1
 _ZN8casacore27MSSelectionObservationErrorC2ERKNS_6StringENS_9AipsError8CategoryE@Base 3.2.1-1kern1
 _ZN8casacore27MSSelectionObservationErrorD0Ev@Base 3.2.1-1kern1
 _ZN8casacore27MSSelectionObservationErrorD1Ev@Base 3.2.1-1kern1
 _ZN8casacore27MSSelectionObservationErrorD2Ev@Base 3.2.1-1kern1
 _ZN8casacore27MSSelectionUvDistParseErrorC1ERKNS_6StringENS_9AipsError8CategoryE@Base 3.2.1-1kern1
 _ZN8casacore27MSSelectionUvDistParseErrorC2ERKNS_6StringENS_9AipsError8CategoryE@Base 3.2.1-1kern1
 _ZN8casacore27MSSelectionUvDistParseErrorD0Ev@Base 3.2.1-1kern1
 _ZN8casacore27MSSelectionUvDistParseErrorD1Ev@Base 3.2.1-1kern1
 _ZN8casacore27MSSelectionUvDistParseErrorD2Ev@Base 3.2.1-1kern1
 _ZN8casacore27baseMSFieldGramParseCommandEPNS_12MSFieldParseERKNS_6StringERNS_6VectorIiEE@Base 3.2.1-1kern1
 _ZN8casacore27msUvDistGramParseDeleteNodeEv@Base 3.2.1-1kern1
 _ZN8casacore28MSSelectionAntennaParseErrorC1ERKNS_6StringENS_9AipsError8CategoryE@Base 3.2.1-1kern1
 _ZN8casacore28MSSelectionAntennaParseErrorC2ERKNS_6StringENS_9AipsError8CategoryE@Base 3.2.1-1kern1
 _ZN8casacore28MSSelectionAntennaParseErrorD0Ev@Base 3.2.1-1kern1
 _ZN8casacore28MSSelectionAntennaParseErrorD1Ev@Base 3.2.1-1kern1
 _ZN8casacore28MSSelectionAntennaParseErrorD2Ev@Base 3.2.1-1kern1
 _ZN8casacore29baseMSAntennaGramParseCommandEPNS_14MSAntennaParseERKNS_6StringERNS_6VectorIiEES7_RNS_6MatrixIiEE@Base 3.2.1-1kern1
 _ZN8casacore29msObservationGramParseCommandEPKNS_14MeasurementSetERKNS_13MSObservationERKNS_13TableExprNodeERKNS_6StringERNS_6VectorIiEE@Base 3.2.1-1kern1
 _ZN8casacore32MSSelectionObservationParseErrorC1ERKNS_6StringENS_9AipsError8CategoryE@Base 3.2.1-1kern1
 _ZN8casacore32MSSelectionObservationParseErrorC2ERKNS_6StringENS_9AipsError8CategoryE@Base 3.2.1-1kern1
 _ZN8casacore32MSSelectionObservationParseErrorD0Ev@Base 3.2.1-1kern1
 _ZN8casacore32MSSelectionObservationParseErrorD1Ev@Base 3.2.1-1kern1
 _ZN8casacore32MSSelectionObservationParseErrorD2Ev@Base 3.2.1-1kern1
 _ZN8casacore32msObservationGramParseDeleteNodeEv@Base 3.2.1-1kern1
 _ZN8casacore33baseMSObservationGramParseCommandEPNS_18MSObservationParseERKNS_6StringERNS_6VectorIiEE@Base 3.2.1-1kern1
 _ZN8casacore35StatisticsAlgorithmQuantileComputerIdNS_5ArrayIdE16ConstIteratorSTLEPKbS3_E5resetEv@Base 3.2.1-1kern1
 _ZN8casacore35StatisticsAlgorithmQuantileComputerIdNS_5ArrayIdE16ConstIteratorSTLEPKbS3_ED0Ev@Base 3.2.1-1kern1
 _ZN8casacore35StatisticsAlgorithmQuantileComputerIdNS_5ArrayIdE16ConstIteratorSTLEPKbS3_ED1Ev@Base 3.2.1-1kern1
 _ZN8casacore35StatisticsAlgorithmQuantileComputerIdNS_5ArrayIdE16ConstIteratorSTLEPKbS3_ED2Ev@Base 3.2.1-1kern1
 _ZN8casacore3minIfEET_RKNS_11MaskedArrayIS1_EE@Base 3.2.1-1kern1
 _ZN8casacore3sumIdEET_RKNS_11MaskedArrayIS1_EE@Base 3.2.1-1kern1
 _ZN8casacore3sumIdEET_RKNS_5ArrayIS1_EE@Base 3.2.1-1kern1
 _ZN8casacore3sumIfEET_RKNS_5ArrayIS1_EE@Base 3.2.1-1kern1
 _ZN8casacore4CubeINS_11RigidVectorIdLi2EEEE14preTakeStorageERKNS_9IPositionE@Base 3.2.1-1kern1
 _ZN8casacore4CubeINS_11RigidVectorIdLi2EEEE15doNonDegenerateERKNS_5ArrayIS2_EERKNS_9IPositionE@Base 3.2.1-1kern1
 _ZN8casacore4CubeINS_11RigidVectorIdLi2EEEE15postTakeStorageEv@Base 3.2.1-1kern1
 _ZN8casacore4CubeINS_11RigidVectorIdLi2EEEE6assignERKNS_5ArrayIS2_EE@Base 3.2.1-1kern1
 _ZN8casacore4CubeINS_11RigidVectorIdLi2EEEE6resizeERKNS_9IPositionEbNS_15ArrayInitPolicyE@Base 3.2.1-1kern1
 _ZN8casacore4CubeINS_11RigidVectorIdLi2EEEE6resizeEv@Base 3.2.1-1kern1
 _ZN8casacore4CubeINS_11RigidVectorIdLi2EEEE9referenceERKNS_5ArrayIS2_EE@Base 3.2.1-1kern1
 _ZN8casacore4CubeINS_11RigidVectorIdLi2EEEEC1Ev@Base 3.2.1-1kern1
 _ZN8casacore4CubeINS_11RigidVectorIdLi2EEEEC2Ev@Base 3.2.1-1kern1
 _ZN8casacore4CubeINS_11RigidVectorIdLi2EEEED0Ev@Base 3.2.1-1kern1
 _ZN8casacore4CubeINS_11RigidVectorIdLi2EEEED1Ev@Base 3.2.1-1kern1
 _ZN8casacore4CubeINS_11RigidVectorIdLi2EEEED2Ev@Base 3.2.1-1kern1
 _ZN8casacore4CubeINS_11RigidVectorIdLi2EEEEaSERKNS_5ArrayIS2_EE@Base 3.2.1-1kern1
 _ZN8casacore4CubeINS_11RigidVectorIdLi2EEEEaSERKS3_@Base 3.2.1-1kern1
 _ZN8casacore4CubeISt7complexIfEE14preTakeStorageERKNS_9IPositionE@Base 3.2.1-1kern1
 _ZN8casacore4CubeISt7complexIfEE15doNonDegenerateERKNS_5ArrayIS2_EERKNS_9IPositionE@Base 3.2.1-1kern1
 _ZN8casacore4CubeISt7complexIfEE15postTakeStorageEv@Base 3.2.1-1kern1
 _ZN8casacore4CubeISt7complexIfEE6assignERKNS_5ArrayIS2_EE@Base 3.2.1-1kern1
 _ZN8casacore4CubeISt7complexIfEE6resizeERKNS_9IPositionEbNS_15ArrayInitPolicyE@Base 3.2.1-1kern1
 _ZN8casacore4CubeISt7complexIfEE6resizeEv@Base 3.2.1-1kern1
 _ZN8casacore4CubeISt7complexIfEE7xyPlaneEm@Base 3.2.1-1kern1
 _ZN8casacore4CubeISt7complexIfEE9referenceERKNS_5ArrayIS2_EE@Base 3.2.1-1kern1
 _ZN8casacore4CubeISt7complexIfEEC1ERKNS_5ArrayIS2_EE@Base 3.2.1-1kern1
 _ZN8casacore4CubeISt7complexIfEEC2ERKNS_5ArrayIS2_EE@Base 3.2.1-1kern1
 _ZN8casacore4CubeISt7complexIfEED0Ev@Base 3.2.1-1kern1
 _ZN8casacore4CubeISt7complexIfEED1Ev@Base 3.2.1-1kern1
 _ZN8casacore4CubeISt7complexIfEED2Ev@Base 3.2.1-1kern1
 _ZN8casacore4CubeISt7complexIfEEaSERKNS_5ArrayIS2_EE@Base 3.2.1-1kern1
 _ZN8casacore4CubeISt7complexIfEEclERKNS_5SliceES6_S6_@Base 3.2.1-1kern1
 _ZN8casacore4CubeIbE14preTakeStorageERKNS_9IPositionE@Base 3.2.1-1kern1
 _ZN8casacore4CubeIbE15doNonDegenerateERKNS_5ArrayIbEERKNS_9IPositionE@Base 3.2.1-1kern1
 _ZN8casacore4CubeIbE15postTakeStorageEv@Base 3.2.1-1kern1
 _ZN8casacore4CubeIbE6assignERKNS_5ArrayIbEE@Base 3.2.1-1kern1
 _ZN8casacore4CubeIbE6resizeERKNS_9IPositionEbNS_15ArrayInitPolicyE@Base 3.2.1-1kern1
 _ZN8casacore4CubeIbE6resizeEv@Base 3.2.1-1kern1
 _ZN8casacore4CubeIbE7xyPlaneEm@Base 3.2.1-1kern1
 _ZN8casacore4CubeIbE9referenceERKNS_5ArrayIbEE@Base 3.2.1-1kern1
 _ZN8casacore4CubeIbEC1ERKNS_5ArrayIbEE@Base 3.2.1-1kern1
 _ZN8casacore4CubeIbEC2ERKNS_5ArrayIbEE@Base 3.2.1-1kern1
 _ZN8casacore4CubeIbED0Ev@Base 3.2.1-1kern1
 _ZN8casacore4CubeIbED1Ev@Base 3.2.1-1kern1
 _ZN8casacore4CubeIbED2Ev@Base 3.2.1-1kern1
 _ZN8casacore4CubeIbEaSERKNS_5ArrayIbEE@Base 3.2.1-1kern1
 _ZN8casacore4CubeIbEaSERKS1_@Base 3.2.1-1kern1
 _ZN8casacore4CubeIbEclERKNS_5SliceES4_S4_@Base 3.2.1-1kern1
 _ZN8casacore4CubeIdE14preTakeStorageERKNS_9IPositionE@Base 3.2.1-1kern1
 _ZN8casacore4CubeIdE15doNonDegenerateERKNS_5ArrayIdEERKNS_9IPositionE@Base 3.2.1-1kern1
 _ZN8casacore4CubeIdE15postTakeStorageEv@Base 3.2.1-1kern1
 _ZN8casacore4CubeIdE6assignERKNS_5ArrayIdEE@Base 3.2.1-1kern1
 _ZN8casacore4CubeIdE6resizeERKNS_9IPositionEbNS_15ArrayInitPolicyE@Base 3.2.1-1kern1
 _ZN8casacore4CubeIdE6resizeEv@Base 3.2.1-1kern1
 _ZN8casacore4CubeIdE7xyPlaneEm@Base 3.2.1-1kern1
 _ZN8casacore4CubeIdE9referenceERKNS_5ArrayIdEE@Base 3.2.1-1kern1
 _ZN8casacore4CubeIdEC1ERKNS_5ArrayIdEE@Base 3.2.1-1kern1
 _ZN8casacore4CubeIdEC1Ev@Base 3.2.1-1kern1
 _ZN8casacore4CubeIdEC2ERKNS_5ArrayIdEE@Base 3.2.1-1kern1
 _ZN8casacore4CubeIdEC2Ev@Base 3.2.1-1kern1
 _ZN8casacore4CubeIdED0Ev@Base 3.2.1-1kern1
 _ZN8casacore4CubeIdED1Ev@Base 3.2.1-1kern1
 _ZN8casacore4CubeIdED2Ev@Base 3.2.1-1kern1
 _ZN8casacore4CubeIdEaSERKNS_5ArrayIdEE@Base 3.2.1-1kern1
 _ZN8casacore4CubeIdEaSERKS1_@Base 3.2.1-1kern1
 _ZN8casacore4CubeIdEclERKNS_5SliceES4_S4_@Base 3.2.1-1kern1
 _ZN8casacore4CubeIfE14preTakeStorageERKNS_9IPositionE@Base 3.2.1-1kern1
 _ZN8casacore4CubeIfE15doNonDegenerateERKNS_5ArrayIfEERKNS_9IPositionE@Base 3.2.1-1kern1
 _ZN8casacore4CubeIfE15postTakeStorageEv@Base 3.2.1-1kern1
 _ZN8casacore4CubeIfE6assignERKNS_5ArrayIfEE@Base 3.2.1-1kern1
 _ZN8casacore4CubeIfE6resizeERKNS_9IPositionEbNS_15ArrayInitPolicyE@Base 3.2.1-1kern1
 _ZN8casacore4CubeIfE6resizeEv@Base 3.2.1-1kern1
 _ZN8casacore4CubeIfE9referenceERKNS_5ArrayIfEE@Base 3.2.1-1kern1
 _ZN8casacore4CubeIfEC1ERKNS_9IPositionE@Base 3.2.1-1kern1
 _ZN8casacore4CubeIfEC1Ev@Base 3.2.1-1kern1
 _ZN8casacore4CubeIfEC2ERKNS_9IPositionE@Base 3.2.1-1kern1
 _ZN8casacore4CubeIfEC2Ev@Base 3.2.1-1kern1
 _ZN8casacore4CubeIfED0Ev@Base 3.2.1-1kern1
 _ZN8casacore4CubeIfED1Ev@Base 3.2.1-1kern1
 _ZN8casacore4CubeIfED2Ev@Base 3.2.1-1kern1
 _ZN8casacore4CubeIfEaSERKNS_5ArrayIfEE@Base 3.2.1-1kern1
 _ZN8casacore4CubeIiE14preTakeStorageERKNS_9IPositionE@Base 3.2.1-1kern1
 _ZN8casacore4CubeIiE15doNonDegenerateERKNS_5ArrayIiEERKNS_9IPositionE@Base 3.2.1-1kern1
 _ZN8casacore4CubeIiE15postTakeStorageEv@Base 3.2.1-1kern1
 _ZN8casacore4CubeIiE6assignERKNS_5ArrayIiEE@Base 3.2.1-1kern1
 _ZN8casacore4CubeIiE6resizeERKNS_9IPositionEbNS_15ArrayInitPolicyE@Base 3.2.1-1kern1
 _ZN8casacore4CubeIiE6resizeEv@Base 3.2.1-1kern1
 _ZN8casacore4CubeIiE9referenceERKNS_5ArrayIiEE@Base 3.2.1-1kern1
 _ZN8casacore4CubeIiED0Ev@Base 3.2.1-1kern1
 _ZN8casacore4CubeIiED1Ev@Base 3.2.1-1kern1
 _ZN8casacore4CubeIiED2Ev@Base 3.2.1-1kern1
 _ZN8casacore4CubeIiEaSERKNS_5ArrayIiEE@Base 3.2.1-1kern1
 _ZN8casacore4copyIdEENS_9StatsDataIT_EERKS3_@Base 3.2.1-1kern1
 _ZN8casacore5ArrayINS_10MDirectionEE10assignBaseERKNS_9ArrayBaseEb@Base 3.2.1-1kern1
 _ZN8casacore5ArrayINS_10MDirectionEE10getStorageERb@Base 3.2.1-1kern1
 _ZN8casacore5ArrayINS_10MDirectionEE10putStorageERPS1_b@Base 3.2.1-1kern1
 _ZN8casacore5ArrayINS_10MDirectionEE11getVStorageERb@Base 3.2.1-1kern1
 _ZN8casacore5ArrayINS_10MDirectionEE11putVStorageERPvb@Base 3.2.1-1kern1
 _ZN8casacore5ArrayINS_10MDirectionEE11takeStorageERKNS_9IPositionEPKS1_@Base 3.2.1-1kern1
 _ZN8casacore5ArrayINS_10MDirectionEE11takeStorageERKNS_9IPositionEPKS1_RKNS_17AbstractAllocatorIS1_EE@Base 3.2.1-1kern1
 _ZN8casacore5ArrayINS_10MDirectionEE11takeStorageERKNS_9IPositionEPS1_NS_17StorageInitPolicyE@Base 3.2.1-1kern1
 _ZN8casacore5ArrayINS_10MDirectionEE11takeStorageERKNS_9IPositionEPS1_NS_17StorageInitPolicyERKNS_17AbstractAllocatorIS1_EE@Base 3.2.1-1kern1
 _ZN8casacore5ArrayINS_10MDirectionEE14preTakeStorageERKNS_9IPositionE@Base 3.2.1-1kern1
 _ZN8casacore5ArrayINS_10MDirectionEE15BaseIteratorSTL9incrementEv@Base 3.2.1-1kern1
 _ZN8casacore5ArrayINS_10MDirectionEE15BaseIteratorSTLC1ERKS2_@Base 3.2.1-1kern1
 _ZN8casacore5ArrayINS_10MDirectionEE15BaseIteratorSTLC2ERKS2_@Base 3.2.1-1kern1
 _ZN8casacore5ArrayINS_10MDirectionEE15doNonDegenerateERKS2_RKNS_9IPositionE@Base 3.2.1-1kern1
 _ZN8casacore5ArrayINS_10MDirectionEE15postTakeStorageEv@Base 3.2.1-1kern1
 _ZN8casacore5ArrayINS_10MDirectionEE16copyMatchingPartERKS2_@Base 3.2.1-1kern1
 _ZN8casacore5ArrayINS_10MDirectionEE23copyToContiguousStorageEPS1_RKS2_NS_15ArrayInitPolicyE@Base 3.2.1-1kern1
 _ZN8casacore5ArrayINS_10MDirectionEE3setERKS1_@Base 3.2.1-1kern1
 _ZN8casacore5ArrayINS_10MDirectionEE6assignERKS2_@Base 3.2.1-1kern1
 _ZN8casacore5ArrayINS_10MDirectionEE6resizeERKNS_9IPositionEb@Base 3.2.1-1kern1
 _ZN8casacore5ArrayINS_10MDirectionEE6resizeERKNS_9IPositionEbNS_15ArrayInitPolicyE@Base 3.2.1-1kern1
 _ZN8casacore5ArrayINS_10MDirectionEE6resizeEv@Base 3.2.1-1kern1
 _ZN8casacore5ArrayINS_10MDirectionEE9referenceERKS2_@Base 3.2.1-1kern1
 _ZN8casacore5ArrayINS_10MDirectionEEC1ERKNS_9IPositionE@Base 3.2.1-1kern1
 _ZN8casacore5ArrayINS_10MDirectionEEC1ERKNS_9IPositionENS_15ArrayInitPolicyEPNS_17Allocator_private13BulkAllocatorIS1_EE@Base 3.2.1-1kern1
 _ZN8casacore5ArrayINS_10MDirectionEEC1ERKNS_9IPositionERKS1_@Base 3.2.1-1kern1
 _ZN8casacore5ArrayINS_10MDirectionEEC1ERKS2_@Base 3.2.1-1kern1
 _ZN8casacore5ArrayINS_10MDirectionEEC1Ev@Base 3.2.1-1kern1
 _ZN8casacore5ArrayINS_10MDirectionEEC2ERKNS_9IPositionE@Base 3.2.1-1kern1
 _ZN8casacore5ArrayINS_10MDirectionEEC2ERKNS_9IPositionENS_15ArrayInitPolicyEPNS_17Allocator_private13BulkAllocatorIS1_EE@Base 3.2.1-1kern1
 _ZN8casacore5ArrayINS_10MDirectionEEC2ERKNS_9IPositionERKS1_@Base 3.2.1-1kern1
 _ZN8casacore5ArrayINS_10MDirectionEEC2ERKS2_@Base 3.2.1-1kern1
 _ZN8casacore5ArrayINS_10MDirectionEEC2Ev@Base 3.2.1-1kern1
 _ZN8casacore5ArrayINS_10MDirectionEED0Ev@Base 3.2.1-1kern1
 _ZN8casacore5ArrayINS_10MDirectionEED1Ev@Base 3.2.1-1kern1
 _ZN8casacore5ArrayINS_10MDirectionEED2Ev@Base 3.2.1-1kern1
 _ZN8casacore5ArrayINS_10MDirectionEEaSERKS2_@Base 3.2.1-1kern1
 _ZN8casacore5ArrayINS_10MDirectionEEclERKNS_6SlicerE@Base 3.2.1-1kern1
 _ZN8casacore5ArrayINS_10MDirectionEEclERKNS_9IPositionES5_@Base 3.2.1-1kern1
 _ZN8casacore5ArrayINS_10MDirectionEEclERKNS_9IPositionES5_S5_@Base 3.2.1-1kern1
 _ZN8casacore5ArrayINS_10MFrequencyEE10assignBaseERKNS_9ArrayBaseEb@Base 3.2.1-1kern1
 _ZN8casacore5ArrayINS_10MFrequencyEE10getStorageERb@Base 3.2.1-1kern1
 _ZN8casacore5ArrayINS_10MFrequencyEE10putStorageERPS1_b@Base 3.2.1-1kern1
 _ZN8casacore5ArrayINS_10MFrequencyEE11getVStorageERb@Base 3.2.1-1kern1
 _ZN8casacore5ArrayINS_10MFrequencyEE11putVStorageERPvb@Base 3.2.1-1kern1
 _ZN8casacore5ArrayINS_10MFrequencyEE11takeStorageERKNS_9IPositionEPKS1_@Base 3.2.1-1kern1
 _ZN8casacore5ArrayINS_10MFrequencyEE11takeStorageERKNS_9IPositionEPKS1_RKNS_17AbstractAllocatorIS1_EE@Base 3.2.1-1kern1
 _ZN8casacore5ArrayINS_10MFrequencyEE11takeStorageERKNS_9IPositionEPS1_NS_17StorageInitPolicyE@Base 3.2.1-1kern1
 _ZN8casacore5ArrayINS_10MFrequencyEE11takeStorageERKNS_9IPositionEPS1_NS_17StorageInitPolicyERKNS_17AbstractAllocatorIS1_EE@Base 3.2.1-1kern1
 _ZN8casacore5ArrayINS_10MFrequencyEE14preTakeStorageERKNS_9IPositionE@Base 3.2.1-1kern1
 _ZN8casacore5ArrayINS_10MFrequencyEE15BaseIteratorSTL9incrementEv@Base 3.2.1-1kern1
 _ZN8casacore5ArrayINS_10MFrequencyEE15BaseIteratorSTLC1ERKS2_@Base 3.2.1-1kern1
 _ZN8casacore5ArrayINS_10MFrequencyEE15BaseIteratorSTLC2ERKS2_@Base 3.2.1-1kern1
 _ZN8casacore5ArrayINS_10MFrequencyEE15doNonDegenerateERKS2_RKNS_9IPositionE@Base 3.2.1-1kern1
 _ZN8casacore5ArrayINS_10MFrequencyEE15postTakeStorageEv@Base 3.2.1-1kern1
 _ZN8casacore5ArrayINS_10MFrequencyEE16copyMatchingPartERKS2_@Base 3.2.1-1kern1
 _ZN8casacore5ArrayINS_10MFrequencyEE23copyToContiguousStorageEPS1_RKS2_NS_15ArrayInitPolicyE@Base 3.2.1-1kern1
 _ZN8casacore5ArrayINS_10MFrequencyEE6assignERKS2_@Base 3.2.1-1kern1
 _ZN8casacore5ArrayINS_10MFrequencyEE6resizeERKNS_9IPositionEb@Base 3.2.1-1kern1
 _ZN8casacore5ArrayINS_10MFrequencyEE6resizeERKNS_9IPositionEbNS_15ArrayInitPolicyE@Base 3.2.1-1kern1
 _ZN8casacore5ArrayINS_10MFrequencyEE6resizeEv@Base 3.2.1-1kern1
 _ZN8casacore5ArrayINS_10MFrequencyEE9referenceERKS2_@Base 3.2.1-1kern1
 _ZN8casacore5ArrayINS_10MFrequencyEEC1ERKNS_9IPositionENS_15ArrayInitPolicyEPNS_17Allocator_private13BulkAllocatorIS1_EE@Base 3.2.1-1kern1
 _ZN8casacore5ArrayINS_10MFrequencyEEC1ERKS2_@Base 3.2.1-1kern1
 _ZN8casacore5ArrayINS_10MFrequencyEEC1Ev@Base 3.2.1-1kern1
 _ZN8casacore5ArrayINS_10MFrequencyEEC2ERKNS_9IPositionENS_15ArrayInitPolicyEPNS_17Allocator_private13BulkAllocatorIS1_EE@Base 3.2.1-1kern1
 _ZN8casacore5ArrayINS_10MFrequencyEEC2ERKS2_@Base 3.2.1-1kern1
 _ZN8casacore5ArrayINS_10MFrequencyEEC2Ev@Base 3.2.1-1kern1
 _ZN8casacore5ArrayINS_10MFrequencyEED0Ev@Base 3.2.1-1kern1
 _ZN8casacore5ArrayINS_10MFrequencyEED1Ev@Base 3.2.1-1kern1
 _ZN8casacore5ArrayINS_10MFrequencyEED2Ev@Base 3.2.1-1kern1
 _ZN8casacore5ArrayINS_10MFrequencyEEaSERKS2_@Base 3.2.1-1kern1
 _ZN8casacore5ArrayINS_10MFrequencyEEclERKNS_6SlicerE@Base 3.2.1-1kern1
 _ZN8casacore5ArrayINS_10MFrequencyEEclERKNS_9IPositionES5_@Base 3.2.1-1kern1
 _ZN8casacore5ArrayINS_10MFrequencyEEclERKNS_9IPositionES5_S5_@Base 3.2.1-1kern1
 _ZN8casacore5ArrayINS_11RigidVectorIdLi2EEEE10assignBaseERKNS_9ArrayBaseEb@Base 3.2.1-1kern1
 _ZN8casacore5ArrayINS_11RigidVectorIdLi2EEEE10getStorageERb@Base 3.2.1-1kern1
 _ZN8casacore5ArrayINS_11RigidVectorIdLi2EEEE10putStorageERPS2_b@Base 3.2.1-1kern1
 _ZN8casacore5ArrayINS_11RigidVectorIdLi2EEEE11getVStorageERb@Base 3.2.1-1kern1
 _ZN8casacore5ArrayINS_11RigidVectorIdLi2EEEE11putVStorageERPvb@Base 3.2.1-1kern1
 _ZN8casacore5ArrayINS_11RigidVectorIdLi2EEEE11takeStorageERKNS_9IPositionEPKS2_@Base 3.2.1-1kern1
 _ZN8casacore5ArrayINS_11RigidVectorIdLi2EEEE11takeStorageERKNS_9IPositionEPKS2_RKNS_17AbstractAllocatorIS2_EE@Base 3.2.1-1kern1
 _ZN8casacore5ArrayINS_11RigidVectorIdLi2EEEE11takeStorageERKNS_9IPositionEPS2_NS_17StorageInitPolicyE@Base 3.2.1-1kern1
 _ZN8casacore5ArrayINS_11RigidVectorIdLi2EEEE11takeStorageERKNS_9IPositionEPS2_NS_17StorageInitPolicyERKNS_17AbstractAllocatorIS2_EE@Base 3.2.1-1kern1
 _ZN8casacore5ArrayINS_11RigidVectorIdLi2EEEE14preTakeStorageERKNS_9IPositionE@Base 3.2.1-1kern1
 _ZN8casacore5ArrayINS_11RigidVectorIdLi2EEEE15BaseIteratorSTL9incrementEv@Base 3.2.1-1kern1
 _ZN8casacore5ArrayINS_11RigidVectorIdLi2EEEE15BaseIteratorSTLC1ERKS3_@Base 3.2.1-1kern1
 _ZN8casacore5ArrayINS_11RigidVectorIdLi2EEEE15BaseIteratorSTLC2ERKS3_@Base 3.2.1-1kern1
 _ZN8casacore5ArrayINS_11RigidVectorIdLi2EEEE15doNonDegenerateERKS3_RKNS_9IPositionE@Base 3.2.1-1kern1
 _ZN8casacore5ArrayINS_11RigidVectorIdLi2EEEE15postTakeStorageEv@Base 3.2.1-1kern1
 _ZN8casacore5ArrayINS_11RigidVectorIdLi2EEEE16copyMatchingPartERKS3_@Base 3.2.1-1kern1
 _ZN8casacore5ArrayINS_11RigidVectorIdLi2EEEE23copyToContiguousStorageEPS2_RKS3_NS_15ArrayInitPolicyE@Base 3.2.1-1kern1
 _ZN8casacore5ArrayINS_11RigidVectorIdLi2EEEE6assignERKS3_@Base 3.2.1-1kern1
 _ZN8casacore5ArrayINS_11RigidVectorIdLi2EEEE6resizeERKNS_9IPositionEb@Base 3.2.1-1kern1
 _ZN8casacore5ArrayINS_11RigidVectorIdLi2EEEE6resizeERKNS_9IPositionEbNS_15ArrayInitPolicyE@Base 3.2.1-1kern1
 _ZN8casacore5ArrayINS_11RigidVectorIdLi2EEEE6resizeEv@Base 3.2.1-1kern1
 _ZN8casacore5ArrayINS_11RigidVectorIdLi2EEEE9referenceERKS3_@Base 3.2.1-1kern1
 _ZN8casacore5ArrayINS_11RigidVectorIdLi2EEEEC1ERKNS_9IPositionENS_15ArrayInitPolicyEPNS_17Allocator_private13BulkAllocatorIS2_EE@Base 3.2.1-1kern1
 _ZN8casacore5ArrayINS_11RigidVectorIdLi2EEEEC1ERKS3_@Base 3.2.1-1kern1
 _ZN8casacore5ArrayINS_11RigidVectorIdLi2EEEEC1Ev@Base 3.2.1-1kern1
 _ZN8casacore5ArrayINS_11RigidVectorIdLi2EEEEC2ERKNS_9IPositionENS_15ArrayInitPolicyEPNS_17Allocator_private13BulkAllocatorIS2_EE@Base 3.2.1-1kern1
 _ZN8casacore5ArrayINS_11RigidVectorIdLi2EEEEC2ERKS3_@Base 3.2.1-1kern1
 _ZN8casacore5ArrayINS_11RigidVectorIdLi2EEEEC2Ev@Base 3.2.1-1kern1
 _ZN8casacore5ArrayINS_11RigidVectorIdLi2EEEED0Ev@Base 3.2.1-1kern1
 _ZN8casacore5ArrayINS_11RigidVectorIdLi2EEEED1Ev@Base 3.2.1-1kern1
 _ZN8casacore5ArrayINS_11RigidVectorIdLi2EEEED2Ev@Base 3.2.1-1kern1
 _ZN8casacore5ArrayINS_11RigidVectorIdLi2EEEEaSERKS3_@Base 3.2.1-1kern1
 _ZN8casacore5ArrayINS_11RigidVectorIdLi2EEEEclERKNS_6SlicerE@Base 3.2.1-1kern1
 _ZN8casacore5ArrayINS_11RigidVectorIdLi2EEEEclERKNS_9IPositionES6_@Base 3.2.1-1kern1
 _ZN8casacore5ArrayINS_11RigidVectorIdLi2EEEEclERKNS_9IPositionES6_S6_@Base 3.2.1-1kern1
 _ZN8casacore5ArrayINS_12SquareMatrixISt7complexIfELi2EEEE10assignBaseERKNS_9ArrayBaseEb@Base 3.2.1-1kern1
 _ZN8casacore5ArrayINS_12SquareMatrixISt7complexIfELi2EEEE10getStorageERb@Base 3.2.1-1kern1
 _ZN8casacore5ArrayINS_12SquareMatrixISt7complexIfELi2EEEE10putStorageERPS4_b@Base 3.2.1-1kern1
 _ZN8casacore5ArrayINS_12SquareMatrixISt7complexIfELi2EEEE11getVStorageERb@Base 3.2.1-1kern1
 _ZN8casacore5ArrayINS_12SquareMatrixISt7complexIfELi2EEEE11putVStorageERPvb@Base 3.2.1-1kern1
 _ZN8casacore5ArrayINS_12SquareMatrixISt7complexIfELi2EEEE11takeStorageERKNS_9IPositionEPKS4_@Base 3.2.1-1kern1
 _ZN8casacore5ArrayINS_12SquareMatrixISt7complexIfELi2EEEE11takeStorageERKNS_9IPositionEPKS4_RKNS_17AbstractAllocatorIS4_EE@Base 3.2.1-1kern1
 _ZN8casacore5ArrayINS_12SquareMatrixISt7complexIfELi2EEEE11takeStorageERKNS_9IPositionEPS4_NS_17StorageInitPolicyE@Base 3.2.1-1kern1
 _ZN8casacore5ArrayINS_12SquareMatrixISt7complexIfELi2EEEE11takeStorageERKNS_9IPositionEPS4_NS_17StorageInitPolicyERKNS_17AbstractAllocatorIS4_EE@Base 3.2.1-1kern1
 _ZN8casacore5ArrayINS_12SquareMatrixISt7complexIfELi2EEEE14preTakeStorageERKNS_9IPositionE@Base 3.2.1-1kern1
 _ZN8casacore5ArrayINS_12SquareMatrixISt7complexIfELi2EEEE15BaseIteratorSTL9incrementEv@Base 3.2.1-1kern1
 _ZN8casacore5ArrayINS_12SquareMatrixISt7complexIfELi2EEEE15BaseIteratorSTLC1ERKS5_@Base 3.2.1-1kern1
 _ZN8casacore5ArrayINS_12SquareMatrixISt7complexIfELi2EEEE15BaseIteratorSTLC2ERKS5_@Base 3.2.1-1kern1
 _ZN8casacore5ArrayINS_12SquareMatrixISt7complexIfELi2EEEE15doNonDegenerateERKS5_RKNS_9IPositionE@Base 3.2.1-1kern1
 _ZN8casacore5ArrayINS_12SquareMatrixISt7complexIfELi2EEEE15postTakeStorageEv@Base 3.2.1-1kern1
 _ZN8casacore5ArrayINS_12SquareMatrixISt7complexIfELi2EEEE16copyMatchingPartERKS5_@Base 3.2.1-1kern1
 _ZN8casacore5ArrayINS_12SquareMatrixISt7complexIfELi2EEEE23copyToContiguousStorageEPS4_RKS5_NS_15ArrayInitPolicyE@Base 3.2.1-1kern1
 _ZN8casacore5ArrayINS_12SquareMatrixISt7complexIfELi2EEEE6assignERKS5_@Base 3.2.1-1kern1
 _ZN8casacore5ArrayINS_12SquareMatrixISt7complexIfELi2EEEE6resizeERKNS_9IPositionEb@Base 3.2.1-1kern1
 _ZN8casacore5ArrayINS_12SquareMatrixISt7complexIfELi2EEEE6resizeERKNS_9IPositionEbNS_15ArrayInitPolicyE@Base 3.2.1-1kern1
 _ZN8casacore5ArrayINS_12SquareMatrixISt7complexIfELi2EEEE6resizeEv@Base 3.2.1-1kern1
 _ZN8casacore5ArrayINS_12SquareMatrixISt7complexIfELi2EEEE9referenceERKS5_@Base 3.2.1-1kern1
 _ZN8casacore5ArrayINS_12SquareMatrixISt7complexIfELi2EEEEC1ERKNS_9IPositionE@Base 3.2.1-1kern1
 _ZN8casacore5ArrayINS_12SquareMatrixISt7complexIfELi2EEEEC1ERKNS_9IPositionENS_15ArrayInitPolicyEPNS_17Allocator_private13BulkAllocatorIS4_EE@Base 3.2.1-1kern1
 _ZN8casacore5ArrayINS_12SquareMatrixISt7complexIfELi2EEEEC1ERKS5_@Base 3.2.1-1kern1
 _ZN8casacore5ArrayINS_12SquareMatrixISt7complexIfELi2EEEEC1Ev@Base 3.2.1-1kern1
 _ZN8casacore5ArrayINS_12SquareMatrixISt7complexIfELi2EEEEC2ERKNS_9IPositionE@Base 3.2.1-1kern1
 _ZN8casacore5ArrayINS_12SquareMatrixISt7complexIfELi2EEEEC2ERKNS_9IPositionENS_15ArrayInitPolicyEPNS_17Allocator_private13BulkAllocatorIS4_EE@Base 3.2.1-1kern1
 _ZN8casacore5ArrayINS_12SquareMatrixISt7complexIfELi2EEEEC2ERKS5_@Base 3.2.1-1kern1
 _ZN8casacore5ArrayINS_12SquareMatrixISt7complexIfELi2EEEEC2Ev@Base 3.2.1-1kern1
 _ZN8casacore5ArrayINS_12SquareMatrixISt7complexIfELi2EEEED0Ev@Base 3.2.1-1kern1
 _ZN8casacore5ArrayINS_12SquareMatrixISt7complexIfELi2EEEED1Ev@Base 3.2.1-1kern1
 _ZN8casacore5ArrayINS_12SquareMatrixISt7complexIfELi2EEEED2Ev@Base 3.2.1-1kern1
 _ZN8casacore5ArrayINS_12SquareMatrixISt7complexIfELi2EEEEaSERKS5_@Base 3.2.1-1kern1
 _ZN8casacore5ArrayINS_12SquareMatrixISt7complexIfELi2EEEEclERKNS_6SlicerE@Base 3.2.1-1kern1
 _ZN8casacore5ArrayINS_12SquareMatrixISt7complexIfELi2EEEEclERKNS_9IPositionES8_@Base 3.2.1-1kern1
 _ZN8casacore5ArrayINS_12SquareMatrixISt7complexIfELi2EEEEclERKNS_9IPositionES8_S8_@Base 3.2.1-1kern1
 _ZN8casacore5ArrayINS_4UnitEE10assignBaseERKNS_9ArrayBaseEb@Base 3.2.1-1kern1
 _ZN8casacore5ArrayINS_4UnitEE10getStorageERb@Base 3.2.1-1kern1
 _ZN8casacore5ArrayINS_4UnitEE10putStorageERPS1_b@Base 3.2.1-1kern1
 _ZN8casacore5ArrayINS_4UnitEE10setEndIterEv@Base 3.2.1-1kern1
 _ZN8casacore5ArrayINS_4UnitEE11getVStorageERb@Base 3.2.1-1kern1
 _ZN8casacore5ArrayINS_4UnitEE11putVStorageERPvb@Base 3.2.1-1kern1
 _ZN8casacore5ArrayINS_4UnitEE11takeStorageERKNS_9IPositionEPKS1_@Base 3.2.1-1kern1
 _ZN8casacore5ArrayINS_4UnitEE11takeStorageERKNS_9IPositionEPKS1_RKNS_17AbstractAllocatorIS1_EE@Base 3.2.1-1kern1
 _ZN8casacore5ArrayINS_4UnitEE11takeStorageERKNS_9IPositionEPS1_NS_17StorageInitPolicyE@Base 3.2.1-1kern1
 _ZN8casacore5ArrayINS_4UnitEE11takeStorageERKNS_9IPositionEPS1_NS_17StorageInitPolicyERKNS_17AbstractAllocatorIS1_EE@Base 3.2.1-1kern1
 _ZN8casacore5ArrayINS_4UnitEE14preTakeStorageERKNS_9IPositionE@Base 3.2.1-1kern1
 _ZN8casacore5ArrayINS_4UnitEE15BaseIteratorSTL9incrementEv@Base 3.2.1-1kern1
 _ZN8casacore5ArrayINS_4UnitEE15BaseIteratorSTLC1ERKS2_@Base 3.2.1-1kern1
 _ZN8casacore5ArrayINS_4UnitEE15BaseIteratorSTLC2ERKS2_@Base 3.2.1-1kern1
 _ZN8casacore5ArrayINS_4UnitEE15doNonDegenerateERKS2_RKNS_9IPositionE@Base 3.2.1-1kern1
 _ZN8casacore5ArrayINS_4UnitEE15postTakeStorageEv@Base 3.2.1-1kern1
 _ZN8casacore5ArrayINS_4UnitEE16copyMatchingPartERKS2_@Base 3.2.1-1kern1
 _ZN8casacore5ArrayINS_4UnitEE23copyToContiguousStorageEPS1_RKS2_NS_15ArrayInitPolicyE@Base 3.2.1-1kern1
 _ZN8casacore5ArrayINS_4UnitEE6assignERKS2_@Base 3.2.1-1kern1
 _ZN8casacore5ArrayINS_4UnitEE6resizeERKNS_9IPositionEb@Base 3.2.1-1kern1
 _ZN8casacore5ArrayINS_4UnitEE6resizeERKNS_9IPositionEbNS_15ArrayInitPolicyE@Base 3.2.1-1kern1
 _ZN8casacore5ArrayINS_4UnitEE6resizeEv@Base 3.2.1-1kern1
 _ZN8casacore5ArrayINS_4UnitEE9referenceERKS2_@Base 3.2.1-1kern1
 _ZN8casacore5ArrayINS_4UnitEEC1ERKNS_9IPositionENS_15ArrayInitPolicyEPNS_17Allocator_private13BulkAllocatorIS1_EE@Base 3.2.1-1kern1
 _ZN8casacore5ArrayINS_4UnitEEC1ERKNS_9IPositionERKS1_@Base 3.2.1-1kern1
 _ZN8casacore5ArrayINS_4UnitEEC1ERKS2_@Base 3.2.1-1kern1
 _ZN8casacore5ArrayINS_4UnitEEC1Ev@Base 3.2.1-1kern1
 _ZN8casacore5ArrayINS_4UnitEEC2ERKNS_9IPositionENS_15ArrayInitPolicyEPNS_17Allocator_private13BulkAllocatorIS1_EE@Base 3.2.1-1kern1
 _ZN8casacore5ArrayINS_4UnitEEC2ERKNS_9IPositionERKS1_@Base 3.2.1-1kern1
 _ZN8casacore5ArrayINS_4UnitEEC2ERKS2_@Base 3.2.1-1kern1
 _ZN8casacore5ArrayINS_4UnitEEC2Ev@Base 3.2.1-1kern1
 _ZN8casacore5ArrayINS_4UnitEED0Ev@Base 3.2.1-1kern1
 _ZN8casacore5ArrayINS_4UnitEED1Ev@Base 3.2.1-1kern1
 _ZN8casacore5ArrayINS_4UnitEED2Ev@Base 3.2.1-1kern1
 _ZN8casacore5ArrayINS_4UnitEEaSERKS2_@Base 3.2.1-1kern1
 _ZN8casacore5ArrayINS_4UnitEEclERKNS_6SlicerE@Base 3.2.1-1kern1
 _ZN8casacore5ArrayINS_4UnitEEclERKNS_9IPositionES5_@Base 3.2.1-1kern1
 _ZN8casacore5ArrayINS_4UnitEEclERKNS_9IPositionES5_S5_@Base 3.2.1-1kern1
 _ZN8casacore5ArrayINS_5SliceEE10assignBaseERKNS_9ArrayBaseEb@Base 3.2.1-1kern1
 _ZN8casacore5ArrayINS_5SliceEE10getStorageERb@Base 3.2.1-1kern1
 _ZN8casacore5ArrayINS_5SliceEE10putStorageERPS1_b@Base 3.2.1-1kern1
 _ZN8casacore5ArrayINS_5SliceEE11getVStorageERb@Base 3.2.1-1kern1
 _ZN8casacore5ArrayINS_5SliceEE11putVStorageERPvb@Base 3.2.1-1kern1
 _ZN8casacore5ArrayINS_5SliceEE11takeStorageERKNS_9IPositionEPKS1_@Base 3.2.1-1kern1
 _ZN8casacore5ArrayINS_5SliceEE11takeStorageERKNS_9IPositionEPKS1_RKNS_17AbstractAllocatorIS1_EE@Base 3.2.1-1kern1
 _ZN8casacore5ArrayINS_5SliceEE11takeStorageERKNS_9IPositionEPS1_NS_17StorageInitPolicyE@Base 3.2.1-1kern1
 _ZN8casacore5ArrayINS_5SliceEE11takeStorageERKNS_9IPositionEPS1_NS_17StorageInitPolicyERKNS_17AbstractAllocatorIS1_EE@Base 3.2.1-1kern1
 _ZN8casacore5ArrayINS_5SliceEE14preTakeStorageERKNS_9IPositionE@Base 3.2.1-1kern1
 _ZN8casacore5ArrayINS_5SliceEE15BaseIteratorSTL9incrementEv@Base 3.2.1-1kern1
 _ZN8casacore5ArrayINS_5SliceEE15BaseIteratorSTLC1ERKS2_@Base 3.2.1-1kern1
 _ZN8casacore5ArrayINS_5SliceEE15BaseIteratorSTLC2ERKS2_@Base 3.2.1-1kern1
 _ZN8casacore5ArrayINS_5SliceEE15doNonDegenerateERKS2_RKNS_9IPositionE@Base 3.2.1-1kern1
 _ZN8casacore5ArrayINS_5SliceEE15postTakeStorageEv@Base 3.2.1-1kern1
 _ZN8casacore5ArrayINS_5SliceEE16copyMatchingPartERKS2_@Base 3.2.1-1kern1
 _ZN8casacore5ArrayINS_5SliceEE23copyToContiguousStorageEPS1_RKS2_NS_15ArrayInitPolicyE@Base 3.2.1-1kern1
 _ZN8casacore5ArrayINS_5SliceEE6assignERKS2_@Base 3.2.1-1kern1
 _ZN8casacore5ArrayINS_5SliceEE6resizeERKNS_9IPositionEb@Base 3.2.1-1kern1
 _ZN8casacore5ArrayINS_5SliceEE6resizeERKNS_9IPositionEbNS_15ArrayInitPolicyE@Base 3.2.1-1kern1
 _ZN8casacore5ArrayINS_5SliceEE6resizeEv@Base 3.2.1-1kern1
 _ZN8casacore5ArrayINS_5SliceEE9referenceERKS2_@Base 3.2.1-1kern1
 _ZN8casacore5ArrayINS_5SliceEEC1ERKNS_9IPositionENS_15ArrayInitPolicyEPNS_17Allocator_private13BulkAllocatorIS1_EE@Base 3.2.1-1kern1
 _ZN8casacore5ArrayINS_5SliceEEC1ERKS2_@Base 3.2.1-1kern1
 _ZN8casacore5ArrayINS_5SliceEEC1Ev@Base 3.2.1-1kern1
 _ZN8casacore5ArrayINS_5SliceEEC2ERKNS_9IPositionENS_15ArrayInitPolicyEPNS_17Allocator_private13BulkAllocatorIS1_EE@Base 3.2.1-1kern1
 _ZN8casacore5ArrayINS_5SliceEEC2ERKS2_@Base 3.2.1-1kern1
 _ZN8casacore5ArrayINS_5SliceEEC2Ev@Base 3.2.1-1kern1
 _ZN8casacore5ArrayINS_5SliceEED0Ev@Base 3.2.1-1kern1
 _ZN8casacore5ArrayINS_5SliceEED1Ev@Base 3.2.1-1kern1
 _ZN8casacore5ArrayINS_5SliceEED2Ev@Base 3.2.1-1kern1
 _ZN8casacore5ArrayINS_5SliceEEaSERKS2_@Base 3.2.1-1kern1
 _ZN8casacore5ArrayINS_5SliceEEclERKNS_6SlicerE@Base 3.2.1-1kern1
 _ZN8casacore5ArrayINS_5SliceEEclERKNS_9IPositionES5_@Base 3.2.1-1kern1
 _ZN8casacore5ArrayINS_5SliceEEclERKNS_9IPositionES5_S5_@Base 3.2.1-1kern1
 _ZN8casacore5ArrayINS_6Stokes11StokesTypesEE10assignBaseERKNS_9ArrayBaseEb@Base 3.2.1-1kern1
 _ZN8casacore5ArrayINS_6Stokes11StokesTypesEE10getStorageERb@Base 3.2.1-1kern1
 _ZN8casacore5ArrayINS_6Stokes11StokesTypesEE10putStorageERPS2_b@Base 3.2.1-1kern1
 _ZN8casacore5ArrayINS_6Stokes11StokesTypesEE11getVStorageERb@Base 3.2.1-1kern1
 _ZN8casacore5ArrayINS_6Stokes11StokesTypesEE11putVStorageERPvb@Base 3.2.1-1kern1
 _ZN8casacore5ArrayINS_6Stokes11StokesTypesEE11takeStorageERKNS_9IPositionEPKS2_@Base 3.2.1-1kern1
 _ZN8casacore5ArrayINS_6Stokes11StokesTypesEE11takeStorageERKNS_9IPositionEPKS2_RKNS_17AbstractAllocatorIS2_EE@Base 3.2.1-1kern1
 _ZN8casacore5ArrayINS_6Stokes11StokesTypesEE11takeStorageERKNS_9IPositionEPS2_NS_17StorageInitPolicyE@Base 3.2.1-1kern1
 _ZN8casacore5ArrayINS_6Stokes11StokesTypesEE11takeStorageERKNS_9IPositionEPS2_NS_17StorageInitPolicyERKNS_17AbstractAllocatorIS2_EE@Base 3.2.1-1kern1
 _ZN8casacore5ArrayINS_6Stokes11StokesTypesEE14preTakeStorageERKNS_9IPositionE@Base 3.2.1-1kern1
 _ZN8casacore5ArrayINS_6Stokes11StokesTypesEE15BaseIteratorSTL9incrementEv@Base 3.2.1-1kern1
 _ZN8casacore5ArrayINS_6Stokes11StokesTypesEE15BaseIteratorSTLC1ERKS3_@Base 3.2.1-1kern1
 _ZN8casacore5ArrayINS_6Stokes11StokesTypesEE15BaseIteratorSTLC2ERKS3_@Base 3.2.1-1kern1
 _ZN8casacore5ArrayINS_6Stokes11StokesTypesEE15doNonDegenerateERKS3_RKNS_9IPositionE@Base 3.2.1-1kern1
 _ZN8casacore5ArrayINS_6Stokes11StokesTypesEE15postTakeStorageEv@Base 3.2.1-1kern1
 _ZN8casacore5ArrayINS_6Stokes11StokesTypesEE16copyMatchingPartERKS3_@Base 3.2.1-1kern1
 _ZN8casacore5ArrayINS_6Stokes11StokesTypesEE23copyToContiguousStorageEPS2_RKS3_NS_15ArrayInitPolicyE@Base 3.2.1-1kern1
 _ZN8casacore5ArrayINS_6Stokes11StokesTypesEE6assignERKS3_@Base 3.2.1-1kern1
 _ZN8casacore5ArrayINS_6Stokes11StokesTypesEE6resizeERKNS_9IPositionEb@Base 3.2.1-1kern1
 _ZN8casacore5ArrayINS_6Stokes11StokesTypesEE6resizeERKNS_9IPositionEbNS_15ArrayInitPolicyE@Base 3.2.1-1kern1
 _ZN8casacore5ArrayINS_6Stokes11StokesTypesEE6resizeEv@Base 3.2.1-1kern1
 _ZN8casacore5ArrayINS_6Stokes11StokesTypesEE9referenceERKS3_@Base 3.2.1-1kern1
 _ZN8casacore5ArrayINS_6Stokes11StokesTypesEEC1ERKNS_9IPositionENS_15ArrayInitPolicyEPNS_17Allocator_private13BulkAllocatorIS2_EE@Base 3.2.1-1kern1
 _ZN8casacore5ArrayINS_6Stokes11StokesTypesEEC1ERKS3_@Base 3.2.1-1kern1
 _ZN8casacore5ArrayINS_6Stokes11StokesTypesEEC1Ev@Base 3.2.1-1kern1
 _ZN8casacore5ArrayINS_6Stokes11StokesTypesEEC2ERKNS_9IPositionENS_15ArrayInitPolicyEPNS_17Allocator_private13BulkAllocatorIS2_EE@Base 3.2.1-1kern1
 _ZN8casacore5ArrayINS_6Stokes11StokesTypesEEC2ERKS3_@Base 3.2.1-1kern1
 _ZN8casacore5ArrayINS_6Stokes11StokesTypesEEC2Ev@Base 3.2.1-1kern1
 _ZN8casacore5ArrayINS_6Stokes11StokesTypesEED0Ev@Base 3.2.1-1kern1
 _ZN8casacore5ArrayINS_6Stokes11StokesTypesEED1Ev@Base 3.2.1-1kern1
 _ZN8casacore5ArrayINS_6Stokes11StokesTypesEED2Ev@Base 3.2.1-1kern1
 _ZN8casacore5ArrayINS_6Stokes11StokesTypesEEaSERKS3_@Base 3.2.1-1kern1
 _ZN8casacore5ArrayINS_6Stokes11StokesTypesEEclERKNS_6SlicerE@Base 3.2.1-1kern1
 _ZN8casacore5ArrayINS_6Stokes11StokesTypesEEclERKNS_9IPositionES6_@Base 3.2.1-1kern1
 _ZN8casacore5ArrayINS_6Stokes11StokesTypesEEclERKNS_9IPositionES6_S6_@Base 3.2.1-1kern1
 _ZN8casacore5ArrayINS_6StringEE15BaseIteratorSTLC1ERKS3_@Base 3.2.1-1kern1
 _ZN8casacore5ArrayINS_6StringEE15BaseIteratorSTLC2ERKS3_@Base 3.2.1-1kern1
 _ZN8casacore5ArrayINS_6VectorINS_5SliceEEEE15BaseIteratorSTL9incrementEv@Base 3.2.1-1kern1
 _ZN8casacore5ArrayINS_6VectorINS_5SliceEEEE15BaseIteratorSTLC1ERKS4_@Base 3.2.1-1kern1
 _ZN8casacore5ArrayINS_6VectorINS_5SliceEEEE15BaseIteratorSTLC2ERKS4_@Base 3.2.1-1kern1
 _ZN8casacore5ArrayINS_6VectorINS_5SliceEEEE3setERKS3_@Base 3.2.1-1kern1
 _ZN8casacore5ArrayINS_6VectorIiEEE10assignBaseERKNS_9ArrayBaseEb@Base 3.2.1-1kern1
 _ZN8casacore5ArrayINS_6VectorIiEEE10getStorageERb@Base 3.2.1-1kern1
 _ZN8casacore5ArrayINS_6VectorIiEEE10putStorageERPS2_b@Base 3.2.1-1kern1
 _ZN8casacore5ArrayINS_6VectorIiEEE11getVStorageERb@Base 3.2.1-1kern1
 _ZN8casacore5ArrayINS_6VectorIiEEE11putVStorageERPvb@Base 3.2.1-1kern1
 _ZN8casacore5ArrayINS_6VectorIiEEE11takeStorageERKNS_9IPositionEPKS2_@Base 3.2.1-1kern1
 _ZN8casacore5ArrayINS_6VectorIiEEE11takeStorageERKNS_9IPositionEPKS2_RKNS_17AbstractAllocatorIS2_EE@Base 3.2.1-1kern1
 _ZN8casacore5ArrayINS_6VectorIiEEE11takeStorageERKNS_9IPositionEPS2_NS_17StorageInitPolicyE@Base 3.2.1-1kern1
 _ZN8casacore5ArrayINS_6VectorIiEEE11takeStorageERKNS_9IPositionEPS2_NS_17StorageInitPolicyERKNS_17AbstractAllocatorIS2_EE@Base 3.2.1-1kern1
 _ZN8casacore5ArrayINS_6VectorIiEEE14preTakeStorageERKNS_9IPositionE@Base 3.2.1-1kern1
 _ZN8casacore5ArrayINS_6VectorIiEEE15BaseIteratorSTL9incrementEv@Base 3.2.1-1kern1
 _ZN8casacore5ArrayINS_6VectorIiEEE15BaseIteratorSTLC1ERKS3_@Base 3.2.1-1kern1
 _ZN8casacore5ArrayINS_6VectorIiEEE15BaseIteratorSTLC2ERKS3_@Base 3.2.1-1kern1
 _ZN8casacore5ArrayINS_6VectorIiEEE15doNonDegenerateERKS3_RKNS_9IPositionE@Base 3.2.1-1kern1
 _ZN8casacore5ArrayINS_6VectorIiEEE15postTakeStorageEv@Base 3.2.1-1kern1
 _ZN8casacore5ArrayINS_6VectorIiEEE16copyMatchingPartERKS3_@Base 3.2.1-1kern1
 _ZN8casacore5ArrayINS_6VectorIiEEE23copyToContiguousStorageEPS2_RKS3_NS_15ArrayInitPolicyE@Base 3.2.1-1kern1
 _ZN8casacore5ArrayINS_6VectorIiEEE6assignERKS3_@Base 3.2.1-1kern1
 _ZN8casacore5ArrayINS_6VectorIiEEE6resizeERKNS_9IPositionEb@Base 3.2.1-1kern1
 _ZN8casacore5ArrayINS_6VectorIiEEE6resizeERKNS_9IPositionEbNS_15ArrayInitPolicyE@Base 3.2.1-1kern1
 _ZN8casacore5ArrayINS_6VectorIiEEE6resizeEv@Base 3.2.1-1kern1
 _ZN8casacore5ArrayINS_6VectorIiEEE9referenceERKS3_@Base 3.2.1-1kern1
 _ZN8casacore5ArrayINS_6VectorIiEEEC1ERKNS_9IPositionENS_15ArrayInitPolicyEPNS_17Allocator_private13BulkAllocatorIS2_EE@Base 3.2.1-1kern1
 _ZN8casacore5ArrayINS_6VectorIiEEEC1ERKS3_@Base 3.2.1-1kern1
 _ZN8casacore5ArrayINS_6VectorIiEEEC1Ev@Base 3.2.1-1kern1
 _ZN8casacore5ArrayINS_6VectorIiEEEC2ERKNS_9IPositionENS_15ArrayInitPolicyEPNS_17Allocator_private13BulkAllocatorIS2_EE@Base 3.2.1-1kern1
 _ZN8casacore5ArrayINS_6VectorIiEEEC2ERKS3_@Base 3.2.1-1kern1
 _ZN8casacore5ArrayINS_6VectorIiEEEC2Ev@Base 3.2.1-1kern1
 _ZN8casacore5ArrayINS_6VectorIiEEED0Ev@Base 3.2.1-1kern1
 _ZN8casacore5ArrayINS_6VectorIiEEED1Ev@Base 3.2.1-1kern1
 _ZN8casacore5ArrayINS_6VectorIiEEED2Ev@Base 3.2.1-1kern1
 _ZN8casacore5ArrayINS_6VectorIiEEEaSERKS3_@Base 3.2.1-1kern1
 _ZN8casacore5ArrayINS_6VectorIiEEEclERKNS_6SlicerE@Base 3.2.1-1kern1
 _ZN8casacore5ArrayINS_6VectorIiEEEclERKNS_9IPositionES6_@Base 3.2.1-1kern1
 _ZN8casacore5ArrayINS_6VectorIiEEEclERKNS_9IPositionES6_S6_@Base 3.2.1-1kern1
 _ZN8casacore5ArrayINS_7QuantumIdEEE10assignBaseERKNS_9ArrayBaseEb@Base 3.2.1-1kern1
 _ZN8casacore5ArrayINS_7QuantumIdEEE10getStorageERb@Base 3.2.1-1kern1
 _ZN8casacore5ArrayINS_7QuantumIdEEE10putStorageERPS2_b@Base 3.2.1-1kern1
 _ZN8casacore5ArrayINS_7QuantumIdEEE11getVStorageERb@Base 3.2.1-1kern1
 _ZN8casacore5ArrayINS_7QuantumIdEEE11putVStorageERPvb@Base 3.2.1-1kern1
 _ZN8casacore5ArrayINS_7QuantumIdEEE11takeStorageERKNS_9IPositionEPKS2_@Base 3.2.1-1kern1
 _ZN8casacore5ArrayINS_7QuantumIdEEE11takeStorageERKNS_9IPositionEPKS2_RKNS_17AbstractAllocatorIS2_EE@Base 3.2.1-1kern1
 _ZN8casacore5ArrayINS_7QuantumIdEEE11takeStorageERKNS_9IPositionEPS2_NS_17StorageInitPolicyE@Base 3.2.1-1kern1
 _ZN8casacore5ArrayINS_7QuantumIdEEE11takeStorageERKNS_9IPositionEPS2_NS_17StorageInitPolicyERKNS_17AbstractAllocatorIS2_EE@Base 3.2.1-1kern1
 _ZN8casacore5ArrayINS_7QuantumIdEEE14preTakeStorageERKNS_9IPositionE@Base 3.2.1-1kern1
 _ZN8casacore5ArrayINS_7QuantumIdEEE15BaseIteratorSTL9incrementEv@Base 3.2.1-1kern1
 _ZN8casacore5ArrayINS_7QuantumIdEEE15BaseIteratorSTLC1ERKS3_@Base 3.2.1-1kern1
 _ZN8casacore5ArrayINS_7QuantumIdEEE15BaseIteratorSTLC2ERKS3_@Base 3.2.1-1kern1
 _ZN8casacore5ArrayINS_7QuantumIdEEE15doNonDegenerateERKS3_RKNS_9IPositionE@Base 3.2.1-1kern1
 _ZN8casacore5ArrayINS_7QuantumIdEEE15postTakeStorageEv@Base 3.2.1-1kern1
 _ZN8casacore5ArrayINS_7QuantumIdEEE16copyMatchingPartERKS3_@Base 3.2.1-1kern1
 _ZN8casacore5ArrayINS_7QuantumIdEEE23copyToContiguousStorageEPS2_RKS3_NS_15ArrayInitPolicyE@Base 3.2.1-1kern1
 _ZN8casacore5ArrayINS_7QuantumIdEEE6assignERKS3_@Base 3.2.1-1kern1
 _ZN8casacore5ArrayINS_7QuantumIdEEE6resizeERKNS_9IPositionEb@Base 3.2.1-1kern1
 _ZN8casacore5ArrayINS_7QuantumIdEEE6resizeERKNS_9IPositionEbNS_15ArrayInitPolicyE@Base 3.2.1-1kern1
 _ZN8casacore5ArrayINS_7QuantumIdEEE6resizeEv@Base 3.2.1-1kern1
 _ZN8casacore5ArrayINS_7QuantumIdEEE9referenceERKS3_@Base 3.2.1-1kern1
 _ZN8casacore5ArrayINS_7QuantumIdEEEC1ERKNS_9IPositionE@Base 3.2.1-1kern1
 _ZN8casacore5ArrayINS_7QuantumIdEEEC1ERKNS_9IPositionENS_15ArrayInitPolicyEPNS_17Allocator_private13BulkAllocatorIS2_EE@Base 3.2.1-1kern1
 _ZN8casacore5ArrayINS_7QuantumIdEEEC1ERKNS_9IPositionERKS2_@Base 3.2.1-1kern1
 _ZN8casacore5ArrayINS_7QuantumIdEEEC1ERKS3_@Base 3.2.1-1kern1
 _ZN8casacore5ArrayINS_7QuantumIdEEEC1Ev@Base 3.2.1-1kern1
 _ZN8casacore5ArrayINS_7QuantumIdEEEC2ERKNS_9IPositionE@Base 3.2.1-1kern1
 _ZN8casacore5ArrayINS_7QuantumIdEEEC2ERKNS_9IPositionENS_15ArrayInitPolicyEPNS_17Allocator_private13BulkAllocatorIS2_EE@Base 3.2.1-1kern1
 _ZN8casacore5ArrayINS_7QuantumIdEEEC2ERKNS_9IPositionERKS2_@Base 3.2.1-1kern1
 _ZN8casacore5ArrayINS_7QuantumIdEEEC2ERKS3_@Base 3.2.1-1kern1
 _ZN8casacore5ArrayINS_7QuantumIdEEEC2Ev@Base 3.2.1-1kern1
 _ZN8casacore5ArrayINS_7QuantumIdEEED0Ev@Base 3.2.1-1kern1
 _ZN8casacore5ArrayINS_7QuantumIdEEED1Ev@Base 3.2.1-1kern1
 _ZN8casacore5ArrayINS_7QuantumIdEEED2Ev@Base 3.2.1-1kern1
 _ZN8casacore5ArrayINS_7QuantumIdEEEaSERKS3_@Base 3.2.1-1kern1
 _ZN8casacore5ArrayINS_7QuantumIdEEEclERKNS_6SlicerE@Base 3.2.1-1kern1
 _ZN8casacore5ArrayINS_7QuantumIdEEEclERKNS_9IPositionES6_@Base 3.2.1-1kern1
 _ZN8casacore5ArrayINS_7QuantumIdEEEclERKNS_9IPositionES6_S6_@Base 3.2.1-1kern1
 _ZN8casacore5ArrayINS_9MPositionEE10assignBaseERKNS_9ArrayBaseEb@Base 3.2.1-1kern1
 _ZN8casacore5ArrayINS_9MPositionEE10getStorageERb@Base 3.2.1-1kern1
 _ZN8casacore5ArrayINS_9MPositionEE10putStorageERPS1_b@Base 3.2.1-1kern1
 _ZN8casacore5ArrayINS_9MPositionEE11getVStorageERb@Base 3.2.1-1kern1
 _ZN8casacore5ArrayINS_9MPositionEE11putVStorageERPvb@Base 3.2.1-1kern1
 _ZN8casacore5ArrayINS_9MPositionEE11takeStorageERKNS_9IPositionEPKS1_@Base 3.2.1-1kern1
 _ZN8casacore5ArrayINS_9MPositionEE11takeStorageERKNS_9IPositionEPKS1_RKNS_17AbstractAllocatorIS1_EE@Base 3.2.1-1kern1
 _ZN8casacore5ArrayINS_9MPositionEE11takeStorageERKNS_9IPositionEPS1_NS_17StorageInitPolicyE@Base 3.2.1-1kern1
 _ZN8casacore5ArrayINS_9MPositionEE11takeStorageERKNS_9IPositionEPS1_NS_17StorageInitPolicyERKNS_17AbstractAllocatorIS1_EE@Base 3.2.1-1kern1
 _ZN8casacore5ArrayINS_9MPositionEE14preTakeStorageERKNS_9IPositionE@Base 3.2.1-1kern1
 _ZN8casacore5ArrayINS_9MPositionEE15BaseIteratorSTL9incrementEv@Base 3.2.1-1kern1
 _ZN8casacore5ArrayINS_9MPositionEE15BaseIteratorSTLC1ERKS2_@Base 3.2.1-1kern1
 _ZN8casacore5ArrayINS_9MPositionEE15BaseIteratorSTLC2ERKS2_@Base 3.2.1-1kern1
 _ZN8casacore5ArrayINS_9MPositionEE15doNonDegenerateERKS2_RKNS_9IPositionE@Base 3.2.1-1kern1
 _ZN8casacore5ArrayINS_9MPositionEE15postTakeStorageEv@Base 3.2.1-1kern1
 _ZN8casacore5ArrayINS_9MPositionEE16copyMatchingPartERKS2_@Base 3.2.1-1kern1
 _ZN8casacore5ArrayINS_9MPositionEE23copyToContiguousStorageEPS1_RKS2_NS_15ArrayInitPolicyE@Base 3.2.1-1kern1
 _ZN8casacore5ArrayINS_9MPositionEE6assignERKS2_@Base 3.2.1-1kern1
 _ZN8casacore5ArrayINS_9MPositionEE6resizeERKNS_9IPositionEb@Base 3.2.1-1kern1
 _ZN8casacore5ArrayINS_9MPositionEE6resizeERKNS_9IPositionEbNS_15ArrayInitPolicyE@Base 3.2.1-1kern1
 _ZN8casacore5ArrayINS_9MPositionEE6resizeEv@Base 3.2.1-1kern1
 _ZN8casacore5ArrayINS_9MPositionEE9referenceERKS2_@Base 3.2.1-1kern1
 _ZN8casacore5ArrayINS_9MPositionEEC1ERKNS_9IPositionENS_15ArrayInitPolicyEPNS_17Allocator_private13BulkAllocatorIS1_EE@Base 3.2.1-1kern1
 _ZN8casacore5ArrayINS_9MPositionEEC1ERKS2_@Base 3.2.1-1kern1
 _ZN8casacore5ArrayINS_9MPositionEEC1Ev@Base 3.2.1-1kern1
 _ZN8casacore5ArrayINS_9MPositionEEC2ERKNS_9IPositionENS_15ArrayInitPolicyEPNS_17Allocator_private13BulkAllocatorIS1_EE@Base 3.2.1-1kern1
 _ZN8casacore5ArrayINS_9MPositionEEC2ERKS2_@Base 3.2.1-1kern1
 _ZN8casacore5ArrayINS_9MPositionEEC2Ev@Base 3.2.1-1kern1
 _ZN8casacore5ArrayINS_9MPositionEED0Ev@Base 3.2.1-1kern1
 _ZN8casacore5ArrayINS_9MPositionEED1Ev@Base 3.2.1-1kern1
 _ZN8casacore5ArrayINS_9MPositionEED2Ev@Base 3.2.1-1kern1
 _ZN8casacore5ArrayINS_9MPositionEEaSERKS2_@Base 3.2.1-1kern1
 _ZN8casacore5ArrayINS_9MPositionEEclERKNS_6SlicerE@Base 3.2.1-1kern1
 _ZN8casacore5ArrayINS_9MPositionEEclERKNS_9IPositionES5_@Base 3.2.1-1kern1
 _ZN8casacore5ArrayINS_9MPositionEEclERKNS_9IPositionES5_S5_@Base 3.2.1-1kern1
 _ZN8casacore5ArrayIPNS_9MeasCometEE10assignBaseERKNS_9ArrayBaseEb@Base 3.2.1-1kern1
 _ZN8casacore5ArrayIPNS_9MeasCometEE10getStorageERb@Base 3.2.1-1kern1
 _ZN8casacore5ArrayIPNS_9MeasCometEE10putStorageERPS2_b@Base 3.2.1-1kern1
 _ZN8casacore5ArrayIPNS_9MeasCometEE11getVStorageERb@Base 3.2.1-1kern1
 _ZN8casacore5ArrayIPNS_9MeasCometEE11putVStorageERPvb@Base 3.2.1-1kern1
 _ZN8casacore5ArrayIPNS_9MeasCometEE11takeStorageERKNS_9IPositionEPKS2_@Base 3.2.1-1kern1
 _ZN8casacore5ArrayIPNS_9MeasCometEE11takeStorageERKNS_9IPositionEPKS2_RKNS_17AbstractAllocatorIS2_EE@Base 3.2.1-1kern1
 _ZN8casacore5ArrayIPNS_9MeasCometEE11takeStorageERKNS_9IPositionEPS2_NS_17StorageInitPolicyE@Base 3.2.1-1kern1
 _ZN8casacore5ArrayIPNS_9MeasCometEE11takeStorageERKNS_9IPositionEPS2_NS_17StorageInitPolicyERKNS_17AbstractAllocatorIS2_EE@Base 3.2.1-1kern1
 _ZN8casacore5ArrayIPNS_9MeasCometEE14preTakeStorageERKNS_9IPositionE@Base 3.2.1-1kern1
 _ZN8casacore5ArrayIPNS_9MeasCometEE15BaseIteratorSTL9incrementEv@Base 3.2.1-1kern1
 _ZN8casacore5ArrayIPNS_9MeasCometEE15BaseIteratorSTLC1ERKS3_@Base 3.2.1-1kern1
 _ZN8casacore5ArrayIPNS_9MeasCometEE15BaseIteratorSTLC2ERKS3_@Base 3.2.1-1kern1
 _ZN8casacore5ArrayIPNS_9MeasCometEE15doNonDegenerateERKS3_RKNS_9IPositionE@Base 3.2.1-1kern1
 _ZN8casacore5ArrayIPNS_9MeasCometEE15postTakeStorageEv@Base 3.2.1-1kern1
 _ZN8casacore5ArrayIPNS_9MeasCometEE16copyMatchingPartERKS3_@Base 3.2.1-1kern1
 _ZN8casacore5ArrayIPNS_9MeasCometEE23copyToContiguousStorageEPS2_RKS3_NS_15ArrayInitPolicyE@Base 3.2.1-1kern1
 _ZN8casacore5ArrayIPNS_9MeasCometEE6assignERKS3_@Base 3.2.1-1kern1
 _ZN8casacore5ArrayIPNS_9MeasCometEE6resizeERKNS_9IPositionEb@Base 3.2.1-1kern1
 _ZN8casacore5ArrayIPNS_9MeasCometEE6resizeERKNS_9IPositionEbNS_15ArrayInitPolicyE@Base 3.2.1-1kern1
 _ZN8casacore5ArrayIPNS_9MeasCometEE6resizeEv@Base 3.2.1-1kern1
 _ZN8casacore5ArrayIPNS_9MeasCometEE9referenceERKS3_@Base 3.2.1-1kern1
 _ZN8casacore5ArrayIPNS_9MeasCometEEC1ERKNS_9IPositionENS_15ArrayInitPolicyEPNS_17Allocator_private13BulkAllocatorIS2_EE@Base 3.2.1-1kern1
 _ZN8casacore5ArrayIPNS_9MeasCometEEC1ERKS3_@Base 3.2.1-1kern1
 _ZN8casacore5ArrayIPNS_9MeasCometEEC1Ev@Base 3.2.1-1kern1
 _ZN8casacore5ArrayIPNS_9MeasCometEEC2ERKNS_9IPositionENS_15ArrayInitPolicyEPNS_17Allocator_private13BulkAllocatorIS2_EE@Base 3.2.1-1kern1
 _ZN8casacore5ArrayIPNS_9MeasCometEEC2ERKS3_@Base 3.2.1-1kern1
 _ZN8casacore5ArrayIPNS_9MeasCometEEC2Ev@Base 3.2.1-1kern1
 _ZN8casacore5ArrayIPNS_9MeasCometEED0Ev@Base 3.2.1-1kern1
 _ZN8casacore5ArrayIPNS_9MeasCometEED1Ev@Base 3.2.1-1kern1
 _ZN8casacore5ArrayIPNS_9MeasCometEED2Ev@Base 3.2.1-1kern1
 _ZN8casacore5ArrayIPNS_9MeasCometEEaSERKS3_@Base 3.2.1-1kern1
 _ZN8casacore5ArrayIPNS_9MeasCometEEclERKNS_6SlicerE@Base 3.2.1-1kern1
 _ZN8casacore5ArrayIPNS_9MeasCometEEclERKNS_9IPositionES6_@Base 3.2.1-1kern1
 _ZN8casacore5ArrayIPNS_9MeasCometEEclERKNS_9IPositionES6_S6_@Base 3.2.1-1kern1
 _ZN8casacore5ArrayIdE15BaseIteratorSTLC1ERKS2_@Base 3.2.1-1kern1
 _ZN8casacore5ArrayIdE15BaseIteratorSTLC2ERKS2_@Base 3.2.1-1kern1
 _ZN8casacore5ArrayIiE15BaseIteratorSTLC1ERKS2_@Base 3.2.1-1kern1
 _ZN8casacore5ArrayIiE15BaseIteratorSTLC2ERKS2_@Base 3.2.1-1kern1
 _ZN8casacore5BlockINS_10CountedPtrINS_11BaseCompareEEEE6deinitEv@Base 3.2.1-1kern1
 _ZN8casacore5BlockINS_10MDirectionEE4initENS_15ArrayInitPolicyE@Base 3.2.1-1kern1
 _ZN8casacore5BlockINS_10MDirectionEE6deinitEv@Base 3.2.1-1kern1
 _ZN8casacore5BlockINS_10MDirectionEE7deallocEv@Base 3.2.1-1kern1
 _ZN8casacore5BlockINS_10MFrequencyEE4initENS_15ArrayInitPolicyE@Base 3.2.1-1kern1
 _ZN8casacore5BlockINS_10MFrequencyEE6deinitEv@Base 3.2.1-1kern1
 _ZN8casacore5BlockINS_10MFrequencyEE7deallocEv@Base 3.2.1-1kern1
 _ZN8casacore5BlockINS_10ROTableRowEE6deinitEv@Base 3.2.1-1kern1
 _ZN8casacore5BlockINS_11RigidVectorIdLi2EEEE4initENS_15ArrayInitPolicyE@Base 3.2.1-1kern1
 _ZN8casacore5BlockINS_11RigidVectorIdLi2EEEE6deinitEv@Base 3.2.1-1kern1
 _ZN8casacore5BlockINS_11RigidVectorIdLi2EEEE7deallocEv@Base 3.2.1-1kern1
 _ZN8casacore5BlockINS_12MSTableIndexEE6deinitEv@Base 3.2.1-1kern1
 _ZN8casacore5BlockINS_12SquareMatrixISt7complexIfELi2EEEE4initENS_15ArrayInitPolicyE@Base 3.2.1-1kern1
 _ZN8casacore5BlockINS_12SquareMatrixISt7complexIfELi2EEEE6deinitEv@Base 3.2.1-1kern1
 _ZN8casacore5BlockINS_14MeasurementSetEE6deinitEv@Base 3.2.1-1kern1
 _ZN8casacore5BlockINS_14MeasurementSetEE6resizeEmbbNS_15ArrayInitPolicyE@Base 3.2.1-1kern1
 _ZN8casacore5BlockINS_14RecordFieldPtrIiEEE6deinitEv@Base 3.2.1-1kern1
 _ZN8casacore5BlockINS_4UnitEE4initENS_15ArrayInitPolicyE@Base 3.2.1-1kern1
 _ZN8casacore5BlockINS_4UnitEE6deinitEv@Base 3.2.1-1kern1
 _ZN8casacore5BlockINS_4UnitEE7deallocEv@Base 3.2.1-1kern1
 _ZN8casacore5BlockINS_5SliceEE4initENS_15ArrayInitPolicyE@Base 3.2.1-1kern1
 _ZN8casacore5BlockINS_5SliceEE6deinitEv@Base 3.2.1-1kern1
 _ZN8casacore5BlockINS_6Stokes11StokesTypesEE4initENS_15ArrayInitPolicyE@Base 3.2.1-1kern1
 _ZN8casacore5BlockINS_6Stokes11StokesTypesEE6deinitEv@Base 3.2.1-1kern1
 _ZN8casacore5BlockINS_6Stokes11StokesTypesEE7deallocEv@Base 3.2.1-1kern1
 _ZN8casacore5BlockINS_6VectorIiEEE4initENS_15ArrayInitPolicyE@Base 3.2.1-1kern1
 _ZN8casacore5BlockINS_6VectorIiEEE6deinitEv@Base 3.2.1-1kern1
 _ZN8casacore5BlockINS_6VectorIiEEE6resizeEmbbNS_15ArrayInitPolicyE@Base 3.2.1-1kern1
 _ZN8casacore5BlockINS_6VectorIiEEE7deallocEv@Base 3.2.1-1kern1
 _ZN8casacore5BlockINS_7QuantumIdEEE4initENS_15ArrayInitPolicyE@Base 3.2.1-1kern1
 _ZN8casacore5BlockINS_7QuantumIdEEE6deinitEv@Base 3.2.1-1kern1
 _ZN8casacore5BlockINS_7QuantumIdEEE7deallocEv@Base 3.2.1-1kern1
 _ZN8casacore5BlockINS_9MPositionEE4initENS_15ArrayInitPolicyE@Base 3.2.1-1kern1
 _ZN8casacore5BlockINS_9MPositionEE6deinitEv@Base 3.2.1-1kern1
 _ZN8casacore5BlockIPNS_9MeasCometEE6deinitEv@Base 3.2.1-1kern1
 _ZN8casacore5areEQINS_6StringEEEbRKNS_11ArrayColumnIT_EEjj@Base 3.2.1-1kern1
 _ZN8casacore5areEQINS_6StringEEEbRKNS_12ScalarColumnIT_EEjj@Base 3.2.1-1kern1
 _ZN8casacore5areEQIdEEbRKNS_11ArrayColumnIT_EEjj@Base 3.2.1-1kern1
 _ZN8casacore5areEQIiEEbRKNS_12ScalarColumnIT_EEjj@Base 3.2.1-1kern1
 _ZN8casacore5splitERKNS_6StringEcRNS_6VectorIS0_EE@Base 3.2.1-1kern1
 _ZN8casacore6COWPtrINS_13RecordDescRepEE10makeUniqueEv@Base 3.2.1-1kern1
 _ZN8casacore6MSFeed8initMapsEv@Base 3.2.1-1kern1
 _ZN8casacore6MSFeedC1ERKNS_5TableE@Base 3.2.1-1kern1
 _ZN8casacore6MSFeedC1ERKNS_6StringENS_5Table11TableOptionE@Base 3.2.1-1kern1
 _ZN8casacore6MSFeedC1ERKNS_6StringES3_NS_5Table11TableOptionE@Base 3.2.1-1kern1
 _ZN8casacore6MSFeedC1ERKS0_@Base 3.2.1-1kern1
 _ZN8casacore6MSFeedC1ERNS_13SetupNewTableEjb@Base 3.2.1-1kern1
 _ZN8casacore6MSFeedC1Ev@Base 3.2.1-1kern1
 _ZN8casacore6MSFeedC2ERKNS_5TableE@Base 3.2.1-1kern1
 _ZN8casacore6MSFeedC2ERKNS_6StringENS_5Table11TableOptionE@Base 3.2.1-1kern1
 _ZN8casacore6MSFeedC2ERKNS_6StringES3_NS_5Table11TableOptionE@Base 3.2.1-1kern1
 _ZN8casacore6MSFeedC2ERKS0_@Base 3.2.1-1kern1
 _ZN8casacore6MSFeedC2ERNS_13SetupNewTableEjb@Base 3.2.1-1kern1
 _ZN8casacore6MSFeedC2Ev@Base 3.2.1-1kern1
 _ZN8casacore6MSFeedD0Ev@Base 3.2.1-1kern1
 _ZN8casacore6MSFeedD1Ev@Base 3.2.1-1kern1
 _ZN8casacore6MSFeedD2Ev@Base 3.2.1-1kern1
 _ZN8casacore6MSFeedaSERKS0_@Base 3.2.1-1kern1
 _ZN8casacore6MSIter11setFeedInfoEv@Base 3.2.1-1kern1
 _ZN8casacore6MSIter11setIntervalEd@Base 3.2.1-1kern1
 _ZN8casacore6MSIter12setArrayInfoEv@Base 3.2.1-1kern1
 _ZN8casacore6MSIter12setFieldInfoEv@Base 3.2.1-1kern1
 _ZN8casacore6MSIter15setDataDescInfoEv@Base 3.2.1-1kern1
 _ZN8casacore6MSIter17getSpwInFreqRangeERNS_5BlockINS_6VectorIiEEEES5_S5_ddd@Base 3.2.1-1kern1
 _ZN8casacore6MSIter6originEv@Base 3.2.1-1kern1
 _ZN8casacore6MSIter7advanceEv@Base 3.2.1-1kern1
 _ZN8casacore6MSIter8isSubSetERKNS_6VectorIjEES4_@Base 3.2.1-1kern1
 _ZN8casacore6MSIter8setStateEv@Base 3.2.1-1kern1
 _ZN8casacore6MSIter9constructERKNS_5BlockIiEEb@Base 3.2.1-1kern1
 _ZN8casacore6MSIter9setMSInfoEv@Base 3.2.1-1kern1
 _ZN8casacore6MSIterC1ERKNS_14MeasurementSetERKNS_5BlockIiEEdbb@Base 3.2.1-1kern1
 _ZN8casacore6MSIterC1ERKNS_5BlockINS_14MeasurementSetEEERKNS1_IiEEdbb@Base 3.2.1-1kern1
 _ZN8casacore6MSIterC1ERKS0_@Base 3.2.1-1kern1
 _ZN8casacore6MSIterC1Ev@Base 3.2.1-1kern1
 _ZN8casacore6MSIterC2ERKNS_14MeasurementSetERKNS_5BlockIiEEdbb@Base 3.2.1-1kern1
 _ZN8casacore6MSIterC2ERKNS_5BlockINS_14MeasurementSetEEERKNS1_IiEEdbb@Base 3.2.1-1kern1
 _ZN8casacore6MSIterC2ERKS0_@Base 3.2.1-1kern1
 _ZN8casacore6MSIterC2Ev@Base 3.2.1-1kern1
 _ZN8casacore6MSIterD0Ev@Base 3.2.1-1kern1
 _ZN8casacore6MSIterD1Ev@Base 3.2.1-1kern1
 _ZN8casacore6MSIterD2Ev@Base 3.2.1-1kern1
 _ZN8casacore6MSIteraSERKS0_@Base 3.2.1-1kern1
 _ZN8casacore6MSIterppEi@Base 3.2.1-1kern1
 _ZN8casacore6MSIterppEv@Base 3.2.1-1kern1
 _ZN8casacore6MatrixINS_12SquareMatrixISt7complexIfELi2EEEE14preTakeStorageERKNS_9IPositionE@Base 3.2.1-1kern1
 _ZN8casacore6MatrixINS_12SquareMatrixISt7complexIfELi2EEEE15doNonDegenerateERKNS_5ArrayIS4_EERKNS_9IPositionE@Base 3.2.1-1kern1
 _ZN8casacore6MatrixINS_12SquareMatrixISt7complexIfELi2EEEE15postTakeStorageEv@Base 3.2.1-1kern1
 _ZN8casacore6MatrixINS_12SquareMatrixISt7complexIfELi2EEEE6assignERKNS_5ArrayIS4_EE@Base 3.2.1-1kern1
 _ZN8casacore6MatrixINS_12SquareMatrixISt7complexIfELi2EEEE6columnEm@Base 3.2.1-1kern1
 _ZN8casacore6MatrixINS_12SquareMatrixISt7complexIfELi2EEEE6resizeERKNS_9IPositionEbNS_15ArrayInitPolicyE@Base 3.2.1-1kern1
 _ZN8casacore6MatrixINS_12SquareMatrixISt7complexIfELi2EEEE6resizeEv@Base 3.2.1-1kern1
 _ZN8casacore6MatrixINS_12SquareMatrixISt7complexIfELi2EEEE9referenceERKNS_5ArrayIS4_EE@Base 3.2.1-1kern1
 _ZN8casacore6MatrixINS_12SquareMatrixISt7complexIfELi2EEEEC1ERKNS_5ArrayIS4_EE@Base 3.2.1-1kern1
 _ZN8casacore6MatrixINS_12SquareMatrixISt7complexIfELi2EEEEC1Ev@Base 3.2.1-1kern1
 _ZN8casacore6MatrixINS_12SquareMatrixISt7complexIfELi2EEEEC2ERKNS_5ArrayIS4_EE@Base 3.2.1-1kern1
 _ZN8casacore6MatrixINS_12SquareMatrixISt7complexIfELi2EEEEC2Ev@Base 3.2.1-1kern1
 _ZN8casacore6MatrixINS_12SquareMatrixISt7complexIfELi2EEEED0Ev@Base 3.2.1-1kern1
 _ZN8casacore6MatrixINS_12SquareMatrixISt7complexIfELi2EEEED1Ev@Base 3.2.1-1kern1
 _ZN8casacore6MatrixINS_12SquareMatrixISt7complexIfELi2EEEED2Ev@Base 3.2.1-1kern1
 _ZN8casacore6MatrixINS_12SquareMatrixISt7complexIfELi2EEEEaSERKNS_5ArrayIS4_EE@Base 3.2.1-1kern1
 _ZN8casacore6MatrixINS_12SquareMatrixISt7complexIfELi2EEEEaSERKS5_@Base 3.2.1-1kern1
 _ZN8casacore6MatrixINS_12SquareMatrixISt7complexIfELi2EEEEclERKNS_5SliceES8_@Base 3.2.1-1kern1
 _ZN8casacore6MatrixINS_6StringEE14preTakeStorageERKNS_9IPositionE@Base 3.2.1-1kern1
 _ZN8casacore6MatrixINS_6StringEE15doNonDegenerateERKNS_5ArrayIS1_EERKNS_9IPositionE@Base 3.2.1-1kern1
 _ZN8casacore6MatrixINS_6StringEE15postTakeStorageEv@Base 3.2.1-1kern1
 _ZN8casacore6MatrixINS_6StringEE6assignERKNS_5ArrayIS1_EE@Base 3.2.1-1kern1
 _ZN8casacore6MatrixINS_6StringEE6columnEm@Base 3.2.1-1kern1
 _ZN8casacore6MatrixINS_6StringEE6resizeERKNS_9IPositionEbNS_15ArrayInitPolicyE@Base 3.2.1-1kern1
 _ZN8casacore6MatrixINS_6StringEE6resizeEv@Base 3.2.1-1kern1
 _ZN8casacore6MatrixINS_6StringEE9referenceERKNS_5ArrayIS1_EE@Base 3.2.1-1kern1
 _ZN8casacore6MatrixINS_6StringEEC1ERKNS_5ArrayIS1_EE@Base 3.2.1-1kern1
 _ZN8casacore6MatrixINS_6StringEEC2ERKNS_5ArrayIS1_EE@Base 3.2.1-1kern1
 _ZN8casacore6MatrixINS_6StringEED0Ev@Base 3.2.1-1kern1
 _ZN8casacore6MatrixINS_6StringEED1Ev@Base 3.2.1-1kern1
 _ZN8casacore6MatrixINS_6StringEED2Ev@Base 3.2.1-1kern1
 _ZN8casacore6MatrixINS_6StringEEaSERKNS_5ArrayIS1_EE@Base 3.2.1-1kern1
 _ZN8casacore6MatrixINS_6StringEEclERKNS_5SliceES5_@Base 3.2.1-1kern1
 _ZN8casacore6MatrixIiE14preTakeStorageERKNS_9IPositionE@Base 3.2.1-1kern1
 _ZN8casacore6MatrixIiE15doNonDegenerateERKNS_5ArrayIiEERKNS_9IPositionE@Base 3.2.1-1kern1
 _ZN8casacore6MatrixIiE15postTakeStorageEv@Base 3.2.1-1kern1
 _ZN8casacore6MatrixIiE3rowEm@Base 3.2.1-1kern1
 _ZN8casacore6MatrixIiE6assignERKNS_5ArrayIiEE@Base 3.2.1-1kern1
 _ZN8casacore6MatrixIiE6columnEm@Base 3.2.1-1kern1
 _ZN8casacore6MatrixIiE6resizeERKNS_9IPositionEbNS_15ArrayInitPolicyE@Base 3.2.1-1kern1
 _ZN8casacore6MatrixIiE6resizeEmmbNS_15ArrayInitPolicyE@Base 3.2.1-1kern1
 _ZN8casacore6MatrixIiE6resizeEv@Base 3.2.1-1kern1
 _ZN8casacore6MatrixIiE9referenceERKNS_5ArrayIiEE@Base 3.2.1-1kern1
 _ZN8casacore6MatrixIiEC1ERKNS_5ArrayIiEE@Base 3.2.1-1kern1
 _ZN8casacore6MatrixIiEC1Emm@Base 3.2.1-1kern1
 _ZN8casacore6MatrixIiEC1Ev@Base 3.2.1-1kern1
 _ZN8casacore6MatrixIiEC2ERKNS_5ArrayIiEE@Base 3.2.1-1kern1
 _ZN8casacore6MatrixIiEC2Emm@Base 3.2.1-1kern1
 _ZN8casacore6MatrixIiEC2Ev@Base 3.2.1-1kern1
 _ZN8casacore6MatrixIiED0Ev@Base 3.2.1-1kern1
 _ZN8casacore6MatrixIiED1Ev@Base 3.2.1-1kern1
 _ZN8casacore6MatrixIiED2Ev@Base 3.2.1-1kern1
 _ZN8casacore6MatrixIiEaSERKNS_5ArrayIiEE@Base 3.2.1-1kern1
 _ZN8casacore6MatrixIiEaSERKS1_@Base 3.2.1-1kern1
 _ZN8casacore6MatrixIiEclERKNS_5SliceES4_@Base 3.2.1-1kern1
 _ZN8casacore6SlicerD1Ev@Base 3.2.1-1kern1
 _ZN8casacore6SlicerD2Ev@Base 3.2.1-1kern1
 _ZN8casacore6String8toStringIdEES0_RKT_@Base 3.2.1-1kern1
 _ZN8casacore6String8toStringIiEES0_RKT_@Base 3.2.1-1kern1
 _ZN8casacore6String8toStringIjEES0_RKT_@Base 3.2.1-1kern1
 _ZN8casacore6String8toStringImEES0_RKT_@Base 3.2.1-1kern1
 _ZN8casacore6String8toStringIyEES0_RKT_@Base 3.2.1-1kern1
 _ZN8casacore6StringD1Ev@Base 3.2.1-1kern1
 _ZN8casacore6StringD2Ev@Base 3.2.1-1kern1
 _ZN8casacore6VectorINS0_IiEEE14preTakeStorageERKNS_9IPositionE@Base 3.2.1-1kern1
 _ZN8casacore6VectorINS0_IiEEE15doNonDegenerateERKNS_5ArrayIS1_EERKNS_9IPositionE@Base 3.2.1-1kern1
 _ZN8casacore6VectorINS0_IiEEE6assignERKNS_5ArrayIS1_EE@Base 3.2.1-1kern1
 _ZN8casacore6VectorINS0_IiEEE6resizeERKNS_9IPositionEbNS_15ArrayInitPolicyE@Base 3.2.1-1kern1
 _ZN8casacore6VectorINS0_IiEEE6resizeEv@Base 3.2.1-1kern1
 _ZN8casacore6VectorINS0_IiEEE9referenceERKNS_5ArrayIS1_EE@Base 3.2.1-1kern1
 _ZN8casacore6VectorINS0_IiEEED0Ev@Base 3.2.1-1kern1
 _ZN8casacore6VectorINS0_IiEEED1Ev@Base 3.2.1-1kern1
 _ZN8casacore6VectorINS0_IiEEED2Ev@Base 3.2.1-1kern1
 _ZN8casacore6VectorINS0_IiEEEaSERKNS_5ArrayIS1_EE@Base 3.2.1-1kern1
 _ZN8casacore6VectorINS0_IiEEEaSERKS2_@Base 3.2.1-1kern1
 _ZN8casacore6VectorINS_10MDirectionEE14preTakeStorageERKNS_9IPositionE@Base 3.2.1-1kern1
 _ZN8casacore6VectorINS_10MDirectionEE15doNonDegenerateERKNS_5ArrayIS1_EERKNS_9IPositionE@Base 3.2.1-1kern1
 _ZN8casacore6VectorINS_10MDirectionEE6assignERKNS_5ArrayIS1_EE@Base 3.2.1-1kern1
 _ZN8casacore6VectorINS_10MDirectionEE6resizeERKNS_9IPositionEbNS_15ArrayInitPolicyE@Base 3.2.1-1kern1
 _ZN8casacore6VectorINS_10MDirectionEE6resizeEv@Base 3.2.1-1kern1
 _ZN8casacore6VectorINS_10MDirectionEE9referenceERKNS_5ArrayIS1_EE@Base 3.2.1-1kern1
 _ZN8casacore6VectorINS_10MDirectionEEC1ERKNS_5ArrayIS1_EE@Base 3.2.1-1kern1
 _ZN8casacore6VectorINS_10MDirectionEEC1Em@Base 3.2.1-1kern1
 _ZN8casacore6VectorINS_10MDirectionEEC1Ev@Base 3.2.1-1kern1
 _ZN8casacore6VectorINS_10MDirectionEEC2ERKNS_5ArrayIS1_EE@Base 3.2.1-1kern1
 _ZN8casacore6VectorINS_10MDirectionEEC2Em@Base 3.2.1-1kern1
 _ZN8casacore6VectorINS_10MDirectionEEC2Ev@Base 3.2.1-1kern1
 _ZN8casacore6VectorINS_10MDirectionEED0Ev@Base 3.2.1-1kern1
 _ZN8casacore6VectorINS_10MDirectionEED1Ev@Base 3.2.1-1kern1
 _ZN8casacore6VectorINS_10MDirectionEED2Ev@Base 3.2.1-1kern1
 _ZN8casacore6VectorINS_10MDirectionEEaSERKNS_5ArrayIS1_EE@Base 3.2.1-1kern1
 _ZN8casacore6VectorINS_10MDirectionEEaSERKS2_@Base 3.2.1-1kern1
 _ZN8casacore6VectorINS_10MFrequencyEE14preTakeStorageERKNS_9IPositionE@Base 3.2.1-1kern1
 _ZN8casacore6VectorINS_10MFrequencyEE15doNonDegenerateERKNS_5ArrayIS1_EERKNS_9IPositionE@Base 3.2.1-1kern1
 _ZN8casacore6VectorINS_10MFrequencyEE6assignERKNS_5ArrayIS1_EE@Base 3.2.1-1kern1
 _ZN8casacore6VectorINS_10MFrequencyEE6resizeERKNS_9IPositionEbNS_15ArrayInitPolicyE@Base 3.2.1-1kern1
 _ZN8casacore6VectorINS_10MFrequencyEE6resizeEv@Base 3.2.1-1kern1
 _ZN8casacore6VectorINS_10MFrequencyEE9referenceERKNS_5ArrayIS1_EE@Base 3.2.1-1kern1
 _ZN8casacore6VectorINS_10MFrequencyEEC1ERKNS_5ArrayIS1_EE@Base 3.2.1-1kern1
 _ZN8casacore6VectorINS_10MFrequencyEEC2ERKNS_5ArrayIS1_EE@Base 3.2.1-1kern1
 _ZN8casacore6VectorINS_10MFrequencyEED0Ev@Base 3.2.1-1kern1
 _ZN8casacore6VectorINS_10MFrequencyEED1Ev@Base 3.2.1-1kern1
 _ZN8casacore6VectorINS_10MFrequencyEED2Ev@Base 3.2.1-1kern1
 _ZN8casacore6VectorINS_10MFrequencyEEaSERKNS_5ArrayIS1_EE@Base 3.2.1-1kern1
 _ZN8casacore6VectorINS_10MFrequencyEEaSERKS2_@Base 3.2.1-1kern1
 _ZN8casacore6VectorINS_12SquareMatrixISt7complexIfELi2EEEE14preTakeStorageERKNS_9IPositionE@Base 3.2.1-1kern1
 _ZN8casacore6VectorINS_12SquareMatrixISt7complexIfELi2EEEE15doNonDegenerateERKNS_5ArrayIS4_EERKNS_9IPositionE@Base 3.2.1-1kern1
 _ZN8casacore6VectorINS_12SquareMatrixISt7complexIfELi2EEEE6assignERKNS_5ArrayIS4_EE@Base 3.2.1-1kern1
 _ZN8casacore6VectorINS_12SquareMatrixISt7complexIfELi2EEEE6resizeERKNS_9IPositionEbNS_15ArrayInitPolicyE@Base 3.2.1-1kern1
 _ZN8casacore6VectorINS_12SquareMatrixISt7complexIfELi2EEEE6resizeEv@Base 3.2.1-1kern1
 _ZN8casacore6VectorINS_12SquareMatrixISt7complexIfELi2EEEE9referenceERKNS_5ArrayIS4_EE@Base 3.2.1-1kern1
 _ZN8casacore6VectorINS_12SquareMatrixISt7complexIfELi2EEEEC1ERKNS_5ArrayIS4_EE@Base 3.2.1-1kern1
 _ZN8casacore6VectorINS_12SquareMatrixISt7complexIfELi2EEEEC1Ev@Base 3.2.1-1kern1
 _ZN8casacore6VectorINS_12SquareMatrixISt7complexIfELi2EEEEC2ERKNS_5ArrayIS4_EE@Base 3.2.1-1kern1
 _ZN8casacore6VectorINS_12SquareMatrixISt7complexIfELi2EEEEC2Ev@Base 3.2.1-1kern1
 _ZN8casacore6VectorINS_12SquareMatrixISt7complexIfELi2EEEED0Ev@Base 3.2.1-1kern1
 _ZN8casacore6VectorINS_12SquareMatrixISt7complexIfELi2EEEED1Ev@Base 3.2.1-1kern1
 _ZN8casacore6VectorINS_12SquareMatrixISt7complexIfELi2EEEED2Ev@Base 3.2.1-1kern1
 _ZN8casacore6VectorINS_12SquareMatrixISt7complexIfELi2EEEEaSERKNS_5ArrayIS4_EE@Base 3.2.1-1kern1
 _ZN8casacore6VectorINS_12SquareMatrixISt7complexIfELi2EEEEaSERKS5_@Base 3.2.1-1kern1
 _ZN8casacore6VectorINS_4UnitEE14preTakeStorageERKNS_9IPositionE@Base 3.2.1-1kern1
 _ZN8casacore6VectorINS_4UnitEE15doNonDegenerateERKNS_5ArrayIS1_EERKNS_9IPositionE@Base 3.2.1-1kern1
 _ZN8casacore6VectorINS_4UnitEE6assignERKNS_5ArrayIS1_EE@Base 3.2.1-1kern1
 _ZN8casacore6VectorINS_4UnitEE6resizeERKNS_9IPositionEbNS_15ArrayInitPolicyE@Base 3.2.1-1kern1
 _ZN8casacore6VectorINS_4UnitEE6resizeEv@Base 3.2.1-1kern1
 _ZN8casacore6VectorINS_4UnitEE9referenceERKNS_5ArrayIS1_EE@Base 3.2.1-1kern1
 _ZN8casacore6VectorINS_4UnitEEC1Ev@Base 3.2.1-1kern1
 _ZN8casacore6VectorINS_4UnitEEC2Ev@Base 3.2.1-1kern1
 _ZN8casacore6VectorINS_4UnitEED0Ev@Base 3.2.1-1kern1
 _ZN8casacore6VectorINS_4UnitEED1Ev@Base 3.2.1-1kern1
 _ZN8casacore6VectorINS_4UnitEED2Ev@Base 3.2.1-1kern1
 _ZN8casacore6VectorINS_4UnitEEaSERKNS_5ArrayIS1_EE@Base 3.2.1-1kern1
 _ZN8casacore6VectorINS_4UnitEEaSERKS2_@Base 3.2.1-1kern1
 _ZN8casacore6VectorINS_5SliceEE14preTakeStorageERKNS_9IPositionE@Base 3.2.1-1kern1
 _ZN8casacore6VectorINS_5SliceEE15doNonDegenerateERKNS_5ArrayIS1_EERKNS_9IPositionE@Base 3.2.1-1kern1
 _ZN8casacore6VectorINS_5SliceEE6assignERKNS_5ArrayIS1_EE@Base 3.2.1-1kern1
 _ZN8casacore6VectorINS_5SliceEE6resizeERKNS_9IPositionEbNS_15ArrayInitPolicyE@Base 3.2.1-1kern1
 _ZN8casacore6VectorINS_5SliceEE6resizeEv@Base 3.2.1-1kern1
 _ZN8casacore6VectorINS_5SliceEE9referenceERKNS_5ArrayIS1_EE@Base 3.2.1-1kern1
 _ZN8casacore6VectorINS_5SliceEEC1Ev@Base 3.2.1-1kern1
 _ZN8casacore6VectorINS_5SliceEEC2Ev@Base 3.2.1-1kern1
 _ZN8casacore6VectorINS_5SliceEED0Ev@Base 3.2.1-1kern1
 _ZN8casacore6VectorINS_5SliceEED1Ev@Base 3.2.1-1kern1
 _ZN8casacore6VectorINS_5SliceEED2Ev@Base 3.2.1-1kern1
 _ZN8casacore6VectorINS_5SliceEEaSERKNS_5ArrayIS1_EE@Base 3.2.1-1kern1
 _ZN8casacore6VectorINS_5SliceEEaSERKS2_@Base 3.2.1-1kern1
 _ZN8casacore6VectorINS_6Stokes11StokesTypesEE14preTakeStorageERKNS_9IPositionE@Base 3.2.1-1kern1
 _ZN8casacore6VectorINS_6Stokes11StokesTypesEE15doNonDegenerateERKNS_5ArrayIS2_EERKNS_9IPositionE@Base 3.2.1-1kern1
 _ZN8casacore6VectorINS_6Stokes11StokesTypesEE6assignERKNS_5ArrayIS2_EE@Base 3.2.1-1kern1
 _ZN8casacore6VectorINS_6Stokes11StokesTypesEE6resizeERKNS_9IPositionEbNS_15ArrayInitPolicyE@Base 3.2.1-1kern1
 _ZN8casacore6VectorINS_6Stokes11StokesTypesEE6resizeEv@Base 3.2.1-1kern1
 _ZN8casacore6VectorINS_6Stokes11StokesTypesEE9referenceERKNS_5ArrayIS2_EE@Base 3.2.1-1kern1
 _ZN8casacore6VectorINS_6Stokes11StokesTypesEEC1Ev@Base 3.2.1-1kern1
 _ZN8casacore6VectorINS_6Stokes11StokesTypesEEC2Ev@Base 3.2.1-1kern1
 _ZN8casacore6VectorINS_6Stokes11StokesTypesEED0Ev@Base 3.2.1-1kern1
 _ZN8casacore6VectorINS_6Stokes11StokesTypesEED1Ev@Base 3.2.1-1kern1
 _ZN8casacore6VectorINS_6Stokes11StokesTypesEED2Ev@Base 3.2.1-1kern1
 _ZN8casacore6VectorINS_6Stokes11StokesTypesEEaSERKNS_5ArrayIS2_EE@Base 3.2.1-1kern1
 _ZN8casacore6VectorINS_6Stokes11StokesTypesEEaSERKS3_@Base 3.2.1-1kern1
 _ZN8casacore6VectorINS_6StringEEC1IS1_SaIS1_EEERKSt6vectorIT_T0_E@Base 3.2.1-1kern1
 _ZN8casacore6VectorINS_6StringEEC2IS1_SaIS1_EEERKSt6vectorIT_T0_E@Base 3.2.1-1kern1
 _ZN8casacore6VectorINS_7QuantumIdEEE14preTakeStorageERKNS_9IPositionE@Base 3.2.1-1kern1
 _ZN8casacore6VectorINS_7QuantumIdEEE15doNonDegenerateERKNS_5ArrayIS2_EERKNS_9IPositionE@Base 3.2.1-1kern1
 _ZN8casacore6VectorINS_7QuantumIdEEE6assignERKNS_5ArrayIS2_EE@Base 3.2.1-1kern1
 _ZN8casacore6VectorINS_7QuantumIdEEE6resizeERKNS_9IPositionEbNS_15ArrayInitPolicyE@Base 3.2.1-1kern1
 _ZN8casacore6VectorINS_7QuantumIdEEE6resizeEv@Base 3.2.1-1kern1
 _ZN8casacore6VectorINS_7QuantumIdEEE9referenceERKNS_5ArrayIS2_EE@Base 3.2.1-1kern1
 _ZN8casacore6VectorINS_7QuantumIdEEEC1Em@Base 3.2.1-1kern1
 _ZN8casacore6VectorINS_7QuantumIdEEEC1EmRKS2_@Base 3.2.1-1kern1
 _ZN8casacore6VectorINS_7QuantumIdEEEC1Ev@Base 3.2.1-1kern1
 _ZN8casacore6VectorINS_7QuantumIdEEEC2Em@Base 3.2.1-1kern1
 _ZN8casacore6VectorINS_7QuantumIdEEEC2EmRKS2_@Base 3.2.1-1kern1
 _ZN8casacore6VectorINS_7QuantumIdEEEC2Ev@Base 3.2.1-1kern1
 _ZN8casacore6VectorINS_7QuantumIdEEED0Ev@Base 3.2.1-1kern1
 _ZN8casacore6VectorINS_7QuantumIdEEED1Ev@Base 3.2.1-1kern1
 _ZN8casacore6VectorINS_7QuantumIdEEED2Ev@Base 3.2.1-1kern1
 _ZN8casacore6VectorINS_7QuantumIdEEEaSERKNS_5ArrayIS2_EE@Base 3.2.1-1kern1
 _ZN8casacore6VectorINS_7QuantumIdEEEaSERKS3_@Base 3.2.1-1kern1
 _ZN8casacore6VectorINS_9MPositionEE14preTakeStorageERKNS_9IPositionE@Base 3.2.1-1kern1
 _ZN8casacore6VectorINS_9MPositionEE15doNonDegenerateERKNS_5ArrayIS1_EERKNS_9IPositionE@Base 3.2.1-1kern1
 _ZN8casacore6VectorINS_9MPositionEE6assignERKNS_5ArrayIS1_EE@Base 3.2.1-1kern1
 _ZN8casacore6VectorINS_9MPositionEE6resizeERKNS_9IPositionEbNS_15ArrayInitPolicyE@Base 3.2.1-1kern1
 _ZN8casacore6VectorINS_9MPositionEE6resizeEv@Base 3.2.1-1kern1
 _ZN8casacore6VectorINS_9MPositionEE9referenceERKNS_5ArrayIS1_EE@Base 3.2.1-1kern1
 _ZN8casacore6VectorINS_9MPositionEEC1Ev@Base 3.2.1-1kern1
 _ZN8casacore6VectorINS_9MPositionEEC2Ev@Base 3.2.1-1kern1
 _ZN8casacore6VectorINS_9MPositionEED0Ev@Base 3.2.1-1kern1
 _ZN8casacore6VectorINS_9MPositionEED1Ev@Base 3.2.1-1kern1
 _ZN8casacore6VectorINS_9MPositionEED2Ev@Base 3.2.1-1kern1
 _ZN8casacore6VectorINS_9MPositionEEaSERKNS_5ArrayIS1_EE@Base 3.2.1-1kern1
 _ZN8casacore6VectorINS_9MPositionEEaSERKS2_@Base 3.2.1-1kern1
 _ZN8casacore6VectorIPNS_9MeasCometEE14preTakeStorageERKNS_9IPositionE@Base 3.2.1-1kern1
 _ZN8casacore6VectorIPNS_9MeasCometEE15doNonDegenerateERKNS_5ArrayIS2_EERKNS_9IPositionE@Base 3.2.1-1kern1
 _ZN8casacore6VectorIPNS_9MeasCometEE6assignERKNS_5ArrayIS2_EE@Base 3.2.1-1kern1
 _ZN8casacore6VectorIPNS_9MeasCometEE6resizeERKNS_9IPositionEbNS_15ArrayInitPolicyE@Base 3.2.1-1kern1
 _ZN8casacore6VectorIPNS_9MeasCometEE6resizeEv@Base 3.2.1-1kern1
 _ZN8casacore6VectorIPNS_9MeasCometEE9referenceERKNS_5ArrayIS2_EE@Base 3.2.1-1kern1
 _ZN8casacore6VectorIPNS_9MeasCometEEC1Ev@Base 3.2.1-1kern1
 _ZN8casacore6VectorIPNS_9MeasCometEEC2Ev@Base 3.2.1-1kern1
 _ZN8casacore6VectorIPNS_9MeasCometEED0Ev@Base 3.2.1-1kern1
 _ZN8casacore6VectorIPNS_9MeasCometEED1Ev@Base 3.2.1-1kern1
 _ZN8casacore6VectorIPNS_9MeasCometEED2Ev@Base 3.2.1-1kern1
 _ZN8casacore6VectorIPNS_9MeasCometEEaSERKNS_5ArrayIS2_EE@Base 3.2.1-1kern1
 _ZN8casacore6VectorIPNS_9MeasCometEEaSERKS3_@Base 3.2.1-1kern1
 _ZN8casacore6VectorIiEC1ISt23_Rb_tree_const_iteratorIiEEET_mi@Base 3.2.1-1kern1
 _ZN8casacore6VectorIiEC1IiSaIiEEERKSt6vectorIT_T0_E@Base 3.2.1-1kern1
 _ZN8casacore6VectorIiEC2ISt23_Rb_tree_const_iteratorIiEEET_mi@Base 3.2.1-1kern1
 _ZN8casacore6VectorIiEC2IiSaIiEEERKSt6vectorIT_T0_E@Base 3.2.1-1kern1
 _ZN8casacore6VectorIjEC1IjSaIjEEERKSt6vectorIT_T0_E@Base 3.2.1-1kern1
 _ZN8casacore6VectorIjEC2IjSaIjEEERKSt6vectorIT_T0_E@Base 3.2.1-1kern1
 _ZN8casacore6filterESt3setINS_7ScanKeyESt4lessIS1_ESaIS1_EERKNS_8ArrayKeyE@Base 3.2.1-1kern1
 _ZN8casacore6indgenIiEEvRNS_5ArrayIT_EES2_S2_@Base 3.2.1-1kern1
 _ZN8casacore6indgenIjEEvRNS_5ArrayIT_EES2_S2_@Base 3.2.1-1kern1
 _ZN8casacore6invertISt7complexIfEEEvRNS_6MatrixIT_EERS4_RKS5_@Base 3.2.1-1kern1
 _ZN8casacore6medianIfEET_RKNS_5ArrayIS1_EERNS_5BlockIS1_EEbbb@Base 3.2.1-1kern1
 _ZN8casacore6medianIfEET_RKNS_5ArrayIS1_EEbbb@Base 3.2.1-1kern1
 _ZN8casacore6minMaxIdEEvRT_S2_RKNS_5ArrayIS1_EE@Base 3.2.1-1kern1
 _ZN8casacore6minMaxIfEEvRT_S2_RKNS_11MaskedArrayIS1_EE@Base 3.2.1-1kern1
 _ZN8casacore6minMaxIfEEvRT_S2_RKNS_5ArrayIS1_EE@Base 3.2.1-1kern1
 _ZN8casacore6minMaxIfEEvRT_S2_RNS_9IPositionES4_RKNS_11MaskedArrayIS1_EE@Base 3.2.1-1kern1
 _ZN8casacore6minMaxIiEEvRT_S2_RKNS_5ArrayIS1_EE@Base 3.2.1-1kern1
 _ZN8casacore6minMaxIjEEvRT_S2_RKNS_5ArrayIS1_EE@Base 3.2.1-1kern1
 _ZN8casacore6nfalseIbEEmRKNS_5ArrayIT_EE@Base 3.2.1-1kern1
 _ZN8casacore6objsetINS_10MDirectionEEEvPT_S2_mm@Base 3.2.1-1kern1
 _ZN8casacore6objsetINS_6VectorINS_5SliceEEEEEvPT_S4_mm@Base 3.2.1-1kern1
 _ZN8casacore7GenSortIdE10insSortAscEPdii@Base 3.2.1-1kern1
 _ZN8casacore7GenSortIdE10kthLargestEPdjj@Base 3.2.1-1kern1
 _ZN8casacore7GenSortIdE11heapSortAscEPdi@Base 3.2.1-1kern1
 _ZN8casacore7GenSortIdE12quickSortAscEPdibi@Base 3.2.1-1kern1
 _ZN8casacore7GenSortIdE15heapAscSiftDownEiiPd@Base 3.2.1-1kern1
 _ZN8casacore7GenSortIdE5mergeEPdS2_jPjj@Base 3.2.1-1kern1
 _ZN8casacore7GenSortIdE7parSortEPdjNS_4Sort5OrderEii@Base 3.2.1-1kern1
 _ZN8casacore7GenSortIdE7reverseEPdPKdj@Base 3.2.1-1kern1
 _ZN8casacore7GenSortIfE10insSortAscEPfii@Base 3.2.1-1kern1
 _ZN8casacore7GenSortIfE10kthLargestEPfjj@Base 3.2.1-1kern1
 _ZN8casacore7GenSortIfE11heapSortAscEPfi@Base 3.2.1-1kern1
 _ZN8casacore7GenSortIfE12quickSortAscEPfibi@Base 3.2.1-1kern1
 _ZN8casacore7GenSortIfE15heapAscSiftDownEiiPf@Base 3.2.1-1kern1
 _ZN8casacore7GenSortIfE5mergeEPfS2_jPjj@Base 3.2.1-1kern1
 _ZN8casacore7GenSortIfE7parSortEPfjNS_4Sort5OrderEii@Base 3.2.1-1kern1
 _ZN8casacore7GenSortIfE7reverseEPfPKfj@Base 3.2.1-1kern1
 _ZN8casacore7GenSortIiE10insSortAscEPiii@Base 3.2.1-1kern1
 _ZN8casacore7GenSortIiE11heapSortAscEPii@Base 3.2.1-1kern1
 _ZN8casacore7GenSortIiE12quickSortAscEPiibi@Base 3.2.1-1kern1
 _ZN8casacore7GenSortIiE15heapAscSiftDownEiiPi@Base 3.2.1-1kern1
 _ZN8casacore7GenSortIiE4sortERNS_5ArrayIiEENS_4Sort5OrderEi@Base 3.2.1-1kern1
 _ZN8casacore7GenSortIiE5mergeEPiS2_jPjj@Base 3.2.1-1kern1
 _ZN8casacore7GenSortIiE7parSortEPijNS_4Sort5OrderEii@Base 3.2.1-1kern1
 _ZN8casacore7GenSortIiE7reverseEPiPKij@Base 3.2.1-1kern1
 _ZN8casacore7GenSortIjE10insSortAscEPjii@Base 3.2.1-1kern1
 _ZN8casacore7GenSortIjE11heapSortAscEPji@Base 3.2.1-1kern1
 _ZN8casacore7GenSortIjE12quickSortAscEPjibi@Base 3.2.1-1kern1
 _ZN8casacore7GenSortIjE15heapAscSiftDownEiiPj@Base 3.2.1-1kern1
 _ZN8casacore7GenSortIjE5mergeEPjS2_jS2_j@Base 3.2.1-1kern1
 _ZN8casacore7GenSortIjE7parSortEPjjNS_4Sort5OrderEii@Base 3.2.1-1kern1
 _ZN8casacore7GenSortIjE7reverseEPjPKjj@Base 3.2.1-1kern1
 _ZN8casacore7MSField12addEphemerisEjRKNS_6StringES3_@Base 3.2.1-1kern1
 _ZN8casacore7MSField15removeEphemerisEj@Base 3.2.1-1kern1
 _ZN8casacore7MSField8initMapsEv@Base 3.2.1-1kern1
 _ZN8casacore7MSFieldC1ERKNS_5TableE@Base 3.2.1-1kern1
 _ZN8casacore7MSFieldC1ERKNS_6StringENS_5Table11TableOptionE@Base 3.2.1-1kern1
 _ZN8casacore7MSFieldC1ERKNS_6StringES3_NS_5Table11TableOptionE@Base 3.2.1-1kern1
 _ZN8casacore7MSFieldC1ERKS0_@Base 3.2.1-1kern1
 _ZN8casacore7MSFieldC1ERNS_13SetupNewTableEjb@Base 3.2.1-1kern1
 _ZN8casacore7MSFieldC1Ev@Base 3.2.1-1kern1
 _ZN8casacore7MSFieldC2ERKNS_5TableE@Base 3.2.1-1kern1
 _ZN8casacore7MSFieldC2ERKNS_6StringENS_5Table11TableOptionE@Base 3.2.1-1kern1
 _ZN8casacore7MSFieldC2ERKNS_6StringES3_NS_5Table11TableOptionE@Base 3.2.1-1kern1
 _ZN8casacore7MSFieldC2ERKS0_@Base 3.2.1-1kern1
 _ZN8casacore7MSFieldC2ERNS_13SetupNewTableEjb@Base 3.2.1-1kern1
 _ZN8casacore7MSFieldC2Ev@Base 3.2.1-1kern1
 _ZN8casacore7MSFieldD0Ev@Base 3.2.1-1kern1
 _ZN8casacore7MSFieldD1Ev@Base 3.2.1-1kern1
 _ZN8casacore7MSFieldD2Ev@Base 3.2.1-1kern1
 _ZN8casacore7MSFieldaSERKS0_@Base 3.2.1-1kern1
 _ZN8casacore7MSParse11msInterfaceEv@Base 3.2.1-1kern1
 _ZN8casacore7MSParse12addConditionERNS_13TableExprNodeES2_@Base 3.2.1-1kern1
 _ZN8casacore7MSParse13msInterface_pE@Base 3.2.1-1kern1
 _ZN8casacore7MSParse2msEv@Base 3.2.1-1kern1
 _ZN8casacore7MSParse4ms_pE@Base 3.2.1-1kern1
 _ZN8casacore7MSParse9shorthandEv@Base 3.2.1-1kern1
 _ZN8casacore7MSParseC1EPKNS_14MeasurementSetERKNS_6StringE@Base 3.2.1-1kern1
 _ZN8casacore7MSParseC1EPKNS_17MSSelectableTableERKNS_6StringE@Base 3.2.1-1kern1
 _ZN8casacore7MSParseC1ERKS0_@Base 3.2.1-1kern1
 _ZN8casacore7MSParseC1Ev@Base 3.2.1-1kern1
 _ZN8casacore7MSParseC2EPKNS_14MeasurementSetERKNS_6StringE@Base 3.2.1-1kern1
 _ZN8casacore7MSParseC2EPKNS_17MSSelectableTableERKNS_6StringE@Base 3.2.1-1kern1
 _ZN8casacore7MSParseC2ERKS0_@Base 3.2.1-1kern1
 _ZN8casacore7MSParseC2Ev@Base 3.2.1-1kern1
 _ZN8casacore7MSParseD1Ev@Base 3.2.1-1kern1
 _ZN8casacore7MSParseD2Ev@Base 3.2.1-1kern1
 _ZN8casacore7MSParseaSERKS0_@Base 3.2.1-1kern1
 _ZN8casacore7MSRange10ifrNumbersERKNS_12ScalarColumnIiEES4_@Base 3.2.1-1kern1
 _ZN8casacore7MSRange11checkShapesEv@Base 3.2.1-1kern1
 _ZN8casacore7MSRange11scalarRangeERKNS_12ScalarColumnIiEE@Base 3.2.1-1kern1
 _ZN8casacore7MSRange11scalarRangeERNS_6RecordERKNS_6StringERKNS_12ScalarColumnIiEEb@Base 3.2.1-1kern1
 _ZN8casacore7MSRange12setBlockSizeEi@Base 3.2.1-1kern1
 _ZN8casacore7MSRange5rangeENS_19MSSelectionKeywords5FieldEb@Base 3.2.1-1kern1
 _ZN8casacore7MSRange5rangeERKNS_6VectorINS_6StringEEEbb@Base 3.2.1-1kern1
 _ZN8casacore7MSRange5rangeERKNS_6VectorIiEEbb@Base 3.2.1-1kern1
 _ZN8casacore7MSRange6minMaxERNS_6MatrixIfEERKNS_6VectorIbEERKNS_11ArrayColumnISt7complexIfEEESD_RKNS8_IbEEib@Base 3.2.1-1kern1
 _ZN8casacore7MSRange6minMaxERfS1_RKNS_11ArrayColumnIfEERKNS2_IbEEb@Base 3.2.1-1kern1
 _ZN8casacore7MSRangeC1ERKNS_10MSSelectorE@Base 3.2.1-1kern1
 _ZN8casacore7MSRangeC1ERKNS_14MeasurementSetE@Base 3.2.1-1kern1
 _ZN8casacore7MSRangeC1ERKS0_@Base 3.2.1-1kern1
 _ZN8casacore7MSRangeC1Ev@Base 3.2.1-1kern1
 _ZN8casacore7MSRangeC2ERKNS_10MSSelectorE@Base 3.2.1-1kern1
 _ZN8casacore7MSRangeC2ERKNS_14MeasurementSetE@Base 3.2.1-1kern1
 _ZN8casacore7MSRangeC2ERKS0_@Base 3.2.1-1kern1
 _ZN8casacore7MSRangeC2Ev@Base 3.2.1-1kern1
 _ZN8casacore7MSRangeaSERKS0_@Base 3.2.1-1kern1
 _ZN8casacore7MSState8initMapsEv@Base 3.2.1-1kern1
 _ZN8casacore7MSStateC1ERKNS_5TableE@Base 3.2.1-1kern1
 _ZN8casacore7MSStateC1ERKNS_6StringENS_5Table11TableOptionE@Base 3.2.1-1kern1
 _ZN8casacore7MSStateC1ERKNS_6StringES3_NS_5Table11TableOptionE@Base 3.2.1-1kern1
 _ZN8casacore7MSStateC1ERKS0_@Base 3.2.1-1kern1
 _ZN8casacore7MSStateC1ERNS_13SetupNewTableEjb@Base 3.2.1-1kern1
 _ZN8casacore7MSStateC1Ev@Base 3.2.1-1kern1
 _ZN8casacore7MSStateC2ERKNS_5TableE@Base 3.2.1-1kern1
 _ZN8casacore7MSStateC2ERKNS_6StringENS_5Table11TableOptionE@Base 3.2.1-1kern1
 _ZN8casacore7MSStateC2ERKNS_6StringES3_NS_5Table11TableOptionE@Base 3.2.1-1kern1
 _ZN8casacore7MSStateC2ERKS0_@Base 3.2.1-1kern1
 _ZN8casacore7MSStateC2ERNS_13SetupNewTableEjb@Base 3.2.1-1kern1
 _ZN8casacore7MSStateC2Ev@Base 3.2.1-1kern1
 _ZN8casacore7MSStateD0Ev@Base 3.2.1-1kern1
 _ZN8casacore7MSStateD1Ev@Base 3.2.1-1kern1
 _ZN8casacore7MSStateD2Ev@Base 3.2.1-1kern1
 _ZN8casacore7MSStateaSERKS0_@Base 3.2.1-1kern1
 _ZN8casacore7MSTableINS_11MSFeedEnumsEE10columnNameENS1_17PredefinedColumnsE@Base 3.2.1-1kern1
 _ZN8casacore7MSTableINS_11MSFeedEnumsEE10columnNameERKNS_11MSTableMapsENS1_17PredefinedColumnsE@Base 3.2.1-1kern1
 _ZN8casacore7MSTableINS_11MSFeedEnumsEE10columnTypeERKNS_6StringE@Base 3.2.1-1kern1
 _ZN8casacore7MSTableINS_11MSFeedEnumsEE10columnUnitENS1_17PredefinedColumnsE@Base 3.2.1-1kern1
 _ZN8casacore7MSTableINS_11MSFeedEnumsEE10columnUnitERKNS_11MSTableMapsENS1_17PredefinedColumnsE@Base 3.2.1-1kern1
 _ZN8casacore7MSTableINS_11MSFeedEnumsEE11keywordNameENS1_18PredefinedKeywordsE@Base 3.2.1-1kern1
 _ZN8casacore7MSTableINS_11MSFeedEnumsEE11keywordNameERKNS_11MSTableMapsENS1_18PredefinedKeywordsE@Base 3.2.1-1kern1
 _ZN8casacore7MSTableINS_11MSFeedEnumsEE11keywordTypeERKNS_6StringE@Base 3.2.1-1kern1
 _ZN8casacore7MSTableINS_11MSFeedEnumsEE12addKeyToDescERNS_11MSTableMapsENS1_18PredefinedKeywordsE@Base 3.2.1-1kern1
 _ZN8casacore7MSTableINS_11MSFeedEnumsEE12addKeyToDescERNS_9TableDescENS1_18PredefinedKeywordsE@Base 3.2.1-1kern1
 _ZN8casacore7MSTableINS_11MSFeedEnumsEE14columnDataTypeENS1_17PredefinedColumnsE@Base 3.2.1-1kern1
 _ZN8casacore7MSTableINS_11MSFeedEnumsEE14columnDataTypeERKNS_11MSTableMapsENS1_17PredefinedColumnsE@Base 3.2.1-1kern1
 _ZN8casacore7MSTableINS_11MSFeedEnumsEE15addColumnToDescERNS_11MSTableMapsENS1_17PredefinedColumnsERKNS_9IPositionENS_10ColumnDesc6OptionERKNS_6StringE@Base 3.2.1-1kern1
 _ZN8casacore7MSTableINS_11MSFeedEnumsEE15addColumnToDescERNS_11MSTableMapsENS1_17PredefinedColumnsEiRKNS_6StringE@Base 3.2.1-1kern1
 _ZN8casacore7MSTableINS_11MSFeedEnumsEE15addColumnToDescERNS_9TableDescENS1_17PredefinedColumnsERKNS_9IPositionENS_10ColumnDesc6OptionERKNS_6StringE@Base 3.2.1-1kern1
 _ZN8casacore7MSTableINS_11MSFeedEnumsEE15addColumnToDescERNS_9TableDescENS1_17PredefinedColumnsEiRKNS_6StringE@Base 3.2.1-1kern1
 _ZN8casacore7MSTableINS_11MSFeedEnumsEE15keywordDataTypeENS1_18PredefinedKeywordsE@Base 3.2.1-1kern1
 _ZN8casacore7MSTableINS_11MSFeedEnumsEE15keywordDataTypeERKNS_11MSTableMapsENS1_18PredefinedKeywordsE@Base 3.2.1-1kern1
 _ZN8casacore7MSTableINS_11MSFeedEnumsEE17columnMeasureTypeENS1_17PredefinedColumnsE@Base 3.2.1-1kern1
 _ZN8casacore7MSTableINS_11MSFeedEnumsEE17columnMeasureTypeERKNS_11MSTableMapsENS1_17PredefinedColumnsE@Base 3.2.1-1kern1
 _ZN8casacore7MSTableINS_11MSFeedEnumsEE17requiredTableDescEv@Base 3.2.1-1kern1
 _ZN8casacore7MSTableINS_11MSFeedEnumsEE20addColumnCompressionERNS_9TableDescENS1_17PredefinedColumnsEbRKNS_6StringE@Base 3.2.1-1kern1
 _ZN8casacore7MSTableINS_11MSFeedEnumsEE21columnStandardCommentENS1_17PredefinedColumnsE@Base 3.2.1-1kern1
 _ZN8casacore7MSTableINS_11MSFeedEnumsEE21columnStandardCommentERKNS_11MSTableMapsENS1_17PredefinedColumnsE@Base 3.2.1-1kern1
 _ZN8casacore7MSTableINS_11MSFeedEnumsEE22keywordStandardCommentENS1_18PredefinedKeywordsE@Base 3.2.1-1kern1
 _ZN8casacore7MSTableINS_11MSFeedEnumsEE22keywordStandardCommentERKNS_11MSTableMapsENS1_18PredefinedKeywordsE@Base 3.2.1-1kern1
 _ZN8casacore7MSTableINS_11MSFeedEnumsEE7getMapsEv@Base 3.2.1-1kern1
 _ZN8casacore7MSTableINS_11MSFeedEnumsEE8validateERKNS_11TableRecordE@Base 3.2.1-1kern1
 _ZN8casacore7MSTableINS_11MSFeedEnumsEE8validateERKNS_9TableDescE@Base 3.2.1-1kern1
 _ZN8casacore7MSTableINS_11MSFeedEnumsEE9colMapDefERNS_11MSTableMapsENS1_17PredefinedColumnsERKNS_6StringENS_8DataTypeES8_S8_S8_@Base 3.2.1-1kern1
 _ZN8casacore7MSTableINS_11MSFeedEnumsEE9keyMapDefERNS_11MSTableMapsENS1_18PredefinedKeywordsERKNS_6StringENS_8DataTypeES8_@Base 3.2.1-1kern1
 _ZN8casacore7MSTableINS_11MSFeedEnumsEEC1ERKNS_5TableE@Base 3.2.1-1kern1
 _ZN8casacore7MSTableINS_11MSFeedEnumsEEC1ERKNS_6StringENS_5Table11TableOptionE@Base 3.2.1-1kern1
 _ZN8casacore7MSTableINS_11MSFeedEnumsEEC1ERKNS_6StringERKNS_9TableLockENS_5Table11TableOptionE@Base 3.2.1-1kern1
 _ZN8casacore7MSTableINS_11MSFeedEnumsEEC1ERKNS_6StringES5_NS_5Table11TableOptionE@Base 3.2.1-1kern1
 _ZN8casacore7MSTableINS_11MSFeedEnumsEEC1ERKNS_6StringES5_RKNS_9TableLockENS_5Table11TableOptionE@Base 3.2.1-1kern1
 _ZN8casacore7MSTableINS_11MSFeedEnumsEEC1ERKS2_@Base 3.2.1-1kern1
 _ZN8casacore7MSTableINS_11MSFeedEnumsEEC1ERNS_13SetupNewTableERKNS_9TableLockEjb@Base 3.2.1-1kern1
 _ZN8casacore7MSTableINS_11MSFeedEnumsEEC1ERNS_13SetupNewTableEjb@Base 3.2.1-1kern1
 _ZN8casacore7MSTableINS_11MSFeedEnumsEEC1Ev@Base 3.2.1-1kern1
 _ZN8casacore7MSTableINS_11MSFeedEnumsEEC2ERKNS_5TableE@Base 3.2.1-1kern1
 _ZN8casacore7MSTableINS_11MSFeedEnumsEEC2ERKNS_6StringENS_5Table11TableOptionE@Base 3.2.1-1kern1
 _ZN8casacore7MSTableINS_11MSFeedEnumsEEC2ERKNS_6StringERKNS_9TableLockENS_5Table11TableOptionE@Base 3.2.1-1kern1
 _ZN8casacore7MSTableINS_11MSFeedEnumsEEC2ERKNS_6StringES5_NS_5Table11TableOptionE@Base 3.2.1-1kern1
 _ZN8casacore7MSTableINS_11MSFeedEnumsEEC2ERKNS_6StringES5_RKNS_9TableLockENS_5Table11TableOptionE@Base 3.2.1-1kern1
 _ZN8casacore7MSTableINS_11MSFeedEnumsEEC2ERKS2_@Base 3.2.1-1kern1
 _ZN8casacore7MSTableINS_11MSFeedEnumsEEC2ERNS_13SetupNewTableERKNS_9TableLockEjb@Base 3.2.1-1kern1
 _ZN8casacore7MSTableINS_11MSFeedEnumsEEC2ERNS_13SetupNewTableEjb@Base 3.2.1-1kern1
 _ZN8casacore7MSTableINS_11MSFeedEnumsEEC2Ev@Base 3.2.1-1kern1
 _ZN8casacore7MSTableINS_11MSFeedEnumsEED0Ev@Base 3.2.1-1kern1
 _ZN8casacore7MSTableINS_11MSFeedEnumsEED1Ev@Base 3.2.1-1kern1
 _ZN8casacore7MSTableINS_11MSFeedEnumsEED2Ev@Base 3.2.1-1kern1
 _ZN8casacore7MSTableINS_11MSFeedEnumsEEaSERKS2_@Base 3.2.1-1kern1
 _ZN8casacore7MSTableINS_11MSMainEnumsEE10columnNameENS1_17PredefinedColumnsE@Base 3.2.1-1kern1
 _ZN8casacore7MSTableINS_11MSMainEnumsEE10columnNameERKNS_11MSTableMapsENS1_17PredefinedColumnsE@Base 3.2.1-1kern1
 _ZN8casacore7MSTableINS_11MSMainEnumsEE10columnTypeERKNS_6StringE@Base 3.2.1-1kern1
 _ZN8casacore7MSTableINS_11MSMainEnumsEE10columnUnitENS1_17PredefinedColumnsE@Base 3.2.1-1kern1
 _ZN8casacore7MSTableINS_11MSMainEnumsEE10columnUnitERKNS_11MSTableMapsENS1_17PredefinedColumnsE@Base 3.2.1-1kern1
 _ZN8casacore7MSTableINS_11MSMainEnumsEE11keywordNameENS1_18PredefinedKeywordsE@Base 3.2.1-1kern1
 _ZN8casacore7MSTableINS_11MSMainEnumsEE11keywordNameERKNS_11MSTableMapsENS1_18PredefinedKeywordsE@Base 3.2.1-1kern1
 _ZN8casacore7MSTableINS_11MSMainEnumsEE11keywordTypeERKNS_6StringE@Base 3.2.1-1kern1
 _ZN8casacore7MSTableINS_11MSMainEnumsEE12addKeyToDescERNS_11MSTableMapsENS1_18PredefinedKeywordsE@Base 3.2.1-1kern1
 _ZN8casacore7MSTableINS_11MSMainEnumsEE12addKeyToDescERNS_9TableDescENS1_18PredefinedKeywordsE@Base 3.2.1-1kern1
 _ZN8casacore7MSTableINS_11MSMainEnumsEE14columnDataTypeENS1_17PredefinedColumnsE@Base 3.2.1-1kern1
 _ZN8casacore7MSTableINS_11MSMainEnumsEE14columnDataTypeERKNS_11MSTableMapsENS1_17PredefinedColumnsE@Base 3.2.1-1kern1
 _ZN8casacore7MSTableINS_11MSMainEnumsEE15addColumnToDescERNS_11MSTableMapsENS1_17PredefinedColumnsERKNS_9IPositionENS_10ColumnDesc6OptionERKNS_6StringE@Base 3.2.1-1kern1
 _ZN8casacore7MSTableINS_11MSMainEnumsEE15addColumnToDescERNS_11MSTableMapsENS1_17PredefinedColumnsEiRKNS_6StringE@Base 3.2.1-1kern1
 _ZN8casacore7MSTableINS_11MSMainEnumsEE15addColumnToDescERNS_9TableDescENS1_17PredefinedColumnsERKNS_9IPositionENS_10ColumnDesc6OptionERKNS_6StringE@Base 3.2.1-1kern1
 _ZN8casacore7MSTableINS_11MSMainEnumsEE15addColumnToDescERNS_9TableDescENS1_17PredefinedColumnsEiRKNS_6StringE@Base 3.2.1-1kern1
 _ZN8casacore7MSTableINS_11MSMainEnumsEE15keywordDataTypeENS1_18PredefinedKeywordsE@Base 3.2.1-1kern1
 _ZN8casacore7MSTableINS_11MSMainEnumsEE15keywordDataTypeERKNS_11MSTableMapsENS1_18PredefinedKeywordsE@Base 3.2.1-1kern1
 _ZN8casacore7MSTableINS_11MSMainEnumsEE17columnMeasureTypeENS1_17PredefinedColumnsE@Base 3.2.1-1kern1
 _ZN8casacore7MSTableINS_11MSMainEnumsEE17columnMeasureTypeERKNS_11MSTableMapsENS1_17PredefinedColumnsE@Base 3.2.1-1kern1
 _ZN8casacore7MSTableINS_11MSMainEnumsEE17requiredTableDescEv@Base 3.2.1-1kern1
 _ZN8casacore7MSTableINS_11MSMainEnumsEE20addColumnCompressionERNS_9TableDescENS1_17PredefinedColumnsEbRKNS_6StringE@Base 3.2.1-1kern1
 _ZN8casacore7MSTableINS_11MSMainEnumsEE21columnStandardCommentENS1_17PredefinedColumnsE@Base 3.2.1-1kern1
 _ZN8casacore7MSTableINS_11MSMainEnumsEE21columnStandardCommentERKNS_11MSTableMapsENS1_17PredefinedColumnsE@Base 3.2.1-1kern1
 _ZN8casacore7MSTableINS_11MSMainEnumsEE22keywordStandardCommentENS1_18PredefinedKeywordsE@Base 3.2.1-1kern1
 _ZN8casacore7MSTableINS_11MSMainEnumsEE22keywordStandardCommentERKNS_11MSTableMapsENS1_18PredefinedKeywordsE@Base 3.2.1-1kern1
 _ZN8casacore7MSTableINS_11MSMainEnumsEE7getMapsEv@Base 3.2.1-1kern1
 _ZN8casacore7MSTableINS_11MSMainEnumsEE8validateERKNS_11TableRecordE@Base 3.2.1-1kern1
 _ZN8casacore7MSTableINS_11MSMainEnumsEE8validateERKNS_9TableDescE@Base 3.2.1-1kern1
 _ZN8casacore7MSTableINS_11MSMainEnumsEE9colMapDefERNS_11MSTableMapsENS1_17PredefinedColumnsERKNS_6StringENS_8DataTypeES8_S8_S8_@Base 3.2.1-1kern1
 _ZN8casacore7MSTableINS_11MSMainEnumsEE9keyMapDefERNS_11MSTableMapsENS1_18PredefinedKeywordsERKNS_6StringENS_8DataTypeES8_@Base 3.2.1-1kern1
 _ZN8casacore7MSTableINS_11MSMainEnumsEEC1ERKNS_5TableE@Base 3.2.1-1kern1
 _ZN8casacore7MSTableINS_11MSMainEnumsEEC1ERKNS_6StringENS_5Table11TableOptionE@Base 3.2.1-1kern1
 _ZN8casacore7MSTableINS_11MSMainEnumsEEC1ERKNS_6StringERKNS_9TableLockENS_5Table11TableOptionE@Base 3.2.1-1kern1
 _ZN8casacore7MSTableINS_11MSMainEnumsEEC1ERKNS_6StringES5_NS_5Table11TableOptionE@Base 3.2.1-1kern1
 _ZN8casacore7MSTableINS_11MSMainEnumsEEC1ERKNS_6StringES5_RKNS_9TableLockENS_5Table11TableOptionE@Base 3.2.1-1kern1
 _ZN8casacore7MSTableINS_11MSMainEnumsEEC1ERKS2_@Base 3.2.1-1kern1
 _ZN8casacore7MSTableINS_11MSMainEnumsEEC1ERNS_13SetupNewTableERKNS_9TableLockEjb@Base 3.2.1-1kern1
 _ZN8casacore7MSTableINS_11MSMainEnumsEEC1ERNS_13SetupNewTableEjb@Base 3.2.1-1kern1
 _ZN8casacore7MSTableINS_11MSMainEnumsEEC1Ev@Base 3.2.1-1kern1
 _ZN8casacore7MSTableINS_11MSMainEnumsEEC2ERKNS_5TableE@Base 3.2.1-1kern1
 _ZN8casacore7MSTableINS_11MSMainEnumsEEC2ERKNS_6StringENS_5Table11TableOptionE@Base 3.2.1-1kern1
 _ZN8casacore7MSTableINS_11MSMainEnumsEEC2ERKNS_6StringERKNS_9TableLockENS_5Table11TableOptionE@Base 3.2.1-1kern1
 _ZN8casacore7MSTableINS_11MSMainEnumsEEC2ERKNS_6StringES5_NS_5Table11TableOptionE@Base 3.2.1-1kern1
 _ZN8casacore7MSTableINS_11MSMainEnumsEEC2ERKNS_6StringES5_RKNS_9TableLockENS_5Table11TableOptionE@Base 3.2.1-1kern1
 _ZN8casacore7MSTableINS_11MSMainEnumsEEC2ERKS2_@Base 3.2.1-1kern1
 _ZN8casacore7MSTableINS_11MSMainEnumsEEC2ERNS_13SetupNewTableERKNS_9TableLockEjb@Base 3.2.1-1kern1
 _ZN8casacore7MSTableINS_11MSMainEnumsEEC2ERNS_13SetupNewTableEjb@Base 3.2.1-1kern1
 _ZN8casacore7MSTableINS_11MSMainEnumsEEC2Ev@Base 3.2.1-1kern1
 _ZN8casacore7MSTableINS_11MSMainEnumsEED0Ev@Base 3.2.1-1kern1
 _ZN8casacore7MSTableINS_11MSMainEnumsEED1Ev@Base 3.2.1-1kern1
 _ZN8casacore7MSTableINS_11MSMainEnumsEED2Ev@Base 3.2.1-1kern1
 _ZN8casacore7MSTableINS_11MSMainEnumsEEaSERKS2_@Base 3.2.1-1kern1
 _ZN8casacore7MSTableINS_12MSFieldEnumsEE10columnNameENS1_17PredefinedColumnsE@Base 3.2.1-1kern1
 _ZN8casacore7MSTableINS_12MSFieldEnumsEE10columnNameERKNS_11MSTableMapsENS1_17PredefinedColumnsE@Base 3.2.1-1kern1
 _ZN8casacore7MSTableINS_12MSFieldEnumsEE10columnTypeERKNS_6StringE@Base 3.2.1-1kern1
 _ZN8casacore7MSTableINS_12MSFieldEnumsEE10columnUnitENS1_17PredefinedColumnsE@Base 3.2.1-1kern1
 _ZN8casacore7MSTableINS_12MSFieldEnumsEE10columnUnitERKNS_11MSTableMapsENS1_17PredefinedColumnsE@Base 3.2.1-1kern1
 _ZN8casacore7MSTableINS_12MSFieldEnumsEE11keywordNameENS1_18PredefinedKeywordsE@Base 3.2.1-1kern1
 _ZN8casacore7MSTableINS_12MSFieldEnumsEE11keywordNameERKNS_11MSTableMapsENS1_18PredefinedKeywordsE@Base 3.2.1-1kern1
 _ZN8casacore7MSTableINS_12MSFieldEnumsEE11keywordTypeERKNS_6StringE@Base 3.2.1-1kern1
 _ZN8casacore7MSTableINS_12MSFieldEnumsEE12addKeyToDescERNS_11MSTableMapsENS1_18PredefinedKeywordsE@Base 3.2.1-1kern1
 _ZN8casacore7MSTableINS_12MSFieldEnumsEE12addKeyToDescERNS_9TableDescENS1_18PredefinedKeywordsE@Base 3.2.1-1kern1
 _ZN8casacore7MSTableINS_12MSFieldEnumsEE14columnDataTypeENS1_17PredefinedColumnsE@Base 3.2.1-1kern1
 _ZN8casacore7MSTableINS_12MSFieldEnumsEE14columnDataTypeERKNS_11MSTableMapsENS1_17PredefinedColumnsE@Base 3.2.1-1kern1
 _ZN8casacore7MSTableINS_12MSFieldEnumsEE15addColumnToDescERNS_11MSTableMapsENS1_17PredefinedColumnsERKNS_9IPositionENS_10ColumnDesc6OptionERKNS_6StringE@Base 3.2.1-1kern1
 _ZN8casacore7MSTableINS_12MSFieldEnumsEE15addColumnToDescERNS_11MSTableMapsENS1_17PredefinedColumnsEiRKNS_6StringE@Base 3.2.1-1kern1
 _ZN8casacore7MSTableINS_12MSFieldEnumsEE15addColumnToDescERNS_9TableDescENS1_17PredefinedColumnsERKNS_9IPositionENS_10ColumnDesc6OptionERKNS_6StringE@Base 3.2.1-1kern1
 _ZN8casacore7MSTableINS_12MSFieldEnumsEE15addColumnToDescERNS_9TableDescENS1_17PredefinedColumnsEiRKNS_6StringE@Base 3.2.1-1kern1
 _ZN8casacore7MSTableINS_12MSFieldEnumsEE15keywordDataTypeENS1_18PredefinedKeywordsE@Base 3.2.1-1kern1
 _ZN8casacore7MSTableINS_12MSFieldEnumsEE15keywordDataTypeERKNS_11MSTableMapsENS1_18PredefinedKeywordsE@Base 3.2.1-1kern1
 _ZN8casacore7MSTableINS_12MSFieldEnumsEE17columnMeasureTypeENS1_17PredefinedColumnsE@Base 3.2.1-1kern1
 _ZN8casacore7MSTableINS_12MSFieldEnumsEE17columnMeasureTypeERKNS_11MSTableMapsENS1_17PredefinedColumnsE@Base 3.2.1-1kern1
 _ZN8casacore7MSTableINS_12MSFieldEnumsEE17requiredTableDescEv@Base 3.2.1-1kern1
 _ZN8casacore7MSTableINS_12MSFieldEnumsEE20addColumnCompressionERNS_9TableDescENS1_17PredefinedColumnsEbRKNS_6StringE@Base 3.2.1-1kern1
 _ZN8casacore7MSTableINS_12MSFieldEnumsEE21columnStandardCommentENS1_17PredefinedColumnsE@Base 3.2.1-1kern1
 _ZN8casacore7MSTableINS_12MSFieldEnumsEE21columnStandardCommentERKNS_11MSTableMapsENS1_17PredefinedColumnsE@Base 3.2.1-1kern1
 _ZN8casacore7MSTableINS_12MSFieldEnumsEE22keywordStandardCommentENS1_18PredefinedKeywordsE@Base 3.2.1-1kern1
 _ZN8casacore7MSTableINS_12MSFieldEnumsEE22keywordStandardCommentERKNS_11MSTableMapsENS1_18PredefinedKeywordsE@Base 3.2.1-1kern1
 _ZN8casacore7MSTableINS_12MSFieldEnumsEE7getMapsEv@Base 3.2.1-1kern1
 _ZN8casacore7MSTableINS_12MSFieldEnumsEE8validateERKNS_11TableRecordE@Base 3.2.1-1kern1
 _ZN8casacore7MSTableINS_12MSFieldEnumsEE8validateERKNS_9TableDescE@Base 3.2.1-1kern1
 _ZN8casacore7MSTableINS_12MSFieldEnumsEE9colMapDefERNS_11MSTableMapsENS1_17PredefinedColumnsERKNS_6StringENS_8DataTypeES8_S8_S8_@Base 3.2.1-1kern1
 _ZN8casacore7MSTableINS_12MSFieldEnumsEE9keyMapDefERNS_11MSTableMapsENS1_18PredefinedKeywordsERKNS_6StringENS_8DataTypeES8_@Base 3.2.1-1kern1
 _ZN8casacore7MSTableINS_12MSFieldEnumsEEC1ERKNS_5TableE@Base 3.2.1-1kern1
 _ZN8casacore7MSTableINS_12MSFieldEnumsEEC1ERKNS_6StringENS_5Table11TableOptionE@Base 3.2.1-1kern1
 _ZN8casacore7MSTableINS_12MSFieldEnumsEEC1ERKNS_6StringERKNS_9TableLockENS_5Table11TableOptionE@Base 3.2.1-1kern1
 _ZN8casacore7MSTableINS_12MSFieldEnumsEEC1ERKNS_6StringES5_NS_5Table11TableOptionE@Base 3.2.1-1kern1
 _ZN8casacore7MSTableINS_12MSFieldEnumsEEC1ERKNS_6StringES5_RKNS_9TableLockENS_5Table11TableOptionE@Base 3.2.1-1kern1
 _ZN8casacore7MSTableINS_12MSFieldEnumsEEC1ERKS2_@Base 3.2.1-1kern1
 _ZN8casacore7MSTableINS_12MSFieldEnumsEEC1ERNS_13SetupNewTableERKNS_9TableLockEjb@Base 3.2.1-1kern1
 _ZN8casacore7MSTableINS_12MSFieldEnumsEEC1ERNS_13SetupNewTableEjb@Base 3.2.1-1kern1
 _ZN8casacore7MSTableINS_12MSFieldEnumsEEC1Ev@Base 3.2.1-1kern1
 _ZN8casacore7MSTableINS_12MSFieldEnumsEEC2ERKNS_5TableE@Base 3.2.1-1kern1
 _ZN8casacore7MSTableINS_12MSFieldEnumsEEC2ERKNS_6StringENS_5Table11TableOptionE@Base 3.2.1-1kern1
 _ZN8casacore7MSTableINS_12MSFieldEnumsEEC2ERKNS_6StringERKNS_9TableLockENS_5Table11TableOptionE@Base 3.2.1-1kern1
 _ZN8casacore7MSTableINS_12MSFieldEnumsEEC2ERKNS_6StringES5_NS_5Table11TableOptionE@Base 3.2.1-1kern1
 _ZN8casacore7MSTableINS_12MSFieldEnumsEEC2ERKNS_6StringES5_RKNS_9TableLockENS_5Table11TableOptionE@Base 3.2.1-1kern1
 _ZN8casacore7MSTableINS_12MSFieldEnumsEEC2ERKS2_@Base 3.2.1-1kern1
 _ZN8casacore7MSTableINS_12MSFieldEnumsEEC2ERNS_13SetupNewTableERKNS_9TableLockEjb@Base 3.2.1-1kern1
 _ZN8casacore7MSTableINS_12MSFieldEnumsEEC2ERNS_13SetupNewTableEjb@Base 3.2.1-1kern1
 _ZN8casacore7MSTableINS_12MSFieldEnumsEEC2Ev@Base 3.2.1-1kern1
 _ZN8casacore7MSTableINS_12MSFieldEnumsEED0Ev@Base 3.2.1-1kern1
 _ZN8casacore7MSTableINS_12MSFieldEnumsEED1Ev@Base 3.2.1-1kern1
 _ZN8casacore7MSTableINS_12MSFieldEnumsEED2Ev@Base 3.2.1-1kern1
 _ZN8casacore7MSTableINS_12MSFieldEnumsEEaSERKS2_@Base 3.2.1-1kern1
 _ZN8casacore7MSTableINS_12MSStateEnumsEE10columnNameENS1_17PredefinedColumnsE@Base 3.2.1-1kern1
 _ZN8casacore7MSTableINS_12MSStateEnumsEE10columnNameERKNS_11MSTableMapsENS1_17PredefinedColumnsE@Base 3.2.1-1kern1
 _ZN8casacore7MSTableINS_12MSStateEnumsEE10columnTypeERKNS_6StringE@Base 3.2.1-1kern1
 _ZN8casacore7MSTableINS_12MSStateEnumsEE10columnUnitENS1_17PredefinedColumnsE@Base 3.2.1-1kern1
 _ZN8casacore7MSTableINS_12MSStateEnumsEE10columnUnitERKNS_11MSTableMapsENS1_17PredefinedColumnsE@Base 3.2.1-1kern1
 _ZN8casacore7MSTableINS_12MSStateEnumsEE11keywordNameENS1_18PredefinedKeywordsE@Base 3.2.1-1kern1
 _ZN8casacore7MSTableINS_12MSStateEnumsEE11keywordNameERKNS_11MSTableMapsENS1_18PredefinedKeywordsE@Base 3.2.1-1kern1
 _ZN8casacore7MSTableINS_12MSStateEnumsEE11keywordTypeERKNS_6StringE@Base 3.2.1-1kern1
 _ZN8casacore7MSTableINS_12MSStateEnumsEE12addKeyToDescERNS_11MSTableMapsENS1_18PredefinedKeywordsE@Base 3.2.1-1kern1
 _ZN8casacore7MSTableINS_12MSStateEnumsEE12addKeyToDescERNS_9TableDescENS1_18PredefinedKeywordsE@Base 3.2.1-1kern1
 _ZN8casacore7MSTableINS_12MSStateEnumsEE14columnDataTypeENS1_17PredefinedColumnsE@Base 3.2.1-1kern1
 _ZN8casacore7MSTableINS_12MSStateEnumsEE14columnDataTypeERKNS_11MSTableMapsENS1_17PredefinedColumnsE@Base 3.2.1-1kern1
 _ZN8casacore7MSTableINS_12MSStateEnumsEE15addColumnToDescERNS_11MSTableMapsENS1_17PredefinedColumnsERKNS_9IPositionENS_10ColumnDesc6OptionERKNS_6StringE@Base 3.2.1-1kern1
 _ZN8casacore7MSTableINS_12MSStateEnumsEE15addColumnToDescERNS_11MSTableMapsENS1_17PredefinedColumnsEiRKNS_6StringE@Base 3.2.1-1kern1
 _ZN8casacore7MSTableINS_12MSStateEnumsEE15addColumnToDescERNS_9TableDescENS1_17PredefinedColumnsERKNS_9IPositionENS_10ColumnDesc6OptionERKNS_6StringE@Base 3.2.1-1kern1
 _ZN8casacore7MSTableINS_12MSStateEnumsEE15addColumnToDescERNS_9TableDescENS1_17PredefinedColumnsEiRKNS_6StringE@Base 3.2.1-1kern1
 _ZN8casacore7MSTableINS_12MSStateEnumsEE15keywordDataTypeENS1_18PredefinedKeywordsE@Base 3.2.1-1kern1
 _ZN8casacore7MSTableINS_12MSStateEnumsEE15keywordDataTypeERKNS_11MSTableMapsENS1_18PredefinedKeywordsE@Base 3.2.1-1kern1
 _ZN8casacore7MSTableINS_12MSStateEnumsEE17columnMeasureTypeENS1_17PredefinedColumnsE@Base 3.2.1-1kern1
 _ZN8casacore7MSTableINS_12MSStateEnumsEE17columnMeasureTypeERKNS_11MSTableMapsENS1_17PredefinedColumnsE@Base 3.2.1-1kern1
 _ZN8casacore7MSTableINS_12MSStateEnumsEE17requiredTableDescEv@Base 3.2.1-1kern1
 _ZN8casacore7MSTableINS_12MSStateEnumsEE20addColumnCompressionERNS_9TableDescENS1_17PredefinedColumnsEbRKNS_6StringE@Base 3.2.1-1kern1
 _ZN8casacore7MSTableINS_12MSStateEnumsEE21columnStandardCommentENS1_17PredefinedColumnsE@Base 3.2.1-1kern1
 _ZN8casacore7MSTableINS_12MSStateEnumsEE21columnStandardCommentERKNS_11MSTableMapsENS1_17PredefinedColumnsE@Base 3.2.1-1kern1
 _ZN8casacore7MSTableINS_12MSStateEnumsEE22keywordStandardCommentENS1_18PredefinedKeywordsE@Base 3.2.1-1kern1
 _ZN8casacore7MSTableINS_12MSStateEnumsEE22keywordStandardCommentERKNS_11MSTableMapsENS1_18PredefinedKeywordsE@Base 3.2.1-1kern1
 _ZN8casacore7MSTableINS_12MSStateEnumsEE7getMapsEv@Base 3.2.1-1kern1
 _ZN8casacore7MSTableINS_12MSStateEnumsEE8validateERKNS_11TableRecordE@Base 3.2.1-1kern1
 _ZN8casacore7MSTableINS_12MSStateEnumsEE8validateERKNS_9TableDescE@Base 3.2.1-1kern1
 _ZN8casacore7MSTableINS_12MSStateEnumsEE9colMapDefERNS_11MSTableMapsENS1_17PredefinedColumnsERKNS_6StringENS_8DataTypeES8_S8_S8_@Base 3.2.1-1kern1
 _ZN8casacore7MSTableINS_12MSStateEnumsEE9keyMapDefERNS_11MSTableMapsENS1_18PredefinedKeywordsERKNS_6StringENS_8DataTypeES8_@Base 3.2.1-1kern1
 _ZN8casacore7MSTableINS_12MSStateEnumsEEC1ERKNS_5TableE@Base 3.2.1-1kern1
 _ZN8casacore7MSTableINS_12MSStateEnumsEEC1ERKNS_6StringENS_5Table11TableOptionE@Base 3.2.1-1kern1
 _ZN8casacore7MSTableINS_12MSStateEnumsEEC1ERKNS_6StringERKNS_9TableLockENS_5Table11TableOptionE@Base 3.2.1-1kern1
 _ZN8casacore7MSTableINS_12MSStateEnumsEEC1ERKNS_6StringES5_NS_5Table11TableOptionE@Base 3.2.1-1kern1
 _ZN8casacore7MSTableINS_12MSStateEnumsEEC1ERKNS_6StringES5_RKNS_9TableLockENS_5Table11TableOptionE@Base 3.2.1-1kern1
 _ZN8casacore7MSTableINS_12MSStateEnumsEEC1ERKS2_@Base 3.2.1-1kern1
 _ZN8casacore7MSTableINS_12MSStateEnumsEEC1ERNS_13SetupNewTableERKNS_9TableLockEjb@Base 3.2.1-1kern1
 _ZN8casacore7MSTableINS_12MSStateEnumsEEC1ERNS_13SetupNewTableEjb@Base 3.2.1-1kern1
 _ZN8casacore7MSTableINS_12MSStateEnumsEEC1Ev@Base 3.2.1-1kern1
 _ZN8casacore7MSTableINS_12MSStateEnumsEEC2ERKNS_5TableE@Base 3.2.1-1kern1
 _ZN8casacore7MSTableINS_12MSStateEnumsEEC2ERKNS_6StringENS_5Table11TableOptionE@Base 3.2.1-1kern1
 _ZN8casacore7MSTableINS_12MSStateEnumsEEC2ERKNS_6StringERKNS_9TableLockENS_5Table11TableOptionE@Base 3.2.1-1kern1
 _ZN8casacore7MSTableINS_12MSStateEnumsEEC2ERKNS_6StringES5_NS_5Table11TableOptionE@Base 3.2.1-1kern1
 _ZN8casacore7MSTableINS_12MSStateEnumsEEC2ERKNS_6StringES5_RKNS_9TableLockENS_5Table11TableOptionE@Base 3.2.1-1kern1
 _ZN8casacore7MSTableINS_12MSStateEnumsEEC2ERKS2_@Base 3.2.1-1kern1
 _ZN8casacore7MSTableINS_12MSStateEnumsEEC2ERNS_13SetupNewTableERKNS_9TableLockEjb@Base 3.2.1-1kern1
 _ZN8casacore7MSTableINS_12MSStateEnumsEEC2ERNS_13SetupNewTableEjb@Base 3.2.1-1kern1
 _ZN8casacore7MSTableINS_12MSStateEnumsEEC2Ev@Base 3.2.1-1kern1
 _ZN8casacore7MSTableINS_12MSStateEnumsEED0Ev@Base 3.2.1-1kern1
 _ZN8casacore7MSTableINS_12MSStateEnumsEED1Ev@Base 3.2.1-1kern1
 _ZN8casacore7MSTableINS_12MSStateEnumsEED2Ev@Base 3.2.1-1kern1
 _ZN8casacore7MSTableINS_12MSStateEnumsEEaSERKS2_@Base 3.2.1-1kern1
 _ZN8casacore7MSTableINS_13MSSourceEnumsEE10columnNameENS1_17PredefinedColumnsE@Base 3.2.1-1kern1
 _ZN8casacore7MSTableINS_13MSSourceEnumsEE10columnNameERKNS_11MSTableMapsENS1_17PredefinedColumnsE@Base 3.2.1-1kern1
 _ZN8casacore7MSTableINS_13MSSourceEnumsEE10columnTypeERKNS_6StringE@Base 3.2.1-1kern1
 _ZN8casacore7MSTableINS_13MSSourceEnumsEE10columnUnitENS1_17PredefinedColumnsE@Base 3.2.1-1kern1
 _ZN8casacore7MSTableINS_13MSSourceEnumsEE10columnUnitERKNS_11MSTableMapsENS1_17PredefinedColumnsE@Base 3.2.1-1kern1
 _ZN8casacore7MSTableINS_13MSSourceEnumsEE11keywordNameENS1_18PredefinedKeywordsE@Base 3.2.1-1kern1
 _ZN8casacore7MSTableINS_13MSSourceEnumsEE11keywordNameERKNS_11MSTableMapsENS1_18PredefinedKeywordsE@Base 3.2.1-1kern1
 _ZN8casacore7MSTableINS_13MSSourceEnumsEE11keywordTypeERKNS_6StringE@Base 3.2.1-1kern1
 _ZN8casacore7MSTableINS_13MSSourceEnumsEE12addKeyToDescERNS_11MSTableMapsENS1_18PredefinedKeywordsE@Base 3.2.1-1kern1
 _ZN8casacore7MSTableINS_13MSSourceEnumsEE12addKeyToDescERNS_9TableDescENS1_18PredefinedKeywordsE@Base 3.2.1-1kern1
 _ZN8casacore7MSTableINS_13MSSourceEnumsEE14columnDataTypeENS1_17PredefinedColumnsE@Base 3.2.1-1kern1
 _ZN8casacore7MSTableINS_13MSSourceEnumsEE14columnDataTypeERKNS_11MSTableMapsENS1_17PredefinedColumnsE@Base 3.2.1-1kern1
 _ZN8casacore7MSTableINS_13MSSourceEnumsEE15addColumnToDescERNS_11MSTableMapsENS1_17PredefinedColumnsERKNS_9IPositionENS_10ColumnDesc6OptionERKNS_6StringE@Base 3.2.1-1kern1
 _ZN8casacore7MSTableINS_13MSSourceEnumsEE15addColumnToDescERNS_11MSTableMapsENS1_17PredefinedColumnsEiRKNS_6StringE@Base 3.2.1-1kern1
 _ZN8casacore7MSTableINS_13MSSourceEnumsEE15addColumnToDescERNS_9TableDescENS1_17PredefinedColumnsERKNS_9IPositionENS_10ColumnDesc6OptionERKNS_6StringE@Base 3.2.1-1kern1
 _ZN8casacore7MSTableINS_13MSSourceEnumsEE15addColumnToDescERNS_9TableDescENS1_17PredefinedColumnsEiRKNS_6StringE@Base 3.2.1-1kern1
 _ZN8casacore7MSTableINS_13MSSourceEnumsEE15keywordDataTypeENS1_18PredefinedKeywordsE@Base 3.2.1-1kern1
 _ZN8casacore7MSTableINS_13MSSourceEnumsEE15keywordDataTypeERKNS_11MSTableMapsENS1_18PredefinedKeywordsE@Base 3.2.1-1kern1
 _ZN8casacore7MSTableINS_13MSSourceEnumsEE17columnMeasureTypeENS1_17PredefinedColumnsE@Base 3.2.1-1kern1
 _ZN8casacore7MSTableINS_13MSSourceEnumsEE17columnMeasureTypeERKNS_11MSTableMapsENS1_17PredefinedColumnsE@Base 3.2.1-1kern1
 _ZN8casacore7MSTableINS_13MSSourceEnumsEE17requiredTableDescEv@Base 3.2.1-1kern1
 _ZN8casacore7MSTableINS_13MSSourceEnumsEE20addColumnCompressionERNS_9TableDescENS1_17PredefinedColumnsEbRKNS_6StringE@Base 3.2.1-1kern1
 _ZN8casacore7MSTableINS_13MSSourceEnumsEE21columnStandardCommentENS1_17PredefinedColumnsE@Base 3.2.1-1kern1
 _ZN8casacore7MSTableINS_13MSSourceEnumsEE21columnStandardCommentERKNS_11MSTableMapsENS1_17PredefinedColumnsE@Base 3.2.1-1kern1
 _ZN8casacore7MSTableINS_13MSSourceEnumsEE22keywordStandardCommentENS1_18PredefinedKeywordsE@Base 3.2.1-1kern1
 _ZN8casacore7MSTableINS_13MSSourceEnumsEE22keywordStandardCommentERKNS_11MSTableMapsENS1_18PredefinedKeywordsE@Base 3.2.1-1kern1
 _ZN8casacore7MSTableINS_13MSSourceEnumsEE7getMapsEv@Base 3.2.1-1kern1
 _ZN8casacore7MSTableINS_13MSSourceEnumsEE8validateERKNS_11TableRecordE@Base 3.2.1-1kern1
 _ZN8casacore7MSTableINS_13MSSourceEnumsEE8validateERKNS_9TableDescE@Base 3.2.1-1kern1
 _ZN8casacore7MSTableINS_13MSSourceEnumsEE9colMapDefERNS_11MSTableMapsENS1_17PredefinedColumnsERKNS_6StringENS_8DataTypeES8_S8_S8_@Base 3.2.1-1kern1
 _ZN8casacore7MSTableINS_13MSSourceEnumsEE9keyMapDefERNS_11MSTableMapsENS1_18PredefinedKeywordsERKNS_6StringENS_8DataTypeES8_@Base 3.2.1-1kern1
 _ZN8casacore7MSTableINS_13MSSourceEnumsEEC1ERKNS_5TableE@Base 3.2.1-1kern1
 _ZN8casacore7MSTableINS_13MSSourceEnumsEEC1ERKNS_6StringENS_5Table11TableOptionE@Base 3.2.1-1kern1
 _ZN8casacore7MSTableINS_13MSSourceEnumsEEC1ERKNS_6StringERKNS_9TableLockENS_5Table11TableOptionE@Base 3.2.1-1kern1
 _ZN8casacore7MSTableINS_13MSSourceEnumsEEC1ERKNS_6StringES5_NS_5Table11TableOptionE@Base 3.2.1-1kern1
 _ZN8casacore7MSTableINS_13MSSourceEnumsEEC1ERKNS_6StringES5_RKNS_9TableLockENS_5Table11TableOptionE@Base 3.2.1-1kern1
 _ZN8casacore7MSTableINS_13MSSourceEnumsEEC1ERKS2_@Base 3.2.1-1kern1
 _ZN8casacore7MSTableINS_13MSSourceEnumsEEC1ERNS_13SetupNewTableERKNS_9TableLockEjb@Base 3.2.1-1kern1
 _ZN8casacore7MSTableINS_13MSSourceEnumsEEC1ERNS_13SetupNewTableEjb@Base 3.2.1-1kern1
 _ZN8casacore7MSTableINS_13MSSourceEnumsEEC1Ev@Base 3.2.1-1kern1
 _ZN8casacore7MSTableINS_13MSSourceEnumsEEC2ERKNS_5TableE@Base 3.2.1-1kern1
 _ZN8casacore7MSTableINS_13MSSourceEnumsEEC2ERKNS_6StringENS_5Table11TableOptionE@Base 3.2.1-1kern1
 _ZN8casacore7MSTableINS_13MSSourceEnumsEEC2ERKNS_6StringERKNS_9TableLockENS_5Table11TableOptionE@Base 3.2.1-1kern1
 _ZN8casacore7MSTableINS_13MSSourceEnumsEEC2ERKNS_6StringES5_NS_5Table11TableOptionE@Base 3.2.1-1kern1
 _ZN8casacore7MSTableINS_13MSSourceEnumsEEC2ERKNS_6StringES5_RKNS_9TableLockENS_5Table11TableOptionE@Base 3.2.1-1kern1
 _ZN8casacore7MSTableINS_13MSSourceEnumsEEC2ERKS2_@Base 3.2.1-1kern1
 _ZN8casacore7MSTableINS_13MSSourceEnumsEEC2ERNS_13SetupNewTableERKNS_9TableLockEjb@Base 3.2.1-1kern1
 _ZN8casacore7MSTableINS_13MSSourceEnumsEEC2ERNS_13SetupNewTableEjb@Base 3.2.1-1kern1
 _ZN8casacore7MSTableINS_13MSSourceEnumsEEC2Ev@Base 3.2.1-1kern1
 _ZN8casacore7MSTableINS_13MSSourceEnumsEED0Ev@Base 3.2.1-1kern1
 _ZN8casacore7MSTableINS_13MSSourceEnumsEED1Ev@Base 3.2.1-1kern1
 _ZN8casacore7MSTableINS_13MSSourceEnumsEED2Ev@Base 3.2.1-1kern1
 _ZN8casacore7MSTableINS_13MSSourceEnumsEEaSERKS2_@Base 3.2.1-1kern1
 _ZN8casacore7MSTableINS_13MSSysCalEnumsEE10columnNameENS1_17PredefinedColumnsE@Base 3.2.1-1kern1
 _ZN8casacore7MSTableINS_13MSSysCalEnumsEE10columnNameERKNS_11MSTableMapsENS1_17PredefinedColumnsE@Base 3.2.1-1kern1
 _ZN8casacore7MSTableINS_13MSSysCalEnumsEE10columnTypeERKNS_6StringE@Base 3.2.1-1kern1
 _ZN8casacore7MSTableINS_13MSSysCalEnumsEE10columnUnitENS1_17PredefinedColumnsE@Base 3.2.1-1kern1
 _ZN8casacore7MSTableINS_13MSSysCalEnumsEE10columnUnitERKNS_11MSTableMapsENS1_17PredefinedColumnsE@Base 3.2.1-1kern1
 _ZN8casacore7MSTableINS_13MSSysCalEnumsEE11keywordNameENS1_18PredefinedKeywordsE@Base 3.2.1-1kern1
 _ZN8casacore7MSTableINS_13MSSysCalEnumsEE11keywordNameERKNS_11MSTableMapsENS1_18PredefinedKeywordsE@Base 3.2.1-1kern1
 _ZN8casacore7MSTableINS_13MSSysCalEnumsEE11keywordTypeERKNS_6StringE@Base 3.2.1-1kern1
 _ZN8casacore7MSTableINS_13MSSysCalEnumsEE12addKeyToDescERNS_11MSTableMapsENS1_18PredefinedKeywordsE@Base 3.2.1-1kern1
 _ZN8casacore7MSTableINS_13MSSysCalEnumsEE12addKeyToDescERNS_9TableDescENS1_18PredefinedKeywordsE@Base 3.2.1-1kern1
 _ZN8casacore7MSTableINS_13MSSysCalEnumsEE14columnDataTypeENS1_17PredefinedColumnsE@Base 3.2.1-1kern1
 _ZN8casacore7MSTableINS_13MSSysCalEnumsEE14columnDataTypeERKNS_11MSTableMapsENS1_17PredefinedColumnsE@Base 3.2.1-1kern1
 _ZN8casacore7MSTableINS_13MSSysCalEnumsEE15addColumnToDescERNS_11MSTableMapsENS1_17PredefinedColumnsERKNS_9IPositionENS_10ColumnDesc6OptionERKNS_6StringE@Base 3.2.1-1kern1
 _ZN8casacore7MSTableINS_13MSSysCalEnumsEE15addColumnToDescERNS_11MSTableMapsENS1_17PredefinedColumnsEiRKNS_6StringE@Base 3.2.1-1kern1
 _ZN8casacore7MSTableINS_13MSSysCalEnumsEE15addColumnToDescERNS_9TableDescENS1_17PredefinedColumnsERKNS_9IPositionENS_10ColumnDesc6OptionERKNS_6StringE@Base 3.2.1-1kern1
 _ZN8casacore7MSTableINS_13MSSysCalEnumsEE15addColumnToDescERNS_9TableDescENS1_17PredefinedColumnsEiRKNS_6StringE@Base 3.2.1-1kern1
 _ZN8casacore7MSTableINS_13MSSysCalEnumsEE15keywordDataTypeENS1_18PredefinedKeywordsE@Base 3.2.1-1kern1
 _ZN8casacore7MSTableINS_13MSSysCalEnumsEE15keywordDataTypeERKNS_11MSTableMapsENS1_18PredefinedKeywordsE@Base 3.2.1-1kern1
 _ZN8casacore7MSTableINS_13MSSysCalEnumsEE17columnMeasureTypeENS1_17PredefinedColumnsE@Base 3.2.1-1kern1
 _ZN8casacore7MSTableINS_13MSSysCalEnumsEE17columnMeasureTypeERKNS_11MSTableMapsENS1_17PredefinedColumnsE@Base 3.2.1-1kern1
 _ZN8casacore7MSTableINS_13MSSysCalEnumsEE17requiredTableDescEv@Base 3.2.1-1kern1
 _ZN8casacore7MSTableINS_13MSSysCalEnumsEE20addColumnCompressionERNS_9TableDescENS1_17PredefinedColumnsEbRKNS_6StringE@Base 3.2.1-1kern1
 _ZN8casacore7MSTableINS_13MSSysCalEnumsEE21columnStandardCommentENS1_17PredefinedColumnsE@Base 3.2.1-1kern1
 _ZN8casacore7MSTableINS_13MSSysCalEnumsEE21columnStandardCommentERKNS_11MSTableMapsENS1_17PredefinedColumnsE@Base 3.2.1-1kern1
 _ZN8casacore7MSTableINS_13MSSysCalEnumsEE22keywordStandardCommentENS1_18PredefinedKeywordsE@Base 3.2.1-1kern1
 _ZN8casacore7MSTableINS_13MSSysCalEnumsEE22keywordStandardCommentERKNS_11MSTableMapsENS1_18PredefinedKeywordsE@Base 3.2.1-1kern1
 _ZN8casacore7MSTableINS_13MSSysCalEnumsEE7getMapsEv@Base 3.2.1-1kern1
 _ZN8casacore7MSTableINS_13MSSysCalEnumsEE8validateERKNS_11TableRecordE@Base 3.2.1-1kern1
 _ZN8casacore7MSTableINS_13MSSysCalEnumsEE8validateERKNS_9TableDescE@Base 3.2.1-1kern1
 _ZN8casacore7MSTableINS_13MSSysCalEnumsEE9colMapDefERNS_11MSTableMapsENS1_17PredefinedColumnsERKNS_6StringENS_8DataTypeES8_S8_S8_@Base 3.2.1-1kern1
 _ZN8casacore7MSTableINS_13MSSysCalEnumsEE9keyMapDefERNS_11MSTableMapsENS1_18PredefinedKeywordsERKNS_6StringENS_8DataTypeES8_@Base 3.2.1-1kern1
 _ZN8casacore7MSTableINS_13MSSysCalEnumsEEC1ERKNS_5TableE@Base 3.2.1-1kern1
 _ZN8casacore7MSTableINS_13MSSysCalEnumsEEC1ERKNS_6StringENS_5Table11TableOptionE@Base 3.2.1-1kern1
 _ZN8casacore7MSTableINS_13MSSysCalEnumsEEC1ERKNS_6StringERKNS_9TableLockENS_5Table11TableOptionE@Base 3.2.1-1kern1
 _ZN8casacore7MSTableINS_13MSSysCalEnumsEEC1ERKNS_6StringES5_NS_5Table11TableOptionE@Base 3.2.1-1kern1
 _ZN8casacore7MSTableINS_13MSSysCalEnumsEEC1ERKNS_6StringES5_RKNS_9TableLockENS_5Table11TableOptionE@Base 3.2.1-1kern1
 _ZN8casacore7MSTableINS_13MSSysCalEnumsEEC1ERKS2_@Base 3.2.1-1kern1
 _ZN8casacore7MSTableINS_13MSSysCalEnumsEEC1ERNS_13SetupNewTableERKNS_9TableLockEjb@Base 3.2.1-1kern1
 _ZN8casacore7MSTableINS_13MSSysCalEnumsEEC1ERNS_13SetupNewTableEjb@Base 3.2.1-1kern1
 _ZN8casacore7MSTableINS_13MSSysCalEnumsEEC1Ev@Base 3.2.1-1kern1
 _ZN8casacore7MSTableINS_13MSSysCalEnumsEEC2ERKNS_5TableE@Base 3.2.1-1kern1
 _ZN8casacore7MSTableINS_13MSSysCalEnumsEEC2ERKNS_6StringENS_5Table11TableOptionE@Base 3.2.1-1kern1
 _ZN8casacore7MSTableINS_13MSSysCalEnumsEEC2ERKNS_6StringERKNS_9TableLockENS_5Table11TableOptionE@Base 3.2.1-1kern1
 _ZN8casacore7MSTableINS_13MSSysCalEnumsEEC2ERKNS_6StringES5_NS_5Table11TableOptionE@Base 3.2.1-1kern1
 _ZN8casacore7MSTableINS_13MSSysCalEnumsEEC2ERKNS_6StringES5_RKNS_9TableLockENS_5Table11TableOptionE@Base 3.2.1-1kern1
 _ZN8casacore7MSTableINS_13MSSysCalEnumsEEC2ERKS2_@Base 3.2.1-1kern1
 _ZN8casacore7MSTableINS_13MSSysCalEnumsEEC2ERNS_13SetupNewTableERKNS_9TableLockEjb@Base 3.2.1-1kern1
 _ZN8casacore7MSTableINS_13MSSysCalEnumsEEC2ERNS_13SetupNewTableEjb@Base 3.2.1-1kern1
 _ZN8casacore7MSTableINS_13MSSysCalEnumsEEC2Ev@Base 3.2.1-1kern1
 _ZN8casacore7MSTableINS_13MSSysCalEnumsEED0Ev@Base 3.2.1-1kern1
 _ZN8casacore7MSTableINS_13MSSysCalEnumsEED1Ev@Base 3.2.1-1kern1
 _ZN8casacore7MSTableINS_13MSSysCalEnumsEED2Ev@Base 3.2.1-1kern1
 _ZN8casacore7MSTableINS_13MSSysCalEnumsEEaSERKS2_@Base 3.2.1-1kern1
 _ZN8casacore7MSTableINS_14MSAntennaEnumsEE10columnNameENS1_17PredefinedColumnsE@Base 3.2.1-1kern1
 _ZN8casacore7MSTableINS_14MSAntennaEnumsEE10columnNameERKNS_11MSTableMapsENS1_17PredefinedColumnsE@Base 3.2.1-1kern1
 _ZN8casacore7MSTableINS_14MSAntennaEnumsEE10columnTypeERKNS_6StringE@Base 3.2.1-1kern1
 _ZN8casacore7MSTableINS_14MSAntennaEnumsEE10columnUnitENS1_17PredefinedColumnsE@Base 3.2.1-1kern1
 _ZN8casacore7MSTableINS_14MSAntennaEnumsEE10columnUnitERKNS_11MSTableMapsENS1_17PredefinedColumnsE@Base 3.2.1-1kern1
 _ZN8casacore7MSTableINS_14MSAntennaEnumsEE11keywordNameENS1_18PredefinedKeywordsE@Base 3.2.1-1kern1
 _ZN8casacore7MSTableINS_14MSAntennaEnumsEE11keywordNameERKNS_11MSTableMapsENS1_18PredefinedKeywordsE@Base 3.2.1-1kern1
 _ZN8casacore7MSTableINS_14MSAntennaEnumsEE11keywordTypeERKNS_6StringE@Base 3.2.1-1kern1
 _ZN8casacore7MSTableINS_14MSAntennaEnumsEE12addKeyToDescERNS_11MSTableMapsENS1_18PredefinedKeywordsE@Base 3.2.1-1kern1
 _ZN8casacore7MSTableINS_14MSAntennaEnumsEE12addKeyToDescERNS_9TableDescENS1_18PredefinedKeywordsE@Base 3.2.1-1kern1
 _ZN8casacore7MSTableINS_14MSAntennaEnumsEE14columnDataTypeENS1_17PredefinedColumnsE@Base 3.2.1-1kern1
 _ZN8casacore7MSTableINS_14MSAntennaEnumsEE14columnDataTypeERKNS_11MSTableMapsENS1_17PredefinedColumnsE@Base 3.2.1-1kern1
 _ZN8casacore7MSTableINS_14MSAntennaEnumsEE15addColumnToDescERNS_11MSTableMapsENS1_17PredefinedColumnsERKNS_9IPositionENS_10ColumnDesc6OptionERKNS_6StringE@Base 3.2.1-1kern1
 _ZN8casacore7MSTableINS_14MSAntennaEnumsEE15addColumnToDescERNS_11MSTableMapsENS1_17PredefinedColumnsEiRKNS_6StringE@Base 3.2.1-1kern1
 _ZN8casacore7MSTableINS_14MSAntennaEnumsEE15addColumnToDescERNS_9TableDescENS1_17PredefinedColumnsERKNS_9IPositionENS_10ColumnDesc6OptionERKNS_6StringE@Base 3.2.1-1kern1
 _ZN8casacore7MSTableINS_14MSAntennaEnumsEE15addColumnToDescERNS_9TableDescENS1_17PredefinedColumnsEiRKNS_6StringE@Base 3.2.1-1kern1
 _ZN8casacore7MSTableINS_14MSAntennaEnumsEE15keywordDataTypeENS1_18PredefinedKeywordsE@Base 3.2.1-1kern1
 _ZN8casacore7MSTableINS_14MSAntennaEnumsEE15keywordDataTypeERKNS_11MSTableMapsENS1_18PredefinedKeywordsE@Base 3.2.1-1kern1
 _ZN8casacore7MSTableINS_14MSAntennaEnumsEE17columnMeasureTypeENS1_17PredefinedColumnsE@Base 3.2.1-1kern1
 _ZN8casacore7MSTableINS_14MSAntennaEnumsEE17columnMeasureTypeERKNS_11MSTableMapsENS1_17PredefinedColumnsE@Base 3.2.1-1kern1
 _ZN8casacore7MSTableINS_14MSAntennaEnumsEE17requiredTableDescEv@Base 3.2.1-1kern1
 _ZN8casacore7MSTableINS_14MSAntennaEnumsEE20addColumnCompressionERNS_9TableDescENS1_17PredefinedColumnsEbRKNS_6StringE@Base 3.2.1-1kern1
 _ZN8casacore7MSTableINS_14MSAntennaEnumsEE21columnStandardCommentENS1_17PredefinedColumnsE@Base 3.2.1-1kern1
 _ZN8casacore7MSTableINS_14MSAntennaEnumsEE21columnStandardCommentERKNS_11MSTableMapsENS1_17PredefinedColumnsE@Base 3.2.1-1kern1
 _ZN8casacore7MSTableINS_14MSAntennaEnumsEE22keywordStandardCommentENS1_18PredefinedKeywordsE@Base 3.2.1-1kern1
 _ZN8casacore7MSTableINS_14MSAntennaEnumsEE22keywordStandardCommentERKNS_11MSTableMapsENS1_18PredefinedKeywordsE@Base 3.2.1-1kern1
 _ZN8casacore7MSTableINS_14MSAntennaEnumsEE7getMapsEv@Base 3.2.1-1kern1
 _ZN8casacore7MSTableINS_14MSAntennaEnumsEE8validateERKNS_11TableRecordE@Base 3.2.1-1kern1
 _ZN8casacore7MSTableINS_14MSAntennaEnumsEE8validateERKNS_9TableDescE@Base 3.2.1-1kern1
 _ZN8casacore7MSTableINS_14MSAntennaEnumsEE9colMapDefERNS_11MSTableMapsENS1_17PredefinedColumnsERKNS_6StringENS_8DataTypeES8_S8_S8_@Base 3.2.1-1kern1
 _ZN8casacore7MSTableINS_14MSAntennaEnumsEE9keyMapDefERNS_11MSTableMapsENS1_18PredefinedKeywordsERKNS_6StringENS_8DataTypeES8_@Base 3.2.1-1kern1
 _ZN8casacore7MSTableINS_14MSAntennaEnumsEEC1ERKNS_5TableE@Base 3.2.1-1kern1
 _ZN8casacore7MSTableINS_14MSAntennaEnumsEEC1ERKNS_6StringENS_5Table11TableOptionE@Base 3.2.1-1kern1
 _ZN8casacore7MSTableINS_14MSAntennaEnumsEEC1ERKNS_6StringERKNS_9TableLockENS_5Table11TableOptionE@Base 3.2.1-1kern1
 _ZN8casacore7MSTableINS_14MSAntennaEnumsEEC1ERKNS_6StringES5_NS_5Table11TableOptionE@Base 3.2.1-1kern1
 _ZN8casacore7MSTableINS_14MSAntennaEnumsEEC1ERKNS_6StringES5_RKNS_9TableLockENS_5Table11TableOptionE@Base 3.2.1-1kern1
 _ZN8casacore7MSTableINS_14MSAntennaEnumsEEC1ERKS2_@Base 3.2.1-1kern1
 _ZN8casacore7MSTableINS_14MSAntennaEnumsEEC1ERNS_13SetupNewTableERKNS_9TableLockEjb@Base 3.2.1-1kern1
 _ZN8casacore7MSTableINS_14MSAntennaEnumsEEC1ERNS_13SetupNewTableEjb@Base 3.2.1-1kern1
 _ZN8casacore7MSTableINS_14MSAntennaEnumsEEC1Ev@Base 3.2.1-1kern1
 _ZN8casacore7MSTableINS_14MSAntennaEnumsEEC2ERKNS_5TableE@Base 3.2.1-1kern1
 _ZN8casacore7MSTableINS_14MSAntennaEnumsEEC2ERKNS_6StringENS_5Table11TableOptionE@Base 3.2.1-1kern1
 _ZN8casacore7MSTableINS_14MSAntennaEnumsEEC2ERKNS_6StringERKNS_9TableLockENS_5Table11TableOptionE@Base 3.2.1-1kern1
 _ZN8casacore7MSTableINS_14MSAntennaEnumsEEC2ERKNS_6StringES5_NS_5Table11TableOptionE@Base 3.2.1-1kern1
 _ZN8casacore7MSTableINS_14MSAntennaEnumsEEC2ERKNS_6StringES5_RKNS_9TableLockENS_5Table11TableOptionE@Base 3.2.1-1kern1
 _ZN8casacore7MSTableINS_14MSAntennaEnumsEEC2ERKS2_@Base 3.2.1-1kern1
 _ZN8casacore7MSTableINS_14MSAntennaEnumsEEC2ERNS_13SetupNewTableERKNS_9TableLockEjb@Base 3.2.1-1kern1
 _ZN8casacore7MSTableINS_14MSAntennaEnumsEEC2ERNS_13SetupNewTableEjb@Base 3.2.1-1kern1
 _ZN8casacore7MSTableINS_14MSAntennaEnumsEEC2Ev@Base 3.2.1-1kern1
 _ZN8casacore7MSTableINS_14MSAntennaEnumsEED0Ev@Base 3.2.1-1kern1
 _ZN8casacore7MSTableINS_14MSAntennaEnumsEED1Ev@Base 3.2.1-1kern1
 _ZN8casacore7MSTableINS_14MSAntennaEnumsEED2Ev@Base 3.2.1-1kern1
 _ZN8casacore7MSTableINS_14MSAntennaEnumsEEaSERKS2_@Base 3.2.1-1kern1
 _ZN8casacore7MSTableINS_14MSDopplerEnumsEE10columnNameENS1_17PredefinedColumnsE@Base 3.2.1-1kern1
 _ZN8casacore7MSTableINS_14MSDopplerEnumsEE10columnNameERKNS_11MSTableMapsENS1_17PredefinedColumnsE@Base 3.2.1-1kern1
 _ZN8casacore7MSTableINS_14MSDopplerEnumsEE10columnTypeERKNS_6StringE@Base 3.2.1-1kern1
 _ZN8casacore7MSTableINS_14MSDopplerEnumsEE10columnUnitENS1_17PredefinedColumnsE@Base 3.2.1-1kern1
 _ZN8casacore7MSTableINS_14MSDopplerEnumsEE10columnUnitERKNS_11MSTableMapsENS1_17PredefinedColumnsE@Base 3.2.1-1kern1
 _ZN8casacore7MSTableINS_14MSDopplerEnumsEE11keywordNameENS1_18PredefinedKeywordsE@Base 3.2.1-1kern1
 _ZN8casacore7MSTableINS_14MSDopplerEnumsEE11keywordNameERKNS_11MSTableMapsENS1_18PredefinedKeywordsE@Base 3.2.1-1kern1
 _ZN8casacore7MSTableINS_14MSDopplerEnumsEE11keywordTypeERKNS_6StringE@Base 3.2.1-1kern1
 _ZN8casacore7MSTableINS_14MSDopplerEnumsEE12addKeyToDescERNS_11MSTableMapsENS1_18PredefinedKeywordsE@Base 3.2.1-1kern1
 _ZN8casacore7MSTableINS_14MSDopplerEnumsEE12addKeyToDescERNS_9TableDescENS1_18PredefinedKeywordsE@Base 3.2.1-1kern1
 _ZN8casacore7MSTableINS_14MSDopplerEnumsEE14columnDataTypeENS1_17PredefinedColumnsE@Base 3.2.1-1kern1
 _ZN8casacore7MSTableINS_14MSDopplerEnumsEE14columnDataTypeERKNS_11MSTableMapsENS1_17PredefinedColumnsE@Base 3.2.1-1kern1
 _ZN8casacore7MSTableINS_14MSDopplerEnumsEE15addColumnToDescERNS_11MSTableMapsENS1_17PredefinedColumnsERKNS_9IPositionENS_10ColumnDesc6OptionERKNS_6StringE@Base 3.2.1-1kern1
 _ZN8casacore7MSTableINS_14MSDopplerEnumsEE15addColumnToDescERNS_11MSTableMapsENS1_17PredefinedColumnsEiRKNS_6StringE@Base 3.2.1-1kern1
 _ZN8casacore7MSTableINS_14MSDopplerEnumsEE15addColumnToDescERNS_9TableDescENS1_17PredefinedColumnsERKNS_9IPositionENS_10ColumnDesc6OptionERKNS_6StringE@Base 3.2.1-1kern1
 _ZN8casacore7MSTableINS_14MSDopplerEnumsEE15addColumnToDescERNS_9TableDescENS1_17PredefinedColumnsEiRKNS_6StringE@Base 3.2.1-1kern1
 _ZN8casacore7MSTableINS_14MSDopplerEnumsEE15keywordDataTypeENS1_18PredefinedKeywordsE@Base 3.2.1-1kern1
 _ZN8casacore7MSTableINS_14MSDopplerEnumsEE15keywordDataTypeERKNS_11MSTableMapsENS1_18PredefinedKeywordsE@Base 3.2.1-1kern1
 _ZN8casacore7MSTableINS_14MSDopplerEnumsEE17columnMeasureTypeENS1_17PredefinedColumnsE@Base 3.2.1-1kern1
 _ZN8casacore7MSTableINS_14MSDopplerEnumsEE17columnMeasureTypeERKNS_11MSTableMapsENS1_17PredefinedColumnsE@Base 3.2.1-1kern1
 _ZN8casacore7MSTableINS_14MSDopplerEnumsEE17requiredTableDescEv@Base 3.2.1-1kern1
 _ZN8casacore7MSTableINS_14MSDopplerEnumsEE20addColumnCompressionERNS_9TableDescENS1_17PredefinedColumnsEbRKNS_6StringE@Base 3.2.1-1kern1
 _ZN8casacore7MSTableINS_14MSDopplerEnumsEE21columnStandardCommentENS1_17PredefinedColumnsE@Base 3.2.1-1kern1
 _ZN8casacore7MSTableINS_14MSDopplerEnumsEE21columnStandardCommentERKNS_11MSTableMapsENS1_17PredefinedColumnsE@Base 3.2.1-1kern1
 _ZN8casacore7MSTableINS_14MSDopplerEnumsEE22keywordStandardCommentENS1_18PredefinedKeywordsE@Base 3.2.1-1kern1
 _ZN8casacore7MSTableINS_14MSDopplerEnumsEE22keywordStandardCommentERKNS_11MSTableMapsENS1_18PredefinedKeywordsE@Base 3.2.1-1kern1
 _ZN8casacore7MSTableINS_14MSDopplerEnumsEE7getMapsEv@Base 3.2.1-1kern1
 _ZN8casacore7MSTableINS_14MSDopplerEnumsEE8validateERKNS_11TableRecordE@Base 3.2.1-1kern1
 _ZN8casacore7MSTableINS_14MSDopplerEnumsEE8validateERKNS_9TableDescE@Base 3.2.1-1kern1
 _ZN8casacore7MSTableINS_14MSDopplerEnumsEE9colMapDefERNS_11MSTableMapsENS1_17PredefinedColumnsERKNS_6StringENS_8DataTypeES8_S8_S8_@Base 3.2.1-1kern1
 _ZN8casacore7MSTableINS_14MSDopplerEnumsEE9keyMapDefERNS_11MSTableMapsENS1_18PredefinedKeywordsERKNS_6StringENS_8DataTypeES8_@Base 3.2.1-1kern1
 _ZN8casacore7MSTableINS_14MSDopplerEnumsEEC1ERKNS_5TableE@Base 3.2.1-1kern1
 _ZN8casacore7MSTableINS_14MSDopplerEnumsEEC1ERKNS_6StringENS_5Table11TableOptionE@Base 3.2.1-1kern1
 _ZN8casacore7MSTableINS_14MSDopplerEnumsEEC1ERKNS_6StringERKNS_9TableLockENS_5Table11TableOptionE@Base 3.2.1-1kern1
 _ZN8casacore7MSTableINS_14MSDopplerEnumsEEC1ERKNS_6StringES5_NS_5Table11TableOptionE@Base 3.2.1-1kern1
 _ZN8casacore7MSTableINS_14MSDopplerEnumsEEC1ERKNS_6StringES5_RKNS_9TableLockENS_5Table11TableOptionE@Base 3.2.1-1kern1
 _ZN8casacore7MSTableINS_14MSDopplerEnumsEEC1ERKS2_@Base 3.2.1-1kern1
 _ZN8casacore7MSTableINS_14MSDopplerEnumsEEC1ERNS_13SetupNewTableERKNS_9TableLockEjb@Base 3.2.1-1kern1
 _ZN8casacore7MSTableINS_14MSDopplerEnumsEEC1ERNS_13SetupNewTableEjb@Base 3.2.1-1kern1
 _ZN8casacore7MSTableINS_14MSDopplerEnumsEEC1Ev@Base 3.2.1-1kern1
 _ZN8casacore7MSTableINS_14MSDopplerEnumsEEC2ERKNS_5TableE@Base 3.2.1-1kern1
 _ZN8casacore7MSTableINS_14MSDopplerEnumsEEC2ERKNS_6StringENS_5Table11TableOptionE@Base 3.2.1-1kern1
 _ZN8casacore7MSTableINS_14MSDopplerEnumsEEC2ERKNS_6StringERKNS_9TableLockENS_5Table11TableOptionE@Base 3.2.1-1kern1
 _ZN8casacore7MSTableINS_14MSDopplerEnumsEEC2ERKNS_6StringES5_NS_5Table11TableOptionE@Base 3.2.1-1kern1
 _ZN8casacore7MSTableINS_14MSDopplerEnumsEEC2ERKNS_6StringES5_RKNS_9TableLockENS_5Table11TableOptionE@Base 3.2.1-1kern1
 _ZN8casacore7MSTableINS_14MSDopplerEnumsEEC2ERKS2_@Base 3.2.1-1kern1
 _ZN8casacore7MSTableINS_14MSDopplerEnumsEEC2ERNS_13SetupNewTableERKNS_9TableLockEjb@Base 3.2.1-1kern1
 _ZN8casacore7MSTableINS_14MSDopplerEnumsEEC2ERNS_13SetupNewTableEjb@Base 3.2.1-1kern1
 _ZN8casacore7MSTableINS_14MSDopplerEnumsEEC2Ev@Base 3.2.1-1kern1
 _ZN8casacore7MSTableINS_14MSDopplerEnumsEED0Ev@Base 3.2.1-1kern1
 _ZN8casacore7MSTableINS_14MSDopplerEnumsEED1Ev@Base 3.2.1-1kern1
 _ZN8casacore7MSTableINS_14MSDopplerEnumsEED2Ev@Base 3.2.1-1kern1
 _ZN8casacore7MSTableINS_14MSDopplerEnumsEEaSERKS2_@Base 3.2.1-1kern1
 _ZN8casacore7MSTableINS_14MSFlagCmdEnumsEE10columnNameENS1_17PredefinedColumnsE@Base 3.2.1-1kern1
 _ZN8casacore7MSTableINS_14MSFlagCmdEnumsEE10columnNameERKNS_11MSTableMapsENS1_17PredefinedColumnsE@Base 3.2.1-1kern1
 _ZN8casacore7MSTableINS_14MSFlagCmdEnumsEE10columnTypeERKNS_6StringE@Base 3.2.1-1kern1
 _ZN8casacore7MSTableINS_14MSFlagCmdEnumsEE10columnUnitENS1_17PredefinedColumnsE@Base 3.2.1-1kern1
 _ZN8casacore7MSTableINS_14MSFlagCmdEnumsEE10columnUnitERKNS_11MSTableMapsENS1_17PredefinedColumnsE@Base 3.2.1-1kern1
 _ZN8casacore7MSTableINS_14MSFlagCmdEnumsEE11keywordNameENS1_18PredefinedKeywordsE@Base 3.2.1-1kern1
 _ZN8casacore7MSTableINS_14MSFlagCmdEnumsEE11keywordNameERKNS_11MSTableMapsENS1_18PredefinedKeywordsE@Base 3.2.1-1kern1
 _ZN8casacore7MSTableINS_14MSFlagCmdEnumsEE11keywordTypeERKNS_6StringE@Base 3.2.1-1kern1
 _ZN8casacore7MSTableINS_14MSFlagCmdEnumsEE12addKeyToDescERNS_11MSTableMapsENS1_18PredefinedKeywordsE@Base 3.2.1-1kern1
 _ZN8casacore7MSTableINS_14MSFlagCmdEnumsEE12addKeyToDescERNS_9TableDescENS1_18PredefinedKeywordsE@Base 3.2.1-1kern1
 _ZN8casacore7MSTableINS_14MSFlagCmdEnumsEE14columnDataTypeENS1_17PredefinedColumnsE@Base 3.2.1-1kern1
 _ZN8casacore7MSTableINS_14MSFlagCmdEnumsEE14columnDataTypeERKNS_11MSTableMapsENS1_17PredefinedColumnsE@Base 3.2.1-1kern1
 _ZN8casacore7MSTableINS_14MSFlagCmdEnumsEE15addColumnToDescERNS_11MSTableMapsENS1_17PredefinedColumnsERKNS_9IPositionENS_10ColumnDesc6OptionERKNS_6StringE@Base 3.2.1-1kern1
 _ZN8casacore7MSTableINS_14MSFlagCmdEnumsEE15addColumnToDescERNS_11MSTableMapsENS1_17PredefinedColumnsEiRKNS_6StringE@Base 3.2.1-1kern1
 _ZN8casacore7MSTableINS_14MSFlagCmdEnumsEE15addColumnToDescERNS_9TableDescENS1_17PredefinedColumnsERKNS_9IPositionENS_10ColumnDesc6OptionERKNS_6StringE@Base 3.2.1-1kern1
 _ZN8casacore7MSTableINS_14MSFlagCmdEnumsEE15addColumnToDescERNS_9TableDescENS1_17PredefinedColumnsEiRKNS_6StringE@Base 3.2.1-1kern1
 _ZN8casacore7MSTableINS_14MSFlagCmdEnumsEE15keywordDataTypeENS1_18PredefinedKeywordsE@Base 3.2.1-1kern1
 _ZN8casacore7MSTableINS_14MSFlagCmdEnumsEE15keywordDataTypeERKNS_11MSTableMapsENS1_18PredefinedKeywordsE@Base 3.2.1-1kern1
 _ZN8casacore7MSTableINS_14MSFlagCmdEnumsEE17columnMeasureTypeENS1_17PredefinedColumnsE@Base 3.2.1-1kern1
 _ZN8casacore7MSTableINS_14MSFlagCmdEnumsEE17columnMeasureTypeERKNS_11MSTableMapsENS1_17PredefinedColumnsE@Base 3.2.1-1kern1
 _ZN8casacore7MSTableINS_14MSFlagCmdEnumsEE17requiredTableDescEv@Base 3.2.1-1kern1
 _ZN8casacore7MSTableINS_14MSFlagCmdEnumsEE20addColumnCompressionERNS_9TableDescENS1_17PredefinedColumnsEbRKNS_6StringE@Base 3.2.1-1kern1
 _ZN8casacore7MSTableINS_14MSFlagCmdEnumsEE21columnStandardCommentENS1_17PredefinedColumnsE@Base 3.2.1-1kern1
 _ZN8casacore7MSTableINS_14MSFlagCmdEnumsEE21columnStandardCommentERKNS_11MSTableMapsENS1_17PredefinedColumnsE@Base 3.2.1-1kern1
 _ZN8casacore7MSTableINS_14MSFlagCmdEnumsEE22keywordStandardCommentENS1_18PredefinedKeywordsE@Base 3.2.1-1kern1
 _ZN8casacore7MSTableINS_14MSFlagCmdEnumsEE22keywordStandardCommentERKNS_11MSTableMapsENS1_18PredefinedKeywordsE@Base 3.2.1-1kern1
 _ZN8casacore7MSTableINS_14MSFlagCmdEnumsEE7getMapsEv@Base 3.2.1-1kern1
 _ZN8casacore7MSTableINS_14MSFlagCmdEnumsEE8validateERKNS_11TableRecordE@Base 3.2.1-1kern1
 _ZN8casacore7MSTableINS_14MSFlagCmdEnumsEE8validateERKNS_9TableDescE@Base 3.2.1-1kern1
 _ZN8casacore7MSTableINS_14MSFlagCmdEnumsEE9colMapDefERNS_11MSTableMapsENS1_17PredefinedColumnsERKNS_6StringENS_8DataTypeES8_S8_S8_@Base 3.2.1-1kern1
 _ZN8casacore7MSTableINS_14MSFlagCmdEnumsEE9keyMapDefERNS_11MSTableMapsENS1_18PredefinedKeywordsERKNS_6StringENS_8DataTypeES8_@Base 3.2.1-1kern1
 _ZN8casacore7MSTableINS_14MSFlagCmdEnumsEEC1ERKNS_5TableE@Base 3.2.1-1kern1
 _ZN8casacore7MSTableINS_14MSFlagCmdEnumsEEC1ERKNS_6StringENS_5Table11TableOptionE@Base 3.2.1-1kern1
 _ZN8casacore7MSTableINS_14MSFlagCmdEnumsEEC1ERKNS_6StringERKNS_9TableLockENS_5Table11TableOptionE@Base 3.2.1-1kern1
 _ZN8casacore7MSTableINS_14MSFlagCmdEnumsEEC1ERKNS_6StringES5_NS_5Table11TableOptionE@Base 3.2.1-1kern1
 _ZN8casacore7MSTableINS_14MSFlagCmdEnumsEEC1ERKNS_6StringES5_RKNS_9TableLockENS_5Table11TableOptionE@Base 3.2.1-1kern1
 _ZN8casacore7MSTableINS_14MSFlagCmdEnumsEEC1ERKS2_@Base 3.2.1-1kern1
 _ZN8casacore7MSTableINS_14MSFlagCmdEnumsEEC1ERNS_13SetupNewTableERKNS_9TableLockEjb@Base 3.2.1-1kern1
 _ZN8casacore7MSTableINS_14MSFlagCmdEnumsEEC1ERNS_13SetupNewTableEjb@Base 3.2.1-1kern1
 _ZN8casacore7MSTableINS_14MSFlagCmdEnumsEEC1Ev@Base 3.2.1-1kern1
 _ZN8casacore7MSTableINS_14MSFlagCmdEnumsEEC2ERKNS_5TableE@Base 3.2.1-1kern1
 _ZN8casacore7MSTableINS_14MSFlagCmdEnumsEEC2ERKNS_6StringENS_5Table11TableOptionE@Base 3.2.1-1kern1
 _ZN8casacore7MSTableINS_14MSFlagCmdEnumsEEC2ERKNS_6StringERKNS_9TableLockENS_5Table11TableOptionE@Base 3.2.1-1kern1
 _ZN8casacore7MSTableINS_14MSFlagCmdEnumsEEC2ERKNS_6StringES5_NS_5Table11TableOptionE@Base 3.2.1-1kern1
 _ZN8casacore7MSTableINS_14MSFlagCmdEnumsEEC2ERKNS_6StringES5_RKNS_9TableLockENS_5Table11TableOptionE@Base 3.2.1-1kern1
 _ZN8casacore7MSTableINS_14MSFlagCmdEnumsEEC2ERKS2_@Base 3.2.1-1kern1
 _ZN8casacore7MSTableINS_14MSFlagCmdEnumsEEC2ERNS_13SetupNewTableERKNS_9TableLockEjb@Base 3.2.1-1kern1
 _ZN8casacore7MSTableINS_14MSFlagCmdEnumsEEC2ERNS_13SetupNewTableEjb@Base 3.2.1-1kern1
 _ZN8casacore7MSTableINS_14MSFlagCmdEnumsEEC2Ev@Base 3.2.1-1kern1
 _ZN8casacore7MSTableINS_14MSFlagCmdEnumsEED0Ev@Base 3.2.1-1kern1
 _ZN8casacore7MSTableINS_14MSFlagCmdEnumsEED1Ev@Base 3.2.1-1kern1
 _ZN8casacore7MSTableINS_14MSFlagCmdEnumsEED2Ev@Base 3.2.1-1kern1
 _ZN8casacore7MSTableINS_14MSFlagCmdEnumsEEaSERKS2_@Base 3.2.1-1kern1
 _ZN8casacore7MSTableINS_14MSHistoryEnumsEE10columnNameENS1_17PredefinedColumnsE@Base 3.2.1-1kern1
 _ZN8casacore7MSTableINS_14MSHistoryEnumsEE10columnNameERKNS_11MSTableMapsENS1_17PredefinedColumnsE@Base 3.2.1-1kern1
 _ZN8casacore7MSTableINS_14MSHistoryEnumsEE10columnTypeERKNS_6StringE@Base 3.2.1-1kern1
 _ZN8casacore7MSTableINS_14MSHistoryEnumsEE10columnUnitENS1_17PredefinedColumnsE@Base 3.2.1-1kern1
 _ZN8casacore7MSTableINS_14MSHistoryEnumsEE10columnUnitERKNS_11MSTableMapsENS1_17PredefinedColumnsE@Base 3.2.1-1kern1
 _ZN8casacore7MSTableINS_14MSHistoryEnumsEE11keywordNameENS1_18PredefinedKeywordsE@Base 3.2.1-1kern1
 _ZN8casacore7MSTableINS_14MSHistoryEnumsEE11keywordNameERKNS_11MSTableMapsENS1_18PredefinedKeywordsE@Base 3.2.1-1kern1
 _ZN8casacore7MSTableINS_14MSHistoryEnumsEE11keywordTypeERKNS_6StringE@Base 3.2.1-1kern1
 _ZN8casacore7MSTableINS_14MSHistoryEnumsEE12addKeyToDescERNS_11MSTableMapsENS1_18PredefinedKeywordsE@Base 3.2.1-1kern1
 _ZN8casacore7MSTableINS_14MSHistoryEnumsEE12addKeyToDescERNS_9TableDescENS1_18PredefinedKeywordsE@Base 3.2.1-1kern1
 _ZN8casacore7MSTableINS_14MSHistoryEnumsEE14columnDataTypeENS1_17PredefinedColumnsE@Base 3.2.1-1kern1
 _ZN8casacore7MSTableINS_14MSHistoryEnumsEE14columnDataTypeERKNS_11MSTableMapsENS1_17PredefinedColumnsE@Base 3.2.1-1kern1
 _ZN8casacore7MSTableINS_14MSHistoryEnumsEE15addColumnToDescERNS_11MSTableMapsENS1_17PredefinedColumnsERKNS_9IPositionENS_10ColumnDesc6OptionERKNS_6StringE@Base 3.2.1-1kern1
 _ZN8casacore7MSTableINS_14MSHistoryEnumsEE15addColumnToDescERNS_11MSTableMapsENS1_17PredefinedColumnsEiRKNS_6StringE@Base 3.2.1-1kern1
 _ZN8casacore7MSTableINS_14MSHistoryEnumsEE15addColumnToDescERNS_9TableDescENS1_17PredefinedColumnsERKNS_9IPositionENS_10ColumnDesc6OptionERKNS_6StringE@Base 3.2.1-1kern1
 _ZN8casacore7MSTableINS_14MSHistoryEnumsEE15addColumnToDescERNS_9TableDescENS1_17PredefinedColumnsEiRKNS_6StringE@Base 3.2.1-1kern1
 _ZN8casacore7MSTableINS_14MSHistoryEnumsEE15keywordDataTypeENS1_18PredefinedKeywordsE@Base 3.2.1-1kern1
 _ZN8casacore7MSTableINS_14MSHistoryEnumsEE15keywordDataTypeERKNS_11MSTableMapsENS1_18PredefinedKeywordsE@Base 3.2.1-1kern1
 _ZN8casacore7MSTableINS_14MSHistoryEnumsEE17columnMeasureTypeENS1_17PredefinedColumnsE@Base 3.2.1-1kern1
 _ZN8casacore7MSTableINS_14MSHistoryEnumsEE17columnMeasureTypeERKNS_11MSTableMapsENS1_17PredefinedColumnsE@Base 3.2.1-1kern1
 _ZN8casacore7MSTableINS_14MSHistoryEnumsEE17requiredTableDescEv@Base 3.2.1-1kern1
 _ZN8casacore7MSTableINS_14MSHistoryEnumsEE20addColumnCompressionERNS_9TableDescENS1_17PredefinedColumnsEbRKNS_6StringE@Base 3.2.1-1kern1
 _ZN8casacore7MSTableINS_14MSHistoryEnumsEE21columnStandardCommentENS1_17PredefinedColumnsE@Base 3.2.1-1kern1
 _ZN8casacore7MSTableINS_14MSHistoryEnumsEE21columnStandardCommentERKNS_11MSTableMapsENS1_17PredefinedColumnsE@Base 3.2.1-1kern1
 _ZN8casacore7MSTableINS_14MSHistoryEnumsEE22keywordStandardCommentENS1_18PredefinedKeywordsE@Base 3.2.1-1kern1
 _ZN8casacore7MSTableINS_14MSHistoryEnumsEE22keywordStandardCommentERKNS_11MSTableMapsENS1_18PredefinedKeywordsE@Base 3.2.1-1kern1
 _ZN8casacore7MSTableINS_14MSHistoryEnumsEE7getMapsEv@Base 3.2.1-1kern1
 _ZN8casacore7MSTableINS_14MSHistoryEnumsEE8validateERKNS_11TableRecordE@Base 3.2.1-1kern1
 _ZN8casacore7MSTableINS_14MSHistoryEnumsEE8validateERKNS_9TableDescE@Base 3.2.1-1kern1
 _ZN8casacore7MSTableINS_14MSHistoryEnumsEE9colMapDefERNS_11MSTableMapsENS1_17PredefinedColumnsERKNS_6StringENS_8DataTypeES8_S8_S8_@Base 3.2.1-1kern1
 _ZN8casacore7MSTableINS_14MSHistoryEnumsEE9keyMapDefERNS_11MSTableMapsENS1_18PredefinedKeywordsERKNS_6StringENS_8DataTypeES8_@Base 3.2.1-1kern1
 _ZN8casacore7MSTableINS_14MSHistoryEnumsEEC1ERKNS_5TableE@Base 3.2.1-1kern1
 _ZN8casacore7MSTableINS_14MSHistoryEnumsEEC1ERKNS_6StringENS_5Table11TableOptionE@Base 3.2.1-1kern1
 _ZN8casacore7MSTableINS_14MSHistoryEnumsEEC1ERKNS_6StringERKNS_9TableLockENS_5Table11TableOptionE@Base 3.2.1-1kern1
 _ZN8casacore7MSTableINS_14MSHistoryEnumsEEC1ERKNS_6StringES5_NS_5Table11TableOptionE@Base 3.2.1-1kern1
 _ZN8casacore7MSTableINS_14MSHistoryEnumsEEC1ERKNS_6StringES5_RKNS_9TableLockENS_5Table11TableOptionE@Base 3.2.1-1kern1
 _ZN8casacore7MSTableINS_14MSHistoryEnumsEEC1ERKS2_@Base 3.2.1-1kern1
 _ZN8casacore7MSTableINS_14MSHistoryEnumsEEC1ERNS_13SetupNewTableERKNS_9TableLockEjb@Base 3.2.1-1kern1
 _ZN8casacore7MSTableINS_14MSHistoryEnumsEEC1ERNS_13SetupNewTableEjb@Base 3.2.1-1kern1
 _ZN8casacore7MSTableINS_14MSHistoryEnumsEEC1Ev@Base 3.2.1-1kern1
 _ZN8casacore7MSTableINS_14MSHistoryEnumsEEC2ERKNS_5TableE@Base 3.2.1-1kern1
 _ZN8casacore7MSTableINS_14MSHistoryEnumsEEC2ERKNS_6StringENS_5Table11TableOptionE@Base 3.2.1-1kern1
 _ZN8casacore7MSTableINS_14MSHistoryEnumsEEC2ERKNS_6StringERKNS_9TableLockENS_5Table11TableOptionE@Base 3.2.1-1kern1
 _ZN8casacore7MSTableINS_14MSHistoryEnumsEEC2ERKNS_6StringES5_NS_5Table11TableOptionE@Base 3.2.1-1kern1
 _ZN8casacore7MSTableINS_14MSHistoryEnumsEEC2ERKNS_6StringES5_RKNS_9TableLockENS_5Table11TableOptionE@Base 3.2.1-1kern1
 _ZN8casacore7MSTableINS_14MSHistoryEnumsEEC2ERKS2_@Base 3.2.1-1kern1
 _ZN8casacore7MSTableINS_14MSHistoryEnumsEEC2ERNS_13SetupNewTableERKNS_9TableLockEjb@Base 3.2.1-1kern1
 _ZN8casacore7MSTableINS_14MSHistoryEnumsEEC2ERNS_13SetupNewTableEjb@Base 3.2.1-1kern1
 _ZN8casacore7MSTableINS_14MSHistoryEnumsEEC2Ev@Base 3.2.1-1kern1
 _ZN8casacore7MSTableINS_14MSHistoryEnumsEED0Ev@Base 3.2.1-1kern1
 _ZN8casacore7MSTableINS_14MSHistoryEnumsEED1Ev@Base 3.2.1-1kern1
 _ZN8casacore7MSTableINS_14MSHistoryEnumsEED2Ev@Base 3.2.1-1kern1
 _ZN8casacore7MSTableINS_14MSHistoryEnumsEEaSERKS2_@Base 3.2.1-1kern1
 _ZN8casacore7MSTableINS_14MSWeatherEnumsEE10columnNameENS1_17PredefinedColumnsE@Base 3.2.1-1kern1
 _ZN8casacore7MSTableINS_14MSWeatherEnumsEE10columnNameERKNS_11MSTableMapsENS1_17PredefinedColumnsE@Base 3.2.1-1kern1
 _ZN8casacore7MSTableINS_14MSWeatherEnumsEE10columnTypeERKNS_6StringE@Base 3.2.1-1kern1
 _ZN8casacore7MSTableINS_14MSWeatherEnumsEE10columnUnitENS1_17PredefinedColumnsE@Base 3.2.1-1kern1
 _ZN8casacore7MSTableINS_14MSWeatherEnumsEE10columnUnitERKNS_11MSTableMapsENS1_17PredefinedColumnsE@Base 3.2.1-1kern1
 _ZN8casacore7MSTableINS_14MSWeatherEnumsEE11keywordNameENS1_18PredefinedKeywordsE@Base 3.2.1-1kern1
 _ZN8casacore7MSTableINS_14MSWeatherEnumsEE11keywordNameERKNS_11MSTableMapsENS1_18PredefinedKeywordsE@Base 3.2.1-1kern1
 _ZN8casacore7MSTableINS_14MSWeatherEnumsEE11keywordTypeERKNS_6StringE@Base 3.2.1-1kern1
 _ZN8casacore7MSTableINS_14MSWeatherEnumsEE12addKeyToDescERNS_11MSTableMapsENS1_18PredefinedKeywordsE@Base 3.2.1-1kern1
 _ZN8casacore7MSTableINS_14MSWeatherEnumsEE12addKeyToDescERNS_9TableDescENS1_18PredefinedKeywordsE@Base 3.2.1-1kern1
 _ZN8casacore7MSTableINS_14MSWeatherEnumsEE14columnDataTypeENS1_17PredefinedColumnsE@Base 3.2.1-1kern1
 _ZN8casacore7MSTableINS_14MSWeatherEnumsEE14columnDataTypeERKNS_11MSTableMapsENS1_17PredefinedColumnsE@Base 3.2.1-1kern1
 _ZN8casacore7MSTableINS_14MSWeatherEnumsEE15addColumnToDescERNS_11MSTableMapsENS1_17PredefinedColumnsERKNS_9IPositionENS_10ColumnDesc6OptionERKNS_6StringE@Base 3.2.1-1kern1
 _ZN8casacore7MSTableINS_14MSWeatherEnumsEE15addColumnToDescERNS_11MSTableMapsENS1_17PredefinedColumnsEiRKNS_6StringE@Base 3.2.1-1kern1
 _ZN8casacore7MSTableINS_14MSWeatherEnumsEE15addColumnToDescERNS_9TableDescENS1_17PredefinedColumnsERKNS_9IPositionENS_10ColumnDesc6OptionERKNS_6StringE@Base 3.2.1-1kern1
 _ZN8casacore7MSTableINS_14MSWeatherEnumsEE15addColumnToDescERNS_9TableDescENS1_17PredefinedColumnsEiRKNS_6StringE@Base 3.2.1-1kern1
 _ZN8casacore7MSTableINS_14MSWeatherEnumsEE15keywordDataTypeENS1_18PredefinedKeywordsE@Base 3.2.1-1kern1
 _ZN8casacore7MSTableINS_14MSWeatherEnumsEE15keywordDataTypeERKNS_11MSTableMapsENS1_18PredefinedKeywordsE@Base 3.2.1-1kern1
 _ZN8casacore7MSTableINS_14MSWeatherEnumsEE17columnMeasureTypeENS1_17PredefinedColumnsE@Base 3.2.1-1kern1
 _ZN8casacore7MSTableINS_14MSWeatherEnumsEE17columnMeasureTypeERKNS_11MSTableMapsENS1_17PredefinedColumnsE@Base 3.2.1-1kern1
 _ZN8casacore7MSTableINS_14MSWeatherEnumsEE17requiredTableDescEv@Base 3.2.1-1kern1
 _ZN8casacore7MSTableINS_14MSWeatherEnumsEE20addColumnCompressionERNS_9TableDescENS1_17PredefinedColumnsEbRKNS_6StringE@Base 3.2.1-1kern1
 _ZN8casacore7MSTableINS_14MSWeatherEnumsEE21columnStandardCommentENS1_17PredefinedColumnsE@Base 3.2.1-1kern1
 _ZN8casacore7MSTableINS_14MSWeatherEnumsEE21columnStandardCommentERKNS_11MSTableMapsENS1_17PredefinedColumnsE@Base 3.2.1-1kern1
 _ZN8casacore7MSTableINS_14MSWeatherEnumsEE22keywordStandardCommentENS1_18PredefinedKeywordsE@Base 3.2.1-1kern1
 _ZN8casacore7MSTableINS_14MSWeatherEnumsEE22keywordStandardCommentERKNS_11MSTableMapsENS1_18PredefinedKeywordsE@Base 3.2.1-1kern1
 _ZN8casacore7MSTableINS_14MSWeatherEnumsEE7getMapsEv@Base 3.2.1-1kern1
 _ZN8casacore7MSTableINS_14MSWeatherEnumsEE8validateERKNS_11TableRecordE@Base 3.2.1-1kern1
 _ZN8casacore7MSTableINS_14MSWeatherEnumsEE8validateERKNS_9TableDescE@Base 3.2.1-1kern1
 _ZN8casacore7MSTableINS_14MSWeatherEnumsEE9colMapDefERNS_11MSTableMapsENS1_17PredefinedColumnsERKNS_6StringENS_8DataTypeES8_S8_S8_@Base 3.2.1-1kern1
 _ZN8casacore7MSTableINS_14MSWeatherEnumsEE9keyMapDefERNS_11MSTableMapsENS1_18PredefinedKeywordsERKNS_6StringENS_8DataTypeES8_@Base 3.2.1-1kern1
 _ZN8casacore7MSTableINS_14MSWeatherEnumsEEC1ERKNS_5TableE@Base 3.2.1-1kern1
 _ZN8casacore7MSTableINS_14MSWeatherEnumsEEC1ERKNS_6StringENS_5Table11TableOptionE@Base 3.2.1-1kern1
 _ZN8casacore7MSTableINS_14MSWeatherEnumsEEC1ERKNS_6StringERKNS_9TableLockENS_5Table11TableOptionE@Base 3.2.1-1kern1
 _ZN8casacore7MSTableINS_14MSWeatherEnumsEEC1ERKNS_6StringES5_NS_5Table11TableOptionE@Base 3.2.1-1kern1
 _ZN8casacore7MSTableINS_14MSWeatherEnumsEEC1ERKNS_6StringES5_RKNS_9TableLockENS_5Table11TableOptionE@Base 3.2.1-1kern1
 _ZN8casacore7MSTableINS_14MSWeatherEnumsEEC1ERKS2_@Base 3.2.1-1kern1
 _ZN8casacore7MSTableINS_14MSWeatherEnumsEEC1ERNS_13SetupNewTableERKNS_9TableLockEjb@Base 3.2.1-1kern1
 _ZN8casacore7MSTableINS_14MSWeatherEnumsEEC1ERNS_13SetupNewTableEjb@Base 3.2.1-1kern1
 _ZN8casacore7MSTableINS_14MSWeatherEnumsEEC1Ev@Base 3.2.1-1kern1
 _ZN8casacore7MSTableINS_14MSWeatherEnumsEEC2ERKNS_5TableE@Base 3.2.1-1kern1
 _ZN8casacore7MSTableINS_14MSWeatherEnumsEEC2ERKNS_6StringENS_5Table11TableOptionE@Base 3.2.1-1kern1
 _ZN8casacore7MSTableINS_14MSWeatherEnumsEEC2ERKNS_6StringERKNS_9TableLockENS_5Table11TableOptionE@Base 3.2.1-1kern1
 _ZN8casacore7MSTableINS_14MSWeatherEnumsEEC2ERKNS_6StringES5_NS_5Table11TableOptionE@Base 3.2.1-1kern1
 _ZN8casacore7MSTableINS_14MSWeatherEnumsEEC2ERKNS_6StringES5_RKNS_9TableLockENS_5Table11TableOptionE@Base 3.2.1-1kern1
 _ZN8casacore7MSTableINS_14MSWeatherEnumsEEC2ERKS2_@Base 3.2.1-1kern1
 _ZN8casacore7MSTableINS_14MSWeatherEnumsEEC2ERNS_13SetupNewTableERKNS_9TableLockEjb@Base 3.2.1-1kern1
 _ZN8casacore7MSTableINS_14MSWeatherEnumsEEC2ERNS_13SetupNewTableEjb@Base 3.2.1-1kern1
 _ZN8casacore7MSTableINS_14MSWeatherEnumsEEC2Ev@Base 3.2.1-1kern1
 _ZN8casacore7MSTableINS_14MSWeatherEnumsEED0Ev@Base 3.2.1-1kern1
 _ZN8casacore7MSTableINS_14MSWeatherEnumsEED1Ev@Base 3.2.1-1kern1
 _ZN8casacore7MSTableINS_14MSWeatherEnumsEED2Ev@Base 3.2.1-1kern1
 _ZN8casacore7MSTableINS_14MSWeatherEnumsEEaSERKS2_@Base 3.2.1-1kern1
 _ZN8casacore7MSTableINS_15MSPointingEnumsEE10columnNameENS1_17PredefinedColumnsE@Base 3.2.1-1kern1
 _ZN8casacore7MSTableINS_15MSPointingEnumsEE10columnNameERKNS_11MSTableMapsENS1_17PredefinedColumnsE@Base 3.2.1-1kern1
 _ZN8casacore7MSTableINS_15MSPointingEnumsEE10columnTypeERKNS_6StringE@Base 3.2.1-1kern1
 _ZN8casacore7MSTableINS_15MSPointingEnumsEE10columnUnitENS1_17PredefinedColumnsE@Base 3.2.1-1kern1
 _ZN8casacore7MSTableINS_15MSPointingEnumsEE10columnUnitERKNS_11MSTableMapsENS1_17PredefinedColumnsE@Base 3.2.1-1kern1
 _ZN8casacore7MSTableINS_15MSPointingEnumsEE11keywordNameENS1_18PredefinedKeywordsE@Base 3.2.1-1kern1
 _ZN8casacore7MSTableINS_15MSPointingEnumsEE11keywordNameERKNS_11MSTableMapsENS1_18PredefinedKeywordsE@Base 3.2.1-1kern1
 _ZN8casacore7MSTableINS_15MSPointingEnumsEE11keywordTypeERKNS_6StringE@Base 3.2.1-1kern1
 _ZN8casacore7MSTableINS_15MSPointingEnumsEE12addKeyToDescERNS_11MSTableMapsENS1_18PredefinedKeywordsE@Base 3.2.1-1kern1
 _ZN8casacore7MSTableINS_15MSPointingEnumsEE12addKeyToDescERNS_9TableDescENS1_18PredefinedKeywordsE@Base 3.2.1-1kern1
 _ZN8casacore7MSTableINS_15MSPointingEnumsEE14columnDataTypeENS1_17PredefinedColumnsE@Base 3.2.1-1kern1
 _ZN8casacore7MSTableINS_15MSPointingEnumsEE14columnDataTypeERKNS_11MSTableMapsENS1_17PredefinedColumnsE@Base 3.2.1-1kern1
 _ZN8casacore7MSTableINS_15MSPointingEnumsEE15addColumnToDescERNS_11MSTableMapsENS1_17PredefinedColumnsERKNS_9IPositionENS_10ColumnDesc6OptionERKNS_6StringE@Base 3.2.1-1kern1
 _ZN8casacore7MSTableINS_15MSPointingEnumsEE15addColumnToDescERNS_11MSTableMapsENS1_17PredefinedColumnsEiRKNS_6StringE@Base 3.2.1-1kern1
 _ZN8casacore7MSTableINS_15MSPointingEnumsEE15addColumnToDescERNS_9TableDescENS1_17PredefinedColumnsERKNS_9IPositionENS_10ColumnDesc6OptionERKNS_6StringE@Base 3.2.1-1kern1
 _ZN8casacore7MSTableINS_15MSPointingEnumsEE15addColumnToDescERNS_9TableDescENS1_17PredefinedColumnsEiRKNS_6StringE@Base 3.2.1-1kern1
 _ZN8casacore7MSTableINS_15MSPointingEnumsEE15keywordDataTypeENS1_18PredefinedKeywordsE@Base 3.2.1-1kern1
 _ZN8casacore7MSTableINS_15MSPointingEnumsEE15keywordDataTypeERKNS_11MSTableMapsENS1_18PredefinedKeywordsE@Base 3.2.1-1kern1
 _ZN8casacore7MSTableINS_15MSPointingEnumsEE17columnMeasureTypeENS1_17PredefinedColumnsE@Base 3.2.1-1kern1
 _ZN8casacore7MSTableINS_15MSPointingEnumsEE17columnMeasureTypeERKNS_11MSTableMapsENS1_17PredefinedColumnsE@Base 3.2.1-1kern1
 _ZN8casacore7MSTableINS_15MSPointingEnumsEE17requiredTableDescEv@Base 3.2.1-1kern1
 _ZN8casacore7MSTableINS_15MSPointingEnumsEE20addColumnCompressionERNS_9TableDescENS1_17PredefinedColumnsEbRKNS_6StringE@Base 3.2.1-1kern1
 _ZN8casacore7MSTableINS_15MSPointingEnumsEE21columnStandardCommentENS1_17PredefinedColumnsE@Base 3.2.1-1kern1
 _ZN8casacore7MSTableINS_15MSPointingEnumsEE21columnStandardCommentERKNS_11MSTableMapsENS1_17PredefinedColumnsE@Base 3.2.1-1kern1
 _ZN8casacore7MSTableINS_15MSPointingEnumsEE22keywordStandardCommentENS1_18PredefinedKeywordsE@Base 3.2.1-1kern1
 _ZN8casacore7MSTableINS_15MSPointingEnumsEE22keywordStandardCommentERKNS_11MSTableMapsENS1_18PredefinedKeywordsE@Base 3.2.1-1kern1
 _ZN8casacore7MSTableINS_15MSPointingEnumsEE7getMapsEv@Base 3.2.1-1kern1
 _ZN8casacore7MSTableINS_15MSPointingEnumsEE8validateERKNS_11TableRecordE@Base 3.2.1-1kern1
 _ZN8casacore7MSTableINS_15MSPointingEnumsEE8validateERKNS_9TableDescE@Base 3.2.1-1kern1
 _ZN8casacore7MSTableINS_15MSPointingEnumsEE9colMapDefERNS_11MSTableMapsENS1_17PredefinedColumnsERKNS_6StringENS_8DataTypeES8_S8_S8_@Base 3.2.1-1kern1
 _ZN8casacore7MSTableINS_15MSPointingEnumsEE9keyMapDefERNS_11MSTableMapsENS1_18PredefinedKeywordsERKNS_6StringENS_8DataTypeES8_@Base 3.2.1-1kern1
 _ZN8casacore7MSTableINS_15MSPointingEnumsEEC1ERKNS_5TableE@Base 3.2.1-1kern1
 _ZN8casacore7MSTableINS_15MSPointingEnumsEEC1ERKNS_6StringENS_5Table11TableOptionE@Base 3.2.1-1kern1
 _ZN8casacore7MSTableINS_15MSPointingEnumsEEC1ERKNS_6StringERKNS_9TableLockENS_5Table11TableOptionE@Base 3.2.1-1kern1
 _ZN8casacore7MSTableINS_15MSPointingEnumsEEC1ERKNS_6StringES5_NS_5Table11TableOptionE@Base 3.2.1-1kern1
 _ZN8casacore7MSTableINS_15MSPointingEnumsEEC1ERKNS_6StringES5_RKNS_9TableLockENS_5Table11TableOptionE@Base 3.2.1-1kern1
 _ZN8casacore7MSTableINS_15MSPointingEnumsEEC1ERKS2_@Base 3.2.1-1kern1
 _ZN8casacore7MSTableINS_15MSPointingEnumsEEC1ERNS_13SetupNewTableERKNS_9TableLockEjb@Base 3.2.1-1kern1
 _ZN8casacore7MSTableINS_15MSPointingEnumsEEC1ERNS_13SetupNewTableEjb@Base 3.2.1-1kern1
 _ZN8casacore7MSTableINS_15MSPointingEnumsEEC1Ev@Base 3.2.1-1kern1
 _ZN8casacore7MSTableINS_15MSPointingEnumsEEC2ERKNS_5TableE@Base 3.2.1-1kern1
 _ZN8casacore7MSTableINS_15MSPointingEnumsEEC2ERKNS_6StringENS_5Table11TableOptionE@Base 3.2.1-1kern1
 _ZN8casacore7MSTableINS_15MSPointingEnumsEEC2ERKNS_6StringERKNS_9TableLockENS_5Table11TableOptionE@Base 3.2.1-1kern1
 _ZN8casacore7MSTableINS_15MSPointingEnumsEEC2ERKNS_6StringES5_NS_5Table11TableOptionE@Base 3.2.1-1kern1
 _ZN8casacore7MSTableINS_15MSPointingEnumsEEC2ERKNS_6StringES5_RKNS_9TableLockENS_5Table11TableOptionE@Base 3.2.1-1kern1
 _ZN8casacore7MSTableINS_15MSPointingEnumsEEC2ERKS2_@Base 3.2.1-1kern1
 _ZN8casacore7MSTableINS_15MSPointingEnumsEEC2ERNS_13SetupNewTableERKNS_9TableLockEjb@Base 3.2.1-1kern1
 _ZN8casacore7MSTableINS_15MSPointingEnumsEEC2ERNS_13SetupNewTableEjb@Base 3.2.1-1kern1
 _ZN8casacore7MSTableINS_15MSPointingEnumsEEC2Ev@Base 3.2.1-1kern1
 _ZN8casacore7MSTableINS_15MSPointingEnumsEED0Ev@Base 3.2.1-1kern1
 _ZN8casacore7MSTableINS_15MSPointingEnumsEED1Ev@Base 3.2.1-1kern1
 _ZN8casacore7MSTableINS_15MSPointingEnumsEED2Ev@Base 3.2.1-1kern1
 _ZN8casacore7MSTableINS_15MSPointingEnumsEEaSERKS2_@Base 3.2.1-1kern1
 _ZN8casacore7MSTableINS_16MSProcessorEnumsEE10columnNameENS1_17PredefinedColumnsE@Base 3.2.1-1kern1
 _ZN8casacore7MSTableINS_16MSProcessorEnumsEE10columnNameERKNS_11MSTableMapsENS1_17PredefinedColumnsE@Base 3.2.1-1kern1
 _ZN8casacore7MSTableINS_16MSProcessorEnumsEE10columnTypeERKNS_6StringE@Base 3.2.1-1kern1
 _ZN8casacore7MSTableINS_16MSProcessorEnumsEE10columnUnitENS1_17PredefinedColumnsE@Base 3.2.1-1kern1
 _ZN8casacore7MSTableINS_16MSProcessorEnumsEE10columnUnitERKNS_11MSTableMapsENS1_17PredefinedColumnsE@Base 3.2.1-1kern1
 _ZN8casacore7MSTableINS_16MSProcessorEnumsEE11keywordNameENS1_18PredefinedKeywordsE@Base 3.2.1-1kern1
 _ZN8casacore7MSTableINS_16MSProcessorEnumsEE11keywordNameERKNS_11MSTableMapsENS1_18PredefinedKeywordsE@Base 3.2.1-1kern1
 _ZN8casacore7MSTableINS_16MSProcessorEnumsEE11keywordTypeERKNS_6StringE@Base 3.2.1-1kern1
 _ZN8casacore7MSTableINS_16MSProcessorEnumsEE12addKeyToDescERNS_11MSTableMapsENS1_18PredefinedKeywordsE@Base 3.2.1-1kern1
 _ZN8casacore7MSTableINS_16MSProcessorEnumsEE12addKeyToDescERNS_9TableDescENS1_18PredefinedKeywordsE@Base 3.2.1-1kern1
 _ZN8casacore7MSTableINS_16MSProcessorEnumsEE14columnDataTypeENS1_17PredefinedColumnsE@Base 3.2.1-1kern1
 _ZN8casacore7MSTableINS_16MSProcessorEnumsEE14columnDataTypeERKNS_11MSTableMapsENS1_17PredefinedColumnsE@Base 3.2.1-1kern1
 _ZN8casacore7MSTableINS_16MSProcessorEnumsEE15addColumnToDescERNS_11MSTableMapsENS1_17PredefinedColumnsERKNS_9IPositionENS_10ColumnDesc6OptionERKNS_6StringE@Base 3.2.1-1kern1
 _ZN8casacore7MSTableINS_16MSProcessorEnumsEE15addColumnToDescERNS_11MSTableMapsENS1_17PredefinedColumnsEiRKNS_6StringE@Base 3.2.1-1kern1
 _ZN8casacore7MSTableINS_16MSProcessorEnumsEE15addColumnToDescERNS_9TableDescENS1_17PredefinedColumnsERKNS_9IPositionENS_10ColumnDesc6OptionERKNS_6StringE@Base 3.2.1-1kern1
 _ZN8casacore7MSTableINS_16MSProcessorEnumsEE15addColumnToDescERNS_9TableDescENS1_17PredefinedColumnsEiRKNS_6StringE@Base 3.2.1-1kern1
 _ZN8casacore7MSTableINS_16MSProcessorEnumsEE15keywordDataTypeENS1_18PredefinedKeywordsE@Base 3.2.1-1kern1
 _ZN8casacore7MSTableINS_16MSProcessorEnumsEE15keywordDataTypeERKNS_11MSTableMapsENS1_18PredefinedKeywordsE@Base 3.2.1-1kern1
 _ZN8casacore7MSTableINS_16MSProcessorEnumsEE17columnMeasureTypeENS1_17PredefinedColumnsE@Base 3.2.1-1kern1
 _ZN8casacore7MSTableINS_16MSProcessorEnumsEE17columnMeasureTypeERKNS_11MSTableMapsENS1_17PredefinedColumnsE@Base 3.2.1-1kern1
 _ZN8casacore7MSTableINS_16MSProcessorEnumsEE17requiredTableDescEv@Base 3.2.1-1kern1
 _ZN8casacore7MSTableINS_16MSProcessorEnumsEE20addColumnCompressionERNS_9TableDescENS1_17PredefinedColumnsEbRKNS_6StringE@Base 3.2.1-1kern1
 _ZN8casacore7MSTableINS_16MSProcessorEnumsEE21columnStandardCommentENS1_17PredefinedColumnsE@Base 3.2.1-1kern1
 _ZN8casacore7MSTableINS_16MSProcessorEnumsEE21columnStandardCommentERKNS_11MSTableMapsENS1_17PredefinedColumnsE@Base 3.2.1-1kern1
 _ZN8casacore7MSTableINS_16MSProcessorEnumsEE22keywordStandardCommentENS1_18PredefinedKeywordsE@Base 3.2.1-1kern1
 _ZN8casacore7MSTableINS_16MSProcessorEnumsEE22keywordStandardCommentERKNS_11MSTableMapsENS1_18PredefinedKeywordsE@Base 3.2.1-1kern1
 _ZN8casacore7MSTableINS_16MSProcessorEnumsEE7getMapsEv@Base 3.2.1-1kern1
 _ZN8casacore7MSTableINS_16MSProcessorEnumsEE8validateERKNS_11TableRecordE@Base 3.2.1-1kern1
 _ZN8casacore7MSTableINS_16MSProcessorEnumsEE8validateERKNS_9TableDescE@Base 3.2.1-1kern1
 _ZN8casacore7MSTableINS_16MSProcessorEnumsEE9colMapDefERNS_11MSTableMapsENS1_17PredefinedColumnsERKNS_6StringENS_8DataTypeES8_S8_S8_@Base 3.2.1-1kern1
 _ZN8casacore7MSTableINS_16MSProcessorEnumsEE9keyMapDefERNS_11MSTableMapsENS1_18PredefinedKeywordsERKNS_6StringENS_8DataTypeES8_@Base 3.2.1-1kern1
 _ZN8casacore7MSTableINS_16MSProcessorEnumsEEC1ERKNS_5TableE@Base 3.2.1-1kern1
 _ZN8casacore7MSTableINS_16MSProcessorEnumsEEC1ERKNS_6StringENS_5Table11TableOptionE@Base 3.2.1-1kern1
 _ZN8casacore7MSTableINS_16MSProcessorEnumsEEC1ERKNS_6StringERKNS_9TableLockENS_5Table11TableOptionE@Base 3.2.1-1kern1
 _ZN8casacore7MSTableINS_16MSProcessorEnumsEEC1ERKNS_6StringES5_NS_5Table11TableOptionE@Base 3.2.1-1kern1
 _ZN8casacore7MSTableINS_16MSProcessorEnumsEEC1ERKNS_6StringES5_RKNS_9TableLockENS_5Table11TableOptionE@Base 3.2.1-1kern1
 _ZN8casacore7MSTableINS_16MSProcessorEnumsEEC1ERKS2_@Base 3.2.1-1kern1
 _ZN8casacore7MSTableINS_16MSProcessorEnumsEEC1ERNS_13SetupNewTableERKNS_9TableLockEjb@Base 3.2.1-1kern1
 _ZN8casacore7MSTableINS_16MSProcessorEnumsEEC1ERNS_13SetupNewTableEjb@Base 3.2.1-1kern1
 _ZN8casacore7MSTableINS_16MSProcessorEnumsEEC1Ev@Base 3.2.1-1kern1
 _ZN8casacore7MSTableINS_16MSProcessorEnumsEEC2ERKNS_5TableE@Base 3.2.1-1kern1
 _ZN8casacore7MSTableINS_16MSProcessorEnumsEEC2ERKNS_6StringENS_5Table11TableOptionE@Base 3.2.1-1kern1
 _ZN8casacore7MSTableINS_16MSProcessorEnumsEEC2ERKNS_6StringERKNS_9TableLockENS_5Table11TableOptionE@Base 3.2.1-1kern1
 _ZN8casacore7MSTableINS_16MSProcessorEnumsEEC2ERKNS_6StringES5_NS_5Table11TableOptionE@Base 3.2.1-1kern1
 _ZN8casacore7MSTableINS_16MSProcessorEnumsEEC2ERKNS_6StringES5_RKNS_9TableLockENS_5Table11TableOptionE@Base 3.2.1-1kern1
 _ZN8casacore7MSTableINS_16MSProcessorEnumsEEC2ERKS2_@Base 3.2.1-1kern1
 _ZN8casacore7MSTableINS_16MSProcessorEnumsEEC2ERNS_13SetupNewTableERKNS_9TableLockEjb@Base 3.2.1-1kern1
 _ZN8casacore7MSTableINS_16MSProcessorEnumsEEC2ERNS_13SetupNewTableEjb@Base 3.2.1-1kern1
 _ZN8casacore7MSTableINS_16MSProcessorEnumsEEC2Ev@Base 3.2.1-1kern1
 _ZN8casacore7MSTableINS_16MSProcessorEnumsEED0Ev@Base 3.2.1-1kern1
 _ZN8casacore7MSTableINS_16MSProcessorEnumsEED1Ev@Base 3.2.1-1kern1
 _ZN8casacore7MSTableINS_16MSProcessorEnumsEED2Ev@Base 3.2.1-1kern1
 _ZN8casacore7MSTableINS_16MSProcessorEnumsEEaSERKS2_@Base 3.2.1-1kern1
 _ZN8casacore7MSTableINS_17MSFreqOffsetEnumsEE10columnNameENS1_17PredefinedColumnsE@Base 3.2.1-1kern1
 _ZN8casacore7MSTableINS_17MSFreqOffsetEnumsEE10columnNameERKNS_11MSTableMapsENS1_17PredefinedColumnsE@Base 3.2.1-1kern1
 _ZN8casacore7MSTableINS_17MSFreqOffsetEnumsEE10columnTypeERKNS_6StringE@Base 3.2.1-1kern1
 _ZN8casacore7MSTableINS_17MSFreqOffsetEnumsEE10columnUnitENS1_17PredefinedColumnsE@Base 3.2.1-1kern1
 _ZN8casacore7MSTableINS_17MSFreqOffsetEnumsEE10columnUnitERKNS_11MSTableMapsENS1_17PredefinedColumnsE@Base 3.2.1-1kern1
 _ZN8casacore7MSTableINS_17MSFreqOffsetEnumsEE11keywordNameENS1_18PredefinedKeywordsE@Base 3.2.1-1kern1
 _ZN8casacore7MSTableINS_17MSFreqOffsetEnumsEE11keywordNameERKNS_11MSTableMapsENS1_18PredefinedKeywordsE@Base 3.2.1-1kern1
 _ZN8casacore7MSTableINS_17MSFreqOffsetEnumsEE11keywordTypeERKNS_6StringE@Base 3.2.1-1kern1
 _ZN8casacore7MSTableINS_17MSFreqOffsetEnumsEE12addKeyToDescERNS_11MSTableMapsENS1_18PredefinedKeywordsE@Base 3.2.1-1kern1
 _ZN8casacore7MSTableINS_17MSFreqOffsetEnumsEE12addKeyToDescERNS_9TableDescENS1_18PredefinedKeywordsE@Base 3.2.1-1kern1
 _ZN8casacore7MSTableINS_17MSFreqOffsetEnumsEE14columnDataTypeENS1_17PredefinedColumnsE@Base 3.2.1-1kern1
 _ZN8casacore7MSTableINS_17MSFreqOffsetEnumsEE14columnDataTypeERKNS_11MSTableMapsENS1_17PredefinedColumnsE@Base 3.2.1-1kern1
 _ZN8casacore7MSTableINS_17MSFreqOffsetEnumsEE15addColumnToDescERNS_11MSTableMapsENS1_17PredefinedColumnsERKNS_9IPositionENS_10ColumnDesc6OptionERKNS_6StringE@Base 3.2.1-1kern1
 _ZN8casacore7MSTableINS_17MSFreqOffsetEnumsEE15addColumnToDescERNS_11MSTableMapsENS1_17PredefinedColumnsEiRKNS_6StringE@Base 3.2.1-1kern1
 _ZN8casacore7MSTableINS_17MSFreqOffsetEnumsEE15addColumnToDescERNS_9TableDescENS1_17PredefinedColumnsERKNS_9IPositionENS_10ColumnDesc6OptionERKNS_6StringE@Base 3.2.1-1kern1
 _ZN8casacore7MSTableINS_17MSFreqOffsetEnumsEE15addColumnToDescERNS_9TableDescENS1_17PredefinedColumnsEiRKNS_6StringE@Base 3.2.1-1kern1
 _ZN8casacore7MSTableINS_17MSFreqOffsetEnumsEE15keywordDataTypeENS1_18PredefinedKeywordsE@Base 3.2.1-1kern1
 _ZN8casacore7MSTableINS_17MSFreqOffsetEnumsEE15keywordDataTypeERKNS_11MSTableMapsENS1_18PredefinedKeywordsE@Base 3.2.1-1kern1
 _ZN8casacore7MSTableINS_17MSFreqOffsetEnumsEE17columnMeasureTypeENS1_17PredefinedColumnsE@Base 3.2.1-1kern1
 _ZN8casacore7MSTableINS_17MSFreqOffsetEnumsEE17columnMeasureTypeERKNS_11MSTableMapsENS1_17PredefinedColumnsE@Base 3.2.1-1kern1
 _ZN8casacore7MSTableINS_17MSFreqOffsetEnumsEE17requiredTableDescEv@Base 3.2.1-1kern1
 _ZN8casacore7MSTableINS_17MSFreqOffsetEnumsEE20addColumnCompressionERNS_9TableDescENS1_17PredefinedColumnsEbRKNS_6StringE@Base 3.2.1-1kern1
 _ZN8casacore7MSTableINS_17MSFreqOffsetEnumsEE21columnStandardCommentENS1_17PredefinedColumnsE@Base 3.2.1-1kern1
 _ZN8casacore7MSTableINS_17MSFreqOffsetEnumsEE21columnStandardCommentERKNS_11MSTableMapsENS1_17PredefinedColumnsE@Base 3.2.1-1kern1
 _ZN8casacore7MSTableINS_17MSFreqOffsetEnumsEE22keywordStandardCommentENS1_18PredefinedKeywordsE@Base 3.2.1-1kern1
 _ZN8casacore7MSTableINS_17MSFreqOffsetEnumsEE22keywordStandardCommentERKNS_11MSTableMapsENS1_18PredefinedKeywordsE@Base 3.2.1-1kern1
 _ZN8casacore7MSTableINS_17MSFreqOffsetEnumsEE7getMapsEv@Base 3.2.1-1kern1
 _ZN8casacore7MSTableINS_17MSFreqOffsetEnumsEE8validateERKNS_11TableRecordE@Base 3.2.1-1kern1
 _ZN8casacore7MSTableINS_17MSFreqOffsetEnumsEE8validateERKNS_9TableDescE@Base 3.2.1-1kern1
 _ZN8casacore7MSTableINS_17MSFreqOffsetEnumsEE9colMapDefERNS_11MSTableMapsENS1_17PredefinedColumnsERKNS_6StringENS_8DataTypeES8_S8_S8_@Base 3.2.1-1kern1
 _ZN8casacore7MSTableINS_17MSFreqOffsetEnumsEE9keyMapDefERNS_11MSTableMapsENS1_18PredefinedKeywordsERKNS_6StringENS_8DataTypeES8_@Base 3.2.1-1kern1
 _ZN8casacore7MSTableINS_17MSFreqOffsetEnumsEEC1ERKNS_5TableE@Base 3.2.1-1kern1
 _ZN8casacore7MSTableINS_17MSFreqOffsetEnumsEEC1ERKNS_6StringENS_5Table11TableOptionE@Base 3.2.1-1kern1
 _ZN8casacore7MSTableINS_17MSFreqOffsetEnumsEEC1ERKNS_6StringERKNS_9TableLockENS_5Table11TableOptionE@Base 3.2.1-1kern1
 _ZN8casacore7MSTableINS_17MSFreqOffsetEnumsEEC1ERKNS_6StringES5_NS_5Table11TableOptionE@Base 3.2.1-1kern1
 _ZN8casacore7MSTableINS_17MSFreqOffsetEnumsEEC1ERKNS_6StringES5_RKNS_9TableLockENS_5Table11TableOptionE@Base 3.2.1-1kern1
 _ZN8casacore7MSTableINS_17MSFreqOffsetEnumsEEC1ERKS2_@Base 3.2.1-1kern1
 _ZN8casacore7MSTableINS_17MSFreqOffsetEnumsEEC1ERNS_13SetupNewTableERKNS_9TableLockEjb@Base 3.2.1-1kern1
 _ZN8casacore7MSTableINS_17MSFreqOffsetEnumsEEC1ERNS_13SetupNewTableEjb@Base 3.2.1-1kern1
 _ZN8casacore7MSTableINS_17MSFreqOffsetEnumsEEC1Ev@Base 3.2.1-1kern1
 _ZN8casacore7MSTableINS_17MSFreqOffsetEnumsEEC2ERKNS_5TableE@Base 3.2.1-1kern1
 _ZN8casacore7MSTableINS_17MSFreqOffsetEnumsEEC2ERKNS_6StringENS_5Table11TableOptionE@Base 3.2.1-1kern1
 _ZN8casacore7MSTableINS_17MSFreqOffsetEnumsEEC2ERKNS_6StringERKNS_9TableLockENS_5Table11TableOptionE@Base 3.2.1-1kern1
 _ZN8casacore7MSTableINS_17MSFreqOffsetEnumsEEC2ERKNS_6StringES5_NS_5Table11TableOptionE@Base 3.2.1-1kern1
 _ZN8casacore7MSTableINS_17MSFreqOffsetEnumsEEC2ERKNS_6StringES5_RKNS_9TableLockENS_5Table11TableOptionE@Base 3.2.1-1kern1
 _ZN8casacore7MSTableINS_17MSFreqOffsetEnumsEEC2ERKS2_@Base 3.2.1-1kern1
 _ZN8casacore7MSTableINS_17MSFreqOffsetEnumsEEC2ERNS_13SetupNewTableERKNS_9TableLockEjb@Base 3.2.1-1kern1
 _ZN8casacore7MSTableINS_17MSFreqOffsetEnumsEEC2ERNS_13SetupNewTableEjb@Base 3.2.1-1kern1
 _ZN8casacore7MSTableINS_17MSFreqOffsetEnumsEEC2Ev@Base 3.2.1-1kern1
 _ZN8casacore7MSTableINS_17MSFreqOffsetEnumsEED0Ev@Base 3.2.1-1kern1
 _ZN8casacore7MSTableINS_17MSFreqOffsetEnumsEED1Ev@Base 3.2.1-1kern1
 _ZN8casacore7MSTableINS_17MSFreqOffsetEnumsEED2Ev@Base 3.2.1-1kern1
 _ZN8casacore7MSTableINS_17MSFreqOffsetEnumsEEaSERKS2_@Base 3.2.1-1kern1
 _ZN8casacore7MSTableINS_18MSObservationEnumsEE10columnNameENS1_17PredefinedColumnsE@Base 3.2.1-1kern1
 _ZN8casacore7MSTableINS_18MSObservationEnumsEE10columnNameERKNS_11MSTableMapsENS1_17PredefinedColumnsE@Base 3.2.1-1kern1
 _ZN8casacore7MSTableINS_18MSObservationEnumsEE10columnTypeERKNS_6StringE@Base 3.2.1-1kern1
 _ZN8casacore7MSTableINS_18MSObservationEnumsEE10columnUnitENS1_17PredefinedColumnsE@Base 3.2.1-1kern1
 _ZN8casacore7MSTableINS_18MSObservationEnumsEE10columnUnitERKNS_11MSTableMapsENS1_17PredefinedColumnsE@Base 3.2.1-1kern1
 _ZN8casacore7MSTableINS_18MSObservationEnumsEE11keywordNameENS1_18PredefinedKeywordsE@Base 3.2.1-1kern1
 _ZN8casacore7MSTableINS_18MSObservationEnumsEE11keywordNameERKNS_11MSTableMapsENS1_18PredefinedKeywordsE@Base 3.2.1-1kern1
 _ZN8casacore7MSTableINS_18MSObservationEnumsEE11keywordTypeERKNS_6StringE@Base 3.2.1-1kern1
 _ZN8casacore7MSTableINS_18MSObservationEnumsEE12addKeyToDescERNS_11MSTableMapsENS1_18PredefinedKeywordsE@Base 3.2.1-1kern1
 _ZN8casacore7MSTableINS_18MSObservationEnumsEE12addKeyToDescERNS_9TableDescENS1_18PredefinedKeywordsE@Base 3.2.1-1kern1
 _ZN8casacore7MSTableINS_18MSObservationEnumsEE14columnDataTypeENS1_17PredefinedColumnsE@Base 3.2.1-1kern1
 _ZN8casacore7MSTableINS_18MSObservationEnumsEE14columnDataTypeERKNS_11MSTableMapsENS1_17PredefinedColumnsE@Base 3.2.1-1kern1
 _ZN8casacore7MSTableINS_18MSObservationEnumsEE15addColumnToDescERNS_11MSTableMapsENS1_17PredefinedColumnsERKNS_9IPositionENS_10ColumnDesc6OptionERKNS_6StringE@Base 3.2.1-1kern1
 _ZN8casacore7MSTableINS_18MSObservationEnumsEE15addColumnToDescERNS_11MSTableMapsENS1_17PredefinedColumnsEiRKNS_6StringE@Base 3.2.1-1kern1
 _ZN8casacore7MSTableINS_18MSObservationEnumsEE15addColumnToDescERNS_9TableDescENS1_17PredefinedColumnsERKNS_9IPositionENS_10ColumnDesc6OptionERKNS_6StringE@Base 3.2.1-1kern1
 _ZN8casacore7MSTableINS_18MSObservationEnumsEE15addColumnToDescERNS_9TableDescENS1_17PredefinedColumnsEiRKNS_6StringE@Base 3.2.1-1kern1
 _ZN8casacore7MSTableINS_18MSObservationEnumsEE15keywordDataTypeENS1_18PredefinedKeywordsE@Base 3.2.1-1kern1
 _ZN8casacore7MSTableINS_18MSObservationEnumsEE15keywordDataTypeERKNS_11MSTableMapsENS1_18PredefinedKeywordsE@Base 3.2.1-1kern1
 _ZN8casacore7MSTableINS_18MSObservationEnumsEE17columnMeasureTypeENS1_17PredefinedColumnsE@Base 3.2.1-1kern1
 _ZN8casacore7MSTableINS_18MSObservationEnumsEE17columnMeasureTypeERKNS_11MSTableMapsENS1_17PredefinedColumnsE@Base 3.2.1-1kern1
 _ZN8casacore7MSTableINS_18MSObservationEnumsEE17requiredTableDescEv@Base 3.2.1-1kern1
 _ZN8casacore7MSTableINS_18MSObservationEnumsEE20addColumnCompressionERNS_9TableDescENS1_17PredefinedColumnsEbRKNS_6StringE@Base 3.2.1-1kern1
 _ZN8casacore7MSTableINS_18MSObservationEnumsEE21columnStandardCommentENS1_17PredefinedColumnsE@Base 3.2.1-1kern1
 _ZN8casacore7MSTableINS_18MSObservationEnumsEE21columnStandardCommentERKNS_11MSTableMapsENS1_17PredefinedColumnsE@Base 3.2.1-1kern1
 _ZN8casacore7MSTableINS_18MSObservationEnumsEE22keywordStandardCommentENS1_18PredefinedKeywordsE@Base 3.2.1-1kern1
 _ZN8casacore7MSTableINS_18MSObservationEnumsEE22keywordStandardCommentERKNS_11MSTableMapsENS1_18PredefinedKeywordsE@Base 3.2.1-1kern1
 _ZN8casacore7MSTableINS_18MSObservationEnumsEE7getMapsEv@Base 3.2.1-1kern1
 _ZN8casacore7MSTableINS_18MSObservationEnumsEE8validateERKNS_11TableRecordE@Base 3.2.1-1kern1
 _ZN8casacore7MSTableINS_18MSObservationEnumsEE8validateERKNS_9TableDescE@Base 3.2.1-1kern1
 _ZN8casacore7MSTableINS_18MSObservationEnumsEE9colMapDefERNS_11MSTableMapsENS1_17PredefinedColumnsERKNS_6StringENS_8DataTypeES8_S8_S8_@Base 3.2.1-1kern1
 _ZN8casacore7MSTableINS_18MSObservationEnumsEE9keyMapDefERNS_11MSTableMapsENS1_18PredefinedKeywordsERKNS_6StringENS_8DataTypeES8_@Base 3.2.1-1kern1
 _ZN8casacore7MSTableINS_18MSObservationEnumsEEC1ERKNS_5TableE@Base 3.2.1-1kern1
 _ZN8casacore7MSTableINS_18MSObservationEnumsEEC1ERKNS_6StringENS_5Table11TableOptionE@Base 3.2.1-1kern1
 _ZN8casacore7MSTableINS_18MSObservationEnumsEEC1ERKNS_6StringERKNS_9TableLockENS_5Table11TableOptionE@Base 3.2.1-1kern1
 _ZN8casacore7MSTableINS_18MSObservationEnumsEEC1ERKNS_6StringES5_NS_5Table11TableOptionE@Base 3.2.1-1kern1
 _ZN8casacore7MSTableINS_18MSObservationEnumsEEC1ERKNS_6StringES5_RKNS_9TableLockENS_5Table11TableOptionE@Base 3.2.1-1kern1
 _ZN8casacore7MSTableINS_18MSObservationEnumsEEC1ERKS2_@Base 3.2.1-1kern1
 _ZN8casacore7MSTableINS_18MSObservationEnumsEEC1ERNS_13SetupNewTableERKNS_9TableLockEjb@Base 3.2.1-1kern1
 _ZN8casacore7MSTableINS_18MSObservationEnumsEEC1ERNS_13SetupNewTableEjb@Base 3.2.1-1kern1
 _ZN8casacore7MSTableINS_18MSObservationEnumsEEC1Ev@Base 3.2.1-1kern1
 _ZN8casacore7MSTableINS_18MSObservationEnumsEEC2ERKNS_5TableE@Base 3.2.1-1kern1
 _ZN8casacore7MSTableINS_18MSObservationEnumsEEC2ERKNS_6StringENS_5Table11TableOptionE@Base 3.2.1-1kern1
 _ZN8casacore7MSTableINS_18MSObservationEnumsEEC2ERKNS_6StringERKNS_9TableLockENS_5Table11TableOptionE@Base 3.2.1-1kern1
 _ZN8casacore7MSTableINS_18MSObservationEnumsEEC2ERKNS_6StringES5_NS_5Table11TableOptionE@Base 3.2.1-1kern1
 _ZN8casacore7MSTableINS_18MSObservationEnumsEEC2ERKNS_6StringES5_RKNS_9TableLockENS_5Table11TableOptionE@Base 3.2.1-1kern1
 _ZN8casacore7MSTableINS_18MSObservationEnumsEEC2ERKS2_@Base 3.2.1-1kern1
 _ZN8casacore7MSTableINS_18MSObservationEnumsEEC2ERNS_13SetupNewTableERKNS_9TableLockEjb@Base 3.2.1-1kern1
 _ZN8casacore7MSTableINS_18MSObservationEnumsEEC2ERNS_13SetupNewTableEjb@Base 3.2.1-1kern1
 _ZN8casacore7MSTableINS_18MSObservationEnumsEEC2Ev@Base 3.2.1-1kern1
 _ZN8casacore7MSTableINS_18MSObservationEnumsEED0Ev@Base 3.2.1-1kern1
 _ZN8casacore7MSTableINS_18MSObservationEnumsEED1Ev@Base 3.2.1-1kern1
 _ZN8casacore7MSTableINS_18MSObservationEnumsEED2Ev@Base 3.2.1-1kern1
 _ZN8casacore7MSTableINS_18MSObservationEnumsEEaSERKS2_@Base 3.2.1-1kern1
 _ZN8casacore7MSTableINS_19MSPolarizationEnumsEE10columnNameENS1_17PredefinedColumnsE@Base 3.2.1-1kern1
 _ZN8casacore7MSTableINS_19MSPolarizationEnumsEE10columnNameERKNS_11MSTableMapsENS1_17PredefinedColumnsE@Base 3.2.1-1kern1
 _ZN8casacore7MSTableINS_19MSPolarizationEnumsEE10columnTypeERKNS_6StringE@Base 3.2.1-1kern1
 _ZN8casacore7MSTableINS_19MSPolarizationEnumsEE10columnUnitENS1_17PredefinedColumnsE@Base 3.2.1-1kern1
 _ZN8casacore7MSTableINS_19MSPolarizationEnumsEE10columnUnitERKNS_11MSTableMapsENS1_17PredefinedColumnsE@Base 3.2.1-1kern1
 _ZN8casacore7MSTableINS_19MSPolarizationEnumsEE11keywordNameENS1_18PredefinedKeywordsE@Base 3.2.1-1kern1
 _ZN8casacore7MSTableINS_19MSPolarizationEnumsEE11keywordNameERKNS_11MSTableMapsENS1_18PredefinedKeywordsE@Base 3.2.1-1kern1
 _ZN8casacore7MSTableINS_19MSPolarizationEnumsEE11keywordTypeERKNS_6StringE@Base 3.2.1-1kern1
 _ZN8casacore7MSTableINS_19MSPolarizationEnumsEE12addKeyToDescERNS_11MSTableMapsENS1_18PredefinedKeywordsE@Base 3.2.1-1kern1
 _ZN8casacore7MSTableINS_19MSPolarizationEnumsEE12addKeyToDescERNS_9TableDescENS1_18PredefinedKeywordsE@Base 3.2.1-1kern1
 _ZN8casacore7MSTableINS_19MSPolarizationEnumsEE14columnDataTypeENS1_17PredefinedColumnsE@Base 3.2.1-1kern1
 _ZN8casacore7MSTableINS_19MSPolarizationEnumsEE14columnDataTypeERKNS_11MSTableMapsENS1_17PredefinedColumnsE@Base 3.2.1-1kern1
 _ZN8casacore7MSTableINS_19MSPolarizationEnumsEE15addColumnToDescERNS_11MSTableMapsENS1_17PredefinedColumnsERKNS_9IPositionENS_10ColumnDesc6OptionERKNS_6StringE@Base 3.2.1-1kern1
 _ZN8casacore7MSTableINS_19MSPolarizationEnumsEE15addColumnToDescERNS_11MSTableMapsENS1_17PredefinedColumnsEiRKNS_6StringE@Base 3.2.1-1kern1
 _ZN8casacore7MSTableINS_19MSPolarizationEnumsEE15addColumnToDescERNS_9TableDescENS1_17PredefinedColumnsERKNS_9IPositionENS_10ColumnDesc6OptionERKNS_6StringE@Base 3.2.1-1kern1
 _ZN8casacore7MSTableINS_19MSPolarizationEnumsEE15addColumnToDescERNS_9TableDescENS1_17PredefinedColumnsEiRKNS_6StringE@Base 3.2.1-1kern1
 _ZN8casacore7MSTableINS_19MSPolarizationEnumsEE15keywordDataTypeENS1_18PredefinedKeywordsE@Base 3.2.1-1kern1
 _ZN8casacore7MSTableINS_19MSPolarizationEnumsEE15keywordDataTypeERKNS_11MSTableMapsENS1_18PredefinedKeywordsE@Base 3.2.1-1kern1
 _ZN8casacore7MSTableINS_19MSPolarizationEnumsEE17columnMeasureTypeENS1_17PredefinedColumnsE@Base 3.2.1-1kern1
 _ZN8casacore7MSTableINS_19MSPolarizationEnumsEE17columnMeasureTypeERKNS_11MSTableMapsENS1_17PredefinedColumnsE@Base 3.2.1-1kern1
 _ZN8casacore7MSTableINS_19MSPolarizationEnumsEE17requiredTableDescEv@Base 3.2.1-1kern1
 _ZN8casacore7MSTableINS_19MSPolarizationEnumsEE20addColumnCompressionERNS_9TableDescENS1_17PredefinedColumnsEbRKNS_6StringE@Base 3.2.1-1kern1
 _ZN8casacore7MSTableINS_19MSPolarizationEnumsEE21columnStandardCommentENS1_17PredefinedColumnsE@Base 3.2.1-1kern1
 _ZN8casacore7MSTableINS_19MSPolarizationEnumsEE21columnStandardCommentERKNS_11MSTableMapsENS1_17PredefinedColumnsE@Base 3.2.1-1kern1
 _ZN8casacore7MSTableINS_19MSPolarizationEnumsEE22keywordStandardCommentENS1_18PredefinedKeywordsE@Base 3.2.1-1kern1
 _ZN8casacore7MSTableINS_19MSPolarizationEnumsEE22keywordStandardCommentERKNS_11MSTableMapsENS1_18PredefinedKeywordsE@Base 3.2.1-1kern1
 _ZN8casacore7MSTableINS_19MSPolarizationEnumsEE7getMapsEv@Base 3.2.1-1kern1
 _ZN8casacore7MSTableINS_19MSPolarizationEnumsEE8validateERKNS_11TableRecordE@Base 3.2.1-1kern1
 _ZN8casacore7MSTableINS_19MSPolarizationEnumsEE8validateERKNS_9TableDescE@Base 3.2.1-1kern1
 _ZN8casacore7MSTableINS_19MSPolarizationEnumsEE9colMapDefERNS_11MSTableMapsENS1_17PredefinedColumnsERKNS_6StringENS_8DataTypeES8_S8_S8_@Base 3.2.1-1kern1
 _ZN8casacore7MSTableINS_19MSPolarizationEnumsEE9keyMapDefERNS_11MSTableMapsENS1_18PredefinedKeywordsERKNS_6StringENS_8DataTypeES8_@Base 3.2.1-1kern1
 _ZN8casacore7MSTableINS_19MSPolarizationEnumsEEC1ERKNS_5TableE@Base 3.2.1-1kern1
 _ZN8casacore7MSTableINS_19MSPolarizationEnumsEEC1ERKNS_6StringENS_5Table11TableOptionE@Base 3.2.1-1kern1
 _ZN8casacore7MSTableINS_19MSPolarizationEnumsEEC1ERKNS_6StringERKNS_9TableLockENS_5Table11TableOptionE@Base 3.2.1-1kern1
 _ZN8casacore7MSTableINS_19MSPolarizationEnumsEEC1ERKNS_6StringES5_NS_5Table11TableOptionE@Base 3.2.1-1kern1
 _ZN8casacore7MSTableINS_19MSPolarizationEnumsEEC1ERKNS_6StringES5_RKNS_9TableLockENS_5Table11TableOptionE@Base 3.2.1-1kern1
 _ZN8casacore7MSTableINS_19MSPolarizationEnumsEEC1ERKS2_@Base 3.2.1-1kern1
 _ZN8casacore7MSTableINS_19MSPolarizationEnumsEEC1ERNS_13SetupNewTableERKNS_9TableLockEjb@Base 3.2.1-1kern1
 _ZN8casacore7MSTableINS_19MSPolarizationEnumsEEC1ERNS_13SetupNewTableEjb@Base 3.2.1-1kern1
 _ZN8casacore7MSTableINS_19MSPolarizationEnumsEEC1Ev@Base 3.2.1-1kern1
 _ZN8casacore7MSTableINS_19MSPolarizationEnumsEEC2ERKNS_5TableE@Base 3.2.1-1kern1
 _ZN8casacore7MSTableINS_19MSPolarizationEnumsEEC2ERKNS_6StringENS_5Table11TableOptionE@Base 3.2.1-1kern1
 _ZN8casacore7MSTableINS_19MSPolarizationEnumsEEC2ERKNS_6StringERKNS_9TableLockENS_5Table11TableOptionE@Base 3.2.1-1kern1
 _ZN8casacore7MSTableINS_19MSPolarizationEnumsEEC2ERKNS_6StringES5_NS_5Table11TableOptionE@Base 3.2.1-1kern1
 _ZN8casacore7MSTableINS_19MSPolarizationEnumsEEC2ERKNS_6StringES5_RKNS_9TableLockENS_5Table11TableOptionE@Base 3.2.1-1kern1
 _ZN8casacore7MSTableINS_19MSPolarizationEnumsEEC2ERKS2_@Base 3.2.1-1kern1
 _ZN8casacore7MSTableINS_19MSPolarizationEnumsEEC2ERNS_13SetupNewTableERKNS_9TableLockEjb@Base 3.2.1-1kern1
 _ZN8casacore7MSTableINS_19MSPolarizationEnumsEEC2ERNS_13SetupNewTableEjb@Base 3.2.1-1kern1
 _ZN8casacore7MSTableINS_19MSPolarizationEnumsEEC2Ev@Base 3.2.1-1kern1
 _ZN8casacore7MSTableINS_19MSPolarizationEnumsEED0Ev@Base 3.2.1-1kern1
 _ZN8casacore7MSTableINS_19MSPolarizationEnumsEED1Ev@Base 3.2.1-1kern1
 _ZN8casacore7MSTableINS_19MSPolarizationEnumsEED2Ev@Base 3.2.1-1kern1
 _ZN8casacore7MSTableINS_19MSPolarizationEnumsEEaSERKS2_@Base 3.2.1-1kern1
 _ZN8casacore7MSTableINS_21MSSpectralWindowEnumsEE10columnNameENS1_17PredefinedColumnsE@Base 3.2.1-1kern1
 _ZN8casacore7MSTableINS_21MSSpectralWindowEnumsEE10columnNameERKNS_11MSTableMapsENS1_17PredefinedColumnsE@Base 3.2.1-1kern1
 _ZN8casacore7MSTableINS_21MSSpectralWindowEnumsEE10columnTypeERKNS_6StringE@Base 3.2.1-1kern1
 _ZN8casacore7MSTableINS_21MSSpectralWindowEnumsEE10columnUnitENS1_17PredefinedColumnsE@Base 3.2.1-1kern1
 _ZN8casacore7MSTableINS_21MSSpectralWindowEnumsEE10columnUnitERKNS_11MSTableMapsENS1_17PredefinedColumnsE@Base 3.2.1-1kern1
 _ZN8casacore7MSTableINS_21MSSpectralWindowEnumsEE11keywordNameENS1_18PredefinedKeywordsE@Base 3.2.1-1kern1
 _ZN8casacore7MSTableINS_21MSSpectralWindowEnumsEE11keywordNameERKNS_11MSTableMapsENS1_18PredefinedKeywordsE@Base 3.2.1-1kern1
 _ZN8casacore7MSTableINS_21MSSpectralWindowEnumsEE11keywordTypeERKNS_6StringE@Base 3.2.1-1kern1
 _ZN8casacore7MSTableINS_21MSSpectralWindowEnumsEE12addKeyToDescERNS_11MSTableMapsENS1_18PredefinedKeywordsE@Base 3.2.1-1kern1
 _ZN8casacore7MSTableINS_21MSSpectralWindowEnumsEE12addKeyToDescERNS_9TableDescENS1_18PredefinedKeywordsE@Base 3.2.1-1kern1
 _ZN8casacore7MSTableINS_21MSSpectralWindowEnumsEE14columnDataTypeENS1_17PredefinedColumnsE@Base 3.2.1-1kern1
 _ZN8casacore7MSTableINS_21MSSpectralWindowEnumsEE14columnDataTypeERKNS_11MSTableMapsENS1_17PredefinedColumnsE@Base 3.2.1-1kern1
 _ZN8casacore7MSTableINS_21MSSpectralWindowEnumsEE15addColumnToDescERNS_11MSTableMapsENS1_17PredefinedColumnsERKNS_9IPositionENS_10ColumnDesc6OptionERKNS_6StringE@Base 3.2.1-1kern1
 _ZN8casacore7MSTableINS_21MSSpectralWindowEnumsEE15addColumnToDescERNS_11MSTableMapsENS1_17PredefinedColumnsEiRKNS_6StringE@Base 3.2.1-1kern1
 _ZN8casacore7MSTableINS_21MSSpectralWindowEnumsEE15addColumnToDescERNS_9TableDescENS1_17PredefinedColumnsERKNS_9IPositionENS_10ColumnDesc6OptionERKNS_6StringE@Base 3.2.1-1kern1
 _ZN8casacore7MSTableINS_21MSSpectralWindowEnumsEE15addColumnToDescERNS_9TableDescENS1_17PredefinedColumnsEiRKNS_6StringE@Base 3.2.1-1kern1
 _ZN8casacore7MSTableINS_21MSSpectralWindowEnumsEE15keywordDataTypeENS1_18PredefinedKeywordsE@Base 3.2.1-1kern1
 _ZN8casacore7MSTableINS_21MSSpectralWindowEnumsEE15keywordDataTypeERKNS_11MSTableMapsENS1_18PredefinedKeywordsE@Base 3.2.1-1kern1
 _ZN8casacore7MSTableINS_21MSSpectralWindowEnumsEE17columnMeasureTypeENS1_17PredefinedColumnsE@Base 3.2.1-1kern1
 _ZN8casacore7MSTableINS_21MSSpectralWindowEnumsEE17columnMeasureTypeERKNS_11MSTableMapsENS1_17PredefinedColumnsE@Base 3.2.1-1kern1
 _ZN8casacore7MSTableINS_21MSSpectralWindowEnumsEE17requiredTableDescEv@Base 3.2.1-1kern1
 _ZN8casacore7MSTableINS_21MSSpectralWindowEnumsEE20addColumnCompressionERNS_9TableDescENS1_17PredefinedColumnsEbRKNS_6StringE@Base 3.2.1-1kern1
 _ZN8casacore7MSTableINS_21MSSpectralWindowEnumsEE21columnStandardCommentENS1_17PredefinedColumnsE@Base 3.2.1-1kern1
 _ZN8casacore7MSTableINS_21MSSpectralWindowEnumsEE21columnStandardCommentERKNS_11MSTableMapsENS1_17PredefinedColumnsE@Base 3.2.1-1kern1
 _ZN8casacore7MSTableINS_21MSSpectralWindowEnumsEE22keywordStandardCommentENS1_18PredefinedKeywordsE@Base 3.2.1-1kern1
 _ZN8casacore7MSTableINS_21MSSpectralWindowEnumsEE22keywordStandardCommentERKNS_11MSTableMapsENS1_18PredefinedKeywordsE@Base 3.2.1-1kern1
 _ZN8casacore7MSTableINS_21MSSpectralWindowEnumsEE7getMapsEv@Base 3.2.1-1kern1
 _ZN8casacore7MSTableINS_21MSSpectralWindowEnumsEE8validateERKNS_11TableRecordE@Base 3.2.1-1kern1
 _ZN8casacore7MSTableINS_21MSSpectralWindowEnumsEE8validateERKNS_9TableDescE@Base 3.2.1-1kern1
 _ZN8casacore7MSTableINS_21MSSpectralWindowEnumsEE9colMapDefERNS_11MSTableMapsENS1_17PredefinedColumnsERKNS_6StringENS_8DataTypeES8_S8_S8_@Base 3.2.1-1kern1
 _ZN8casacore7MSTableINS_21MSSpectralWindowEnumsEE9keyMapDefERNS_11MSTableMapsENS1_18PredefinedKeywordsERKNS_6StringENS_8DataTypeES8_@Base 3.2.1-1kern1
 _ZN8casacore7MSTableINS_21MSSpectralWindowEnumsEEC1ERKNS_5TableE@Base 3.2.1-1kern1
 _ZN8casacore7MSTableINS_21MSSpectralWindowEnumsEEC1ERKNS_6StringENS_5Table11TableOptionE@Base 3.2.1-1kern1
 _ZN8casacore7MSTableINS_21MSSpectralWindowEnumsEEC1ERKNS_6StringERKNS_9TableLockENS_5Table11TableOptionE@Base 3.2.1-1kern1
 _ZN8casacore7MSTableINS_21MSSpectralWindowEnumsEEC1ERKNS_6StringES5_NS_5Table11TableOptionE@Base 3.2.1-1kern1
 _ZN8casacore7MSTableINS_21MSSpectralWindowEnumsEEC1ERKNS_6StringES5_RKNS_9TableLockENS_5Table11TableOptionE@Base 3.2.1-1kern1
 _ZN8casacore7MSTableINS_21MSSpectralWindowEnumsEEC1ERKS2_@Base 3.2.1-1kern1
 _ZN8casacore7MSTableINS_21MSSpectralWindowEnumsEEC1ERNS_13SetupNewTableERKNS_9TableLockEjb@Base 3.2.1-1kern1
 _ZN8casacore7MSTableINS_21MSSpectralWindowEnumsEEC1ERNS_13SetupNewTableEjb@Base 3.2.1-1kern1
 _ZN8casacore7MSTableINS_21MSSpectralWindowEnumsEEC1Ev@Base 3.2.1-1kern1
 _ZN8casacore7MSTableINS_21MSSpectralWindowEnumsEEC2ERKNS_5TableE@Base 3.2.1-1kern1
 _ZN8casacore7MSTableINS_21MSSpectralWindowEnumsEEC2ERKNS_6StringENS_5Table11TableOptionE@Base 3.2.1-1kern1
 _ZN8casacore7MSTableINS_21MSSpectralWindowEnumsEEC2ERKNS_6StringERKNS_9TableLockENS_5Table11TableOptionE@Base 3.2.1-1kern1
 _ZN8casacore7MSTableINS_21MSSpectralWindowEnumsEEC2ERKNS_6StringES5_NS_5Table11TableOptionE@Base 3.2.1-1kern1
 _ZN8casacore7MSTableINS_21MSSpectralWindowEnumsEEC2ERKNS_6StringES5_RKNS_9TableLockENS_5Table11TableOptionE@Base 3.2.1-1kern1
 _ZN8casacore7MSTableINS_21MSSpectralWindowEnumsEEC2ERKS2_@Base 3.2.1-1kern1
 _ZN8casacore7MSTableINS_21MSSpectralWindowEnumsEEC2ERNS_13SetupNewTableERKNS_9TableLockEjb@Base 3.2.1-1kern1
 _ZN8casacore7MSTableINS_21MSSpectralWindowEnumsEEC2ERNS_13SetupNewTableEjb@Base 3.2.1-1kern1
 _ZN8casacore7MSTableINS_21MSSpectralWindowEnumsEEC2Ev@Base 3.2.1-1kern1
 _ZN8casacore7MSTableINS_21MSSpectralWindowEnumsEED0Ev@Base 3.2.1-1kern1
 _ZN8casacore7MSTableINS_21MSSpectralWindowEnumsEED1Ev@Base 3.2.1-1kern1
 _ZN8casacore7MSTableINS_21MSSpectralWindowEnumsEED2Ev@Base 3.2.1-1kern1
 _ZN8casacore7MSTableINS_21MSSpectralWindowEnumsEEaSERKS2_@Base 3.2.1-1kern1
 _ZN8casacore7MSTableINS_22MSDataDescriptionEnumsEE10columnNameENS1_17PredefinedColumnsE@Base 3.2.1-1kern1
 _ZN8casacore7MSTableINS_22MSDataDescriptionEnumsEE10columnNameERKNS_11MSTableMapsENS1_17PredefinedColumnsE@Base 3.2.1-1kern1
 _ZN8casacore7MSTableINS_22MSDataDescriptionEnumsEE10columnTypeERKNS_6StringE@Base 3.2.1-1kern1
 _ZN8casacore7MSTableINS_22MSDataDescriptionEnumsEE10columnUnitENS1_17PredefinedColumnsE@Base 3.2.1-1kern1
 _ZN8casacore7MSTableINS_22MSDataDescriptionEnumsEE10columnUnitERKNS_11MSTableMapsENS1_17PredefinedColumnsE@Base 3.2.1-1kern1
 _ZN8casacore7MSTableINS_22MSDataDescriptionEnumsEE11keywordNameENS1_18PredefinedKeywordsE@Base 3.2.1-1kern1
 _ZN8casacore7MSTableINS_22MSDataDescriptionEnumsEE11keywordNameERKNS_11MSTableMapsENS1_18PredefinedKeywordsE@Base 3.2.1-1kern1
 _ZN8casacore7MSTableINS_22MSDataDescriptionEnumsEE11keywordTypeERKNS_6StringE@Base 3.2.1-1kern1
 _ZN8casacore7MSTableINS_22MSDataDescriptionEnumsEE12addKeyToDescERNS_11MSTableMapsENS1_18PredefinedKeywordsE@Base 3.2.1-1kern1
 _ZN8casacore7MSTableINS_22MSDataDescriptionEnumsEE12addKeyToDescERNS_9TableDescENS1_18PredefinedKeywordsE@Base 3.2.1-1kern1
 _ZN8casacore7MSTableINS_22MSDataDescriptionEnumsEE14columnDataTypeENS1_17PredefinedColumnsE@Base 3.2.1-1kern1
 _ZN8casacore7MSTableINS_22MSDataDescriptionEnumsEE14columnDataTypeERKNS_11MSTableMapsENS1_17PredefinedColumnsE@Base 3.2.1-1kern1
 _ZN8casacore7MSTableINS_22MSDataDescriptionEnumsEE15addColumnToDescERNS_11MSTableMapsENS1_17PredefinedColumnsERKNS_9IPositionENS_10ColumnDesc6OptionERKNS_6StringE@Base 3.2.1-1kern1
 _ZN8casacore7MSTableINS_22MSDataDescriptionEnumsEE15addColumnToDescERNS_11MSTableMapsENS1_17PredefinedColumnsEiRKNS_6StringE@Base 3.2.1-1kern1
 _ZN8casacore7MSTableINS_22MSDataDescriptionEnumsEE15addColumnToDescERNS_9TableDescENS1_17PredefinedColumnsERKNS_9IPositionENS_10ColumnDesc6OptionERKNS_6StringE@Base 3.2.1-1kern1
 _ZN8casacore7MSTableINS_22MSDataDescriptionEnumsEE15addColumnToDescERNS_9TableDescENS1_17PredefinedColumnsEiRKNS_6StringE@Base 3.2.1-1kern1
 _ZN8casacore7MSTableINS_22MSDataDescriptionEnumsEE15keywordDataTypeENS1_18PredefinedKeywordsE@Base 3.2.1-1kern1
 _ZN8casacore7MSTableINS_22MSDataDescriptionEnumsEE15keywordDataTypeERKNS_11MSTableMapsENS1_18PredefinedKeywordsE@Base 3.2.1-1kern1
 _ZN8casacore7MSTableINS_22MSDataDescriptionEnumsEE17columnMeasureTypeENS1_17PredefinedColumnsE@Base 3.2.1-1kern1
 _ZN8casacore7MSTableINS_22MSDataDescriptionEnumsEE17columnMeasureTypeERKNS_11MSTableMapsENS1_17PredefinedColumnsE@Base 3.2.1-1kern1
 _ZN8casacore7MSTableINS_22MSDataDescriptionEnumsEE17requiredTableDescEv@Base 3.2.1-1kern1
 _ZN8casacore7MSTableINS_22MSDataDescriptionEnumsEE20addColumnCompressionERNS_9TableDescENS1_17PredefinedColumnsEbRKNS_6StringE@Base 3.2.1-1kern1
 _ZN8casacore7MSTableINS_22MSDataDescriptionEnumsEE21columnStandardCommentENS1_17PredefinedColumnsE@Base 3.2.1-1kern1
 _ZN8casacore7MSTableINS_22MSDataDescriptionEnumsEE21columnStandardCommentERKNS_11MSTableMapsENS1_17PredefinedColumnsE@Base 3.2.1-1kern1
 _ZN8casacore7MSTableINS_22MSDataDescriptionEnumsEE22keywordStandardCommentENS1_18PredefinedKeywordsE@Base 3.2.1-1kern1
 _ZN8casacore7MSTableINS_22MSDataDescriptionEnumsEE22keywordStandardCommentERKNS_11MSTableMapsENS1_18PredefinedKeywordsE@Base 3.2.1-1kern1
 _ZN8casacore7MSTableINS_22MSDataDescriptionEnumsEE7getMapsEv@Base 3.2.1-1kern1
 _ZN8casacore7MSTableINS_22MSDataDescriptionEnumsEE8validateERKNS_11TableRecordE@Base 3.2.1-1kern1
 _ZN8casacore7MSTableINS_22MSDataDescriptionEnumsEE8validateERKNS_9TableDescE@Base 3.2.1-1kern1
 _ZN8casacore7MSTableINS_22MSDataDescriptionEnumsEE9colMapDefERNS_11MSTableMapsENS1_17PredefinedColumnsERKNS_6StringENS_8DataTypeES8_S8_S8_@Base 3.2.1-1kern1
 _ZN8casacore7MSTableINS_22MSDataDescriptionEnumsEE9keyMapDefERNS_11MSTableMapsENS1_18PredefinedKeywordsERKNS_6StringENS_8DataTypeES8_@Base 3.2.1-1kern1
 _ZN8casacore7MSTableINS_22MSDataDescriptionEnumsEEC1ERKNS_5TableE@Base 3.2.1-1kern1
 _ZN8casacore7MSTableINS_22MSDataDescriptionEnumsEEC1ERKNS_6StringENS_5Table11TableOptionE@Base 3.2.1-1kern1
 _ZN8casacore7MSTableINS_22MSDataDescriptionEnumsEEC1ERKNS_6StringERKNS_9TableLockENS_5Table11TableOptionE@Base 3.2.1-1kern1
 _ZN8casacore7MSTableINS_22MSDataDescriptionEnumsEEC1ERKNS_6StringES5_NS_5Table11TableOptionE@Base 3.2.1-1kern1
 _ZN8casacore7MSTableINS_22MSDataDescriptionEnumsEEC1ERKNS_6StringES5_RKNS_9TableLockENS_5Table11TableOptionE@Base 3.2.1-1kern1
 _ZN8casacore7MSTableINS_22MSDataDescriptionEnumsEEC1ERKS2_@Base 3.2.1-1kern1
 _ZN8casacore7MSTableINS_22MSDataDescriptionEnumsEEC1ERNS_13SetupNewTableERKNS_9TableLockEjb@Base 3.2.1-1kern1
 _ZN8casacore7MSTableINS_22MSDataDescriptionEnumsEEC1ERNS_13SetupNewTableEjb@Base 3.2.1-1kern1
 _ZN8casacore7MSTableINS_22MSDataDescriptionEnumsEEC1Ev@Base 3.2.1-1kern1
 _ZN8casacore7MSTableINS_22MSDataDescriptionEnumsEEC2ERKNS_5TableE@Base 3.2.1-1kern1
 _ZN8casacore7MSTableINS_22MSDataDescriptionEnumsEEC2ERKNS_6StringENS_5Table11TableOptionE@Base 3.2.1-1kern1
 _ZN8casacore7MSTableINS_22MSDataDescriptionEnumsEEC2ERKNS_6StringERKNS_9TableLockENS_5Table11TableOptionE@Base 3.2.1-1kern1
 _ZN8casacore7MSTableINS_22MSDataDescriptionEnumsEEC2ERKNS_6StringES5_NS_5Table11TableOptionE@Base 3.2.1-1kern1
 _ZN8casacore7MSTableINS_22MSDataDescriptionEnumsEEC2ERKNS_6StringES5_RKNS_9TableLockENS_5Table11TableOptionE@Base 3.2.1-1kern1
 _ZN8casacore7MSTableINS_22MSDataDescriptionEnumsEEC2ERKS2_@Base 3.2.1-1kern1
 _ZN8casacore7MSTableINS_22MSDataDescriptionEnumsEEC2ERNS_13SetupNewTableERKNS_9TableLockEjb@Base 3.2.1-1kern1
 _ZN8casacore7MSTableINS_22MSDataDescriptionEnumsEEC2ERNS_13SetupNewTableEjb@Base 3.2.1-1kern1
 _ZN8casacore7MSTableINS_22MSDataDescriptionEnumsEEC2Ev@Base 3.2.1-1kern1
 _ZN8casacore7MSTableINS_22MSDataDescriptionEnumsEED0Ev@Base 3.2.1-1kern1
 _ZN8casacore7MSTableINS_22MSDataDescriptionEnumsEED1Ev@Base 3.2.1-1kern1
 _ZN8casacore7MSTableINS_22MSDataDescriptionEnumsEED2Ev@Base 3.2.1-1kern1
 _ZN8casacore7MSTableINS_22MSDataDescriptionEnumsEEaSERKS2_@Base 3.2.1-1kern1
 _ZN8casacore7MeasRefINS_10MDirectionEE3setERKNS_7MeasureE@Base 3.2.1-1kern1
 _ZN8casacore7MeasRefINS_10MDirectionEE3setERKNS_9MeasFrameE@Base 3.2.1-1kern1
 _ZN8casacore7MeasRefINS_10MDirectionEE3setERKS1_@Base 3.2.1-1kern1
 _ZN8casacore7MeasRefINS_10MDirectionEE3setEj@Base 3.2.1-1kern1
 _ZN8casacore7MeasRefINS_10MDirectionEE6createEv@Base 3.2.1-1kern1
 _ZN8casacore7MeasRefINS_10MDirectionEE7setTypeEj@Base 3.2.1-1kern1
 _ZN8casacore7MeasRefINS_10MDirectionEE8getFrameEv@Base 3.2.1-1kern1
 _ZN8casacore7MeasRefINS_10MDirectionEEC1Ej@Base 3.2.1-1kern1
 _ZN8casacore7MeasRefINS_10MDirectionEEC1EjRKNS_9MeasFrameE@Base 3.2.1-1kern1
 _ZN8casacore7MeasRefINS_10MDirectionEEC2Ej@Base 3.2.1-1kern1
 _ZN8casacore7MeasRefINS_10MDirectionEEC2EjRKNS_9MeasFrameE@Base 3.2.1-1kern1
 _ZN8casacore7MeasRefINS_10MDirectionEED0Ev@Base 3.2.1-1kern1
 _ZN8casacore7MeasRefINS_10MDirectionEED1Ev@Base 3.2.1-1kern1
 _ZN8casacore7MeasRefINS_10MDirectionEED2Ev@Base 3.2.1-1kern1
 _ZN8casacore7MeasRefINS_10MFrequencyEE3setERKNS_7MeasureE@Base 3.2.1-1kern1
 _ZN8casacore7MeasRefINS_10MFrequencyEE3setERKNS_9MeasFrameE@Base 3.2.1-1kern1
 _ZN8casacore7MeasRefINS_10MFrequencyEE3setERKS1_@Base 3.2.1-1kern1
 _ZN8casacore7MeasRefINS_10MFrequencyEE3setEj@Base 3.2.1-1kern1
 _ZN8casacore7MeasRefINS_10MFrequencyEE6createEv@Base 3.2.1-1kern1
 _ZN8casacore7MeasRefINS_10MFrequencyEE7setTypeEj@Base 3.2.1-1kern1
 _ZN8casacore7MeasRefINS_10MFrequencyEE8getFrameEv@Base 3.2.1-1kern1
 _ZN8casacore7MeasRefINS_10MFrequencyEEC1Ej@Base 3.2.1-1kern1
 _ZN8casacore7MeasRefINS_10MFrequencyEEC1EjRKNS_9MeasFrameE@Base 3.2.1-1kern1
 _ZN8casacore7MeasRefINS_10MFrequencyEEC2Ej@Base 3.2.1-1kern1
 _ZN8casacore7MeasRefINS_10MFrequencyEEC2EjRKNS_9MeasFrameE@Base 3.2.1-1kern1
 _ZN8casacore7MeasRefINS_10MFrequencyEED0Ev@Base 3.2.1-1kern1
 _ZN8casacore7MeasRefINS_10MFrequencyEED1Ev@Base 3.2.1-1kern1
 _ZN8casacore7MeasRefINS_10MFrequencyEED2Ev@Base 3.2.1-1kern1
 _ZN8casacore7MeasRefINS_15MRadialVelocityEE3setERKNS_7MeasureE@Base 3.2.1-1kern1
 _ZN8casacore7MeasRefINS_15MRadialVelocityEE3setERKNS_9MeasFrameE@Base 3.2.1-1kern1
 _ZN8casacore7MeasRefINS_15MRadialVelocityEE3setEj@Base 3.2.1-1kern1
 _ZN8casacore7MeasRefINS_15MRadialVelocityEE6createEv@Base 3.2.1-1kern1
 _ZN8casacore7MeasRefINS_15MRadialVelocityEE7setTypeEj@Base 3.2.1-1kern1
 _ZN8casacore7MeasRefINS_15MRadialVelocityEE8getFrameEv@Base 3.2.1-1kern1
 _ZN8casacore7MeasRefINS_15MRadialVelocityEEC1Ej@Base 3.2.1-1kern1
 _ZN8casacore7MeasRefINS_15MRadialVelocityEEC1EjRKNS_9MeasFrameE@Base 3.2.1-1kern1
 _ZN8casacore7MeasRefINS_15MRadialVelocityEEC2Ej@Base 3.2.1-1kern1
 _ZN8casacore7MeasRefINS_15MRadialVelocityEEC2EjRKNS_9MeasFrameE@Base 3.2.1-1kern1
 _ZN8casacore7MeasRefINS_15MRadialVelocityEED0Ev@Base 3.2.1-1kern1
 _ZN8casacore7MeasRefINS_15MRadialVelocityEED1Ev@Base 3.2.1-1kern1
 _ZN8casacore7MeasRefINS_15MRadialVelocityEED2Ev@Base 3.2.1-1kern1
 _ZN8casacore7MeasRefINS_4MuvwEE3setERKNS_9MeasFrameE@Base 3.2.1-1kern1
 _ZN8casacore7MeasRefINS_4MuvwEE3setEj@Base 3.2.1-1kern1
 _ZN8casacore7MeasRefINS_4MuvwEE6createEv@Base 3.2.1-1kern1
 _ZN8casacore7MeasRefINS_4MuvwEE7setTypeEj@Base 3.2.1-1kern1
 _ZN8casacore7MeasRefINS_4MuvwEE8getFrameEv@Base 3.2.1-1kern1
 _ZN8casacore7MeasRefINS_4MuvwEEC1Ej@Base 3.2.1-1kern1
 _ZN8casacore7MeasRefINS_4MuvwEEC1EjRKNS_9MeasFrameE@Base 3.2.1-1kern1
 _ZN8casacore7MeasRefINS_4MuvwEEC2Ej@Base 3.2.1-1kern1
 _ZN8casacore7MeasRefINS_4MuvwEEC2EjRKNS_9MeasFrameE@Base 3.2.1-1kern1
 _ZN8casacore7MeasRefINS_4MuvwEED0Ev@Base 3.2.1-1kern1
 _ZN8casacore7MeasRefINS_4MuvwEED1Ev@Base 3.2.1-1kern1
 _ZN8casacore7MeasRefINS_4MuvwEED2Ev@Base 3.2.1-1kern1
 _ZN8casacore7MeasRefINS_6MEpochEE3setERKNS_7MeasureE@Base 3.2.1-1kern1
 _ZN8casacore7MeasRefINS_6MEpochEE3setERKNS_9MeasFrameE@Base 3.2.1-1kern1
 _ZN8casacore7MeasRefINS_6MEpochEE3setERKS1_@Base 3.2.1-1kern1
 _ZN8casacore7MeasRefINS_6MEpochEE3setEj@Base 3.2.1-1kern1
 _ZN8casacore7MeasRefINS_6MEpochEE6createEv@Base 3.2.1-1kern1
 _ZN8casacore7MeasRefINS_6MEpochEE7setTypeEj@Base 3.2.1-1kern1
 _ZN8casacore7MeasRefINS_6MEpochEE8getFrameEv@Base 3.2.1-1kern1
 _ZN8casacore7MeasRefINS_6MEpochEEC1Ej@Base 3.2.1-1kern1
 _ZN8casacore7MeasRefINS_6MEpochEEC1EjRKNS_9MeasFrameE@Base 3.2.1-1kern1
 _ZN8casacore7MeasRefINS_6MEpochEEC2Ej@Base 3.2.1-1kern1
 _ZN8casacore7MeasRefINS_6MEpochEEC2EjRKNS_9MeasFrameE@Base 3.2.1-1kern1
 _ZN8casacore7MeasRefINS_6MEpochEED0Ev@Base 3.2.1-1kern1
 _ZN8casacore7MeasRefINS_6MEpochEED1Ev@Base 3.2.1-1kern1
 _ZN8casacore7MeasRefINS_6MEpochEED2Ev@Base 3.2.1-1kern1
 _ZN8casacore7MeasRefINS_8MDopplerEE3setERKNS_9MeasFrameE@Base 3.2.1-1kern1
 _ZN8casacore7MeasRefINS_8MDopplerEE3setEj@Base 3.2.1-1kern1
 _ZN8casacore7MeasRefINS_8MDopplerEE6createEv@Base 3.2.1-1kern1
 _ZN8casacore7MeasRefINS_8MDopplerEE7setTypeEj@Base 3.2.1-1kern1
 _ZN8casacore7MeasRefINS_8MDopplerEE8getFrameEv@Base 3.2.1-1kern1
 _ZN8casacore7MeasRefINS_8MDopplerEEC1Ej@Base 3.2.1-1kern1
 _ZN8casacore7MeasRefINS_8MDopplerEEC2Ej@Base 3.2.1-1kern1
 _ZN8casacore7MeasRefINS_8MDopplerEED0Ev@Base 3.2.1-1kern1
 _ZN8casacore7MeasRefINS_8MDopplerEED1Ev@Base 3.2.1-1kern1
 _ZN8casacore7MeasRefINS_8MDopplerEED2Ev@Base 3.2.1-1kern1
 _ZN8casacore7MeasRefINS_9MBaselineEE3setERKNS_9MeasFrameE@Base 3.2.1-1kern1
 _ZN8casacore7MeasRefINS_9MBaselineEE3setEj@Base 3.2.1-1kern1
 _ZN8casacore7MeasRefINS_9MBaselineEE6createEv@Base 3.2.1-1kern1
 _ZN8casacore7MeasRefINS_9MBaselineEE7setTypeEj@Base 3.2.1-1kern1
 _ZN8casacore7MeasRefINS_9MBaselineEE8getFrameEv@Base 3.2.1-1kern1
 _ZN8casacore7MeasRefINS_9MBaselineEEC1Ej@Base 3.2.1-1kern1
 _ZN8casacore7MeasRefINS_9MBaselineEEC1EjRKNS_9MeasFrameE@Base 3.2.1-1kern1
 _ZN8casacore7MeasRefINS_9MBaselineEEC2Ej@Base 3.2.1-1kern1
 _ZN8casacore7MeasRefINS_9MBaselineEEC2EjRKNS_9MeasFrameE@Base 3.2.1-1kern1
 _ZN8casacore7MeasRefINS_9MBaselineEED0Ev@Base 3.2.1-1kern1
 _ZN8casacore7MeasRefINS_9MBaselineEED1Ev@Base 3.2.1-1kern1
 _ZN8casacore7MeasRefINS_9MBaselineEED2Ev@Base 3.2.1-1kern1
 _ZN8casacore7MeasRefINS_9MPositionEE3setERKNS_7MeasureE@Base 3.2.1-1kern1
 _ZN8casacore7MeasRefINS_9MPositionEE3setERKNS_9MeasFrameE@Base 3.2.1-1kern1
 _ZN8casacore7MeasRefINS_9MPositionEE3setEj@Base 3.2.1-1kern1
 _ZN8casacore7MeasRefINS_9MPositionEE6createEv@Base 3.2.1-1kern1
 _ZN8casacore7MeasRefINS_9MPositionEE7setTypeEj@Base 3.2.1-1kern1
 _ZN8casacore7MeasRefINS_9MPositionEE8getFrameEv@Base 3.2.1-1kern1
 _ZN8casacore7MeasRefINS_9MPositionEEC1Ej@Base 3.2.1-1kern1
 _ZN8casacore7MeasRefINS_9MPositionEEC1EjRKNS_9MeasFrameE@Base 3.2.1-1kern1
 _ZN8casacore7MeasRefINS_9MPositionEEC2Ej@Base 3.2.1-1kern1
 _ZN8casacore7MeasRefINS_9MPositionEEC2EjRKNS_9MeasFrameE@Base 3.2.1-1kern1
 _ZN8casacore7MeasRefINS_9MPositionEED0Ev@Base 3.2.1-1kern1
 _ZN8casacore7MeasRefINS_9MPositionEED1Ev@Base 3.2.1-1kern1
 _ZN8casacore7MeasRefINS_9MPositionEED2Ev@Base 3.2.1-1kern1
 _ZN8casacore7QVectorIdE5scaleEd@Base 3.2.1-1kern1
 _ZN8casacore7QVectorIdEC1ERKNS_6VectorINS_7QuantumIdEEEE@Base 3.2.1-1kern1
 _ZN8casacore7QVectorIdEC2ERKNS_6VectorINS_7QuantumIdEEEE@Base 3.2.1-1kern1
 _ZN8casacore7QVectorIdED0Ev@Base 3.2.1-1kern1
 _ZN8casacore7QVectorIdED1Ev@Base 3.2.1-1kern1
 _ZN8casacore7QVectorIdED2Ev@Base 3.2.1-1kern1
 _ZN8casacore7QuantumINS_6VectorIdEEE7convertERKNS_4UnitE@Base 3.2.1-1kern1
 _ZN8casacore7QuantumINS_6VectorIdEEEC1ERKS2_RKNS_4UnitE@Base 3.2.1-1kern1
 _ZN8casacore7QuantumINS_6VectorIdEEEC1ERKS3_@Base 3.2.1-1kern1
 _ZN8casacore7QuantumINS_6VectorIdEEEC1Ev@Base 3.2.1-1kern1
 _ZN8casacore7QuantumINS_6VectorIdEEEC2ERKS2_RKNS_4UnitE@Base 3.2.1-1kern1
 _ZN8casacore7QuantumINS_6VectorIdEEEC2ERKS3_@Base 3.2.1-1kern1
 _ZN8casacore7QuantumINS_6VectorIdEEEC2Ev@Base 3.2.1-1kern1
 _ZN8casacore7QuantumINS_6VectorIdEEED0Ev@Base 3.2.1-1kern1
 _ZN8casacore7QuantumINS_6VectorIdEEED1Ev@Base 3.2.1-1kern1
 _ZN8casacore7QuantumINS_6VectorIdEEED2Ev@Base 3.2.1-1kern1
 _ZN8casacore7QuantumINS_6VectorIdEEEaSERKS3_@Base 3.2.1-1kern1
 _ZN8casacore7assert_INS_10ArrayErrorEEC1EiPKcS4_i@Base 3.2.1-1kern1
 _ZN8casacore7assert_INS_10ArrayErrorEEC2EiPKcS4_i@Base 3.2.1-1kern1
 _ZN8casacore7assert_INS_9AipsErrorEEC1EPKvPKcS6_i@Base 3.2.1-1kern1
 _ZN8casacore7assert_INS_9AipsErrorEEC1EiPKcS4_i@Base 3.2.1-1kern1
 _ZN8casacore7assert_INS_9AipsErrorEEC2EPKvPKcS6_i@Base 3.2.1-1kern1
 _ZN8casacore7assert_INS_9AipsErrorEEC2EiPKcS4_i@Base 3.2.1-1kern1
 _ZN8casacore7objcopyINS_10MDirectionEEEvPT_PKS2_m@Base 3.2.1-1kern1
 _ZN8casacore7objcopyINS_10MDirectionEEEvPT_PKS2_mmm@Base 3.2.1-1kern1
 _ZN8casacore7objcopyINS_10MFrequencyEEEvPT_PKS2_m@Base 3.2.1-1kern1
 _ZN8casacore7objcopyINS_10MFrequencyEEEvPT_PKS2_mmm@Base 3.2.1-1kern1
 _ZN8casacore7objcopyINS_11RigidVectorIdLi2EEEEEvPT_PKS3_m@Base 3.2.1-1kern1
 _ZN8casacore7objcopyINS_11RigidVectorIdLi2EEEEEvPT_PKS3_mmm@Base 3.2.1-1kern1
 _ZN8casacore7objcopyINS_12SquareMatrixISt7complexIfELi2EEEEEvPT_PKS5_m@Base 3.2.1-1kern1
 _ZN8casacore7objcopyINS_12SquareMatrixISt7complexIfELi2EEEEEvPT_PKS5_mmm@Base 3.2.1-1kern1
 _ZN8casacore7objcopyINS_4UnitEEEvPT_PKS2_m@Base 3.2.1-1kern1
 _ZN8casacore7objcopyINS_4UnitEEEvPT_PKS2_mmm@Base 3.2.1-1kern1
 _ZN8casacore7objcopyINS_5SliceEEEvPT_PKS2_m@Base 3.2.1-1kern1
 _ZN8casacore7objcopyINS_5SliceEEEvPT_PKS2_mmm@Base 3.2.1-1kern1
 _ZN8casacore7objcopyINS_6Stokes11StokesTypesEEEvPT_PKS3_m@Base 3.2.1-1kern1
 _ZN8casacore7objcopyINS_6Stokes11StokesTypesEEEvPT_PKS3_mmm@Base 3.2.1-1kern1
 _ZN8casacore7objcopyINS_6VectorIiEEEEvPT_PKS3_m@Base 3.2.1-1kern1
 _ZN8casacore7objcopyINS_6VectorIiEEEEvPT_PKS3_mmm@Base 3.2.1-1kern1
 _ZN8casacore7objcopyINS_7QuantumIdEEEEvPT_PKS3_m@Base 3.2.1-1kern1
 _ZN8casacore7objcopyINS_7QuantumIdEEEEvPT_PKS3_mmm@Base 3.2.1-1kern1
 _ZN8casacore7objcopyINS_9MPositionEEEvPT_PKS2_m@Base 3.2.1-1kern1
 _ZN8casacore7objcopyINS_9MPositionEEEvPT_PKS2_mmm@Base 3.2.1-1kern1
 _ZN8casacore7objcopyIPNS_9MeasCometEEEvPT_PKS3_m@Base 3.2.1-1kern1
 _ZN8casacore7objcopyIPNS_9MeasCometEEEvPT_PKS3_mmm@Base 3.2.1-1kern1
 _ZN8casacore7objcopyIfEEvPT_PKS1_m@Base 3.2.1-1kern1
 _ZN8casacore7objcopyIiEEvPT_PKS1_m@Base 3.2.1-1kern1
 _ZN8casacore7objcopyIjEEvPT_PKS1_m@Base 3.2.1-1kern1
 _ZN8casacore7productISt7complexIfEEENS_6MatrixIT_EERKS5_S7_@Base 3.2.1-1kern1
 _ZN8casacore8MSConcat10copySourceERKNS_14MeasurementSetE@Base 3.2.1-1kern1
 _ZN8casacore8MSConcat10copySysCalERKNS_8MSSysCalERKNS_5BlockIjEE@Base 3.2.1-1kern1
 _ZN8casacore8MSConcat11concatenateERKNS_14MeasurementSetEjRKNS_6StringE@Base 3.2.1-1kern1
 _ZN8casacore8MSConcat11copyWeatherERKNS_9MSWeatherERKNS_5BlockIjEE@Base 3.2.1-1kern1
 _ZN8casacore8MSConcat12copyPointingERKNS_10MSPointingERKNS_5BlockIjEE@Base 3.2.1-1kern1
 _ZN8casacore8MSConcat12isFixedShapeERKNS_9TableDescE@Base 3.2.1-1kern1
 _ZN8casacore8MSConcat12setToleranceERNS_7QuantumIdEES3_@Base 3.2.1-1kern1
 _ZN8casacore8MSConcat12updateSourceEv@Base 3.2.1-1kern1
 _ZN8casacore8MSConcat13copyPointingBERNS_10MSPointingERKNS_5BlockIjEE@Base 3.2.1-1kern1
 _ZN8casacore8MSConcat13copySpwAndPolERKNS_16MSSpectralWindowERKNS_14MSPolarizationERKNS_17MSDataDescriptionE@Base 3.2.1-1kern1
 _ZN8casacore8MSConcat13updateSource2Ev@Base 3.2.1-1kern1
 _ZN8casacore8MSConcat13virtualconcatERNS_14MeasurementSetEbRKNS_6StringE@Base 3.2.1-1kern1
 _ZN8casacore8MSConcat14setWeightScaleEf@Base 3.2.1-1kern1
 _ZN8casacore8MSConcat15copyObservationERKNS_13MSObservationEb@Base 3.2.1-1kern1
 _ZN8casacore8MSConcat17obsRowsEquivalentERKNS_20MSObservationColumnsERKjS5_@Base 3.2.1-1kern1
 _ZN8casacore8MSConcat18copyAntennaAndFeedERKNS_9MSAntennaERKNS_6MSFeedE@Base 3.2.1-1kern1
 _ZN8casacore8MSConcat20sourceRowsEquivalentERKNS_15MSSourceColumnsERKjS5_bb@Base 3.2.1-1kern1
 _ZN8casacore8MSConcat22setRespectForFieldNameEb@Base 3.2.1-1kern1
 _ZN8casacore8MSConcat23updateModelDataKeywordsERNS_14MeasurementSetE@Base 3.2.1-1kern1
 _ZN8casacore8MSConcat8getShapeERKNS_17MSDataDescColumnsERKNS_17MSSpWindowColumnsERKNS_21MSPolarizationColumnsEj@Base 3.2.1-1kern1
 _ZN8casacore8MSConcat9copyFieldERKNS_14MeasurementSetE@Base 3.2.1-1kern1
 _ZN8casacore8MSConcat9copyStateERKNS_7MSStateE@Base 3.2.1-1kern1
 _ZN8casacore8MSConcatC1ERNS_14MeasurementSetE@Base 3.2.1-1kern1
 _ZN8casacore8MSConcatC2ERNS_14MeasurementSetE@Base 3.2.1-1kern1
 _ZN8casacore8MSLister10clearFlagsEv@Base 3.2.1-1kern1
 _ZN8casacore8MSLister10listHeaderEv@Base 3.2.1-1kern1
 _ZN8casacore8MSLister11columnWidthENS_6VectorINS_6StringEEE@Base 3.2.1-1kern1
 _ZN8casacore8MSLister12setPrecisionEiiiii@Base 3.2.1-1kern1
 _ZN8casacore8MSLister16listColumnHeaderERSo@Base 3.2.1-1kern1
 _ZN8casacore8MSLister17polarizationParseENS_6StringE@Base 3.2.1-1kern1
 _ZN8casacore8MSLister18_polarizationSetupEj@Base 3.2.1-1kern1
 _ZN8casacore8MSLister4listERKNS_6StringES3_S3_S3_S3_S3_S3_S3_S3_S3_S3_S3_S3_bS3_lS3_@Base 3.2.1-1kern1
 _ZN8casacore8MSLister5setMSERNS_14MeasurementSetE@Base 3.2.1-1kern1
 _ZN8casacore8MSLister8initListEv@Base 3.2.1-1kern1
 _ZN8casacore8MSLister8listDataEiNS_6StringE@Base 3.2.1-1kern1
 _ZN8casacore8MSLister8setNewOSERNS_5LogIOE@Base 3.2.1-1kern1
 _ZN8casacore8MSLister9getRangesERKNS_14MeasurementSetE@Base 3.2.1-1kern1
 _ZN8casacore8MSLister9selectvisERKNS_6StringES3_S3_S3_S3_S3_S3_RKiS5_S5_RKNS_15MRadialVelocityES8_S3_S3_S3_S3_@Base 3.2.1-1kern1
 _ZN8casacore8MSLister9setFormatEj@Base 3.2.1-1kern1
 _ZN8casacore8MSListerC1ERKNS_14MeasurementSetERNS_5LogIOE@Base 3.2.1-1kern1
 _ZN8casacore8MSListerC1Ev@Base 3.2.1-1kern1
 _ZN8casacore8MSListerC2ERKNS_14MeasurementSetERNS_5LogIOE@Base 3.2.1-1kern1
 _ZN8casacore8MSListerC2Ev@Base 3.2.1-1kern1
 _ZN8casacore8MSListerD1Ev@Base 3.2.1-1kern1
 _ZN8casacore8MSListerD2Ev@Base 3.2.1-1kern1
 _ZN8casacore8MSListeraSERS0_@Base 3.2.1-1kern1
 _ZN8casacore8MSReader7gotoRowEj@Base 3.2.1-1kern1
 _ZN8casacore8MSReaderC1ERKNS_14MeasurementSetE@Base 3.2.1-1kern1
 _ZN8casacore8MSReaderC2ERKNS_14MeasurementSetE@Base 3.2.1-1kern1
 _ZN8casacore8MSSource8initMapsEv@Base 3.2.1-1kern1
 _ZN8casacore8MSSourceC1ERKNS_5TableE@Base 3.2.1-1kern1
 _ZN8casacore8MSSourceC1ERKNS_6StringENS_5Table11TableOptionE@Base 3.2.1-1kern1
 _ZN8casacore8MSSourceC1ERKNS_6StringES3_NS_5Table11TableOptionE@Base 3.2.1-1kern1
 _ZN8casacore8MSSourceC1ERKS0_@Base 3.2.1-1kern1
 _ZN8casacore8MSSourceC1ERNS_13SetupNewTableEjb@Base 3.2.1-1kern1
 _ZN8casacore8MSSourceC1Ev@Base 3.2.1-1kern1
 _ZN8casacore8MSSourceC2ERKNS_5TableE@Base 3.2.1-1kern1
 _ZN8casacore8MSSourceC2ERKNS_6StringENS_5Table11TableOptionE@Base 3.2.1-1kern1
 _ZN8casacore8MSSourceC2ERKNS_6StringES3_NS_5Table11TableOptionE@Base 3.2.1-1kern1
 _ZN8casacore8MSSourceC2ERKS0_@Base 3.2.1-1kern1
 _ZN8casacore8MSSourceC2ERNS_13SetupNewTableEjb@Base 3.2.1-1kern1
 _ZN8casacore8MSSourceC2Ev@Base 3.2.1-1kern1
 _ZN8casacore8MSSourceD0Ev@Base 3.2.1-1kern1
 _ZN8casacore8MSSourceD1Ev@Base 3.2.1-1kern1
 _ZN8casacore8MSSourceD2Ev@Base 3.2.1-1kern1
 _ZN8casacore8MSSourceaSERKS0_@Base 3.2.1-1kern1
 _ZN8casacore8MSSysCal8initMapsEv@Base 3.2.1-1kern1
 _ZN8casacore8MSSysCalC1ERKNS_5TableE@Base 3.2.1-1kern1
 _ZN8casacore8MSSysCalC1ERKNS_6StringENS_5Table11TableOptionE@Base 3.2.1-1kern1
 _ZN8casacore8MSSysCalC1ERKNS_6StringES3_NS_5Table11TableOptionE@Base 3.2.1-1kern1
 _ZN8casacore8MSSysCalC1ERKS0_@Base 3.2.1-1kern1
 _ZN8casacore8MSSysCalC1ERNS_13SetupNewTableEjb@Base 3.2.1-1kern1
 _ZN8casacore8MSSysCalC1Ev@Base 3.2.1-1kern1
 _ZN8casacore8MSSysCalC2ERKNS_5TableE@Base 3.2.1-1kern1
 _ZN8casacore8MSSysCalC2ERKNS_6StringENS_5Table11TableOptionE@Base 3.2.1-1kern1
 _ZN8casacore8MSSysCalC2ERKNS_6StringES3_NS_5Table11TableOptionE@Base 3.2.1-1kern1
 _ZN8casacore8MSSysCalC2ERKS0_@Base 3.2.1-1kern1
 _ZN8casacore8MSSysCalC2ERNS_13SetupNewTableEjb@Base 3.2.1-1kern1
 _ZN8casacore8MSSysCalC2Ev@Base 3.2.1-1kern1
 _ZN8casacore8MSSysCalD0Ev@Base 3.2.1-1kern1
 _ZN8casacore8MSSysCalD1Ev@Base 3.2.1-1kern1
 _ZN8casacore8MSSysCalD2Ev@Base 3.2.1-1kern1
 _ZN8casacore8MSSysCalaSERKS0_@Base 3.2.1-1kern1
 _ZN8casacore8MeasBaseINS_11MVDirectionENS_7MeasRefINS_10MDirectionEEEE3setERKNS_9MeasValueE@Base 3.2.1-1kern1
 _ZN8casacore8MeasBaseINS_11MVDirectionENS_7MeasRefINS_10MDirectionEEEE3setERKS1_RKS4_@Base 3.2.1-1kern1
 _ZN8casacore8MeasBaseINS_11MVDirectionENS_7MeasRefINS_10MDirectionEEEE5clearEv@Base 3.2.1-1kern1
 _ZN8casacore8MeasBaseINS_11MVDirectionENS_7MeasRefINS_10MDirectionEEEE8putValueERKNS_6VectorINS_7QuantumIdEEEE@Base 3.2.1-1kern1
 _ZN8casacore8MeasBaseINS_11MVDirectionENS_7MeasRefINS_10MDirectionEEEEC1ERKS5_@Base 3.2.1-1kern1
 _ZN8casacore8MeasBaseINS_11MVDirectionENS_7MeasRefINS_10MDirectionEEEEC2ERKS5_@Base 3.2.1-1kern1
 _ZN8casacore8MeasBaseINS_11MVFrequencyENS_7MeasRefINS_10MFrequencyEEEE3setERKNS_9MeasValueE@Base 3.2.1-1kern1
 _ZN8casacore8MeasBaseINS_11MVFrequencyENS_7MeasRefINS_10MFrequencyEEEE3setERKS1_RKS4_@Base 3.2.1-1kern1
 _ZN8casacore8MeasBaseINS_11MVFrequencyENS_7MeasRefINS_10MFrequencyEEEE5clearEv@Base 3.2.1-1kern1
 _ZN8casacore8MeasBaseINS_11MVFrequencyENS_7MeasRefINS_10MFrequencyEEEE8putValueERKNS_6VectorINS_7QuantumIdEEEE@Base 3.2.1-1kern1
 _ZN8casacore8MeasBaseINS_11MVFrequencyENS_7MeasRefINS_10MFrequencyEEEEC1ERKS5_@Base 3.2.1-1kern1
 _ZN8casacore8MeasBaseINS_11MVFrequencyENS_7MeasRefINS_10MFrequencyEEEEC2ERKS5_@Base 3.2.1-1kern1
 _ZN8casacore8MeasBaseINS_16MVRadialVelocityENS_7MeasRefINS_15MRadialVelocityEEEE3setERKNS_9MeasValueE@Base 3.2.1-1kern1
 _ZN8casacore8MeasBaseINS_16MVRadialVelocityENS_7MeasRefINS_15MRadialVelocityEEEE5clearEv@Base 3.2.1-1kern1
 _ZN8casacore8MeasBaseINS_16MVRadialVelocityENS_7MeasRefINS_15MRadialVelocityEEEE8putValueERKNS_6VectorINS_7QuantumIdEEEE@Base 3.2.1-1kern1
 _ZN8casacore8MeasBaseINS_16MVRadialVelocityENS_7MeasRefINS_15MRadialVelocityEEEEC1ERKS5_@Base 3.2.1-1kern1
 _ZN8casacore8MeasBaseINS_16MVRadialVelocityENS_7MeasRefINS_15MRadialVelocityEEEEC2ERKS5_@Base 3.2.1-1kern1
 _ZN8casacore8MeasBaseINS_7MVEpochENS_7MeasRefINS_6MEpochEEEE3setERKNS_9MeasValueE@Base 3.2.1-1kern1
 _ZN8casacore8MeasBaseINS_7MVEpochENS_7MeasRefINS_6MEpochEEEE5clearEv@Base 3.2.1-1kern1
 _ZN8casacore8MeasBaseINS_7MVEpochENS_7MeasRefINS_6MEpochEEEE8putValueERKNS_6VectorINS_7QuantumIdEEEE@Base 3.2.1-1kern1
 _ZN8casacore8MeasBaseINS_7MVEpochENS_7MeasRefINS_6MEpochEEEEC1ERKS5_@Base 3.2.1-1kern1
 _ZN8casacore8MeasBaseINS_7MVEpochENS_7MeasRefINS_6MEpochEEEEC2ERKS5_@Base 3.2.1-1kern1
 _ZN8casacore8scanKeysERKSt3setIiSt4lessIiESaIiEERKNS_8ArrayKeyE@Base 3.2.1-1kern1
 _ZN8casacore8toRecordIdEENS_6RecordERKNS_9StatsDataIT_EE@Base 3.2.1-1kern1
 _ZN8casacore8toStringERKNS_10SubScanKeyE@Base 3.2.1-1kern1
 _ZN8casacore8toStringERKNS_7ScanKeyE@Base 3.2.1-1kern1
 _ZN8casacore8tokenizeERKNS_6StringES2_RNS_6VectorIS0_EEb@Base 3.2.1-1kern1
 _ZN8casacore9MSAntenna8initMapsEv@Base 3.2.1-1kern1
 _ZN8casacore9MSAntennaC1ERKNS_5TableE@Base 3.2.1-1kern1
 _ZN8casacore9MSAntennaC1ERKNS_6StringENS_5Table11TableOptionE@Base 3.2.1-1kern1
 _ZN8casacore9MSAntennaC1ERKNS_6StringES3_NS_5Table11TableOptionE@Base 3.2.1-1kern1
 _ZN8casacore9MSAntennaC1ERKS0_@Base 3.2.1-1kern1
 _ZN8casacore9MSAntennaC1ERNS_13SetupNewTableEjb@Base 3.2.1-1kern1
 _ZN8casacore9MSAntennaC1Ev@Base 3.2.1-1kern1
 _ZN8casacore9MSAntennaC2ERKNS_5TableE@Base 3.2.1-1kern1
 _ZN8casacore9MSAntennaC2ERKNS_6StringENS_5Table11TableOptionE@Base 3.2.1-1kern1
 _ZN8casacore9MSAntennaC2ERKNS_6StringES3_NS_5Table11TableOptionE@Base 3.2.1-1kern1
 _ZN8casacore9MSAntennaC2ERKS0_@Base 3.2.1-1kern1
 _ZN8casacore9MSAntennaC2ERNS_13SetupNewTableEjb@Base 3.2.1-1kern1
 _ZN8casacore9MSAntennaC2Ev@Base 3.2.1-1kern1
 _ZN8casacore9MSAntennaD0Ev@Base 3.2.1-1kern1
 _ZN8casacore9MSAntennaD1Ev@Base 3.2.1-1kern1
 _ZN8casacore9MSAntennaD2Ev@Base 3.2.1-1kern1
 _ZN8casacore9MSAntennaaSERKS0_@Base 3.2.1-1kern1
 _ZN8casacore9MSColumns11setEpochRefENS_6MEpoch5TypesEb@Base 3.2.1-1kern1
 _ZN8casacore9MSColumns15setDirectionRefENS_10MDirection5TypesE@Base 3.2.1-1kern1
 _ZN8casacore9MSColumnsC1ERKNS_14MeasurementSetE@Base 3.2.1-1kern1
 _ZN8casacore9MSColumnsC2ERKNS_14MeasurementSetE@Base 3.2.1-1kern1
 _ZN8casacore9MSColumnsD1Ev@Base 3.2.1-1kern1
 _ZN8casacore9MSColumnsD2Ev@Base 3.2.1-1kern1
 _ZN8casacore9MSDoppler8initMapsEv@Base 3.2.1-1kern1
 _ZN8casacore9MSDoppler9addVelDefEv@Base 3.2.1-1kern1
 _ZN8casacore9MSDopplerC1ERKNS_5TableE@Base 3.2.1-1kern1
 _ZN8casacore9MSDopplerC1ERKNS_6StringENS_5Table11TableOptionE@Base 3.2.1-1kern1
 _ZN8casacore9MSDopplerC1ERKNS_6StringES3_NS_5Table11TableOptionE@Base 3.2.1-1kern1
 _ZN8casacore9MSDopplerC1ERKS0_@Base 3.2.1-1kern1
 _ZN8casacore9MSDopplerC1ERNS_13SetupNewTableEjb@Base 3.2.1-1kern1
 _ZN8casacore9MSDopplerC1Ev@Base 3.2.1-1kern1
 _ZN8casacore9MSDopplerC2ERKNS_5TableE@Base 3.2.1-1kern1
 _ZN8casacore9MSDopplerC2ERKNS_6StringENS_5Table11TableOptionE@Base 3.2.1-1kern1
 _ZN8casacore9MSDopplerC2ERKNS_6StringES3_NS_5Table11TableOptionE@Base 3.2.1-1kern1
 _ZN8casacore9MSDopplerC2ERKS0_@Base 3.2.1-1kern1
 _ZN8casacore9MSDopplerC2ERNS_13SetupNewTableEjb@Base 3.2.1-1kern1
 _ZN8casacore9MSDopplerC2Ev@Base 3.2.1-1kern1
 _ZN8casacore9MSDopplerD0Ev@Base 3.2.1-1kern1
 _ZN8casacore9MSDopplerD1Ev@Base 3.2.1-1kern1
 _ZN8casacore9MSDopplerD2Ev@Base 3.2.1-1kern1
 _ZN8casacore9MSDoppleraSERKS0_@Base 3.2.1-1kern1
 _ZN8casacore9MSFlagCmd8initMapsEv@Base 3.2.1-1kern1
 _ZN8casacore9MSFlagCmdC1ERKNS_5TableE@Base 3.2.1-1kern1
 _ZN8casacore9MSFlagCmdC1ERKNS_6StringENS_5Table11TableOptionE@Base 3.2.1-1kern1
 _ZN8casacore9MSFlagCmdC1ERKNS_6StringES3_NS_5Table11TableOptionE@Base 3.2.1-1kern1
 _ZN8casacore9MSFlagCmdC1ERKS0_@Base 3.2.1-1kern1
 _ZN8casacore9MSFlagCmdC1ERNS_13SetupNewTableEjb@Base 3.2.1-1kern1
 _ZN8casacore9MSFlagCmdC1Ev@Base 3.2.1-1kern1
 _ZN8casacore9MSFlagCmdC2ERKNS_5TableE@Base 3.2.1-1kern1
 _ZN8casacore9MSFlagCmdC2ERKNS_6StringENS_5Table11TableOptionE@Base 3.2.1-1kern1
 _ZN8casacore9MSFlagCmdC2ERKNS_6StringES3_NS_5Table11TableOptionE@Base 3.2.1-1kern1
 _ZN8casacore9MSFlagCmdC2ERKS0_@Base 3.2.1-1kern1
 _ZN8casacore9MSFlagCmdC2ERNS_13SetupNewTableEjb@Base 3.2.1-1kern1
 _ZN8casacore9MSFlagCmdC2Ev@Base 3.2.1-1kern1
 _ZN8casacore9MSFlagCmdD0Ev@Base 3.2.1-1kern1
 _ZN8casacore9MSFlagCmdD1Ev@Base 3.2.1-1kern1
 _ZN8casacore9MSFlagCmdD2Ev@Base 3.2.1-1kern1
 _ZN8casacore9MSFlagCmdaSERKS0_@Base 3.2.1-1kern1
 _ZN8casacore9MSFlagger10diffMedianERNS_5ArrayIfEERKS2_iRKNS1_IbEE@Base 3.2.1-1kern1
 _ZN8casacore9MSFlagger12fillFlagHistEiiiRNS_5TableE@Base 3.2.1-1kern1
 _ZN8casacore9MSFlagger12restoreFlagsEi@Base 3.2.1-1kern1
 _ZN8casacore9MSFlagger13applyFlagHistEiRNS_5TableE@Base 3.2.1-1kern1
 _ZN8casacore9MSFlagger13applyRowFlagsERNS_5ArrayIbEES3_@Base 3.2.1-1kern1
 _ZN8casacore9MSFlagger13setMSSelectorERNS_10MSSelectorE@Base 3.2.1-1kern1
 _ZN8casacore9MSFlagger14clipDataBufferEfff@Base 3.2.1-1kern1
 _ZN8casacore9MSFlagger14diffDataBufferERKNS_6StringEib@Base 3.2.1-1kern1
 _ZN8casacore9MSFlagger14fillDataBufferERKNS_6StringEb@Base 3.2.1-1kern1
 _ZN8casacore9MSFlagger14saveToFlagHistEiRNS_5TableE@Base 3.2.1-1kern1
 _ZN8casacore9MSFlagger15findHypercubeIdERNS_6StringERKS1_RKNS_5TableE@Base 3.2.1-1kern1
 _ZN8casacore9MSFlagger17createFlagHistoryEi@Base 3.2.1-1kern1
 _ZN8casacore9MSFlagger18setDataBufferFlagsERKNS_6RecordE@Base 3.2.1-1kern1
 _ZN8casacore9MSFlagger20writeDataBufferFlagsEv@Base 3.2.1-1kern1
 _ZN8casacore9MSFlagger5checkEv@Base 3.2.1-1kern1
 _ZN8casacore9MSFlagger8addStatsERNS_6RecordERKNS_5ArrayIbEES4_RKNS3_IfEE@Base 3.2.1-1kern1
 _ZN8casacore9MSFlagger8getStatsERNS_5ArrayIfEES3_S3_S3_S3_S3_S3_S3_RKS2_RKNS1_IbEES8_@Base 3.2.1-1kern1
 _ZN8casacore9MSFlagger9flagLevelEv@Base 3.2.1-1kern1
 _ZN8casacore9MSFlagger9saveFlagsEb@Base 3.2.1-1kern1
 _ZN8casacore9MSFlaggerC1ERNS_10MSSelectorE@Base 3.2.1-1kern1
 _ZN8casacore9MSFlaggerC1Ev@Base 3.2.1-1kern1
 _ZN8casacore9MSFlaggerC2ERNS_10MSSelectorE@Base 3.2.1-1kern1
 _ZN8casacore9MSFlaggerC2Ev@Base 3.2.1-1kern1
 _ZN8casacore9MSFlaggerD1Ev@Base 3.2.1-1kern1
 _ZN8casacore9MSFlaggerD2Ev@Base 3.2.1-1kern1
 _ZN8casacore9MSFlaggeraSERKS0_@Base 3.2.1-1kern1
 _ZN8casacore9MSHistory8initMapsEv@Base 3.2.1-1kern1
 _ZN8casacore9MSHistoryC1ERKNS_5TableE@Base 3.2.1-1kern1
 _ZN8casacore9MSHistoryC1ERKNS_6StringENS_5Table11TableOptionE@Base 3.2.1-1kern1
 _ZN8casacore9MSHistoryC1ERKNS_6StringES3_NS_5Table11TableOptionE@Base 3.2.1-1kern1
 _ZN8casacore9MSHistoryC1ERKS0_@Base 3.2.1-1kern1
 _ZN8casacore9MSHistoryC1ERNS_13SetupNewTableEjb@Base 3.2.1-1kern1
 _ZN8casacore9MSHistoryC1Ev@Base 3.2.1-1kern1
 _ZN8casacore9MSHistoryC2ERKNS_5TableE@Base 3.2.1-1kern1
 _ZN8casacore9MSHistoryC2ERKNS_6StringENS_5Table11TableOptionE@Base 3.2.1-1kern1
 _ZN8casacore9MSHistoryC2ERKNS_6StringES3_NS_5Table11TableOptionE@Base 3.2.1-1kern1
 _ZN8casacore9MSHistoryC2ERKS0_@Base 3.2.1-1kern1
 _ZN8casacore9MSHistoryC2ERNS_13SetupNewTableEjb@Base 3.2.1-1kern1
 _ZN8casacore9MSHistoryC2Ev@Base 3.2.1-1kern1
 _ZN8casacore9MSHistoryD0Ev@Base 3.2.1-1kern1
 _ZN8casacore9MSHistoryD1Ev@Base 3.2.1-1kern1
 _ZN8casacore9MSHistoryD2Ev@Base 3.2.1-1kern1
 _ZN8casacore9MSHistoryaSERKS0_@Base 3.2.1-1kern1
 _ZN8casacore9MSSelUtilISt7complexIfEE8diffDataERKNS_5ArrayIS2_EERKNS4_IbEESA_iib@Base 3.2.1-1kern1
 _ZN8casacore9MSSelUtilIfE8diffDataERKNS_5ArrayIfEERKNS2_IbEES8_iib@Base 3.2.1-1kern1
 _ZN8casacore9MSSummary5setMSERKNS_14MeasurementSetEf@Base 3.2.1-1kern1
 _ZN8casacore9MSSummaryC1EPKNS_14MeasurementSetENS_6StringEf@Base 3.2.1-1kern1
 _ZN8casacore9MSSummaryC1EPKNS_14MeasurementSetEf@Base 3.2.1-1kern1
 _ZN8casacore9MSSummaryC1ERKNS_14MeasurementSetEf@Base 3.2.1-1kern1
 _ZN8casacore9MSSummaryC1ESt10shared_ptrINS_10MSMetaDataEE@Base 3.2.1-1kern1
 _ZN8casacore9MSSummaryC2EPKNS_14MeasurementSetENS_6StringEf@Base 3.2.1-1kern1
 _ZN8casacore9MSSummaryC2EPKNS_14MeasurementSetEf@Base 3.2.1-1kern1
 _ZN8casacore9MSSummaryC2ERKNS_14MeasurementSetEf@Base 3.2.1-1kern1
 _ZN8casacore9MSSummaryC2ESt10shared_ptrINS_10MSMetaDataEE@Base 3.2.1-1kern1
 _ZN8casacore9MSSummaryD1Ev@Base 3.2.1-1kern1
 _ZN8casacore9MSSummaryD2Ev@Base 3.2.1-1kern1
 _ZN8casacore9MSWeather8initMapsEv@Base 3.2.1-1kern1
 _ZN8casacore9MSWeatherC1ERKNS_5TableE@Base 3.2.1-1kern1
 _ZN8casacore9MSWeatherC1ERKNS_6StringENS_5Table11TableOptionE@Base 3.2.1-1kern1
 _ZN8casacore9MSWeatherC1ERKNS_6StringES3_NS_5Table11TableOptionE@Base 3.2.1-1kern1
 _ZN8casacore9MSWeatherC1ERKS0_@Base 3.2.1-1kern1
 _ZN8casacore9MSWeatherC1ERNS_13SetupNewTableEjb@Base 3.2.1-1kern1
 _ZN8casacore9MSWeatherC1Ev@Base 3.2.1-1kern1
 _ZN8casacore9MSWeatherC2ERKNS_5TableE@Base 3.2.1-1kern1
 _ZN8casacore9MSWeatherC2ERKNS_6StringENS_5Table11TableOptionE@Base 3.2.1-1kern1
 _ZN8casacore9MSWeatherC2ERKNS_6StringES3_NS_5Table11TableOptionE@Base 3.2.1-1kern1
 _ZN8casacore9MSWeatherC2ERKS0_@Base 3.2.1-1kern1
 _ZN8casacore9MSWeatherC2ERNS_13SetupNewTableEjb@Base 3.2.1-1kern1
 _ZN8casacore9MSWeatherC2Ev@Base 3.2.1-1kern1
 _ZN8casacore9MSWeatherD0Ev@Base 3.2.1-1kern1
 _ZN8casacore9MSWeatherD1Ev@Base 3.2.1-1kern1
 _ZN8casacore9MSWeatherD2Ev@Base 3.2.1-1kern1
 _ZN8casacore9MSWeatheraSERKS0_@Base 3.2.1-1kern1
 _ZN8casacore9PtrHolderINS_10CountedPtrIdEEE27delete_pointer_if_necessaryEv@Base 3.2.1-1kern1
 _ZN8casacore9PtrHolderINS_5ArrayIdE16ConstIteratorSTLEE27delete_pointer_if_necessaryEv@Base 3.2.1-1kern1
 _ZN8casacore9PtrHolderINS_9StatsDataIdEEE27delete_pointer_if_necessaryEv@Base 3.2.1-1kern1
 _ZN8casacore9PtrHolderISt4pairIPKbjEE27delete_pointer_if_necessaryEv@Base 3.2.1-1kern1
 _ZN8casacore9PtrHolderISt4pairISt6vectorIS1_IddESaIS3_EEbEE27delete_pointer_if_necessaryEv@Base 3.2.1-1kern1
 _ZN8casacore9PtrHolderISt6vectorINS_10CountedPtrIdEESaIS3_EEE27delete_pointer_if_necessaryEv@Base 3.2.1-1kern1
 _ZN8casacore9PtrHolderISt6vectorIS1_IdSaIdEESaIS3_EEE27delete_pointer_if_necessaryEv@Base 3.2.1-1kern1
 _ZN8casacore9PtrHolderISt6vectorIS1_IySaIyEESaIS3_EEE27delete_pointer_if_necessaryEv@Base 3.2.1-1kern1
 _ZN8casacore9PtrHolderISt6vectorIbSaIbEEE27delete_pointer_if_necessaryEv@Base 3.2.1-1kern1
 _ZN8casacore9PtrHolderISt6vectorIdSaIdEEE27delete_pointer_if_necessaryEv@Base 3.2.1-1kern1
 _ZN8casacore9PtrHolderIyE27delete_pointer_if_necessaryEv@Base 3.2.1-1kern1
 _ZN8casacore9StatsDataIdEC1ERKS1_@Base 3.2.1-1kern1
 _ZN8casacore9StatsDataIdEC2ERKS1_@Base 3.2.1-1kern1
 _ZN8casacore9StatsDataIdED1Ev@Base 3.2.1-1kern1
 _ZN8casacore9StatsDataIdED2Ev@Base 3.2.1-1kern1
 _ZN8casacore9TabVecRepIdE6assignERKS1_@Base 3.2.1-1kern1
 _ZN8casacore9TabVecRepIiE6assignERKS1_@Base 3.2.1-1kern1
 _ZN8casacore9set_unionERKNS_6VectorIiEES3_@Base 3.2.1-1kern1
 _ZN8casacoreaaIbEENS_5ArrayIbEERKNS1_IT_EES6_@Base 3.2.1-1kern1
 _ZN8casacoredVISt7complexIfEEERNS_5ArrayIT_EES6_RKNS_11MaskedArrayIS4_EE@Base 3.2.1-1kern1
 _ZN8casacoredVISt7complexIfEfEERKNS_11MaskedArrayIT_EES7_RKNS3_IT0_EE@Base 3.2.1-1kern1
 _ZN8casacoredVIfEERKNS_11MaskedArrayIT_EES5_S5_@Base 3.2.1-1kern1
 _ZN8casacoredVIfEEvRNS_5ArrayIT_EERKS3_@Base 3.2.1-1kern1
 _ZN8casacoreeqERKNS_7ScanKeyES2_@Base 3.2.1-1kern1
 _ZN8casacoreeqINS_6StringEEENS_5ArrayIbEERKNS2_IT_EERKS4_@Base 3.2.1-1kern1
 _ZN8casacoreeqINS_6VectorIdEEEEbRKNS_7QuantumIT_EES7_@Base 3.2.1-1kern1
 _ZN8casacoreeqIiEENS_5ArrayIbEERKNS1_IT_EERKS3_@Base 3.2.1-1kern1
 _ZN8casacoregeERKNS_13TableExprNodeES2_@Base 3.2.1-1kern1
 _ZN8casacoregtIfEENS_5ArrayIbEERKNS1_IT_EERKS3_@Base 3.2.1-1kern1
 _ZN8casacoreleERKNS_13TableExprNodeES2_@Base 3.2.1-1kern1
 _ZN8casacorelsERNS_6AipsIOERKNS_7MSParseE@Base 3.2.1-1kern1
 _ZN8casacorelsERSoRKNS_10SubScanKeyE@Base 3.2.1-1kern1
 _ZN8casacorelsERSoRKNS_7ScanKeyE@Base 3.2.1-1kern1
 _ZN8casacorelsINS_6StringEEERSoS2_RKNS_5ArrayIT_EE@Base 3.2.1-1kern1
 _ZN8casacorelsISt7complexIfEEERSoS3_RKNS_5ArrayIT_EE@Base 3.2.1-1kern1
 _ZN8casacorelsIdEERSoS1_RKNS_5ArrayIT_EE@Base 3.2.1-1kern1
 _ZN8casacorelsIddEERSoS1_RKSt4pairIT_T0_E@Base 3.2.1-1kern1
 _ZN8casacorelsIiEERSoS1_RKNS_5ArrayIT_EE@Base 3.2.1-1kern1
 _ZN8casacoreltERKNS_10SubScanKeyES2_@Base 3.2.1-1kern1
 _ZN8casacoreltERKNS_7ScanKeyES2_@Base 3.2.1-1kern1
 _ZN8casacoreltERKNS_8ArrayKeyES2_@Base 3.2.1-1kern1
 _ZN8casacoreltERKNS_9SourceKeyES2_@Base 3.2.1-1kern1
 _ZN8casacoremIISt7complexIfEEEvRNS_5ArrayIT_EERKS5_@Base 3.2.1-1kern1
 _ZN8casacoremLISt7complexIfEEEvRNS_5ArrayIT_EERKS5_@Base 3.2.1-1kern1
 _ZN8casacoremLIdEEvRNS_5ArrayIT_EERKS3_@Base 3.2.1-1kern1
 _ZN8casacoremiERKNS_14MrsEligibilityENS_11MSMainEnums18PredefinedKeywordsE@Base 3.2.1-1kern1
 _ZN8casacoremiERKNS_14MrsEligibilityES2_@Base 3.2.1-1kern1
 _ZN8casacorentIbEENS_5ArrayIbEERKNS1_IT_EE@Base 3.2.1-1kern1
 _ZN8casacorepLISt7complexIfEEERNS_5ArrayIT_EES6_RKNS_11MaskedArrayIS4_EE@Base 3.2.1-1kern1
 _ZN8casacorepLIdEEvRNS_5ArrayIT_EERKS3_@Base 3.2.1-1kern1
 _ZN8casacorepLIfEERNS_5ArrayIT_EES4_RKNS_11MaskedArrayIS2_EE@Base 3.2.1-1kern1
 _ZN8casacorepLIfEEvRNS_5ArrayIT_EERKS3_@Base 3.2.1-1kern1
 _ZN8casacorepLIiEEvRNS_5ArrayIT_EERKS3_@Base 3.2.1-1kern1
 _ZN8casacoreplEPKcRKNS_6StringE@Base 3.2.1-1kern1
 _ZN8casacoreplERKNS_14MrsEligibilityENS_11MSMainEnums18PredefinedKeywordsE@Base 3.2.1-1kern1
 _ZN8casacoreplERKNS_14MrsEligibilityES2_@Base 3.2.1-1kern1
 _ZN8casacoreplERKNS_6StringEPKc@Base 3.2.1-1kern1
 _ZN8casacoreplERKNS_6StringES2_@Base 3.2.1-1kern1
 _ZN8casacorersERNS_6AipsIOERNS_7MSParseE@Base 3.2.1-1kern1
 _ZNK8casacore10CountedPtrINS_5BlockINS_10MDirectionEEEE7DeleterIS3_EclEPS3_@Base 3.2.1-1kern1
 _ZNK8casacore10CountedPtrINS_5BlockINS_10MFrequencyEEEE7DeleterIS3_EclEPS3_@Base 3.2.1-1kern1
 _ZNK8casacore10CountedPtrINS_5BlockINS_11RigidVectorIdLi2EEEEEE7DeleterIS4_EclEPS4_@Base 3.2.1-1kern1
 _ZNK8casacore10CountedPtrINS_5BlockINS_12SquareMatrixISt7complexIfELi2EEEEEE7DeleterIS6_EclEPS6_@Base 3.2.1-1kern1
 _ZNK8casacore10CountedPtrINS_5BlockINS_4UnitEEEE7DeleterIS3_EclEPS3_@Base 3.2.1-1kern1
 _ZNK8casacore10CountedPtrINS_5BlockINS_5SliceEEEE7DeleterIS3_EclEPS3_@Base 3.2.1-1kern1
 _ZNK8casacore10CountedPtrINS_5BlockINS_6Stokes11StokesTypesEEEE7DeleterIS4_EclEPS4_@Base 3.2.1-1kern1
 _ZNK8casacore10CountedPtrINS_5BlockINS_6VectorIiEEEEE7DeleterIS4_EclEPS4_@Base 3.2.1-1kern1
 _ZNK8casacore10CountedPtrINS_5BlockINS_7QuantumIdEEEEE7DeleterIS4_EclEPS4_@Base 3.2.1-1kern1
 _ZNK8casacore10CountedPtrINS_5BlockINS_9MPositionEEEE7DeleterIS3_EclEPS3_@Base 3.2.1-1kern1
 _ZNK8casacore10CountedPtrINS_5BlockIPNS_9MeasCometEEEE7DeleterIS4_EclEPS4_@Base 3.2.1-1kern1
 _ZNK8casacore10MSInterval4compEPKvS2_@Base 3.2.1-1kern1
 _ZNK8casacore10MSMetaData10_checkScanERKNS_7ScanKeyE@Base 3.2.1-1kern1
 _ZNK8casacore10MSMetaData10_hasIntentERKNS_6StringE@Base 3.2.1-1kern1
 _ZNK8casacore10MSMetaData10getIntentsEv@Base 3.2.1-1kern1
 _ZNK8casacore10MSMetaData10getNRowMapENS0_15CorrelationTypeE@Base 3.2.1-1kern1
 _ZNK8casacore10MSMetaData10getSummaryEv@Base 3.2.1-1kern1
 _ZNK8casacore10MSMetaData11_checkFieldEj@Base 3.2.1-1kern1
 _ZNK8casacore10MSMetaData11_checkScansERKSt3setINS_7ScanKeyESt4lessIS2_ESaIS2_EE@Base 3.2.1-1kern1
 _ZNK8casacore10MSMetaData11_getSpwInfoERSt3setIjSt4lessIjESaIjEES6_S6_S6_S6_@Base 3.2.1-1kern1
 _ZNK8casacore10MSMetaData11_hasFieldIDEi@Base 3.2.1-1kern1
 _ZNK8casacore10MSMetaData11_hasStateIDEi@Base 3.2.1-1kern1
 _ZNK8casacore10MSMetaData11getNumCorrsEv@Base 3.2.1-1kern1
 _ZNK8casacore10MSMetaData11getProjectsEv@Base 3.2.1-1kern1
 _ZNK8casacore10MSMetaData11getRefFreqsEv@Base 3.2.1-1kern1
 _ZNK8casacore10MSMetaData11getScanKeysERKNS_8ArrayKeyE@Base 3.2.1-1kern1
 _ZNK8casacore10MSMetaData11getScanKeysEv@Base 3.2.1-1kern1
 _ZNK8casacore10MSMetaData11getSpwNamesEv@Base 3.2.1-1kern1
 _ZNK8casacore10MSMetaData12_getAntennasERSt10shared_ptrINS_6VectorIiEEES5_@Base 3.2.1-1kern1
 _ZNK8casacore10MSMetaData12_getArrayIDsEv@Base 3.2.1-1kern1
 _ZNK8casacore10MSMetaData12_getFieldIDsEv@Base 3.2.1-1kern1
 _ZNK8casacore10MSMetaData12_getRowStatsERjS1_RPSt3mapINS_10SubScanKeyEjSt4lessIS3_ESaISt4pairIKS3_jEEESC_RPS2_IijS4_IiESaIS6_IKijEEESJ_@Base 3.2.1-1kern1
 _ZNK8casacore10MSMetaData12_getRowStatsERjS1_RSt10shared_ptrISt3mapINS_10SubScanKeyEjSt4lessIS4_ESaISt4pairIKS4_jEEEESD_RS2_IS3_IijS5_IiESaIS7_IKijEEEESK_@Base 3.2.1-1kern1
 _ZNK8casacore10MSMetaData12_getScanKeysERKSt3setINS_7ScanKeyESt4lessIS2_ESaIS2_EERKNS_8ArrayKeyE@Base 3.2.1-1kern1
 _ZNK8casacore10MSMetaData12_getSpwInfo2ERSt3setIjSt4lessIjESaIjEES6_S6_S6_S6_@Base 3.2.1-1kern1
 _ZNK8casacore10MSMetaData12_getStateIDsEv@Base 3.2.1-1kern1
 _ZNK8casacore10MSMetaData12getAntennaIDERKNS_6StringE@Base 3.2.1-1kern1
 _ZNK8casacore10MSMetaData12getChanFreqsEv@Base 3.2.1-1kern1
 _ZNK8casacore10MSMetaData12getCorrTypesEv@Base 3.2.1-1kern1
 _ZNK8casacore10MSMetaData12getMeanFreqsEv@Base 3.2.1-1kern1
 _ZNK8casacore10MSMetaData12getObserversEv@Base 3.2.1-1kern1
 _ZNK8casacore10MSMetaData12getPhaseDirsERKNS_6MEpochE@Base 3.2.1-1kern1
 _ZNK8casacore10MSMetaData12getSchedulesEv@Base 3.2.1-1kern1
 _ZNK8casacore10MSMetaData12getTimeRangeEb@Base 3.2.1-1kern1
 _ZNK8casacore10MSMetaData13_cacheUpdatedEf@Base 3.2.1-1kern1
 _ZNK8casacore10MSMetaData13_checkSubScanERKNS_10SubScanKeyE@Base 3.2.1-1kern1
 _ZNK8casacore10MSMetaData13_getIntervalsEv@Base 3.2.1-1kern1
 _ZNK8casacore10MSMetaData13getAntennaIDsERKNS_6StringE@Base 3.2.1-1kern1
 _ZNK8casacore10MSMetaData13getAntennaIDsERKSt6vectorINS_6StringESaIS2_EE@Base 3.2.1-1kern1
 _ZNK8casacore10MSMetaData13getBandWidthsEv@Base 3.2.1-1kern1
 _ZNK8casacore10MSMetaData13getChanWidthsEv@Base 3.2.1-1kern1
 _ZNK8casacore10MSMetaData13getFieldCodesEv@Base 3.2.1-1kern1
 _ZNK8casacore10MSMetaData13getFieldNamesEv@Base 3.2.1-1kern1
 _ZNK8casacore10MSMetaData13nObservationsEv@Base 3.2.1-1kern1
 _ZNK8casacore10MSMetaData14_getSourceInfoEv@Base 3.2.1-1kern1
 _ZNK8casacore10MSMetaData14getCenterFreqsEv@Base 3.2.1-1kern1
 _ZNK8casacore10MSMetaData14getScanNumbersEii@Base 3.2.1-1kern1
 _ZNK8casacore10MSMetaData14getScansForSpwEjii@Base 3.2.1-1kern1
 _ZNK8casacore10MSMetaData14getSourceNamesEv@Base 3.2.1-1kern1
 _ZNK8casacore10MSMetaData14getSourceTimesEv@Base 3.2.1-1kern1
 _ZNK8casacore10MSMetaData14getSpwsForScanERKNS_7ScanKeyE@Base 3.2.1-1kern1
 _ZNK8casacore10MSMetaData14getSubScanKeysERKNS_8ArrayKeyE@Base 3.2.1-1kern1
 _ZNK8casacore10MSMetaData14getTransitionsEv@Base 3.2.1-1kern1
 _ZNK8casacore10MSMetaData14nUnflaggedRowsENS0_15CorrelationTypeE@Base 3.2.1-1kern1
 _ZNK8casacore10MSMetaData14nUnflaggedRowsENS0_15CorrelationTypeEi@Base 3.2.1-1kern1
 _ZNK8casacore10MSMetaData14nUnflaggedRowsENS0_15CorrelationTypeEijij@Base 3.2.1-1kern1
 _ZNK8casacore10MSMetaData14nUnflaggedRowsEv@Base 3.2.1-1kern1
 _ZNK8casacore10MSMetaData15_getDataDescIDsEv@Base 3.2.1-1kern1
 _ZNK8casacore10MSMetaData15_getScanNumbersERKNS_8ArrayKeyE@Base 3.2.1-1kern1
 _ZNK8casacore10MSMetaData15_getSubScanKeysERKNS_7ScanKeyE@Base 3.2.1-1kern1
 _ZNK8casacore10MSMetaData15_getSubScanKeysEv@Base 3.2.1-1kern1
 _ZNK8casacore10MSMetaData15_mergeScanPropsERSt10shared_ptrISt3mapINS_7ScanKeyENS0_14ScanPropertiesESt4lessIS3_ESaISt4pairIKS3_S4_EEEERS1_IS2_INS_10SubScanKeyENS0_17SubScanPropertiesES5_ISE_ESaIS7_IKSE_SF_EEEERKSt6vectorIS7_ISB_SK_ESaISO_EE@Base 3.2.1-1kern1
 _ZNK8casacore10MSMetaData15getAntennaNamesERSt3mapINS_6StringESt3setIjSt4lessIjESaIjEES4_IS2_ESaISt4pairIKS2_S7_EEERKSt6vectorIjS6_E@Base 3.2.1-1kern1
 _ZNK8casacore10MSMetaData15getAntennaNamesERSt3mapINS_6StringEjSt4lessIS2_ESaISt4pairIKS2_jEEERKSt6vectorIjSaIjEE@Base 3.2.1-1kern1
 _ZNK8casacore10MSMetaData15getCorrProductsEv@Base 3.2.1-1kern1
 _ZNK8casacore10MSMetaData15getNetSidebandsEv@Base 3.2.1-1kern1
 _ZNK8casacore10MSMetaData15getSpwsForFieldEi@Base 3.2.1-1kern1
 _ZNK8casacore10MSMetaData15getTimesForScanERKNS_7ScanKeyE@Base 3.2.1-1kern1
 _ZNK8casacore10MSMetaData15getTimesForSpwsEb@Base 3.2.1-1kern1
 _ZNK8casacore10MSMetaData15getUniqueSpwIDsEv@Base 3.2.1-1kern1
 _ZNK8casacore10MSMetaData16_getAntennaNamesERSt3mapINS_6StringESt3setIjSt4lessIjESaIjEES4_IS2_ESaISt4pairIKS2_S7_EEE@Base 3.2.1-1kern1
 _ZNK8casacore10MSMetaData16getAntennaOffsetERKNS_6StringE@Base 3.2.1-1kern1
 _ZNK8casacore10MSMetaData16getAntennaOffsetEj@Base 3.2.1-1kern1
 _ZNK8casacore10MSMetaData16getFieldsForScanERKNS_7ScanKeyE@Base 3.2.1-1kern1
 _ZNK8casacore10MSMetaData16getProperMotionsEv@Base 3.2.1-1kern1
 _ZNK8casacore10MSMetaData16getScanToSpwsMapEv@Base 3.2.1-1kern1
 _ZNK8casacore10MSMetaData16getScansForFieldERKNS_6StringEii@Base 3.2.1-1kern1
 _ZNK8casacore10MSMetaData16getScansForStateEiii@Base 3.2.1-1kern1
 _ZNK8casacore10MSMetaData16getScansForTimesEddii@Base 3.2.1-1kern1
 _ZNK8casacore10MSMetaData16getSpwToScansMapEv@Base 3.2.1-1kern1
 _ZNK8casacore10MSMetaData16getStatesForScanEiii@Base 3.2.1-1kern1
 _ZNK8casacore10MSMetaData16getTimesForScansESt3setINS_7ScanKeyESt4lessIS2_ESaIS2_EE@Base 3.2.1-1kern1
 _ZNK8casacore10MSMetaData17_getEphemFieldIDsEv@Base 3.2.1-1kern1
 _ZNK8casacore10MSMetaData17_getExposureTimesEv@Base 3.2.1-1kern1
 _ZNK8casacore10MSMetaData17getAntennaOffsetsERKNS_6StringE@Base 3.2.1-1kern1
 _ZNK8casacore10MSMetaData17getAntennaOffsetsEv@Base 3.2.1-1kern1
 _ZNK8casacore10MSMetaData17getFieldsForScansERKSt3setINS_7ScanKeyESt4lessIS2_ESaIS2_EE@Base 3.2.1-1kern1
 _ZNK8casacore10MSMetaData17getFieldsForScansERKSt3setIiSt4lessIiESaIiEEii@Base 3.2.1-1kern1
 _ZNK8casacore10MSMetaData17getIntentsForScanERKNS_7ScanKeyE@Base 3.2.1-1kern1
 _ZNK8casacore10MSMetaData17getScansForIntentERKNS_6StringEii@Base 3.2.1-1kern1
 _ZNK8casacore10MSMetaData17getSpwsForSubScanERKNS_10SubScanKeyE@Base 3.2.1-1kern1
 _ZNK8casacore10MSMetaData17getTimesForIntentERKNS_6StringE@Base 3.2.1-1kern1
 _ZNK8casacore10MSMetaData17getUniqueFieldIDsEv@Base 3.2.1-1kern1
 _ZNK8casacore10MSMetaData17nDataDescriptionsEv@Base 3.2.1-1kern1
 _ZNK8casacore10MSMetaData18_createScanRecordsERNS_6RecordERKNS_8ArrayKeyERKSt3mapINS_10SubScanKeyENS0_17SubScanPropertiesESt4lessIS7_ESaISt4pairIKS7_S8_EEE@Base 3.2.1-1kern1
 _ZNK8casacore10MSMetaData18_getObservationIDsEv@Base 3.2.1-1kern1
 _ZNK8casacore10MSMetaData18_getScanPropertiesEb@Base 3.2.1-1kern1
 _ZNK8casacore10MSMetaData18_getScanToTimesMapEv@Base 3.2.1-1kern1
 _ZNK8casacore10MSMetaData18getAntennasForScanERKNS_7ScanKeyE@Base 3.2.1-1kern1
 _ZNK8casacore10MSMetaData18getChanResolutionsEb@Base 3.2.1-1kern1
 _ZNK8casacore10MSMetaData18getFieldToScansMapEv@Base 3.2.1-1kern1
 _ZNK8casacore10MSMetaData18getFieldsToSpwsMapEv@Base 3.2.1-1kern1
 _ZNK8casacore10MSMetaData18getPolarizationIDsEjiij@Base 3.2.1-1kern1
 _ZNK8casacore10MSMetaData18getRestFrequenciesEv@Base 3.2.1-1kern1
 _ZNK8casacore10MSMetaData18getScanToStatesMapEv@Base 3.2.1-1kern1
 _ZNK8casacore10MSMetaData18getScansForFieldIDEiii@Base 3.2.1-1kern1
 _ZNK8casacore10MSMetaData19_getScansAndSpwMapsERSt3mapINS_7ScanKeyESt3setIjSt4lessIjESaIjEES4_IS2_ESaISt4pairIKS2_S7_EEERSt6vectorIS3_IS2_S8_SaIS2_EESaISH_EE@Base 3.2.1-1kern1
 _ZNK8casacore10MSMetaData19getAntennaDiametersEv@Base 3.2.1-1kern1
 _ZNK8casacore10MSMetaData19getAntennaPositionsERKSt6vectorIjSaIjEE@Base 3.2.1-1kern1
 _ZNK8casacore10MSMetaData19getChanEffectiveBWsEb@Base 3.2.1-1kern1
 _ZNK8casacore10MSMetaData19getFieldIDsForFieldERKNS_6StringE@Base 3.2.1-1kern1
 _ZNK8casacore10MSMetaData19getSourceDirectionsEv@Base 3.2.1-1kern1
 _ZNK8casacore10MSMetaData19getTimeRangeForScanERKNS_7ScanKeyE@Base 3.2.1-1kern1
 _ZNK8casacore10MSMetaData19getUniqueAntennaIDsEv@Base 3.2.1-1kern1
 _ZNK8casacore10MSMetaData20_getAntennaPositionsEv@Base 3.2.1-1kern1
 _ZNK8casacore10MSMetaData20_getFieldsAndSpwMapsERSt3mapIiSt3setIjSt4lessIjESaIjEES3_IiESaISt4pairIKiS6_EEERSt6vectorIS2_IiS7_SaIiEESaISG_EE@Base 3.2.1-1kern1
 _ZNK8casacore10MSMetaData20_getMainScalarColumnIdEESt10shared_ptrINS_6VectorIT_EEENS_11MSMainEnums17PredefinedColumnsE@Base 3.2.1-1kern1
 _ZNK8casacore10MSMetaData20_getMainScalarColumnIiEESt10shared_ptrINS_6VectorIT_EEENS_11MSMainEnums17PredefinedColumnsE@Base 3.2.1-1kern1
 _ZNK8casacore10MSMetaData20_getScansAndDDIDMapsERSt3mapINS_7ScanKeyESt3setIjSt4lessIjESaIjEES4_IS2_ESaISt4pairIKS2_S7_EEERSt6vectorIS3_IS2_S8_SaIS2_EESaISH_EE@Base 3.2.1-1kern1
 _ZNK8casacore10MSMetaData20getIntentsForSubScanERKNS_10SubScanKeyE@Base 3.2.1-1kern1
 _ZNK8casacore10MSMetaData20getPointingDirectionERiS1_Rdjbi@Base 3.2.1-1kern1
 _ZNK8casacore10MSMetaData20getSpwToTimesForScanERKNS_7ScanKeyE@Base 3.2.1-1kern1
 _ZNK8casacore10MSMetaData20getSubScanPropertiesERKNS_10SubScanKeyEb@Base 3.2.1-1kern1
 _ZNK8casacore10MSMetaData20getSubScanPropertiesEb@Base 3.2.1-1kern1
 _ZNK8casacore10MSMetaData20getUniqueDataDescIDsEv@Base 3.2.1-1kern1
 _ZNK8casacore10MSMetaData21_createSubScanRecordsERNS_6RecordERjRSt3setIiSt4lessIiESaIiEERKNS_7ScanKeyERKSt3mapINS_10SubScanKeyENS0_17SubScanPropertiesES5_ISE_ESaISt4pairIKSE_SF_EEE@Base 3.2.1-1kern1
 _ZNK8casacore10MSMetaData21_getIntentsToTimesMapEv@Base 3.2.1-1kern1
 _ZNK8casacore10MSMetaData21_getScanToAntennasMapEv@Base 3.2.1-1kern1
 _ZNK8casacore10MSMetaData21_getScanToSubScansMapEv@Base 3.2.1-1kern1
 _ZNK8casacore10MSMetaData21_getStateToIntentsMapERSt6vectorISt3setINS_6StringESt4lessIS3_ESaIS3_EESaIS7_EERS7_@Base 3.2.1-1kern1
 _ZNK8casacore10MSMetaData21_getUnflaggedRowStatsERdS1_RPSt6vectorIdSaIdEES6_RPSt3mapINS_10SubScanKeyEdSt4lessIS8_ESaISt4pairIKS8_dEEESH_@Base 3.2.1-1kern1
 _ZNK8casacore10MSMetaData21_getUnflaggedRowStatsERdS1_RSt10shared_ptrISt3mapINS_10SubScanKeyEdSt4lessIS4_ESaISt4pairIKS4_dEEEESD_RS2_ISt6vectorIdSaIdEEESI_@Base 3.2.1-1kern1
 _ZNK8casacore10MSMetaData21getDataDescIDToSpwMapEv@Base 3.2.1-1kern1
 _ZNK8casacore10MSMetaData21getFieldsForSourceMapEv@Base 3.2.1-1kern1
 _ZNK8casacore10MSMetaData21getIntervalStatisticsEv@Base 3.2.1-1kern1
 _ZNK8casacore10MSMetaData21getReferenceDirectionEjRKNS_6MEpochE@Base 3.2.1-1kern1
 _ZNK8casacore10MSMetaData21getScanToTimeRangeMapEv@Base 3.2.1-1kern1
 _ZNK8casacore10MSMetaData22_getFieldsAndScansMapsERSt6vectorISt3setINS_7ScanKeyESt4lessIS3_ESaIS3_EESaIS7_EERSt3mapIS3_S2_IiS4_IiESaIiEES5_SaISt4pairIKS3_SE_EEE@Base 3.2.1-1kern1
 _ZNK8casacore10MSMetaData22getFieldTableSourceIDsEv@Base 3.2.1-1kern1
 _ZNK8casacore10MSMetaData22getObservatoryPositionEj@Base 3.2.1-1kern1
 _ZNK8casacore10MSMetaData22getSubScanToIntentsMapEv@Base 3.2.1-1kern1
 _ZNK8casacore10MSMetaData23_getScansAndIntentsMapsERSt3mapINS_7ScanKeyESt3setINS_6StringESt4lessIS4_ESaIS4_EES5_IS2_ESaISt4pairIKS2_S8_EEERS1_IS4_S3_IS2_S9_SaIS2_EES6_SaISA_IKS4_SH_EEE@Base 3.2.1-1kern1
 _ZNK8casacore10MSMetaData23getDataDescIDToPolIDMapEv@Base 3.2.1-1kern1
 _ZNK8casacore10MSMetaData23getSourceTableSourceIDsEv@Base 3.2.1-1kern1
 _ZNK8casacore10MSMetaData25_getInterpolatedDirectionERKNS_17MSPointingColumnsERKiRKd@Base 3.2.1-1kern1
 _ZNK8casacore10MSMetaData25getFieldNamesForSourceMapEv@Base 3.2.1-1kern1
 _ZNK8casacore10MSMetaData26_generateScanPropsIfWantedEv@Base 3.2.1-1kern1
 _ZNK8casacore10MSMetaData26_getArrayKeysToSubScanKeysEv@Base 3.2.1-1kern1
 _ZNK8casacore10MSMetaData26_getChunkSubScanPropertiesERKNS_6VectorIiEES4_S4_S4_RKNS1_IdEES4_S4_S4_S4_RKNS_7QuantumIS5_EESB_RKSt6vectorIjSaIjEEjj@Base 3.2.1-1kern1
 _ZNK8casacore10MSMetaData26_getSubScansAndIntentsMapsERSt10shared_ptrIKSt3mapINS_10SubScanKeyESt3setINS_6StringESt4lessIS5_ESaIS5_EES6_IS3_ESaISt4pairIKS3_S9_EEEERS2_IS5_S4_IS3_SA_SaIS3_EES7_SaISB_IKS5_SK_EEE@Base 3.2.1-1kern1
 _ZNK8casacore10MSMetaData26getAverageIntervalsForScanERKNS_7ScanKeyE@Base 3.2.1-1kern1
 _ZNK8casacore10MSMetaData26phaseDirFromFieldIDAndTimeEjRKNS_6MEpochE@Base 3.2.1-1kern1
 _ZNK8casacore10MSMetaData27getTimeRangesOfObservationsEv@Base 3.2.1-1kern1
 _ZNK8casacore10MSMetaData28_getScanAndSubScanPropertiesERSt10shared_ptrIKSt3mapINS_7ScanKeyENS0_14ScanPropertiesESt4lessIS3_ESaISt4pairIKS3_S4_EEEERS1_IKS2_INS_10SubScanKeyENS0_17SubScanPropertiesES5_ISF_ESaIS7_IKSF_SG_EEEEb@Base 3.2.1-1kern1
 _ZNK8casacore10MSMetaData28getSpwIDPolIDToDataDescIDMapEv@Base 3.2.1-1kern1
 _ZNK8casacore10MSMetaData28getSpwToDataDescriptionIDMapEv@Base 3.2.1-1kern1
 _ZNK8casacore10MSMetaData29_generateSubScanPropsIfWantedEv@Base 3.2.1-1kern1
 _ZNK8casacore10MSMetaData29getAverageIntervalsForSubScanERKNS_10SubScanKeyE@Base 3.2.1-1kern1
 _ZNK8casacore10MSMetaData29getScanToFirstExposureTimeMapEb@Base 3.2.1-1kern1
 _ZNK8casacore10MSMetaData30_getObservationIDToArrayIDsMapEv@Base 3.2.1-1kern1
 _ZNK8casacore10MSMetaData31nUniqueSourceIDsFromSourceTableEv@Base 3.2.1-1kern1
 _ZNK8casacore10MSMetaData32_computeScanAndSubScanPropertiesERSt10shared_ptrISt3mapINS_7ScanKeyENS0_14ScanPropertiesESt4lessIS3_ESaISt4pairIKS3_S4_EEEERS1_IS2_INS_10SubScanKeyENS0_17SubScanPropertiesES5_ISE_ESaIS7_IKSE_SF_EEEEb@Base 3.2.1-1kern1
 _ZNK8casacore10MSMetaData4nSpwEb@Base 3.2.1-1kern1
 _ZNK8casacore10MSMetaData5nRowsENS0_15CorrelationTypeEiiii@Base 3.2.1-1kern1
 _ZNK8casacore10MSMetaData5nRowsENS0_15CorrelationTypeEj@Base 3.2.1-1kern1
 _ZNK8casacore10MSMetaData5nRowsEv@Base 3.2.1-1kern1
 _ZNK8casacore10MSMetaData6nChansEv@Base 3.2.1-1kern1
 _ZNK8casacore10MSMetaData7nFieldsEv@Base 3.2.1-1kern1
 _ZNK8casacore10MSMetaData7nStatesEv@Base 3.2.1-1kern1
 _ZNK8casacore10MSMetaData8hasBBCNoEv@Base 3.2.1-1kern1
 _ZNK8casacore10MSMetaData9_getFlagsEv@Base 3.2.1-1kern1
 _ZNK8casacore10MSMetaData9_getScansEv@Base 3.2.1-1kern1
 _ZNK8casacore10MSMetaData9_getTimesEv@Base 3.2.1-1kern1
 _ZNK8casacore10MSMetaData9getBBCNosEv@Base 3.2.1-1kern1
 _ZNK8casacore10MSMetaData9getSpwIDsEv@Base 3.2.1-1kern1
 _ZNK8casacore10MSMetaData9getWVRSpwEv@Base 3.2.1-1kern1
 _ZNK8casacore10MSMetaData9nAntennasEv@Base 3.2.1-1kern1
 _ZNK8casacore10MSPointing13referenceCopyERKNS_6StringERKNS_5BlockIS1_EE@Base 3.2.1-1kern1
 _ZNK8casacore10MSSelector15getAveragedDataERNS_5ArrayISt7complexIfEEERKNS1_IbEERKNS_11ArrayColumnIS3_EE@Base 3.2.1-1kern1
 _ZNK8casacore10MSSelector15getAveragedDataERNS_5ArrayISt7complexIfEEERKNS1_IbEERKNS_11ArrayColumnIS3_EERKNS_6SlicerE@Base 3.2.1-1kern1
 _ZNK8casacore10MSSelector15getAveragedDataERNS_5ArrayIfEERKNS1_IbEERKNS_11ArrayColumnIfEE@Base 3.2.1-1kern1
 _ZNK8casacore10MSSelector15getAveragedDataERNS_5ArrayIfEERKNS1_IbEERKNS_11ArrayColumnIfEERKNS_6SlicerE@Base 3.2.1-1kern1
 _ZNK8casacore10MSSelector15getAveragedFlagERNS_5ArrayIbEERKNS_11ArrayColumnIbEE@Base 3.2.1-1kern1
 _ZNK8casacore10MSSelector15getAveragedFlagERNS_5ArrayIbEERKNS_11ArrayColumnIbEERKNS_6SlicerE@Base 3.2.1-1kern1
 _ZNK8casacore10MSSelector9getWeightERKNS_11ArrayColumnIfEEb@Base 3.2.1-1kern1
 _ZNK8casacore10MSValidIds10dataDescIdEj@Base 3.2.1-1kern1
 _ZNK8casacore10MSValidIds11processorIdEj@Base 3.2.1-1kern1
 _ZNK8casacore10MSValidIds13observationIdEj@Base 3.2.1-1kern1
 _ZNK8casacore10MSValidIds14polarizationIdEj@Base 3.2.1-1kern1
 _ZNK8casacore10MSValidIds16spectralWindowIdEj@Base 3.2.1-1kern1
 _ZNK8casacore10MSValidIds7fieldIdEj@Base 3.2.1-1kern1
 _ZNK8casacore10MSValidIds7stateIdEj@Base 3.2.1-1kern1
 _ZNK8casacore10MSValidIds8antenna1Ej@Base 3.2.1-1kern1
 _ZNK8casacore10MSValidIds8antenna2Ej@Base 3.2.1-1kern1
 _ZNK8casacore10MSValidIds8sourceIdEj@Base 3.2.1-1kern1
 _ZNK8casacore10MSValidIds9dopplerIdEj@Base 3.2.1-1kern1
 _ZNK8casacore10TabVecTempIdE5valueEj@Base 3.2.1-1kern1
 _ZNK8casacore10TabVecTempIdE6getValEjRd@Base 3.2.1-1kern1
 _ZNK8casacore11BaseCompare8dataTypeEv@Base 3.2.1-1kern1
 _ZNK8casacore11MSProcessor13referenceCopyERKNS_6StringERKNS_5BlockIS1_EE@Base 3.2.1-1kern1
 _ZNK8casacore11MSTableMaps7mapTypeERKSt3mapIiNS_6StringESt4lessIiESaISt4pairIKiS2_EEERKS2_@Base 3.2.1-1kern1
 _ZNK8casacore11MaskedArrayISt7complexIfEE14nelementsValidEv@Base 3.2.1-1kern1
 _ZNK8casacore11MaskedArrayISt7complexIfEE15putArrayStorageERPS2_b@Base 3.2.1-1kern1
 _ZNK8casacore11MaskedArrayISt7complexIfEE18getCompressedArrayEv@Base 3.2.1-1kern1
 _ZNK8casacore11MaskedArrayIfE15putArrayStorageERPfb@Base 3.2.1-1kern1
 _ZNK8casacore11MaskedArrayIiE14nelementsValidEv@Base 3.2.1-1kern1
 _ZNK8casacore11MaskedArrayIiE18getCompressedArrayEv@Base 3.2.1-1kern1
 _ZNK8casacore11MeasConvertINS_10MDirectionEE5printERSo@Base 3.2.1-1kern1
 _ZNK8casacore11MeasConvertINS_10MDirectionEE7nMethodEv@Base 3.2.1-1kern1
 _ZNK8casacore11MeasConvertINS_10MDirectionEE9getMethodEj@Base 3.2.1-1kern1
 _ZNK8casacore11MeasConvertINS_10MFrequencyEE5printERSo@Base 3.2.1-1kern1
 _ZNK8casacore11MeasConvertINS_10MFrequencyEE7nMethodEv@Base 3.2.1-1kern1
 _ZNK8casacore11MeasConvertINS_10MFrequencyEE9getMethodEj@Base 3.2.1-1kern1
 _ZNK8casacore11MeasConvertINS_15MRadialVelocityEE5printERSo@Base 3.2.1-1kern1
 _ZNK8casacore11MeasConvertINS_15MRadialVelocityEE7nMethodEv@Base 3.2.1-1kern1
 _ZNK8casacore11MeasConvertINS_15MRadialVelocityEE9getMethodEj@Base 3.2.1-1kern1
 _ZNK8casacore11MeasConvertINS_4MuvwEE5printERSo@Base 3.2.1-1kern1
 _ZNK8casacore11MeasConvertINS_4MuvwEE7nMethodEv@Base 3.2.1-1kern1
 _ZNK8casacore11MeasConvertINS_4MuvwEE9getMethodEj@Base 3.2.1-1kern1
 _ZNK8casacore11MeasConvertINS_6MEpochEE5printERSo@Base 3.2.1-1kern1
 _ZNK8casacore11MeasConvertINS_6MEpochEE7nMethodEv@Base 3.2.1-1kern1
 _ZNK8casacore11MeasConvertINS_6MEpochEE9getMethodEj@Base 3.2.1-1kern1
 _ZNK8casacore11MeasConvertINS_9MBaselineEE5printERSo@Base 3.2.1-1kern1
 _ZNK8casacore11MeasConvertINS_9MBaselineEE7nMethodEv@Base 3.2.1-1kern1
 _ZNK8casacore11MeasConvertINS_9MBaselineEE9getMethodEj@Base 3.2.1-1kern1
 _ZNK8casacore11MeasConvertINS_9MPositionEE5printERSo@Base 3.2.1-1kern1
 _ZNK8casacore11MeasConvertINS_9MPositionEE7nMethodEv@Base 3.2.1-1kern1
 _ZNK8casacore11MeasConvertINS_9MPositionEE9getMethodEj@Base 3.2.1-1kern1
 _ZNK8casacore11TableColumn13checkWritableEv@Base 3.2.1-1kern1
 _ZNK8casacore11TableVectorIdE10makeVectorEv@Base 3.2.1-1kern1
 _ZNK8casacore12MSFreqOffset13referenceCopyERKNS_6StringERKNS_5BlockIS1_EE@Base 3.2.1-1kern1
 _ZNK8casacore12ScalarColumnINS_11TableRecordEE13checkDataTypeEv@Base 3.2.1-1kern1
 _ZNK8casacore12ScalarColumnINS_11TableRecordEE5cloneEv@Base 3.2.1-1kern1
 _ZNK8casacore12SquareMatrixISt7complexIfELi4EE6matrixERNS_6MatrixIS2_EE@Base 3.2.1-1kern1
 _ZNK8casacore12SquareMatrixISt7complexIfELi4EE7inverseERS3_@Base 3.2.1-1kern1
 _ZNK8casacore12TabVecScaColIdE5nelemEv@Base 3.2.1-1kern1
 _ZNK8casacore12TabVecScaColIdE5valueEj@Base 3.2.1-1kern1
 _ZNK8casacore12TabVecScaColIdE6getValEjRd@Base 3.2.1-1kern1
 _ZNK8casacore12TabVecScaColIiE5nelemEv@Base 3.2.1-1kern1
 _ZNK8casacore12TabVecScaColIiE5valueEj@Base 3.2.1-1kern1
 _ZNK8casacore12TabVecScaColIiE6getValEjRi@Base 3.2.1-1kern1
 _ZNK8casacore13BaseAllocatorINS_10MDirectionENS_15NewDelAllocatorIS1_EEE12getAllocatorEv@Base 3.2.1-1kern1
 _ZNK8casacore13BaseAllocatorINS_10MDirectionENS_16AlignedAllocatorIS1_Lm32EEEE12getAllocatorEv@Base 3.2.1-1kern1
 _ZNK8casacore13BaseAllocatorINS_10MFrequencyENS_15NewDelAllocatorIS1_EEE12getAllocatorEv@Base 3.2.1-1kern1
 _ZNK8casacore13BaseAllocatorINS_10MFrequencyENS_16AlignedAllocatorIS1_Lm32EEEE12getAllocatorEv@Base 3.2.1-1kern1
 _ZNK8casacore13BaseAllocatorINS_11RigidVectorIdLi2EEENS_15NewDelAllocatorIS2_EEE12getAllocatorEv@Base 3.2.1-1kern1
 _ZNK8casacore13BaseAllocatorINS_11RigidVectorIdLi2EEENS_16AlignedAllocatorIS2_Lm32EEEE12getAllocatorEv@Base 3.2.1-1kern1
 _ZNK8casacore13BaseAllocatorINS_12SquareMatrixISt7complexIfELi2EEENS_15NewDelAllocatorIS4_EEE12getAllocatorEv@Base 3.2.1-1kern1
 _ZNK8casacore13BaseAllocatorINS_12SquareMatrixISt7complexIfELi2EEENS_16AlignedAllocatorIS4_Lm32EEEE12getAllocatorEv@Base 3.2.1-1kern1
 _ZNK8casacore13BaseAllocatorINS_4UnitENS_15NewDelAllocatorIS1_EEE12getAllocatorEv@Base 3.2.1-1kern1
 _ZNK8casacore13BaseAllocatorINS_4UnitENS_16AlignedAllocatorIS1_Lm32EEEE12getAllocatorEv@Base 3.2.1-1kern1
 _ZNK8casacore13BaseAllocatorINS_5SliceENS_15NewDelAllocatorIS1_EEE12getAllocatorEv@Base 3.2.1-1kern1
 _ZNK8casacore13BaseAllocatorINS_5SliceENS_16AlignedAllocatorIS1_Lm32EEEE12getAllocatorEv@Base 3.2.1-1kern1
 _ZNK8casacore13BaseAllocatorINS_6MVTimeENS_15NewDelAllocatorIS1_EEE12getAllocatorEv@Base 3.2.1-1kern1
 _ZNK8casacore13BaseAllocatorINS_6MVTimeENS_16AlignedAllocatorIS1_Lm32EEEE12getAllocatorEv@Base 3.2.1-1kern1
 _ZNK8casacore13BaseAllocatorINS_6Stokes11StokesTypesENS_15NewDelAllocatorIS2_EEE12getAllocatorEv@Base 3.2.1-1kern1
 _ZNK8casacore13BaseAllocatorINS_6Stokes11StokesTypesENS_16AlignedAllocatorIS2_Lm32EEEE12getAllocatorEv@Base 3.2.1-1kern1
 _ZNK8casacore13BaseAllocatorINS_6VectorINS_5SliceEEENS_15NewDelAllocatorIS3_EEE12getAllocatorEv@Base 3.2.1-1kern1
 _ZNK8casacore13BaseAllocatorINS_6VectorINS_5SliceEEENS_16AlignedAllocatorIS3_Lm32EEEE12getAllocatorEv@Base 3.2.1-1kern1
 _ZNK8casacore13BaseAllocatorINS_6VectorIiEENS_15NewDelAllocatorIS2_EEE12getAllocatorEv@Base 3.2.1-1kern1
 _ZNK8casacore13BaseAllocatorINS_6VectorIiEENS_16AlignedAllocatorIS2_Lm32EEEE12getAllocatorEv@Base 3.2.1-1kern1
 _ZNK8casacore13BaseAllocatorINS_7QuantumIdEENS_15NewDelAllocatorIS2_EEE12getAllocatorEv@Base 3.2.1-1kern1
 _ZNK8casacore13BaseAllocatorINS_7QuantumIdEENS_16AlignedAllocatorIS2_Lm32EEEE12getAllocatorEv@Base 3.2.1-1kern1
 _ZNK8casacore13BaseAllocatorINS_9MPositionENS_15NewDelAllocatorIS1_EEE12getAllocatorEv@Base 3.2.1-1kern1
 _ZNK8casacore13BaseAllocatorINS_9MPositionENS_16AlignedAllocatorIS1_Lm32EEEE12getAllocatorEv@Base 3.2.1-1kern1
 _ZNK8casacore13BaseAllocatorIPNS_6SlicerENS_15NewDelAllocatorIS2_EEE12getAllocatorEv@Base 3.2.1-1kern1
 _ZNK8casacore13BaseAllocatorIPNS_6SlicerENS_16AlignedAllocatorIS2_Lm32EEEE12getAllocatorEv@Base 3.2.1-1kern1
 _ZNK8casacore13BaseAllocatorIPNS_9MeasCometENS_15NewDelAllocatorIS2_EEE12getAllocatorEv@Base 3.2.1-1kern1
 _ZNK8casacore13BaseAllocatorIPNS_9MeasCometENS_16AlignedAllocatorIS2_Lm32EEEE12getAllocatorEv@Base 3.2.1-1kern1
 _ZNK8casacore13MSMainColumns14flagCategoriesEv@Base 3.2.1-1kern1
 _ZNK8casacore13MSObservation13referenceCopyERKNS_6StringERKNS_5BlockIS1_EE@Base 3.2.1-1kern1
 _ZNK8casacore13TableExprNode2inERKS0_RKNS_9TaQLStyleE@Base 3.2.1-1kern1
 _ZNK8casacore13TableMeasDescINS_10MDirectionEE5cloneEv@Base 3.2.1-1kern1
 _ZNK8casacore13TableMeasDescINS_10MFrequencyEE5cloneEv@Base 3.2.1-1kern1
 _ZNK8casacore13TableMeasDescINS_14MEarthMagneticEE5cloneEv@Base 3.2.1-1kern1
 _ZNK8casacore13TableMeasDescINS_15MRadialVelocityEE5cloneEv@Base 3.2.1-1kern1
 _ZNK8casacore13TableMeasDescINS_4MuvwEE5cloneEv@Base 3.2.1-1kern1
 _ZNK8casacore13TableMeasDescINS_6MEpochEE5cloneEv@Base 3.2.1-1kern1
 _ZNK8casacore13TableMeasDescINS_8MDopplerEE5cloneEv@Base 3.2.1-1kern1
 _ZNK8casacore13TableMeasDescINS_9MBaselineEE5cloneEv@Base 3.2.1-1kern1
 _ZNK8casacore13TableMeasDescINS_9MPositionEE5cloneEv@Base 3.2.1-1kern1
 _ZNK8casacore14MSFieldColumns10radVelMeasEid@Base 3.2.1-1kern1
 _ZNK8casacore14MSFieldColumns12delayDirMeasEid@Base 3.2.1-1kern1
 _ZNK8casacore14MSFieldColumns12phaseDirMeasEid@Base 3.2.1-1kern1
 _ZNK8casacore14MSFieldColumns13matchDelayDirEjRKNS_11MVDirectionERKdRS1_d@Base 3.2.1-1kern1
 _ZNK8casacore14MSFieldColumns13matchPhaseDirEjRKNS_11MVDirectionERKdRS1_d@Base 3.2.1-1kern1
 _ZNK8casacore14MSFieldColumns13needInterTimeEi@Base 3.2.1-1kern1
 _ZNK8casacore14MSFieldColumns14extractDirMeasERKNS_10MDirectionEiRdNS_6MEpochE@Base 3.2.1-1kern1
 _ZNK8casacore14MSFieldColumns14measCometIndexEi@Base 3.2.1-1kern1
 _ZNK8casacore14MSFieldColumns16ephemerisDirMeasEid@Base 3.2.1-1kern1
 _ZNK8casacore14MSFieldColumns16referenceDirMeasEid@Base 3.2.1-1kern1
 _ZNK8casacore14MSFieldColumns17matchReferenceDirEjRKNS_11MVDirectionERKdRS1_d@Base 3.2.1-1kern1
 _ZNK8casacore14MSFieldColumns3rhoEid@Base 3.2.1-1kern1
 _ZNK8casacore14MSFieldColumns7getMJDsERdS1_dNS_6MEpochE@Base 3.2.1-1kern1
 _ZNK8casacore14MSFieldColumns9ephemPathEi@Base 3.2.1-1kern1
 _ZNK8casacore14MSPolarization13referenceCopyERKNS_6StringERKNS_5BlockIS1_EE@Base 3.2.1-1kern1
 _ZNK8casacore14MeasurementSet13feedTableNameEv@Base 3.2.1-1kern1
 _ZNK8casacore14MeasurementSet13referenceCopyERKNS_6StringERKNS_5BlockIS1_EE@Base 3.2.1-1kern1
 _ZNK8casacore14MeasurementSet14fieldTableNameEv@Base 3.2.1-1kern1
 _ZNK8casacore14MeasurementSet14stateTableNameEv@Base 3.2.1-1kern1
 _ZNK8casacore14MeasurementSet15sourceTableNameEv@Base 3.2.1-1kern1
 _ZNK8casacore14MeasurementSet15sysCalTableNameEv@Base 3.2.1-1kern1
 _ZNK8casacore14MeasurementSet16antennaTableNameEv@Base 3.2.1-1kern1
 _ZNK8casacore14MeasurementSet16dopplerTableNameEv@Base 3.2.1-1kern1
 _ZNK8casacore14MeasurementSet16flagCmdTableNameEv@Base 3.2.1-1kern1
 _ZNK8casacore14MeasurementSet16historyTableNameEv@Base 3.2.1-1kern1
 _ZNK8casacore14MeasurementSet16weatherTableNameEv@Base 3.2.1-1kern1
 _ZNK8casacore14MeasurementSet17getMrsEligibilityEv@Base 3.2.1-1kern1
 _ZNK8casacore14MeasurementSet17pointingTableNameEv@Base 3.2.1-1kern1
 _ZNK8casacore14MeasurementSet18processorTableNameEv@Base 3.2.1-1kern1
 _ZNK8casacore14MeasurementSet19freqOffsetTableNameEv@Base 3.2.1-1kern1
 _ZNK8casacore14MeasurementSet20observationTableNameEv@Base 3.2.1-1kern1
 _ZNK8casacore14MeasurementSet21polarizationTableNameEv@Base 3.2.1-1kern1
 _ZNK8casacore14MeasurementSet23spectralWindowTableNameEv@Base 3.2.1-1kern1
 _ZNK8casacore14MeasurementSet24dataDescriptionTableNameEv@Base 3.2.1-1kern1
 _ZNK8casacore14MeasurementSet28isEligibleForMemoryResidencyERKNS_6StringE@Base 3.2.1-1kern1
 _ZNK8casacore14MrsEligibility10isEligibleENS_11MSMainEnums18PredefinedKeywordsE@Base 3.2.1-1kern1
 _ZNK8casacore14NewMSSimulator5getMsEv@Base 3.2.1-1kern1
 _ZNK8casacore14StatsHistogramIdE8getIndexEd@Base 3.2.1-1kern1
 _ZNK8casacore15ArrayMeasColumnINS_10MDirectionEE10getMeasRefEv@Base 3.2.1-1kern1
 _ZNK8casacore15ArrayMeasColumnINS_10MDirectionEE3getEjRNS_5ArrayIS1_EEb@Base 3.2.1-1kern1
 _ZNK8casacore15ArrayMeasColumnINS_10MDirectionEE7convertEjRKNS_7MeasRefIS1_EE@Base 3.2.1-1kern1
 _ZNK8casacore15ArrayMeasColumnINS_10MDirectionEE7convertEjRKS1_@Base 3.2.1-1kern1
 _ZNK8casacore15ArrayMeasColumnINS_10MDirectionEE7convertEjj@Base 3.2.1-1kern1
 _ZNK8casacore15ArrayMeasColumnINS_10MDirectionEE9doConvertEjRNS_11MeasConvertIS1_EE@Base 3.2.1-1kern1
 _ZNK8casacore15ArrayMeasColumnINS_10MDirectionEEclEj@Base 3.2.1-1kern1
 _ZNK8casacore15ArrayMeasColumnINS_10MFrequencyEE3getEjRNS_5ArrayIS1_EEb@Base 3.2.1-1kern1
 _ZNK8casacore15MSDerivedValues19getAntennaPositionsEv@Base 3.2.1-1kern1
 _ZNK8casacore15MSDerivedValues21getRadialVelocityTypeEv@Base 3.2.1-1kern1
 _ZNK8casacore15StokesConverter6invertERNS_5ArrayIbEERKS2_@Base 3.2.1-1kern1
 _ZNK8casacore15StokesConverter7convertERNS_5ArrayISt7complexIfEEERKS4_@Base 3.2.1-1kern1
 _ZNK8casacore15StokesConverter7convertERNS_5ArrayIbEERKS2_@Base 3.2.1-1kern1
 _ZNK8casacore15StokesConverter7convertERNS_5ArrayIfEERKS2_b@Base 3.2.1-1kern1
 _ZNK8casacore16ArrayQuantColumnIdE11arrUnitsColEv@Base 3.2.1-1kern1
 _ZNK8casacore16ArrayQuantColumnIdE11scaUnitsColEv@Base 3.2.1-1kern1
 _ZNK8casacore16ArrayQuantColumnIdE11throwIfNullEv@Base 3.2.1-1kern1
 _ZNK8casacore16ArrayQuantColumnIdE14isUnitVariableEv@Base 3.2.1-1kern1
 _ZNK8casacore16ArrayQuantColumnIdE3getEjRNS_5ArrayINS_7QuantumIdEEEERKNS_4UnitEb@Base 3.2.1-1kern1
 _ZNK8casacore16ArrayQuantColumnIdE3getEjRNS_5ArrayINS_7QuantumIdEEEERKNS_6VectorINS_4UnitEEEb@Base 3.2.1-1kern1
 _ZNK8casacore16ArrayQuantColumnIdE3getEjRNS_5ArrayINS_7QuantumIdEEEERKS4_b@Base 3.2.1-1kern1
 _ZNK8casacore16ArrayQuantColumnIdE3getEjRNS_5ArrayINS_7QuantumIdEEEEb@Base 3.2.1-1kern1
 _ZNK8casacore16ArrayQuantColumnIdE6isNullEv@Base 3.2.1-1kern1
 _ZNK8casacore16ArrayQuantColumnIdE7getDataEjRNS_5ArrayINS_7QuantumIdEEEEb@Base 3.2.1-1kern1
 _ZNK8casacore16ArrayQuantColumnIdE8getUnitsEv@Base 3.2.1-1kern1
 _ZNK8casacore16ArrayQuantColumnIdEclEj@Base 3.2.1-1kern1
 _ZNK8casacore16ArrayQuantColumnIdEclEjRKNS_4UnitE@Base 3.2.1-1kern1
 _ZNK8casacore16ArrayQuantColumnIdEclEjRKNS_6VectorINS_4UnitEEE@Base 3.2.1-1kern1
 _ZNK8casacore16ArrayQuantColumnIdEclEjRKNS_7QuantumIdEE@Base 3.2.1-1kern1
 _ZNK8casacore16MSAntennaColumns12matchStationEjRKNS_6StringE@Base 3.2.1-1kern1
 _ZNK8casacore16MSAntennaColumns13matchPositionEjRKNS_6VectorIdEEd@Base 3.2.1-1kern1
 _ZNK8casacore16MSAntennaColumns9matchNameEjRKNS_6StringE@Base 3.2.1-1kern1
 _ZNK8casacore16MSSpectralWindow13referenceCopyERKNS_6StringERKNS_5BlockIS1_EE@Base 3.2.1-1kern1
 _ZNK8casacore16ScalarMeasColumnINS_10MDirectionEE11makeMeasRefEj@Base 3.2.1-1kern1
 _ZNK8casacore16ScalarMeasColumnINS_10MDirectionEE3getEjRS1_@Base 3.2.1-1kern1
 _ZNK8casacore16ScalarMeasColumnINS_10MFrequencyEE11makeMeasRefEj@Base 3.2.1-1kern1
 _ZNK8casacore16ScalarMeasColumnINS_10MFrequencyEE3getEjRS1_@Base 3.2.1-1kern1
 _ZNK8casacore16ScalarMeasColumnINS_6MEpochEE10getMeasRefEv@Base 3.2.1-1kern1
 _ZNK8casacore16ScalarMeasColumnINS_6MEpochEE11makeMeasRefEj@Base 3.2.1-1kern1
 _ZNK8casacore16ScalarMeasColumnINS_6MEpochEE3getEjRS1_@Base 3.2.1-1kern1
 _ZNK8casacore16ScalarMeasColumnINS_6MEpochEE7convertEjRKNS_7MeasRefIS1_EE@Base 3.2.1-1kern1
 _ZNK8casacore16ScalarMeasColumnINS_6MEpochEE7convertEjRKS1_@Base 3.2.1-1kern1
 _ZNK8casacore16ScalarMeasColumnINS_6MEpochEE7convertEjj@Base 3.2.1-1kern1
 _ZNK8casacore16ScalarMeasColumnINS_6MEpochEE9equalRefsERKNS_6MRBaseES5_@Base 3.2.1-1kern1
 _ZNK8casacore16ScalarMeasColumnINS_6MEpochEEclEj@Base 3.2.1-1kern1
 _ZNK8casacore16ScalarMeasColumnINS_9MPositionEE10getMeasRefEv@Base 3.2.1-1kern1
 _ZNK8casacore16ScalarMeasColumnINS_9MPositionEE11makeMeasRefEj@Base 3.2.1-1kern1
 _ZNK8casacore16ScalarMeasColumnINS_9MPositionEE3getEjRS1_@Base 3.2.1-1kern1
 _ZNK8casacore16ScalarMeasColumnINS_9MPositionEE7convertEjRKNS_7MeasRefIS1_EE@Base 3.2.1-1kern1
 _ZNK8casacore16ScalarMeasColumnINS_9MPositionEE7convertEjRKS1_@Base 3.2.1-1kern1
 _ZNK8casacore16ScalarMeasColumnINS_9MPositionEE7convertEjj@Base 3.2.1-1kern1
 _ZNK8casacore16ScalarMeasColumnINS_9MPositionEE9equalRefsERKNS_6MRBaseES5_@Base 3.2.1-1kern1
 _ZNK8casacore16ScalarMeasColumnINS_9MPositionEEclEj@Base 3.2.1-1kern1
 _ZNK8casacore17Allocator_private17BulkAllocatorImplINS_17new_del_allocatorINS_10MDirectionEEEE16allocator_typeidEv@Base 3.2.1-1kern1
 _ZNK8casacore17Allocator_private17BulkAllocatorImplINS_17new_del_allocatorINS_10MFrequencyEEEE16allocator_typeidEv@Base 3.2.1-1kern1
 _ZNK8casacore17Allocator_private17BulkAllocatorImplINS_17new_del_allocatorINS_11RigidVectorIdLi2EEEEEE16allocator_typeidEv@Base 3.2.1-1kern1
 _ZNK8casacore17Allocator_private17BulkAllocatorImplINS_17new_del_allocatorINS_12SquareMatrixISt7complexIfELi2EEEEEE16allocator_typeidEv@Base 3.2.1-1kern1
 _ZNK8casacore17Allocator_private17BulkAllocatorImplINS_17new_del_allocatorINS_4UnitEEEE16allocator_typeidEv@Base 3.2.1-1kern1
 _ZNK8casacore17Allocator_private17BulkAllocatorImplINS_17new_del_allocatorINS_5SliceEEEE16allocator_typeidEv@Base 3.2.1-1kern1
 _ZNK8casacore17Allocator_private17BulkAllocatorImplINS_17new_del_allocatorINS_6MVTimeEEEE16allocator_typeidEv@Base 3.2.1-1kern1
 _ZNK8casacore17Allocator_private17BulkAllocatorImplINS_17new_del_allocatorINS_6Stokes11StokesTypesEEEE16allocator_typeidEv@Base 3.2.1-1kern1
 _ZNK8casacore17Allocator_private17BulkAllocatorImplINS_17new_del_allocatorINS_6VectorINS_5SliceEEEEEE16allocator_typeidEv@Base 3.2.1-1kern1
 _ZNK8casacore17Allocator_private17BulkAllocatorImplINS_17new_del_allocatorINS_6VectorIiEEEEE16allocator_typeidEv@Base 3.2.1-1kern1
 _ZNK8casacore17Allocator_private17BulkAllocatorImplINS_17new_del_allocatorINS_7QuantumIdEEEEE16allocator_typeidEv@Base 3.2.1-1kern1
 _ZNK8casacore17Allocator_private17BulkAllocatorImplINS_17new_del_allocatorINS_9MPositionEEEE16allocator_typeidEv@Base 3.2.1-1kern1
 _ZNK8casacore17Allocator_private17BulkAllocatorImplINS_17new_del_allocatorIPNS_6SlicerEEEE16allocator_typeidEv@Base 3.2.1-1kern1
 _ZNK8casacore17Allocator_private17BulkAllocatorImplINS_17new_del_allocatorIPNS_9MeasCometEEEE16allocator_typeidEv@Base 3.2.1-1kern1
 _ZNK8casacore17Allocator_private17BulkAllocatorImplINS_18casacore_allocatorINS_10CountedPtrINS_11BaseCompareEEELm32EEEE16allocator_typeidEv@Base 3.2.1-1kern1
 _ZNK8casacore17Allocator_private17BulkAllocatorImplINS_18casacore_allocatorINS_10MDirectionELm32EEEE16allocator_typeidEv@Base 3.2.1-1kern1
 _ZNK8casacore17Allocator_private17BulkAllocatorImplINS_18casacore_allocatorINS_10MFrequencyELm32EEEE16allocator_typeidEv@Base 3.2.1-1kern1
 _ZNK8casacore17Allocator_private17BulkAllocatorImplINS_18casacore_allocatorINS_10ROTableRowELm32EEEE16allocator_typeidEv@Base 3.2.1-1kern1
 _ZNK8casacore17Allocator_private17BulkAllocatorImplINS_18casacore_allocatorINS_11RigidVectorIdLi2EEELm32EEEE16allocator_typeidEv@Base 3.2.1-1kern1
 _ZNK8casacore17Allocator_private17BulkAllocatorImplINS_18casacore_allocatorINS_12MSTableIndexELm32EEEE16allocator_typeidEv@Base 3.2.1-1kern1
 _ZNK8casacore17Allocator_private17BulkAllocatorImplINS_18casacore_allocatorINS_12SquareMatrixISt7complexIfELi2EEELm32EEEE16allocator_typeidEv@Base 3.2.1-1kern1
 _ZNK8casacore17Allocator_private17BulkAllocatorImplINS_18casacore_allocatorINS_14MeasurementSetELm32EEEE16allocator_typeidEv@Base 3.2.1-1kern1
 _ZNK8casacore17Allocator_private17BulkAllocatorImplINS_18casacore_allocatorINS_14RecordFieldPtrIiEELm32EEEE16allocator_typeidEv@Base 3.2.1-1kern1
 _ZNK8casacore17Allocator_private17BulkAllocatorImplINS_18casacore_allocatorINS_4UnitELm32EEEE16allocator_typeidEv@Base 3.2.1-1kern1
 _ZNK8casacore17Allocator_private17BulkAllocatorImplINS_18casacore_allocatorINS_5SliceELm32EEEE16allocator_typeidEv@Base 3.2.1-1kern1
 _ZNK8casacore17Allocator_private17BulkAllocatorImplINS_18casacore_allocatorINS_6MVTimeELm32EEEE16allocator_typeidEv@Base 3.2.1-1kern1
 _ZNK8casacore17Allocator_private17BulkAllocatorImplINS_18casacore_allocatorINS_6Stokes11StokesTypesELm32EEEE16allocator_typeidEv@Base 3.2.1-1kern1
 _ZNK8casacore17Allocator_private17BulkAllocatorImplINS_18casacore_allocatorINS_6StringELm32EEEE16allocator_typeidEv@Base 3.2.1-1kern1
 _ZNK8casacore17Allocator_private17BulkAllocatorImplINS_18casacore_allocatorINS_6VectorINS_5SliceEEELm32EEEE16allocator_typeidEv@Base 3.2.1-1kern1
 _ZNK8casacore17Allocator_private17BulkAllocatorImplINS_18casacore_allocatorINS_6VectorIiEELm32EEEE16allocator_typeidEv@Base 3.2.1-1kern1
 _ZNK8casacore17Allocator_private17BulkAllocatorImplINS_18casacore_allocatorINS_7QuantumIdEELm32EEEE16allocator_typeidEv@Base 3.2.1-1kern1
 _ZNK8casacore17Allocator_private17BulkAllocatorImplINS_18casacore_allocatorINS_9MPositionELm32EEEE16allocator_typeidEv@Base 3.2.1-1kern1
 _ZNK8casacore17Allocator_private17BulkAllocatorImplINS_18casacore_allocatorIPNS_6SlicerELm32EEEE16allocator_typeidEv@Base 3.2.1-1kern1
 _ZNK8casacore17Allocator_private17BulkAllocatorImplINS_18casacore_allocatorIPNS_9MeasCometELm32EEEE16allocator_typeidEv@Base 3.2.1-1kern1
 _ZNK8casacore17Allocator_private17BulkAllocatorImplINS_18casacore_allocatorIPvLm32EEEE16allocator_typeidEv@Base 3.2.1-1kern1
 _ZNK8casacore17Allocator_private17BulkAllocatorImplINS_18casacore_allocatorISt7complexIfELm32EEEE16allocator_typeidEv@Base 3.2.1-1kern1
 _ZNK8casacore17Allocator_private17BulkAllocatorImplINS_18casacore_allocatorIbLm32EEEE16allocator_typeidEv@Base 3.2.1-1kern1
 _ZNK8casacore17Allocator_private17BulkAllocatorImplINS_18casacore_allocatorIdLm32EEEE16allocator_typeidEv@Base 3.2.1-1kern1
 _ZNK8casacore17Allocator_private17BulkAllocatorImplINS_18casacore_allocatorIfLm32EEEE16allocator_typeidEv@Base 3.2.1-1kern1
 _ZNK8casacore17Allocator_private17BulkAllocatorImplINS_18casacore_allocatorIiLm32EEEE16allocator_typeidEv@Base 3.2.1-1kern1
 _ZNK8casacore17Allocator_private17BulkAllocatorImplINS_18casacore_allocatorIjLm32EEEE16allocator_typeidEv@Base 3.2.1-1kern1
 _ZNK8casacore17MSDataDescription13referenceCopyERKNS_6StringERKNS_5BlockIS1_EE@Base 3.2.1-1kern1
 _ZNK8casacore17MSPointingColumns10targetMeasEid@Base 3.2.1-1kern1
 _ZNK8casacore17MSPointingColumns13directionMeasEid@Base 3.2.1-1kern1
 _ZNK8casacore17MSPointingColumns13pointingIndexEidi@Base 3.2.1-1kern1
 _ZNK8casacore17MSPointingColumns16sourceOffsetMeasEid@Base 3.2.1-1kern1
 _ZNK8casacore17MSPointingColumns18pointingOffsetMeasEid@Base 3.2.1-1kern1
 _ZNK8casacore17MSSpWindowColumns12matchNumChanEji@Base 3.2.1-1kern1
 _ZNK8casacore17MSSpWindowColumns13allMatchedSpwERKNS_10MFrequencyEjRKNS_7QuantumIdEEiS7_@Base 3.2.1-1kern1
 _ZNK8casacore17MSSpWindowColumns13matchChanFreqEjRKNS_6VectorIdEEd@Base 3.2.1-1kern1
 _ZNK8casacore17MSSpWindowColumns16matchIfConvChainEji@Base 3.2.1-1kern1
 _ZNK8casacore17MSSpWindowColumns17matchRefFrequencyEjNS_10MFrequency5TypesEdd@Base 3.2.1-1kern1
 _ZNK8casacore17MSSpWindowColumns18matchRefFreqCnvtrdEjNS_10MFrequencyEbRKNS_9MeasFrameERKNS_16MSDopplerColumnsERKNS_15MSSourceColumnsEd@Base 3.2.1-1kern1
 _ZNK8casacore17MSSpWindowColumns19matchTotalBandwidthEjdd@Base 3.2.1-1kern1
 _ZNK8casacore17MSSpWindowColumns8matchSpwERKNS_10MFrequencyES3_RKNS_9MeasFrameERKNS_16MSDopplerColumnsERKNS_15MSSourceColumnsEjRKNS_7QuantumIdEEiSG_i@Base 3.2.1-1kern1
 _ZNK8casacore17MSSpWindowColumns8matchSpwERKNS_10MFrequencyEjRKNS_7QuantumIdEEiS7_RNS_6VectorIdEERb@Base 3.2.1-1kern1
 _ZNK8casacore17MSSpWindowColumns8matchSpwERKNS_10MFrequencyEjRKNS_7QuantumIdEEiS7_i@Base 3.2.1-1kern1
 _ZNK8casacore17ScalarQuantColumnIdE11throwIfNullEv@Base 3.2.1-1kern1
 _ZNK8casacore17ScalarQuantColumnIdE14isUnitVariableEv@Base 3.2.1-1kern1
 _ZNK8casacore17ScalarQuantColumnIdE3getEjRNS_7QuantumIdEE@Base 3.2.1-1kern1
 _ZNK8casacore17ScalarQuantColumnIdE3getEjRNS_7QuantumIdEERKNS_4UnitE@Base 3.2.1-1kern1
 _ZNK8casacore17ScalarQuantColumnIdE3getEjRNS_7QuantumIdEERKS3_@Base 3.2.1-1kern1
 _ZNK8casacore17ScalarQuantColumnIdE6isNullEv@Base 3.2.1-1kern1
 _ZNK8casacore17ScalarQuantColumnIdE7getDataEjRNS_7QuantumIdEE@Base 3.2.1-1kern1
 _ZNK8casacore17ScalarQuantColumnIdE8getUnitsEv@Base 3.2.1-1kern1
 _ZNK8casacore17ScalarQuantColumnIdE8unitsColEv@Base 3.2.1-1kern1
 _ZNK8casacore17ScalarQuantColumnIdE9getColumnERKNS_4UnitE@Base 3.2.1-1kern1
 _ZNK8casacore17ScalarQuantColumnIdEclEj@Base 3.2.1-1kern1
 _ZNK8casacore17ScalarQuantColumnIdEclEjRKNS_4UnitE@Base 3.2.1-1kern1
 _ZNK8casacore17ScalarQuantColumnIdEclEjRKNS_7QuantumIdEE@Base 3.2.1-1kern1
 _ZNK8casacore17StatisticsDatasetIdNS_5ArrayIdE16ConstIteratorSTLEPKbS3_E14initThreadVarsERjRyS7_RSt10unique_ptrIA_S3_St14default_deleteISA_EERS9_IA_S5_SB_ISF_EESE_RS9_IA_ySB_ISJ_EEj@Base 3.2.1-1kern1
 _ZNK8casacore17StatisticsDatasetIdNS_5ArrayIdE16ConstIteratorSTLEPKbS3_E20incrementThreadItersERS3_RS5_S7_Ryj@Base 3.2.1-1kern1
 _ZNK8casacore17StatsDataProviderIdNS_5ArrayIdE16ConstIteratorSTLEPKbS3_E14getNMaxThreadsEv@Base 3.2.1-1kern1
