libcasa_casa.so.4 libcasa-casa4 #MINVER#
 JsonGram_flex_debug@Base 3.2.1~
 JsonGramin@Base 3.2.1~
 JsonGramleng@Base 3.2.1~
 JsonGramlineno@Base 3.2.1~
 JsonGramout@Base 3.2.1~
 JsonGramtext@Base 3.2.1~
 JsonGramwrap@Base 3.2.1~
 _Z11JsonGramlexP7YYSTYPE@Base 3.2.1~
 _Z12JsonGramfreePv@Base 3.2.1~
 _Z13JsonGramallocm@Base 3.2.1~
 _Z13JsonGramparsev@Base 3.2.1~
 _Z14JsonGramget_inv@Base 3.2.1~
 _Z14JsonGramset_inP8_IO_FILE@Base 3.2.1~
 _Z15JsonGramget_outv@Base 3.2.1~
 _Z15JsonGramreallocPvm@Base 3.2.1~
 _Z15JsonGramrestartP8_IO_FILE@Base 3.2.1~
 _Z15JsonGramset_outP8_IO_FILE@Base 3.2.1~
 _Z16JsonGramget_lengv@Base 3.2.1~
 _Z16JsonGramget_textv@Base 3.2.1~
 _Z17JsonGramget_debugv@Base 3.2.1~
 _Z17JsonGramset_debugi@Base 3.2.1~
 _Z18JsonGramget_linenov@Base 3.2.1~
 _Z18JsonGramset_linenoi@Base 3.2.1~
 _Z19JsonGram_scan_bytesPKci@Base 3.2.1~
 _Z19JsonGramlex_destroyv@Base 3.2.1~
 _Z20JsonGram_scan_bufferPcm@Base 3.2.1~
 _Z20JsonGram_scan_stringPKc@Base 3.2.1~
 _Z21JsonGram_flush_bufferP15yy_buffer_state@Base 3.2.1~
 _Z22JsonGram_create_bufferP8_IO_FILEi@Base 3.2.1~
 _Z22JsonGram_delete_bufferP15yy_buffer_state@Base 3.2.1~
 _Z24JsonGrampop_buffer_statev@Base 3.2.1~
 _Z25JsonGram_switch_to_bufferP15yy_buffer_state@Base 3.2.1~
 _Z25JsonGrampush_buffer_stateP15yy_buffer_state@Base 3.2.1~
 _ZGVN8casacore11AipsrcValueINS_6StringEE10theirMutexE@Base 3.2.1~
 _ZGVN8casacore11AipsrcValueINS_6StringEE5myp_pE@Base 3.2.1~
 _ZGVN8casacore11AipsrcValueIdE10theirMutexE@Base 3.2.1~
 _ZGVN8casacore11AipsrcValueIdE5myp_pE@Base 3.2.1~
 _ZGVN8casacore11AipsrcValueIiE10theirMutexE@Base 3.2.1~
 _ZGVN8casacore11AipsrcValueIiE5myp_pE@Base 3.2.1~
 _ZGVN8casacore15NewDelAllocatorINS_5SliceEE5valueE@Base 3.2.1~
 _ZGVN8casacore15NewDelAllocatorINS_6StringEE5valueE@Base 3.2.1~
 _ZGVN8casacore15NewDelAllocatorINS_6VectorINS_5SliceEEEE5valueE@Base 3.2.1~
 _ZGVN8casacore15NewDelAllocatorINS_7QuantumIdEEE5valueE@Base 3.2.1~
 _ZGVN8casacore15NewDelAllocatorISt7complexIdEE5valueE@Base 3.2.1~
 _ZGVN8casacore15NewDelAllocatorISt7complexIfEE5valueE@Base 3.2.1~
 _ZGVN8casacore15NewDelAllocatorIbE5valueE@Base 3.2.1~
 _ZGVN8casacore15NewDelAllocatorIcE5valueE@Base 3.2.1~
 _ZGVN8casacore15NewDelAllocatorIdE5valueE@Base 3.2.1~
 _ZGVN8casacore15NewDelAllocatorIfE5valueE@Base 3.2.1~
 _ZGVN8casacore15NewDelAllocatorIhE5valueE@Base 3.2.1~
 _ZGVN8casacore15NewDelAllocatorIiE5valueE@Base 3.2.1~
 _ZGVN8casacore15NewDelAllocatorIjE5valueE@Base 3.2.1~
 _ZGVN8casacore15NewDelAllocatorIsE5valueE@Base 3.2.1~
 _ZGVN8casacore15NewDelAllocatorItE5valueE@Base 3.2.1~
 _ZGVN8casacore15NewDelAllocatorIxE5valueE@Base 3.2.1~
 _ZGVN8casacore16DefaultAllocatorINS_5SliceEE5valueE@Base 3.2.1~
 _ZGVN8casacore16DefaultAllocatorINS_6StringEE5valueE@Base 3.2.1~
 _ZGVN8casacore16DefaultAllocatorINS_6VectorINS_5SliceEEEE5valueE@Base 3.2.1~
 _ZGVN8casacore16DefaultAllocatorINS_7QuantumIdEEE5valueE@Base 3.2.1~
 _ZGVN8casacore16DefaultAllocatorISt7complexIdEE5valueE@Base 3.2.1~
 _ZGVN8casacore16DefaultAllocatorISt7complexIfEE5valueE@Base 3.2.1~
 _ZGVN8casacore16DefaultAllocatorIbE5valueE@Base 3.2.1~
 _ZGVN8casacore16DefaultAllocatorIcE5valueE@Base 3.2.1~
 _ZGVN8casacore16DefaultAllocatorIdE5valueE@Base 3.2.1~
 _ZGVN8casacore16DefaultAllocatorIfE5valueE@Base 3.2.1~
 _ZGVN8casacore16DefaultAllocatorIhE5valueE@Base 3.2.1~
 _ZGVN8casacore16DefaultAllocatorIiE5valueE@Base 3.2.1~
 _ZGVN8casacore16DefaultAllocatorIjE5valueE@Base 3.2.1~
 _ZGVN8casacore16DefaultAllocatorIsE5valueE@Base 3.2.1~
 _ZGVN8casacore16DefaultAllocatorItE5valueE@Base 3.2.1~
 _ZGVN8casacore16DefaultAllocatorIxE5valueE@Base 3.2.1~
 _ZGVN8casacore17Allocator_private17BulkAllocatorImplINS_17new_del_allocatorINS_5SliceEEEE9allocatorE@Base 3.2.1~
 _ZGVN8casacore17Allocator_private17BulkAllocatorImplINS_17new_del_allocatorINS_6StringEEEE9allocatorE@Base 3.2.1~
 _ZGVN8casacore17Allocator_private17BulkAllocatorImplINS_17new_del_allocatorINS_6VectorINS_5SliceEEEEEE9allocatorE@Base 3.2.1~
 _ZGVN8casacore17Allocator_private17BulkAllocatorImplINS_17new_del_allocatorINS_7QuantumIdEEEEE9allocatorE@Base 3.2.1~
 _ZGVN8casacore17Allocator_private17BulkAllocatorImplINS_17new_del_allocatorIPvEEE9allocatorE@Base 3.2.1~
 _ZGVN8casacore17Allocator_private17BulkAllocatorImplINS_17new_del_allocatorISt7complexIdEEEE9allocatorE@Base 3.2.1~
 _ZGVN8casacore17Allocator_private17BulkAllocatorImplINS_17new_del_allocatorISt7complexIfEEEE9allocatorE@Base 3.2.1~
 _ZGVN8casacore17Allocator_private17BulkAllocatorImplINS_17new_del_allocatorIbEEE9allocatorE@Base 3.2.1~
 _ZGVN8casacore17Allocator_private17BulkAllocatorImplINS_17new_del_allocatorIcEEE9allocatorE@Base 3.2.1~
 _ZGVN8casacore17Allocator_private17BulkAllocatorImplINS_17new_del_allocatorIdEEE9allocatorE@Base 3.2.1~
 _ZGVN8casacore17Allocator_private17BulkAllocatorImplINS_17new_del_allocatorIfEEE9allocatorE@Base 3.2.1~
 _ZGVN8casacore17Allocator_private17BulkAllocatorImplINS_17new_del_allocatorIhEEE9allocatorE@Base 3.2.1~
 _ZGVN8casacore17Allocator_private17BulkAllocatorImplINS_17new_del_allocatorIiEEE9allocatorE@Base 3.2.1~
 _ZGVN8casacore17Allocator_private17BulkAllocatorImplINS_17new_del_allocatorIjEEE9allocatorE@Base 3.2.1~
 _ZGVN8casacore17Allocator_private17BulkAllocatorImplINS_17new_del_allocatorIsEEE9allocatorE@Base 3.2.1~
 _ZGVN8casacore17Allocator_private17BulkAllocatorImplINS_17new_del_allocatorItEEE9allocatorE@Base 3.2.1~
 _ZGVN8casacore17Allocator_private17BulkAllocatorImplINS_17new_del_allocatorIxEEE9allocatorE@Base 3.2.1~
 _ZGVN8casacore17Allocator_private17BulkAllocatorImplINS_18casacore_allocatorINS_5SliceELm32EEEE9allocatorE@Base 3.2.1~
 _ZGVN8casacore17Allocator_private17BulkAllocatorImplINS_18casacore_allocatorINS_6StringELm32EEEE9allocatorE@Base 3.2.1~
 _ZGVN8casacore17Allocator_private17BulkAllocatorImplINS_18casacore_allocatorINS_6VectorINS_5SliceEEELm32EEEE9allocatorE@Base 3.2.1~
 _ZGVN8casacore17Allocator_private17BulkAllocatorImplINS_18casacore_allocatorINS_6VectorINS_6StringEEELm32EEEE9allocatorE@Base 3.2.1~
 _ZGVN8casacore17Allocator_private17BulkAllocatorImplINS_18casacore_allocatorINS_6VectorIbEELm32EEEE9allocatorE@Base 3.2.1~
 _ZGVN8casacore17Allocator_private17BulkAllocatorImplINS_18casacore_allocatorINS_7QuantumIdEELm32EEEE9allocatorE@Base 3.2.1~
 _ZGVN8casacore17Allocator_private17BulkAllocatorImplINS_18casacore_allocatorINS_9IPositionELm32EEEE9allocatorE@Base 3.2.1~
 _ZGVN8casacore17Allocator_private17BulkAllocatorImplINS_18casacore_allocatorIPvLm32EEEE9allocatorE@Base 3.2.1~
 _ZGVN8casacore17Allocator_private17BulkAllocatorImplINS_18casacore_allocatorISt7complexIdELm32EEEE9allocatorE@Base 3.2.1~
 _ZGVN8casacore17Allocator_private17BulkAllocatorImplINS_18casacore_allocatorISt7complexIfELm32EEEE9allocatorE@Base 3.2.1~
 _ZGVN8casacore17Allocator_private17BulkAllocatorImplINS_18casacore_allocatorIbLm32EEEE9allocatorE@Base 3.2.1~
 _ZGVN8casacore17Allocator_private17BulkAllocatorImplINS_18casacore_allocatorIcLm32EEEE9allocatorE@Base 3.2.1~
 _ZGVN8casacore17Allocator_private17BulkAllocatorImplINS_18casacore_allocatorIdLm32EEEE9allocatorE@Base 3.2.1~
 _ZGVN8casacore17Allocator_private17BulkAllocatorImplINS_18casacore_allocatorIfLm32EEEE9allocatorE@Base 3.2.1~
 _ZGVN8casacore17Allocator_private17BulkAllocatorImplINS_18casacore_allocatorIhLm32EEEE9allocatorE@Base 3.2.1~
 _ZGVN8casacore17Allocator_private17BulkAllocatorImplINS_18casacore_allocatorIiLm32EEEE9allocatorE@Base 3.2.1~
 _ZGVN8casacore17Allocator_private17BulkAllocatorImplINS_18casacore_allocatorIjLm32EEEE9allocatorE@Base 3.2.1~
 _ZGVN8casacore17Allocator_private17BulkAllocatorImplINS_18casacore_allocatorIsLm32EEEE9allocatorE@Base 3.2.1~
 _ZGVN8casacore17Allocator_private17BulkAllocatorImplINS_18casacore_allocatorItLm32EEEE9allocatorE@Base 3.2.1~
 _ZGVN8casacore17Allocator_private17BulkAllocatorImplINS_18casacore_allocatorIxLm32EEEE9allocatorE@Base 3.2.1~
 _ZGVN8casacore17Allocator_private17BulkAllocatorImplINS_18casacore_allocatorIyLm32EEEE9allocatorE@Base 3.2.1~
 _ZGVZN8casacore17Allocator_private17get_allocator_rawINS_17new_del_allocatorINS_5SliceEEEEEPNS0_17BulkAllocatorImplIT_EEvE3ptr@Base 3.2.1~
 _ZGVZN8casacore17Allocator_private17get_allocator_rawINS_17new_del_allocatorINS_6StringEEEEEPNS0_17BulkAllocatorImplIT_EEvE3ptr@Base 3.2.1~
 _ZGVZN8casacore17Allocator_private17get_allocator_rawINS_17new_del_allocatorINS_6VectorINS_5SliceEEEEEEEPNS0_17BulkAllocatorImplIT_EEvE3ptr@Base 3.2.1~
 _ZGVZN8casacore17Allocator_private17get_allocator_rawINS_17new_del_allocatorINS_7QuantumIdEEEEEEPNS0_17BulkAllocatorImplIT_EEvE3ptr@Base 3.2.1~
 _ZGVZN8casacore17Allocator_private17get_allocator_rawINS_17new_del_allocatorIPvEEEEPNS0_17BulkAllocatorImplIT_EEvE3ptr@Base 3.2.1~
 _ZGVZN8casacore17Allocator_private17get_allocator_rawINS_17new_del_allocatorISt7complexIdEEEEEPNS0_17BulkAllocatorImplIT_EEvE3ptr@Base 3.2.1~
 _ZGVZN8casacore17Allocator_private17get_allocator_rawINS_17new_del_allocatorISt7complexIfEEEEEPNS0_17BulkAllocatorImplIT_EEvE3ptr@Base 3.2.1~
 _ZGVZN8casacore17Allocator_private17get_allocator_rawINS_17new_del_allocatorIbEEEEPNS0_17BulkAllocatorImplIT_EEvE3ptr@Base 3.2.1~
 _ZGVZN8casacore17Allocator_private17get_allocator_rawINS_17new_del_allocatorIcEEEEPNS0_17BulkAllocatorImplIT_EEvE3ptr@Base 3.2.1~
 _ZGVZN8casacore17Allocator_private17get_allocator_rawINS_17new_del_allocatorIdEEEEPNS0_17BulkAllocatorImplIT_EEvE3ptr@Base 3.2.1~
 _ZGVZN8casacore17Allocator_private17get_allocator_rawINS_17new_del_allocatorIfEEEEPNS0_17BulkAllocatorImplIT_EEvE3ptr@Base 3.2.1~
 _ZGVZN8casacore17Allocator_private17get_allocator_rawINS_17new_del_allocatorIhEEEEPNS0_17BulkAllocatorImplIT_EEvE3ptr@Base 3.2.1~
 _ZGVZN8casacore17Allocator_private17get_allocator_rawINS_17new_del_allocatorIiEEEEPNS0_17BulkAllocatorImplIT_EEvE3ptr@Base 3.2.1~
 _ZGVZN8casacore17Allocator_private17get_allocator_rawINS_17new_del_allocatorIjEEEEPNS0_17BulkAllocatorImplIT_EEvE3ptr@Base 3.2.1~
 _ZGVZN8casacore17Allocator_private17get_allocator_rawINS_17new_del_allocatorIsEEEEPNS0_17BulkAllocatorImplIT_EEvE3ptr@Base 3.2.1~
 _ZGVZN8casacore17Allocator_private17get_allocator_rawINS_17new_del_allocatorItEEEEPNS0_17BulkAllocatorImplIT_EEvE3ptr@Base 3.2.1~
 _ZGVZN8casacore17Allocator_private17get_allocator_rawINS_17new_del_allocatorIxEEEEPNS0_17BulkAllocatorImplIT_EEvE3ptr@Base 3.2.1~
 _ZGVZN8casacore17Allocator_private17get_allocator_rawINS_18casacore_allocatorINS_5SliceELm32EEEEEPNS0_17BulkAllocatorImplIT_EEvE3ptr@Base 3.2.1~
 _ZGVZN8casacore17Allocator_private17get_allocator_rawINS_18casacore_allocatorINS_6StringELm32EEEEEPNS0_17BulkAllocatorImplIT_EEvE3ptr@Base 3.2.1~
 _ZGVZN8casacore17Allocator_private17get_allocator_rawINS_18casacore_allocatorINS_6VectorINS_5SliceEEELm32EEEEEPNS0_17BulkAllocatorImplIT_EEvE3ptr@Base 3.2.1~
 _ZGVZN8casacore17Allocator_private17get_allocator_rawINS_18casacore_allocatorINS_6VectorINS_6StringEEELm32EEEEEPNS0_17BulkAllocatorImplIT_EEvE3ptr@Base 3.2.1~
 _ZGVZN8casacore17Allocator_private17get_allocator_rawINS_18casacore_allocatorINS_6VectorIbEELm32EEEEEPNS0_17BulkAllocatorImplIT_EEvE3ptr@Base 3.2.1~
 _ZGVZN8casacore17Allocator_private17get_allocator_rawINS_18casacore_allocatorINS_7QuantumIdEELm32EEEEEPNS0_17BulkAllocatorImplIT_EEvE3ptr@Base 3.2.1~
 _ZGVZN8casacore17Allocator_private17get_allocator_rawINS_18casacore_allocatorINS_9IPositionELm32EEEEEPNS0_17BulkAllocatorImplIT_EEvE3ptr@Base 3.2.1~
 _ZGVZN8casacore17Allocator_private17get_allocator_rawINS_18casacore_allocatorIPvLm32EEEEEPNS0_17BulkAllocatorImplIT_EEvE3ptr@Base 3.2.1~
 _ZGVZN8casacore17Allocator_private17get_allocator_rawINS_18casacore_allocatorISt7complexIdELm32EEEEEPNS0_17BulkAllocatorImplIT_EEvE3ptr@Base 3.2.1~
 _ZGVZN8casacore17Allocator_private17get_allocator_rawINS_18casacore_allocatorISt7complexIfELm32EEEEEPNS0_17BulkAllocatorImplIT_EEvE3ptr@Base 3.2.1~
 _ZGVZN8casacore17Allocator_private17get_allocator_rawINS_18casacore_allocatorIbLm32EEEEEPNS0_17BulkAllocatorImplIT_EEvE3ptr@Base 3.2.1~
 _ZGVZN8casacore17Allocator_private17get_allocator_rawINS_18casacore_allocatorIcLm32EEEEEPNS0_17BulkAllocatorImplIT_EEvE3ptr@Base 3.2.1~
 _ZGVZN8casacore17Allocator_private17get_allocator_rawINS_18casacore_allocatorIdLm32EEEEEPNS0_17BulkAllocatorImplIT_EEvE3ptr@Base 3.2.1~
 _ZGVZN8casacore17Allocator_private17get_allocator_rawINS_18casacore_allocatorIfLm32EEEEEPNS0_17BulkAllocatorImplIT_EEvE3ptr@Base 3.2.1~
 _ZGVZN8casacore17Allocator_private17get_allocator_rawINS_18casacore_allocatorIhLm32EEEEEPNS0_17BulkAllocatorImplIT_EEvE3ptr@Base 3.2.1~
 _ZGVZN8casacore17Allocator_private17get_allocator_rawINS_18casacore_allocatorIiLm32EEEEEPNS0_17BulkAllocatorImplIT_EEvE3ptr@Base 3.2.1~
 _ZGVZN8casacore17Allocator_private17get_allocator_rawINS_18casacore_allocatorIjLm32EEEEEPNS0_17BulkAllocatorImplIT_EEvE3ptr@Base 3.2.1~
 _ZGVZN8casacore17Allocator_private17get_allocator_rawINS_18casacore_allocatorIsLm32EEEEEPNS0_17BulkAllocatorImplIT_EEvE3ptr@Base 3.2.1~
 _ZGVZN8casacore17Allocator_private17get_allocator_rawINS_18casacore_allocatorItLm32EEEEEPNS0_17BulkAllocatorImplIT_EEvE3ptr@Base 3.2.1~
 _ZGVZN8casacore17Allocator_private17get_allocator_rawINS_18casacore_allocatorIxLm32EEEEEPNS0_17BulkAllocatorImplIT_EEvE3ptr@Base 3.2.1~
 _ZGVZN8casacore17Allocator_private17get_allocator_rawINS_18casacore_allocatorIyLm32EEEEEPNS0_17BulkAllocatorImplIT_EEvE3ptr@Base 3.2.1~
 _ZGVZN8casacore2QC1cEvE6result@Base 3.2.1~
 _ZGVZN8casacore2QC1hEvE6result@Base 3.2.1~
 _ZGVZN8casacore7ValType10strcomplexEvE6result@Base 3.2.1~
 _ZGVZN8casacore7ValType10strunknownEvE6result@Base 3.2.1~
 _ZGVZN8casacore7ValType11strdcomplexEvE6result@Base 3.2.1~
 _ZGVZN8casacore7ValType6strintEvE6result@Base 3.2.1~
 _ZGVZN8casacore7ValType7strboolEvE6result@Base 3.2.1~
 _ZGVZN8casacore7ValType7strcharEvE6result@Base 3.2.1~
 _ZGVZN8casacore7ValType7struintEvE6result@Base 3.2.1~
 _ZGVZN8casacore7ValType8strfloatEvE6result@Base 3.2.1~
 _ZGVZN8casacore7ValType8strint64EvE6result@Base 3.2.1~
 _ZGVZN8casacore7ValType8strotherEvE6result@Base 3.2.1~
 _ZGVZN8casacore7ValType8strshortEvE6result@Base 3.2.1~
 _ZGVZN8casacore7ValType8strtableEvE6result@Base 3.2.1~
 _ZGVZN8casacore7ValType8strucharEvE6result@Base 3.2.1~
 _ZGVZN8casacore7ValType9strdoubleEvE6result@Base 3.2.1~
 _ZGVZN8casacore7ValType9strrecordEvE6result@Base 3.2.1~
 _ZGVZN8casacore7ValType9strstringEvE6result@Base 3.2.1~
 _ZGVZN8casacore7ValType9strushortEvE6result@Base 3.2.1~
 _ZGVZN8casacore8RegisterINS_10MVBaselineEEEjPKT_E8callOnce@Base 3.2.1~
 _ZGVZN8casacore8RegisterINS_10MVPositionEEEjPKT_E8callOnce@Base 3.2.1~
 _ZGVZN8casacore8RegisterINS_11MVDirectionEEEjPKT_E8callOnce@Base 3.2.1~
 _ZGVZN8casacore8RegisterINS_11MVFrequencyEEEjPKT_E8callOnce@Base 3.2.1~
 _ZGVZN8casacore8RegisterINS_12RecordNoticeEEEjPKT_E8callOnce@Base 3.2.1~
 _ZGVZN8casacore8RegisterINS_15MVEarthMagneticEEEjPKT_E8callOnce@Base 3.2.1~
 _ZGVZN8casacore8RegisterINS_16MVRadialVelocityEEEjPKT_E8callOnce@Base 3.2.1~
 _ZGVZN8casacore8RegisterINS_5MVuvwEEEjPKT_E8callOnce@Base 3.2.1~
 _ZGVZN8casacore8RegisterINS_7MVEpochEEEjPKT_E8callOnce@Base 3.2.1~
 _ZGVZN8casacore8RegisterINS_8MVDoubleEEEjPKT_E8callOnce@Base 3.2.1~
 _ZGVZN8casacore8RegisterINS_9MVDopplerEEEjPKT_E8callOnce@Base 3.2.1~
 _ZGVZNK8casacore8AppState8dataPathB5cxx11EvE6result@Base 3.2.1~
 _ZN8casacore10AbortErrorC1EPKcNS_9AipsError8CategoryE@Base 3.2.1~
 _ZN8casacore10AbortErrorC1ERKNS_6StringENS_9AipsError8CategoryE@Base 3.2.1~
 _ZN8casacore10AbortErrorC2EPKcNS_9AipsError8CategoryE@Base 3.2.1~
 _ZN8casacore10AbortErrorC2ERKNS_6StringENS_9AipsError8CategoryE@Base 3.2.1~
 _ZN8casacore10AbortErrorD0Ev@Base 3.2.1~
 _ZN8casacore10AbortErrorD1Ev@Base 3.2.1~
 _ZN8casacore10AbortErrorD2Ev@Base 3.2.1~
 _ZN8casacore10AllocErrorD0Ev@Base 3.2.1~
 _ZN8casacore10AllocErrorD1Ev@Base 3.2.1~
 _ZN8casacore10AllocErrorD2Ev@Base 3.2.1~
 _ZN8casacore10ArrayErrorC1ENS_9AipsError8CategoryE@Base 3.2.1~
 _ZN8casacore10ArrayErrorC1EPKcNS_9AipsError8CategoryE@Base 3.2.1~
 _ZN8casacore10ArrayErrorC1ERKNS_6StringENS_9AipsError8CategoryE@Base 3.2.1~
 _ZN8casacore10ArrayErrorC2ENS_9AipsError8CategoryE@Base 3.2.1~
 _ZN8casacore10ArrayErrorC2EPKcNS_9AipsError8CategoryE@Base 3.2.1~
 _ZN8casacore10ArrayErrorC2ERKNS_6StringENS_9AipsError8CategoryE@Base 3.2.1~
 _ZN8casacore10ArrayErrorD0Ev@Base 3.2.1~
 _ZN8casacore10ArrayErrorD1Ev@Base 3.2.1~
 _ZN8casacore10ArrayErrorD2Ev@Base 3.2.1~
 _ZN8casacore10BlockTrace11doTraceFreeEPKvmNS_8DataTypeEm@Base 3.2.1~
 _ZN8casacore10BlockTrace12doTraceAllocEPKvmNS_8DataTypeEm@Base 3.2.1~
 _ZN8casacore10BlockTrace12itsTraceSizeE@Base 3.2.1~
 _ZN8casacore10BlockTrace12setTraceSizeEm@Base 3.2.1~
 _ZN8casacore10BucketBase5flushEv@Base 3.2.1~
 _ZN8casacore10BucketBase6extendEj@Base 3.2.1~
 _ZN8casacore10BucketBase6resyncEj@Base 3.2.1~
 _ZN8casacore10BucketBaseC1EPNS_10BucketFileExjj@Base 3.2.1~
 _ZN8casacore10BucketBaseC2EPNS_10BucketFileExjj@Base 3.2.1~
 _ZN8casacore10BucketBaseD0Ev@Base 3.2.1~
 _ZN8casacore10BucketBaseD1Ev@Base 3.2.1~
 _ZN8casacore10BucketBaseD2Ev@Base 3.2.1~
 _ZN8casacore10BucketFile12createMapBufEv@Base 3.2.1~
 _ZN8casacore10BucketFile12deleteMapBufEv@Base 3.2.1~
 _ZN8casacore10BucketFile13makeFilebufIOEj@Base 3.2.1~
 _ZN8casacore10BucketFile4openEv@Base 3.2.1~
 _ZN8casacore10BucketFile4readEPvj@Base 3.2.1~
 _ZN8casacore10BucketFile4seekEx@Base 3.2.1~
 _ZN8casacore10BucketFile5closeEv@Base 3.2.1~
 _ZN8casacore10BucketFile5fsyncEv@Base 3.2.1~
 _ZN8casacore10BucketFile5setRWEv@Base 3.2.1~
 _ZN8casacore10BucketFile5writeEPKvj@Base 3.2.1~
 _ZN8casacore10BucketFile6removeEv@Base 3.2.1~
 _ZN8casacore10BucketFileC1ERKNS_6StringEbjbPNS_13MultiFileBaseE@Base 3.2.1~
 _ZN8casacore10BucketFileC1ERKNS_6StringEjbPNS_13MultiFileBaseE@Base 3.2.1~
 _ZN8casacore10BucketFileC2ERKNS_6StringEbjbPNS_13MultiFileBaseE@Base 3.2.1~
 _ZN8casacore10BucketFileC2ERKNS_6StringEjbPNS_13MultiFileBaseE@Base 3.2.1~
 _ZN8casacore10BucketFileD0Ev@Base 3.2.1~
 _ZN8casacore10BucketFileD1Ev@Base 3.2.1~
 _ZN8casacore10BucketFileD2Ev@Base 3.2.1~
 _ZN8casacore10ByteSource4readEmPNS_6StringE@Base 3.2.1~
 _ZN8casacore10ByteSource4readEmPSt7complexIdE@Base 3.2.1~
 _ZN8casacore10ByteSource4readEmPSt7complexIfE@Base 3.2.1~
 _ZN8casacore10ByteSource4readEmPb@Base 3.2.1~
 _ZN8casacore10ByteSource4readEmPc@Base 3.2.1~
 _ZN8casacore10ByteSource4readEmPd@Base 3.2.1~
 _ZN8casacore10ByteSource4readEmPf@Base 3.2.1~
 _ZN8casacore10ByteSource4readEmPh@Base 3.2.1~
 _ZN8casacore10ByteSource4readEmPi@Base 3.2.1~
 _ZN8casacore10ByteSource4readEmPj@Base 3.2.1~
 _ZN8casacore10ByteSource4readEmPs@Base 3.2.1~
 _ZN8casacore10ByteSource4readEmPt@Base 3.2.1~
 _ZN8casacore10ByteSource4readEmPx@Base 3.2.1~
 _ZN8casacore10ByteSource4readEmPy@Base 3.2.1~
 _ZN8casacore10ByteSourceC1EPNS_6TypeIOEb@Base 3.2.1~
 _ZN8casacore10ByteSourceC1ERKS0_@Base 3.2.1~
 _ZN8casacore10ByteSourceC1Ev@Base 3.2.1~
 _ZN8casacore10ByteSourceC2EPNS_6TypeIOEb@Base 3.2.1~
 _ZN8casacore10ByteSourceC2ERKS0_@Base 3.2.1~
 _ZN8casacore10ByteSourceC2Ev@Base 3.2.1~
 _ZN8casacore10ByteSourceD0Ev@Base 3.2.1~
 _ZN8casacore10ByteSourceD1Ev@Base 3.2.1~
 _ZN8casacore10ByteSourceD2Ev@Base 3.2.1~
 _ZN8casacore10ByteSourceaSERKS0_@Base 3.2.1~
 _ZN8casacore10ByteSourcersERNS_6StringE@Base 3.2.1~
 _ZN8casacore10ByteSourcersERSt7complexIdE@Base 3.2.1~
 _ZN8casacore10ByteSourcersERSt7complexIfE@Base 3.2.1~
 _ZN8casacore10ByteSourcersERb@Base 3.2.1~
 _ZN8casacore10ByteSourcersERc@Base 3.2.1~
 _ZN8casacore10ByteSourcersERd@Base 3.2.1~
 _ZN8casacore10ByteSourcersERf@Base 3.2.1~
 _ZN8casacore10ByteSourcersERh@Base 3.2.1~
 _ZN8casacore10ByteSourcersERi@Base 3.2.1~
 _ZN8casacore10ByteSourcersERj@Base 3.2.1~
 _ZN8casacore10ByteSourcersERs@Base 3.2.1~
 _ZN8casacore10ByteSourcersERt@Base 3.2.1~
 _ZN8casacore10ByteSourcersERx@Base 3.2.1~
 _ZN8casacore10ByteSourcersERy@Base 3.2.1~
 _ZN8casacore10Conversion10bitToBool_EPvPKvm@Base 3.2.1~
 _ZN8casacore10Conversion9bitToBoolEPvPKvm@Base 3.2.1~
 _ZN8casacore10Conversion9bitToBoolEPvPKvmm@Base 3.2.1~
 _ZN8casacore10Conversion9boolToBitEPvPKvm@Base 3.2.1~
 _ZN8casacore10Conversion9boolToBitEPvPKvmm@Base 3.2.1~
 _ZN8casacore10Conversion9valueCopyEPvPKvm@Base 3.2.1~
 _ZN8casacore10CountedPtrINS_5BlockINS_6StringEEEEaSEPS3_@Base 3.2.1~
 _ZN8casacore10CountedPtrINS_5BlockISt7complexIdEEEEaSEPS4_@Base 3.2.1~
 _ZN8casacore10CountedPtrINS_5BlockISt7complexIfEEEEaSEPS4_@Base 3.2.1~
 _ZN8casacore10CountedPtrINS_5BlockIbEEEaSEPS2_@Base 3.2.1~
 _ZN8casacore10CountedPtrINS_5BlockIcEEEaSEPS2_@Base 3.2.1~
 _ZN8casacore10CountedPtrINS_5BlockIdEEEaSEPS2_@Base 3.2.1~
 _ZN8casacore10CountedPtrINS_5BlockIfEEEaSEPS2_@Base 3.2.1~
 _ZN8casacore10CountedPtrINS_5BlockIhEEEaSEPS2_@Base 3.2.1~
 _ZN8casacore10CountedPtrINS_5BlockIiEEEaSEPS2_@Base 3.2.1~
 _ZN8casacore10CountedPtrINS_5BlockIjEEEaSEPS2_@Base 3.2.1~
 _ZN8casacore10CountedPtrINS_5BlockIsEEEaSEPS2_@Base 3.2.1~
 _ZN8casacore10CountedPtrINS_5BlockItEEEaSEPS2_@Base 3.2.1~
 _ZN8casacore10CountedPtrINS_5BlockIxEEEaSEPS2_@Base 3.2.1~
 _ZN8casacore10FileLocker7acquireENS0_8LockTypeEj@Base 3.2.1~
 _ZN8casacore10FileLocker7canLockENS0_8LockTypeE@Base 3.2.1~
 _ZN8casacore10FileLocker7canLockERjNS0_8LockTypeE@Base 3.2.1~
 _ZN8casacore10FileLocker7releaseEv@Base 3.2.1~
 _ZN8casacore10FileLockerC1Eijj@Base 3.2.1~
 _ZN8casacore10FileLockerC1Ev@Base 3.2.1~
 _ZN8casacore10FileLockerC2Eijj@Base 3.2.1~
 _ZN8casacore10FileLockerC2Ev@Base 3.2.1~
 _ZN8casacore10FileLockerD1Ev@Base 3.2.1~
 _ZN8casacore10FileLockerD2Ev@Base 3.2.1~
 _ZN8casacore10HDF5Object11throwNoHDF5Ev@Base 3.2.1~
 _ZN8casacore10HDF5Object14hasHDF5SupportEv@Base 3.2.1~
 _ZN8casacore10HDF5ObjectD0Ev@Base 3.2.1~
 _ZN8casacore10HDF5ObjectD1Ev@Base 3.2.1~
 _ZN8casacore10HDF5ObjectD2Ev@Base 3.2.1~
 _ZN8casacore10HDF5Record10readRecordERKNS_10HDF5ObjectERKNS_6StringE@Base 3.2.1~
 _ZN8casacore10HDF5Record10readScalarEllRKNS_6StringERNS_15RecordInterfaceE@Base 3.2.1~
 _ZN8casacore10HDF5Record10writeArrayElRKNS_6StringEPKvRKNS_9IPositionERKNS_12HDF5DataTypeE@Base 3.2.1~
 _ZN8casacore10HDF5Record11writeRecordERKNS_10HDF5ObjectERKNS_6StringERKNS_15RecordInterfaceE@Base 3.2.1~
 _ZN8casacore10HDF5Record11writeScalarElRKNS_6StringEPKvRKNS_12HDF5DataTypeE@Base 3.2.1~
 _ZN8casacore10HDF5Record12doReadRecordEl@Base 3.2.1~
 _ZN8casacore10HDF5Record13doWriteRecordERKNS_10HDF5ObjectERKNS_15RecordInterfaceE@Base 3.2.1~
 _ZN8casacore10HDF5Record13readArrStringElRKNS_9IPositionERKNS_6StringERNS_15RecordInterfaceE@Base 3.2.1~
 _ZN8casacore10HDF5Record13readScaStringEliRKNS_6StringERNS_15RecordInterfaceE@Base 3.2.1~
 _ZN8casacore10HDF5Record14readEmptyArrayElRKNS_6StringERNS_15RecordInterfaceE@Base 3.2.1~
 _ZN8casacore10HDF5Record14writeArrStringElRKNS_6StringERKNS_5ArrayIS1_EE@Base 3.2.1~
 _ZN8casacore10HDF5Record14writeScaStringElRKNS_6StringES3_@Base 3.2.1~
 _ZN8casacore10HDF5Record15writeEmptyArrayElRKNS_6StringEiNS_8DataTypeE@Base 3.2.1~
 _ZN8casacore10HDF5Record4readElPvRKNS_12HDF5DataTypeE@Base 3.2.1~
 _ZN8casacore10HDF5Record6removeERKNS_10HDF5ObjectERKNS_6StringE@Base 3.2.1~
 _ZN8casacore10HDF5Record9readArrayEllRKNS_9IPositionERKNS_6StringERNS_15RecordInterfaceE@Base 3.2.1~
 _ZN8casacore10IndexErrorD0Ev@Base 3.2.1~
 _ZN8casacore10IndexErrorD1Ev@Base 3.2.1~
 _ZN8casacore10IndexErrorD2Ev@Base 3.2.1~
 _ZN8casacore10JsonParser12theirCommandE@Base 3.2.1~
 _ZN8casacore10JsonParser12theirJsonMapE@Base 3.2.1~
 _ZN8casacore10JsonParser13removeEscapesERKNS_6StringE@Base 3.2.1~
 _ZN8casacore10JsonParser13theirPositionE@Base 3.2.1~
 _ZN8casacore10JsonParser5inputEPci@Base 3.2.1~
 _ZN8casacore10JsonParser5parseERKNS_6StringE@Base 3.2.1~
 _ZN8casacore10JsonParser9parseFileERKNS_6StringE@Base 3.2.1~
 _ZN8casacore10LogMessage10copy_otherERKS0_@Base 3.2.1~
 _ZN8casacore10LogMessage11messageTimeERKNS_4TimeE@Base 3.2.1~
 _ZN8casacore10LogMessage14sourceLocationEPKNS_14SourceLocationE@Base 3.2.1~
 _ZN8casacore10LogMessage4lineEj@Base 3.2.1~
 _ZN8casacore10LogMessage6originERKNS_9LogOriginE@Base 3.2.1~
 _ZN8casacore10LogMessage7messageERKNS_6StringEb@Base 3.2.1~
 _ZN8casacore10LogMessage8priorityENS0_8PriorityE@Base 3.2.1~
 _ZN8casacore10LogMessage8toStringENS0_8PriorityE@Base 3.2.1~
 _ZN8casacore10LogMessageC1ENS0_8PriorityE@Base 3.2.1~
 _ZN8casacore10LogMessageC1ERKNS_6StringERKNS_9LogOriginENS0_8PriorityE@Base 3.2.1~
 _ZN8casacore10LogMessageC1ERKNS_9LogOriginENS0_8PriorityE@Base 3.2.1~
 _ZN8casacore10LogMessageC1ERKS0_@Base 3.2.1~
 _ZN8casacore10LogMessageC2ENS0_8PriorityE@Base 3.2.1~
 _ZN8casacore10LogMessageC2ERKNS_6StringERKNS_9LogOriginENS0_8PriorityE@Base 3.2.1~
 _ZN8casacore10LogMessageC2ERKNS_9LogOriginENS0_8PriorityE@Base 3.2.1~
 _ZN8casacore10LogMessageC2ERKS0_@Base 3.2.1~
 _ZN8casacore10LogMessageD1Ev@Base 3.2.1~
 _ZN8casacore10LogMessageD2Ev@Base 3.2.1~
 _ZN8casacore10LogMessageaSERKS0_@Base 3.2.1~
 _ZN8casacore10MVBaseline6adjustERd@Base 3.2.1~
 _ZN8casacore10MVBaseline6adjustEv@Base 3.2.1~
 _ZN8casacore10MVBaseline6assureERKNS_9MeasValueE@Base 3.2.1~
 _ZN8casacore10MVBaseline6radiusEv@Base 3.2.1~
 _ZN8casacore10MVBaseline8putValueERKNS_6VectorINS_7QuantumIdEEEE@Base 3.2.1~
 _ZN8casacore10MVBaseline8readjustEd@Base 3.2.1~
 _ZN8casacore10MVBaseline9putVectorERKNS_6VectorIdEE@Base 3.2.1~
 _ZN8casacore10MVBaselineC1ERKNS_10MVPositionE@Base 3.2.1~
 _ZN8casacore10MVBaselineC1ERKNS_10MVPositionES3_@Base 3.2.1~
 _ZN8casacore10MVBaselineC1ERKNS_6VectorINS_7QuantumIdEEEE@Base 3.2.1~
 _ZN8casacore10MVBaselineC1ERKNS_6VectorIdEE@Base 3.2.1~
 _ZN8casacore10MVBaselineC1ERKNS_7QuantumINS_6VectorIdEEEE@Base 3.2.1~
 _ZN8casacore10MVBaselineC1ERKNS_7QuantumIdEE@Base 3.2.1~
 _ZN8casacore10MVBaselineC1ERKNS_7QuantumIdEERKNS1_INS_6VectorIdEEEE@Base 3.2.1~
 _ZN8casacore10MVBaselineC1ERKNS_7QuantumIdEES4_S4_@Base 3.2.1~
 _ZN8casacore10MVBaselineC1ERKNS_7QuantumIdEEdd@Base 3.2.1~
 _ZN8casacore10MVBaselineC1Ed@Base 3.2.1~
 _ZN8casacore10MVBaselineC1Eddd@Base 3.2.1~
 _ZN8casacore10MVBaselineC1Ev@Base 3.2.1~
 _ZN8casacore10MVBaselineC2ERKNS_10MVPositionE@Base 3.2.1~
 _ZN8casacore10MVBaselineC2ERKNS_10MVPositionES3_@Base 3.2.1~
 _ZN8casacore10MVBaselineC2ERKNS_6VectorINS_7QuantumIdEEEE@Base 3.2.1~
 _ZN8casacore10MVBaselineC2ERKNS_6VectorIdEE@Base 3.2.1~
 _ZN8casacore10MVBaselineC2ERKNS_7QuantumINS_6VectorIdEEEE@Base 3.2.1~
 _ZN8casacore10MVBaselineC2ERKNS_7QuantumIdEE@Base 3.2.1~
 _ZN8casacore10MVBaselineC2ERKNS_7QuantumIdEERKNS1_INS_6VectorIdEEEE@Base 3.2.1~
 _ZN8casacore10MVBaselineC2ERKNS_7QuantumIdEES4_S4_@Base 3.2.1~
 _ZN8casacore10MVBaselineC2ERKNS_7QuantumIdEEdd@Base 3.2.1~
 _ZN8casacore10MVBaselineC2Ed@Base 3.2.1~
 _ZN8casacore10MVBaselineC2Eddd@Base 3.2.1~
 _ZN8casacore10MVBaselineC2Ev@Base 3.2.1~
 _ZN8casacore10MVBaselineD0Ev@Base 3.2.1~
 _ZN8casacore10MVBaselineD1Ev@Base 3.2.1~
 _ZN8casacore10MVBaselineD2Ev@Base 3.2.1~
 _ZN8casacore10MVBaselineaSERKS0_@Base 3.2.1~
 _ZN8casacore10MVBaselinemIERKS0_@Base 3.2.1~
 _ZN8casacore10MVBaselinepLERKS0_@Base 3.2.1~
 _ZN8casacore10MVPosition6adjustERd@Base 3.2.1~
 _ZN8casacore10MVPosition6adjustEv@Base 3.2.1~
 _ZN8casacore10MVPosition6assureERKNS_9MeasValueE@Base 3.2.1~
 _ZN8casacore10MVPosition6radiusEv@Base 3.2.1~
 _ZN8casacore10MVPosition7hiLimitE@Base 3.2.1~
 _ZN8casacore10MVPosition7loLimitE@Base 3.2.1~
 _ZN8casacore10MVPosition8putValueERKNS_6VectorINS_7QuantumIdEEEE@Base 3.2.1~
 _ZN8casacore10MVPosition8readjustEd@Base 3.2.1~
 _ZN8casacore10MVPosition9putVectorERKNS_6VectorIdEE@Base 3.2.1~
 _ZN8casacore10MVPositionC1ERKNS_6VectorINS_7QuantumIdEEEE@Base 3.2.1~
 _ZN8casacore10MVPositionC1ERKNS_6VectorIdEE@Base 3.2.1~
 _ZN8casacore10MVPositionC1ERKNS_7QuantumINS_6VectorIdEEEE@Base 3.2.1~
 _ZN8casacore10MVPositionC1ERKNS_7QuantumIdEE@Base 3.2.1~
 _ZN8casacore10MVPositionC1ERKNS_7QuantumIdEERKNS1_INS_6VectorIdEEEE@Base 3.2.1~
 _ZN8casacore10MVPositionC1ERKNS_7QuantumIdEES4_S4_@Base 3.2.1~
 _ZN8casacore10MVPositionC1ERKNS_7QuantumIdEEdd@Base 3.2.1~
 _ZN8casacore10MVPositionC1ERKS0_@Base 3.2.1~
 _ZN8casacore10MVPositionC1Ed@Base 3.2.1~
 _ZN8casacore10MVPositionC1Eddd@Base 3.2.1~
 _ZN8casacore10MVPositionC1Ev@Base 3.2.1~
 _ZN8casacore10MVPositionC2ERKNS_6VectorINS_7QuantumIdEEEE@Base 3.2.1~
 _ZN8casacore10MVPositionC2ERKNS_6VectorIdEE@Base 3.2.1~
 _ZN8casacore10MVPositionC2ERKNS_7QuantumINS_6VectorIdEEEE@Base 3.2.1~
 _ZN8casacore10MVPositionC2ERKNS_7QuantumIdEE@Base 3.2.1~
 _ZN8casacore10MVPositionC2ERKNS_7QuantumIdEERKNS1_INS_6VectorIdEEEE@Base 3.2.1~
 _ZN8casacore10MVPositionC2ERKNS_7QuantumIdEES4_S4_@Base 3.2.1~
 _ZN8casacore10MVPositionC2ERKNS_7QuantumIdEEdd@Base 3.2.1~
 _ZN8casacore10MVPositionC2ERKS0_@Base 3.2.1~
 _ZN8casacore10MVPositionC2Ed@Base 3.2.1~
 _ZN8casacore10MVPositionC2Eddd@Base 3.2.1~
 _ZN8casacore10MVPositionC2Ev@Base 3.2.1~
 _ZN8casacore10MVPositionD0Ev@Base 3.2.1~
 _ZN8casacore10MVPositionD1Ev@Base 3.2.1~
 _ZN8casacore10MVPositionD2Ev@Base 3.2.1~
 _ZN8casacore10MVPositionaSERKS0_@Base 3.2.1~
 _ZN8casacore10MVPositionclEj@Base 3.2.1~
 _ZN8casacore10MVPositionmIERKS0_@Base 3.2.1~
 _ZN8casacore10MVPositionmLERKNS_9RotMatrixE@Base 3.2.1~
 _ZN8casacore10MVPositionmLEd@Base 3.2.1~
 _ZN8casacore10MVPositionpLERKS0_@Base 3.2.1~
 _ZN8casacore10ObjCompareINS_6StringEE7compareEPKvS4_@Base 3.2.1~
 _ZN8casacore10ObjCompareINS_6StringEED0Ev@Base 3.2.1~
 _ZN8casacore10ObjCompareINS_6StringEED1Ev@Base 3.2.1~
 _ZN8casacore10ObjCompareINS_6StringEED2Ev@Base 3.2.1~
 _ZN8casacore10ObjCompareISt7complexIdEE7compareEPKvS5_@Base 3.2.1~
 _ZN8casacore10ObjCompareISt7complexIdEED0Ev@Base 3.2.1~
 _ZN8casacore10ObjCompareISt7complexIdEED1Ev@Base 3.2.1~
 _ZN8casacore10ObjCompareISt7complexIdEED2Ev@Base 3.2.1~
 _ZN8casacore10ObjCompareISt7complexIfEE7compareEPKvS5_@Base 3.2.1~
 _ZN8casacore10ObjCompareISt7complexIfEED0Ev@Base 3.2.1~
 _ZN8casacore10ObjCompareISt7complexIfEED1Ev@Base 3.2.1~
 _ZN8casacore10ObjCompareISt7complexIfEED2Ev@Base 3.2.1~
 _ZN8casacore10ObjCompareIbE7compareEPKvS3_@Base 3.2.1~
 _ZN8casacore10ObjCompareIbED0Ev@Base 3.2.1~
 _ZN8casacore10ObjCompareIbED1Ev@Base 3.2.1~
 _ZN8casacore10ObjCompareIbED2Ev@Base 3.2.1~
 _ZN8casacore10ObjCompareIcE7compareEPKvS3_@Base 3.2.1~
 _ZN8casacore10ObjCompareIcED0Ev@Base 3.2.1~
 _ZN8casacore10ObjCompareIcED1Ev@Base 3.2.1~
 _ZN8casacore10ObjCompareIcED2Ev@Base 3.2.1~
 _ZN8casacore10ObjCompareIdE7compareEPKvS3_@Base 3.2.1~
 _ZN8casacore10ObjCompareIdED0Ev@Base 3.2.1~
 _ZN8casacore10ObjCompareIdED1Ev@Base 3.2.1~
 _ZN8casacore10ObjCompareIdED2Ev@Base 3.2.1~
 _ZN8casacore10ObjCompareIfE7compareEPKvS3_@Base 3.2.1~
 _ZN8casacore10ObjCompareIfED0Ev@Base 3.2.1~
 _ZN8casacore10ObjCompareIfED1Ev@Base 3.2.1~
 _ZN8casacore10ObjCompareIfED2Ev@Base 3.2.1~
 _ZN8casacore10ObjCompareIhE7compareEPKvS3_@Base 3.2.1~
 _ZN8casacore10ObjCompareIhED0Ev@Base 3.2.1~
 _ZN8casacore10ObjCompareIhED1Ev@Base 3.2.1~
 _ZN8casacore10ObjCompareIhED2Ev@Base 3.2.1~
 _ZN8casacore10ObjCompareIiE7compareEPKvS3_@Base 3.2.1~
 _ZN8casacore10ObjCompareIiED0Ev@Base 3.2.1~
 _ZN8casacore10ObjCompareIiED1Ev@Base 3.2.1~
 _ZN8casacore10ObjCompareIiED2Ev@Base 3.2.1~
 _ZN8casacore10ObjCompareIjE7compareEPKvS3_@Base 3.2.1~
 _ZN8casacore10ObjCompareIjED0Ev@Base 3.2.1~
 _ZN8casacore10ObjCompareIjED1Ev@Base 3.2.1~
 _ZN8casacore10ObjCompareIjED2Ev@Base 3.2.1~
 _ZN8casacore10ObjCompareIsE7compareEPKvS3_@Base 3.2.1~
 _ZN8casacore10ObjCompareIsED0Ev@Base 3.2.1~
 _ZN8casacore10ObjCompareIsED1Ev@Base 3.2.1~
 _ZN8casacore10ObjCompareIsED2Ev@Base 3.2.1~
 _ZN8casacore10ObjCompareItE7compareEPKvS3_@Base 3.2.1~
 _ZN8casacore10ObjCompareItED0Ev@Base 3.2.1~
 _ZN8casacore10ObjCompareItED1Ev@Base 3.2.1~
 _ZN8casacore10ObjCompareItED2Ev@Base 3.2.1~
 _ZN8casacore10ObjCompareIxE7compareEPKvS3_@Base 3.2.1~
 _ZN8casacore10ObjCompareIxED0Ev@Base 3.2.1~
 _ZN8casacore10ObjCompareIxED1Ev@Base 3.2.1~
 _ZN8casacore10ObjCompareIxED2Ev@Base 3.2.1~
 _ZN8casacore10RXalphanumE@Base 3.2.1~
 _ZN8casacore10RecordDesc3getERNS_6AipsIOE@Base 3.2.1~
 _ZN8casacore10SortInvOptC1ENS_9AipsError8CategoryE@Base 3.2.1~
 _ZN8casacore10SortInvOptC2ENS_9AipsError8CategoryE@Base 3.2.1~
 _ZN8casacore10SortInvOptD0Ev@Base 3.2.1~
 _ZN8casacore10SortInvOptD1Ev@Base 3.2.1~
 _ZN8casacore10SortInvOptD2Ev@Base 3.2.1~
 _ZN8casacore10SortNoDataC1ENS_9AipsError8CategoryE@Base 3.2.1~
 _ZN8casacore10SortNoDataC2ENS_9AipsError8CategoryE@Base 3.2.1~
 _ZN8casacore10SortNoDataD0Ev@Base 3.2.1~
 _ZN8casacore10SortNoDataD1Ev@Base 3.2.1~
 _ZN8casacore10SortNoDataD2Ev@Base 3.2.1~
 _ZN8casacore10capitalizeERKNSt7__cxx1112basic_stringIcSt11char_traitsIcESaIcEEE@Base 3.2.1~
 _ZN8casacore10indexErrorIiED0Ev@Base 3.2.1~
 _ZN8casacore10indexErrorIiED1Ev@Base 3.2.1~
 _ZN8casacore10indexErrorIiED2Ev@Base 3.2.1~
 _ZN8casacore11AipsrcValueINS_6StringEE10registerRCERKS1_RKNS_4UnitES7_S4_@Base 3.2.1~
 _ZN8casacore11AipsrcValueINS_6StringEE10registerRCERKS1_S4_@Base 3.2.1~
 _ZN8casacore11AipsrcValueINS_6StringEE10theirMutexE@Base 3.2.1~
 _ZN8casacore11AipsrcValueINS_6StringEE3getEj@Base 3.2.1~
 _ZN8casacore11AipsrcValueINS_6StringEE3setEjRKS1_@Base 3.2.1~
 _ZN8casacore11AipsrcValueINS_6StringEE4findERS1_RKS1_@Base 3.2.1~
 _ZN8casacore11AipsrcValueINS_6StringEE4findERS1_RKS1_RKNS_4UnitES8_@Base 3.2.1~
 _ZN8casacore11AipsrcValueINS_6StringEE4findERS1_RKS1_RKNS_4UnitES8_S5_@Base 3.2.1~
 _ZN8casacore11AipsrcValueINS_6StringEE4findERS1_RKS1_S5_@Base 3.2.1~
 _ZN8casacore11AipsrcValueINS_6StringEE4saveEj@Base 3.2.1~
 _ZN8casacore11AipsrcValueINS_6StringEE5myp_pE@Base 3.2.1~
 _ZN8casacore11AipsrcValueINS_6StringEEC1Ev@Base 3.2.1~
 _ZN8casacore11AipsrcValueINS_6StringEEC2Ev@Base 3.2.1~
 _ZN8casacore11AipsrcValueINS_6StringEED1Ev@Base 3.2.1~
 _ZN8casacore11AipsrcValueINS_6StringEED2Ev@Base 3.2.1~
 _ZN8casacore11AipsrcValueIbE10registerRCERKNS_6StringERKb@Base 3.2.1~
 _ZN8casacore11AipsrcValueIbE10theirMutexE@Base 3.2.1~
 _ZN8casacore11AipsrcValueIbE3getEj@Base 3.2.1~
 _ZN8casacore11AipsrcValueIbE3setEjRKb@Base 3.2.1~
 _ZN8casacore11AipsrcValueIbE4findERbRKNS_6StringE@Base 3.2.1~
 _ZN8casacore11AipsrcValueIbE4findERbRKNS_6StringERKb@Base 3.2.1~
 _ZN8casacore11AipsrcValueIbE4saveEj@Base 3.2.1~
 _ZN8casacore11AipsrcValueIbE5myp_pE@Base 3.2.1~
 _ZN8casacore11AipsrcValueIbEC1Ev@Base 3.2.1~
 _ZN8casacore11AipsrcValueIbEC2Ev@Base 3.2.1~
 _ZN8casacore11AipsrcValueIbED1Ev@Base 3.2.1~
 _ZN8casacore11AipsrcValueIbED2Ev@Base 3.2.1~
 _ZN8casacore11AipsrcValueIdE10registerRCERKNS_6StringERKNS_4UnitES7_RKd@Base 3.2.1~
 _ZN8casacore11AipsrcValueIdE10registerRCERKNS_6StringERKd@Base 3.2.1~
 _ZN8casacore11AipsrcValueIdE10theirMutexE@Base 3.2.1~
 _ZN8casacore11AipsrcValueIdE3getEj@Base 3.2.1~
 _ZN8casacore11AipsrcValueIdE3setEjRKd@Base 3.2.1~
 _ZN8casacore11AipsrcValueIdE4findERdRKNS_6StringE@Base 3.2.1~
 _ZN8casacore11AipsrcValueIdE4findERdRKNS_6StringERKNS_4UnitES8_@Base 3.2.1~
 _ZN8casacore11AipsrcValueIdE4findERdRKNS_6StringERKNS_4UnitES8_RKd@Base 3.2.1~
 _ZN8casacore11AipsrcValueIdE4findERdRKNS_6StringERKd@Base 3.2.1~
 _ZN8casacore11AipsrcValueIdE4saveEj@Base 3.2.1~
 _ZN8casacore11AipsrcValueIdE5myp_pE@Base 3.2.1~
 _ZN8casacore11AipsrcValueIdEC1Ev@Base 3.2.1~
 _ZN8casacore11AipsrcValueIdEC2Ev@Base 3.2.1~
 _ZN8casacore11AipsrcValueIdED1Ev@Base 3.2.1~
 _ZN8casacore11AipsrcValueIdED2Ev@Base 3.2.1~
 _ZN8casacore11AipsrcValueIiE10registerRCERKNS_6StringERKNS_4UnitES7_RKi@Base 3.2.1~
 _ZN8casacore11AipsrcValueIiE10registerRCERKNS_6StringERKi@Base 3.2.1~
 _ZN8casacore11AipsrcValueIiE10theirMutexE@Base 3.2.1~
 _ZN8casacore11AipsrcValueIiE3getEj@Base 3.2.1~
 _ZN8casacore11AipsrcValueIiE3setEjRKi@Base 3.2.1~
 _ZN8casacore11AipsrcValueIiE4findERiRKNS_6StringE@Base 3.2.1~
 _ZN8casacore11AipsrcValueIiE4findERiRKNS_6StringERKNS_4UnitES8_@Base 3.2.1~
 _ZN8casacore11AipsrcValueIiE4findERiRKNS_6StringERKNS_4UnitES8_RKi@Base 3.2.1~
 _ZN8casacore11AipsrcValueIiE4findERiRKNS_6StringERKi@Base 3.2.1~
 _ZN8casacore11AipsrcValueIiE4saveEj@Base 3.2.1~
 _ZN8casacore11AipsrcValueIiE5myp_pE@Base 3.2.1~
 _ZN8casacore11AipsrcValueIiEC1Ev@Base 3.2.1~
 _ZN8casacore11AipsrcValueIiEC2Ev@Base 3.2.1~
 _ZN8casacore11AipsrcValueIiED1Ev@Base 3.2.1~
 _ZN8casacore11AipsrcValueIiED2Ev@Base 3.2.1~
 _ZN8casacore11ArrayVolumeEjPKl@Base 3.2.1~
 _ZN8casacore11AxesMappingC1ERKNS_9IPositionE@Base 3.2.1~
 _ZN8casacore11AxesMappingC1ERKS0_@Base 3.2.1~
 _ZN8casacore11AxesMappingC1Ev@Base 3.2.1~
 _ZN8casacore11AxesMappingC2ERKNS_9IPositionE@Base 3.2.1~
 _ZN8casacore11AxesMappingC2ERKS0_@Base 3.2.1~
 _ZN8casacore11AxesMappingC2Ev@Base 3.2.1~
 _ZN8casacore11AxesMappingD1Ev@Base 3.2.1~
 _ZN8casacore11AxesMappingD2Ev@Base 3.2.1~
 _ZN8casacore11AxesMappingaSERKS0_@Base 3.2.1~
 _ZN8casacore11BucketCache10readBucketEj@Base 3.2.1~
 _ZN8casacore11BucketCache11writeBucketEj@Base 3.2.1~
 _ZN8casacore11BucketCache12removeBucketEv@Base 3.2.1~
 _ZN8casacore11BucketCache14initStatisticsEv@Base 3.2.1~
 _ZN8casacore11BucketCache17initializeBucketsEj@Base 3.2.1~
 _ZN8casacore11BucketCache3getEPcjx@Base 3.2.1~
 _ZN8casacore11BucketCache3putEPKcjx@Base 3.2.1~
 _ZN8casacore11BucketCache5clearEjb@Base 3.2.1~
 _ZN8casacore11BucketCache5flushEj@Base 3.2.1~
 _ZN8casacore11BucketCache6extendEj@Base 3.2.1~
 _ZN8casacore11BucketCache6resizeEj@Base 3.2.1~
 _ZN8casacore11BucketCache6resyncEjji@Base 3.2.1~
 _ZN8casacore11BucketCache6setLRUEv@Base 3.2.1~
 _ZN8casacore11BucketCache7getSlotEj@Base 3.2.1~
 _ZN8casacore11BucketCache8setDirtyEv@Base 3.2.1~
 _ZN8casacore11BucketCache9addBucketEPc@Base 3.2.1~
 _ZN8casacore11BucketCache9getBucketEj@Base 3.2.1~
 _ZN8casacore11BucketCacheC1EPNS_10BucketFileExjjjPvPFPcS3_PKcEPFvS3_S4_S6_EPFS4_S3_EPFvS3_S4_E@Base 3.2.1~
 _ZN8casacore11BucketCacheC2EPNS_10BucketFileExjjjPvPFPcS3_PKcEPFvS3_S4_S6_EPFS4_S3_EPFvS3_S4_E@Base 3.2.1~
 _ZN8casacore11BucketCacheD1Ev@Base 3.2.1~
 _ZN8casacore11BucketCacheD2Ev@Base 3.2.1~
 _ZN8casacore11CanonicalIO4readEmPNS_6StringE@Base 3.2.1~
 _ZN8casacore11CanonicalIO4readEmPSt7complexIdE@Base 3.2.1~
 _ZN8casacore11CanonicalIO4readEmPSt7complexIfE@Base 3.2.1~
 _ZN8casacore11CanonicalIO4readEmPb@Base 3.2.1~
 _ZN8casacore11CanonicalIO4readEmPc@Base 3.2.1~
 _ZN8casacore11CanonicalIO4readEmPd@Base 3.2.1~
 _ZN8casacore11CanonicalIO4readEmPf@Base 3.2.1~
 _ZN8casacore11CanonicalIO4readEmPh@Base 3.2.1~
 _ZN8casacore11CanonicalIO4readEmPi@Base 3.2.1~
 _ZN8casacore11CanonicalIO4readEmPj@Base 3.2.1~
 _ZN8casacore11CanonicalIO4readEmPs@Base 3.2.1~
 _ZN8casacore11CanonicalIO4readEmPt@Base 3.2.1~
 _ZN8casacore11CanonicalIO4readEmPx@Base 3.2.1~
 _ZN8casacore11CanonicalIO4readEmPy@Base 3.2.1~
 _ZN8casacore11CanonicalIO5writeEmPKNS_6StringE@Base 3.2.1~
 _ZN8casacore11CanonicalIO5writeEmPKSt7complexIdE@Base 3.2.1~
 _ZN8casacore11CanonicalIO5writeEmPKSt7complexIfE@Base 3.2.1~
 _ZN8casacore11CanonicalIO5writeEmPKb@Base 3.2.1~
 _ZN8casacore11CanonicalIO5writeEmPKc@Base 3.2.1~
 _ZN8casacore11CanonicalIO5writeEmPKd@Base 3.2.1~
 _ZN8casacore11CanonicalIO5writeEmPKf@Base 3.2.1~
 _ZN8casacore11CanonicalIO5writeEmPKh@Base 3.2.1~
 _ZN8casacore11CanonicalIO5writeEmPKi@Base 3.2.1~
 _ZN8casacore11CanonicalIO5writeEmPKj@Base 3.2.1~
 _ZN8casacore11CanonicalIO5writeEmPKs@Base 3.2.1~
 _ZN8casacore11CanonicalIO5writeEmPKt@Base 3.2.1~
 _ZN8casacore11CanonicalIO5writeEmPKx@Base 3.2.1~
 _ZN8casacore11CanonicalIO5writeEmPKy@Base 3.2.1~
 _ZN8casacore11CanonicalIOC1EPNS_6ByteIOEjb@Base 3.2.1~
 _ZN8casacore11CanonicalIOC1ERKS0_@Base 3.2.1~
 _ZN8casacore11CanonicalIOC2EPNS_6ByteIOEjb@Base 3.2.1~
 _ZN8casacore11CanonicalIOC2ERKS0_@Base 3.2.1~
 _ZN8casacore11CanonicalIOD0Ev@Base 3.2.1~
 _ZN8casacore11CanonicalIOD1Ev@Base 3.2.1~
 _ZN8casacore11CanonicalIOD2Ev@Base 3.2.1~
 _ZN8casacore11CanonicalIOaSERKS0_@Base 3.2.1~
 _ZN8casacore11HDF5DataSet11getDataTypeElRKNS_6StringE@Base 3.2.1~
 _ZN8casacore11HDF5DataSet12setCacheSizeEj@Base 3.2.1~
 _ZN8casacore11HDF5DataSet3getERKNS_6SlicerEPv@Base 3.2.1~
 _ZN8casacore11HDF5DataSet3getERKNS_6SlicerERNS_9ArrayBaseEb@Base 3.2.1~
 _ZN8casacore11HDF5DataSet3putERKNS_6SlicerEPKv@Base 3.2.1~
 _ZN8casacore11HDF5DataSet3putERKNS_6SlicerERKNS_9ArrayBaseE@Base 3.2.1~
 _ZN8casacore11HDF5DataSet4openERKNS_10HDF5ObjectERKNS_6StringE@Base 3.2.1~
 _ZN8casacore11HDF5DataSet5closeEv@Base 3.2.1~
 _ZN8casacore11HDF5DataSet6createERKNS_10HDF5ObjectERKNS_6StringERKNS_9IPositionES9_@Base 3.2.1~
 _ZN8casacore11HDF5DataSet6extendERKNS_9IPositionE@Base 3.2.1~
 _ZN8casacore11HDF5DataSetC1ERKNS_10HDF5ObjectERKNS_6StringEPKSt7complexIdE@Base 3.2.1~
 _ZN8casacore11HDF5DataSetC1ERKNS_10HDF5ObjectERKNS_6StringEPKSt7complexIfE@Base 3.2.1~
 _ZN8casacore11HDF5DataSetC1ERKNS_10HDF5ObjectERKNS_6StringEPKb@Base 3.2.1~
 _ZN8casacore11HDF5DataSetC1ERKNS_10HDF5ObjectERKNS_6StringEPKd@Base 3.2.1~
 _ZN8casacore11HDF5DataSetC1ERKNS_10HDF5ObjectERKNS_6StringEPKf@Base 3.2.1~
 _ZN8casacore11HDF5DataSetC1ERKNS_10HDF5ObjectERKNS_6StringEPKh@Base 3.2.1~
 _ZN8casacore11HDF5DataSetC1ERKNS_10HDF5ObjectERKNS_6StringEPKi@Base 3.2.1~
 _ZN8casacore11HDF5DataSetC1ERKNS_10HDF5ObjectERKNS_6StringEPKs@Base 3.2.1~
 _ZN8casacore11HDF5DataSetC1ERKNS_10HDF5ObjectERKNS_6StringEPKx@Base 3.2.1~
 _ZN8casacore11HDF5DataSetC1ERKNS_10HDF5ObjectERKNS_6StringERKNS_12HDF5DataTypeE@Base 3.2.1~
 _ZN8casacore11HDF5DataSetC1ERKNS_10HDF5ObjectERKNS_6StringERKNS_9IPositionES9_PKSt7complexIdE@Base 3.2.1~
 _ZN8casacore11HDF5DataSetC1ERKNS_10HDF5ObjectERKNS_6StringERKNS_9IPositionES9_PKSt7complexIfE@Base 3.2.1~
 _ZN8casacore11HDF5DataSetC1ERKNS_10HDF5ObjectERKNS_6StringERKNS_9IPositionES9_PKb@Base 3.2.1~
 _ZN8casacore11HDF5DataSetC1ERKNS_10HDF5ObjectERKNS_6StringERKNS_9IPositionES9_PKd@Base 3.2.1~
 _ZN8casacore11HDF5DataSetC1ERKNS_10HDF5ObjectERKNS_6StringERKNS_9IPositionES9_PKf@Base 3.2.1~
 _ZN8casacore11HDF5DataSetC1ERKNS_10HDF5ObjectERKNS_6StringERKNS_9IPositionES9_PKh@Base 3.2.1~
 _ZN8casacore11HDF5DataSetC1ERKNS_10HDF5ObjectERKNS_6StringERKNS_9IPositionES9_PKi@Base 3.2.1~
 _ZN8casacore11HDF5DataSetC1ERKNS_10HDF5ObjectERKNS_6StringERKNS_9IPositionES9_PKs@Base 3.2.1~
 _ZN8casacore11HDF5DataSetC1ERKNS_10HDF5ObjectERKNS_6StringERKNS_9IPositionES9_PKx@Base 3.2.1~
 _ZN8casacore11HDF5DataSetC1ERKNS_10HDF5ObjectERKNS_6StringERKNS_9IPositionES9_RKNS_12HDF5DataTypeE@Base 3.2.1~
 _ZN8casacore11HDF5DataSetC2ERKNS_10HDF5ObjectERKNS_6StringEPKSt7complexIdE@Base 3.2.1~
 _ZN8casacore11HDF5DataSetC2ERKNS_10HDF5ObjectERKNS_6StringEPKSt7complexIfE@Base 3.2.1~
 _ZN8casacore11HDF5DataSetC2ERKNS_10HDF5ObjectERKNS_6StringEPKb@Base 3.2.1~
 _ZN8casacore11HDF5DataSetC2ERKNS_10HDF5ObjectERKNS_6StringEPKd@Base 3.2.1~
 _ZN8casacore11HDF5DataSetC2ERKNS_10HDF5ObjectERKNS_6StringEPKf@Base 3.2.1~
 _ZN8casacore11HDF5DataSetC2ERKNS_10HDF5ObjectERKNS_6StringEPKh@Base 3.2.1~
 _ZN8casacore11HDF5DataSetC2ERKNS_10HDF5ObjectERKNS_6StringEPKi@Base 3.2.1~
 _ZN8casacore11HDF5DataSetC2ERKNS_10HDF5ObjectERKNS_6StringEPKs@Base 3.2.1~
 _ZN8casacore11HDF5DataSetC2ERKNS_10HDF5ObjectERKNS_6StringEPKx@Base 3.2.1~
 _ZN8casacore11HDF5DataSetC2ERKNS_10HDF5ObjectERKNS_6StringERKNS_12HDF5DataTypeE@Base 3.2.1~
 _ZN8casacore11HDF5DataSetC2ERKNS_10HDF5ObjectERKNS_6StringERKNS_9IPositionES9_PKSt7complexIdE@Base 3.2.1~
 _ZN8casacore11HDF5DataSetC2ERKNS_10HDF5ObjectERKNS_6StringERKNS_9IPositionES9_PKSt7complexIfE@Base 3.2.1~
 _ZN8casacore11HDF5DataSetC2ERKNS_10HDF5ObjectERKNS_6StringERKNS_9IPositionES9_PKb@Base 3.2.1~
 _ZN8casacore11HDF5DataSetC2ERKNS_10HDF5ObjectERKNS_6StringERKNS_9IPositionES9_PKd@Base 3.2.1~
 _ZN8casacore11HDF5DataSetC2ERKNS_10HDF5ObjectERKNS_6StringERKNS_9IPositionES9_PKf@Base 3.2.1~
 _ZN8casacore11HDF5DataSetC2ERKNS_10HDF5ObjectERKNS_6StringERKNS_9IPositionES9_PKh@Base 3.2.1~
 _ZN8casacore11HDF5DataSetC2ERKNS_10HDF5ObjectERKNS_6StringERKNS_9IPositionES9_PKi@Base 3.2.1~
 _ZN8casacore11HDF5DataSetC2ERKNS_10HDF5ObjectERKNS_6StringERKNS_9IPositionES9_PKs@Base 3.2.1~
 _ZN8casacore11HDF5DataSetC2ERKNS_10HDF5ObjectERKNS_6StringERKNS_9IPositionES9_PKx@Base 3.2.1~
 _ZN8casacore11HDF5DataSetC2ERKNS_10HDF5ObjectERKNS_6StringERKNS_9IPositionES9_RKNS_12HDF5DataTypeE@Base 3.2.1~
 _ZN8casacore11HDF5DataSetD0Ev@Base 3.2.1~
 _ZN8casacore11HDF5DataSetD1Ev@Base 3.2.1~
 _ZN8casacore11HDF5DataSetD2Ev@Base 3.2.1~
 _ZN8casacore11MVDirection10shiftAngleERKNS_7QuantumIdEES4_@Base 3.2.1~
 _ZN8casacore11MVDirection10shiftAngleEdd@Base 3.2.1~
 _ZN8casacore11MVDirection13shiftLatitudeERKNS_7QuantumIdEEb@Base 3.2.1~
 _ZN8casacore11MVDirection13shiftLatitudeEdb@Base 3.2.1~
 _ZN8casacore11MVDirection14shiftLongitudeERKNS_7QuantumIdEEb@Base 3.2.1~
 _ZN8casacore11MVDirection14shiftLongitudeEdb@Base 3.2.1~
 _ZN8casacore11MVDirection5shiftERKNS_7QuantumIdEES4_b@Base 3.2.1~
 _ZN8casacore11MVDirection5shiftERKS0_b@Base 3.2.1~
 _ZN8casacore11MVDirection5shiftEddb@Base 3.2.1~
 _ZN8casacore11MVDirection6adjustERd@Base 3.2.1~
 _ZN8casacore11MVDirection6adjustEv@Base 3.2.1~
 _ZN8casacore11MVDirection6assureERKNS_9MeasValueE@Base 3.2.1~
 _ZN8casacore11MVDirection8putValueERKNS_6VectorINS_7QuantumIdEEEE@Base 3.2.1~
 _ZN8casacore11MVDirection8setAngleEdd@Base 3.2.1~
 _ZN8casacore11MVDirectionC1ERKNS_10MVPositionE@Base 3.2.1~
 _ZN8casacore11MVDirectionC1ERKNS_6VectorINS_7QuantumIdEEEE@Base 3.2.1~
 _ZN8casacore11MVDirectionC1ERKNS_6VectorIdEE@Base 3.2.1~
 _ZN8casacore11MVDirectionC1ERKNS_7QuantumINS_6VectorIdEEEE@Base 3.2.1~
 _ZN8casacore11MVDirectionC1ERKNS_7QuantumIdEE@Base 3.2.1~
 _ZN8casacore11MVDirectionC1ERKNS_7QuantumIdEES4_@Base 3.2.1~
 _ZN8casacore11MVDirectionC1Ed@Base 3.2.1~
 _ZN8casacore11MVDirectionC1Edd@Base 3.2.1~
 _ZN8casacore11MVDirectionC1Eddd@Base 3.2.1~
 _ZN8casacore11MVDirectionC1Ev@Base 3.2.1~
 _ZN8casacore11MVDirectionC2ERKNS_10MVPositionE@Base 3.2.1~
 _ZN8casacore11MVDirectionC2ERKNS_6VectorINS_7QuantumIdEEEE@Base 3.2.1~
 _ZN8casacore11MVDirectionC2ERKNS_6VectorIdEE@Base 3.2.1~
 _ZN8casacore11MVDirectionC2ERKNS_7QuantumINS_6VectorIdEEEE@Base 3.2.1~
 _ZN8casacore11MVDirectionC2ERKNS_7QuantumIdEE@Base 3.2.1~
 _ZN8casacore11MVDirectionC2ERKNS_7QuantumIdEES4_@Base 3.2.1~
 _ZN8casacore11MVDirectionC2Ed@Base 3.2.1~
 _ZN8casacore11MVDirectionC2Edd@Base 3.2.1~
 _ZN8casacore11MVDirectionC2Eddd@Base 3.2.1~
 _ZN8casacore11MVDirectionC2Ev@Base 3.2.1~
 _ZN8casacore11MVDirectionD0Ev@Base 3.2.1~
 _ZN8casacore11MVDirectionD1Ev@Base 3.2.1~
 _ZN8casacore11MVDirectionD2Ev@Base 3.2.1~
 _ZN8casacore11MVDirectionaSERKS0_@Base 3.2.1~
 _ZN8casacore11MVDirectionmIERKS0_@Base 3.2.1~
 _ZN8casacore11MVDirectionpLERKS0_@Base 3.2.1~
 _ZN8casacore11MVFrequency6assureERKNS_9MeasValueE@Base 3.2.1~
 _ZN8casacore11MVFrequency8putValueERKNS_6VectorINS_7QuantumIdEEEE@Base 3.2.1~
 _ZN8casacore11MVFrequency9putVectorERKNS_6VectorIdEE@Base 3.2.1~
 _ZN8casacore11MVFrequencyC1ERKNS_6VectorINS_7QuantumIdEEEE@Base 3.2.1~
 _ZN8casacore11MVFrequencyC1ERKNS_6VectorIdEE@Base 3.2.1~
 _ZN8casacore11MVFrequencyC1ERKNS_7QuantumINS_6VectorIdEEEE@Base 3.2.1~
 _ZN8casacore11MVFrequencyC1ERKNS_7QuantumIdEE@Base 3.2.1~
 _ZN8casacore11MVFrequencyC1ERKS0_@Base 3.2.1~
 _ZN8casacore11MVFrequencyC1Ed@Base 3.2.1~
 _ZN8casacore11MVFrequencyC1Ev@Base 3.2.1~
 _ZN8casacore11MVFrequencyC2ERKNS_6VectorINS_7QuantumIdEEEE@Base 3.2.1~
 _ZN8casacore11MVFrequencyC2ERKNS_6VectorIdEE@Base 3.2.1~
 _ZN8casacore11MVFrequencyC2ERKNS_7QuantumINS_6VectorIdEEEE@Base 3.2.1~
 _ZN8casacore11MVFrequencyC2ERKNS_7QuantumIdEE@Base 3.2.1~
 _ZN8casacore11MVFrequencyC2ERKS0_@Base 3.2.1~
 _ZN8casacore11MVFrequencyC2Ed@Base 3.2.1~
 _ZN8casacore11MVFrequencyC2Ev@Base 3.2.1~
 _ZN8casacore11MVFrequencyD0Ev@Base 3.2.1~
 _ZN8casacore11MVFrequencyD1Ev@Base 3.2.1~
 _ZN8casacore11MVFrequencyD2Ev@Base 3.2.1~
 _ZN8casacore11MVFrequencyaSERKS0_@Base 3.2.1~
 _ZN8casacore11MVFrequencymIERKS0_@Base 3.2.1~
 _ZN8casacore11MVFrequencypLERKS0_@Base 3.2.1~
 _ZN8casacore11MaskedArrayINS_6StringEEC1ERKNS_5ArrayIS1_EERKNS0_IbEE@Base 3.2.1~
 _ZN8casacore11MaskedArrayINS_6StringEEC1ERKNS_5ArrayIS1_EERKNS0_IbEEb@Base 3.2.1~
 _ZN8casacore11MaskedArrayINS_6StringEEC1ERKNS_5ArrayIS1_EERKNS3_IbEE@Base 3.2.1~
 _ZN8casacore11MaskedArrayINS_6StringEEC2ERKNS_5ArrayIS1_EERKNS0_IbEE@Base 3.2.1~
 _ZN8casacore11MaskedArrayINS_6StringEEC2ERKNS_5ArrayIS1_EERKNS0_IbEEb@Base 3.2.1~
 _ZN8casacore11MaskedArrayINS_6StringEEC2ERKNS_5ArrayIS1_EERKNS3_IbEE@Base 3.2.1~
 _ZN8casacore11MaskedArrayINS_6StringEED1Ev@Base 3.2.1~
 _ZN8casacore11MaskedArrayINS_6StringEED2Ev@Base 3.2.1~
 _ZN8casacore11MaskedArrayISt7complexIdEEC1ERKNS_5ArrayIS2_EERKNS0_IbEE@Base 3.2.1~
 _ZN8casacore11MaskedArrayISt7complexIdEEC1ERKNS_5ArrayIS2_EERKNS0_IbEEb@Base 3.2.1~
 _ZN8casacore11MaskedArrayISt7complexIdEEC1ERKNS_5ArrayIS2_EERKNS4_IbEE@Base 3.2.1~
 _ZN8casacore11MaskedArrayISt7complexIdEEC2ERKNS_5ArrayIS2_EERKNS0_IbEE@Base 3.2.1~
 _ZN8casacore11MaskedArrayISt7complexIdEEC2ERKNS_5ArrayIS2_EERKNS0_IbEEb@Base 3.2.1~
 _ZN8casacore11MaskedArrayISt7complexIdEEC2ERKNS_5ArrayIS2_EERKNS4_IbEE@Base 3.2.1~
 _ZN8casacore11MaskedArrayISt7complexIfEEC1ERKNS_5ArrayIS2_EERKNS0_IbEE@Base 3.2.1~
 _ZN8casacore11MaskedArrayISt7complexIfEEC1ERKNS_5ArrayIS2_EERKNS0_IbEEb@Base 3.2.1~
 _ZN8casacore11MaskedArrayISt7complexIfEEC1ERKNS_5ArrayIS2_EERKNS4_IbEE@Base 3.2.1~
 _ZN8casacore11MaskedArrayISt7complexIfEEC2ERKNS_5ArrayIS2_EERKNS0_IbEE@Base 3.2.1~
 _ZN8casacore11MaskedArrayISt7complexIfEEC2ERKNS_5ArrayIS2_EERKNS0_IbEEb@Base 3.2.1~
 _ZN8casacore11MaskedArrayISt7complexIfEEC2ERKNS_5ArrayIS2_EERKNS4_IbEE@Base 3.2.1~
 _ZN8casacore11MaskedArrayISt7complexIfEED1Ev@Base 3.2.1~
 _ZN8casacore11MaskedArrayISt7complexIfEED2Ev@Base 3.2.1~
 _ZN8casacore11MaskedArrayIbEC1ERKNS_5ArrayIbEERKS1_@Base 3.2.1~
 _ZN8casacore11MaskedArrayIbEC1ERKNS_5ArrayIbEERKS1_b@Base 3.2.1~
 _ZN8casacore11MaskedArrayIbEC1ERKNS_5ArrayIbEES5_@Base 3.2.1~
 _ZN8casacore11MaskedArrayIbEC2ERKNS_5ArrayIbEERKS1_@Base 3.2.1~
 _ZN8casacore11MaskedArrayIbEC2ERKNS_5ArrayIbEERKS1_b@Base 3.2.1~
 _ZN8casacore11MaskedArrayIbEC2ERKNS_5ArrayIbEES5_@Base 3.2.1~
 _ZN8casacore11MaskedArrayIcEC1ERKNS_5ArrayIcEERKNS0_IbEE@Base 3.2.1~
 _ZN8casacore11MaskedArrayIcEC1ERKNS_5ArrayIcEERKNS0_IbEEb@Base 3.2.1~
 _ZN8casacore11MaskedArrayIcEC1ERKNS_5ArrayIcEERKNS2_IbEE@Base 3.2.1~
 _ZN8casacore11MaskedArrayIcEC2ERKNS_5ArrayIcEERKNS0_IbEE@Base 3.2.1~
 _ZN8casacore11MaskedArrayIcEC2ERKNS_5ArrayIcEERKNS0_IbEEb@Base 3.2.1~
 _ZN8casacore11MaskedArrayIcEC2ERKNS_5ArrayIcEERKNS2_IbEE@Base 3.2.1~
 _ZN8casacore11MaskedArrayIdEC1ERKNS_5ArrayIdEERKNS0_IbEE@Base 3.2.1~
 _ZN8casacore11MaskedArrayIdEC1ERKNS_5ArrayIdEERKNS0_IbEEb@Base 3.2.1~
 _ZN8casacore11MaskedArrayIdEC1ERKNS_5ArrayIdEERKNS2_IbEE@Base 3.2.1~
 _ZN8casacore11MaskedArrayIdEC2ERKNS_5ArrayIdEERKNS0_IbEE@Base 3.2.1~
 _ZN8casacore11MaskedArrayIdEC2ERKNS_5ArrayIdEERKNS0_IbEEb@Base 3.2.1~
 _ZN8casacore11MaskedArrayIdEC2ERKNS_5ArrayIdEERKNS2_IbEE@Base 3.2.1~
 _ZN8casacore11MaskedArrayIfEC1ERKNS_5ArrayIfEERKNS0_IbEE@Base 3.2.1~
 _ZN8casacore11MaskedArrayIfEC1ERKNS_5ArrayIfEERKNS0_IbEEb@Base 3.2.1~
 _ZN8casacore11MaskedArrayIfEC1ERKNS_5ArrayIfEERKNS2_IbEE@Base 3.2.1~
 _ZN8casacore11MaskedArrayIfEC2ERKNS_5ArrayIfEERKNS0_IbEE@Base 3.2.1~
 _ZN8casacore11MaskedArrayIfEC2ERKNS_5ArrayIfEERKNS0_IbEEb@Base 3.2.1~
 _ZN8casacore11MaskedArrayIfEC2ERKNS_5ArrayIfEERKNS2_IbEE@Base 3.2.1~
 _ZN8casacore11MaskedArrayIhEC1ERKNS_5ArrayIhEERKNS0_IbEE@Base 3.2.1~
 _ZN8casacore11MaskedArrayIhEC1ERKNS_5ArrayIhEERKNS0_IbEEb@Base 3.2.1~
 _ZN8casacore11MaskedArrayIhEC1ERKNS_5ArrayIhEERKNS2_IbEE@Base 3.2.1~
 _ZN8casacore11MaskedArrayIhEC2ERKNS_5ArrayIhEERKNS0_IbEE@Base 3.2.1~
 _ZN8casacore11MaskedArrayIhEC2ERKNS_5ArrayIhEERKNS0_IbEEb@Base 3.2.1~
 _ZN8casacore11MaskedArrayIhEC2ERKNS_5ArrayIhEERKNS2_IbEE@Base 3.2.1~
 _ZN8casacore11MaskedArrayIiEC1ERKNS_5ArrayIiEERKNS0_IbEE@Base 3.2.1~
 _ZN8casacore11MaskedArrayIiEC1ERKNS_5ArrayIiEERKNS0_IbEEb@Base 3.2.1~
 _ZN8casacore11MaskedArrayIiEC1ERKNS_5ArrayIiEERKNS2_IbEE@Base 3.2.1~
 _ZN8casacore11MaskedArrayIiEC2ERKNS_5ArrayIiEERKNS0_IbEE@Base 3.2.1~
 _ZN8casacore11MaskedArrayIiEC2ERKNS_5ArrayIiEERKNS0_IbEEb@Base 3.2.1~
 _ZN8casacore11MaskedArrayIiEC2ERKNS_5ArrayIiEERKNS2_IbEE@Base 3.2.1~
 _ZN8casacore11MaskedArrayIjEC1ERKNS_5ArrayIjEERKNS0_IbEE@Base 3.2.1~
 _ZN8casacore11MaskedArrayIjEC1ERKNS_5ArrayIjEERKNS0_IbEEb@Base 3.2.1~
 _ZN8casacore11MaskedArrayIjEC1ERKNS_5ArrayIjEERKNS2_IbEE@Base 3.2.1~
 _ZN8casacore11MaskedArrayIjEC2ERKNS_5ArrayIjEERKNS0_IbEE@Base 3.2.1~
 _ZN8casacore11MaskedArrayIjEC2ERKNS_5ArrayIjEERKNS0_IbEEb@Base 3.2.1~
 _ZN8casacore11MaskedArrayIjEC2ERKNS_5ArrayIjEERKNS2_IbEE@Base 3.2.1~
 _ZN8casacore11MaskedArrayIsEC1ERKNS_5ArrayIsEERKNS0_IbEE@Base 3.2.1~
 _ZN8casacore11MaskedArrayIsEC1ERKNS_5ArrayIsEERKNS0_IbEEb@Base 3.2.1~
 _ZN8casacore11MaskedArrayIsEC1ERKNS_5ArrayIsEERKNS2_IbEE@Base 3.2.1~
 _ZN8casacore11MaskedArrayIsEC2ERKNS_5ArrayIsEERKNS0_IbEE@Base 3.2.1~
 _ZN8casacore11MaskedArrayIsEC2ERKNS_5ArrayIsEERKNS0_IbEEb@Base 3.2.1~
 _ZN8casacore11MaskedArrayIsEC2ERKNS_5ArrayIsEERKNS2_IbEE@Base 3.2.1~
 _ZN8casacore11MaskedArrayItEC1ERKNS_5ArrayItEERKNS0_IbEE@Base 3.2.1~
 _ZN8casacore11MaskedArrayItEC1ERKNS_5ArrayItEERKNS0_IbEEb@Base 3.2.1~
 _ZN8casacore11MaskedArrayItEC1ERKNS_5ArrayItEERKNS2_IbEE@Base 3.2.1~
 _ZN8casacore11MaskedArrayItEC2ERKNS_5ArrayItEERKNS0_IbEE@Base 3.2.1~
 _ZN8casacore11MaskedArrayItEC2ERKNS_5ArrayItEERKNS0_IbEEb@Base 3.2.1~
 _ZN8casacore11MaskedArrayItEC2ERKNS_5ArrayItEERKNS2_IbEE@Base 3.2.1~
 _ZN8casacore11MaskedArrayIxEC1ERKNS_5ArrayIxEERKNS0_IbEE@Base 3.2.1~
 _ZN8casacore11MaskedArrayIxEC1ERKNS_5ArrayIxEERKNS0_IbEEb@Base 3.2.1~
 _ZN8casacore11MaskedArrayIxEC1ERKNS_5ArrayIxEERKNS2_IbEE@Base 3.2.1~
 _ZN8casacore11MaskedArrayIxEC2ERKNS_5ArrayIxEERKNS0_IbEE@Base 3.2.1~
 _ZN8casacore11MaskedArrayIxEC2ERKNS_5ArrayIxEERKNS0_IbEEb@Base 3.2.1~
 _ZN8casacore11MaskedArrayIxEC2ERKNS_5ArrayIxEERKNS2_IbEE@Base 3.2.1~
 _ZN8casacore11MemoryTrace10makeStringB5cxx11EPKc@Base 3.2.1~
 _ZN8casacore11MemoryTrace10mallocHookEmPKv@Base 3.2.1~
 _ZN8casacore11MemoryTrace10theirTimerE@Base 3.2.1~
 _ZN8casacore11MemoryTrace10writeAllocEPKvm@Base 3.2.1~
 _ZN8casacore11MemoryTrace10writeBlockEPKcRKNSt7__cxx1112basic_stringIcSt11char_traitsIcESaIcEEE@Base 3.2.1~
 _ZN8casacore11MemoryTrace10writeBlockEPKcS2_@Base 3.2.1~
 _ZN8casacore11MemoryTrace12theirDoTraceE@Base 3.2.1~
 _ZN8casacore11MemoryTrace16theirOldFreeHookE@Base 3.2.1~
 _ZN8casacore11MemoryTrace18theirOldMallocHookE@Base 3.2.1~
 _ZN8casacore11MemoryTrace4openEv@Base 3.2.1~
 _ZN8casacore11MemoryTrace4stopEv@Base 3.2.1~
 _ZN8casacore11MemoryTrace5closeEv@Base 3.2.1~
 _ZN8casacore11MemoryTrace5startEv@Base 3.2.1~
 _ZN8casacore11MemoryTrace8freeHookEPvPKv@Base 3.2.1~
 _ZN8casacore11MemoryTrace9theirFileE@Base 3.2.1~
 _ZN8casacore11MemoryTrace9writeFreeEPKv@Base 3.2.1~
 _ZN8casacore11NullLogSink11postLocallyERKNS_10LogMessageE@Base 3.2.1~
 _ZN8casacore11NullLogSink7localIdEv@Base 3.2.1~
 _ZN8casacore11NullLogSinkC1ENS_10LogMessage8PriorityE@Base 3.2.1~
 _ZN8casacore11NullLogSinkC1ERKNS_18LogFilterInterfaceE@Base 3.2.1~
 _ZN8casacore11NullLogSinkC1ERKS0_@Base 3.2.1~
 _ZN8casacore11NullLogSinkC1Ev@Base 3.2.1~
 _ZN8casacore11NullLogSinkC2ENS_10LogMessage8PriorityE@Base 3.2.1~
 _ZN8casacore11NullLogSinkC2ERKNS_18LogFilterInterfaceE@Base 3.2.1~
 _ZN8casacore11NullLogSinkC2ERKS0_@Base 3.2.1~
 _ZN8casacore11NullLogSinkC2Ev@Base 3.2.1~
 _ZN8casacore11NullLogSinkD0Ev@Base 3.2.1~
 _ZN8casacore11NullLogSinkD1Ev@Base 3.2.1~
 _ZN8casacore11NullLogSinkD2Ev@Base 3.2.1~
 _ZN8casacore11NullLogSinkaSERKS0_@Base 3.2.1~
 _ZN8casacore11RXlowercaseE@Base 3.2.1~
 _ZN8casacore11RXuppercaseE@Base 3.2.1~
 _ZN8casacore11RegSequence4nextE@Base 3.2.1~
 _ZN8casacore11RegSequence7getNextEv@Base 3.2.1~
 _ZN8casacore11RegSequenceD0Ev@Base 3.2.1~
 _ZN8casacore11RegSequenceD1Ev@Base 3.2.1~
 _ZN8casacore11RegSequenceD2Ev@Base 3.2.1~
 _ZN8casacore11RegularFile10manualCopyERKNS_6StringES3_@Base 3.2.1~
 _ZN8casacore11RegularFile4moveERKNS_4PathEb@Base 3.2.1~
 _ZN8casacore11RegularFile6createEb@Base 3.2.1~
 _ZN8casacore11RegularFile6removeEv@Base 3.2.1~
 _ZN8casacore11RegularFile9checkPathEv@Base 3.2.1~
 _ZN8casacore11RegularFileC1ERKNS_4FileE@Base 3.2.1~
 _ZN8casacore11RegularFileC1ERKNS_4PathE@Base 3.2.1~
 _ZN8casacore11RegularFileC1ERKNS_6StringE@Base 3.2.1~
 _ZN8casacore11RegularFileC1ERKS0_@Base 3.2.1~
 _ZN8casacore11RegularFileC1Ev@Base 3.2.1~
 _ZN8casacore11RegularFileC2ERKNS_4FileE@Base 3.2.1~
 _ZN8casacore11RegularFileC2ERKNS_4PathE@Base 3.2.1~
 _ZN8casacore11RegularFileC2ERKNS_6StringE@Base 3.2.1~
 _ZN8casacore11RegularFileC2ERKS0_@Base 3.2.1~
 _ZN8casacore11RegularFileC2Ev@Base 3.2.1~
 _ZN8casacore11RegularFileD0Ev@Base 3.2.1~
 _ZN8casacore11RegularFileD1Ev@Base 3.2.1~
 _ZN8casacore11RegularFileD2Ev@Base 3.2.1~
 _ZN8casacore11RegularFileaSERKS0_@Base 3.2.1~
 _ZN8casacore11SortInvIncrC1ENS_9AipsError8CategoryE@Base 3.2.1~
 _ZN8casacore11SortInvIncrC2ENS_9AipsError8CategoryE@Base 3.2.1~
 _ZN8casacore11SortInvIncrD0Ev@Base 3.2.1~
 _ZN8casacore11SortInvIncrD1Ev@Base 3.2.1~
 _ZN8casacore11SortInvIncrD2Ev@Base 3.2.1~
 _ZN8casacore11SyntaxTable4initEv@Base 3.2.1~
 _ZN8casacore11ValueHolderC1EPKc@Base 3.2.1~
 _ZN8casacore11ValueHolderC1ERKNS_5ArrayINS_6StringEEE@Base 3.2.1~
 _ZN8casacore11ValueHolderC1ERKNS_5ArrayISt7complexIdEEE@Base 3.2.1~
 _ZN8casacore11ValueHolderC1ERKNS_5ArrayISt7complexIfEEE@Base 3.2.1~
 _ZN8casacore11ValueHolderC1ERKNS_5ArrayIbEE@Base 3.2.1~
 _ZN8casacore11ValueHolderC1ERKNS_5ArrayIdEE@Base 3.2.1~
 _ZN8casacore11ValueHolderC1ERKNS_5ArrayIfEE@Base 3.2.1~
 _ZN8casacore11ValueHolderC1ERKNS_5ArrayIhEE@Base 3.2.1~
 _ZN8casacore11ValueHolderC1ERKNS_5ArrayIiEE@Base 3.2.1~
 _ZN8casacore11ValueHolderC1ERKNS_5ArrayIjEE@Base 3.2.1~
 _ZN8casacore11ValueHolderC1ERKNS_5ArrayIsEE@Base 3.2.1~
 _ZN8casacore11ValueHolderC1ERKNS_5ArrayItEE@Base 3.2.1~
 _ZN8casacore11ValueHolderC1ERKNS_5ArrayIxEE@Base 3.2.1~
 _ZN8casacore11ValueHolderC1ERKNS_6RecordE@Base 3.2.1~
 _ZN8casacore11ValueHolderC1ERKNS_6StringE@Base 3.2.1~
 _ZN8casacore11ValueHolderC1ERKS0_@Base 3.2.1~
 _ZN8casacore11ValueHolderC1ERKSt7complexIdE@Base 3.2.1~
 _ZN8casacore11ValueHolderC1ERKSt7complexIfE@Base 3.2.1~
 _ZN8casacore11ValueHolderC1Eb@Base 3.2.1~
 _ZN8casacore11ValueHolderC1Ed@Base 3.2.1~
 _ZN8casacore11ValueHolderC1Ef@Base 3.2.1~
 _ZN8casacore11ValueHolderC1Eh@Base 3.2.1~
 _ZN8casacore11ValueHolderC1Ei@Base 3.2.1~
 _ZN8casacore11ValueHolderC1Ej@Base 3.2.1~
 _ZN8casacore11ValueHolderC1Ejb@Base 3.2.1~
 _ZN8casacore11ValueHolderC1Es@Base 3.2.1~
 _ZN8casacore11ValueHolderC1Et@Base 3.2.1~
 _ZN8casacore11ValueHolderC1Ex@Base 3.2.1~
 _ZN8casacore11ValueHolderC2EPKc@Base 3.2.1~
 _ZN8casacore11ValueHolderC2ERKNS_5ArrayINS_6StringEEE@Base 3.2.1~
 _ZN8casacore11ValueHolderC2ERKNS_5ArrayISt7complexIdEEE@Base 3.2.1~
 _ZN8casacore11ValueHolderC2ERKNS_5ArrayISt7complexIfEEE@Base 3.2.1~
 _ZN8casacore11ValueHolderC2ERKNS_5ArrayIbEE@Base 3.2.1~
 _ZN8casacore11ValueHolderC2ERKNS_5ArrayIdEE@Base 3.2.1~
 _ZN8casacore11ValueHolderC2ERKNS_5ArrayIfEE@Base 3.2.1~
 _ZN8casacore11ValueHolderC2ERKNS_5ArrayIhEE@Base 3.2.1~
 _ZN8casacore11ValueHolderC2ERKNS_5ArrayIiEE@Base 3.2.1~
 _ZN8casacore11ValueHolderC2ERKNS_5ArrayIjEE@Base 3.2.1~
 _ZN8casacore11ValueHolderC2ERKNS_5ArrayIsEE@Base 3.2.1~
 _ZN8casacore11ValueHolderC2ERKNS_5ArrayItEE@Base 3.2.1~
 _ZN8casacore11ValueHolderC2ERKNS_5ArrayIxEE@Base 3.2.1~
 _ZN8casacore11ValueHolderC2ERKNS_6RecordE@Base 3.2.1~
 _ZN8casacore11ValueHolderC2ERKNS_6StringE@Base 3.2.1~
 _ZN8casacore11ValueHolderC2ERKS0_@Base 3.2.1~
 _ZN8casacore11ValueHolderC2ERKSt7complexIdE@Base 3.2.1~
 _ZN8casacore11ValueHolderC2ERKSt7complexIfE@Base 3.2.1~
 _ZN8casacore11ValueHolderC2Eb@Base 3.2.1~
 _ZN8casacore11ValueHolderC2Ed@Base 3.2.1~
 _ZN8casacore11ValueHolderC2Ef@Base 3.2.1~
 _ZN8casacore11ValueHolderC2Eh@Base 3.2.1~
 _ZN8casacore11ValueHolderC2Ei@Base 3.2.1~
 _ZN8casacore11ValueHolderC2Ej@Base 3.2.1~
 _ZN8casacore11ValueHolderC2Ejb@Base 3.2.1~
 _ZN8casacore11ValueHolderC2Es@Base 3.2.1~
 _ZN8casacore11ValueHolderC2Et@Base 3.2.1~
 _ZN8casacore11ValueHolderC2Ex@Base 3.2.1~
 _ZN8casacore11ValueHolderaSERKS0_@Base 3.2.1~
 _ZN8casacore11isScalarFunENS_8DataTypeE@Base 3.2.1~
 _ZN8casacore11objcopyctorINS_5SliceEEEvPT_PKS2_mmm@Base 3.2.1~
 _ZN8casacore11objcopyctorINS_6StringEEEvPT_PKS2_m@Base 3.2.1~
 _ZN8casacore11objcopyctorINS_6StringEEEvPT_PKS2_mmm@Base 3.2.1~
 _ZN8casacore11objcopyctorINS_7QuantumIdEEEEvPT_PKS3_m@Base 3.2.1~
 _ZN8casacore11objcopyctorINS_7QuantumIdEEEEvPT_PKS3_mmm@Base 3.2.1~
 _ZN8casacore11objcopyctorISt7complexIdEEEvPT_PKS3_mmm@Base 3.2.1~
 _ZN8casacore11objcopyctorISt7complexIfEEEvPT_PKS3_mmm@Base 3.2.1~
 _ZN8casacore11objcopyctorIbEEvPT_PKS1_mmm@Base 3.2.1~
 _ZN8casacore11objcopyctorIcEEvPT_PKS1_mmm@Base 3.2.1~
 _ZN8casacore11objcopyctorIdEEvPT_PKS1_mmm@Base 3.2.1~
 _ZN8casacore11objcopyctorIfEEvPT_PKS1_mmm@Base 3.2.1~
 _ZN8casacore11objcopyctorIhEEvPT_PKS1_mmm@Base 3.2.1~
 _ZN8casacore11objcopyctorIiEEvPT_PKS1_mmm@Base 3.2.1~
 _ZN8casacore11objcopyctorIjEEvPT_PKS1_mmm@Base 3.2.1~
 _ZN8casacore11objcopyctorIsEEvPT_PKS1_mmm@Base 3.2.1~
 _ZN8casacore11objcopyctorItEEvPT_PKS1_mmm@Base 3.2.1~
 _ZN8casacore11objcopyctorIxEEvPT_PKS1_mmm@Base 3.2.1~
 _ZN8casacore11objthrowcp1EPKvS1_m@Base 3.2.1~
 _ZN8casacore11objthrowcp2EPKvS1_mmm@Base 3.2.1~
 _ZN8casacore11objthrowfl1EPKvm@Base 3.2.1~
 _ZN8casacore11objthrowfl2EPKvmm@Base 3.2.1~
 _ZN8casacore11objthrowmv1EPKvS1_m@Base 3.2.1~
 _ZN8casacore11objthrowmv2EPKvS1_mmm@Base 3.2.1~
 _ZN8casacore11roundDoubleEdd@Base 3.2.1~
 _ZN8casacore12AipsrcVectorINS_6StringEE10registerRCERKS1_RKNS_6VectorIS1_EE@Base 3.2.1~
 _ZN8casacore12AipsrcVectorINS_6StringEE10theirMutexE@Base 3.2.1~
 _ZN8casacore12AipsrcVectorINS_6StringEE3getEj@Base 3.2.1~
 _ZN8casacore12AipsrcVectorINS_6StringEE3setEjRKNS_6VectorIS1_EE@Base 3.2.1~
 _ZN8casacore12AipsrcVectorINS_6StringEE4findERNS_6VectorIS1_EERKS1_@Base 3.2.1~
 _ZN8casacore12AipsrcVectorINS_6StringEE4findERNS_6VectorIS1_EERKS1_RKS4_@Base 3.2.1~
 _ZN8casacore12AipsrcVectorINS_6StringEE4saveEj@Base 3.2.1~
 _ZN8casacore12AipsrcVectorINS_6StringEE5myp_pE@Base 3.2.1~
 _ZN8casacore12AipsrcVectorINS_6StringEEC1Ev@Base 3.2.1~
 _ZN8casacore12AipsrcVectorINS_6StringEEC2Ev@Base 3.2.1~
 _ZN8casacore12AipsrcVectorINS_6StringEED1Ev@Base 3.2.1~
 _ZN8casacore12AipsrcVectorINS_6StringEED2Ev@Base 3.2.1~
 _ZN8casacore12AipsrcVectorIbE10registerRCERKNS_6StringERKNS_6VectorIbEE@Base 3.2.1~
 _ZN8casacore12AipsrcVectorIbE10theirMutexE@Base 3.2.1~
 _ZN8casacore12AipsrcVectorIbE3getEj@Base 3.2.1~
 _ZN8casacore12AipsrcVectorIbE3setEjRKNS_6VectorIbEE@Base 3.2.1~
 _ZN8casacore12AipsrcVectorIbE4findERNS_6VectorIbEERKNS_6StringE@Base 3.2.1~
 _ZN8casacore12AipsrcVectorIbE4findERNS_6VectorIbEERKNS_6StringERKS3_@Base 3.2.1~
 _ZN8casacore12AipsrcVectorIbE4saveEj@Base 3.2.1~
 _ZN8casacore12AipsrcVectorIbE5myp_pE@Base 3.2.1~
 _ZN8casacore12AipsrcVectorIbEC1Ev@Base 3.2.1~
 _ZN8casacore12AipsrcVectorIbEC2Ev@Base 3.2.1~
 _ZN8casacore12AipsrcVectorIbED1Ev@Base 3.2.1~
 _ZN8casacore12AipsrcVectorIbED2Ev@Base 3.2.1~
 _ZN8casacore12BucketMapped17initializeBucketsEj@Base 3.2.1~
 _ZN8casacore12BucketMapped7doFlushEv@Base 3.2.1~
 _ZN8casacore12BucketMapped8doExtendEj@Base 3.2.1~
 _ZN8casacore12BucketMapped8doResyncEv@Base 3.2.1~
 _ZN8casacore12BucketMapped9getBucketEj@Base 3.2.1~
 _ZN8casacore12BucketMappedC1EPNS_10BucketFileExjj@Base 3.2.1~
 _ZN8casacore12BucketMappedC2EPNS_10BucketFileExjj@Base 3.2.1~
 _ZN8casacore12BucketMappedD0Ev@Base 3.2.1~
 _ZN8casacore12BucketMappedD1Ev@Base 3.2.1~
 _ZN8casacore12BucketMappedD2Ev@Base 3.2.1~
 _ZN8casacore12ConversionIO4initEv@Base 3.2.1~
 _ZN8casacore12ConversionIO4readEmPNS_6StringE@Base 3.2.1~
 _ZN8casacore12ConversionIO4readEmPSt7complexIdE@Base 3.2.1~
 _ZN8casacore12ConversionIO4readEmPSt7complexIfE@Base 3.2.1~
 _ZN8casacore12ConversionIO4readEmPb@Base 3.2.1~
 _ZN8casacore12ConversionIO4readEmPc@Base 3.2.1~
 _ZN8casacore12ConversionIO4readEmPd@Base 3.2.1~
 _ZN8casacore12ConversionIO4readEmPf@Base 3.2.1~
 _ZN8casacore12ConversionIO4readEmPh@Base 3.2.1~
 _ZN8casacore12ConversionIO4readEmPi@Base 3.2.1~
 _ZN8casacore12ConversionIO4readEmPj@Base 3.2.1~
 _ZN8casacore12ConversionIO4readEmPs@Base 3.2.1~
 _ZN8casacore12ConversionIO4readEmPt@Base 3.2.1~
 _ZN8casacore12ConversionIO4readEmPx@Base 3.2.1~
 _ZN8casacore12ConversionIO4readEmPy@Base 3.2.1~
 _ZN8casacore12ConversionIO5writeEmPKNS_6StringE@Base 3.2.1~
 _ZN8casacore12ConversionIO5writeEmPKSt7complexIdE@Base 3.2.1~
 _ZN8casacore12ConversionIO5writeEmPKSt7complexIfE@Base 3.2.1~
 _ZN8casacore12ConversionIO5writeEmPKb@Base 3.2.1~
 _ZN8casacore12ConversionIO5writeEmPKc@Base 3.2.1~
 _ZN8casacore12ConversionIO5writeEmPKd@Base 3.2.1~
 _ZN8casacore12ConversionIO5writeEmPKf@Base 3.2.1~
 _ZN8casacore12ConversionIO5writeEmPKh@Base 3.2.1~
 _ZN8casacore12ConversionIO5writeEmPKi@Base 3.2.1~
 _ZN8casacore12ConversionIO5writeEmPKj@Base 3.2.1~
 _ZN8casacore12ConversionIO5writeEmPKs@Base 3.2.1~
 _ZN8casacore12ConversionIO5writeEmPKt@Base 3.2.1~
 _ZN8casacore12ConversionIO5writeEmPKx@Base 3.2.1~
 _ZN8casacore12ConversionIO5writeEmPKy@Base 3.2.1~
 _ZN8casacore12ConversionIOC1EPNS_14DataConversionEPNS_6ByteIOEjb@Base 3.2.1~
 _ZN8casacore12ConversionIOC1ERKS0_@Base 3.2.1~
 _ZN8casacore12ConversionIOC2EPNS_14DataConversionEPNS_6ByteIOEjb@Base 3.2.1~
 _ZN8casacore12ConversionIOC2ERKS0_@Base 3.2.1~
 _ZN8casacore12ConversionIOD0Ev@Base 3.2.1~
 _ZN8casacore12ConversionIOD1Ev@Base 3.2.1~
 _ZN8casacore12ConversionIOD2Ev@Base 3.2.1~
 _ZN8casacore12ConversionIOaSERKS0_@Base 3.2.1~
 _ZN8casacore12HDF5DataType11getDataTypeEl@Base 3.2.1~
 _ZN8casacore12HDF5DataType12isEmptyArrayEl@Base 3.2.1~
 _ZN8casacore12HDF5DataType13addToCompoundEPKcjRKS0_@Base 3.2.1~
 _ZN8casacore12HDF5DataType7toShapeERKNS_5BlockIyEE@Base 3.2.1~
 _ZN8casacore12HDF5DataType8getShapeEl@Base 3.2.1~
 _ZN8casacore12HDF5DataType9fromShapeERKNS_9IPositionE@Base 3.2.1~
 _ZN8casacore12HDF5DataType9isComplexEl@Base 3.2.1~
 _ZN8casacore12HDF5DataTypeC1EPKNS_6StringE@Base 3.2.1~
 _ZN8casacore12HDF5DataTypeC1EPKSt7complexIdE@Base 3.2.1~
 _ZN8casacore12HDF5DataTypeC1EPKSt7complexIfE@Base 3.2.1~
 _ZN8casacore12HDF5DataTypeC1EPKb@Base 3.2.1~
 _ZN8casacore12HDF5DataTypeC1EPKd@Base 3.2.1~
 _ZN8casacore12HDF5DataTypeC1EPKf@Base 3.2.1~
 _ZN8casacore12HDF5DataTypeC1EPKh@Base 3.2.1~
 _ZN8casacore12HDF5DataTypeC1EPKi@Base 3.2.1~
 _ZN8casacore12HDF5DataTypeC1EPKj@Base 3.2.1~
 _ZN8casacore12HDF5DataTypeC1EPKs@Base 3.2.1~
 _ZN8casacore12HDF5DataTypeC1EPKt@Base 3.2.1~
 _ZN8casacore12HDF5DataTypeC1EPKx@Base 3.2.1~
 _ZN8casacore12HDF5DataTypeC1ERKNS_6StringE@Base 3.2.1~
 _ZN8casacore12HDF5DataTypeC1ERKS0_@Base 3.2.1~
 _ZN8casacore12HDF5DataTypeC1ERKS0_RKNS_9IPositionE@Base 3.2.1~
 _ZN8casacore12HDF5DataTypeC1ERKSt6vectorINS_6StringESaIS2_EERKS1_IS0_SaIS0_EE@Base 3.2.1~
 _ZN8casacore12HDF5DataTypeC1Eii@Base 3.2.1~
 _ZN8casacore12HDF5DataTypeC2EPKNS_6StringE@Base 3.2.1~
 _ZN8casacore12HDF5DataTypeC2EPKSt7complexIdE@Base 3.2.1~
 _ZN8casacore12HDF5DataTypeC2EPKSt7complexIfE@Base 3.2.1~
 _ZN8casacore12HDF5DataTypeC2EPKb@Base 3.2.1~
 _ZN8casacore12HDF5DataTypeC2EPKd@Base 3.2.1~
 _ZN8casacore12HDF5DataTypeC2EPKf@Base 3.2.1~
 _ZN8casacore12HDF5DataTypeC2EPKh@Base 3.2.1~
 _ZN8casacore12HDF5DataTypeC2EPKi@Base 3.2.1~
 _ZN8casacore12HDF5DataTypeC2EPKj@Base 3.2.1~
 _ZN8casacore12HDF5DataTypeC2EPKs@Base 3.2.1~
 _ZN8casacore12HDF5DataTypeC2EPKt@Base 3.2.1~
 _ZN8casacore12HDF5DataTypeC2EPKx@Base 3.2.1~
 _ZN8casacore12HDF5DataTypeC2ERKNS_6StringE@Base 3.2.1~
 _ZN8casacore12HDF5DataTypeC2ERKS0_@Base 3.2.1~
 _ZN8casacore12HDF5DataTypeC2ERKS0_RKNS_9IPositionE@Base 3.2.1~
 _ZN8casacore12HDF5DataTypeC2ERKSt6vectorINS_6StringESaIS2_EERKS1_IS0_SaIS0_EE@Base 3.2.1~
 _ZN8casacore12HDF5DataTypeC2Eii@Base 3.2.1~
 _ZN8casacore12HDF5DataTypeD1Ev@Base 3.2.1~
 _ZN8casacore12HDF5DataTypeD2Ev@Base 3.2.1~
 _ZN8casacore12HDF5DataTypeaSERKS0_@Base 3.2.1~
 _ZN8casacore12NoticeSource6notifyERKNS_6NoticeE@Base 3.2.1~
 _ZN8casacore12NoticeSourceD0Ev@Base 3.2.1~
 _ZN8casacore12NoticeSourceD1Ev@Base 3.2.1~
 _ZN8casacore12NoticeSourceD2Ev@Base 3.2.1~
 _ZN8casacore12NoticeTarget4linkEPKS0_@Base 3.2.1~
 _ZN8casacore12NoticeTarget4linkERKS0_@Base 3.2.1~
 _ZN8casacore12NoticeTarget6attachEPNS_12NoticeSourceE@Base 3.2.1~
 _ZN8casacore12NoticeTarget6attachERNS_12NoticeSourceE@Base 3.2.1~
 _ZN8casacore12NoticeTarget6unlinkEv@Base 3.2.1~
 _ZN8casacore12NoticeTargetD0Ev@Base 3.2.1~
 _ZN8casacore12NoticeTargetD1Ev@Base 3.2.1~
 _ZN8casacore12NoticeTargetD2Ev@Base 3.2.1~
 _ZN8casacore12RXidentifierE@Base 3.2.1~
 _ZN8casacore12RecordNoticeC1ENS0_10NoticeTypeEj@Base 3.2.1~
 _ZN8casacore12RecordNoticeC2ENS0_10NoticeTypeEj@Base 3.2.1~
 _ZN8casacore12RecordNoticeD0Ev@Base 3.2.1~
 _ZN8casacore12RecordNoticeD1Ev@Base 3.2.1~
 _ZN8casacore12RecordNoticeD2Ev@Base 3.2.1~
 _ZN8casacore12convertArrayISt7complexIdES1_IfEEEvRNS_5ArrayIT_EERKNS4_IT0_EE@Base 3.2.1~
 _ZN8casacore12convertArrayISt7complexIdEdEEvRNS_5ArrayIT_EERKNS3_IT0_EE@Base 3.2.1~
 _ZN8casacore12convertArrayISt7complexIdEfEEvRNS_5ArrayIT_EERKNS3_IT0_EE@Base 3.2.1~
 _ZN8casacore12convertArrayISt7complexIdEiEEvRNS_5ArrayIT_EERKNS3_IT0_EE@Base 3.2.1~
 _ZN8casacore12convertArrayISt7complexIdEjEEvRNS_5ArrayIT_EERKNS3_IT0_EE@Base 3.2.1~
 _ZN8casacore12convertArrayISt7complexIdExEEvRNS_5ArrayIT_EERKNS3_IT0_EE@Base 3.2.1~
 _ZN8casacore12convertArrayISt7complexIfES1_IdEEEvRNS_5ArrayIT_EERKNS4_IT0_EE@Base 3.2.1~
 _ZN8casacore12convertArrayISt7complexIfEdEEvRNS_5ArrayIT_EERKNS3_IT0_EE@Base 3.2.1~
 _ZN8casacore12convertArrayISt7complexIfEfEEvRNS_5ArrayIT_EERKNS3_IT0_EE@Base 3.2.1~
 _ZN8casacore12convertArrayISt7complexIfEiEEvRNS_5ArrayIT_EERKNS3_IT0_EE@Base 3.2.1~
 _ZN8casacore12convertArrayISt7complexIfEjEEvRNS_5ArrayIT_EERKNS3_IT0_EE@Base 3.2.1~
 _ZN8casacore12convertArrayISt7complexIfExEEvRNS_5ArrayIT_EERKNS3_IT0_EE@Base 3.2.1~
 _ZN8casacore12convertArrayIbdEEvRNS_5ArrayIT_EERKNS1_IT0_EE@Base 3.2.1~
 _ZN8casacore12convertArrayIbiEEvRNS_5ArrayIT_EERKNS1_IT0_EE@Base 3.2.1~
 _ZN8casacore12convertArrayIbxEEvRNS_5ArrayIT_EERKNS1_IT0_EE@Base 3.2.1~
 _ZN8casacore12convertArrayIdfEEvRNS_5ArrayIT_EERKNS1_IT0_EE@Base 3.2.1~
 _ZN8casacore12convertArrayIdhEEvRNS_5ArrayIT_EERKNS1_IT0_EE@Base 3.2.1~
 _ZN8casacore12convertArrayIdiEEvRNS_5ArrayIT_EERKNS1_IT0_EE@Base 3.2.1~
 _ZN8casacore12convertArrayIdjEEvRNS_5ArrayIT_EERKNS1_IT0_EE@Base 3.2.1~
 _ZN8casacore12convertArrayIdsEEvRNS_5ArrayIT_EERKNS1_IT0_EE@Base 3.2.1~
 _ZN8casacore12convertArrayIdxEEvRNS_5ArrayIT_EERKNS1_IT0_EE@Base 3.2.1~
 _ZN8casacore12convertArrayIfdEEvRNS_5ArrayIT_EERKNS1_IT0_EE@Base 3.2.1~
 _ZN8casacore12convertArrayIfhEEvRNS_5ArrayIT_EERKNS1_IT0_EE@Base 3.2.1~
 _ZN8casacore12convertArrayIfiEEvRNS_5ArrayIT_EERKNS1_IT0_EE@Base 3.2.1~
 _ZN8casacore12convertArrayIfjEEvRNS_5ArrayIT_EERKNS1_IT0_EE@Base 3.2.1~
 _ZN8casacore12convertArrayIfsEEvRNS_5ArrayIT_EERKNS1_IT0_EE@Base 3.2.1~
 _ZN8casacore12convertArrayIfxEEvRNS_5ArrayIT_EERKNS1_IT0_EE@Base 3.2.1~
 _ZN8casacore12convertArrayIhdEEvRNS_5ArrayIT_EERKNS1_IT0_EE@Base 3.2.1~
 _ZN8casacore12convertArrayIhiEEvRNS_5ArrayIT_EERKNS1_IT0_EE@Base 3.2.1~
 _ZN8casacore12convertArrayIhxEEvRNS_5ArrayIT_EERKNS1_IT0_EE@Base 3.2.1~
 _ZN8casacore12convertArrayIidEEvRNS_5ArrayIT_EERKNS1_IT0_EE@Base 3.2.1~
 _ZN8casacore12convertArrayIihEEvRNS_5ArrayIT_EERKNS1_IT0_EE@Base 3.2.1~
 _ZN8casacore12convertArrayIijEEvRNS_5ArrayIT_EERKNS1_IT0_EE@Base 3.2.1~
 _ZN8casacore12convertArrayIisEEvRNS_5ArrayIT_EERKNS1_IT0_EE@Base 3.2.1~
 _ZN8casacore12convertArrayIixEEvRNS_5ArrayIT_EERKNS1_IT0_EE@Base 3.2.1~
 _ZN8casacore12convertArrayIjdEEvRNS_5ArrayIT_EERKNS1_IT0_EE@Base 3.2.1~
 _ZN8casacore12convertArrayIjhEEvRNS_5ArrayIT_EERKNS1_IT0_EE@Base 3.2.1~
 _ZN8casacore12convertArrayIjiEEvRNS_5ArrayIT_EERKNS1_IT0_EE@Base 3.2.1~
 _ZN8casacore12convertArrayIjsEEvRNS_5ArrayIT_EERKNS1_IT0_EE@Base 3.2.1~
 _ZN8casacore12convertArrayIjtEEvRNS_5ArrayIT_EERKNS1_IT0_EE@Base 3.2.1~
 _ZN8casacore12convertArrayIjxEEvRNS_5ArrayIT_EERKNS1_IT0_EE@Base 3.2.1~
 _ZN8casacore12convertArrayIsdEEvRNS_5ArrayIT_EERKNS1_IT0_EE@Base 3.2.1~
 _ZN8casacore12convertArrayIshEEvRNS_5ArrayIT_EERKNS1_IT0_EE@Base 3.2.1~
 _ZN8casacore12convertArrayIsiEEvRNS_5ArrayIT_EERKNS1_IT0_EE@Base 3.2.1~
 _ZN8casacore12convertArrayIsxEEvRNS_5ArrayIT_EERKNS1_IT0_EE@Base 3.2.1~
 _ZN8casacore12convertArrayItdEEvRNS_5ArrayIT_EERKNS1_IT0_EE@Base 3.2.1~
 _ZN8casacore12convertArrayItiEEvRNS_5ArrayIT_EERKNS1_IT0_EE@Base 3.2.1~
 _ZN8casacore12convertArrayItxEEvRNS_5ArrayIT_EERKNS1_IT0_EE@Base 3.2.1~
 _ZN8casacore12convertArrayIxdEEvRNS_5ArrayIT_EERKNS1_IT0_EE@Base 3.2.1~
 _ZN8casacore12convertArrayIxhEEvRNS_5ArrayIT_EERKNS1_IT0_EE@Base 3.2.1~
 _ZN8casacore12convertArrayIxiEEvRNS_5ArrayIT_EERKNS1_IT0_EE@Base 3.2.1~
 _ZN8casacore12convertArrayIxjEEvRNS_5ArrayIT_EERKNS1_IT0_EE@Base 3.2.1~
 _ZN8casacore12convertArrayIxsEEvRNS_5ArrayIT_EERKNS1_IT0_EE@Base 3.2.1~
 _ZN8casacore12innerProductERKNS_6VectorISt7complexIdEEES5_@Base 3.2.1~
 _ZN8casacore12innerProductERKNS_6VectorISt7complexIfEEES5_@Base 3.2.1~
 _ZN8casacore12innerProductIdEET_RKNS_6VectorIS1_EES5_@Base 3.2.1~
 _ZN8casacore12innerProductIfEET_RKNS_6VectorIS1_EES5_@Base 3.2.1~
 _ZN8casacore12innerProductIiEET_RKNS_6VectorIS1_EES5_@Base 3.2.1~
 _ZN8casacore12readQuantityERNS_7QuantumIdEERKNS_6StringE@Base 3.2.1~
 _ZN8casacore12readQuantityERNS_7QuantumIdEERNS_8MUStringE@Base 3.2.1~
 _ZN8casacore12throwInvHDF5Ev@Base 3.2.1~
 _ZN8casacore12uIntSequence4nextE@Base 3.2.1~
 _ZN8casacore12uIntSequence8SgetNextEv@Base 3.2.1~
 _ZN8casacore13ArrayIteratorINS_5SliceEE12apSetPointerEi@Base 3.2.1~
 _ZN8casacore13ArrayIteratorINS_5SliceEE3setERKNS_9IPositionE@Base 3.2.1~
 _ZN8casacore13ArrayIteratorINS_5SliceEE4initERKNS_5ArrayIS1_EE@Base 3.2.1~
 _ZN8casacore13ArrayIteratorINS_5SliceEE4nextEv@Base 3.2.1~
 _ZN8casacore13ArrayIteratorINS_5SliceEE5resetEv@Base 3.2.1~
 _ZN8casacore13ArrayIteratorINS_5SliceEE8getArrayEv@Base 3.2.1~
 _ZN8casacore13ArrayIteratorINS_5SliceEED0Ev@Base 3.2.1~
 _ZN8casacore13ArrayIteratorINS_5SliceEED1Ev@Base 3.2.1~
 _ZN8casacore13ArrayIteratorINS_5SliceEED2Ev@Base 3.2.1~
 _ZN8casacore13ArrayIteratorINS_6StringEE12apSetPointerEi@Base 3.2.1~
 _ZN8casacore13ArrayIteratorINS_6StringEE3setERKNS_9IPositionE@Base 3.2.1~
 _ZN8casacore13ArrayIteratorINS_6StringEE4initERKNS_5ArrayIS1_EE@Base 3.2.1~
 _ZN8casacore13ArrayIteratorINS_6StringEE4nextEv@Base 3.2.1~
 _ZN8casacore13ArrayIteratorINS_6StringEE5resetEv@Base 3.2.1~
 _ZN8casacore13ArrayIteratorINS_6StringEE8getArrayEv@Base 3.2.1~
 _ZN8casacore13ArrayIteratorINS_6StringEED0Ev@Base 3.2.1~
 _ZN8casacore13ArrayIteratorINS_6StringEED1Ev@Base 3.2.1~
 _ZN8casacore13ArrayIteratorINS_6StringEED2Ev@Base 3.2.1~
 _ZN8casacore13ArrayIteratorINS_7QuantumIdEEE12apSetPointerEi@Base 3.2.1~
 _ZN8casacore13ArrayIteratorINS_7QuantumIdEEE3setERKNS_9IPositionE@Base 3.2.1~
 _ZN8casacore13ArrayIteratorINS_7QuantumIdEEE4initERKNS_5ArrayIS2_EE@Base 3.2.1~
 _ZN8casacore13ArrayIteratorINS_7QuantumIdEEE4nextEv@Base 3.2.1~
 _ZN8casacore13ArrayIteratorINS_7QuantumIdEEE5resetEv@Base 3.2.1~
 _ZN8casacore13ArrayIteratorINS_7QuantumIdEEE8getArrayEv@Base 3.2.1~
 _ZN8casacore13ArrayIteratorINS_7QuantumIdEEED0Ev@Base 3.2.1~
 _ZN8casacore13ArrayIteratorINS_7QuantumIdEEED1Ev@Base 3.2.1~
 _ZN8casacore13ArrayIteratorINS_7QuantumIdEEED2Ev@Base 3.2.1~
 _ZN8casacore13ArrayIteratorISt7complexIdEE12apSetPointerEi@Base 3.2.1~
 _ZN8casacore13ArrayIteratorISt7complexIdEE3setERKNS_9IPositionE@Base 3.2.1~
 _ZN8casacore13ArrayIteratorISt7complexIdEE4initERKNS_5ArrayIS2_EE@Base 3.2.1~
 _ZN8casacore13ArrayIteratorISt7complexIdEE4nextEv@Base 3.2.1~
 _ZN8casacore13ArrayIteratorISt7complexIdEE5resetEv@Base 3.2.1~
 _ZN8casacore13ArrayIteratorISt7complexIdEE8getArrayEv@Base 3.2.1~
 _ZN8casacore13ArrayIteratorISt7complexIdEED0Ev@Base 3.2.1~
 _ZN8casacore13ArrayIteratorISt7complexIdEED1Ev@Base 3.2.1~
 _ZN8casacore13ArrayIteratorISt7complexIdEED2Ev@Base 3.2.1~
 _ZN8casacore13ArrayIteratorISt7complexIfEE12apSetPointerEi@Base 3.2.1~
 _ZN8casacore13ArrayIteratorISt7complexIfEE3setERKNS_9IPositionE@Base 3.2.1~
 _ZN8casacore13ArrayIteratorISt7complexIfEE4initERKNS_5ArrayIS2_EE@Base 3.2.1~
 _ZN8casacore13ArrayIteratorISt7complexIfEE4nextEv@Base 3.2.1~
 _ZN8casacore13ArrayIteratorISt7complexIfEE5resetEv@Base 3.2.1~
 _ZN8casacore13ArrayIteratorISt7complexIfEE8getArrayEv@Base 3.2.1~
 _ZN8casacore13ArrayIteratorISt7complexIfEED0Ev@Base 3.2.1~
 _ZN8casacore13ArrayIteratorISt7complexIfEED1Ev@Base 3.2.1~
 _ZN8casacore13ArrayIteratorISt7complexIfEED2Ev@Base 3.2.1~
 _ZN8casacore13ArrayIteratorIbE12apSetPointerEi@Base 3.2.1~
 _ZN8casacore13ArrayIteratorIbE3setERKNS_9IPositionE@Base 3.2.1~
 _ZN8casacore13ArrayIteratorIbE4initERKNS_5ArrayIbEE@Base 3.2.1~
 _ZN8casacore13ArrayIteratorIbE4nextEv@Base 3.2.1~
 _ZN8casacore13ArrayIteratorIbE5resetEv@Base 3.2.1~
 _ZN8casacore13ArrayIteratorIbE8getArrayEv@Base 3.2.1~
 _ZN8casacore13ArrayIteratorIbED0Ev@Base 3.2.1~
 _ZN8casacore13ArrayIteratorIbED1Ev@Base 3.2.1~
 _ZN8casacore13ArrayIteratorIbED2Ev@Base 3.2.1~
 _ZN8casacore13ArrayIteratorIcE12apSetPointerEi@Base 3.2.1~
 _ZN8casacore13ArrayIteratorIcE3setERKNS_9IPositionE@Base 3.2.1~
 _ZN8casacore13ArrayIteratorIcE4initERKNS_5ArrayIcEE@Base 3.2.1~
 _ZN8casacore13ArrayIteratorIcE4nextEv@Base 3.2.1~
 _ZN8casacore13ArrayIteratorIcE5resetEv@Base 3.2.1~
 _ZN8casacore13ArrayIteratorIcE8getArrayEv@Base 3.2.1~
 _ZN8casacore13ArrayIteratorIcED0Ev@Base 3.2.1~
 _ZN8casacore13ArrayIteratorIcED1Ev@Base 3.2.1~
 _ZN8casacore13ArrayIteratorIcED2Ev@Base 3.2.1~
 _ZN8casacore13ArrayIteratorIdE12apSetPointerEi@Base 3.2.1~
 _ZN8casacore13ArrayIteratorIdE3setERKNS_9IPositionE@Base 3.2.1~
 _ZN8casacore13ArrayIteratorIdE4initERKNS_5ArrayIdEE@Base 3.2.1~
 _ZN8casacore13ArrayIteratorIdE4nextEv@Base 3.2.1~
 _ZN8casacore13ArrayIteratorIdE5resetEv@Base 3.2.1~
 _ZN8casacore13ArrayIteratorIdE8getArrayEv@Base 3.2.1~
 _ZN8casacore13ArrayIteratorIdED0Ev@Base 3.2.1~
 _ZN8casacore13ArrayIteratorIdED1Ev@Base 3.2.1~
 _ZN8casacore13ArrayIteratorIdED2Ev@Base 3.2.1~
 _ZN8casacore13ArrayIteratorIfE12apSetPointerEi@Base 3.2.1~
 _ZN8casacore13ArrayIteratorIfE3setERKNS_9IPositionE@Base 3.2.1~
 _ZN8casacore13ArrayIteratorIfE4initERKNS_5ArrayIfEE@Base 3.2.1~
 _ZN8casacore13ArrayIteratorIfE4nextEv@Base 3.2.1~
 _ZN8casacore13ArrayIteratorIfE5resetEv@Base 3.2.1~
 _ZN8casacore13ArrayIteratorIfE8getArrayEv@Base 3.2.1~
 _ZN8casacore13ArrayIteratorIfED0Ev@Base 3.2.1~
 _ZN8casacore13ArrayIteratorIfED1Ev@Base 3.2.1~
 _ZN8casacore13ArrayIteratorIfED2Ev@Base 3.2.1~
 _ZN8casacore13ArrayIteratorIhE12apSetPointerEi@Base 3.2.1~
 _ZN8casacore13ArrayIteratorIhE3setERKNS_9IPositionE@Base 3.2.1~
 _ZN8casacore13ArrayIteratorIhE4initERKNS_5ArrayIhEE@Base 3.2.1~
 _ZN8casacore13ArrayIteratorIhE4nextEv@Base 3.2.1~
 _ZN8casacore13ArrayIteratorIhE5resetEv@Base 3.2.1~
 _ZN8casacore13ArrayIteratorIhE8getArrayEv@Base 3.2.1~
 _ZN8casacore13ArrayIteratorIhED0Ev@Base 3.2.1~
 _ZN8casacore13ArrayIteratorIhED1Ev@Base 3.2.1~
 _ZN8casacore13ArrayIteratorIhED2Ev@Base 3.2.1~
 _ZN8casacore13ArrayIteratorIiE12apSetPointerEi@Base 3.2.1~
 _ZN8casacore13ArrayIteratorIiE3setERKNS_9IPositionE@Base 3.2.1~
 _ZN8casacore13ArrayIteratorIiE4initERKNS_5ArrayIiEE@Base 3.2.1~
 _ZN8casacore13ArrayIteratorIiE4nextEv@Base 3.2.1~
 _ZN8casacore13ArrayIteratorIiE5resetEv@Base 3.2.1~
 _ZN8casacore13ArrayIteratorIiE8getArrayEv@Base 3.2.1~
 _ZN8casacore13ArrayIteratorIiED0Ev@Base 3.2.1~
 _ZN8casacore13ArrayIteratorIiED1Ev@Base 3.2.1~
 _ZN8casacore13ArrayIteratorIiED2Ev@Base 3.2.1~
 _ZN8casacore13ArrayIteratorIjE12apSetPointerEi@Base 3.2.1~
 _ZN8casacore13ArrayIteratorIjE3setERKNS_9IPositionE@Base 3.2.1~
 _ZN8casacore13ArrayIteratorIjE4initERKNS_5ArrayIjEE@Base 3.2.1~
 _ZN8casacore13ArrayIteratorIjE4nextEv@Base 3.2.1~
 _ZN8casacore13ArrayIteratorIjE5resetEv@Base 3.2.1~
 _ZN8casacore13ArrayIteratorIjE8getArrayEv@Base 3.2.1~
 _ZN8casacore13ArrayIteratorIjED0Ev@Base 3.2.1~
 _ZN8casacore13ArrayIteratorIjED1Ev@Base 3.2.1~
 _ZN8casacore13ArrayIteratorIjED2Ev@Base 3.2.1~
 _ZN8casacore13ArrayIteratorIsE12apSetPointerEi@Base 3.2.1~
 _ZN8casacore13ArrayIteratorIsE3setERKNS_9IPositionE@Base 3.2.1~
 _ZN8casacore13ArrayIteratorIsE4initERKNS_5ArrayIsEE@Base 3.2.1~
 _ZN8casacore13ArrayIteratorIsE4nextEv@Base 3.2.1~
 _ZN8casacore13ArrayIteratorIsE5resetEv@Base 3.2.1~
 _ZN8casacore13ArrayIteratorIsE8getArrayEv@Base 3.2.1~
 _ZN8casacore13ArrayIteratorIsED0Ev@Base 3.2.1~
 _ZN8casacore13ArrayIteratorIsED1Ev@Base 3.2.1~
 _ZN8casacore13ArrayIteratorIsED2Ev@Base 3.2.1~
 _ZN8casacore13ArrayIteratorItE12apSetPointerEi@Base 3.2.1~
 _ZN8casacore13ArrayIteratorItE3setERKNS_9IPositionE@Base 3.2.1~
 _ZN8casacore13ArrayIteratorItE4initERKNS_5ArrayItEE@Base 3.2.1~
 _ZN8casacore13ArrayIteratorItE4nextEv@Base 3.2.1~
 _ZN8casacore13ArrayIteratorItE5resetEv@Base 3.2.1~
 _ZN8casacore13ArrayIteratorItE8getArrayEv@Base 3.2.1~
 _ZN8casacore13ArrayIteratorItED0Ev@Base 3.2.1~
 _ZN8casacore13ArrayIteratorItED1Ev@Base 3.2.1~
 _ZN8casacore13ArrayIteratorItED2Ev@Base 3.2.1~
 _ZN8casacore13ArrayIteratorIxE12apSetPointerEi@Base 3.2.1~
 _ZN8casacore13ArrayIteratorIxE3setERKNS_9IPositionE@Base 3.2.1~
 _ZN8casacore13ArrayIteratorIxE4initERKNS_5ArrayIxEE@Base 3.2.1~
 _ZN8casacore13ArrayIteratorIxE4nextEv@Base 3.2.1~
 _ZN8casacore13ArrayIteratorIxE5resetEv@Base 3.2.1~
 _ZN8casacore13ArrayIteratorIxE8getArrayEv@Base 3.2.1~
 _ZN8casacore13ArrayIteratorIxED0Ev@Base 3.2.1~
 _ZN8casacore13ArrayIteratorIxED1Ev@Base 3.2.1~
 _ZN8casacore13ArrayIteratorIxED2Ev@Base 3.2.1~
 _ZN8casacore13AxesSpecifierC1ERKNS_9IPositionE@Base 3.2.1~
 _ZN8casacore13AxesSpecifierC1ERKNS_9IPositionES3_@Base 3.2.1~
 _ZN8casacore13AxesSpecifierC1ERKS0_@Base 3.2.1~
 _ZN8casacore13AxesSpecifierC1Eb@Base 3.2.1~
 _ZN8casacore13AxesSpecifierC1EbRKNS_9IPositionE@Base 3.2.1~
 _ZN8casacore13AxesSpecifierC1Ev@Base 3.2.1~
 _ZN8casacore13AxesSpecifierC2ERKNS_9IPositionE@Base 3.2.1~
 _ZN8casacore13AxesSpecifierC2ERKNS_9IPositionES3_@Base 3.2.1~
 _ZN8casacore13AxesSpecifierC2ERKS0_@Base 3.2.1~
 _ZN8casacore13AxesSpecifierC2Eb@Base 3.2.1~
 _ZN8casacore13AxesSpecifierC2EbRKNS_9IPositionE@Base 3.2.1~
 _ZN8casacore13AxesSpecifierC2Ev@Base 3.2.1~
 _ZN8casacore13AxesSpecifierD1Ev@Base 3.2.1~
 _ZN8casacore13AxesSpecifierD2Ev@Base 3.2.1~
 _ZN8casacore13AxesSpecifieraSERKS0_@Base 3.2.1~
 _ZN8casacore13CasarcCleanup14creation_countE@Base 3.2.1~
 _ZN8casacore13CasarcCleanupD1Ev@Base 3.2.1~
 _ZN8casacore13CasarcCleanupD2Ev@Base 3.2.1~
 _ZN8casacore13CompareNoCaseD0Ev@Base 3.2.1~
 _ZN8casacore13CompareNoCaseD1Ev@Base 3.2.1~
 _ZN8casacore13CompareNoCaseD2Ev@Base 3.2.1~
 _ZN8casacore13ComplexToRealERKNS_5ArrayISt7complexIdEEE@Base 3.2.1~
 _ZN8casacore13ComplexToRealERKNS_5ArrayISt7complexIfEEE@Base 3.2.1~
 _ZN8casacore13ComplexToRealERNS_5ArrayIdEERKNS0_ISt7complexIdEEE@Base 3.2.1~
 _ZN8casacore13ComplexToRealERNS_5ArrayIfEERKNS0_ISt7complexIfEEE@Base 3.2.1~
 _ZN8casacore13IBMConversion7toLocalEPcPKvm@Base 3.2.1~
 _ZN8casacore13IBMConversion7toLocalEPdPKvm@Base 3.2.1~
 _ZN8casacore13IBMConversion7toLocalEPfPKvm@Base 3.2.1~
 _ZN8casacore13IBMConversion7toLocalEPxPKvm@Base 3.2.1~
 _ZN8casacore13IBMConversion7toLocalEPyPKvm@Base 3.2.1~
 _ZN8casacore13IBMConversion7toLocalERcPKv@Base 3.2.1~
 _ZN8casacore13IBMConversion9fromLocalEPvPKcm@Base 3.2.1~
 _ZN8casacore13IBMConversion9fromLocalEPvPKdm@Base 3.2.1~
 _ZN8casacore13IBMConversion9fromLocalEPvPKfm@Base 3.2.1~
 _ZN8casacore13IBMConversion9fromLocalEPvPKxm@Base 3.2.1~
 _ZN8casacore13IBMConversion9fromLocalEPvPKym@Base 3.2.1~
 _ZN8casacore13IBMConversion9fromLocalEPvc@Base 3.2.1~
 _ZN8casacore13IterInitErrorC1EPKcNS_9AipsError8CategoryE@Base 3.2.1~
 _ZN8casacore13IterInitErrorC2EPKcNS_9AipsError8CategoryE@Base 3.2.1~
 _ZN8casacore13IterInitErrorD0Ev@Base 3.2.1~
 _ZN8casacore13IterInitErrorD1Ev@Base 3.2.1~
 _ZN8casacore13IterInitErrorD2Ev@Base 3.2.1~
 _ZN8casacore13JsonGramerrorEPKc@Base 3.2.1~
 _ZN8casacore13LECanonicalIO4readEmPNS_6StringE@Base 3.2.1~
 _ZN8casacore13LECanonicalIO4readEmPSt7complexIdE@Base 3.2.1~
 _ZN8casacore13LECanonicalIO4readEmPSt7complexIfE@Base 3.2.1~
 _ZN8casacore13LECanonicalIO4readEmPb@Base 3.2.1~
 _ZN8casacore13LECanonicalIO4readEmPc@Base 3.2.1~
 _ZN8casacore13LECanonicalIO4readEmPd@Base 3.2.1~
 _ZN8casacore13LECanonicalIO4readEmPf@Base 3.2.1~
 _ZN8casacore13LECanonicalIO4readEmPh@Base 3.2.1~
 _ZN8casacore13LECanonicalIO4readEmPi@Base 3.2.1~
 _ZN8casacore13LECanonicalIO4readEmPj@Base 3.2.1~
 _ZN8casacore13LECanonicalIO4readEmPs@Base 3.2.1~
 _ZN8casacore13LECanonicalIO4readEmPt@Base 3.2.1~
 _ZN8casacore13LECanonicalIO4readEmPx@Base 3.2.1~
 _ZN8casacore13LECanonicalIO4readEmPy@Base 3.2.1~
 _ZN8casacore13LECanonicalIO5writeEmPKNS_6StringE@Base 3.2.1~
 _ZN8casacore13LECanonicalIO5writeEmPKSt7complexIdE@Base 3.2.1~
 _ZN8casacore13LECanonicalIO5writeEmPKSt7complexIfE@Base 3.2.1~
 _ZN8casacore13LECanonicalIO5writeEmPKb@Base 3.2.1~
 _ZN8casacore13LECanonicalIO5writeEmPKc@Base 3.2.1~
 _ZN8casacore13LECanonicalIO5writeEmPKd@Base 3.2.1~
 _ZN8casacore13LECanonicalIO5writeEmPKf@Base 3.2.1~
 _ZN8casacore13LECanonicalIO5writeEmPKh@Base 3.2.1~
 _ZN8casacore13LECanonicalIO5writeEmPKi@Base 3.2.1~
 _ZN8casacore13LECanonicalIO5writeEmPKj@Base 3.2.1~
 _ZN8casacore13LECanonicalIO5writeEmPKs@Base 3.2.1~
 _ZN8casacore13LECanonicalIO5writeEmPKt@Base 3.2.1~
 _ZN8casacore13LECanonicalIO5writeEmPKx@Base 3.2.1~
 _ZN8casacore13LECanonicalIO5writeEmPKy@Base 3.2.1~
 _ZN8casacore13LECanonicalIOC1EPNS_6ByteIOEjb@Base 3.2.1~
 _ZN8casacore13LECanonicalIOC1ERKS0_@Base 3.2.1~
 _ZN8casacore13LECanonicalIOC2EPNS_6ByteIOEjb@Base 3.2.1~
 _ZN8casacore13LECanonicalIOC2ERKS0_@Base 3.2.1~
 _ZN8casacore13LECanonicalIOD0Ev@Base 3.2.1~
 _ZN8casacore13LECanonicalIOD1Ev@Base 3.2.1~
 _ZN8casacore13LECanonicalIOD2Ev@Base 3.2.1~
 _ZN8casacore13LECanonicalIOaSERKS0_@Base 3.2.1~
 _ZN8casacore13MemoryLogSink10copy_otherERKS0_@Base 3.2.1~
 _ZN8casacore13MemoryLogSink11postLocallyERKNS_10LogMessageE@Base 3.2.1~
 _ZN8casacore13MemoryLogSink12clearLocallyEv@Base 3.2.1~
 _ZN8casacore13MemoryLogSink12writeLocallyEdRKNS_6StringES3_S3_S3_@Base 3.2.1~
 _ZN8casacore13MemoryLogSink6resizeEj@Base 3.2.1~
 _ZN8casacore13MemoryLogSink7localIdEv@Base 3.2.1~
 _ZN8casacore13MemoryLogSinkC1ENS_10LogMessage8PriorityE@Base 3.2.1~
 _ZN8casacore13MemoryLogSinkC1ERKNS_18LogFilterInterfaceE@Base 3.2.1~
 _ZN8casacore13MemoryLogSinkC1ERKS0_@Base 3.2.1~
 _ZN8casacore13MemoryLogSinkC1Ev@Base 3.2.1~
 _ZN8casacore13MemoryLogSinkC2ENS_10LogMessage8PriorityE@Base 3.2.1~
 _ZN8casacore13MemoryLogSinkC2ERKNS_18LogFilterInterfaceE@Base 3.2.1~
 _ZN8casacore13MemoryLogSinkC2ERKS0_@Base 3.2.1~
 _ZN8casacore13MemoryLogSinkC2Ev@Base 3.2.1~
 _ZN8casacore13MemoryLogSinkD0Ev@Base 3.2.1~
 _ZN8casacore13MemoryLogSinkD1Ev@Base 3.2.1~
 _ZN8casacore13MemoryLogSinkD2Ev@Base 3.2.1~
 _ZN8casacore13MemoryLogSinkaSERKS0_@Base 3.2.1~
 _ZN8casacore13MultiFileBase10deleteFileEi@Base 3.2.1~
 _ZN8casacore13MultiFileBase10setNewFileEv@Base 3.2.1~
 _ZN8casacore13MultiFileBase4readEiPvxx@Base 3.2.1~
 _ZN8casacore13MultiFileBase5flushEv@Base 3.2.1~
 _ZN8casacore13MultiFileBase5writeEiPKvxx@Base 3.2.1~
 _ZN8casacore13MultiFileBase6resyncEv@Base 3.2.1~
 _ZN8casacore13MultiFileBase7addFileERKNS_6StringE@Base 3.2.1~
 _ZN8casacore13MultiFileBaseC1ERKNS_6StringEib@Base 3.2.1~
 _ZN8casacore13MultiFileBaseC2ERKNS_6StringEib@Base 3.2.1~
 _ZN8casacore13MultiFileBaseD0Ev@Base 3.2.1~
 _ZN8casacore13MultiFileBaseD1Ev@Base 3.2.1~
 _ZN8casacore13MultiFileBaseD2Ev@Base 3.2.1~
 _ZN8casacore13MultiFileInfoC1Exb@Base 3.2.1~
 _ZN8casacore13MultiFileInfoC2Exb@Base 3.2.1~
 _ZN8casacore13MultiFileInfoD1Ev@Base 3.2.1~
 _ZN8casacore13MultiFileInfoD2Ev@Base 3.2.1~
 _ZN8casacore13PGPlotterNull13createPlotterERKNS_6StringEjjjj@Base 3.2.1~
 _ZN8casacore13PGPlotterNull2ptERKNS_6VectorIfEES4_i@Base 3.2.1~
 _ZN8casacore13PGPlotterNull3askEb@Base 3.2.1~
 _ZN8casacore13PGPlotterNull3binERKNS_6VectorIfEES4_b@Base 3.2.1~
 _ZN8casacore13PGPlotterNull3boxERKNS_6StringEfiS3_fi@Base 3.2.1~
 _ZN8casacore13PGPlotterNull3envEffffii@Base 3.2.1~
 _ZN8casacore13PGPlotterNull3labERKNS_6StringES3_S3_@Base 3.2.1~
 _ZN8casacore13PGPlotterNull3lenEiRKNS_6StringE@Base 3.2.1~
 _ZN8casacore13PGPlotterNull3papEff@Base 3.2.1~
 _ZN8casacore13PGPlotterNull3qahEv@Base 3.2.1~
 _ZN8casacore13PGPlotterNull3qcfEv@Base 3.2.1~
 _ZN8casacore13PGPlotterNull3qchEv@Base 3.2.1~
 _ZN8casacore13PGPlotterNull3qciEv@Base 3.2.1~
 _ZN8casacore13PGPlotterNull3qcrEi@Base 3.2.1~
 _ZN8casacore13PGPlotterNull3qcsEi@Base 3.2.1~
 _ZN8casacore13PGPlotterNull3qfsEv@Base 3.2.1~
 _ZN8casacore13PGPlotterNull3qhsEv@Base 3.2.1~
 _ZN8casacore13PGPlotterNull3qidEv@Base 3.2.1~
 _ZN8casacore13PGPlotterNull3qlsEv@Base 3.2.1~
 _ZN8casacore13PGPlotterNull3qlwEv@Base 3.2.1~
 _ZN8casacore13PGPlotterNull3qvpEi@Base 3.2.1~
 _ZN8casacore13PGPlotterNull3rndEfi@Base 3.2.1~
 _ZN8casacore13PGPlotterNull3sahEiff@Base 3.2.1~
 _ZN8casacore13PGPlotterNull3scfEi@Base 3.2.1~
 _ZN8casacore13PGPlotterNull3schEf@Base 3.2.1~
 _ZN8casacore13PGPlotterNull3sciEi@Base 3.2.1~
 _ZN8casacore13PGPlotterNull3scrEifff@Base 3.2.1~
 _ZN8casacore13PGPlotterNull3sfsEi@Base 3.2.1~
 _ZN8casacore13PGPlotterNull3shsEfff@Base 3.2.1~
 _ZN8casacore13PGPlotterNull3slsEi@Base 3.2.1~
 _ZN8casacore13PGPlotterNull3slwEi@Base 3.2.1~
 _ZN8casacore13PGPlotterNull3svpEffff@Base 3.2.1~
 _ZN8casacore13PGPlotterNull4arroEffff@Base 3.2.1~
 _ZN8casacore13PGPlotterNull4bbufEv@Base 3.2.1~
 _ZN8casacore13PGPlotterNull4circEfff@Base 3.2.1~
 _ZN8casacore13PGPlotterNull4conbERKNS_6MatrixIfEERKNS_6VectorIfEES8_f@Base 3.2.1~
 _ZN8casacore13PGPlotterNull4conlERKNS_6MatrixIfEEfRKNS_6VectorIfEERKNS_6StringEii@Base 3.2.1~
 _ZN8casacore13PGPlotterNull4consERKNS_6MatrixIfEERKNS_6VectorIfEES8_@Base 3.2.1~
 _ZN8casacore13PGPlotterNull4contERKNS_6MatrixIfEERKNS_6VectorIfEEbS8_@Base 3.2.1~
 _ZN8casacore13PGPlotterNull4ctabERKNS_6VectorIfEES4_S4_S4_ff@Base 3.2.1~
 _ZN8casacore13PGPlotterNull4cursEff@Base 3.2.1~
 _ZN8casacore13PGPlotterNull4drawEff@Base 3.2.1~
 _ZN8casacore13PGPlotterNull4ebufEv@Base 3.2.1~
 _ZN8casacore13PGPlotterNull4erasEv@Base 3.2.1~
 _ZN8casacore13PGPlotterNull4errbEiRKNS_6VectorIfEES4_S4_f@Base 3.2.1~
 _ZN8casacore13PGPlotterNull4errxERKNS_6VectorIfEES4_S4_f@Base 3.2.1~
 _ZN8casacore13PGPlotterNull4erryERKNS_6VectorIfEES4_S4_f@Base 3.2.1~
 _ZN8casacore13PGPlotterNull4grayERKNS_6MatrixIfEEffRKNS_6VectorIfEE@Base 3.2.1~
 _ZN8casacore13PGPlotterNull4hi2dERKNS_6MatrixIfEERKNS_6VectorIfEEifbS8_@Base 3.2.1~
 _ZN8casacore13PGPlotterNull4histERKNS_6VectorIfEEffii@Base 3.2.1~
 _ZN8casacore13PGPlotterNull4idenEv@Base 3.2.1~
 _ZN8casacore13PGPlotterNull4imagERKNS_6MatrixIfEEffRKNS_6VectorIfEE@Base 3.2.1~
 _ZN8casacore13PGPlotterNull4ldevEv@Base 3.2.1~
 _ZN8casacore13PGPlotterNull4lineERKNS_6VectorIfEES4_@Base 3.2.1~
 _ZN8casacore13PGPlotterNull4moveEff@Base 3.2.1~
 _ZN8casacore13PGPlotterNull4mtxtERKNS_6StringEfffS3_@Base 3.2.1~
 _ZN8casacore13PGPlotterNull4numbEiii@Base 3.2.1~
 _ZN8casacore13PGPlotterNull4pageEv@Base 3.2.1~
 _ZN8casacore13PGPlotterNull4panlEii@Base 3.2.1~
 _ZN8casacore13PGPlotterNull4pixlERKNS_6MatrixIiEEffff@Base 3.2.1~
 _ZN8casacore13PGPlotterNull4pntsERKNS_6VectorIfEES4_NS1_IiEE@Base 3.2.1~
 _ZN8casacore13PGPlotterNull4polyERKNS_6VectorIfEES4_@Base 3.2.1~
 _ZN8casacore13PGPlotterNull4ptxtEffffRKNS_6StringE@Base 3.2.1~
 _ZN8casacore13PGPlotterNull4qcirEv@Base 3.2.1~
 _ZN8casacore13PGPlotterNull4qcolEv@Base 3.2.1~
 _ZN8casacore13PGPlotterNull4qinfERKNS_6StringE@Base 3.2.1~
 _ZN8casacore13PGPlotterNull4qitfEv@Base 3.2.1~
 _ZN8casacore13PGPlotterNull4qposEv@Base 3.2.1~
 _ZN8casacore13PGPlotterNull4qtbgEv@Base 3.2.1~
 _ZN8casacore13PGPlotterNull4qtxtEffffRKNS_6StringE@Base 3.2.1~
 _ZN8casacore13PGPlotterNull4qvszEi@Base 3.2.1~
 _ZN8casacore13PGPlotterNull4qwinEv@Base 3.2.1~
 _ZN8casacore13PGPlotterNull4rectEffff@Base 3.2.1~
 _ZN8casacore13PGPlotterNull4rngeEff@Base 3.2.1~
 _ZN8casacore13PGPlotterNull4saveEv@Base 3.2.1~
 _ZN8casacore13PGPlotterNull4scirEii@Base 3.2.1~
 _ZN8casacore13PGPlotterNull4scrnEiRKNS_6StringE@Base 3.2.1~
 _ZN8casacore13PGPlotterNull4shlsEifff@Base 3.2.1~
 _ZN8casacore13PGPlotterNull4sitfEi@Base 3.2.1~
 _ZN8casacore13PGPlotterNull4stbgEi@Base 3.2.1~
 _ZN8casacore13PGPlotterNull4subpEii@Base 3.2.1~
 _ZN8casacore13PGPlotterNull4swinEffff@Base 3.2.1~
 _ZN8casacore13PGPlotterNull4tboxERKNS_6StringEfiS3_fi@Base 3.2.1~
 _ZN8casacore13PGPlotterNull4textEffRKNS_6StringE@Base 3.2.1~
 _ZN8casacore13PGPlotterNull4unsaEv@Base 3.2.1~
 _ZN8casacore13PGPlotterNull4updtEv@Base 3.2.1~
 _ZN8casacore13PGPlotterNull4vectERKNS_6MatrixIfEES4_fiRKNS_6VectorIfEEf@Base 3.2.1~
 _ZN8casacore13PGPlotterNull4vsizEffff@Base 3.2.1~
 _ZN8casacore13PGPlotterNull4vstdEv@Base 3.2.1~
 _ZN8casacore13PGPlotterNull4wedgERKNS_6StringEffffS3_@Base 3.2.1~
 _ZN8casacore13PGPlotterNull4wnadEffff@Base 3.2.1~
 _ZN8casacore13PGPlotterNull9noplotterEv@Base 3.2.1~
 _ZN8casacore13PGPlotterNullC1ERKNS_6StringE@Base 3.2.1~
 _ZN8casacore13PGPlotterNullC2ERKNS_6StringE@Base 3.2.1~
 _ZN8casacore13PGPlotterNullD0Ev@Base 3.2.1~
 _ZN8casacore13PGPlotterNullD1Ev@Base 3.2.1~
 _ZN8casacore13PGPlotterNullD2Ev@Base 3.2.1~
 _ZN8casacore13ProgressMeter12PROGRESSFILEE@Base 3.2.1~
 _ZN8casacore13ProgressMeter15busy_function_pE@Base 3.2.1~
 _ZN8casacore13ProgressMeter15done_function_pE@Base 3.2.1~
 _ZN8casacore13ProgressMeter15show_function_pE@Base 3.2.1~
 _ZN8casacore13ProgressMeter17update_function_pE@Base 3.2.1~
 _ZN8casacore13ProgressMeter19creation_function_pE@Base 3.2.1~
 _ZN8casacore13ProgressMeter4busyEv@Base 3.2.1~
 _ZN8casacore13ProgressMeter4doneEv@Base 3.2.1~
 _ZN8casacore13ProgressMeter6updateEdb@Base 3.2.1~
 _ZN8casacore13ProgressMeter7_updateEdb@Base 3.2.1~
 _ZN8casacore13ProgressMeterC1EddRKNS_6StringE@Base 3.2.1~
 _ZN8casacore13ProgressMeterC1EddRKNS_6StringES3_S3_S3_bi@Base 3.2.1~
 _ZN8casacore13ProgressMeterC1Ev@Base 3.2.1~
 _ZN8casacore13ProgressMeterC2EddRKNS_6StringE@Base 3.2.1~
 _ZN8casacore13ProgressMeterC2EddRKNS_6StringES3_S3_S3_bi@Base 3.2.1~
 _ZN8casacore13ProgressMeterC2Ev@Base 3.2.1~
 _ZN8casacore13ProgressMeterD1Ev@Base 3.2.1~
 _ZN8casacore13ProgressMeterD2Ev@Base 3.2.1~
 _ZN8casacore13QuantumHolder10asQuantityEv@Base 3.2.1~
 _ZN8casacore13QuantumHolder10fromRecordERNS_6StringERKNS_15RecordInterfaceE@Base 3.2.1~
 _ZN8casacore13QuantumHolder10fromStringERNS_6StringERKS1_@Base 3.2.1~
 _ZN8casacore13QuantumHolder12asQuantumIntEv@Base 3.2.1~
 _ZN8casacore13QuantumHolder14asQuantumFloatEv@Base 3.2.1~
 _ZN8casacore13QuantumHolder15asQuantumDoubleEv@Base 3.2.1~
 _ZN8casacore13QuantumHolder16asQuantumComplexEv@Base 3.2.1~
 _ZN8casacore13QuantumHolder17asQuantumArrayIntEv@Base 3.2.1~
 _ZN8casacore13QuantumHolder17asQuantumDComplexEv@Base 3.2.1~
 _ZN8casacore13QuantumHolder18asQuantumVectorIntEv@Base 3.2.1~
 _ZN8casacore13QuantumHolder19asQuantumArrayFloatEv@Base 3.2.1~
 _ZN8casacore13QuantumHolder20asQuantumArrayDoubleEv@Base 3.2.1~
 _ZN8casacore13QuantumHolder20asQuantumVectorFloatEv@Base 3.2.1~
 _ZN8casacore13QuantumHolder21asQuantumArrayComplexEv@Base 3.2.1~
 _ZN8casacore13QuantumHolder21asQuantumVectorDoubleEv@Base 3.2.1~
 _ZN8casacore13QuantumHolder22asQuantumArrayDComplexEv@Base 3.2.1~
 _ZN8casacore13QuantumHolder22asQuantumVectorComplexEv@Base 3.2.1~
 _ZN8casacore13QuantumHolder23asQuantumVectorDComplexEv@Base 3.2.1~
 _ZN8casacore13QuantumHolder6toRealERKj@Base 3.2.1~
 _ZN8casacore13QuantumHolder7toArrayEv@Base 3.2.1~
 _ZN8casacore13QuantumHolder8toVectorEv@Base 3.2.1~
 _ZN8casacore13QuantumHolder9toComplexERKj@Base 3.2.1~
 _ZN8casacore13QuantumHolderC1ERKNS_5QBaseE@Base 3.2.1~
 _ZN8casacore13QuantumHolderC1ERKS0_@Base 3.2.1~
 _ZN8casacore13QuantumHolderC1Ev@Base 3.2.1~
 _ZN8casacore13QuantumHolderC2ERKNS_5QBaseE@Base 3.2.1~
 _ZN8casacore13QuantumHolderC2ERKS0_@Base 3.2.1~
 _ZN8casacore13QuantumHolderC2Ev@Base 3.2.1~
 _ZN8casacore13QuantumHolderD0Ev@Base 3.2.1~
 _ZN8casacore13QuantumHolderD1Ev@Base 3.2.1~
 _ZN8casacore13QuantumHolderD2Ev@Base 3.2.1~
 _ZN8casacore13QuantumHolderaSERKS0_@Base 3.2.1~
 _ZN8casacore13RealToComplexERKNS_5ArrayIdEE@Base 3.2.1~
 _ZN8casacore13RealToComplexERKNS_5ArrayIfEE@Base 3.2.1~
 _ZN8casacore13RealToComplexERNS_5ArrayISt7complexIdEEERKNS0_IdEE@Base 3.2.1~
 _ZN8casacore13RealToComplexERNS_5ArrayISt7complexIfEEERKNS0_IfEE@Base 3.2.1~
 _ZN8casacore13RecordDescRep10copy_otherERKS0_@Base 3.2.1~
 _ZN8casacore13RecordDescRep10mergeFieldERKS0_ii@Base 3.2.1~
 _ZN8casacore13RecordDescRep10setCommentEiRKNS_6StringE@Base 3.2.1~
 _ZN8casacore13RecordDescRep11addFieldAnyENS_8DataTypeE@Base 3.2.1~
 _ZN8casacore13RecordDescRep11addRepFieldERKS0_RKNS_6StringEi@Base 3.2.1~
 _ZN8casacore13RecordDescRep11removeFieldEi@Base 3.2.1~
 _ZN8casacore13RecordDescRep11renameFieldERKNS_6StringEi@Base 3.2.1~
 _ZN8casacore13RecordDescRep12addFieldNameERKNS_6StringENS_8DataTypeE@Base 3.2.1~
 _ZN8casacore13RecordDescRep13addFieldArrayENS_8DataTypeERKNS_9IPositionE@Base 3.2.1~
 _ZN8casacore13RecordDescRep16increment_lengthEv@Base 3.2.1~
 _ZN8casacore13RecordDescRep5mergeERKS0_i@Base 3.2.1~
 _ZN8casacore13RecordDescRep8addArrayERKNS_6StringENS_8DataTypeERKNS_9IPositionE@Base 3.2.1~
 _ZN8casacore13RecordDescRep8addFieldERKNS_6StringENS_8DataTypeE@Base 3.2.1~
 _ZN8casacore13RecordDescRep8addTableERKNS_6StringES3_@Base 3.2.1~
 _ZN8casacore13RecordDescRep8setShapeERKNS_9IPositionEi@Base 3.2.1~
 _ZN8casacore13RecordDescRep8setShapeEiRKNS_9IPositionE@Base 3.2.1~
 _ZN8casacore13RecordDescRep9addRecordERKNS_6StringERKNS_10RecordDescE@Base 3.2.1~
 _ZN8casacore13RecordDescRep9subRecordEi@Base 3.2.1~
 _ZN8casacore13RecordDescRepC1ERKS0_@Base 3.2.1~
 _ZN8casacore13RecordDescRepC1Ev@Base 3.2.1~
 _ZN8casacore13RecordDescRepC2ERKS0_@Base 3.2.1~
 _ZN8casacore13RecordDescRepC2Ev@Base 3.2.1~
 _ZN8casacore13RecordDescRepD0Ev@Base 3.2.1~
 _ZN8casacore13RecordDescRepD1Ev@Base 3.2.1~
 _ZN8casacore13RecordDescRepD2Ev@Base 3.2.1~
 _ZN8casacore13RecordDescRepaSERKS0_@Base 3.2.1~
 _ZN8casacore13RegularFileIO10openCreateERKNS_11RegularFileENS_6ByteIO10OpenOptionEb@Base 3.2.1~
 _ZN8casacore13RegularFileIO8reopenRWEv@Base 3.2.1~
 _ZN8casacore13RegularFileIOC1ERKNS_11RegularFileENS_6ByteIO10OpenOptionEj@Base 3.2.1~
 _ZN8casacore13RegularFileIOC2ERKNS_11RegularFileENS_6ByteIO10OpenOptionEj@Base 3.2.1~
 _ZN8casacore13RegularFileIOD0Ev@Base 3.2.1~
 _ZN8casacore13RegularFileIOD1Ev@Base 3.2.1~
 _ZN8casacore13RegularFileIOD2Ev@Base 3.2.1~
 _ZN8casacore13StreamLogSink11postLocallyERKNS_10LogMessageE@Base 3.2.1~
 _ZN8casacore13StreamLogSink5flushEb@Base 3.2.1~
 _ZN8casacore13StreamLogSink7localIdEv@Base 3.2.1~
 _ZN8casacore13StreamLogSinkC1ENS_10LogMessage8PriorityEPSob@Base 3.2.1~
 _ZN8casacore13StreamLogSinkC1EPSob@Base 3.2.1~
 _ZN8casacore13StreamLogSinkC1ERKNS_18LogFilterInterfaceEPSob@Base 3.2.1~
 _ZN8casacore13StreamLogSinkC1ERKS0_@Base 3.2.1~
 _ZN8casacore13StreamLogSinkC2ENS_10LogMessage8PriorityEPSob@Base 3.2.1~
 _ZN8casacore13StreamLogSinkC2EPSob@Base 3.2.1~
 _ZN8casacore13StreamLogSinkC2ERKNS_18LogFilterInterfaceEPSob@Base 3.2.1~
 _ZN8casacore13StreamLogSinkC2ERKS0_@Base 3.2.1~
 _ZN8casacore13StreamLogSinkD0Ev@Base 3.2.1~
 _ZN8casacore13StreamLogSinkD1Ev@Base 3.2.1~
 _ZN8casacore13StreamLogSinkD2Ev@Base 3.2.1~
 _ZN8casacore13StreamLogSinkaSERKS0_@Base 3.2.1~
 _ZN8casacore13VAXConversion7toLocalEPdPKvm@Base 3.2.1~
 _ZN8casacore13VAXConversion7toLocalEPfPKvm@Base 3.2.1~
 _ZN8casacore13VAXConversion9fromLocalEPvPKdm@Base 3.2.1~
 _ZN8casacore13VAXConversion9fromLocalEPvPKfm@Base 3.2.1~
 _ZN8casacore13aips_debug_onE@Base 3.2.1~
 _ZN8casacore13common_prefixERKNSt7__cxx1112basic_stringIcSt11char_traitsIcESaIcEEES7_i@Base 3.2.1~
 _ZN8casacore13common_suffixERKNSt7__cxx1112basic_stringIcSt11char_traitsIcESaIcEEES7_i@Base 3.2.1~
 _ZN8casacore13isInsideArrayERKNS_9IPositionES2_@Base 3.2.1~
 _ZN8casacore13isInsideArrayExRKNS_9IPositionE@Base 3.2.1~
 _ZN8casacore14AppStateSource10user_stateE@Base 3.2.1~
 _ZN8casacore14ArrayNDimErrorC1EiiPKcNS_9AipsError8CategoryE@Base 3.2.1~
 _ZN8casacore14ArrayNDimErrorC2EiiPKcNS_9AipsError8CategoryE@Base 3.2.1~
 _ZN8casacore14ArrayNDimErrorD0Ev@Base 3.2.1~
 _ZN8casacore14ArrayNDimErrorD1Ev@Base 3.2.1~
 _ZN8casacore14ArrayNDimErrorD2Ev@Base 3.2.1~
 _ZN8casacore14BaseSinkSource4seekEiNS_6ByteIO10SeekOptionE@Base 3.2.1~
 _ZN8casacore14BaseSinkSource4seekExNS_6ByteIO10SeekOptionE@Base 3.2.1~
 _ZN8casacore14BaseSinkSource6typeIOEv@Base 3.2.1~
 _ZN8casacore14BaseSinkSourceC1EPNS_6TypeIOEb@Base 3.2.1~
 _ZN8casacore14BaseSinkSourceC1ERKS0_@Base 3.2.1~
 _ZN8casacore14BaseSinkSourceC1Ev@Base 3.2.1~
 _ZN8casacore14BaseSinkSourceC2EPNS_6TypeIOEb@Base 3.2.1~
 _ZN8casacore14BaseSinkSourceC2ERKS0_@Base 3.2.1~
 _ZN8casacore14BaseSinkSourceC2Ev@Base 3.2.1~
 _ZN8casacore14BaseSinkSourceD0Ev@Base 3.2.1~
 _ZN8casacore14BaseSinkSourceD1Ev@Base 3.2.1~
 _ZN8casacore14BaseSinkSourceD2Ev@Base 3.2.1~
 _ZN8casacore14BaseSinkSourceaSERKS0_@Base 3.2.1~
 _ZN8casacore14BucketBuffered17initializeBucketsEj@Base 3.2.1~
 _ZN8casacore14BucketBuffered4readEjjjj@Base 3.2.1~
 _ZN8casacore14BucketBuffered5writeEjjj@Base 3.2.1~
 _ZN8casacore14BucketBuffered7doFlushEv@Base 3.2.1~
 _ZN8casacore14BucketBuffered8doExtendEj@Base 3.2.1~
 _ZN8casacore14BucketBuffered8doResyncEv@Base 3.2.1~
 _ZN8casacore14BucketBufferedC1EPNS_10BucketFileExjj@Base 3.2.1~
 _ZN8casacore14BucketBufferedC2EPNS_10BucketFileExjj@Base 3.2.1~
 _ZN8casacore14BucketBufferedD0Ev@Base 3.2.1~
 _ZN8casacore14BucketBufferedD1Ev@Base 3.2.1~
 _ZN8casacore14BucketBufferedD2Ev@Base 3.2.1~
 _ZN8casacore14ByteSinkSourceC1EPNS_6TypeIOEb@Base 3.2.1~
 _ZN8casacore14ByteSinkSourceC1ERKS0_@Base 3.2.1~
 _ZN8casacore14ByteSinkSourceC1Ev@Base 3.2.1~
 _ZN8casacore14ByteSinkSourceC2EPNS_6TypeIOEb@Base 3.2.1~
 _ZN8casacore14ByteSinkSourceC2ERKS0_@Base 3.2.1~
 _ZN8casacore14ByteSinkSourceC2Ev@Base 3.2.1~
 _ZN8casacore14ByteSinkSourceD0Ev@Base 3.2.1~
 _ZN8casacore14ByteSinkSourceD1Ev@Base 3.2.1~
 _ZN8casacore14ByteSinkSourceD2Ev@Base 3.2.1~
 _ZN8casacore14ByteSinkSourceaSERKS0_@Base 3.2.1~
 _ZN8casacore14CasaErrorTools18generateStackTraceEv@Base 3.2.1~
 _ZN8casacore14CasaErrorTools21replaceStackAddressesERKNS_6StringE@Base 3.2.1~
 _ZN8casacore14CasaErrorTools23generateSharedObjectMapEv@Base 3.2.1~
 _ZN8casacore14DataConversionD0Ev@Base 3.2.1~
 _ZN8casacore14DataConversionD1Ev@Base 3.2.1~
 _ZN8casacore14DataConversionD2Ev@Base 3.2.1~
 _ZN8casacore14HyperGeometric13setParametersERKNS_6VectorIdEE@Base 3.2.1~
 _ZN8casacore14HyperGeometric8setStateEv@Base 3.2.1~
 _ZN8casacore14HyperGeometricD0Ev@Base 3.2.1~
 _ZN8casacore14HyperGeometricD1Ev@Base 3.2.1~
 _ZN8casacore14HyperGeometricD2Ev@Base 3.2.1~
 _ZN8casacore14HyperGeometricclEv@Base 3.2.1~
 _ZN8casacore14NegativeExpntl13setParametersERKNS_6VectorIdEE@Base 3.2.1~
 _ZN8casacore14NegativeExpntl4meanEd@Base 3.2.1~
 _ZN8casacore14NegativeExpntlC1EPNS_3RNGEd@Base 3.2.1~
 _ZN8casacore14NegativeExpntlC2EPNS_3RNGEd@Base 3.2.1~
 _ZN8casacore14NegativeExpntlD0Ev@Base 3.2.1~
 _ZN8casacore14NegativeExpntlD1Ev@Base 3.2.1~
 _ZN8casacore14NegativeExpntlD2Ev@Base 3.2.1~
 _ZN8casacore14NegativeExpntlclEv@Base 3.2.1~
 _ZN8casacore14SourceLocation12canonicalizeEPKci@Base 3.2.1~
 _ZN8casacore14StringDistance10doDistanceERKNS_6StringES3_bRNS_6MatrixIiEE@Base 3.2.1~
 _ZN8casacore14StringDistance12removeBlanksERKNS_6StringE@Base 3.2.1~
 _ZN8casacore14StringDistance8distanceERKNS_6StringES3_b@Base 3.2.1~
 _ZN8casacore14StringDistanceC1ERKNS_6StringEibbb@Base 3.2.1~
 _ZN8casacore14StringDistanceC1Ev@Base 3.2.1~
 _ZN8casacore14StringDistanceC2ERKNS_6StringEibbb@Base 3.2.1~
 _ZN8casacore14StringDistanceC2Ev@Base 3.2.1~
 _ZN8casacore14ValueHolderRep10fromRecordERKNS_6RecordERKNS_13RecordFieldIdE@Base 3.2.1~
 _ZN8casacore14ValueHolderRepC1ERKNS_5ArrayINS_6StringEEE@Base 3.2.1~
 _ZN8casacore14ValueHolderRepC1ERKNS_5ArrayISt7complexIdEEE@Base 3.2.1~
 _ZN8casacore14ValueHolderRepC1ERKNS_5ArrayISt7complexIfEEE@Base 3.2.1~
 _ZN8casacore14ValueHolderRepC1ERKNS_5ArrayIbEE@Base 3.2.1~
 _ZN8casacore14ValueHolderRepC1ERKNS_5ArrayIdEE@Base 3.2.1~
 _ZN8casacore14ValueHolderRepC1ERKNS_5ArrayIfEE@Base 3.2.1~
 _ZN8casacore14ValueHolderRepC1ERKNS_5ArrayIhEE@Base 3.2.1~
 _ZN8casacore14ValueHolderRepC1ERKNS_5ArrayIiEE@Base 3.2.1~
 _ZN8casacore14ValueHolderRepC1ERKNS_5ArrayIjEE@Base 3.2.1~
 _ZN8casacore14ValueHolderRepC1ERKNS_5ArrayIsEE@Base 3.2.1~
 _ZN8casacore14ValueHolderRepC1ERKNS_5ArrayItEE@Base 3.2.1~
 _ZN8casacore14ValueHolderRepC1ERKNS_5ArrayIxEE@Base 3.2.1~
 _ZN8casacore14ValueHolderRepC1ERKNS_6RecordE@Base 3.2.1~
 _ZN8casacore14ValueHolderRepC1ERKNS_6StringE@Base 3.2.1~
 _ZN8casacore14ValueHolderRepC1ERKSt7complexIdE@Base 3.2.1~
 _ZN8casacore14ValueHolderRepC1ERKSt7complexIfE@Base 3.2.1~
 _ZN8casacore14ValueHolderRepC1Eb@Base 3.2.1~
 _ZN8casacore14ValueHolderRepC1Ed@Base 3.2.1~
 _ZN8casacore14ValueHolderRepC1Ef@Base 3.2.1~
 _ZN8casacore14ValueHolderRepC1Eh@Base 3.2.1~
 _ZN8casacore14ValueHolderRepC1Ei@Base 3.2.1~
 _ZN8casacore14ValueHolderRepC1Ej@Base 3.2.1~
 _ZN8casacore14ValueHolderRepC1Ejb@Base 3.2.1~
 _ZN8casacore14ValueHolderRepC1Es@Base 3.2.1~
 _ZN8casacore14ValueHolderRepC1Et@Base 3.2.1~
 _ZN8casacore14ValueHolderRepC1Ex@Base 3.2.1~
 _ZN8casacore14ValueHolderRepC2ERKNS_5ArrayINS_6StringEEE@Base 3.2.1~
 _ZN8casacore14ValueHolderRepC2ERKNS_5ArrayISt7complexIdEEE@Base 3.2.1~
 _ZN8casacore14ValueHolderRepC2ERKNS_5ArrayISt7complexIfEEE@Base 3.2.1~
 _ZN8casacore14ValueHolderRepC2ERKNS_5ArrayIbEE@Base 3.2.1~
 _ZN8casacore14ValueHolderRepC2ERKNS_5ArrayIdEE@Base 3.2.1~
 _ZN8casacore14ValueHolderRepC2ERKNS_5ArrayIfEE@Base 3.2.1~
 _ZN8casacore14ValueHolderRepC2ERKNS_5ArrayIhEE@Base 3.2.1~
 _ZN8casacore14ValueHolderRepC2ERKNS_5ArrayIiEE@Base 3.2.1~
 _ZN8casacore14ValueHolderRepC2ERKNS_5ArrayIjEE@Base 3.2.1~
 _ZN8casacore14ValueHolderRepC2ERKNS_5ArrayIsEE@Base 3.2.1~
 _ZN8casacore14ValueHolderRepC2ERKNS_5ArrayItEE@Base 3.2.1~
 _ZN8casacore14ValueHolderRepC2ERKNS_5ArrayIxEE@Base 3.2.1~
 _ZN8casacore14ValueHolderRepC2ERKNS_6RecordE@Base 3.2.1~
 _ZN8casacore14ValueHolderRepC2ERKNS_6StringE@Base 3.2.1~
 _ZN8casacore14ValueHolderRepC2ERKSt7complexIdE@Base 3.2.1~
 _ZN8casacore14ValueHolderRepC2ERKSt7complexIfE@Base 3.2.1~
 _ZN8casacore14ValueHolderRepC2Eb@Base 3.2.1~
 _ZN8casacore14ValueHolderRepC2Ed@Base 3.2.1~
 _ZN8casacore14ValueHolderRepC2Ef@Base 3.2.1~
 _ZN8casacore14ValueHolderRepC2Eh@Base 3.2.1~
 _ZN8casacore14ValueHolderRepC2Ei@Base 3.2.1~
 _ZN8casacore14ValueHolderRepC2Ej@Base 3.2.1~
 _ZN8casacore14ValueHolderRepC2Ejb@Base 3.2.1~
 _ZN8casacore14ValueHolderRepC2Es@Base 3.2.1~
 _ZN8casacore14ValueHolderRepC2Et@Base 3.2.1~
 _ZN8casacore14ValueHolderRepC2Ex@Base 3.2.1~
 _ZN8casacore14ValueHolderRepD1Ev@Base 3.2.1~
 _ZN8casacore14ValueHolderRepD2Ev@Base 3.2.1~
 _ZN8casacore14arrayTransformISt7complexIdES2_NS_4ConjIS2_S2_EEEEvRKNS_5ArrayIT_EERNS5_IT0_EET1_@Base 3.2.1~
 _ZN8casacore14arrayTransformISt7complexIdEdNS_4CAbsIS2_dEEEEvRKNS_5ArrayIT_EERNS5_IT0_EET1_@Base 3.2.1~
 _ZN8casacore14arrayTransformISt7complexIdEdNS_4CArgIS2_dEEEEvRKNS_5ArrayIT_EERNS5_IT0_EET1_@Base 3.2.1~
 _ZN8casacore14arrayTransformISt7complexIdEdNS_4ImagIS2_dEEEEvRKNS_5ArrayIT_EERNS5_IT0_EET1_@Base 3.2.1~
 _ZN8casacore14arrayTransformISt7complexIdEdNS_4RealIS2_dEEEEvRKNS_5ArrayIT_EERNS5_IT0_EET1_@Base 3.2.1~
 _ZN8casacore14arrayTransformISt7complexIfES2_NS_4ConjIS2_S2_EEEEvRKNS_5ArrayIT_EERNS5_IT0_EET1_@Base 3.2.1~
 _ZN8casacore14arrayTransformISt7complexIfEfNS_4CAbsIS2_fEEEEvRKNS_5ArrayIT_EERNS5_IT0_EET1_@Base 3.2.1~
 _ZN8casacore14arrayTransformISt7complexIfEfNS_4CArgIS2_fEEEEvRKNS_5ArrayIT_EERNS5_IT0_EET1_@Base 3.2.1~
 _ZN8casacore14arrayTransformISt7complexIfEfNS_4ImagIS2_fEEEEvRKNS_5ArrayIT_EERNS5_IT0_EET1_@Base 3.2.1~
 _ZN8casacore14arrayTransformISt7complexIfEfNS_4RealIS2_fEEEEvRKNS_5ArrayIT_EERNS5_IT0_EET1_@Base 3.2.1~
 _ZN8casacore14fillBoxedShapeERKNS_9IPositionES2_RS0_S3_@Base 3.2.1~
 _ZN8casacore14getVersionCASAB5cxx11Ev@Base 3.2.1~
 _ZN8casacore14obscure_syntaxE@Base 3.2.1~
 _ZN8casacore14stringToVectorERKNS_6StringERKNS_5RegexE@Base 3.2.1~
 _ZN8casacore14stringToVectorERKNS_6StringEc@Base 3.2.1~
 _ZN8casacore15ArrayIndexErrorC1ENS_9AipsError8CategoryE@Base 3.2.1~
 _ZN8casacore15ArrayIndexErrorC1EPKcNS_9AipsError8CategoryE@Base 3.2.1~
 _ZN8casacore15ArrayIndexErrorC1ERKNS_6StringENS_9AipsError8CategoryE@Base 3.2.1~
 _ZN8casacore15ArrayIndexErrorC1ERKNS_9IPositionES3_PKcNS_9AipsError8CategoryE@Base 3.2.1~
 _ZN8casacore15ArrayIndexErrorC2ENS_9AipsError8CategoryE@Base 3.2.1~
 _ZN8casacore15ArrayIndexErrorC2EPKcNS_9AipsError8CategoryE@Base 3.2.1~
 _ZN8casacore15ArrayIndexErrorC2ERKNS_6StringENS_9AipsError8CategoryE@Base 3.2.1~
 _ZN8casacore15ArrayIndexErrorC2ERKNS_9IPositionES3_PKcNS_9AipsError8CategoryE@Base 3.2.1~
 _ZN8casacore15ArrayIndexErrorD0Ev@Base 3.2.1~
 _ZN8casacore15ArrayIndexErrorD1Ev@Base 3.2.1~
 _ZN8casacore15ArrayIndexErrorD2Ev@Base 3.2.1~
 _ZN8casacore15ArrayShapeErrorC1ERKNS_9IPositionES3_PKcNS_9AipsError8CategoryE@Base 3.2.1~
 _ZN8casacore15ArrayShapeErrorC2ERKNS_9IPositionES3_PKcNS_9AipsError8CategoryE@Base 3.2.1~
 _ZN8casacore15ArrayShapeErrorD0Ev@Base 3.2.1~
 _ZN8casacore15ArrayShapeErrorD1Ev@Base 3.2.1~
 _ZN8casacore15ArrayShapeErrorD2Ev@Base 3.2.1~
 _ZN8casacore15CompositeNumber10nextLargerEj@Base 3.2.1~
 _ZN8casacore15CompositeNumber11isCompositeEj@Base 3.2.1~
 _ZN8casacore15CompositeNumber11nearestEvenEj@Base 3.2.1~
 _ZN8casacore15CompositeNumber11nextSmallerEj@Base 3.2.1~
 _ZN8casacore15CompositeNumber14nextLargerEvenEj@Base 3.2.1~
 _ZN8casacore15CompositeNumber15nextSmallerEvenEj@Base 3.2.1~
 _ZN8casacore15CompositeNumber7nearestEj@Base 3.2.1~
 _ZN8casacore15CompositeNumber8generateEj@Base 3.2.1~
 _ZN8casacore15CompositeNumberC1Ej@Base 3.2.1~
 _ZN8casacore15CompositeNumberC2Ej@Base 3.2.1~
 _ZN8casacore15CompositeNumberD1Ev@Base 3.2.1~
 _ZN8casacore15CompositeNumberD2Ev@Base 3.2.1~
 _ZN8casacore15DiscreteUniform13setParametersERKNS_6VectorIdEE@Base 3.2.1~
 _ZN8casacore15DiscreteUniform3lowEi@Base 3.2.1~
 _ZN8casacore15DiscreteUniform4highEi@Base 3.2.1~
 _ZN8casacore15DiscreteUniform5asIntEv@Base 3.2.1~
 _ZN8casacore15DiscreteUniform5rangeEii@Base 3.2.1~
 _ZN8casacore15DiscreteUniform9calcDeltaEii@Base 3.2.1~
 _ZN8casacore15DiscreteUniformC1EPNS_3RNGEii@Base 3.2.1~
 _ZN8casacore15DiscreteUniformC2EPNS_3RNGEii@Base 3.2.1~
 _ZN8casacore15DiscreteUniformD0Ev@Base 3.2.1~
 _ZN8casacore15DiscreteUniformD1Ev@Base 3.2.1~
 _ZN8casacore15DiscreteUniformD2Ev@Base 3.2.1~
 _ZN8casacore15DiscreteUniformclEv@Base 3.2.1~
 _ZN8casacore15ExtendSpecifierC1ERKNS_9IPositionES3_S3_S3_@Base 3.2.1~
 _ZN8casacore15ExtendSpecifierC1ERKS0_@Base 3.2.1~
 _ZN8casacore15ExtendSpecifierC1Ev@Base 3.2.1~
 _ZN8casacore15ExtendSpecifierC2ERKNS_9IPositionES3_S3_S3_@Base 3.2.1~
 _ZN8casacore15ExtendSpecifierC2ERKS0_@Base 3.2.1~
 _ZN8casacore15ExtendSpecifierC2Ev@Base 3.2.1~
 _ZN8casacore15ExtendSpecifierD1Ev@Base 3.2.1~
 _ZN8casacore15ExtendSpecifierD2Ev@Base 3.2.1~
 _ZN8casacore15ExtendSpecifieraSERKS0_@Base 3.2.1~
 _ZN8casacore15GenSortIndirectINS_6StringEE10insSortAscEPjPKS1_ii@Base 3.2.1~
 _ZN8casacore15GenSortIndirectINS_6StringEE11heapSortAscEPjPKS1_i@Base 3.2.1~
 _ZN8casacore15GenSortIndirectINS_6StringEE12quickSortAscEPjPKS1_ibi@Base 3.2.1~
 _ZN8casacore15GenSortIndirectINS_6StringEE15heapAscSiftDownEPjiiPKS1_@Base 3.2.1~
 _ZN8casacore15GenSortIndirectINS_6StringEE15insSortAscNoDupEPjPKS1_i@Base 3.2.1~
 _ZN8casacore15GenSortIndirectINS_6StringEE4sortERNS_6VectorIjEEPKS1_jNS_4Sort5OrderEi@Base 3.2.1~
 _ZN8casacore15GenSortIndirectINS_6StringEE5mergeEPKS1_PjS5_jS5_j@Base 3.2.1~
 _ZN8casacore15GenSortIndirectINS_6StringEE7parSortEPjPKS1_jNS_4Sort5OrderEii@Base 3.2.1~
 _ZN8casacore15GenSortIndirectIdE10insSortAscEPjPKdii@Base 3.2.1~
 _ZN8casacore15GenSortIndirectIdE11heapSortAscEPjPKdi@Base 3.2.1~
 _ZN8casacore15GenSortIndirectIdE12quickSortAscEPjPKdibi@Base 3.2.1~
 _ZN8casacore15GenSortIndirectIdE15heapAscSiftDownEPjiiPKd@Base 3.2.1~
 _ZN8casacore15GenSortIndirectIdE15insSortAscNoDupEPjPKdi@Base 3.2.1~
 _ZN8casacore15GenSortIndirectIdE4sortERNS_6VectorIjEEPKdjNS_4Sort5OrderEi@Base 3.2.1~
 _ZN8casacore15GenSortIndirectIdE5mergeEPKdPjS4_jS4_j@Base 3.2.1~
 _ZN8casacore15GenSortIndirectIdE7parSortEPjPKdjNS_4Sort5OrderEii@Base 3.2.1~
 _ZN8casacore15GenSortIndirectIfE10insSortAscEPjPKfii@Base 3.2.1~
 _ZN8casacore15GenSortIndirectIfE11heapSortAscEPjPKfi@Base 3.2.1~
 _ZN8casacore15GenSortIndirectIfE12quickSortAscEPjPKfibi@Base 3.2.1~
 _ZN8casacore15GenSortIndirectIfE15heapAscSiftDownEPjiiPKf@Base 3.2.1~
 _ZN8casacore15GenSortIndirectIfE15insSortAscNoDupEPjPKfi@Base 3.2.1~
 _ZN8casacore15GenSortIndirectIfE4sortERNS_6VectorIjEEPKfjNS_4Sort5OrderEi@Base 3.2.1~
 _ZN8casacore15GenSortIndirectIfE5mergeEPKfPjS4_jS4_j@Base 3.2.1~
 _ZN8casacore15GenSortIndirectIfE7parSortEPjPKfjNS_4Sort5OrderEii@Base 3.2.1~
 _ZN8casacore15GenSortIndirectIiE10insSortAscEPjPKiii@Base 3.2.1~
 _ZN8casacore15GenSortIndirectIiE11heapSortAscEPjPKii@Base 3.2.1~
 _ZN8casacore15GenSortIndirectIiE12quickSortAscEPjPKiibi@Base 3.2.1~
 _ZN8casacore15GenSortIndirectIiE15heapAscSiftDownEPjiiPKi@Base 3.2.1~
 _ZN8casacore15GenSortIndirectIiE15insSortAscNoDupEPjPKii@Base 3.2.1~
 _ZN8casacore15GenSortIndirectIiE4sortERNS_6VectorIjEEPKijNS_4Sort5OrderEi@Base 3.2.1~
 _ZN8casacore15GenSortIndirectIiE5mergeEPKiPjS4_jS4_j@Base 3.2.1~
 _ZN8casacore15GenSortIndirectIiE7parSortEPjPKijNS_4Sort5OrderEii@Base 3.2.1~
 _ZN8casacore15GenSortIndirectIjE10insSortAscEPjPKjii@Base 3.2.1~
 _ZN8casacore15GenSortIndirectIjE11heapSortAscEPjPKji@Base 3.2.1~
 _ZN8casacore15GenSortIndirectIjE12quickSortAscEPjPKjibi@Base 3.2.1~
 _ZN8casacore15GenSortIndirectIjE15heapAscSiftDownEPjiiPKj@Base 3.2.1~
 _ZN8casacore15GenSortIndirectIjE15insSortAscNoDupEPjPKji@Base 3.2.1~
 _ZN8casacore15GenSortIndirectIjE4sortERNS_6VectorIjEEPKjjNS_4Sort5OrderEi@Base 3.2.1~
 _ZN8casacore15GenSortIndirectIjE5mergeEPKjPjS4_jS4_j@Base 3.2.1~
 _ZN8casacore15GenSortIndirectIjE7parSortEPjPKjjNS_4Sort5OrderEii@Base 3.2.1~
 _ZN8casacore15GenSortIndirectIxE10insSortAscEPjPKxii@Base 3.2.1~
 _ZN8casacore15GenSortIndirectIxE11heapSortAscEPjPKxi@Base 3.2.1~
 _ZN8casacore15GenSortIndirectIxE12quickSortAscEPjPKxibi@Base 3.2.1~
 _ZN8casacore15GenSortIndirectIxE15heapAscSiftDownEPjiiPKx@Base 3.2.1~
 _ZN8casacore15GenSortIndirectIxE15insSortAscNoDupEPjPKxi@Base 3.2.1~
 _ZN8casacore15GenSortIndirectIxE4sortERNS_6VectorIjEEPKxjNS_4Sort5OrderEi@Base 3.2.1~
 _ZN8casacore15GenSortIndirectIxE5mergeEPKxPjS4_jS4_j@Base 3.2.1~
 _ZN8casacore15GenSortIndirectIxE7parSortEPjPKxjNS_4Sort5OrderEii@Base 3.2.1~
 _ZN8casacore15HDF5HidDataType5closeEv@Base 3.2.1~
 _ZN8casacore15HDF5HidDataTypeC1ERKS0_@Base 3.2.1~
 _ZN8casacore15HDF5HidDataTypeC2ERKS0_@Base 3.2.1~
 _ZN8casacore15HDF5HidDataTypeaSERKS0_@Base 3.2.1~
 _ZN8casacore15HDF5HidProperty5closeEv@Base 3.2.1~
 _ZN8casacore15HostMachineInfo11update_infoEv@Base 3.2.1~
 _ZN8casacore15HostMachineInfoC1Ev@Base 3.2.1~
 _ZN8casacore15HostMachineInfoC2Ev@Base 3.2.1~
 _ZN8casacore15MVEarthMagnetic6adjustERd@Base 3.2.1~
 _ZN8casacore15MVEarthMagnetic6adjustEv@Base 3.2.1~
 _ZN8casacore15MVEarthMagnetic6assureERKNS_9MeasValueE@Base 3.2.1~
 _ZN8casacore15MVEarthMagnetic6radiusEv@Base 3.2.1~
 _ZN8casacore15MVEarthMagnetic8putValueERKNS_6VectorINS_7QuantumIdEEEE@Base 3.2.1~
 _ZN8casacore15MVEarthMagnetic8readjustEd@Base 3.2.1~
 _ZN8casacore15MVEarthMagnetic9putVectorERKNS_6VectorIdEE@Base 3.2.1~
 _ZN8casacore15MVEarthMagneticC1ERKNS_10MVPositionE@Base 3.2.1~
 _ZN8casacore15MVEarthMagneticC1ERKNS_6VectorINS_7QuantumIdEEEE@Base 3.2.1~
 _ZN8casacore15MVEarthMagneticC1ERKNS_6VectorIdEE@Base 3.2.1~
 _ZN8casacore15MVEarthMagneticC1ERKNS_7QuantumINS_6VectorIdEEEE@Base 3.2.1~
 _ZN8casacore15MVEarthMagneticC1ERKNS_7QuantumIdEE@Base 3.2.1~
 _ZN8casacore15MVEarthMagneticC1ERKNS_7QuantumIdEERKNS1_INS_6VectorIdEEEE@Base 3.2.1~
 _ZN8casacore15MVEarthMagneticC1ERKNS_7QuantumIdEES4_S4_@Base 3.2.1~
 _ZN8casacore15MVEarthMagneticC1ERKNS_7QuantumIdEEdd@Base 3.2.1~
 _ZN8casacore15MVEarthMagneticC1Ed@Base 3.2.1~
 _ZN8casacore15MVEarthMagneticC1Eddd@Base 3.2.1~
 _ZN8casacore15MVEarthMagneticC1Ev@Base 3.2.1~
 _ZN8casacore15MVEarthMagneticC2ERKNS_10MVPositionE@Base 3.2.1~
 _ZN8casacore15MVEarthMagneticC2ERKNS_6VectorINS_7QuantumIdEEEE@Base 3.2.1~
 _ZN8casacore15MVEarthMagneticC2ERKNS_6VectorIdEE@Base 3.2.1~
 _ZN8casacore15MVEarthMagneticC2ERKNS_7QuantumINS_6VectorIdEEEE@Base 3.2.1~
 _ZN8casacore15MVEarthMagneticC2ERKNS_7QuantumIdEE@Base 3.2.1~
 _ZN8casacore15MVEarthMagneticC2ERKNS_7QuantumIdEERKNS1_INS_6VectorIdEEEE@Base 3.2.1~
 _ZN8casacore15MVEarthMagneticC2ERKNS_7QuantumIdEES4_S4_@Base 3.2.1~
 _ZN8casacore15MVEarthMagneticC2ERKNS_7QuantumIdEEdd@Base 3.2.1~
 _ZN8casacore15MVEarthMagneticC2Ed@Base 3.2.1~
 _ZN8casacore15MVEarthMagneticC2Eddd@Base 3.2.1~
 _ZN8casacore15MVEarthMagneticC2Ev@Base 3.2.1~
 _ZN8casacore15MVEarthMagneticD0Ev@Base 3.2.1~
 _ZN8casacore15MVEarthMagneticD1Ev@Base 3.2.1~
 _ZN8casacore15MVEarthMagneticD2Ev@Base 3.2.1~
 _ZN8casacore15MVEarthMagneticaSERKS0_@Base 3.2.1~
 _ZN8casacore15MVEarthMagneticmIERKS0_@Base 3.2.1~
 _ZN8casacore15MVEarthMagneticpLERKS0_@Base 3.2.1~
 _ZN8casacore15MultiFileBufferC1Emb@Base 3.2.1~
 _ZN8casacore15MultiFileBufferC2Emb@Base 3.2.1~
 _ZN8casacore15NewDelAllocatorINS_5SliceEE5valueE@Base 3.2.1~
 _ZN8casacore15NewDelAllocatorINS_5SliceEED0Ev@Base 3.2.1~
 _ZN8casacore15NewDelAllocatorINS_5SliceEED1Ev@Base 3.2.1~
 _ZN8casacore15NewDelAllocatorINS_5SliceEED2Ev@Base 3.2.1~
 _ZN8casacore15NewDelAllocatorINS_6StringEE5valueE@Base 3.2.1~
 _ZN8casacore15NewDelAllocatorINS_6StringEED0Ev@Base 3.2.1~
 _ZN8casacore15NewDelAllocatorINS_6StringEED1Ev@Base 3.2.1~
 _ZN8casacore15NewDelAllocatorINS_6StringEED2Ev@Base 3.2.1~
 _ZN8casacore15NewDelAllocatorINS_6VectorINS_5SliceEEEE5valueE@Base 3.2.1~
 _ZN8casacore15NewDelAllocatorINS_6VectorINS_5SliceEEEED0Ev@Base 3.2.1~
 _ZN8casacore15NewDelAllocatorINS_6VectorINS_5SliceEEEED1Ev@Base 3.2.1~
 _ZN8casacore15NewDelAllocatorINS_6VectorINS_5SliceEEEED2Ev@Base 3.2.1~
 _ZN8casacore15NewDelAllocatorINS_7QuantumIdEEE5valueE@Base 3.2.1~
 _ZN8casacore15NewDelAllocatorINS_7QuantumIdEEED0Ev@Base 3.2.1~
 _ZN8casacore15NewDelAllocatorINS_7QuantumIdEEED1Ev@Base 3.2.1~
 _ZN8casacore15NewDelAllocatorINS_7QuantumIdEEED2Ev@Base 3.2.1~
 _ZN8casacore15NewDelAllocatorISt7complexIdEE5valueE@Base 3.2.1~
 _ZN8casacore15NewDelAllocatorISt7complexIdEED0Ev@Base 3.2.1~
 _ZN8casacore15NewDelAllocatorISt7complexIdEED1Ev@Base 3.2.1~
 _ZN8casacore15NewDelAllocatorISt7complexIdEED2Ev@Base 3.2.1~
 _ZN8casacore15NewDelAllocatorISt7complexIfEE5valueE@Base 3.2.1~
 _ZN8casacore15NewDelAllocatorISt7complexIfEED0Ev@Base 3.2.1~
 _ZN8casacore15NewDelAllocatorISt7complexIfEED1Ev@Base 3.2.1~
 _ZN8casacore15NewDelAllocatorISt7complexIfEED2Ev@Base 3.2.1~
 _ZN8casacore15NewDelAllocatorIbE5valueE@Base 3.2.1~
 _ZN8casacore15NewDelAllocatorIbED0Ev@Base 3.2.1~
 _ZN8casacore15NewDelAllocatorIbED1Ev@Base 3.2.1~
 _ZN8casacore15NewDelAllocatorIbED2Ev@Base 3.2.1~
 _ZN8casacore15NewDelAllocatorIcE5valueE@Base 3.2.1~
 _ZN8casacore15NewDelAllocatorIcED0Ev@Base 3.2.1~
 _ZN8casacore15NewDelAllocatorIcED1Ev@Base 3.2.1~
 _ZN8casacore15NewDelAllocatorIcED2Ev@Base 3.2.1~
 _ZN8casacore15NewDelAllocatorIdE5valueE@Base 3.2.1~
 _ZN8casacore15NewDelAllocatorIdED0Ev@Base 3.2.1~
 _ZN8casacore15NewDelAllocatorIdED1Ev@Base 3.2.1~
 _ZN8casacore15NewDelAllocatorIdED2Ev@Base 3.2.1~
 _ZN8casacore15NewDelAllocatorIfE5valueE@Base 3.2.1~
 _ZN8casacore15NewDelAllocatorIfED0Ev@Base 3.2.1~
 _ZN8casacore15NewDelAllocatorIfED1Ev@Base 3.2.1~
 _ZN8casacore15NewDelAllocatorIfED2Ev@Base 3.2.1~
 _ZN8casacore15NewDelAllocatorIhE5valueE@Base 3.2.1~
 _ZN8casacore15NewDelAllocatorIhED0Ev@Base 3.2.1~
 _ZN8casacore15NewDelAllocatorIhED1Ev@Base 3.2.1~
 _ZN8casacore15NewDelAllocatorIhED2Ev@Base 3.2.1~
 _ZN8casacore15NewDelAllocatorIiE5valueE@Base 3.2.1~
 _ZN8casacore15NewDelAllocatorIiED0Ev@Base 3.2.1~
 _ZN8casacore15NewDelAllocatorIiED1Ev@Base 3.2.1~
 _ZN8casacore15NewDelAllocatorIiED2Ev@Base 3.2.1~
 _ZN8casacore15NewDelAllocatorIjE5valueE@Base 3.2.1~
 _ZN8casacore15NewDelAllocatorIjED0Ev@Base 3.2.1~
 _ZN8casacore15NewDelAllocatorIjED1Ev@Base 3.2.1~
 _ZN8casacore15NewDelAllocatorIjED2Ev@Base 3.2.1~
 _ZN8casacore15NewDelAllocatorIsE5valueE@Base 3.2.1~
 _ZN8casacore15NewDelAllocatorIsED0Ev@Base 3.2.1~
 _ZN8casacore15NewDelAllocatorIsED1Ev@Base 3.2.1~
 _ZN8casacore15NewDelAllocatorIsED2Ev@Base 3.2.1~
 _ZN8casacore15NewDelAllocatorItE5valueE@Base 3.2.1~
 _ZN8casacore15NewDelAllocatorItED0Ev@Base 3.2.1~
 _ZN8casacore15NewDelAllocatorItED1Ev@Base 3.2.1~
 _ZN8casacore15NewDelAllocatorItED2Ev@Base 3.2.1~
 _ZN8casacore15NewDelAllocatorIxE5valueE@Base 3.2.1~
 _ZN8casacore15NewDelAllocatorIxED0Ev@Base 3.2.1~
 _ZN8casacore15NewDelAllocatorIxED1Ev@Base 3.2.1~
 _ZN8casacore15NewDelAllocatorIxED2Ev@Base 3.2.1~
 _ZN8casacore15RecordInterface11defineFieldERKNS_13RecordFieldIdENS_8DataTypeEPKv@Base 3.2.1~
 _ZN8casacore15RecordInterface11defineFieldERKNS_13RecordFieldIdENS_8DataTypeERKNS_9IPositionEbPKv@Base 3.2.1~
 _ZN8casacore15RecordInterface21defineFromValueHolderERKNS_13RecordFieldIdERKNS_11ValueHolderE@Base 3.2.1~
 _ZN8casacore15RecordInterface6defineERKNS_13RecordFieldIdERKNS_5ArrayINS_6StringEEEb@Base 3.2.1~
 _ZN8casacore15RecordInterface6defineERKNS_13RecordFieldIdERKNS_5ArrayISt7complexIdEEEb@Base 3.2.1~
 _ZN8casacore15RecordInterface6defineERKNS_13RecordFieldIdERKNS_5ArrayISt7complexIfEEEb@Base 3.2.1~
 _ZN8casacore15RecordInterface6defineERKNS_13RecordFieldIdERKNS_5ArrayIbEEb@Base 3.2.1~
 _ZN8casacore15RecordInterface6defineERKNS_13RecordFieldIdERKNS_5ArrayIdEEb@Base 3.2.1~
 _ZN8casacore15RecordInterface6defineERKNS_13RecordFieldIdERKNS_5ArrayIfEEb@Base 3.2.1~
 _ZN8casacore15RecordInterface6defineERKNS_13RecordFieldIdERKNS_5ArrayIhEEb@Base 3.2.1~
 _ZN8casacore15RecordInterface6defineERKNS_13RecordFieldIdERKNS_5ArrayIiEEb@Base 3.2.1~
 _ZN8casacore15RecordInterface6defineERKNS_13RecordFieldIdERKNS_5ArrayIjEEb@Base 3.2.1~
 _ZN8casacore15RecordInterface6defineERKNS_13RecordFieldIdERKNS_5ArrayIsEEb@Base 3.2.1~
 _ZN8casacore15RecordInterface6defineERKNS_13RecordFieldIdERKNS_5ArrayIxEEb@Base 3.2.1~
 _ZN8casacore15RecordInterface6defineERKNS_13RecordFieldIdERKNS_6StringE@Base 3.2.1~
 _ZN8casacore15RecordInterface6defineERKNS_13RecordFieldIdERKSt7complexIdE@Base 3.2.1~
 _ZN8casacore15RecordInterface6defineERKNS_13RecordFieldIdERKSt7complexIfE@Base 3.2.1~
 _ZN8casacore15RecordInterface6defineERKNS_13RecordFieldIdEb@Base 3.2.1~
 _ZN8casacore15RecordInterface6defineERKNS_13RecordFieldIdEd@Base 3.2.1~
 _ZN8casacore15RecordInterface6defineERKNS_13RecordFieldIdEf@Base 3.2.1~
 _ZN8casacore15RecordInterface6defineERKNS_13RecordFieldIdEh@Base 3.2.1~
 _ZN8casacore15RecordInterface6defineERKNS_13RecordFieldIdEi@Base 3.2.1~
 _ZN8casacore15RecordInterface6defineERKNS_13RecordFieldIdEj@Base 3.2.1~
 _ZN8casacore15RecordInterface6defineERKNS_13RecordFieldIdEs@Base 3.2.1~
 _ZN8casacore15RecordInterface6defineERKNS_13RecordFieldIdEx@Base 3.2.1~
 _ZN8casacore15RecordInterfaceC1ENS0_10RecordTypeEPFbRKNS_6StringENS_8DataTypeEPKvRS2_ES7_@Base 3.2.1~
 _ZN8casacore15RecordInterfaceC1ERKS0_@Base 3.2.1~
 _ZN8casacore15RecordInterfaceC1Ev@Base 3.2.1~
 _ZN8casacore15RecordInterfaceC2ENS0_10RecordTypeEPFbRKNS_6StringENS_8DataTypeEPKvRS2_ES7_@Base 3.2.1~
 _ZN8casacore15RecordInterfaceC2ERKS0_@Base 3.2.1~
 _ZN8casacore15RecordInterfaceC2Ev@Base 3.2.1~
 _ZN8casacore15RecordInterfaceD0Ev@Base 3.2.1~
 _ZN8casacore15RecordInterfaceD1Ev@Base 3.2.1~
 _ZN8casacore15RecordInterfaceD2Ev@Base 3.2.1~
 _ZN8casacore15RecordInterfaceaSERKS0_@Base 3.2.1~
 _ZN8casacore15SystemCallError12errorMessageEi@Base 3.2.1~
 _ZN8casacore15SystemCallErrorC1ERKNS_6StringEiNS_9AipsError8CategoryE@Base 3.2.1~
 _ZN8casacore15SystemCallErrorC1EiRKNS_6StringES3_jNS_9AipsError8CategoryE@Base 3.2.1~
 _ZN8casacore15SystemCallErrorC2ERKNS_6StringEiNS_9AipsError8CategoryE@Base 3.2.1~
 _ZN8casacore15SystemCallErrorC2EiRKNS_6StringES3_jNS_9AipsError8CategoryE@Base 3.2.1~
 _ZN8casacore15SystemCallErrorD0Ev@Base 3.2.1~
 _ZN8casacore15SystemCallErrorD1Ev@Base 3.2.1~
 _ZN8casacore15SystemCallErrorD2Ev@Base 3.2.1~
 _ZN8casacore15arrayCompareAllIbSt11logical_andIbEEEbRKNS_5ArrayIT_EES4_T0_@Base 3.2.1~
 _ZN8casacore15arrayCompareAllIdNS_4NearIddEEEEbRKNS_5ArrayIT_EES7_T0_@Base 3.2.1~
 _ZN8casacore15arrayCompareAllIdNS_7NearAbsIddEEEEbRKNS_5ArrayIT_EES7_T0_@Base 3.2.1~
 _ZN8casacore15arrayCompareAllIdSt8equal_toIdEEEbRKNS_5ArrayIT_EES7_T0_@Base 3.2.1~
 _ZN8casacore15re_max_failuresE@Base 3.2.1~
 _ZN8casacore15re_syntax_tableE@Base 3.2.1~
 _ZN8casacore15toOffsetInArrayERKNS_9IPositionES2_@Base 3.2.1~
 _ZN8casacore16ArrayIndexOffsetEjPKlS1_RKNS_9IPositionE@Base 3.2.1~
 _ZN8casacore16ArrayIndexOffsetEjPKlS1_S1_RKNS_9IPositionE@Base 3.2.1~
 _ZN8casacore16ArraySlicerErrorC1ENS_9AipsError8CategoryE@Base 3.2.1~
 _ZN8casacore16ArraySlicerErrorC1ERKNS_6StringENS_9AipsError8CategoryE@Base 3.2.1~
 _ZN8casacore16ArraySlicerErrorC2ENS_9AipsError8CategoryE@Base 3.2.1~
 _ZN8casacore16ArraySlicerErrorC2ERKNS_6StringENS_9AipsError8CategoryE@Base 3.2.1~
 _ZN8casacore16ArraySlicerErrorD0Ev@Base 3.2.1~
 _ZN8casacore16ArraySlicerErrorD1Ev@Base 3.2.1~
 _ZN8casacore16ArraySlicerErrorD2Ev@Base 3.2.1~
 _ZN8casacore16DefaultAllocatorINS_5SliceEE5valueE@Base 3.2.1~
 _ZN8casacore16DefaultAllocatorINS_5SliceEED0Ev@Base 3.2.1~
 _ZN8casacore16DefaultAllocatorINS_5SliceEED1Ev@Base 3.2.1~
 _ZN8casacore16DefaultAllocatorINS_5SliceEED2Ev@Base 3.2.1~
 _ZN8casacore16DefaultAllocatorINS_6StringEE5valueE@Base 3.2.1~
 _ZN8casacore16DefaultAllocatorINS_6StringEED0Ev@Base 3.2.1~
 _ZN8casacore16DefaultAllocatorINS_6StringEED1Ev@Base 3.2.1~
 _ZN8casacore16DefaultAllocatorINS_6StringEED2Ev@Base 3.2.1~
 _ZN8casacore16DefaultAllocatorINS_6VectorINS_5SliceEEEE5valueE@Base 3.2.1~
 _ZN8casacore16DefaultAllocatorINS_6VectorINS_5SliceEEEED0Ev@Base 3.2.1~
 _ZN8casacore16DefaultAllocatorINS_6VectorINS_5SliceEEEED1Ev@Base 3.2.1~
 _ZN8casacore16DefaultAllocatorINS_6VectorINS_5SliceEEEED2Ev@Base 3.2.1~
 _ZN8casacore16DefaultAllocatorINS_7QuantumIdEEE5valueE@Base 3.2.1~
 _ZN8casacore16DefaultAllocatorINS_7QuantumIdEEED0Ev@Base 3.2.1~
 _ZN8casacore16DefaultAllocatorINS_7QuantumIdEEED1Ev@Base 3.2.1~
 _ZN8casacore16DefaultAllocatorINS_7QuantumIdEEED2Ev@Base 3.2.1~
 _ZN8casacore16DefaultAllocatorISt7complexIdEE5valueE@Base 3.2.1~
 _ZN8casacore16DefaultAllocatorISt7complexIdEED0Ev@Base 3.2.1~
 _ZN8casacore16DefaultAllocatorISt7complexIdEED1Ev@Base 3.2.1~
 _ZN8casacore16DefaultAllocatorISt7complexIdEED2Ev@Base 3.2.1~
 _ZN8casacore16DefaultAllocatorISt7complexIfEE5valueE@Base 3.2.1~
 _ZN8casacore16DefaultAllocatorISt7complexIfEED0Ev@Base 3.2.1~
 _ZN8casacore16DefaultAllocatorISt7complexIfEED1Ev@Base 3.2.1~
 _ZN8casacore16DefaultAllocatorISt7complexIfEED2Ev@Base 3.2.1~
 _ZN8casacore16DefaultAllocatorIbE5valueE@Base 3.2.1~
 _ZN8casacore16DefaultAllocatorIbED0Ev@Base 3.2.1~
 _ZN8casacore16DefaultAllocatorIbED1Ev@Base 3.2.1~
 _ZN8casacore16DefaultAllocatorIbED2Ev@Base 3.2.1~
 _ZN8casacore16DefaultAllocatorIcE5valueE@Base 3.2.1~
 _ZN8casacore16DefaultAllocatorIcED0Ev@Base 3.2.1~
 _ZN8casacore16DefaultAllocatorIcED1Ev@Base 3.2.1~
 _ZN8casacore16DefaultAllocatorIcED2Ev@Base 3.2.1~
 _ZN8casacore16DefaultAllocatorIdE5valueE@Base 3.2.1~
 _ZN8casacore16DefaultAllocatorIdED0Ev@Base 3.2.1~
 _ZN8casacore16DefaultAllocatorIdED1Ev@Base 3.2.1~
 _ZN8casacore16DefaultAllocatorIdED2Ev@Base 3.2.1~
 _ZN8casacore16DefaultAllocatorIfE5valueE@Base 3.2.1~
 _ZN8casacore16DefaultAllocatorIfED0Ev@Base 3.2.1~
 _ZN8casacore16DefaultAllocatorIfED1Ev@Base 3.2.1~
 _ZN8casacore16DefaultAllocatorIfED2Ev@Base 3.2.1~
 _ZN8casacore16DefaultAllocatorIhE5valueE@Base 3.2.1~
 _ZN8casacore16DefaultAllocatorIhED0Ev@Base 3.2.1~
 _ZN8casacore16DefaultAllocatorIhED1Ev@Base 3.2.1~
 _ZN8casacore16DefaultAllocatorIhED2Ev@Base 3.2.1~
 _ZN8casacore16DefaultAllocatorIiE5valueE@Base 3.2.1~
 _ZN8casacore16DefaultAllocatorIiED0Ev@Base 3.2.1~
 _ZN8casacore16DefaultAllocatorIiED1Ev@Base 3.2.1~
 _ZN8casacore16DefaultAllocatorIiED2Ev@Base 3.2.1~
 _ZN8casacore16DefaultAllocatorIjE5valueE@Base 3.2.1~
 _ZN8casacore16DefaultAllocatorIjED0Ev@Base 3.2.1~
 _ZN8casacore16DefaultAllocatorIjED1Ev@Base 3.2.1~
 _ZN8casacore16DefaultAllocatorIjED2Ev@Base 3.2.1~
 _ZN8casacore16DefaultAllocatorIsE5valueE@Base 3.2.1~
 _ZN8casacore16DefaultAllocatorIsED0Ev@Base 3.2.1~
 _ZN8casacore16DefaultAllocatorIsED1Ev@Base 3.2.1~
 _ZN8casacore16DefaultAllocatorIsED2Ev@Base 3.2.1~
 _ZN8casacore16DefaultAllocatorItE5valueE@Base 3.2.1~
 _ZN8casacore16DefaultAllocatorItED0Ev@Base 3.2.1~
 _ZN8casacore16DefaultAllocatorItED1Ev@Base 3.2.1~
 _ZN8casacore16DefaultAllocatorItED2Ev@Base 3.2.1~
 _ZN8casacore16DefaultAllocatorIxE5valueE@Base 3.2.1~
 _ZN8casacore16DefaultAllocatorIxED0Ev@Base 3.2.1~
 _ZN8casacore16DefaultAllocatorIxED1Ev@Base 3.2.1~
 _ZN8casacore16DefaultAllocatorIxED2Ev@Base 3.2.1~
 _ZN8casacore16HDF5HidAttribute5closeEv@Base 3.2.1~
 _ZN8casacore16HDF5HidDataSpace5closeEv@Base 3.2.1~
 _ZN8casacore16InvalidIterErrorC1EPKcNS_9AipsError8CategoryE@Base 3.2.1~
 _ZN8casacore16InvalidIterErrorC2EPKcNS_9AipsError8CategoryE@Base 3.2.1~
 _ZN8casacore16InvalidIterErrorD0Ev@Base 3.2.1~
 _ZN8casacore16InvalidIterErrorD1Ev@Base 3.2.1~
 _ZN8casacore16InvalidIterErrorD2Ev@Base 3.2.1~
 _ZN8casacore16LogSinkInterface12clearLocallyEv@Base 3.2.1~
 _ZN8casacore16LogSinkInterface12writeLocallyEdRKNS_6StringES3_S3_S3_@Base 3.2.1~
 _ZN8casacore16LogSinkInterface5flushEb@Base 3.2.1~
 _ZN8casacore16LogSinkInterface6filterERKNS_18LogFilterInterfaceE@Base 3.2.1~
 _ZN8casacore16LogSinkInterface7cerrTooEb@Base 3.2.1~
 _ZN8casacore16LogSinkInterface7localIdEv@Base 3.2.1~
 _ZN8casacore16LogSinkInterfaceC1ERKNS_18LogFilterInterfaceE@Base 3.2.1~
 _ZN8casacore16LogSinkInterfaceC1ERKS0_@Base 3.2.1~
 _ZN8casacore16LogSinkInterfaceC1Ev@Base 3.2.1~
 _ZN8casacore16LogSinkInterfaceC2ERKNS_18LogFilterInterfaceE@Base 3.2.1~
 _ZN8casacore16LogSinkInterfaceC2ERKS0_@Base 3.2.1~
 _ZN8casacore16LogSinkInterfaceC2Ev@Base 3.2.1~
 _ZN8casacore16LogSinkInterfaceD0Ev@Base 3.2.1~
 _ZN8casacore16LogSinkInterfaceD1Ev@Base 3.2.1~
 _ZN8casacore16LogSinkInterfaceD2Ev@Base 3.2.1~
 _ZN8casacore16LogSinkInterfaceaSERKS0_@Base 3.2.1~
 _ZN8casacore16MVRadialVelocity6assureERKNS_9MeasValueE@Base 3.2.1~
 _ZN8casacore16MVRadialVelocity8putValueERKNS_6VectorINS_7QuantumIdEEEE@Base 3.2.1~
 _ZN8casacore16MVRadialVelocity9putVectorERKNS_6VectorIdEE@Base 3.2.1~
 _ZN8casacore16MVRadialVelocityC1ERKNS_6VectorINS_7QuantumIdEEEE@Base 3.2.1~
 _ZN8casacore16MVRadialVelocityC1ERKNS_6VectorIdEE@Base 3.2.1~
 _ZN8casacore16MVRadialVelocityC1ERKNS_7QuantumINS_6VectorIdEEEE@Base 3.2.1~
 _ZN8casacore16MVRadialVelocityC1ERKNS_7QuantumIdEE@Base 3.2.1~
 _ZN8casacore16MVRadialVelocityC1ERKS0_@Base 3.2.1~
 _ZN8casacore16MVRadialVelocityC1Ed@Base 3.2.1~
 _ZN8casacore16MVRadialVelocityC1Ev@Base 3.2.1~
 _ZN8casacore16MVRadialVelocityC2ERKNS_6VectorINS_7QuantumIdEEEE@Base 3.2.1~
 _ZN8casacore16MVRadialVelocityC2ERKNS_6VectorIdEE@Base 3.2.1~
 _ZN8casacore16MVRadialVelocityC2ERKNS_7QuantumINS_6VectorIdEEEE@Base 3.2.1~
 _ZN8casacore16MVRadialVelocityC2ERKNS_7QuantumIdEE@Base 3.2.1~
 _ZN8casacore16MVRadialVelocityC2ERKS0_@Base 3.2.1~
 _ZN8casacore16MVRadialVelocityC2Ed@Base 3.2.1~
 _ZN8casacore16MVRadialVelocityC2Ev@Base 3.2.1~
 _ZN8casacore16MVRadialVelocityD0Ev@Base 3.2.1~
 _ZN8casacore16MVRadialVelocityD1Ev@Base 3.2.1~
 _ZN8casacore16MVRadialVelocityD2Ev@Base 3.2.1~
 _ZN8casacore16MVRadialVelocityaSERKS0_@Base 3.2.1~
 _ZN8casacore16MVRadialVelocitymIERKS0_@Base 3.2.1~
 _ZN8casacore16MVRadialVelocitypLERKS0_@Base 3.2.1~
 _ZN8casacore16MemoryTraceBlockC1EPKc@Base 3.2.1~
 _ZN8casacore16MemoryTraceBlockC1ERKNSt7__cxx1112basic_stringIcSt11char_traitsIcESaIcEEE@Base 3.2.1~
 _ZN8casacore16MemoryTraceBlockC2EPKc@Base 3.2.1~
 _ZN8casacore16MemoryTraceBlockC2ERKNSt7__cxx1112basic_stringIcSt11char_traitsIcESaIcEEE@Base 3.2.1~
 _ZN8casacore16MemoryTraceBlockD1Ev@Base 3.2.1~
 _ZN8casacore16MemoryTraceBlockD2Ev@Base 3.2.1~
 _ZN8casacore16checkExpandArrayERNS_9IPositionES1_RKS0_S3_S3_@Base 3.2.1~
 _ZN8casacore16cregex_allocatorC1Ev@Base 3.2.1~
 _ZN8casacore16cregex_allocatorC2Ev@Base 3.2.1~
 _ZN8casacore16cregex_allocatorD1Ev@Base 3.2.1~
 _ZN8casacore16cregex_allocatorD2Ev@Base 3.2.1~
 _ZN8casacore16cregex_allocatorclEi@Base 3.2.1~
 _ZN8casacore16fillSlidingShapeERKNS_9IPositionES2_RS0_S3_@Base 3.2.1~
 _ZN8casacore16throwArrayShapesERKNS_9IPositionES2_PKc@Base 3.2.1~
 _ZN8casacore17Allocator_private17BulkAllocatorImplINS_17new_del_allocatorINS_5SliceEEEE10deallocateEPS3_m@Base 3.2.1~
 _ZN8casacore17Allocator_private17BulkAllocatorImplINS_17new_del_allocatorINS_5SliceEEEE7destroyEPS3_m@Base 3.2.1~
 _ZN8casacore17Allocator_private17BulkAllocatorImplINS_17new_del_allocatorINS_5SliceEEEE8allocateEmPKv@Base 3.2.1~
 _ZN8casacore17Allocator_private17BulkAllocatorImplINS_17new_del_allocatorINS_5SliceEEEE9allocatorE@Base 3.2.1~
 _ZN8casacore17Allocator_private17BulkAllocatorImplINS_17new_del_allocatorINS_5SliceEEEE9constructEPS3_m@Base 3.2.1~
 _ZN8casacore17Allocator_private17BulkAllocatorImplINS_17new_del_allocatorINS_5SliceEEEE9constructEPS3_mPKS3_@Base 3.2.1~
 _ZN8casacore17Allocator_private17BulkAllocatorImplINS_17new_del_allocatorINS_5SliceEEEE9constructEPS3_mRKS3_@Base 3.2.1~
 _ZN8casacore17Allocator_private17BulkAllocatorImplINS_17new_del_allocatorINS_5SliceEEEED0Ev@Base 3.2.1~
 _ZN8casacore17Allocator_private17BulkAllocatorImplINS_17new_del_allocatorINS_5SliceEEEED1Ev@Base 3.2.1~
 _ZN8casacore17Allocator_private17BulkAllocatorImplINS_17new_del_allocatorINS_5SliceEEEED2Ev@Base 3.2.1~
 _ZN8casacore17Allocator_private17BulkAllocatorImplINS_17new_del_allocatorINS_6StringEEEE10deallocateEPS3_m@Base 3.2.1~
 _ZN8casacore17Allocator_private17BulkAllocatorImplINS_17new_del_allocatorINS_6StringEEEE7destroyEPS3_m@Base 3.2.1~
 _ZN8casacore17Allocator_private17BulkAllocatorImplINS_17new_del_allocatorINS_6StringEEEE8allocateEmPKv@Base 3.2.1~
 _ZN8casacore17Allocator_private17BulkAllocatorImplINS_17new_del_allocatorINS_6StringEEEE9allocatorE@Base 3.2.1~
 _ZN8casacore17Allocator_private17BulkAllocatorImplINS_17new_del_allocatorINS_6StringEEEE9constructEPS3_m@Base 3.2.1~
 _ZN8casacore17Allocator_private17BulkAllocatorImplINS_17new_del_allocatorINS_6StringEEEE9constructEPS3_mPKS3_@Base 3.2.1~
 _ZN8casacore17Allocator_private17BulkAllocatorImplINS_17new_del_allocatorINS_6StringEEEE9constructEPS3_mRKS3_@Base 3.2.1~
 _ZN8casacore17Allocator_private17BulkAllocatorImplINS_17new_del_allocatorINS_6StringEEEED0Ev@Base 3.2.1~
 _ZN8casacore17Allocator_private17BulkAllocatorImplINS_17new_del_allocatorINS_6StringEEEED1Ev@Base 3.2.1~
 _ZN8casacore17Allocator_private17BulkAllocatorImplINS_17new_del_allocatorINS_6StringEEEED2Ev@Base 3.2.1~
 _ZN8casacore17Allocator_private17BulkAllocatorImplINS_17new_del_allocatorINS_6VectorINS_5SliceEEEEEE10deallocateEPS5_m@Base 3.2.1~
 _ZN8casacore17Allocator_private17BulkAllocatorImplINS_17new_del_allocatorINS_6VectorINS_5SliceEEEEEE7destroyEPS5_m@Base 3.2.1~
 _ZN8casacore17Allocator_private17BulkAllocatorImplINS_17new_del_allocatorINS_6VectorINS_5SliceEEEEEE8allocateEmPKv@Base 3.2.1~
 _ZN8casacore17Allocator_private17BulkAllocatorImplINS_17new_del_allocatorINS_6VectorINS_5SliceEEEEEE9allocatorE@Base 3.2.1~
 _ZN8casacore17Allocator_private17BulkAllocatorImplINS_17new_del_allocatorINS_6VectorINS_5SliceEEEEEE9constructEPS5_m@Base 3.2.1~
 _ZN8casacore17Allocator_private17BulkAllocatorImplINS_17new_del_allocatorINS_6VectorINS_5SliceEEEEEE9constructEPS5_mPKS5_@Base 3.2.1~
 _ZN8casacore17Allocator_private17BulkAllocatorImplINS_17new_del_allocatorINS_6VectorINS_5SliceEEEEEE9constructEPS5_mRKS5_@Base 3.2.1~
 _ZN8casacore17Allocator_private17BulkAllocatorImplINS_17new_del_allocatorINS_6VectorINS_5SliceEEEEEED0Ev@Base 3.2.1~
 _ZN8casacore17Allocator_private17BulkAllocatorImplINS_17new_del_allocatorINS_6VectorINS_5SliceEEEEEED1Ev@Base 3.2.1~
 _ZN8casacore17Allocator_private17BulkAllocatorImplINS_17new_del_allocatorINS_6VectorINS_5SliceEEEEEED2Ev@Base 3.2.1~
 _ZN8casacore17Allocator_private17BulkAllocatorImplINS_17new_del_allocatorINS_7QuantumIdEEEEE10deallocateEPS4_m@Base 3.2.1~
 _ZN8casacore17Allocator_private17BulkAllocatorImplINS_17new_del_allocatorINS_7QuantumIdEEEEE7destroyEPS4_m@Base 3.2.1~
 _ZN8casacore17Allocator_private17BulkAllocatorImplINS_17new_del_allocatorINS_7QuantumIdEEEEE8allocateEmPKv@Base 3.2.1~
 _ZN8casacore17Allocator_private17BulkAllocatorImplINS_17new_del_allocatorINS_7QuantumIdEEEEE9allocatorE@Base 3.2.1~
 _ZN8casacore17Allocator_private17BulkAllocatorImplINS_17new_del_allocatorINS_7QuantumIdEEEEE9constructEPS4_m@Base 3.2.1~
 _ZN8casacore17Allocator_private17BulkAllocatorImplINS_17new_del_allocatorINS_7QuantumIdEEEEE9constructEPS4_mPKS4_@Base 3.2.1~
 _ZN8casacore17Allocator_private17BulkAllocatorImplINS_17new_del_allocatorINS_7QuantumIdEEEEE9constructEPS4_mRKS4_@Base 3.2.1~
 _ZN8casacore17Allocator_private17BulkAllocatorImplINS_17new_del_allocatorINS_7QuantumIdEEEEED0Ev@Base 3.2.1~
 _ZN8casacore17Allocator_private17BulkAllocatorImplINS_17new_del_allocatorINS_7QuantumIdEEEEED1Ev@Base 3.2.1~
 _ZN8casacore17Allocator_private17BulkAllocatorImplINS_17new_del_allocatorINS_7QuantumIdEEEEED2Ev@Base 3.2.1~
 _ZN8casacore17Allocator_private17BulkAllocatorImplINS_17new_del_allocatorIPvEEE10deallocateEPS3_m@Base 3.2.1~
 _ZN8casacore17Allocator_private17BulkAllocatorImplINS_17new_del_allocatorIPvEEE7destroyEPS3_m@Base 3.2.1~
 _ZN8casacore17Allocator_private17BulkAllocatorImplINS_17new_del_allocatorIPvEEE8allocateEmPKv@Base 3.2.1~
 _ZN8casacore17Allocator_private17BulkAllocatorImplINS_17new_del_allocatorIPvEEE9allocatorE@Base 3.2.1~
 _ZN8casacore17Allocator_private17BulkAllocatorImplINS_17new_del_allocatorIPvEEE9constructEPS3_m@Base 3.2.1~
 _ZN8casacore17Allocator_private17BulkAllocatorImplINS_17new_del_allocatorIPvEEE9constructEPS3_mPKS3_@Base 3.2.1~
 _ZN8casacore17Allocator_private17BulkAllocatorImplINS_17new_del_allocatorIPvEEE9constructEPS3_mRKS3_@Base 3.2.1~
 _ZN8casacore17Allocator_private17BulkAllocatorImplINS_17new_del_allocatorIPvEEED0Ev@Base 3.2.1~
 _ZN8casacore17Allocator_private17BulkAllocatorImplINS_17new_del_allocatorIPvEEED1Ev@Base 3.2.1~
 _ZN8casacore17Allocator_private17BulkAllocatorImplINS_17new_del_allocatorIPvEEED2Ev@Base 3.2.1~
 _ZN8casacore17Allocator_private17BulkAllocatorImplINS_17new_del_allocatorISt7complexIdEEEE10deallocateEPS4_m@Base 3.2.1~
 _ZN8casacore17Allocator_private17BulkAllocatorImplINS_17new_del_allocatorISt7complexIdEEEE7destroyEPS4_m@Base 3.2.1~
 _ZN8casacore17Allocator_private17BulkAllocatorImplINS_17new_del_allocatorISt7complexIdEEEE8allocateEmPKv@Base 3.2.1~
 _ZN8casacore17Allocator_private17BulkAllocatorImplINS_17new_del_allocatorISt7complexIdEEEE9allocatorE@Base 3.2.1~
 _ZN8casacore17Allocator_private17BulkAllocatorImplINS_17new_del_allocatorISt7complexIdEEEE9constructEPS4_m@Base 3.2.1~
 _ZN8casacore17Allocator_private17BulkAllocatorImplINS_17new_del_allocatorISt7complexIdEEEE9constructEPS4_mPKS4_@Base 3.2.1~
 _ZN8casacore17Allocator_private17BulkAllocatorImplINS_17new_del_allocatorISt7complexIdEEEE9constructEPS4_mRKS4_@Base 3.2.1~
 _ZN8casacore17Allocator_private17BulkAllocatorImplINS_17new_del_allocatorISt7complexIdEEEED0Ev@Base 3.2.1~
 _ZN8casacore17Allocator_private17BulkAllocatorImplINS_17new_del_allocatorISt7complexIdEEEED1Ev@Base 3.2.1~
 _ZN8casacore17Allocator_private17BulkAllocatorImplINS_17new_del_allocatorISt7complexIdEEEED2Ev@Base 3.2.1~
 _ZN8casacore17Allocator_private17BulkAllocatorImplINS_17new_del_allocatorISt7complexIfEEEE10deallocateEPS4_m@Base 3.2.1~
 _ZN8casacore17Allocator_private17BulkAllocatorImplINS_17new_del_allocatorISt7complexIfEEEE7destroyEPS4_m@Base 3.2.1~
 _ZN8casacore17Allocator_private17BulkAllocatorImplINS_17new_del_allocatorISt7complexIfEEEE8allocateEmPKv@Base 3.2.1~
 _ZN8casacore17Allocator_private17BulkAllocatorImplINS_17new_del_allocatorISt7complexIfEEEE9allocatorE@Base 3.2.1~
 _ZN8casacore17Allocator_private17BulkAllocatorImplINS_17new_del_allocatorISt7complexIfEEEE9constructEPS4_m@Base 3.2.1~
 _ZN8casacore17Allocator_private17BulkAllocatorImplINS_17new_del_allocatorISt7complexIfEEEE9constructEPS4_mPKS4_@Base 3.2.1~
 _ZN8casacore17Allocator_private17BulkAllocatorImplINS_17new_del_allocatorISt7complexIfEEEE9constructEPS4_mRKS4_@Base 3.2.1~
 _ZN8casacore17Allocator_private17BulkAllocatorImplINS_17new_del_allocatorISt7complexIfEEEED0Ev@Base 3.2.1~
 _ZN8casacore17Allocator_private17BulkAllocatorImplINS_17new_del_allocatorISt7complexIfEEEED1Ev@Base 3.2.1~
 _ZN8casacore17Allocator_private17BulkAllocatorImplINS_17new_del_allocatorISt7complexIfEEEED2Ev@Base 3.2.1~
 _ZN8casacore17Allocator_private17BulkAllocatorImplINS_17new_del_allocatorIbEEE10deallocateEPbm@Base 3.2.1~
 _ZN8casacore17Allocator_private17BulkAllocatorImplINS_17new_del_allocatorIbEEE7destroyEPbm@Base 3.2.1~
 _ZN8casacore17Allocator_private17BulkAllocatorImplINS_17new_del_allocatorIbEEE8allocateEmPKv@Base 3.2.1~
 _ZN8casacore17Allocator_private17BulkAllocatorImplINS_17new_del_allocatorIbEEE9allocatorE@Base 3.2.1~
 _ZN8casacore17Allocator_private17BulkAllocatorImplINS_17new_del_allocatorIbEEE9constructEPbm@Base 3.2.1~
 _ZN8casacore17Allocator_private17BulkAllocatorImplINS_17new_del_allocatorIbEEE9constructEPbmPKb@Base 3.2.1~
 _ZN8casacore17Allocator_private17BulkAllocatorImplINS_17new_del_allocatorIbEEE9constructEPbmRKb@Base 3.2.1~
 _ZN8casacore17Allocator_private17BulkAllocatorImplINS_17new_del_allocatorIbEEED0Ev@Base 3.2.1~
 _ZN8casacore17Allocator_private17BulkAllocatorImplINS_17new_del_allocatorIbEEED1Ev@Base 3.2.1~
 _ZN8casacore17Allocator_private17BulkAllocatorImplINS_17new_del_allocatorIbEEED2Ev@Base 3.2.1~
 _ZN8casacore17Allocator_private17BulkAllocatorImplINS_17new_del_allocatorIcEEE10deallocateEPcm@Base 3.2.1~
 _ZN8casacore17Allocator_private17BulkAllocatorImplINS_17new_del_allocatorIcEEE7destroyEPcm@Base 3.2.1~
 _ZN8casacore17Allocator_private17BulkAllocatorImplINS_17new_del_allocatorIcEEE8allocateEmPKv@Base 3.2.1~
 _ZN8casacore17Allocator_private17BulkAllocatorImplINS_17new_del_allocatorIcEEE9allocatorE@Base 3.2.1~
 _ZN8casacore17Allocator_private17BulkAllocatorImplINS_17new_del_allocatorIcEEE9constructEPcm@Base 3.2.1~
 _ZN8casacore17Allocator_private17BulkAllocatorImplINS_17new_del_allocatorIcEEE9constructEPcmPKc@Base 3.2.1~
 _ZN8casacore17Allocator_private17BulkAllocatorImplINS_17new_del_allocatorIcEEE9constructEPcmRKc@Base 3.2.1~
 _ZN8casacore17Allocator_private17BulkAllocatorImplINS_17new_del_allocatorIcEEED0Ev@Base 3.2.1~
 _ZN8casacore17Allocator_private17BulkAllocatorImplINS_17new_del_allocatorIcEEED1Ev@Base 3.2.1~
 _ZN8casacore17Allocator_private17BulkAllocatorImplINS_17new_del_allocatorIcEEED2Ev@Base 3.2.1~
 _ZN8casacore17Allocator_private17BulkAllocatorImplINS_17new_del_allocatorIdEEE10deallocateEPdm@Base 3.2.1~
 _ZN8casacore17Allocator_private17BulkAllocatorImplINS_17new_del_allocatorIdEEE7destroyEPdm@Base 3.2.1~
 _ZN8casacore17Allocator_private17BulkAllocatorImplINS_17new_del_allocatorIdEEE8allocateEmPKv@Base 3.2.1~
 _ZN8casacore17Allocator_private17BulkAllocatorImplINS_17new_del_allocatorIdEEE9allocatorE@Base 3.2.1~
 _ZN8casacore17Allocator_private17BulkAllocatorImplINS_17new_del_allocatorIdEEE9constructEPdm@Base 3.2.1~
 _ZN8casacore17Allocator_private17BulkAllocatorImplINS_17new_del_allocatorIdEEE9constructEPdmPKd@Base 3.2.1~
 _ZN8casacore17Allocator_private17BulkAllocatorImplINS_17new_del_allocatorIdEEE9constructEPdmRKd@Base 3.2.1~
 _ZN8casacore17Allocator_private17BulkAllocatorImplINS_17new_del_allocatorIdEEED0Ev@Base 3.2.1~
 _ZN8casacore17Allocator_private17BulkAllocatorImplINS_17new_del_allocatorIdEEED1Ev@Base 3.2.1~
 _ZN8casacore17Allocator_private17BulkAllocatorImplINS_17new_del_allocatorIdEEED2Ev@Base 3.2.1~
 _ZN8casacore17Allocator_private17BulkAllocatorImplINS_17new_del_allocatorIfEEE10deallocateEPfm@Base 3.2.1~
 _ZN8casacore17Allocator_private17BulkAllocatorImplINS_17new_del_allocatorIfEEE7destroyEPfm@Base 3.2.1~
 _ZN8casacore17Allocator_private17BulkAllocatorImplINS_17new_del_allocatorIfEEE8allocateEmPKv@Base 3.2.1~
 _ZN8casacore17Allocator_private17BulkAllocatorImplINS_17new_del_allocatorIfEEE9allocatorE@Base 3.2.1~
 _ZN8casacore17Allocator_private17BulkAllocatorImplINS_17new_del_allocatorIfEEE9constructEPfm@Base 3.2.1~
 _ZN8casacore17Allocator_private17BulkAllocatorImplINS_17new_del_allocatorIfEEE9constructEPfmPKf@Base 3.2.1~
 _ZN8casacore17Allocator_private17BulkAllocatorImplINS_17new_del_allocatorIfEEE9constructEPfmRKf@Base 3.2.1~
 _ZN8casacore17Allocator_private17BulkAllocatorImplINS_17new_del_allocatorIfEEED0Ev@Base 3.2.1~
 _ZN8casacore17Allocator_private17BulkAllocatorImplINS_17new_del_allocatorIfEEED1Ev@Base 3.2.1~
 _ZN8casacore17Allocator_private17BulkAllocatorImplINS_17new_del_allocatorIfEEED2Ev@Base 3.2.1~
 _ZN8casacore17Allocator_private17BulkAllocatorImplINS_17new_del_allocatorIhEEE10deallocateEPhm@Base 3.2.1~
 _ZN8casacore17Allocator_private17BulkAllocatorImplINS_17new_del_allocatorIhEEE7destroyEPhm@Base 3.2.1~
 _ZN8casacore17Allocator_private17BulkAllocatorImplINS_17new_del_allocatorIhEEE8allocateEmPKv@Base 3.2.1~
 _ZN8casacore17Allocator_private17BulkAllocatorImplINS_17new_del_allocatorIhEEE9allocatorE@Base 3.2.1~
 _ZN8casacore17Allocator_private17BulkAllocatorImplINS_17new_del_allocatorIhEEE9constructEPhm@Base 3.2.1~
 _ZN8casacore17Allocator_private17BulkAllocatorImplINS_17new_del_allocatorIhEEE9constructEPhmPKh@Base 3.2.1~
 _ZN8casacore17Allocator_private17BulkAllocatorImplINS_17new_del_allocatorIhEEE9constructEPhmRKh@Base 3.2.1~
 _ZN8casacore17Allocator_private17BulkAllocatorImplINS_17new_del_allocatorIhEEED0Ev@Base 3.2.1~
 _ZN8casacore17Allocator_private17BulkAllocatorImplINS_17new_del_allocatorIhEEED1Ev@Base 3.2.1~
 _ZN8casacore17Allocator_private17BulkAllocatorImplINS_17new_del_allocatorIhEEED2Ev@Base 3.2.1~
 _ZN8casacore17Allocator_private17BulkAllocatorImplINS_17new_del_allocatorIiEEE10deallocateEPim@Base 3.2.1~
 _ZN8casacore17Allocator_private17BulkAllocatorImplINS_17new_del_allocatorIiEEE7destroyEPim@Base 3.2.1~
 _ZN8casacore17Allocator_private17BulkAllocatorImplINS_17new_del_allocatorIiEEE8allocateEmPKv@Base 3.2.1~
 _ZN8casacore17Allocator_private17BulkAllocatorImplINS_17new_del_allocatorIiEEE9allocatorE@Base 3.2.1~
 _ZN8casacore17Allocator_private17BulkAllocatorImplINS_17new_del_allocatorIiEEE9constructEPim@Base 3.2.1~
 _ZN8casacore17Allocator_private17BulkAllocatorImplINS_17new_del_allocatorIiEEE9constructEPimPKi@Base 3.2.1~
 _ZN8casacore17Allocator_private17BulkAllocatorImplINS_17new_del_allocatorIiEEE9constructEPimRKi@Base 3.2.1~
 _ZN8casacore17Allocator_private17BulkAllocatorImplINS_17new_del_allocatorIiEEED0Ev@Base 3.2.1~
 _ZN8casacore17Allocator_private17BulkAllocatorImplINS_17new_del_allocatorIiEEED1Ev@Base 3.2.1~
 _ZN8casacore17Allocator_private17BulkAllocatorImplINS_17new_del_allocatorIiEEED2Ev@Base 3.2.1~
 _ZN8casacore17Allocator_private17BulkAllocatorImplINS_17new_del_allocatorIjEEE10deallocateEPjm@Base 3.2.1~
 _ZN8casacore17Allocator_private17BulkAllocatorImplINS_17new_del_allocatorIjEEE7destroyEPjm@Base 3.2.1~
 _ZN8casacore17Allocator_private17BulkAllocatorImplINS_17new_del_allocatorIjEEE8allocateEmPKv@Base 3.2.1~
 _ZN8casacore17Allocator_private17BulkAllocatorImplINS_17new_del_allocatorIjEEE9allocatorE@Base 3.2.1~
 _ZN8casacore17Allocator_private17BulkAllocatorImplINS_17new_del_allocatorIjEEE9constructEPjm@Base 3.2.1~
 _ZN8casacore17Allocator_private17BulkAllocatorImplINS_17new_del_allocatorIjEEE9constructEPjmPKj@Base 3.2.1~
 _ZN8casacore17Allocator_private17BulkAllocatorImplINS_17new_del_allocatorIjEEE9constructEPjmRKj@Base 3.2.1~
 _ZN8casacore17Allocator_private17BulkAllocatorImplINS_17new_del_allocatorIjEEED0Ev@Base 3.2.1~
 _ZN8casacore17Allocator_private17BulkAllocatorImplINS_17new_del_allocatorIjEEED1Ev@Base 3.2.1~
 _ZN8casacore17Allocator_private17BulkAllocatorImplINS_17new_del_allocatorIjEEED2Ev@Base 3.2.1~
 _ZN8casacore17Allocator_private17BulkAllocatorImplINS_17new_del_allocatorIsEEE10deallocateEPsm@Base 3.2.1~
 _ZN8casacore17Allocator_private17BulkAllocatorImplINS_17new_del_allocatorIsEEE7destroyEPsm@Base 3.2.1~
 _ZN8casacore17Allocator_private17BulkAllocatorImplINS_17new_del_allocatorIsEEE8allocateEmPKv@Base 3.2.1~
 _ZN8casacore17Allocator_private17BulkAllocatorImplINS_17new_del_allocatorIsEEE9allocatorE@Base 3.2.1~
 _ZN8casacore17Allocator_private17BulkAllocatorImplINS_17new_del_allocatorIsEEE9constructEPsm@Base 3.2.1~
 _ZN8casacore17Allocator_private17BulkAllocatorImplINS_17new_del_allocatorIsEEE9constructEPsmPKs@Base 3.2.1~
 _ZN8casacore17Allocator_private17BulkAllocatorImplINS_17new_del_allocatorIsEEE9constructEPsmRKs@Base 3.2.1~
 _ZN8casacore17Allocator_private17BulkAllocatorImplINS_17new_del_allocatorIsEEED0Ev@Base 3.2.1~
 _ZN8casacore17Allocator_private17BulkAllocatorImplINS_17new_del_allocatorIsEEED1Ev@Base 3.2.1~
 _ZN8casacore17Allocator_private17BulkAllocatorImplINS_17new_del_allocatorIsEEED2Ev@Base 3.2.1~
 _ZN8casacore17Allocator_private17BulkAllocatorImplINS_17new_del_allocatorItEEE10deallocateEPtm@Base 3.2.1~
 _ZN8casacore17Allocator_private17BulkAllocatorImplINS_17new_del_allocatorItEEE7destroyEPtm@Base 3.2.1~
 _ZN8casacore17Allocator_private17BulkAllocatorImplINS_17new_del_allocatorItEEE8allocateEmPKv@Base 3.2.1~
 _ZN8casacore17Allocator_private17BulkAllocatorImplINS_17new_del_allocatorItEEE9allocatorE@Base 3.2.1~
 _ZN8casacore17Allocator_private17BulkAllocatorImplINS_17new_del_allocatorItEEE9constructEPtm@Base 3.2.1~
 _ZN8casacore17Allocator_private17BulkAllocatorImplINS_17new_del_allocatorItEEE9constructEPtmPKt@Base 3.2.1~
 _ZN8casacore17Allocator_private17BulkAllocatorImplINS_17new_del_allocatorItEEE9constructEPtmRKt@Base 3.2.1~
 _ZN8casacore17Allocator_private17BulkAllocatorImplINS_17new_del_allocatorItEEED0Ev@Base 3.2.1~
 _ZN8casacore17Allocator_private17BulkAllocatorImplINS_17new_del_allocatorItEEED1Ev@Base 3.2.1~
 _ZN8casacore17Allocator_private17BulkAllocatorImplINS_17new_del_allocatorItEEED2Ev@Base 3.2.1~
 _ZN8casacore17Allocator_private17BulkAllocatorImplINS_17new_del_allocatorIxEEE10deallocateEPxm@Base 3.2.1~
 _ZN8casacore17Allocator_private17BulkAllocatorImplINS_17new_del_allocatorIxEEE7destroyEPxm@Base 3.2.1~
 _ZN8casacore17Allocator_private17BulkAllocatorImplINS_17new_del_allocatorIxEEE8allocateEmPKv@Base 3.2.1~
 _ZN8casacore17Allocator_private17BulkAllocatorImplINS_17new_del_allocatorIxEEE9allocatorE@Base 3.2.1~
 _ZN8casacore17Allocator_private17BulkAllocatorImplINS_17new_del_allocatorIxEEE9constructEPxm@Base 3.2.1~
 _ZN8casacore17Allocator_private17BulkAllocatorImplINS_17new_del_allocatorIxEEE9constructEPxmPKx@Base 3.2.1~
 _ZN8casacore17Allocator_private17BulkAllocatorImplINS_17new_del_allocatorIxEEE9constructEPxmRKx@Base 3.2.1~
 _ZN8casacore17Allocator_private17BulkAllocatorImplINS_17new_del_allocatorIxEEED0Ev@Base 3.2.1~
 _ZN8casacore17Allocator_private17BulkAllocatorImplINS_17new_del_allocatorIxEEED1Ev@Base 3.2.1~
 _ZN8casacore17Allocator_private17BulkAllocatorImplINS_17new_del_allocatorIxEEED2Ev@Base 3.2.1~
 _ZN8casacore17Allocator_private17BulkAllocatorImplINS_18casacore_allocatorINS_5SliceELm32EEEE10deallocateEPS3_m@Base 3.2.1~
 _ZN8casacore17Allocator_private17BulkAllocatorImplINS_18casacore_allocatorINS_5SliceELm32EEEE7destroyEPS3_m@Base 3.2.1~
 _ZN8casacore17Allocator_private17BulkAllocatorImplINS_18casacore_allocatorINS_5SliceELm32EEEE8allocateEmPKv@Base 3.2.1~
 _ZN8casacore17Allocator_private17BulkAllocatorImplINS_18casacore_allocatorINS_5SliceELm32EEEE9allocatorE@Base 3.2.1~
 _ZN8casacore17Allocator_private17BulkAllocatorImplINS_18casacore_allocatorINS_5SliceELm32EEEE9constructEPS3_m@Base 3.2.1~
 _ZN8casacore17Allocator_private17BulkAllocatorImplINS_18casacore_allocatorINS_5SliceELm32EEEE9constructEPS3_mPKS3_@Base 3.2.1~
 _ZN8casacore17Allocator_private17BulkAllocatorImplINS_18casacore_allocatorINS_5SliceELm32EEEE9constructEPS3_mRKS3_@Base 3.2.1~
 _ZN8casacore17Allocator_private17BulkAllocatorImplINS_18casacore_allocatorINS_5SliceELm32EEEED0Ev@Base 3.2.1~
 _ZN8casacore17Allocator_private17BulkAllocatorImplINS_18casacore_allocatorINS_5SliceELm32EEEED1Ev@Base 3.2.1~
 _ZN8casacore17Allocator_private17BulkAllocatorImplINS_18casacore_allocatorINS_5SliceELm32EEEED2Ev@Base 3.2.1~
 _ZN8casacore17Allocator_private17BulkAllocatorImplINS_18casacore_allocatorINS_6StringELm32EEEE10deallocateEPS3_m@Base 3.2.1~
 _ZN8casacore17Allocator_private17BulkAllocatorImplINS_18casacore_allocatorINS_6StringELm32EEEE7destroyEPS3_m@Base 3.2.1~
 _ZN8casacore17Allocator_private17BulkAllocatorImplINS_18casacore_allocatorINS_6StringELm32EEEE8allocateEmPKv@Base 3.2.1~
 _ZN8casacore17Allocator_private17BulkAllocatorImplINS_18casacore_allocatorINS_6StringELm32EEEE9allocatorE@Base 3.2.1~
 _ZN8casacore17Allocator_private17BulkAllocatorImplINS_18casacore_allocatorINS_6StringELm32EEEE9constructEPS3_m@Base 3.2.1~
 _ZN8casacore17Allocator_private17BulkAllocatorImplINS_18casacore_allocatorINS_6StringELm32EEEE9constructEPS3_mPKS3_@Base 3.2.1~
 _ZN8casacore17Allocator_private17BulkAllocatorImplINS_18casacore_allocatorINS_6StringELm32EEEE9constructEPS3_mRKS3_@Base 3.2.1~
 _ZN8casacore17Allocator_private17BulkAllocatorImplINS_18casacore_allocatorINS_6StringELm32EEEED0Ev@Base 3.2.1~
 _ZN8casacore17Allocator_private17BulkAllocatorImplINS_18casacore_allocatorINS_6StringELm32EEEED1Ev@Base 3.2.1~
 _ZN8casacore17Allocator_private17BulkAllocatorImplINS_18casacore_allocatorINS_6StringELm32EEEED2Ev@Base 3.2.1~
 _ZN8casacore17Allocator_private17BulkAllocatorImplINS_18casacore_allocatorINS_6VectorINS_5SliceEEELm32EEEE10deallocateEPS5_m@Base 3.2.1~
 _ZN8casacore17Allocator_private17BulkAllocatorImplINS_18casacore_allocatorINS_6VectorINS_5SliceEEELm32EEEE7destroyEPS5_m@Base 3.2.1~
 _ZN8casacore17Allocator_private17BulkAllocatorImplINS_18casacore_allocatorINS_6VectorINS_5SliceEEELm32EEEE8allocateEmPKv@Base 3.2.1~
 _ZN8casacore17Allocator_private17BulkAllocatorImplINS_18casacore_allocatorINS_6VectorINS_5SliceEEELm32EEEE9allocatorE@Base 3.2.1~
 _ZN8casacore17Allocator_private17BulkAllocatorImplINS_18casacore_allocatorINS_6VectorINS_5SliceEEELm32EEEE9constructEPS5_m@Base 3.2.1~
 _ZN8casacore17Allocator_private17BulkAllocatorImplINS_18casacore_allocatorINS_6VectorINS_5SliceEEELm32EEEE9constructEPS5_mPKS5_@Base 3.2.1~
 _ZN8casacore17Allocator_private17BulkAllocatorImplINS_18casacore_allocatorINS_6VectorINS_5SliceEEELm32EEEE9constructEPS5_mRKS5_@Base 3.2.1~
 _ZN8casacore17Allocator_private17BulkAllocatorImplINS_18casacore_allocatorINS_6VectorINS_5SliceEEELm32EEEED0Ev@Base 3.2.1~
 _ZN8casacore17Allocator_private17BulkAllocatorImplINS_18casacore_allocatorINS_6VectorINS_5SliceEEELm32EEEED1Ev@Base 3.2.1~
 _ZN8casacore17Allocator_private17BulkAllocatorImplINS_18casacore_allocatorINS_6VectorINS_5SliceEEELm32EEEED2Ev@Base 3.2.1~
 _ZN8casacore17Allocator_private17BulkAllocatorImplINS_18casacore_allocatorINS_6VectorINS_6StringEEELm32EEEE10deallocateEPS5_m@Base 3.2.1~
 _ZN8casacore17Allocator_private17BulkAllocatorImplINS_18casacore_allocatorINS_6VectorINS_6StringEEELm32EEEE7destroyEPS5_m@Base 3.2.1~
 _ZN8casacore17Allocator_private17BulkAllocatorImplINS_18casacore_allocatorINS_6VectorINS_6StringEEELm32EEEE8allocateEmPKv@Base 3.2.1~
 _ZN8casacore17Allocator_private17BulkAllocatorImplINS_18casacore_allocatorINS_6VectorINS_6StringEEELm32EEEE9allocatorE@Base 3.2.1~
 _ZN8casacore17Allocator_private17BulkAllocatorImplINS_18casacore_allocatorINS_6VectorINS_6StringEEELm32EEEE9constructEPS5_m@Base 3.2.1~
 _ZN8casacore17Allocator_private17BulkAllocatorImplINS_18casacore_allocatorINS_6VectorINS_6StringEEELm32EEEE9constructEPS5_mPKS5_@Base 3.2.1~
 _ZN8casacore17Allocator_private17BulkAllocatorImplINS_18casacore_allocatorINS_6VectorINS_6StringEEELm32EEEE9constructEPS5_mRKS5_@Base 3.2.1~
 _ZN8casacore17Allocator_private17BulkAllocatorImplINS_18casacore_allocatorINS_6VectorINS_6StringEEELm32EEEED0Ev@Base 3.2.1~
 _ZN8casacore17Allocator_private17BulkAllocatorImplINS_18casacore_allocatorINS_6VectorINS_6StringEEELm32EEEED1Ev@Base 3.2.1~
 _ZN8casacore17Allocator_private17BulkAllocatorImplINS_18casacore_allocatorINS_6VectorINS_6StringEEELm32EEEED2Ev@Base 3.2.1~
 _ZN8casacore17Allocator_private17BulkAllocatorImplINS_18casacore_allocatorINS_6VectorIbEELm32EEEE10deallocateEPS4_m@Base 3.2.1~
 _ZN8casacore17Allocator_private17BulkAllocatorImplINS_18casacore_allocatorINS_6VectorIbEELm32EEEE7destroyEPS4_m@Base 3.2.1~
 _ZN8casacore17Allocator_private17BulkAllocatorImplINS_18casacore_allocatorINS_6VectorIbEELm32EEEE8allocateEmPKv@Base 3.2.1~
 _ZN8casacore17Allocator_private17BulkAllocatorImplINS_18casacore_allocatorINS_6VectorIbEELm32EEEE9allocatorE@Base 3.2.1~
 _ZN8casacore17Allocator_private17BulkAllocatorImplINS_18casacore_allocatorINS_6VectorIbEELm32EEEE9constructEPS4_m@Base 3.2.1~
 _ZN8casacore17Allocator_private17BulkAllocatorImplINS_18casacore_allocatorINS_6VectorIbEELm32EEEE9constructEPS4_mPKS4_@Base 3.2.1~
 _ZN8casacore17Allocator_private17BulkAllocatorImplINS_18casacore_allocatorINS_6VectorIbEELm32EEEE9constructEPS4_mRKS4_@Base 3.2.1~
 _ZN8casacore17Allocator_private17BulkAllocatorImplINS_18casacore_allocatorINS_6VectorIbEELm32EEEED0Ev@Base 3.2.1~
 _ZN8casacore17Allocator_private17BulkAllocatorImplINS_18casacore_allocatorINS_6VectorIbEELm32EEEED1Ev@Base 3.2.1~
 _ZN8casacore17Allocator_private17BulkAllocatorImplINS_18casacore_allocatorINS_6VectorIbEELm32EEEED2Ev@Base 3.2.1~
 _ZN8casacore17Allocator_private17BulkAllocatorImplINS_18casacore_allocatorINS_7QuantumIdEELm32EEEE10deallocateEPS4_m@Base 3.2.1~
 _ZN8casacore17Allocator_private17BulkAllocatorImplINS_18casacore_allocatorINS_7QuantumIdEELm32EEEE7destroyEPS4_m@Base 3.2.1~
 _ZN8casacore17Allocator_private17BulkAllocatorImplINS_18casacore_allocatorINS_7QuantumIdEELm32EEEE8allocateEmPKv@Base 3.2.1~
 _ZN8casacore17Allocator_private17BulkAllocatorImplINS_18casacore_allocatorINS_7QuantumIdEELm32EEEE9allocatorE@Base 3.2.1~
 _ZN8casacore17Allocator_private17BulkAllocatorImplINS_18casacore_allocatorINS_7QuantumIdEELm32EEEE9constructEPS4_m@Base 3.2.1~
 _ZN8casacore17Allocator_private17BulkAllocatorImplINS_18casacore_allocatorINS_7QuantumIdEELm32EEEE9constructEPS4_mPKS4_@Base 3.2.1~
 _ZN8casacore17Allocator_private17BulkAllocatorImplINS_18casacore_allocatorINS_7QuantumIdEELm32EEEE9constructEPS4_mRKS4_@Base 3.2.1~
 _ZN8casacore17Allocator_private17BulkAllocatorImplINS_18casacore_allocatorINS_7QuantumIdEELm32EEEED0Ev@Base 3.2.1~
 _ZN8casacore17Allocator_private17BulkAllocatorImplINS_18casacore_allocatorINS_7QuantumIdEELm32EEEED1Ev@Base 3.2.1~
 _ZN8casacore17Allocator_private17BulkAllocatorImplINS_18casacore_allocatorINS_7QuantumIdEELm32EEEED2Ev@Base 3.2.1~
 _ZN8casacore17Allocator_private17BulkAllocatorImplINS_18casacore_allocatorINS_9IPositionELm32EEEE10deallocateEPS3_m@Base 3.2.1~
 _ZN8casacore17Allocator_private17BulkAllocatorImplINS_18casacore_allocatorINS_9IPositionELm32EEEE7destroyEPS3_m@Base 3.2.1~
 _ZN8casacore17Allocator_private17BulkAllocatorImplINS_18casacore_allocatorINS_9IPositionELm32EEEE8allocateEmPKv@Base 3.2.1~
 _ZN8casacore17Allocator_private17BulkAllocatorImplINS_18casacore_allocatorINS_9IPositionELm32EEEE9allocatorE@Base 3.2.1~
 _ZN8casacore17Allocator_private17BulkAllocatorImplINS_18casacore_allocatorINS_9IPositionELm32EEEE9constructEPS3_m@Base 3.2.1~
 _ZN8casacore17Allocator_private17BulkAllocatorImplINS_18casacore_allocatorINS_9IPositionELm32EEEE9constructEPS3_mPKS3_@Base 3.2.1~
 _ZN8casacore17Allocator_private17BulkAllocatorImplINS_18casacore_allocatorINS_9IPositionELm32EEEE9constructEPS3_mRKS3_@Base 3.2.1~
 _ZN8casacore17Allocator_private17BulkAllocatorImplINS_18casacore_allocatorINS_9IPositionELm32EEEED0Ev@Base 3.2.1~
 _ZN8casacore17Allocator_private17BulkAllocatorImplINS_18casacore_allocatorINS_9IPositionELm32EEEED1Ev@Base 3.2.1~
 _ZN8casacore17Allocator_private17BulkAllocatorImplINS_18casacore_allocatorINS_9IPositionELm32EEEED2Ev@Base 3.2.1~
 _ZN8casacore17Allocator_private17BulkAllocatorImplINS_18casacore_allocatorIPvLm32EEEE10deallocateEPS3_m@Base 3.2.1~
 _ZN8casacore17Allocator_private17BulkAllocatorImplINS_18casacore_allocatorIPvLm32EEEE7destroyEPS3_m@Base 3.2.1~
 _ZN8casacore17Allocator_private17BulkAllocatorImplINS_18casacore_allocatorIPvLm32EEEE8allocateEmPKv@Base 3.2.1~
 _ZN8casacore17Allocator_private17BulkAllocatorImplINS_18casacore_allocatorIPvLm32EEEE9allocatorE@Base 3.2.1~
 _ZN8casacore17Allocator_private17BulkAllocatorImplINS_18casacore_allocatorIPvLm32EEEE9constructEPS3_m@Base 3.2.1~
 _ZN8casacore17Allocator_private17BulkAllocatorImplINS_18casacore_allocatorIPvLm32EEEE9constructEPS3_mPKS3_@Base 3.2.1~
 _ZN8casacore17Allocator_private17BulkAllocatorImplINS_18casacore_allocatorIPvLm32EEEE9constructEPS3_mRKS3_@Base 3.2.1~
 _ZN8casacore17Allocator_private17BulkAllocatorImplINS_18casacore_allocatorIPvLm32EEEED0Ev@Base 3.2.1~
 _ZN8casacore17Allocator_private17BulkAllocatorImplINS_18casacore_allocatorIPvLm32EEEED1Ev@Base 3.2.1~
 _ZN8casacore17Allocator_private17BulkAllocatorImplINS_18casacore_allocatorIPvLm32EEEED2Ev@Base 3.2.1~
 _ZN8casacore17Allocator_private17BulkAllocatorImplINS_18casacore_allocatorISt7complexIdELm32EEEE10deallocateEPS4_m@Base 3.2.1~
 _ZN8casacore17Allocator_private17BulkAllocatorImplINS_18casacore_allocatorISt7complexIdELm32EEEE7destroyEPS4_m@Base 3.2.1~
 _ZN8casacore17Allocator_private17BulkAllocatorImplINS_18casacore_allocatorISt7complexIdELm32EEEE8allocateEmPKv@Base 3.2.1~
 _ZN8casacore17Allocator_private17BulkAllocatorImplINS_18casacore_allocatorISt7complexIdELm32EEEE9allocatorE@Base 3.2.1~
 _ZN8casacore17Allocator_private17BulkAllocatorImplINS_18casacore_allocatorISt7complexIdELm32EEEE9constructEPS4_m@Base 3.2.1~
 _ZN8casacore17Allocator_private17BulkAllocatorImplINS_18casacore_allocatorISt7complexIdELm32EEEE9constructEPS4_mPKS4_@Base 3.2.1~
 _ZN8casacore17Allocator_private17BulkAllocatorImplINS_18casacore_allocatorISt7complexIdELm32EEEE9constructEPS4_mRKS4_@Base 3.2.1~
 _ZN8casacore17Allocator_private17BulkAllocatorImplINS_18casacore_allocatorISt7complexIdELm32EEEED0Ev@Base 3.2.1~
 _ZN8casacore17Allocator_private17BulkAllocatorImplINS_18casacore_allocatorISt7complexIdELm32EEEED1Ev@Base 3.2.1~
 _ZN8casacore17Allocator_private17BulkAllocatorImplINS_18casacore_allocatorISt7complexIdELm32EEEED2Ev@Base 3.2.1~
 _ZN8casacore17Allocator_private17BulkAllocatorImplINS_18casacore_allocatorISt7complexIfELm32EEEE10deallocateEPS4_m@Base 3.2.1~
 _ZN8casacore17Allocator_private17BulkAllocatorImplINS_18casacore_allocatorISt7complexIfELm32EEEE7destroyEPS4_m@Base 3.2.1~
 _ZN8casacore17Allocator_private17BulkAllocatorImplINS_18casacore_allocatorISt7complexIfELm32EEEE8allocateEmPKv@Base 3.2.1~
 _ZN8casacore17Allocator_private17BulkAllocatorImplINS_18casacore_allocatorISt7complexIfELm32EEEE9allocatorE@Base 3.2.1~
 _ZN8casacore17Allocator_private17BulkAllocatorImplINS_18casacore_allocatorISt7complexIfELm32EEEE9constructEPS4_m@Base 3.2.1~
 _ZN8casacore17Allocator_private17BulkAllocatorImplINS_18casacore_allocatorISt7complexIfELm32EEEE9constructEPS4_mPKS4_@Base 3.2.1~
 _ZN8casacore17Allocator_private17BulkAllocatorImplINS_18casacore_allocatorISt7complexIfELm32EEEE9constructEPS4_mRKS4_@Base 3.2.1~
 _ZN8casacore17Allocator_private17BulkAllocatorImplINS_18casacore_allocatorISt7complexIfELm32EEEED0Ev@Base 3.2.1~
 _ZN8casacore17Allocator_private17BulkAllocatorImplINS_18casacore_allocatorISt7complexIfELm32EEEED1Ev@Base 3.2.1~
 _ZN8casacore17Allocator_private17BulkAllocatorImplINS_18casacore_allocatorISt7complexIfELm32EEEED2Ev@Base 3.2.1~
 _ZN8casacore17Allocator_private17BulkAllocatorImplINS_18casacore_allocatorIbLm32EEEE10deallocateEPbm@Base 3.2.1~
 _ZN8casacore17Allocator_private17BulkAllocatorImplINS_18casacore_allocatorIbLm32EEEE7destroyEPbm@Base 3.2.1~
 _ZN8casacore17Allocator_private17BulkAllocatorImplINS_18casacore_allocatorIbLm32EEEE8allocateEmPKv@Base 3.2.1~
 _ZN8casacore17Allocator_private17BulkAllocatorImplINS_18casacore_allocatorIbLm32EEEE9allocatorE@Base 3.2.1~
 _ZN8casacore17Allocator_private17BulkAllocatorImplINS_18casacore_allocatorIbLm32EEEE9constructEPbm@Base 3.2.1~
 _ZN8casacore17Allocator_private17BulkAllocatorImplINS_18casacore_allocatorIbLm32EEEE9constructEPbmPKb@Base 3.2.1~
 _ZN8casacore17Allocator_private17BulkAllocatorImplINS_18casacore_allocatorIbLm32EEEE9constructEPbmRKb@Base 3.2.1~
 _ZN8casacore17Allocator_private17BulkAllocatorImplINS_18casacore_allocatorIbLm32EEEED0Ev@Base 3.2.1~
 _ZN8casacore17Allocator_private17BulkAllocatorImplINS_18casacore_allocatorIbLm32EEEED1Ev@Base 3.2.1~
 _ZN8casacore17Allocator_private17BulkAllocatorImplINS_18casacore_allocatorIbLm32EEEED2Ev@Base 3.2.1~
 _ZN8casacore17Allocator_private17BulkAllocatorImplINS_18casacore_allocatorIcLm32EEEE10deallocateEPcm@Base 3.2.1~
 _ZN8casacore17Allocator_private17BulkAllocatorImplINS_18casacore_allocatorIcLm32EEEE7destroyEPcm@Base 3.2.1~
 _ZN8casacore17Allocator_private17BulkAllocatorImplINS_18casacore_allocatorIcLm32EEEE8allocateEmPKv@Base 3.2.1~
 _ZN8casacore17Allocator_private17BulkAllocatorImplINS_18casacore_allocatorIcLm32EEEE9allocatorE@Base 3.2.1~
 _ZN8casacore17Allocator_private17BulkAllocatorImplINS_18casacore_allocatorIcLm32EEEE9constructEPcm@Base 3.2.1~
 _ZN8casacore17Allocator_private17BulkAllocatorImplINS_18casacore_allocatorIcLm32EEEE9constructEPcmPKc@Base 3.2.1~
 _ZN8casacore17Allocator_private17BulkAllocatorImplINS_18casacore_allocatorIcLm32EEEE9constructEPcmRKc@Base 3.2.1~
 _ZN8casacore17Allocator_private17BulkAllocatorImplINS_18casacore_allocatorIcLm32EEEED0Ev@Base 3.2.1~
 _ZN8casacore17Allocator_private17BulkAllocatorImplINS_18casacore_allocatorIcLm32EEEED1Ev@Base 3.2.1~
 _ZN8casacore17Allocator_private17BulkAllocatorImplINS_18casacore_allocatorIcLm32EEEED2Ev@Base 3.2.1~
 _ZN8casacore17Allocator_private17BulkAllocatorImplINS_18casacore_allocatorIdLm32EEEE10deallocateEPdm@Base 3.2.1~
 _ZN8casacore17Allocator_private17BulkAllocatorImplINS_18casacore_allocatorIdLm32EEEE7destroyEPdm@Base 3.2.1~
 _ZN8casacore17Allocator_private17BulkAllocatorImplINS_18casacore_allocatorIdLm32EEEE8allocateEmPKv@Base 3.2.1~
 _ZN8casacore17Allocator_private17BulkAllocatorImplINS_18casacore_allocatorIdLm32EEEE9allocatorE@Base 3.2.1~
 _ZN8casacore17Allocator_private17BulkAllocatorImplINS_18casacore_allocatorIdLm32EEEE9constructEPdm@Base 3.2.1~
 _ZN8casacore17Allocator_private17BulkAllocatorImplINS_18casacore_allocatorIdLm32EEEE9constructEPdmPKd@Base 3.2.1~
 _ZN8casacore17Allocator_private17BulkAllocatorImplINS_18casacore_allocatorIdLm32EEEE9constructEPdmRKd@Base 3.2.1~
 _ZN8casacore17Allocator_private17BulkAllocatorImplINS_18casacore_allocatorIdLm32EEEED0Ev@Base 3.2.1~
 _ZN8casacore17Allocator_private17BulkAllocatorImplINS_18casacore_allocatorIdLm32EEEED1Ev@Base 3.2.1~
 _ZN8casacore17Allocator_private17BulkAllocatorImplINS_18casacore_allocatorIdLm32EEEED2Ev@Base 3.2.1~
 _ZN8casacore17Allocator_private17BulkAllocatorImplINS_18casacore_allocatorIfLm32EEEE10deallocateEPfm@Base 3.2.1~
 _ZN8casacore17Allocator_private17BulkAllocatorImplINS_18casacore_allocatorIfLm32EEEE7destroyEPfm@Base 3.2.1~
 _ZN8casacore17Allocator_private17BulkAllocatorImplINS_18casacore_allocatorIfLm32EEEE8allocateEmPKv@Base 3.2.1~
 _ZN8casacore17Allocator_private17BulkAllocatorImplINS_18casacore_allocatorIfLm32EEEE9allocatorE@Base 3.2.1~
 _ZN8casacore17Allocator_private17BulkAllocatorImplINS_18casacore_allocatorIfLm32EEEE9constructEPfm@Base 3.2.1~
 _ZN8casacore17Allocator_private17BulkAllocatorImplINS_18casacore_allocatorIfLm32EEEE9constructEPfmPKf@Base 3.2.1~
 _ZN8casacore17Allocator_private17BulkAllocatorImplINS_18casacore_allocatorIfLm32EEEE9constructEPfmRKf@Base 3.2.1~
 _ZN8casacore17Allocator_private17BulkAllocatorImplINS_18casacore_allocatorIfLm32EEEED0Ev@Base 3.2.1~
 _ZN8casacore17Allocator_private17BulkAllocatorImplINS_18casacore_allocatorIfLm32EEEED1Ev@Base 3.2.1~
 _ZN8casacore17Allocator_private17BulkAllocatorImplINS_18casacore_allocatorIfLm32EEEED2Ev@Base 3.2.1~
 _ZN8casacore17Allocator_private17BulkAllocatorImplINS_18casacore_allocatorIhLm32EEEE10deallocateEPhm@Base 3.2.1~
 _ZN8casacore17Allocator_private17BulkAllocatorImplINS_18casacore_allocatorIhLm32EEEE7destroyEPhm@Base 3.2.1~
 _ZN8casacore17Allocator_private17BulkAllocatorImplINS_18casacore_allocatorIhLm32EEEE8allocateEmPKv@Base 3.2.1~
 _ZN8casacore17Allocator_private17BulkAllocatorImplINS_18casacore_allocatorIhLm32EEEE9allocatorE@Base 3.2.1~
 _ZN8casacore17Allocator_private17BulkAllocatorImplINS_18casacore_allocatorIhLm32EEEE9constructEPhm@Base 3.2.1~
 _ZN8casacore17Allocator_private17BulkAllocatorImplINS_18casacore_allocatorIhLm32EEEE9constructEPhmPKh@Base 3.2.1~
 _ZN8casacore17Allocator_private17BulkAllocatorImplINS_18casacore_allocatorIhLm32EEEE9constructEPhmRKh@Base 3.2.1~
 _ZN8casacore17Allocator_private17BulkAllocatorImplINS_18casacore_allocatorIhLm32EEEED0Ev@Base 3.2.1~
 _ZN8casacore17Allocator_private17BulkAllocatorImplINS_18casacore_allocatorIhLm32EEEED1Ev@Base 3.2.1~
 _ZN8casacore17Allocator_private17BulkAllocatorImplINS_18casacore_allocatorIhLm32EEEED2Ev@Base 3.2.1~
 _ZN8casacore17Allocator_private17BulkAllocatorImplINS_18casacore_allocatorIiLm32EEEE10deallocateEPim@Base 3.2.1~
 _ZN8casacore17Allocator_private17BulkAllocatorImplINS_18casacore_allocatorIiLm32EEEE7destroyEPim@Base 3.2.1~
 _ZN8casacore17Allocator_private17BulkAllocatorImplINS_18casacore_allocatorIiLm32EEEE8allocateEmPKv@Base 3.2.1~
 _ZN8casacore17Allocator_private17BulkAllocatorImplINS_18casacore_allocatorIiLm32EEEE9allocatorE@Base 3.2.1~
 _ZN8casacore17Allocator_private17BulkAllocatorImplINS_18casacore_allocatorIiLm32EEEE9constructEPim@Base 3.2.1~
 _ZN8casacore17Allocator_private17BulkAllocatorImplINS_18casacore_allocatorIiLm32EEEE9constructEPimPKi@Base 3.2.1~
 _ZN8casacore17Allocator_private17BulkAllocatorImplINS_18casacore_allocatorIiLm32EEEE9constructEPimRKi@Base 3.2.1~
 _ZN8casacore17Allocator_private17BulkAllocatorImplINS_18casacore_allocatorIiLm32EEEED0Ev@Base 3.2.1~
 _ZN8casacore17Allocator_private17BulkAllocatorImplINS_18casacore_allocatorIiLm32EEEED1Ev@Base 3.2.1~
 _ZN8casacore17Allocator_private17BulkAllocatorImplINS_18casacore_allocatorIiLm32EEEED2Ev@Base 3.2.1~
 _ZN8casacore17Allocator_private17BulkAllocatorImplINS_18casacore_allocatorIjLm32EEEE10deallocateEPjm@Base 3.2.1~
 _ZN8casacore17Allocator_private17BulkAllocatorImplINS_18casacore_allocatorIjLm32EEEE7destroyEPjm@Base 3.2.1~
 _ZN8casacore17Allocator_private17BulkAllocatorImplINS_18casacore_allocatorIjLm32EEEE8allocateEmPKv@Base 3.2.1~
 _ZN8casacore17Allocator_private17BulkAllocatorImplINS_18casacore_allocatorIjLm32EEEE9allocatorE@Base 3.2.1~
 _ZN8casacore17Allocator_private17BulkAllocatorImplINS_18casacore_allocatorIjLm32EEEE9constructEPjm@Base 3.2.1~
 _ZN8casacore17Allocator_private17BulkAllocatorImplINS_18casacore_allocatorIjLm32EEEE9constructEPjmPKj@Base 3.2.1~
 _ZN8casacore17Allocator_private17BulkAllocatorImplINS_18casacore_allocatorIjLm32EEEE9constructEPjmRKj@Base 3.2.1~
 _ZN8casacore17Allocator_private17BulkAllocatorImplINS_18casacore_allocatorIjLm32EEEED0Ev@Base 3.2.1~
 _ZN8casacore17Allocator_private17BulkAllocatorImplINS_18casacore_allocatorIjLm32EEEED1Ev@Base 3.2.1~
 _ZN8casacore17Allocator_private17BulkAllocatorImplINS_18casacore_allocatorIjLm32EEEED2Ev@Base 3.2.1~
 _ZN8casacore17Allocator_private17BulkAllocatorImplINS_18casacore_allocatorIsLm32EEEE10deallocateEPsm@Base 3.2.1~
 _ZN8casacore17Allocator_private17BulkAllocatorImplINS_18casacore_allocatorIsLm32EEEE7destroyEPsm@Base 3.2.1~
 _ZN8casacore17Allocator_private17BulkAllocatorImplINS_18casacore_allocatorIsLm32EEEE8allocateEmPKv@Base 3.2.1~
 _ZN8casacore17Allocator_private17BulkAllocatorImplINS_18casacore_allocatorIsLm32EEEE9allocatorE@Base 3.2.1~
 _ZN8casacore17Allocator_private17BulkAllocatorImplINS_18casacore_allocatorIsLm32EEEE9constructEPsm@Base 3.2.1~
 _ZN8casacore17Allocator_private17BulkAllocatorImplINS_18casacore_allocatorIsLm32EEEE9constructEPsmPKs@Base 3.2.1~
 _ZN8casacore17Allocator_private17BulkAllocatorImplINS_18casacore_allocatorIsLm32EEEE9constructEPsmRKs@Base 3.2.1~
 _ZN8casacore17Allocator_private17BulkAllocatorImplINS_18casacore_allocatorIsLm32EEEED0Ev@Base 3.2.1~
 _ZN8casacore17Allocator_private17BulkAllocatorImplINS_18casacore_allocatorIsLm32EEEED1Ev@Base 3.2.1~
 _ZN8casacore17Allocator_private17BulkAllocatorImplINS_18casacore_allocatorIsLm32EEEED2Ev@Base 3.2.1~
 _ZN8casacore17Allocator_private17BulkAllocatorImplINS_18casacore_allocatorItLm32EEEE10deallocateEPtm@Base 3.2.1~
 _ZN8casacore17Allocator_private17BulkAllocatorImplINS_18casacore_allocatorItLm32EEEE7destroyEPtm@Base 3.2.1~
 _ZN8casacore17Allocator_private17BulkAllocatorImplINS_18casacore_allocatorItLm32EEEE8allocateEmPKv@Base 3.2.1~
 _ZN8casacore17Allocator_private17BulkAllocatorImplINS_18casacore_allocatorItLm32EEEE9allocatorE@Base 3.2.1~
 _ZN8casacore17Allocator_private17BulkAllocatorImplINS_18casacore_allocatorItLm32EEEE9constructEPtm@Base 3.2.1~
 _ZN8casacore17Allocator_private17BulkAllocatorImplINS_18casacore_allocatorItLm32EEEE9constructEPtmPKt@Base 3.2.1~
 _ZN8casacore17Allocator_private17BulkAllocatorImplINS_18casacore_allocatorItLm32EEEE9constructEPtmRKt@Base 3.2.1~
 _ZN8casacore17Allocator_private17BulkAllocatorImplINS_18casacore_allocatorItLm32EEEED0Ev@Base 3.2.1~
 _ZN8casacore17Allocator_private17BulkAllocatorImplINS_18casacore_allocatorItLm32EEEED1Ev@Base 3.2.1~
 _ZN8casacore17Allocator_private17BulkAllocatorImplINS_18casacore_allocatorItLm32EEEED2Ev@Base 3.2.1~
 _ZN8casacore17Allocator_private17BulkAllocatorImplINS_18casacore_allocatorIxLm32EEEE10deallocateEPxm@Base 3.2.1~
 _ZN8casacore17Allocator_private17BulkAllocatorImplINS_18casacore_allocatorIxLm32EEEE7destroyEPxm@Base 3.2.1~
 _ZN8casacore17Allocator_private17BulkAllocatorImplINS_18casacore_allocatorIxLm32EEEE8allocateEmPKv@Base 3.2.1~
 _ZN8casacore17Allocator_private17BulkAllocatorImplINS_18casacore_allocatorIxLm32EEEE9allocatorE@Base 3.2.1~
 _ZN8casacore17Allocator_private17BulkAllocatorImplINS_18casacore_allocatorIxLm32EEEE9constructEPxm@Base 3.2.1~
 _ZN8casacore17Allocator_private17BulkAllocatorImplINS_18casacore_allocatorIxLm32EEEE9constructEPxmPKx@Base 3.2.1~
 _ZN8casacore17Allocator_private17BulkAllocatorImplINS_18casacore_allocatorIxLm32EEEE9constructEPxmRKx@Base 3.2.1~
 _ZN8casacore17Allocator_private17BulkAllocatorImplINS_18casacore_allocatorIxLm32EEEED0Ev@Base 3.2.1~
 _ZN8casacore17Allocator_private17BulkAllocatorImplINS_18casacore_allocatorIxLm32EEEED1Ev@Base 3.2.1~
 _ZN8casacore17Allocator_private17BulkAllocatorImplINS_18casacore_allocatorIxLm32EEEED2Ev@Base 3.2.1~
 _ZN8casacore17Allocator_private17BulkAllocatorImplINS_18casacore_allocatorIyLm32EEEE10deallocateEPym@Base 3.2.1~
 _ZN8casacore17Allocator_private17BulkAllocatorImplINS_18casacore_allocatorIyLm32EEEE7destroyEPym@Base 3.2.1~
 _ZN8casacore17Allocator_private17BulkAllocatorImplINS_18casacore_allocatorIyLm32EEEE8allocateEmPKv@Base 3.2.1~
 _ZN8casacore17Allocator_private17BulkAllocatorImplINS_18casacore_allocatorIyLm32EEEE9allocatorE@Base 3.2.1~
 _ZN8casacore17Allocator_private17BulkAllocatorImplINS_18casacore_allocatorIyLm32EEEE9constructEPym@Base 3.2.1~
 _ZN8casacore17Allocator_private17BulkAllocatorImplINS_18casacore_allocatorIyLm32EEEE9constructEPymPKy@Base 3.2.1~
 _ZN8casacore17Allocator_private17BulkAllocatorImplINS_18casacore_allocatorIyLm32EEEE9constructEPymRKy@Base 3.2.1~
 _ZN8casacore17Allocator_private17BulkAllocatorImplINS_18casacore_allocatorIyLm32EEEED0Ev@Base 3.2.1~
 _ZN8casacore17Allocator_private17BulkAllocatorImplINS_18casacore_allocatorIyLm32EEEED1Ev@Base 3.2.1~
 _ZN8casacore17Allocator_private17BulkAllocatorImplINS_18casacore_allocatorIyLm32EEEED2Ev@Base 3.2.1~
 _ZN8casacore17Allocator_private17get_allocator_rawINS_18casacore_allocatorINS_6StringELm32EEEEEPNS0_17BulkAllocatorImplIT_EEv@Base 3.2.1~
 _ZN8casacore17Allocator_private17get_allocator_rawINS_18casacore_allocatorIdLm32EEEEEPNS0_17BulkAllocatorImplIT_EEv@Base 3.2.1~
 _ZN8casacore17ArrayInitPolicies4INITE@Base 3.2.1~
 _ZN8casacore17ArrayInitPolicies7NO_INITE@Base 3.2.1~
 _ZN8casacore17DirectoryIterator4initEv@Base 3.2.1~
 _ZN8casacore17DirectoryIterator5resetEv@Base 3.2.1~
 _ZN8casacore17DirectoryIteratorC1ERKNS_9DirectoryE@Base 3.2.1~
 _ZN8casacore17DirectoryIteratorC1ERKNS_9DirectoryERKNS_5RegexE@Base 3.2.1~
 _ZN8casacore17DirectoryIteratorC1ERKS0_@Base 3.2.1~
 _ZN8casacore17DirectoryIteratorC1Ev@Base 3.2.1~
 _ZN8casacore17DirectoryIteratorC2ERKNS_9DirectoryE@Base 3.2.1~
 _ZN8casacore17DirectoryIteratorC2ERKNS_9DirectoryERKNS_5RegexE@Base 3.2.1~
 _ZN8casacore17DirectoryIteratorC2ERKS0_@Base 3.2.1~
 _ZN8casacore17DirectoryIteratorC2Ev@Base 3.2.1~
 _ZN8casacore17DirectoryIteratorD1Ev@Base 3.2.1~
 _ZN8casacore17DirectoryIteratorD2Ev@Base 3.2.1~
 _ZN8casacore17DirectoryIteratoraSERKS0_@Base 3.2.1~
 _ZN8casacore17DirectoryIteratorppEi@Base 3.2.1~
 _ZN8casacore17DirectoryIteratorppEv@Base 3.2.1~
 _ZN8casacore17IBMDataConversionD0Ev@Base 3.2.1~
 _ZN8casacore17IBMDataConversionD1Ev@Base 3.2.1~
 _ZN8casacore17IBMDataConversionD2Ev@Base 3.2.1~
 _ZN8casacore17IterBoundaryErrorC1EPKcNS_9AipsError8CategoryE@Base 3.2.1~
 _ZN8casacore17IterBoundaryErrorC2EPKcNS_9AipsError8CategoryE@Base 3.2.1~
 _ZN8casacore17IterBoundaryErrorD0Ev@Base 3.2.1~
 _ZN8casacore17IterBoundaryErrorD1Ev@Base 3.2.1~
 _ZN8casacore17IterBoundaryErrorD2Ev@Base 3.2.1~
 _ZN8casacore17ModcompConversion7toLocalEPdPKvm@Base 3.2.1~
 _ZN8casacore17ModcompConversion7toLocalEPfPKvm@Base 3.2.1~
 _ZN8casacore17ModcompConversion7toLocalEPxPKvm@Base 3.2.1~
 _ZN8casacore17ModcompConversion7toLocalEPyPKvm@Base 3.2.1~
 _ZN8casacore17ModcompConversion9fromLocalEPvPKdm@Base 3.2.1~
 _ZN8casacore17ModcompConversion9fromLocalEPvPKfm@Base 3.2.1~
 _ZN8casacore17ModcompConversion9fromLocalEPvPKxm@Base 3.2.1~
 _ZN8casacore17ModcompConversion9fromLocalEPvPKym@Base 3.2.1~
 _ZN8casacore17RawDataConversionD0Ev@Base 3.2.1~
 _ZN8casacore17RawDataConversionD1Ev@Base 3.2.1~
 _ZN8casacore17RawDataConversionD2Ev@Base 3.2.1~
 _ZN8casacore17RecordFieldWriterD0Ev@Base 3.2.1~
 _ZN8casacore17RecordFieldWriterD1Ev@Base 3.2.1~
 _ZN8casacore17RecordFieldWriterD2Ev@Base 3.2.1~
 _ZN8casacore17VAXDataConversionD0Ev@Base 3.2.1~
 _ZN8casacore17VAXDataConversionD1Ev@Base 3.2.1~
 _ZN8casacore17VAXDataConversionD2Ev@Base 3.2.1~
 _ZN8casacore17new_del_allocatorINS_5SliceEED1Ev@Base 3.2.1~
 _ZN8casacore17new_del_allocatorINS_5SliceEED2Ev@Base 3.2.1~
 _ZN8casacore17new_del_allocatorINS_6StringEED1Ev@Base 3.2.1~
 _ZN8casacore17new_del_allocatorINS_6StringEED2Ev@Base 3.2.1~
 _ZN8casacore17new_del_allocatorINS_6VectorINS_5SliceEEEED1Ev@Base 3.2.1~
 _ZN8casacore17new_del_allocatorINS_6VectorINS_5SliceEEEED2Ev@Base 3.2.1~
 _ZN8casacore17new_del_allocatorINS_7QuantumIdEEED1Ev@Base 3.2.1~
 _ZN8casacore17new_del_allocatorINS_7QuantumIdEEED2Ev@Base 3.2.1~
 _ZN8casacore17new_del_allocatorIPvED1Ev@Base 3.2.1~
 _ZN8casacore17new_del_allocatorIPvED2Ev@Base 3.2.1~
 _ZN8casacore17new_del_allocatorISt7complexIdEED1Ev@Base 3.2.1~
 _ZN8casacore17new_del_allocatorISt7complexIdEED2Ev@Base 3.2.1~
 _ZN8casacore17new_del_allocatorISt7complexIfEED1Ev@Base 3.2.1~
 _ZN8casacore17new_del_allocatorISt7complexIfEED2Ev@Base 3.2.1~
 _ZN8casacore17new_del_allocatorIbED1Ev@Base 3.2.1~
 _ZN8casacore17new_del_allocatorIbED2Ev@Base 3.2.1~
 _ZN8casacore17new_del_allocatorIcED1Ev@Base 3.2.1~
 _ZN8casacore17new_del_allocatorIcED2Ev@Base 3.2.1~
 _ZN8casacore17new_del_allocatorIdED1Ev@Base 3.2.1~
 _ZN8casacore17new_del_allocatorIdED2Ev@Base 3.2.1~
 _ZN8casacore17new_del_allocatorIfED1Ev@Base 3.2.1~
 _ZN8casacore17new_del_allocatorIfED2Ev@Base 3.2.1~
 _ZN8casacore17new_del_allocatorIhED1Ev@Base 3.2.1~
 _ZN8casacore17new_del_allocatorIhED2Ev@Base 3.2.1~
 _ZN8casacore17new_del_allocatorIiED1Ev@Base 3.2.1~
 _ZN8casacore17new_del_allocatorIiED2Ev@Base 3.2.1~
 _ZN8casacore17new_del_allocatorIjED1Ev@Base 3.2.1~
 _ZN8casacore17new_del_allocatorIjED2Ev@Base 3.2.1~
 _ZN8casacore17new_del_allocatorIsED1Ev@Base 3.2.1~
 _ZN8casacore17new_del_allocatorIsED2Ev@Base 3.2.1~
 _ZN8casacore17new_del_allocatorItED1Ev@Base 3.2.1~
 _ZN8casacore17new_del_allocatorItED2Ev@Base 3.2.1~
 _ZN8casacore17new_del_allocatorIxED1Ev@Base 3.2.1~
 _ZN8casacore17new_del_allocatorIxED2Ev@Base 3.2.1~
 _ZN8casacore17partialFuncHelperERiRNS_9IPositionES2_RKS1_S4_@Base 3.2.1~
 _ZN8casacore18ArrayIteratorErrorC1ENS_9AipsError8CategoryE@Base 3.2.1~
 _ZN8casacore18ArrayIteratorErrorC1EPKcNS_9AipsError8CategoryE@Base 3.2.1~
 _ZN8casacore18ArrayIteratorErrorC1ERKNS_6StringENS_9AipsError8CategoryE@Base 3.2.1~
 _ZN8casacore18ArrayIteratorErrorC2ENS_9AipsError8CategoryE@Base 3.2.1~
 _ZN8casacore18ArrayIteratorErrorC2EPKcNS_9AipsError8CategoryE@Base 3.2.1~
 _ZN8casacore18ArrayIteratorErrorC2ERKNS_6StringENS_9AipsError8CategoryE@Base 3.2.1~
 _ZN8casacore18ArrayIteratorErrorD0Ev@Base 3.2.1~
 _ZN8casacore18ArrayIteratorErrorD1Ev@Base 3.2.1~
 _ZN8casacore18ArrayIteratorErrorD2Ev@Base 3.2.1~
 _ZN8casacore18LogFilterInterfaceD0Ev@Base 3.2.1~
 _ZN8casacore18LogFilterInterfaceD1Ev@Base 3.2.1~
 _ZN8casacore18LogFilterInterfaceD2Ev@Base 3.2.1~
 _ZN8casacore18PGPlotterInterface15resetPlotNumberEv@Base 3.2.1~
 _ZN8casacore18PGPlotterInterface7messageERKNS_6StringE@Base 3.2.1~
 _ZN8casacore18PGPlotterInterfaceD0Ev@Base 3.2.1~
 _ZN8casacore18PGPlotterInterfaceD1Ev@Base 3.2.1~
 _ZN8casacore18PGPlotterInterfaceD2Ev@Base 3.2.1~
 _ZN8casacore18arrayContTransformISt7complexIdES2_NS_4ConjIS2_S2_EEEEvRKNS_5ArrayIT_EERNS5_IT0_EET1_@Base 3.2.1~
 _ZN8casacore18arrayContTransformISt7complexIdES2_S2_St10multipliesIS2_EEEvRKNS_5ArrayIT_EET0_RNS5_IT1_EET2_@Base 3.2.1~
 _ZN8casacore18arrayContTransformISt7complexIdES2_S2_St7dividesIS2_EEEvRKNS_5ArrayIT_EET0_RNS5_IT1_EET2_@Base 3.2.1~
 _ZN8casacore18arrayContTransformISt7complexIfES2_NS_4ConjIS2_S2_EEEEvRKNS_5ArrayIT_EERNS5_IT0_EET1_@Base 3.2.1~
 _ZN8casacore18arrayContTransformISt7complexIfES2_S2_St10multipliesIS2_EEEvRKNS_5ArrayIT_EET0_RNS5_IT1_EET2_@Base 3.2.1~
 _ZN8casacore18arrayContTransformISt7complexIfES2_S2_St7dividesIS2_EEEvRKNS_5ArrayIT_EET0_RNS5_IT1_EET2_@Base 3.2.1~
 _ZN8casacore18arrayContTransformIbbbSt11logical_andIbEEEvRKNS_5ArrayIT_EERKNS3_IT0_EERNS3_IT1_EET2_@Base 3.2.1~
 _ZN8casacore18arrayContTransformIdddSt10multipliesIdEEEvRKNS_5ArrayIT_EET0_RNS3_IT1_EET2_@Base 3.2.1~
 _ZN8casacore18arrayContTransformIfffSt10multipliesIfEEEvRKNS_5ArrayIT_EET0_RNS3_IT1_EET2_@Base 3.2.1~
 _ZN8casacore18arrayContTransformIfffSt7dividesIfEEEvRKNS_5ArrayIT_EET0_RNS3_IT1_EET2_@Base 3.2.1~
 _ZN8casacore18arrayContTransformIiiiSt10multipliesIiEEEvRKNS_5ArrayIT_EET0_RNS3_IT1_EET2_@Base 3.2.1~
 _ZN8casacore18arrayContTransformIiiiSt7dividesIiEEEvRKNS_5ArrayIT_EET0_RNS3_IT1_EET2_@Base 3.2.1~
 _ZN8casacore18casacore_allocatorINS_5SliceELm32EED1Ev@Base 3.2.1~
 _ZN8casacore18casacore_allocatorINS_5SliceELm32EED2Ev@Base 3.2.1~
 _ZN8casacore18casacore_allocatorINS_6StringELm32EED1Ev@Base 3.2.1~
 _ZN8casacore18casacore_allocatorINS_6StringELm32EED2Ev@Base 3.2.1~
 _ZN8casacore18casacore_allocatorINS_6VectorINS_5SliceEEELm32EED1Ev@Base 3.2.1~
 _ZN8casacore18casacore_allocatorINS_6VectorINS_5SliceEEELm32EED2Ev@Base 3.2.1~
 _ZN8casacore18casacore_allocatorINS_6VectorINS_6StringEEELm32EED1Ev@Base 3.2.1~
 _ZN8casacore18casacore_allocatorINS_6VectorINS_6StringEEELm32EED2Ev@Base 3.2.1~
 _ZN8casacore18casacore_allocatorINS_6VectorIbEELm32EED1Ev@Base 3.2.1~
 _ZN8casacore18casacore_allocatorINS_6VectorIbEELm32EED2Ev@Base 3.2.1~
 _ZN8casacore18casacore_allocatorINS_7QuantumIdEELm32EED1Ev@Base 3.2.1~
 _ZN8casacore18casacore_allocatorINS_7QuantumIdEELm32EED2Ev@Base 3.2.1~
 _ZN8casacore18casacore_allocatorINS_9IPositionELm32EED1Ev@Base 3.2.1~
 _ZN8casacore18casacore_allocatorINS_9IPositionELm32EED2Ev@Base 3.2.1~
 _ZN8casacore18casacore_allocatorIPvLm32EED1Ev@Base 3.2.1~
 _ZN8casacore18casacore_allocatorIPvLm32EED2Ev@Base 3.2.1~
 _ZN8casacore18casacore_allocatorISt7complexIdELm32EED1Ev@Base 3.2.1~
 _ZN8casacore18casacore_allocatorISt7complexIdELm32EED2Ev@Base 3.2.1~
 _ZN8casacore18casacore_allocatorISt7complexIfELm32EED1Ev@Base 3.2.1~
 _ZN8casacore18casacore_allocatorISt7complexIfELm32EED2Ev@Base 3.2.1~
 _ZN8casacore18casacore_allocatorIbLm32EED1Ev@Base 3.2.1~
 _ZN8casacore18casacore_allocatorIbLm32EED2Ev@Base 3.2.1~
 _ZN8casacore18casacore_allocatorIcLm32EED1Ev@Base 3.2.1~
 _ZN8casacore18casacore_allocatorIcLm32EED2Ev@Base 3.2.1~
 _ZN8casacore18casacore_allocatorIdLm32EED1Ev@Base 3.2.1~
 _ZN8casacore18casacore_allocatorIdLm32EED2Ev@Base 3.2.1~
 _ZN8casacore18casacore_allocatorIfLm32EED1Ev@Base 3.2.1~
 _ZN8casacore18casacore_allocatorIfLm32EED2Ev@Base 3.2.1~
 _ZN8casacore18casacore_allocatorIhLm32EED1Ev@Base 3.2.1~
 _ZN8casacore18casacore_allocatorIhLm32EED2Ev@Base 3.2.1~
 _ZN8casacore18casacore_allocatorIiLm32EED1Ev@Base 3.2.1~
 _ZN8casacore18casacore_allocatorIiLm32EED2Ev@Base 3.2.1~
 _ZN8casacore18casacore_allocatorIjLm32EED1Ev@Base 3.2.1~
 _ZN8casacore18casacore_allocatorIjLm32EED2Ev@Base 3.2.1~
 _ZN8casacore18casacore_allocatorIsLm32EED1Ev@Base 3.2.1~
 _ZN8casacore18casacore_allocatorIsLm32EED2Ev@Base 3.2.1~
 _ZN8casacore18casacore_allocatorItLm32EED1Ev@Base 3.2.1~
 _ZN8casacore18casacore_allocatorItLm32EED2Ev@Base 3.2.1~
 _ZN8casacore18casacore_allocatorIxLm32EED1Ev@Base 3.2.1~
 _ZN8casacore18casacore_allocatorIxLm32EED2Ev@Base 3.2.1~
 _ZN8casacore18casacore_allocatorIyLm32EED1Ev@Base 3.2.1~
 _ZN8casacore18casacore_allocatorIyLm32EED2Ev@Base 3.2.1~
 _ZN8casacore18randomPermutationsE@Base 3.2.1~
 _ZN8casacore18real_a2_re_match_2EPNS_17re_pattern_bufferEPciS2_iiPNS_12re_registersEiRNS_16cregex_allocatorE@Base 3.2.1~
 _ZN8casacore18reorderArrayHelperERNS_9IPositionES1_RKS0_S3_@Base 3.2.1~
 _ZN8casacore18toIPositionInArrayExRKNS_9IPositionE@Base 3.2.1~
 _ZN8casacore19CanonicalConversion10toLocalIntEPvPKvm@Base 3.2.1~
 _ZN8casacore19CanonicalConversion11toLocalCharEPvPKvm@Base 3.2.1~
 _ZN8casacore19CanonicalConversion11toLocalUIntEPvPKvm@Base 3.2.1~
 _ZN8casacore19CanonicalConversion12fromLocalIntEPvPKvm@Base 3.2.1~
 _ZN8casacore19CanonicalConversion12toLocalFloatEPvPKvm@Base 3.2.1~
 _ZN8casacore19CanonicalConversion12toLocalInt64EPvPKvm@Base 3.2.1~
 _ZN8casacore19CanonicalConversion12toLocalShortEPvPKvm@Base 3.2.1~
 _ZN8casacore19CanonicalConversion12toLocalUCharEPvPKvm@Base 3.2.1~
 _ZN8casacore19CanonicalConversion13fromLocalCharEPvPKvm@Base 3.2.1~
 _ZN8casacore19CanonicalConversion13fromLocalUIntEPvPKvm@Base 3.2.1~
 _ZN8casacore19CanonicalConversion13toLocalDoubleEPvPKvm@Base 3.2.1~
 _ZN8casacore19CanonicalConversion13toLocalUInt64EPvPKvm@Base 3.2.1~
 _ZN8casacore19CanonicalConversion13toLocalUShortEPvPKvm@Base 3.2.1~
 _ZN8casacore19CanonicalConversion14byteToLocalIntEPvPKvm@Base 3.2.1~
 _ZN8casacore19CanonicalConversion14fromLocalFloatEPvPKvm@Base 3.2.1~
 _ZN8casacore19CanonicalConversion14fromLocalInt64EPvPKvm@Base 3.2.1~
 _ZN8casacore19CanonicalConversion14fromLocalShortEPvPKvm@Base 3.2.1~
 _ZN8casacore19CanonicalConversion14fromLocalUCharEPvPKvm@Base 3.2.1~
 _ZN8casacore19CanonicalConversion14getByteToLocalEPKc@Base 3.2.1~
 _ZN8casacore19CanonicalConversion14getByteToLocalEPKd@Base 3.2.1~
 _ZN8casacore19CanonicalConversion14getByteToLocalEPKf@Base 3.2.1~
 _ZN8casacore19CanonicalConversion14getByteToLocalEPKh@Base 3.2.1~
 _ZN8casacore19CanonicalConversion14getByteToLocalEPKi@Base 3.2.1~
 _ZN8casacore19CanonicalConversion14getByteToLocalEPKj@Base 3.2.1~
 _ZN8casacore19CanonicalConversion14getByteToLocalEPKs@Base 3.2.1~
 _ZN8casacore19CanonicalConversion14getByteToLocalEPKt@Base 3.2.1~
 _ZN8casacore19CanonicalConversion14getByteToLocalEPKx@Base 3.2.1~
 _ZN8casacore19CanonicalConversion14getByteToLocalEPKy@Base 3.2.1~
 _ZN8casacore19CanonicalConversion15byteToLocalCharEPvPKvm@Base 3.2.1~
 _ZN8casacore19CanonicalConversion15byteToLocalUIntEPvPKvm@Base 3.2.1~
 _ZN8casacore19CanonicalConversion15fromLocalDoubleEPvPKvm@Base 3.2.1~
 _ZN8casacore19CanonicalConversion15fromLocalUInt64EPvPKvm@Base 3.2.1~
 _ZN8casacore19CanonicalConversion15fromLocalUShortEPvPKvm@Base 3.2.1~
 _ZN8casacore19CanonicalConversion16byteFromLocalIntEPvPKvm@Base 3.2.1~
 _ZN8casacore19CanonicalConversion16byteToLocalFloatEPvPKvm@Base 3.2.1~
 _ZN8casacore19CanonicalConversion16byteToLocalInt64EPvPKvm@Base 3.2.1~
 _ZN8casacore19CanonicalConversion16byteToLocalShortEPvPKvm@Base 3.2.1~
 _ZN8casacore19CanonicalConversion16byteToLocalUCharEPvPKvm@Base 3.2.1~
 _ZN8casacore19CanonicalConversion16getByteFromLocalEPKc@Base 3.2.1~
 _ZN8casacore19CanonicalConversion16getByteFromLocalEPKd@Base 3.2.1~
 _ZN8casacore19CanonicalConversion16getByteFromLocalEPKf@Base 3.2.1~
 _ZN8casacore19CanonicalConversion16getByteFromLocalEPKh@Base 3.2.1~
 _ZN8casacore19CanonicalConversion16getByteFromLocalEPKi@Base 3.2.1~
 _ZN8casacore19CanonicalConversion16getByteFromLocalEPKj@Base 3.2.1~
 _ZN8casacore19CanonicalConversion16getByteFromLocalEPKs@Base 3.2.1~
 _ZN8casacore19CanonicalConversion16getByteFromLocalEPKt@Base 3.2.1~
 _ZN8casacore19CanonicalConversion16getByteFromLocalEPKx@Base 3.2.1~
 _ZN8casacore19CanonicalConversion16getByteFromLocalEPKy@Base 3.2.1~
 _ZN8casacore19CanonicalConversion17byteFromLocalCharEPvPKvm@Base 3.2.1~
 _ZN8casacore19CanonicalConversion17byteFromLocalUIntEPvPKvm@Base 3.2.1~
 _ZN8casacore19CanonicalConversion17byteToLocalDoubleEPvPKvm@Base 3.2.1~
 _ZN8casacore19CanonicalConversion17byteToLocalUInt64EPvPKvm@Base 3.2.1~
 _ZN8casacore19CanonicalConversion17byteToLocalUShortEPvPKvm@Base 3.2.1~
 _ZN8casacore19CanonicalConversion18byteFromLocalFloatEPvPKvm@Base 3.2.1~
 _ZN8casacore19CanonicalConversion18byteFromLocalInt64EPvPKvm@Base 3.2.1~
 _ZN8casacore19CanonicalConversion18byteFromLocalShortEPvPKvm@Base 3.2.1~
 _ZN8casacore19CanonicalConversion18byteFromLocalUCharEPvPKvm@Base 3.2.1~
 _ZN8casacore19CanonicalConversion19byteFromLocalDoubleEPvPKvm@Base 3.2.1~
 _ZN8casacore19CanonicalConversion19byteFromLocalUInt64EPvPKvm@Base 3.2.1~
 _ZN8casacore19CanonicalConversion19byteFromLocalUShortEPvPKvm@Base 3.2.1~
 _ZN8casacore19EnvironmentVariable3getERKNS_6StringE@Base 3.2.1~
 _ZN8casacore19EnvironmentVariable3setERKNS_6StringES3_@Base 3.2.1~
 _ZN8casacore19EnvironmentVariable9isDefinedERKNS_6StringE@Base 3.2.1~
 _ZN8casacore19RecordTransformable10fromStringERNS_6StringERKS1_@Base 3.2.1~
 _ZN8casacore19RecordTransformableD0Ev@Base 3.2.1~
 _ZN8casacore19RecordTransformableD1Ev@Base 3.2.1~
 _ZN8casacore19RecordTransformableD2Ev@Base 3.2.1~
 _ZN8casacore19throwContainerSizesEPKcmm@Base 3.2.1~
 _ZN8casacore1C10probit_3_4E@Base 3.2.1~
 _ZN8casacore1C11dbl_epsilonE@Base 3.2.1~
 _ZN8casacore1C11flt_epsilonE@Base 3.2.1~
 _ZN8casacore1C13square_arcminE@Base 3.2.1~
 _ZN8casacore1C13square_arcsecE@Base 3.2.1~
 _ZN8casacore1C13square_degreeE@Base 3.2.1~
 _ZN8casacore1C1cE@Base 3.2.1~
 _ZN8casacore1C1eE@Base 3.2.1~
 _ZN8casacore1C2piE@Base 3.2.1~
 _ZN8casacore1C3dayE@Base 3.2.1~
 _ZN8casacore1C3exaE@Base 3.2.1~
 _ZN8casacore1C3ln2E@Base 3.2.1~
 _ZN8casacore1C4MJD0E@Base 3.2.1~
 _ZN8casacore1C4_2piE@Base 3.2.1~
 _ZN8casacore1C4attoE@Base 3.2.1~
 _ZN8casacore1C4deciE@Base 3.2.1~
 _ZN8casacore1C4dekaE@Base 3.2.1~
 _ZN8casacore1C4gigaE@Base 3.2.1~
 _ZN8casacore1C4hourE@Base 3.2.1~
 _ZN8casacore1C4kiloE@Base 3.2.1~
 _ZN8casacore1C4ln10E@Base 3.2.1~
 _ZN8casacore1C4megaE@Base 3.2.1~
 _ZN8casacore1C4nanoE@Base 3.2.1~
 _ZN8casacore1C4petaE@Base 3.2.1~
 _ZN8casacore1C4pi_2E@Base 3.2.1~
 _ZN8casacore1C4pi_4E@Base 3.2.1~
 _ZN8casacore1C4picoE@Base 3.2.1~
 _ZN8casacore1C4teraE@Base 3.2.1~
 _ZN8casacore1C5_1_piE@Base 3.2.1~
 _ZN8casacore1C5_2_piE@Base 3.2.1~
 _ZN8casacore1C5centiE@Base 3.2.1~
 _ZN8casacore1C5femtoE@Base 3.2.1~
 _ZN8casacore1C5gammaE@Base 3.2.1~
 _ZN8casacore1C5hectoE@Base 3.2.1~
 _ZN8casacore1C5log2eE@Base 3.2.1~
 _ZN8casacore1C5microE@Base 3.2.1~
 _ZN8casacore1C5milliE@Base 3.2.1~
 _ZN8casacore1C5sqrt2E@Base 3.2.1~
 _ZN8casacore1C5sqrt3E@Base 3.2.1~
 _ZN8casacore1C5yoctoE@Base 3.2.1~
 _ZN8casacore1C5yottaE@Base 3.2.1~
 _ZN8casacore1C5zeptoE@Base 3.2.1~
 _ZN8casacore1C5zettaE@Base 3.2.1~
 _ZN8casacore1C6arcminE@Base 3.2.1~
 _ZN8casacore1C6arcsecE@Base 3.2.1~
 _ZN8casacore1C6circleE@Base 3.2.1~
 _ZN8casacore1C6degreeE@Base 3.2.1~
 _ZN8casacore1C6log10eE@Base 3.2.1~
 _ZN8casacore1C6minuteE@Base 3.2.1~
 _ZN8casacore1C6radianE@Base 3.2.1~
 _ZN8casacore1C6secondE@Base 3.2.1~
 _ZN8casacore1C6sphereE@Base 3.2.1~
 _ZN8casacore1C7dbl_maxE@Base 3.2.1~
 _ZN8casacore1C7dbl_minE@Base 3.2.1~
 _ZN8casacore1C7flt_maxE@Base 3.2.1~
 _ZN8casacore1C7flt_minE@Base 3.2.1~
 _ZN8casacore1C7lngammaE@Base 3.2.1~
 _ZN8casacore1C8_1_sqrt2E@Base 3.2.1~
 _ZN8casacore1C8_1_sqrt3E@Base 3.2.1~
 _ZN8casacore1C8etogammaE@Base 3.2.1~
 _ZN8casacore1C8minfloatE@Base 3.2.1~
 _ZN8casacore1C9_1_sqrtpiE@Base 3.2.1~
 _ZN8casacore1C9_2_sqrtpiE@Base 3.2.1~
 _ZN8casacore1C9mindoubleE@Base 3.2.1~
 _ZN8casacore1C9steradianE@Base 3.2.1~
 _ZN8casacore21ArrayConformanceErrorC1ENS_9AipsError8CategoryE@Base 3.2.1~
 _ZN8casacore21ArrayConformanceErrorC1EPKcNS_9AipsError8CategoryE@Base 3.2.1~
 _ZN8casacore21ArrayConformanceErrorC1ERKNS_6StringENS_9AipsError8CategoryE@Base 3.2.1~
 _ZN8casacore21ArrayConformanceErrorC2ENS_9AipsError8CategoryE@Base 3.2.1~
 _ZN8casacore21ArrayConformanceErrorC2EPKcNS_9AipsError8CategoryE@Base 3.2.1~
 _ZN8casacore21ArrayConformanceErrorC2ERKNS_6StringENS_9AipsError8CategoryE@Base 3.2.1~
 _ZN8casacore21ArrayConformanceErrorD0Ev@Base 3.2.1~
 _ZN8casacore21ArrayConformanceErrorD1Ev@Base 3.2.1~
 _ZN8casacore21ArrayConformanceErrorD2Ev@Base 3.2.1~
 _ZN8casacore21ArrayPositionIterator3setERKNS_9IPositionE@Base 3.2.1~
 _ZN8casacore21ArrayPositionIterator4nextEv@Base 3.2.1~
 _ZN8casacore21ArrayPositionIterator5resetEv@Base 3.2.1~
 _ZN8casacore21ArrayPositionIterator5setupERKNS_9IPositionEb@Base 3.2.1~
 _ZN8casacore21ArrayPositionIterator5setupEj@Base 3.2.1~
 _ZN8casacore21ArrayPositionIterator8getArrayEv@Base 3.2.1~
 _ZN8casacore21ArrayPositionIterator8nextStepEv@Base 3.2.1~
 _ZN8casacore21ArrayPositionIteratorC1ERKNS_9IPositionES3_b@Base 3.2.1~
 _ZN8casacore21ArrayPositionIteratorC1ERKNS_9IPositionES3_j@Base 3.2.1~
 _ZN8casacore21ArrayPositionIteratorC1ERKNS_9IPositionEj@Base 3.2.1~
 _ZN8casacore21ArrayPositionIteratorC2ERKNS_9IPositionES3_b@Base 3.2.1~
 _ZN8casacore21ArrayPositionIteratorC2ERKNS_9IPositionES3_j@Base 3.2.1~
 _ZN8casacore21ArrayPositionIteratorC2ERKNS_9IPositionEj@Base 3.2.1~
 _ZN8casacore21ArrayPositionIteratorD0Ev@Base 3.2.1~
 _ZN8casacore21ArrayPositionIteratorD1Ev@Base 3.2.1~
 _ZN8casacore21ArrayPositionIteratorD2Ev@Base 3.2.1~
 _ZN8casacore21LECanonicalConversion10toLocalIntEPvPKvm@Base 3.2.1~
 _ZN8casacore21LECanonicalConversion11toLocalCharEPvPKvm@Base 3.2.1~
 _ZN8casacore21LECanonicalConversion11toLocalUIntEPvPKvm@Base 3.2.1~
 _ZN8casacore21LECanonicalConversion12fromLocalIntEPvPKvm@Base 3.2.1~
 _ZN8casacore21LECanonicalConversion12toLocalFloatEPvPKvm@Base 3.2.1~
 _ZN8casacore21LECanonicalConversion12toLocalInt64EPvPKvm@Base 3.2.1~
 _ZN8casacore21LECanonicalConversion12toLocalShortEPvPKvm@Base 3.2.1~
 _ZN8casacore21LECanonicalConversion12toLocalUCharEPvPKvm@Base 3.2.1~
 _ZN8casacore21LECanonicalConversion13fromLocalCharEPvPKvm@Base 3.2.1~
 _ZN8casacore21LECanonicalConversion13fromLocalUIntEPvPKvm@Base 3.2.1~
 _ZN8casacore21LECanonicalConversion13toLocalDoubleEPvPKvm@Base 3.2.1~
 _ZN8casacore21LECanonicalConversion13toLocalUInt64EPvPKvm@Base 3.2.1~
 _ZN8casacore21LECanonicalConversion13toLocalUShortEPvPKvm@Base 3.2.1~
 _ZN8casacore21LECanonicalConversion14byteToLocalIntEPvPKvm@Base 3.2.1~
 _ZN8casacore21LECanonicalConversion14fromLocalFloatEPvPKvm@Base 3.2.1~
 _ZN8casacore21LECanonicalConversion14fromLocalInt64EPvPKvm@Base 3.2.1~
 _ZN8casacore21LECanonicalConversion14fromLocalShortEPvPKvm@Base 3.2.1~
 _ZN8casacore21LECanonicalConversion14fromLocalUCharEPvPKvm@Base 3.2.1~
 _ZN8casacore21LECanonicalConversion14getByteToLocalEPKc@Base 3.2.1~
 _ZN8casacore21LECanonicalConversion14getByteToLocalEPKd@Base 3.2.1~
 _ZN8casacore21LECanonicalConversion14getByteToLocalEPKf@Base 3.2.1~
 _ZN8casacore21LECanonicalConversion14getByteToLocalEPKh@Base 3.2.1~
 _ZN8casacore21LECanonicalConversion14getByteToLocalEPKi@Base 3.2.1~
 _ZN8casacore21LECanonicalConversion14getByteToLocalEPKj@Base 3.2.1~
 _ZN8casacore21LECanonicalConversion14getByteToLocalEPKs@Base 3.2.1~
 _ZN8casacore21LECanonicalConversion14getByteToLocalEPKt@Base 3.2.1~
 _ZN8casacore21LECanonicalConversion14getByteToLocalEPKx@Base 3.2.1~
 _ZN8casacore21LECanonicalConversion14getByteToLocalEPKy@Base 3.2.1~
 _ZN8casacore21LECanonicalConversion15byteToLocalCharEPvPKvm@Base 3.2.1~
 _ZN8casacore21LECanonicalConversion15byteToLocalUIntEPvPKvm@Base 3.2.1~
 _ZN8casacore21LECanonicalConversion15fromLocalDoubleEPvPKvm@Base 3.2.1~
 _ZN8casacore21LECanonicalConversion15fromLocalUInt64EPvPKvm@Base 3.2.1~
 _ZN8casacore21LECanonicalConversion15fromLocalUShortEPvPKvm@Base 3.2.1~
 _ZN8casacore21LECanonicalConversion16byteFromLocalIntEPvPKvm@Base 3.2.1~
 _ZN8casacore21LECanonicalConversion16byteToLocalFloatEPvPKvm@Base 3.2.1~
 _ZN8casacore21LECanonicalConversion16byteToLocalInt64EPvPKvm@Base 3.2.1~
 _ZN8casacore21LECanonicalConversion16byteToLocalShortEPvPKvm@Base 3.2.1~
 _ZN8casacore21LECanonicalConversion16byteToLocalUCharEPvPKvm@Base 3.2.1~
 _ZN8casacore21LECanonicalConversion16getByteFromLocalEPKc@Base 3.2.1~
 _ZN8casacore21LECanonicalConversion16getByteFromLocalEPKd@Base 3.2.1~
 _ZN8casacore21LECanonicalConversion16getByteFromLocalEPKf@Base 3.2.1~
 _ZN8casacore21LECanonicalConversion16getByteFromLocalEPKh@Base 3.2.1~
 _ZN8casacore21LECanonicalConversion16getByteFromLocalEPKi@Base 3.2.1~
 _ZN8casacore21LECanonicalConversion16getByteFromLocalEPKj@Base 3.2.1~
 _ZN8casacore21LECanonicalConversion16getByteFromLocalEPKs@Base 3.2.1~
 _ZN8casacore21LECanonicalConversion16getByteFromLocalEPKt@Base 3.2.1~
 _ZN8casacore21LECanonicalConversion16getByteFromLocalEPKx@Base 3.2.1~
 _ZN8casacore21LECanonicalConversion16getByteFromLocalEPKy@Base 3.2.1~
 _ZN8casacore21LECanonicalConversion17byteFromLocalCharEPvPKvm@Base 3.2.1~
 _ZN8casacore21LECanonicalConversion17byteFromLocalUIntEPvPKvm@Base 3.2.1~
 _ZN8casacore21LECanonicalConversion17byteToLocalDoubleEPvPKvm@Base 3.2.1~
 _ZN8casacore21LECanonicalConversion17byteToLocalUInt64EPvPKvm@Base 3.2.1~
 _ZN8casacore21LECanonicalConversion17byteToLocalUShortEPvPKvm@Base 3.2.1~
 _ZN8casacore21LECanonicalConversion18byteFromLocalFloatEPvPKvm@Base 3.2.1~
 _ZN8casacore21LECanonicalConversion18byteFromLocalInt64EPvPKvm@Base 3.2.1~
 _ZN8casacore21LECanonicalConversion18byteFromLocalShortEPvPKvm@Base 3.2.1~
 _ZN8casacore21LECanonicalConversion18byteFromLocalUCharEPvPKvm@Base 3.2.1~
 _ZN8casacore21LECanonicalConversion19byteFromLocalDoubleEPvPKvm@Base 3.2.1~
 _ZN8casacore21LECanonicalConversion19byteFromLocalUInt64EPvPKvm@Base 3.2.1~
 _ZN8casacore21LECanonicalConversion19byteFromLocalUShortEPvPKvm@Base 3.2.1~
 _ZN8casacore21ModcompDataConversionD0Ev@Base 3.2.1~
 _ZN8casacore21ModcompDataConversionD1Ev@Base 3.2.1~
 _ZN8casacore21ModcompDataConversionD2Ev@Base 3.2.1~
 _ZN8casacore21arrayTransformInPlaceIddSt10multipliesIdEEEvRNS_5ArrayIT_EET0_T1_@Base 3.2.1~
 _ZN8casacore21arrayTransformInPlaceIddSt4plusIdEEEvRNS_5ArrayIT_EERKNS3_IT0_EET1_@Base 3.2.1~
 _ZN8casacore21arrayTransformInPlaceIddSt5minusIdEEEvRNS_5ArrayIT_EERKNS3_IT0_EET1_@Base 3.2.1~
 _ZN8casacore21arrayTransformInPlaceIddSt7dividesIdEEEvRNS_5ArrayIT_EET0_T1_@Base 3.2.1~
 _ZN8casacore21rightExpandableToLeftERKNS_9IPositionES2_@Base 3.2.1~
 _ZN8casacore22LittleEndianConversion7toLocalEPcPKvm@Base 3.2.1~
 _ZN8casacore22LittleEndianConversion7toLocalEPdPKvm@Base 3.2.1~
 _ZN8casacore22LittleEndianConversion7toLocalEPfPKvm@Base 3.2.1~
 _ZN8casacore22LittleEndianConversion7toLocalEPhPKvm@Base 3.2.1~
 _ZN8casacore22LittleEndianConversion7toLocalEPiPKvm@Base 3.2.1~
 _ZN8casacore22LittleEndianConversion7toLocalEPjPKvm@Base 3.2.1~
 _ZN8casacore22LittleEndianConversion7toLocalEPsPKvm@Base 3.2.1~
 _ZN8casacore22LittleEndianConversion7toLocalEPtPKvm@Base 3.2.1~
 _ZN8casacore22LittleEndianConversion7toLocalEPxPKvm@Base 3.2.1~
 _ZN8casacore22LittleEndianConversion7toLocalEPyPKvm@Base 3.2.1~
 _ZN8casacore22LittleEndianConversion9fromLocalEPvPKcm@Base 3.2.1~
 _ZN8casacore22LittleEndianConversion9fromLocalEPvPKdm@Base 3.2.1~
 _ZN8casacore22LittleEndianConversion9fromLocalEPvPKfm@Base 3.2.1~
 _ZN8casacore22LittleEndianConversion9fromLocalEPvPKhm@Base 3.2.1~
 _ZN8casacore22LittleEndianConversion9fromLocalEPvPKim@Base 3.2.1~
 _ZN8casacore22LittleEndianConversion9fromLocalEPvPKjm@Base 3.2.1~
 _ZN8casacore22LittleEndianConversion9fromLocalEPvPKsm@Base 3.2.1~
 _ZN8casacore22LittleEndianConversion9fromLocalEPvPKtm@Base 3.2.1~
 _ZN8casacore22LittleEndianConversion9fromLocalEPvPKxm@Base 3.2.1~
 _ZN8casacore22LittleEndianConversion9fromLocalEPvPKym@Base 3.2.1~
 _ZN8casacore22MultiRecordFieldWriter4copyEv@Base 3.2.1~
 _ZN8casacore22MultiRecordFieldWriter9addWriterEPNS_17RecordFieldWriterE@Base 3.2.1~
 _ZN8casacore22MultiRecordFieldWriterD1Ev@Base 3.2.1~
 _ZN8casacore22MultiRecordFieldWriterD2Ev@Base 3.2.1~
 _ZN8casacore23CanonicalDataConversionD0Ev@Base 3.2.1~
 _ZN8casacore23CanonicalDataConversionD1Ev@Base 3.2.1~
 _ZN8casacore23CanonicalDataConversionD2Ev@Base 3.2.1~
 _ZN8casacore25LECanonicalDataConversionD0Ev@Base 3.2.1~
 _ZN8casacore25LECanonicalDataConversionD1Ev@Base 3.2.1~
 _ZN8casacore25LECanonicalDataConversionD2Ev@Base 3.2.1~
 _ZN8casacore26UnitVal_static_initializer11initializedE@Base 3.2.1~
 _ZN8casacore26UnitVal_static_initializerC1Ev@Base 3.2.1~
 _ZN8casacore26UnitVal_static_initializerC2Ev@Base 3.2.1~
 _ZN8casacore27AccessInvalidFallibleObjectEv@Base 3.2.1~
 _ZN8casacore27precisionForValueErrorPairsERKNS_6VectorIdEES3_@Base 3.2.1~
 _ZN8casacore39throw_Null_CountedPtr_dereference_errorEv@Base 3.2.1~
 _ZN8casacore3ACG5resetEv@Base 3.2.1~
 _ZN8casacore3ACG6asuIntEv@Base 3.2.1~
 _ZN8casacore3ACGC1Eji@Base 3.2.1~
 _ZN8casacore3ACGC2Eji@Base 3.2.1~
 _ZN8casacore3ACGD0Ev@Base 3.2.1~
 _ZN8casacore3ACGD1Ev@Base 3.2.1~
 _ZN8casacore3ACGD2Ev@Base 3.2.1~
 _ZN8casacore3OMP11nMaxThreadsEv@Base 3.2.1~
 _ZN8casacore3RNG7asFloatEv@Base 3.2.1~
 _ZN8casacore3RNG8asDoubleEv@Base 3.2.1~
 _ZN8casacore3RNGD0Ev@Base 3.2.1~
 _ZN8casacore3RNGD1Ev@Base 3.2.1~
 _ZN8casacore3RNGD2Ev@Base 3.2.1~
 _ZN8casacore3cosINS_6VectorIdEEEENS_7QuantumIT_EERKS5_@Base 3.2.1~
 _ZN8casacore3cosIdEENS_7QuantumIT_EERKS3_@Base 3.2.1~
 _ZN8casacore3erfERKSt7complexIdE@Base 3.2.1~
 _ZN8casacore3erfERKSt7complexIfE@Base 3.2.1~
 _ZN8casacore3maxERKNS_9IPositionES2_@Base 3.2.1~
 _ZN8casacore3minERKNS_9IPositionES2_@Base 3.2.1~
 _ZN8casacore3sinINS_6VectorIdEEEENS_7QuantumIT_EERKS5_@Base 3.2.1~
 _ZN8casacore3sinIdEENS_7QuantumIT_EERKS3_@Base 3.2.1~
 _ZN8casacore3sumIdEET_RKNS_5ArrayIS1_EE@Base 3.2.1~
 _ZN8casacore3sumIfEET_RKNS_5ArrayIS1_EE@Base 3.2.1~
 _ZN8casacore3sumIiEET_RKNS_5ArrayIS1_EE@Base 3.2.1~
 _ZN8casacore4DOos10fileExistsERKNS_6VectorINS_6StringEEEb@Base 3.2.1~
 _ZN8casacore4DOos13makeDirectoryERKNS_6VectorINS_6StringEEEb@Base 3.2.1~
 _ZN8casacore4DOos15isValidPathNameERKNS_6VectorINS_6StringEEE@Base 3.2.1~
 _ZN8casacore4DOos4copyERKNS_6StringES3_bb@Base 3.2.1~
 _ZN8casacore4DOos4moveERKNS_6StringES3_bb@Base 3.2.1~
 _ZN8casacore4DOos6removeERKNS_6StringEbbb@Base 3.2.1~
 _ZN8casacore4DOos6removeERKNS_6VectorINS_6StringEEEbbb@Base 3.2.1~
 _ZN8casacore4DOos7dirNameERKNS_6VectorINS_6StringEEE@Base 3.2.1~
 _ZN8casacore4DOos8baseNameERKNS_6VectorINS_6StringEEE@Base 3.2.1~
 _ZN8casacore4DOos8fileTimeERKNS_6VectorINS_6StringEEEib@Base 3.2.1~
 _ZN8casacore4DOos8fileTypeERKNS_6VectorINS_6StringEEEb@Base 3.2.1~
 _ZN8casacore4DOos8fullNameERKNS_6VectorINS_6StringEEE@Base 3.2.1~
 _ZN8casacore4DOos8lockInfoERKNS_6StringE@Base 3.2.1~
 _ZN8casacore4DOos9fileNamesERKNS_6StringES3_S3_bb@Base 3.2.1~
 _ZN8casacore4DOos9freeSpaceERKNS_6VectorINS_6StringEEEb@Base 3.2.1~
 _ZN8casacore4DOos9totalSizeERKNS_6StringEb@Base 3.2.1~
 _ZN8casacore4DOos9totalSizeERKNS_6VectorINS_6StringEEEb@Base 3.2.1~
 _ZN8casacore4File13newUniqueNameERKNS_6StringE@Base 3.2.1~
 _ZN8casacore4File13newUniqueNameERKNS_6StringES3_@Base 3.2.1~
 _ZN8casacore4File13uniqueSeqnr_pE@Base 3.2.1~
 _ZN8casacore4File14removeSymLinksEv@Base 3.2.1~
 _ZN8casacore4File14setPermissionsEj@Base 3.2.1~
 _ZN8casacore4File5touchEj@Base 3.2.1~
 _ZN8casacore4File5touchEv@Base 3.2.1~
 _ZN8casacore4FileC1ERKNS_4PathE@Base 3.2.1~
 _ZN8casacore4FileC1ERKNS_6StringE@Base 3.2.1~
 _ZN8casacore4FileC1ERKS0_@Base 3.2.1~
 _ZN8casacore4FileC1Ev@Base 3.2.1~
 _ZN8casacore4FileC2ERKNS_4PathE@Base 3.2.1~
 _ZN8casacore4FileC2ERKNS_6StringE@Base 3.2.1~
 _ZN8casacore4FileC2ERKS0_@Base 3.2.1~
 _ZN8casacore4FileC2Ev@Base 3.2.1~
 _ZN8casacore4FileD0Ev@Base 3.2.1~
 _ZN8casacore4FileD1Ev@Base 3.2.1~
 _ZN8casacore4FileD2Ev@Base 3.2.1~
 _ZN8casacore4FileaSERKS0_@Base 3.2.1~
 _ZN8casacore4LinkIPNS_12NoticeTargetEEC1ES2_PS3_S4_@Base 3.2.1~
 _ZN8casacore4LinkIPNS_12NoticeTargetEEC2ES2_PS3_S4_@Base 3.2.1~
 _ZN8casacore4LinkIPNS_12NoticeTargetEED1Ev@Base 3.2.1~
 _ZN8casacore4LinkIPNS_12NoticeTargetEED2Ev@Base 3.2.1~
 _ZN8casacore4MLCG5resetEv@Base 3.2.1~
 _ZN8casacore4MLCG6asuIntEv@Base 3.2.1~
 _ZN8casacore4MLCGC1Eii@Base 3.2.1~
 _ZN8casacore4MLCGC2Eii@Base 3.2.1~
 _ZN8casacore4MLCGD0Ev@Base 3.2.1~
 _ZN8casacore4MLCGD1Ev@Base 3.2.1~
 _ZN8casacore4MLCGD2Ev@Base 3.2.1~
 _ZN8casacore4Path12addDirectoryERKNS_6StringES3_@Base 3.2.1~
 _ZN8casacore4Path14getMaxNameSizeEv@Base 3.2.1~
 _ZN8casacore4Path14stripDirectoryERKNS_6StringES3_@Base 3.2.1~
 _ZN8casacore4Path18getMaxPathNameSizeEv@Base 3.2.1~
 _ZN8casacore4Path6appendERKNS_6StringE@Base 3.2.1~
 _ZN8casacore4PathC1ERKNS_6StringE@Base 3.2.1~
 _ZN8casacore4PathC1ERKS0_@Base 3.2.1~
 _ZN8casacore4PathC1Ev@Base 3.2.1~
 _ZN8casacore4PathC2ERKNS_6StringE@Base 3.2.1~
 _ZN8casacore4PathC2ERKS0_@Base 3.2.1~
 _ZN8casacore4PathC2Ev@Base 3.2.1~
 _ZN8casacore4PathD1Ev@Base 3.2.1~
 _ZN8casacore4PathD2Ev@Base 3.2.1~
 _ZN8casacore4PathaSERKS0_@Base 3.2.1~
 _ZN8casacore4Sort4copyERKS0_@Base 3.2.1~
 _ZN8casacore4Sort6addKeyEPKvNS_8DataTypeEji@Base 3.2.1~
 _ZN8casacore4Sort6addKeyEPNS_7SortKeyE@Base 3.2.1~
 _ZN8casacore4Sort7sortKeyEPKvNS_8DataTypeEjNS0_5OrderE@Base 3.2.1~
 _ZN8casacore4Sort7sortKeyEPKvRKNS_10CountedPtrINS_11BaseCompareEEEjNS0_5OrderE@Base 3.2.1~
 _ZN8casacore4Sort7sortKeyEjNS_8DataTypeENS0_5OrderE@Base 3.2.1~
 _ZN8casacore4Sort7sortKeyEjRKNS_10CountedPtrINS_11BaseCompareEEENS0_5OrderE@Base 3.2.1~
 _ZN8casacore4SortC1EPKvj@Base 3.2.1~
 _ZN8casacore4SortC1ERKS0_@Base 3.2.1~
 _ZN8casacore4SortC1Ev@Base 3.2.1~
 _ZN8casacore4SortC2EPKvj@Base 3.2.1~
 _ZN8casacore4SortC2ERKS0_@Base 3.2.1~
 _ZN8casacore4SortC2Ev@Base 3.2.1~
 _ZN8casacore4SortD1Ev@Base 3.2.1~
 _ZN8casacore4SortD2Ev@Base 3.2.1~
 _ZN8casacore4SortaSERKS0_@Base 3.2.1~
 _ZN8casacore4Time10dayOfMonthEv@Base 3.2.1~
 _ZN8casacore4Time10isLeapYearEj@Base 3.2.1~
 _ZN8casacore4Time10isLeapYearEv@Base 3.2.1~
 _ZN8casacore4Time12timeZoneDaysEv@Base 3.2.1~
 _ZN8casacore4Time12timeZoneNameEv@Base 3.2.1~
 _ZN8casacore4Time15timeZoneSecondsEv@Base 3.2.1~
 _ZN8casacore4Time18howManyDaysInMonthEjj@Base 3.2.1~
 _ZN8casacore4Time18howManyDaysInMonthEv@Base 3.2.1~
 _ZN8casacore4Time3ageEv@Base 3.2.1~
 _ZN8casacore4Time3nowEv@Base 3.2.1~
 _ZN8casacore4Time4yearEv@Base 3.2.1~
 _ZN8casacore4Time5hoursEv@Base 3.2.1~
 _ZN8casacore4Time5monthEv@Base 3.2.1~
 _ZN8casacore4Time7minutesEv@Base 3.2.1~
 _ZN8casacore4Time7secondsEv@Base 3.2.1~
 _ZN8casacore4Time7setDateEjjjjjd@Base 3.2.1~
 _ZN8casacore4Time8dsecondsEv@Base 3.2.1~
 _ZN8casacore4Time9dayOfWeekEv@Base 3.2.1~
 _ZN8casacore4Time9dayOfYearEv@Base 3.2.1~
 _ZN8casacore4TimeC1ERKS0_@Base 3.2.1~
 _ZN8casacore4TimeC1Ed@Base 3.2.1~
 _ZN8casacore4TimeC1Ejjjjjd@Base 3.2.1~
 _ZN8casacore4TimeC1Ev@Base 3.2.1~
 _ZN8casacore4TimeC2ERKS0_@Base 3.2.1~
 _ZN8casacore4TimeC2Ed@Base 3.2.1~
 _ZN8casacore4TimeC2Ejjjjjd@Base 3.2.1~
 _ZN8casacore4TimeC2Ev@Base 3.2.1~
 _ZN8casacore4TimeaSERKS0_@Base 3.2.1~
 _ZN8casacore4TimemiERKS0_@Base 3.2.1~
 _ZN8casacore4TimeplEd@Base 3.2.1~
 _ZN8casacore4Unit5checkEv@Base 3.2.1~
 _ZN8casacore4Unit7setNameERKNS_6StringE@Base 3.2.1~
 _ZN8casacore4Unit8setValueERKNS_7UnitValE@Base 3.2.1~
 _ZN8casacore4UnitC1EPKc@Base 3.2.1~
 _ZN8casacore4UnitC1EPKci@Base 3.2.1~
 _ZN8casacore4UnitC1ERKNSt7__cxx1112basic_stringIcSt11char_traitsIcESaIcEEE@Base 3.2.1~
 _ZN8casacore4UnitC1ERKS0_@Base 3.2.1~
 _ZN8casacore4UnitC1Ec@Base 3.2.1~
 _ZN8casacore4UnitC1Ev@Base 3.2.1~
 _ZN8casacore4UnitC2EPKc@Base 3.2.1~
 _ZN8casacore4UnitC2EPKci@Base 3.2.1~
 _ZN8casacore4UnitC2ERKNSt7__cxx1112basic_stringIcSt11char_traitsIcESaIcEEE@Base 3.2.1~
 _ZN8casacore4UnitC2ERKS0_@Base 3.2.1~
 _ZN8casacore4UnitC2Ec@Base 3.2.1~
 _ZN8casacore4UnitC2Ev@Base 3.2.1~
 _ZN8casacore4UnitD1Ev@Base 3.2.1~
 _ZN8casacore4UnitD2Ev@Base 3.2.1~
 _ZN8casacore4UnitaSERKS0_@Base 3.2.1~
 _ZN8casacore4acosERKSt7complexIdE@Base 3.2.1~
 _ZN8casacore4acosERKSt7complexIfE@Base 3.2.1~
 _ZN8casacore4asinERKSt7complexIdE@Base 3.2.1~
 _ZN8casacore4asinERKSt7complexIfE@Base 3.2.1~
 _ZN8casacore4atanERKSt7complexIdE@Base 3.2.1~
 _ZN8casacore4atanERKSt7complexIfE@Base 3.2.1~
 _ZN8casacore4ceilERKi@Base 3.2.1~
 _ZN8casacore4conjERKNS_5ArrayISt7complexIdEEE@Base 3.2.1~
 _ZN8casacore4conjERKNS_5ArrayISt7complexIfEEE@Base 3.2.1~
 _ZN8casacore4conjERKNS_6MatrixISt7complexIdEEE@Base 3.2.1~
 _ZN8casacore4conjERKNS_6MatrixISt7complexIfEEE@Base 3.2.1~
 _ZN8casacore4conjERNS_5ArrayISt7complexIdEEERKS3_@Base 3.2.1~
 _ZN8casacore4conjERNS_5ArrayISt7complexIfEEERKS3_@Base 3.2.1~
 _ZN8casacore4erfcERKSt7complexIdE@Base 3.2.1~
 _ZN8casacore4erfcERKSt7complexIfE@Base 3.2.1~
 _ZN8casacore4fmodERKSt7complexIdES3_@Base 3.2.1~
 _ZN8casacore4fmodERKSt7complexIfES3_@Base 3.2.1~
 _ZN8casacore4imagERKNS_5ArrayISt7complexIdEEE@Base 3.2.1~
 _ZN8casacore4imagERKNS_5ArrayISt7complexIfEEE@Base 3.2.1~
 _ZN8casacore4imagERNS_5ArrayIdEERKNS0_ISt7complexIdEEE@Base 3.2.1~
 _ZN8casacore4imagERNS_5ArrayIfEERKNS0_ISt7complexIfEEE@Base 3.2.1~
 _ZN8casacore4joinEPNSt7__cxx1112basic_stringIcSt11char_traitsIcESaIcEEEiRKS5_@Base 3.2.1~
 _ZN8casacore4nearERKSt7complexIdES3_d@Base 3.2.1~
 _ZN8casacore4nearERKSt7complexIfES3_d@Base 3.2.1~
 _ZN8casacore4nearEddd@Base 3.2.1~
 _ZN8casacore4nearEdfd@Base 3.2.1~
 _ZN8casacore4nearEfdd@Base 3.2.1~
 _ZN8casacore4nearEffd@Base 3.2.1~
 _ZN8casacore4nearEiid@Base 3.2.1~
 _ZN8casacore4nearEjjd@Base 3.2.1~
 _ZN8casacore4normERKNS_6VectorISt7complexIdEEE@Base 3.2.1~
 _ZN8casacore4normERKNS_6VectorISt7complexIfEEE@Base 3.2.1~
 _ZN8casacore4normERKNS_6VectorIdEE@Base 3.2.1~
 _ZN8casacore4normERKNS_6VectorIfEE@Base 3.2.1~
 _ZN8casacore4normERKNS_6VectorIiEE@Base 3.2.1~
 _ZN8casacore4realERKNS_5ArrayISt7complexIdEEE@Base 3.2.1~
 _ZN8casacore4realERKNS_5ArrayISt7complexIfEEE@Base 3.2.1~
 _ZN8casacore4realERKd@Base 3.2.1~
 _ZN8casacore4realERKf@Base 3.2.1~
 _ZN8casacore4realERNS_5ArrayIdEERKNS0_ISt7complexIdEEE@Base 3.2.1~
 _ZN8casacore4realERNS_5ArrayIfEERKNS0_ISt7complexIfEEE@Base 3.2.1~
 _ZN8casacore4trimERKNSt7__cxx1112basic_stringIcSt11char_traitsIcESaIcEEE@Base 3.2.1~
 _ZN8casacore5ArrayINS_5SliceEE10assignBaseERKNS_9ArrayBaseEb@Base 3.2.1~
 _ZN8casacore5ArrayINS_5SliceEE10getStorageERb@Base 3.2.1~
 _ZN8casacore5ArrayINS_5SliceEE10putStorageERPS1_b@Base 3.2.1~
 _ZN8casacore5ArrayINS_5SliceEE11getVStorageERb@Base 3.2.1~
 _ZN8casacore5ArrayINS_5SliceEE11putVStorageERPvb@Base 3.2.1~
 _ZN8casacore5ArrayINS_5SliceEE11takeStorageERKNS_9IPositionEPKS1_@Base 3.2.1~
 _ZN8casacore5ArrayINS_5SliceEE11takeStorageERKNS_9IPositionEPKS1_RKNS_17AbstractAllocatorIS1_EE@Base 3.2.1~
 _ZN8casacore5ArrayINS_5SliceEE11takeStorageERKNS_9IPositionEPS1_NS_17StorageInitPolicyE@Base 3.2.1~
 _ZN8casacore5ArrayINS_5SliceEE11takeStorageERKNS_9IPositionEPS1_NS_17StorageInitPolicyERKNS_17AbstractAllocatorIS1_EE@Base 3.2.1~
 _ZN8casacore5ArrayINS_5SliceEE14preTakeStorageERKNS_9IPositionE@Base 3.2.1~
 _ZN8casacore5ArrayINS_5SliceEE15BaseIteratorSTL9incrementEv@Base 3.2.1~
 _ZN8casacore5ArrayINS_5SliceEE15BaseIteratorSTLC1ERKS2_@Base 3.2.1~
 _ZN8casacore5ArrayINS_5SliceEE15BaseIteratorSTLC2ERKS2_@Base 3.2.1~
 _ZN8casacore5ArrayINS_5SliceEE15doNonDegenerateERKS2_RKNS_9IPositionE@Base 3.2.1~
 _ZN8casacore5ArrayINS_5SliceEE15postTakeStorageEv@Base 3.2.1~
 _ZN8casacore5ArrayINS_5SliceEE16copyMatchingPartERKS2_@Base 3.2.1~
 _ZN8casacore5ArrayINS_5SliceEE23copyToContiguousStorageEPS1_RKS2_NS_15ArrayInitPolicyE@Base 3.2.1~
 _ZN8casacore5ArrayINS_5SliceEE6assignERKS2_@Base 3.2.1~
 _ZN8casacore5ArrayINS_5SliceEE6resizeERKNS_9IPositionEb@Base 3.2.1~
 _ZN8casacore5ArrayINS_5SliceEE6resizeERKNS_9IPositionEbNS_15ArrayInitPolicyE@Base 3.2.1~
 _ZN8casacore5ArrayINS_5SliceEE6resizeEv@Base 3.2.1~
 _ZN8casacore5ArrayINS_5SliceEE9referenceERKS2_@Base 3.2.1~
 _ZN8casacore5ArrayINS_5SliceEEC1ERKNS_9IPositionENS_15ArrayInitPolicyEPNS_17Allocator_private13BulkAllocatorIS1_EE@Base 3.2.1~
 _ZN8casacore5ArrayINS_5SliceEEC1ERKS2_@Base 3.2.1~
 _ZN8casacore5ArrayINS_5SliceEEC1Ev@Base 3.2.1~
 _ZN8casacore5ArrayINS_5SliceEEC2ERKNS_9IPositionENS_15ArrayInitPolicyEPNS_17Allocator_private13BulkAllocatorIS1_EE@Base 3.2.1~
 _ZN8casacore5ArrayINS_5SliceEEC2ERKS2_@Base 3.2.1~
 _ZN8casacore5ArrayINS_5SliceEEC2Ev@Base 3.2.1~
 _ZN8casacore5ArrayINS_5SliceEED0Ev@Base 3.2.1~
 _ZN8casacore5ArrayINS_5SliceEED1Ev@Base 3.2.1~
 _ZN8casacore5ArrayINS_5SliceEED2Ev@Base 3.2.1~
 _ZN8casacore5ArrayINS_5SliceEEaSERKS2_@Base 3.2.1~
 _ZN8casacore5ArrayINS_5SliceEEclERKNS_6SlicerE@Base 3.2.1~
 _ZN8casacore5ArrayINS_5SliceEEclERKNS_9IPositionES5_@Base 3.2.1~
 _ZN8casacore5ArrayINS_5SliceEEclERKNS_9IPositionES5_S5_@Base 3.2.1~
 _ZN8casacore5ArrayINS_6StringEE10assignBaseERKNS_9ArrayBaseEb@Base 3.2.1~
 _ZN8casacore5ArrayINS_6StringEE10getStorageERb@Base 3.2.1~
 _ZN8casacore5ArrayINS_6StringEE10putStorageERPS1_b@Base 3.2.1~
 _ZN8casacore5ArrayINS_6StringEE10setEndIterEv@Base 3.2.1~
 _ZN8casacore5ArrayINS_6StringEE11IteratorSTLC1EPKS1_@Base 3.2.1~
 _ZN8casacore5ArrayINS_6StringEE11IteratorSTLC1ERS2_@Base 3.2.1~
 _ZN8casacore5ArrayINS_6StringEE11IteratorSTLC2EPKS1_@Base 3.2.1~
 _ZN8casacore5ArrayINS_6StringEE11IteratorSTLC2ERS2_@Base 3.2.1~
 _ZN8casacore5ArrayINS_6StringEE11IteratorSTLdeEv@Base 3.2.1~
 _ZN8casacore5ArrayINS_6StringEE11IteratorSTLppEi@Base 3.2.1~
 _ZN8casacore5ArrayINS_6StringEE11IteratorSTLppEv@Base 3.2.1~
 _ZN8casacore5ArrayINS_6StringEE11IteratorSTLptEv@Base 3.2.1~
 _ZN8casacore5ArrayINS_6StringEE11getVStorageERb@Base 3.2.1~
 _ZN8casacore5ArrayINS_6StringEE11putVStorageERPvb@Base 3.2.1~
 _ZN8casacore5ArrayINS_6StringEE11takeStorageERKNS_9IPositionEPKS1_@Base 3.2.1~
 _ZN8casacore5ArrayINS_6StringEE11takeStorageERKNS_9IPositionEPKS1_RKNS_17AbstractAllocatorIS1_EE@Base 3.2.1~
 _ZN8casacore5ArrayINS_6StringEE11takeStorageERKNS_9IPositionEPS1_NS_17StorageInitPolicyE@Base 3.2.1~
 _ZN8casacore5ArrayINS_6StringEE11takeStorageERKNS_9IPositionEPS1_NS_17StorageInitPolicyERKNS_17AbstractAllocatorIS1_EE@Base 3.2.1~
 _ZN8casacore5ArrayINS_6StringEE13addDegenerateEj@Base 3.2.1~
 _ZN8casacore5ArrayINS_6StringEE13nonDegenerateERKS2_RKNS_9IPositionE@Base 3.2.1~
 _ZN8casacore5ArrayINS_6StringEE13nonDegenerateERKS2_jb@Base 3.2.1~
 _ZN8casacore5ArrayINS_6StringEE14adjustLastAxisERKNS_9IPositionEjb@Base 3.2.1~
 _ZN8casacore5ArrayINS_6StringEE14preTakeStorageERKNS_9IPositionE@Base 3.2.1~
 _ZN8casacore5ArrayINS_6StringEE14reformOrResizeERKNS_9IPositionEjb@Base 3.2.1~
 _ZN8casacore5ArrayINS_6StringEE15BaseIteratorSTL6getPosEv@Base 3.2.1~
 _ZN8casacore5ArrayINS_6StringEE15BaseIteratorSTL8nextElemEv@Base 3.2.1~
 _ZN8casacore5ArrayINS_6StringEE15BaseIteratorSTL8nextLineEv@Base 3.2.1~
 _ZN8casacore5ArrayINS_6StringEE15BaseIteratorSTL9incrementEv@Base 3.2.1~
 _ZN8casacore5ArrayINS_6StringEE15BaseIteratorSTLC1EPKS1_@Base 3.2.1~
 _ZN8casacore5ArrayINS_6StringEE15BaseIteratorSTLC1ERKS2_@Base 3.2.1~
 _ZN8casacore5ArrayINS_6StringEE15BaseIteratorSTLC2EPKS1_@Base 3.2.1~
 _ZN8casacore5ArrayINS_6StringEE15BaseIteratorSTLC2ERKS2_@Base 3.2.1~
 _ZN8casacore5ArrayINS_6StringEE15doNonDegenerateERKS2_RKNS_9IPositionE@Base 3.2.1~
 _ZN8casacore5ArrayINS_6StringEE15postTakeStorageEv@Base 3.2.1~
 _ZN8casacore5ArrayINS_6StringEE16ConstIteratorSTLC1EPKS1_@Base 3.2.1~
 _ZN8casacore5ArrayINS_6StringEE16ConstIteratorSTLC1ERKNS2_11IteratorSTLE@Base 3.2.1~
 _ZN8casacore5ArrayINS_6StringEE16ConstIteratorSTLC1ERKS2_@Base 3.2.1~
 _ZN8casacore5ArrayINS_6StringEE16ConstIteratorSTLC2EPKS1_@Base 3.2.1~
 _ZN8casacore5ArrayINS_6StringEE16ConstIteratorSTLC2ERKNS2_11IteratorSTLE@Base 3.2.1~
 _ZN8casacore5ArrayINS_6StringEE16ConstIteratorSTLC2ERKS2_@Base 3.2.1~
 _ZN8casacore5ArrayINS_6StringEE16ConstIteratorSTLppEi@Base 3.2.1~
 _ZN8casacore5ArrayINS_6StringEE16ConstIteratorSTLppEv@Base 3.2.1~
 _ZN8casacore5ArrayINS_6StringEE16ConstIteratorSTLptEv@Base 3.2.1~
 _ZN8casacore5ArrayINS_6StringEE16copyMatchingPartERKS2_@Base 3.2.1~
 _ZN8casacore5ArrayINS_6StringEE16removeDegenerateERKNS_9IPositionE@Base 3.2.1~
 _ZN8casacore5ArrayINS_6StringEE16removeDegenerateEjb@Base 3.2.1~
 _ZN8casacore5ArrayINS_6StringEE22defaultArrayInitPolicyEv@Base 3.2.1~
 _ZN8casacore5ArrayINS_6StringEE23copyToContiguousStorageEPS1_RKS2_NS_15ArrayInitPolicyE@Base 3.2.1~
 _ZN8casacore5ArrayINS_6StringEE3endEv@Base 3.2.1~
 _ZN8casacore5ArrayINS_6StringEE3setERKS1_@Base 3.2.1~
 _ZN8casacore5ArrayINS_6StringEE4cendEv@Base 3.2.1~
 _ZN8casacore5ArrayINS_6StringEE4dataEv@Base 3.2.1~
 _ZN8casacore5ArrayINS_6StringEE5applyEPFS1_RKS1_E@Base 3.2.1~
 _ZN8casacore5ArrayINS_6StringEE5applyEPFS1_S1_E@Base 3.2.1~
 _ZN8casacore5ArrayINS_6StringEE5applyERKNS_10FunctionalIS1_S1_EE@Base 3.2.1~
 _ZN8casacore5ArrayINS_6StringEE5beginEv@Base 3.2.1~
 _ZN8casacore5ArrayINS_6StringEE6assignERKS2_@Base 3.2.1~
 _ZN8casacore5ArrayINS_6StringEE6cbeginEv@Base 3.2.1~
 _ZN8casacore5ArrayINS_6StringEE6resizeERKNS_9IPositionEb@Base 3.2.1~
 _ZN8casacore5ArrayINS_6StringEE6resizeERKNS_9IPositionEbNS_15ArrayInitPolicyE@Base 3.2.1~
 _ZN8casacore5ArrayINS_6StringEE6resizeEv@Base 3.2.1~
 _ZN8casacore5ArrayINS_6StringEE6uniqueEv@Base 3.2.1~
 _ZN8casacore5ArrayINS_6StringEE9makeStepsEv@Base 3.2.1~
 _ZN8casacore5ArrayINS_6StringEE9referenceERKS2_@Base 3.2.1~
 _ZN8casacore5ArrayINS_6StringEEC1ENS_17Allocator_private9AllocSpecIS1_EE@Base 3.2.1~
 _ZN8casacore5ArrayINS_6StringEEC1ERKNS_9IPositionE@Base 3.2.1~
 _ZN8casacore5ArrayINS_6StringEEC1ERKNS_9IPositionENS_15ArrayInitPolicyE@Base 3.2.1~
 _ZN8casacore5ArrayINS_6StringEEC1ERKNS_9IPositionENS_15ArrayInitPolicyEPNS_17Allocator_private13BulkAllocatorIS1_EE@Base 3.2.1~
 _ZN8casacore5ArrayINS_6StringEEC1ERKNS_9IPositionEPKS1_@Base 3.2.1~
 _ZN8casacore5ArrayINS_6StringEEC1ERKNS_9IPositionEPS1_NS_17StorageInitPolicyE@Base 3.2.1~
 _ZN8casacore5ArrayINS_6StringEEC1ERKNS_9IPositionEPS1_NS_17StorageInitPolicyERKNS_17AbstractAllocatorIS1_EE@Base 3.2.1~
 _ZN8casacore5ArrayINS_6StringEEC1ERKNS_9IPositionERKS1_@Base 3.2.1~
 _ZN8casacore5ArrayINS_6StringEEC1ERKS2_@Base 3.2.1~
 _ZN8casacore5ArrayINS_6StringEEC1Ev@Base 3.2.1~
 _ZN8casacore5ArrayINS_6StringEEC2ENS_17Allocator_private9AllocSpecIS1_EE@Base 3.2.1~
 _ZN8casacore5ArrayINS_6StringEEC2ERKNS_9IPositionE@Base 3.2.1~
 _ZN8casacore5ArrayINS_6StringEEC2ERKNS_9IPositionENS_15ArrayInitPolicyE@Base 3.2.1~
 _ZN8casacore5ArrayINS_6StringEEC2ERKNS_9IPositionENS_15ArrayInitPolicyEPNS_17Allocator_private13BulkAllocatorIS1_EE@Base 3.2.1~
 _ZN8casacore5ArrayINS_6StringEEC2ERKNS_9IPositionEPKS1_@Base 3.2.1~
 _ZN8casacore5ArrayINS_6StringEEC2ERKNS_9IPositionEPS1_NS_17StorageInitPolicyE@Base 3.2.1~
 _ZN8casacore5ArrayINS_6StringEEC2ERKNS_9IPositionEPS1_NS_17StorageInitPolicyERKNS_17AbstractAllocatorIS1_EE@Base 3.2.1~
 _ZN8casacore5ArrayINS_6StringEEC2ERKNS_9IPositionERKS1_@Base 3.2.1~
 _ZN8casacore5ArrayINS_6StringEEC2ERKS2_@Base 3.2.1~
 _ZN8casacore5ArrayINS_6StringEEC2Ev@Base 3.2.1~
 _ZN8casacore5ArrayINS_6StringEED0Ev@Base 3.2.1~
 _ZN8casacore5ArrayINS_6StringEED1Ev@Base 3.2.1~
 _ZN8casacore5ArrayINS_6StringEED2Ev@Base 3.2.1~
 _ZN8casacore5ArrayINS_6StringEEaSERKNS_11MaskedArrayIS1_EE@Base 3.2.1~
 _ZN8casacore5ArrayINS_6StringEEaSERKS1_@Base 3.2.1~
 _ZN8casacore5ArrayINS_6StringEEaSERKS2_@Base 3.2.1~
 _ZN8casacore5ArrayINS_6StringEEclERKNS0_IbEE@Base 3.2.1~
 _ZN8casacore5ArrayINS_6StringEEclERKNS_11MaskedArrayIbEE@Base 3.2.1~
 _ZN8casacore5ArrayINS_6StringEEclERKNS_6SlicerE@Base 3.2.1~
 _ZN8casacore5ArrayINS_6StringEEclERKNS_9IPositionE@Base 3.2.1~
 _ZN8casacore5ArrayINS_6StringEEclERKNS_9IPositionES5_@Base 3.2.1~
 _ZN8casacore5ArrayINS_6StringEEclERKNS_9IPositionES5_S5_@Base 3.2.1~
 _ZN8casacore5ArrayINS_7QuantumIdEEE10assignBaseERKNS_9ArrayBaseEb@Base 3.2.1~
 _ZN8casacore5ArrayINS_7QuantumIdEEE10getStorageERb@Base 3.2.1~
 _ZN8casacore5ArrayINS_7QuantumIdEEE10putStorageERPS2_b@Base 3.2.1~
 _ZN8casacore5ArrayINS_7QuantumIdEEE11getVStorageERb@Base 3.2.1~
 _ZN8casacore5ArrayINS_7QuantumIdEEE11putVStorageERPvb@Base 3.2.1~
 _ZN8casacore5ArrayINS_7QuantumIdEEE11takeStorageERKNS_9IPositionEPKS2_@Base 3.2.1~
 _ZN8casacore5ArrayINS_7QuantumIdEEE11takeStorageERKNS_9IPositionEPKS2_RKNS_17AbstractAllocatorIS2_EE@Base 3.2.1~
 _ZN8casacore5ArrayINS_7QuantumIdEEE11takeStorageERKNS_9IPositionEPS2_NS_17StorageInitPolicyE@Base 3.2.1~
 _ZN8casacore5ArrayINS_7QuantumIdEEE11takeStorageERKNS_9IPositionEPS2_NS_17StorageInitPolicyERKNS_17AbstractAllocatorIS2_EE@Base 3.2.1~
 _ZN8casacore5ArrayINS_7QuantumIdEEE14preTakeStorageERKNS_9IPositionE@Base 3.2.1~
 _ZN8casacore5ArrayINS_7QuantumIdEEE15BaseIteratorSTL9incrementEv@Base 3.2.1~
 _ZN8casacore5ArrayINS_7QuantumIdEEE15BaseIteratorSTLC1ERKS3_@Base 3.2.1~
 _ZN8casacore5ArrayINS_7QuantumIdEEE15BaseIteratorSTLC2ERKS3_@Base 3.2.1~
 _ZN8casacore5ArrayINS_7QuantumIdEEE15doNonDegenerateERKS3_RKNS_9IPositionE@Base 3.2.1~
 _ZN8casacore5ArrayINS_7QuantumIdEEE15postTakeStorageEv@Base 3.2.1~
 _ZN8casacore5ArrayINS_7QuantumIdEEE16copyMatchingPartERKS3_@Base 3.2.1~
 _ZN8casacore5ArrayINS_7QuantumIdEEE23copyToContiguousStorageEPS2_RKS3_NS_15ArrayInitPolicyE@Base 3.2.1~
 _ZN8casacore5ArrayINS_7QuantumIdEEE6assignERKS3_@Base 3.2.1~
 _ZN8casacore5ArrayINS_7QuantumIdEEE6resizeERKNS_9IPositionEb@Base 3.2.1~
 _ZN8casacore5ArrayINS_7QuantumIdEEE6resizeERKNS_9IPositionEbNS_15ArrayInitPolicyE@Base 3.2.1~
 _ZN8casacore5ArrayINS_7QuantumIdEEE6resizeEv@Base 3.2.1~
 _ZN8casacore5ArrayINS_7QuantumIdEEE9referenceERKS3_@Base 3.2.1~
 _ZN8casacore5ArrayINS_7QuantumIdEEEC1ERKNS_9IPositionENS_15ArrayInitPolicyEPNS_17Allocator_private13BulkAllocatorIS2_EE@Base 3.2.1~
 _ZN8casacore5ArrayINS_7QuantumIdEEEC1ERKS3_@Base 3.2.1~
 _ZN8casacore5ArrayINS_7QuantumIdEEEC1Ev@Base 3.2.1~
 _ZN8casacore5ArrayINS_7QuantumIdEEEC2ERKNS_9IPositionENS_15ArrayInitPolicyEPNS_17Allocator_private13BulkAllocatorIS2_EE@Base 3.2.1~
 _ZN8casacore5ArrayINS_7QuantumIdEEEC2ERKS3_@Base 3.2.1~
 _ZN8casacore5ArrayINS_7QuantumIdEEEC2Ev@Base 3.2.1~
 _ZN8casacore5ArrayINS_7QuantumIdEEED0Ev@Base 3.2.1~
 _ZN8casacore5ArrayINS_7QuantumIdEEED1Ev@Base 3.2.1~
 _ZN8casacore5ArrayINS_7QuantumIdEEED2Ev@Base 3.2.1~
 _ZN8casacore5ArrayINS_7QuantumIdEEEaSERKS3_@Base 3.2.1~
 _ZN8casacore5ArrayINS_7QuantumIdEEEclERKNS_6SlicerE@Base 3.2.1~
 _ZN8casacore5ArrayINS_7QuantumIdEEEclERKNS_9IPositionES6_@Base 3.2.1~
 _ZN8casacore5ArrayINS_7QuantumIdEEEclERKNS_9IPositionES6_S6_@Base 3.2.1~
 _ZN8casacore5ArrayISt7complexIdEE10assignBaseERKNS_9ArrayBaseEb@Base 3.2.1~
 _ZN8casacore5ArrayISt7complexIdEE10getStorageERb@Base 3.2.1~
 _ZN8casacore5ArrayISt7complexIdEE10putStorageERPS2_b@Base 3.2.1~
 _ZN8casacore5ArrayISt7complexIdEE10setEndIterEv@Base 3.2.1~
 _ZN8casacore5ArrayISt7complexIdEE11IteratorSTLC1EPKS2_@Base 3.2.1~
 _ZN8casacore5ArrayISt7complexIdEE11IteratorSTLC1ERS3_@Base 3.2.1~
 _ZN8casacore5ArrayISt7complexIdEE11IteratorSTLC2EPKS2_@Base 3.2.1~
 _ZN8casacore5ArrayISt7complexIdEE11IteratorSTLC2ERS3_@Base 3.2.1~
 _ZN8casacore5ArrayISt7complexIdEE11IteratorSTLdeEv@Base 3.2.1~
 _ZN8casacore5ArrayISt7complexIdEE11IteratorSTLppEi@Base 3.2.1~
 _ZN8casacore5ArrayISt7complexIdEE11IteratorSTLppEv@Base 3.2.1~
 _ZN8casacore5ArrayISt7complexIdEE11IteratorSTLptEv@Base 3.2.1~
 _ZN8casacore5ArrayISt7complexIdEE11getVStorageERb@Base 3.2.1~
 _ZN8casacore5ArrayISt7complexIdEE11putVStorageERPvb@Base 3.2.1~
 _ZN8casacore5ArrayISt7complexIdEE11takeStorageERKNS_9IPositionEPKS2_@Base 3.2.1~
 _ZN8casacore5ArrayISt7complexIdEE11takeStorageERKNS_9IPositionEPKS2_RKNS_17AbstractAllocatorIS2_EE@Base 3.2.1~
 _ZN8casacore5ArrayISt7complexIdEE11takeStorageERKNS_9IPositionEPS2_NS_17StorageInitPolicyE@Base 3.2.1~
 _ZN8casacore5ArrayISt7complexIdEE11takeStorageERKNS_9IPositionEPS2_NS_17StorageInitPolicyERKNS_17AbstractAllocatorIS2_EE@Base 3.2.1~
 _ZN8casacore5ArrayISt7complexIdEE13addDegenerateEj@Base 3.2.1~
 _ZN8casacore5ArrayISt7complexIdEE13nonDegenerateERKS3_RKNS_9IPositionE@Base 3.2.1~
 _ZN8casacore5ArrayISt7complexIdEE13nonDegenerateERKS3_jb@Base 3.2.1~
 _ZN8casacore5ArrayISt7complexIdEE14adjustLastAxisERKNS_9IPositionEjb@Base 3.2.1~
 _ZN8casacore5ArrayISt7complexIdEE14preTakeStorageERKNS_9IPositionE@Base 3.2.1~
 _ZN8casacore5ArrayISt7complexIdEE14reformOrResizeERKNS_9IPositionEjb@Base 3.2.1~
 _ZN8casacore5ArrayISt7complexIdEE15BaseIteratorSTL6getPosEv@Base 3.2.1~
 _ZN8casacore5ArrayISt7complexIdEE15BaseIteratorSTL8nextElemEv@Base 3.2.1~
 _ZN8casacore5ArrayISt7complexIdEE15BaseIteratorSTL8nextLineEv@Base 3.2.1~
 _ZN8casacore5ArrayISt7complexIdEE15BaseIteratorSTL9incrementEv@Base 3.2.1~
 _ZN8casacore5ArrayISt7complexIdEE15BaseIteratorSTLC1EPKS2_@Base 3.2.1~
 _ZN8casacore5ArrayISt7complexIdEE15BaseIteratorSTLC1ERKS3_@Base 3.2.1~
 _ZN8casacore5ArrayISt7complexIdEE15BaseIteratorSTLC2EPKS2_@Base 3.2.1~
 _ZN8casacore5ArrayISt7complexIdEE15BaseIteratorSTLC2ERKS3_@Base 3.2.1~
 _ZN8casacore5ArrayISt7complexIdEE15doNonDegenerateERKS3_RKNS_9IPositionE@Base 3.2.1~
 _ZN8casacore5ArrayISt7complexIdEE15postTakeStorageEv@Base 3.2.1~
 _ZN8casacore5ArrayISt7complexIdEE16ConstIteratorSTLC1EPKS2_@Base 3.2.1~
 _ZN8casacore5ArrayISt7complexIdEE16ConstIteratorSTLC1ERKNS3_11IteratorSTLE@Base 3.2.1~
 _ZN8casacore5ArrayISt7complexIdEE16ConstIteratorSTLC1ERKS3_@Base 3.2.1~
 _ZN8casacore5ArrayISt7complexIdEE16ConstIteratorSTLC2EPKS2_@Base 3.2.1~
 _ZN8casacore5ArrayISt7complexIdEE16ConstIteratorSTLC2ERKNS3_11IteratorSTLE@Base 3.2.1~
 _ZN8casacore5ArrayISt7complexIdEE16ConstIteratorSTLC2ERKS3_@Base 3.2.1~
 _ZN8casacore5ArrayISt7complexIdEE16ConstIteratorSTLppEi@Base 3.2.1~
 _ZN8casacore5ArrayISt7complexIdEE16ConstIteratorSTLppEv@Base 3.2.1~
 _ZN8casacore5ArrayISt7complexIdEE16ConstIteratorSTLptEv@Base 3.2.1~
 _ZN8casacore5ArrayISt7complexIdEE16copyMatchingPartERKS3_@Base 3.2.1~
 _ZN8casacore5ArrayISt7complexIdEE16removeDegenerateERKNS_9IPositionE@Base 3.2.1~
 _ZN8casacore5ArrayISt7complexIdEE16removeDegenerateEjb@Base 3.2.1~
 _ZN8casacore5ArrayISt7complexIdEE22defaultArrayInitPolicyEv@Base 3.2.1~
 _ZN8casacore5ArrayISt7complexIdEE23copyToContiguousStorageEPS2_RKS3_NS_15ArrayInitPolicyE@Base 3.2.1~
 _ZN8casacore5ArrayISt7complexIdEE3endEv@Base 3.2.1~
 _ZN8casacore5ArrayISt7complexIdEE3setERKS2_@Base 3.2.1~
 _ZN8casacore5ArrayISt7complexIdEE4cendEv@Base 3.2.1~
 _ZN8casacore5ArrayISt7complexIdEE4dataEv@Base 3.2.1~
 _ZN8casacore5ArrayISt7complexIdEE5applyEPFS2_RKS2_E@Base 3.2.1~
 _ZN8casacore5ArrayISt7complexIdEE5applyEPFS2_S2_E@Base 3.2.1~
 _ZN8casacore5ArrayISt7complexIdEE5applyERKNS_10FunctionalIS2_S2_EE@Base 3.2.1~
 _ZN8casacore5ArrayISt7complexIdEE5beginEv@Base 3.2.1~
 _ZN8casacore5ArrayISt7complexIdEE6assignERKS3_@Base 3.2.1~
 _ZN8casacore5ArrayISt7complexIdEE6cbeginEv@Base 3.2.1~
 _ZN8casacore5ArrayISt7complexIdEE6resizeERKNS_9IPositionEb@Base 3.2.1~
 _ZN8casacore5ArrayISt7complexIdEE6resizeERKNS_9IPositionEbNS_15ArrayInitPolicyE@Base 3.2.1~
 _ZN8casacore5ArrayISt7complexIdEE6resizeEv@Base 3.2.1~
 _ZN8casacore5ArrayISt7complexIdEE6uniqueEv@Base 3.2.1~
 _ZN8casacore5ArrayISt7complexIdEE9makeStepsEv@Base 3.2.1~
 _ZN8casacore5ArrayISt7complexIdEE9referenceERKS3_@Base 3.2.1~
 _ZN8casacore5ArrayISt7complexIdEEC1ENS_17Allocator_private9AllocSpecIS2_EE@Base 3.2.1~
 _ZN8casacore5ArrayISt7complexIdEEC1ERKNS_9IPositionE@Base 3.2.1~
 _ZN8casacore5ArrayISt7complexIdEEC1ERKNS_9IPositionENS_15ArrayInitPolicyE@Base 3.2.1~
 _ZN8casacore5ArrayISt7complexIdEEC1ERKNS_9IPositionENS_15ArrayInitPolicyEPNS_17Allocator_private13BulkAllocatorIS2_EE@Base 3.2.1~
 _ZN8casacore5ArrayISt7complexIdEEC1ERKNS_9IPositionEPKS2_@Base 3.2.1~
 _ZN8casacore5ArrayISt7complexIdEEC1ERKNS_9IPositionEPS2_NS_17StorageInitPolicyE@Base 3.2.1~
 _ZN8casacore5ArrayISt7complexIdEEC1ERKNS_9IPositionEPS2_NS_17StorageInitPolicyERKNS_17AbstractAllocatorIS2_EE@Base 3.2.1~
 _ZN8casacore5ArrayISt7complexIdEEC1ERKNS_9IPositionERKS2_@Base 3.2.1~
 _ZN8casacore5ArrayISt7complexIdEEC1ERKS3_@Base 3.2.1~
 _ZN8casacore5ArrayISt7complexIdEEC1Ev@Base 3.2.1~
 _ZN8casacore5ArrayISt7complexIdEEC2ENS_17Allocator_private9AllocSpecIS2_EE@Base 3.2.1~
 _ZN8casacore5ArrayISt7complexIdEEC2ERKNS_9IPositionE@Base 3.2.1~
 _ZN8casacore5ArrayISt7complexIdEEC2ERKNS_9IPositionENS_15ArrayInitPolicyE@Base 3.2.1~
 _ZN8casacore5ArrayISt7complexIdEEC2ERKNS_9IPositionENS_15ArrayInitPolicyEPNS_17Allocator_private13BulkAllocatorIS2_EE@Base 3.2.1~
 _ZN8casacore5ArrayISt7complexIdEEC2ERKNS_9IPositionEPKS2_@Base 3.2.1~
 _ZN8casacore5ArrayISt7complexIdEEC2ERKNS_9IPositionEPS2_NS_17StorageInitPolicyE@Base 3.2.1~
 _ZN8casacore5ArrayISt7complexIdEEC2ERKNS_9IPositionEPS2_NS_17StorageInitPolicyERKNS_17AbstractAllocatorIS2_EE@Base 3.2.1~
 _ZN8casacore5ArrayISt7complexIdEEC2ERKNS_9IPositionERKS2_@Base 3.2.1~
 _ZN8casacore5ArrayISt7complexIdEEC2ERKS3_@Base 3.2.1~
 _ZN8casacore5ArrayISt7complexIdEEC2Ev@Base 3.2.1~
 _ZN8casacore5ArrayISt7complexIdEED0Ev@Base 3.2.1~
 _ZN8casacore5ArrayISt7complexIdEED1Ev@Base 3.2.1~
 _ZN8casacore5ArrayISt7complexIdEED2Ev@Base 3.2.1~
 _ZN8casacore5ArrayISt7complexIdEEaSERKNS_11MaskedArrayIS2_EE@Base 3.2.1~
 _ZN8casacore5ArrayISt7complexIdEEaSERKS2_@Base 3.2.1~
 _ZN8casacore5ArrayISt7complexIdEEaSERKS3_@Base 3.2.1~
 _ZN8casacore5ArrayISt7complexIdEEclERKNS0_IbEE@Base 3.2.1~
 _ZN8casacore5ArrayISt7complexIdEEclERKNS_11MaskedArrayIbEE@Base 3.2.1~
 _ZN8casacore5ArrayISt7complexIdEEclERKNS_6SlicerE@Base 3.2.1~
 _ZN8casacore5ArrayISt7complexIdEEclERKNS_9IPositionE@Base 3.2.1~
 _ZN8casacore5ArrayISt7complexIdEEclERKNS_9IPositionES6_@Base 3.2.1~
 _ZN8casacore5ArrayISt7complexIdEEclERKNS_9IPositionES6_S6_@Base 3.2.1~
 _ZN8casacore5ArrayISt7complexIfEE10assignBaseERKNS_9ArrayBaseEb@Base 3.2.1~
 _ZN8casacore5ArrayISt7complexIfEE10getStorageERb@Base 3.2.1~
 _ZN8casacore5ArrayISt7complexIfEE10putStorageERPS2_b@Base 3.2.1~
 _ZN8casacore5ArrayISt7complexIfEE10setEndIterEv@Base 3.2.1~
 _ZN8casacore5ArrayISt7complexIfEE11IteratorSTLC1EPKS2_@Base 3.2.1~
 _ZN8casacore5ArrayISt7complexIfEE11IteratorSTLC1ERS3_@Base 3.2.1~
 _ZN8casacore5ArrayISt7complexIfEE11IteratorSTLC2EPKS2_@Base 3.2.1~
 _ZN8casacore5ArrayISt7complexIfEE11IteratorSTLC2ERS3_@Base 3.2.1~
 _ZN8casacore5ArrayISt7complexIfEE11IteratorSTLdeEv@Base 3.2.1~
 _ZN8casacore5ArrayISt7complexIfEE11IteratorSTLppEi@Base 3.2.1~
 _ZN8casacore5ArrayISt7complexIfEE11IteratorSTLppEv@Base 3.2.1~
 _ZN8casacore5ArrayISt7complexIfEE11IteratorSTLptEv@Base 3.2.1~
 _ZN8casacore5ArrayISt7complexIfEE11getVStorageERb@Base 3.2.1~
 _ZN8casacore5ArrayISt7complexIfEE11putVStorageERPvb@Base 3.2.1~
 _ZN8casacore5ArrayISt7complexIfEE11takeStorageERKNS_9IPositionEPKS2_@Base 3.2.1~
 _ZN8casacore5ArrayISt7complexIfEE11takeStorageERKNS_9IPositionEPKS2_RKNS_17AbstractAllocatorIS2_EE@Base 3.2.1~
 _ZN8casacore5ArrayISt7complexIfEE11takeStorageERKNS_9IPositionEPS2_NS_17StorageInitPolicyE@Base 3.2.1~
 _ZN8casacore5ArrayISt7complexIfEE11takeStorageERKNS_9IPositionEPS2_NS_17StorageInitPolicyERKNS_17AbstractAllocatorIS2_EE@Base 3.2.1~
 _ZN8casacore5ArrayISt7complexIfEE13addDegenerateEj@Base 3.2.1~
 _ZN8casacore5ArrayISt7complexIfEE13nonDegenerateERKS3_RKNS_9IPositionE@Base 3.2.1~
 _ZN8casacore5ArrayISt7complexIfEE13nonDegenerateERKS3_jb@Base 3.2.1~
 _ZN8casacore5ArrayISt7complexIfEE14adjustLastAxisERKNS_9IPositionEjb@Base 3.2.1~
 _ZN8casacore5ArrayISt7complexIfEE14preTakeStorageERKNS_9IPositionE@Base 3.2.1~
 _ZN8casacore5ArrayISt7complexIfEE14reformOrResizeERKNS_9IPositionEjb@Base 3.2.1~
 _ZN8casacore5ArrayISt7complexIfEE15BaseIteratorSTL6getPosEv@Base 3.2.1~
 _ZN8casacore5ArrayISt7complexIfEE15BaseIteratorSTL8nextElemEv@Base 3.2.1~
 _ZN8casacore5ArrayISt7complexIfEE15BaseIteratorSTL8nextLineEv@Base 3.2.1~
 _ZN8casacore5ArrayISt7complexIfEE15BaseIteratorSTL9incrementEv@Base 3.2.1~
 _ZN8casacore5ArrayISt7complexIfEE15BaseIteratorSTLC1EPKS2_@Base 3.2.1~
 _ZN8casacore5ArrayISt7complexIfEE15BaseIteratorSTLC1ERKS3_@Base 3.2.1~
 _ZN8casacore5ArrayISt7complexIfEE15BaseIteratorSTLC2EPKS2_@Base 3.2.1~
 _ZN8casacore5ArrayISt7complexIfEE15BaseIteratorSTLC2ERKS3_@Base 3.2.1~
 _ZN8casacore5ArrayISt7complexIfEE15doNonDegenerateERKS3_RKNS_9IPositionE@Base 3.2.1~
 _ZN8casacore5ArrayISt7complexIfEE15postTakeStorageEv@Base 3.2.1~
 _ZN8casacore5ArrayISt7complexIfEE16ConstIteratorSTLC1EPKS2_@Base 3.2.1~
 _ZN8casacore5ArrayISt7complexIfEE16ConstIteratorSTLC1ERKNS3_11IteratorSTLE@Base 3.2.1~
 _ZN8casacore5ArrayISt7complexIfEE16ConstIteratorSTLC1ERKS3_@Base 3.2.1~
 _ZN8casacore5ArrayISt7complexIfEE16ConstIteratorSTLC2EPKS2_@Base 3.2.1~
 _ZN8casacore5ArrayISt7complexIfEE16ConstIteratorSTLC2ERKNS3_11IteratorSTLE@Base 3.2.1~
 _ZN8casacore5ArrayISt7complexIfEE16ConstIteratorSTLC2ERKS3_@Base 3.2.1~
 _ZN8casacore5ArrayISt7complexIfEE16ConstIteratorSTLppEi@Base 3.2.1~
 _ZN8casacore5ArrayISt7complexIfEE16ConstIteratorSTLppEv@Base 3.2.1~
 _ZN8casacore5ArrayISt7complexIfEE16ConstIteratorSTLptEv@Base 3.2.1~
 _ZN8casacore5ArrayISt7complexIfEE16copyMatchingPartERKS3_@Base 3.2.1~
 _ZN8casacore5ArrayISt7complexIfEE16removeDegenerateERKNS_9IPositionE@Base 3.2.1~
 _ZN8casacore5ArrayISt7complexIfEE16removeDegenerateEjb@Base 3.2.1~
 _ZN8casacore5ArrayISt7complexIfEE22defaultArrayInitPolicyEv@Base 3.2.1~
 _ZN8casacore5ArrayISt7complexIfEE23copyToContiguousStorageEPS2_RKS3_NS_15ArrayInitPolicyE@Base 3.2.1~
 _ZN8casacore5ArrayISt7complexIfEE3endEv@Base 3.2.1~
 _ZN8casacore5ArrayISt7complexIfEE3setERKS2_@Base 3.2.1~
 _ZN8casacore5ArrayISt7complexIfEE4cendEv@Base 3.2.1~
 _ZN8casacore5ArrayISt7complexIfEE4dataEv@Base 3.2.1~
 _ZN8casacore5ArrayISt7complexIfEE5applyEPFS2_RKS2_E@Base 3.2.1~
 _ZN8casacore5ArrayISt7complexIfEE5applyEPFS2_S2_E@Base 3.2.1~
 _ZN8casacore5ArrayISt7complexIfEE5applyERKNS_10FunctionalIS2_S2_EE@Base 3.2.1~
 _ZN8casacore5ArrayISt7complexIfEE5beginEv@Base 3.2.1~
 _ZN8casacore5ArrayISt7complexIfEE6assignERKS3_@Base 3.2.1~
 _ZN8casacore5ArrayISt7complexIfEE6cbeginEv@Base 3.2.1~
 _ZN8casacore5ArrayISt7complexIfEE6resizeERKNS_9IPositionEb@Base 3.2.1~
 _ZN8casacore5ArrayISt7complexIfEE6resizeERKNS_9IPositionEbNS_15ArrayInitPolicyE@Base 3.2.1~
 _ZN8casacore5ArrayISt7complexIfEE6resizeEv@Base 3.2.1~
 _ZN8casacore5ArrayISt7complexIfEE6uniqueEv@Base 3.2.1~
 _ZN8casacore5ArrayISt7complexIfEE9makeStepsEv@Base 3.2.1~
 _ZN8casacore5ArrayISt7complexIfEE9referenceERKS3_@Base 3.2.1~
 _ZN8casacore5ArrayISt7complexIfEEC1ENS_17Allocator_private9AllocSpecIS2_EE@Base 3.2.1~
 _ZN8casacore5ArrayISt7complexIfEEC1ERKNS_9IPositionE@Base 3.2.1~
 _ZN8casacore5ArrayISt7complexIfEEC1ERKNS_9IPositionENS_15ArrayInitPolicyE@Base 3.2.1~
 _ZN8casacore5ArrayISt7complexIfEEC1ERKNS_9IPositionENS_15ArrayInitPolicyEPNS_17Allocator_private13BulkAllocatorIS2_EE@Base 3.2.1~
 _ZN8casacore5ArrayISt7complexIfEEC1ERKNS_9IPositionEPKS2_@Base 3.2.1~
 _ZN8casacore5ArrayISt7complexIfEEC1ERKNS_9IPositionEPS2_NS_17StorageInitPolicyE@Base 3.2.1~
 _ZN8casacore5ArrayISt7complexIfEEC1ERKNS_9IPositionEPS2_NS_17StorageInitPolicyERKNS_17AbstractAllocatorIS2_EE@Base 3.2.1~
 _ZN8casacore5ArrayISt7complexIfEEC1ERKNS_9IPositionERKS2_@Base 3.2.1~
 _ZN8casacore5ArrayISt7complexIfEEC1ERKS3_@Base 3.2.1~
 _ZN8casacore5ArrayISt7complexIfEEC1Ev@Base 3.2.1~
 _ZN8casacore5ArrayISt7complexIfEEC2ENS_17Allocator_private9AllocSpecIS2_EE@Base 3.2.1~
 _ZN8casacore5ArrayISt7complexIfEEC2ERKNS_9IPositionE@Base 3.2.1~
 _ZN8casacore5ArrayISt7complexIfEEC2ERKNS_9IPositionENS_15ArrayInitPolicyE@Base 3.2.1~
 _ZN8casacore5ArrayISt7complexIfEEC2ERKNS_9IPositionENS_15ArrayInitPolicyEPNS_17Allocator_private13BulkAllocatorIS2_EE@Base 3.2.1~
 _ZN8casacore5ArrayISt7complexIfEEC2ERKNS_9IPositionEPKS2_@Base 3.2.1~
 _ZN8casacore5ArrayISt7complexIfEEC2ERKNS_9IPositionEPS2_NS_17StorageInitPolicyE@Base 3.2.1~
 _ZN8casacore5ArrayISt7complexIfEEC2ERKNS_9IPositionEPS2_NS_17StorageInitPolicyERKNS_17AbstractAllocatorIS2_EE@Base 3.2.1~
 _ZN8casacore5ArrayISt7complexIfEEC2ERKNS_9IPositionERKS2_@Base 3.2.1~
 _ZN8casacore5ArrayISt7complexIfEEC2ERKS3_@Base 3.2.1~
 _ZN8casacore5ArrayISt7complexIfEEC2Ev@Base 3.2.1~
 _ZN8casacore5ArrayISt7complexIfEED0Ev@Base 3.2.1~
 _ZN8casacore5ArrayISt7complexIfEED1Ev@Base 3.2.1~
 _ZN8casacore5ArrayISt7complexIfEED2Ev@Base 3.2.1~
 _ZN8casacore5ArrayISt7complexIfEEaSERKNS_11MaskedArrayIS2_EE@Base 3.2.1~
 _ZN8casacore5ArrayISt7complexIfEEaSERKS2_@Base 3.2.1~
 _ZN8casacore5ArrayISt7complexIfEEaSERKS3_@Base 3.2.1~
 _ZN8casacore5ArrayISt7complexIfEEclERKNS0_IbEE@Base 3.2.1~
 _ZN8casacore5ArrayISt7complexIfEEclERKNS_11MaskedArrayIbEE@Base 3.2.1~
 _ZN8casacore5ArrayISt7complexIfEEclERKNS_6SlicerE@Base 3.2.1~
 _ZN8casacore5ArrayISt7complexIfEEclERKNS_9IPositionE@Base 3.2.1~
 _ZN8casacore5ArrayISt7complexIfEEclERKNS_9IPositionES6_@Base 3.2.1~
 _ZN8casacore5ArrayISt7complexIfEEclERKNS_9IPositionES6_S6_@Base 3.2.1~
 _ZN8casacore5ArrayIbE10assignBaseERKNS_9ArrayBaseEb@Base 3.2.1~
 _ZN8casacore5ArrayIbE10getStorageERb@Base 3.2.1~
 _ZN8casacore5ArrayIbE10putStorageERPbb@Base 3.2.1~
 _ZN8casacore5ArrayIbE10setEndIterEv@Base 3.2.1~
 _ZN8casacore5ArrayIbE11IteratorSTLC1EPKb@Base 3.2.1~
 _ZN8casacore5ArrayIbE11IteratorSTLC1ERS1_@Base 3.2.1~
 _ZN8casacore5ArrayIbE11IteratorSTLC2EPKb@Base 3.2.1~
 _ZN8casacore5ArrayIbE11IteratorSTLC2ERS1_@Base 3.2.1~
 _ZN8casacore5ArrayIbE11IteratorSTLdeEv@Base 3.2.1~
 _ZN8casacore5ArrayIbE11IteratorSTLppEi@Base 3.2.1~
 _ZN8casacore5ArrayIbE11IteratorSTLppEv@Base 3.2.1~
 _ZN8casacore5ArrayIbE11IteratorSTLptEv@Base 3.2.1~
 _ZN8casacore5ArrayIbE11getVStorageERb@Base 3.2.1~
 _ZN8casacore5ArrayIbE11putVStorageERPvb@Base 3.2.1~
 _ZN8casacore5ArrayIbE11takeStorageERKNS_9IPositionEPKb@Base 3.2.1~
 _ZN8casacore5ArrayIbE11takeStorageERKNS_9IPositionEPKbRKNS_17AbstractAllocatorIbEE@Base 3.2.1~
 _ZN8casacore5ArrayIbE11takeStorageERKNS_9IPositionEPbNS_17StorageInitPolicyE@Base 3.2.1~
 _ZN8casacore5ArrayIbE11takeStorageERKNS_9IPositionEPbNS_17StorageInitPolicyERKNS_17AbstractAllocatorIbEE@Base 3.2.1~
 _ZN8casacore5ArrayIbE13addDegenerateEj@Base 3.2.1~
 _ZN8casacore5ArrayIbE13nonDegenerateERKS1_RKNS_9IPositionE@Base 3.2.1~
 _ZN8casacore5ArrayIbE13nonDegenerateERKS1_jb@Base 3.2.1~
 _ZN8casacore5ArrayIbE14adjustLastAxisERKNS_9IPositionEjb@Base 3.2.1~
 _ZN8casacore5ArrayIbE14preTakeStorageERKNS_9IPositionE@Base 3.2.1~
 _ZN8casacore5ArrayIbE14reformOrResizeERKNS_9IPositionEjb@Base 3.2.1~
 _ZN8casacore5ArrayIbE15BaseIteratorSTL6getPosEv@Base 3.2.1~
 _ZN8casacore5ArrayIbE15BaseIteratorSTL8nextElemEv@Base 3.2.1~
 _ZN8casacore5ArrayIbE15BaseIteratorSTL8nextLineEv@Base 3.2.1~
 _ZN8casacore5ArrayIbE15BaseIteratorSTL9incrementEv@Base 3.2.1~
 _ZN8casacore5ArrayIbE15BaseIteratorSTLC1EPKb@Base 3.2.1~
 _ZN8casacore5ArrayIbE15BaseIteratorSTLC1ERKS1_@Base 3.2.1~
 _ZN8casacore5ArrayIbE15BaseIteratorSTLC2EPKb@Base 3.2.1~
 _ZN8casacore5ArrayIbE15BaseIteratorSTLC2ERKS1_@Base 3.2.1~
 _ZN8casacore5ArrayIbE15doNonDegenerateERKS1_RKNS_9IPositionE@Base 3.2.1~
 _ZN8casacore5ArrayIbE15postTakeStorageEv@Base 3.2.1~
 _ZN8casacore5ArrayIbE16ConstIteratorSTLC1EPKb@Base 3.2.1~
 _ZN8casacore5ArrayIbE16ConstIteratorSTLC1ERKNS1_11IteratorSTLE@Base 3.2.1~
 _ZN8casacore5ArrayIbE16ConstIteratorSTLC1ERKS1_@Base 3.2.1~
 _ZN8casacore5ArrayIbE16ConstIteratorSTLC2EPKb@Base 3.2.1~
 _ZN8casacore5ArrayIbE16ConstIteratorSTLC2ERKNS1_11IteratorSTLE@Base 3.2.1~
 _ZN8casacore5ArrayIbE16ConstIteratorSTLC2ERKS1_@Base 3.2.1~
 _ZN8casacore5ArrayIbE16ConstIteratorSTLppEi@Base 3.2.1~
 _ZN8casacore5ArrayIbE16ConstIteratorSTLppEv@Base 3.2.1~
 _ZN8casacore5ArrayIbE16ConstIteratorSTLptEv@Base 3.2.1~
 _ZN8casacore5ArrayIbE16copyMatchingPartERKS1_@Base 3.2.1~
 _ZN8casacore5ArrayIbE16removeDegenerateERKNS_9IPositionE@Base 3.2.1~
 _ZN8casacore5ArrayIbE16removeDegenerateEjb@Base 3.2.1~
 _ZN8casacore5ArrayIbE22defaultArrayInitPolicyEv@Base 3.2.1~
 _ZN8casacore5ArrayIbE23copyToContiguousStorageEPbRKS1_NS_15ArrayInitPolicyE@Base 3.2.1~
 _ZN8casacore5ArrayIbE3endEv@Base 3.2.1~
 _ZN8casacore5ArrayIbE3setERKb@Base 3.2.1~
 _ZN8casacore5ArrayIbE4cendEv@Base 3.2.1~
 _ZN8casacore5ArrayIbE4dataEv@Base 3.2.1~
 _ZN8casacore5ArrayIbE5applyEPFbRKbE@Base 3.2.1~
 _ZN8casacore5ArrayIbE5applyEPFbbE@Base 3.2.1~
 _ZN8casacore5ArrayIbE5applyERKNS_10FunctionalIbbEE@Base 3.2.1~
 _ZN8casacore5ArrayIbE5beginEv@Base 3.2.1~
 _ZN8casacore5ArrayIbE6assignERKS1_@Base 3.2.1~
 _ZN8casacore5ArrayIbE6cbeginEv@Base 3.2.1~
 _ZN8casacore5ArrayIbE6resizeERKNS_9IPositionEb@Base 3.2.1~
 _ZN8casacore5ArrayIbE6resizeERKNS_9IPositionEbNS_15ArrayInitPolicyE@Base 3.2.1~
 _ZN8casacore5ArrayIbE6resizeEv@Base 3.2.1~
 _ZN8casacore5ArrayIbE6uniqueEv@Base 3.2.1~
 _ZN8casacore5ArrayIbE9makeStepsEv@Base 3.2.1~
 _ZN8casacore5ArrayIbE9referenceERKS1_@Base 3.2.1~
 _ZN8casacore5ArrayIbEC1ENS_17Allocator_private9AllocSpecIbEE@Base 3.2.1~
 _ZN8casacore5ArrayIbEC1ERKNS_9IPositionE@Base 3.2.1~
 _ZN8casacore5ArrayIbEC1ERKNS_9IPositionENS_15ArrayInitPolicyE@Base 3.2.1~
 _ZN8casacore5ArrayIbEC1ERKNS_9IPositionENS_15ArrayInitPolicyEPNS_17Allocator_private13BulkAllocatorIbEE@Base 3.2.1~
 _ZN8casacore5ArrayIbEC1ERKNS_9IPositionEPKb@Base 3.2.1~
 _ZN8casacore5ArrayIbEC1ERKNS_9IPositionEPbNS_17StorageInitPolicyE@Base 3.2.1~
 _ZN8casacore5ArrayIbEC1ERKNS_9IPositionEPbNS_17StorageInitPolicyERKNS_17AbstractAllocatorIbEE@Base 3.2.1~
 _ZN8casacore5ArrayIbEC1ERKNS_9IPositionERKb@Base 3.2.1~
 _ZN8casacore5ArrayIbEC1ERKS1_@Base 3.2.1~
 _ZN8casacore5ArrayIbEC1Ev@Base 3.2.1~
 _ZN8casacore5ArrayIbEC2ENS_17Allocator_private9AllocSpecIbEE@Base 3.2.1~
 _ZN8casacore5ArrayIbEC2ERKNS_9IPositionE@Base 3.2.1~
 _ZN8casacore5ArrayIbEC2ERKNS_9IPositionENS_15ArrayInitPolicyE@Base 3.2.1~
 _ZN8casacore5ArrayIbEC2ERKNS_9IPositionENS_15ArrayInitPolicyEPNS_17Allocator_private13BulkAllocatorIbEE@Base 3.2.1~
 _ZN8casacore5ArrayIbEC2ERKNS_9IPositionEPKb@Base 3.2.1~
 _ZN8casacore5ArrayIbEC2ERKNS_9IPositionEPbNS_17StorageInitPolicyE@Base 3.2.1~
 _ZN8casacore5ArrayIbEC2ERKNS_9IPositionEPbNS_17StorageInitPolicyERKNS_17AbstractAllocatorIbEE@Base 3.2.1~
 _ZN8casacore5ArrayIbEC2ERKNS_9IPositionERKb@Base 3.2.1~
 _ZN8casacore5ArrayIbEC2ERKS1_@Base 3.2.1~
 _ZN8casacore5ArrayIbEC2Ev@Base 3.2.1~
 _ZN8casacore5ArrayIbED0Ev@Base 3.2.1~
 _ZN8casacore5ArrayIbED1Ev@Base 3.2.1~
 _ZN8casacore5ArrayIbED2Ev@Base 3.2.1~
 _ZN8casacore5ArrayIbEaSERKNS_11MaskedArrayIbEE@Base 3.2.1~
 _ZN8casacore5ArrayIbEaSERKS1_@Base 3.2.1~
 _ZN8casacore5ArrayIbEaSERKb@Base 3.2.1~
 _ZN8casacore5ArrayIbEclERKNS_11MaskedArrayIbEE@Base 3.2.1~
 _ZN8casacore5ArrayIbEclERKNS_6SlicerE@Base 3.2.1~
 _ZN8casacore5ArrayIbEclERKNS_9IPositionE@Base 3.2.1~
 _ZN8casacore5ArrayIbEclERKNS_9IPositionES4_@Base 3.2.1~
 _ZN8casacore5ArrayIbEclERKNS_9IPositionES4_S4_@Base 3.2.1~
 _ZN8casacore5ArrayIbEclERKS1_@Base 3.2.1~
 _ZN8casacore5ArrayIcE10assignBaseERKNS_9ArrayBaseEb@Base 3.2.1~
 _ZN8casacore5ArrayIcE10getStorageERb@Base 3.2.1~
 _ZN8casacore5ArrayIcE10putStorageERPcb@Base 3.2.1~
 _ZN8casacore5ArrayIcE10setEndIterEv@Base 3.2.1~
 _ZN8casacore5ArrayIcE11IteratorSTLC1EPKc@Base 3.2.1~
 _ZN8casacore5ArrayIcE11IteratorSTLC1ERS1_@Base 3.2.1~
 _ZN8casacore5ArrayIcE11IteratorSTLC2EPKc@Base 3.2.1~
 _ZN8casacore5ArrayIcE11IteratorSTLC2ERS1_@Base 3.2.1~
 _ZN8casacore5ArrayIcE11IteratorSTLdeEv@Base 3.2.1~
 _ZN8casacore5ArrayIcE11IteratorSTLppEi@Base 3.2.1~
 _ZN8casacore5ArrayIcE11IteratorSTLppEv@Base 3.2.1~
 _ZN8casacore5ArrayIcE11IteratorSTLptEv@Base 3.2.1~
 _ZN8casacore5ArrayIcE11getVStorageERb@Base 3.2.1~
 _ZN8casacore5ArrayIcE11putVStorageERPvb@Base 3.2.1~
 _ZN8casacore5ArrayIcE11takeStorageERKNS_9IPositionEPKc@Base 3.2.1~
 _ZN8casacore5ArrayIcE11takeStorageERKNS_9IPositionEPKcRKNS_17AbstractAllocatorIcEE@Base 3.2.1~
 _ZN8casacore5ArrayIcE11takeStorageERKNS_9IPositionEPcNS_17StorageInitPolicyE@Base 3.2.1~
 _ZN8casacore5ArrayIcE11takeStorageERKNS_9IPositionEPcNS_17StorageInitPolicyERKNS_17AbstractAllocatorIcEE@Base 3.2.1~
 _ZN8casacore5ArrayIcE13addDegenerateEj@Base 3.2.1~
 _ZN8casacore5ArrayIcE13nonDegenerateERKS1_RKNS_9IPositionE@Base 3.2.1~
 _ZN8casacore5ArrayIcE13nonDegenerateERKS1_jb@Base 3.2.1~
 _ZN8casacore5ArrayIcE14adjustLastAxisERKNS_9IPositionEjb@Base 3.2.1~
 _ZN8casacore5ArrayIcE14preTakeStorageERKNS_9IPositionE@Base 3.2.1~
 _ZN8casacore5ArrayIcE14reformOrResizeERKNS_9IPositionEjb@Base 3.2.1~
 _ZN8casacore5ArrayIcE15BaseIteratorSTL6getPosEv@Base 3.2.1~
 _ZN8casacore5ArrayIcE15BaseIteratorSTL8nextElemEv@Base 3.2.1~
 _ZN8casacore5ArrayIcE15BaseIteratorSTL8nextLineEv@Base 3.2.1~
 _ZN8casacore5ArrayIcE15BaseIteratorSTL9incrementEv@Base 3.2.1~
 _ZN8casacore5ArrayIcE15BaseIteratorSTLC1EPKc@Base 3.2.1~
 _ZN8casacore5ArrayIcE15BaseIteratorSTLC1ERKS1_@Base 3.2.1~
 _ZN8casacore5ArrayIcE15BaseIteratorSTLC2EPKc@Base 3.2.1~
 _ZN8casacore5ArrayIcE15BaseIteratorSTLC2ERKS1_@Base 3.2.1~
 _ZN8casacore5ArrayIcE15doNonDegenerateERKS1_RKNS_9IPositionE@Base 3.2.1~
 _ZN8casacore5ArrayIcE15postTakeStorageEv@Base 3.2.1~
 _ZN8casacore5ArrayIcE16ConstIteratorSTLC1EPKc@Base 3.2.1~
 _ZN8casacore5ArrayIcE16ConstIteratorSTLC1ERKNS1_11IteratorSTLE@Base 3.2.1~
 _ZN8casacore5ArrayIcE16ConstIteratorSTLC1ERKS1_@Base 3.2.1~
 _ZN8casacore5ArrayIcE16ConstIteratorSTLC2EPKc@Base 3.2.1~
 _ZN8casacore5ArrayIcE16ConstIteratorSTLC2ERKNS1_11IteratorSTLE@Base 3.2.1~
 _ZN8casacore5ArrayIcE16ConstIteratorSTLC2ERKS1_@Base 3.2.1~
 _ZN8casacore5ArrayIcE16ConstIteratorSTLppEi@Base 3.2.1~
 _ZN8casacore5ArrayIcE16ConstIteratorSTLppEv@Base 3.2.1~
 _ZN8casacore5ArrayIcE16ConstIteratorSTLptEv@Base 3.2.1~
 _ZN8casacore5ArrayIcE16copyMatchingPartERKS1_@Base 3.2.1~
 _ZN8casacore5ArrayIcE16removeDegenerateERKNS_9IPositionE@Base 3.2.1~
 _ZN8casacore5ArrayIcE16removeDegenerateEjb@Base 3.2.1~
 _ZN8casacore5ArrayIcE22defaultArrayInitPolicyEv@Base 3.2.1~
 _ZN8casacore5ArrayIcE23copyToContiguousStorageEPcRKS1_NS_15ArrayInitPolicyE@Base 3.2.1~
 _ZN8casacore5ArrayIcE3endEv@Base 3.2.1~
 _ZN8casacore5ArrayIcE3setERKc@Base 3.2.1~
 _ZN8casacore5ArrayIcE4cendEv@Base 3.2.1~
 _ZN8casacore5ArrayIcE4dataEv@Base 3.2.1~
 _ZN8casacore5ArrayIcE5applyEPFcRKcE@Base 3.2.1~
 _ZN8casacore5ArrayIcE5applyEPFccE@Base 3.2.1~
 _ZN8casacore5ArrayIcE5applyERKNS_10FunctionalIccEE@Base 3.2.1~
 _ZN8casacore5ArrayIcE5beginEv@Base 3.2.1~
 _ZN8casacore5ArrayIcE6assignERKS1_@Base 3.2.1~
 _ZN8casacore5ArrayIcE6cbeginEv@Base 3.2.1~
 _ZN8casacore5ArrayIcE6resizeERKNS_9IPositionEb@Base 3.2.1~
 _ZN8casacore5ArrayIcE6resizeERKNS_9IPositionEbNS_15ArrayInitPolicyE@Base 3.2.1~
 _ZN8casacore5ArrayIcE6resizeEv@Base 3.2.1~
 _ZN8casacore5ArrayIcE6uniqueEv@Base 3.2.1~
 _ZN8casacore5ArrayIcE9makeStepsEv@Base 3.2.1~
 _ZN8casacore5ArrayIcE9referenceERKS1_@Base 3.2.1~
 _ZN8casacore5ArrayIcEC1ENS_17Allocator_private9AllocSpecIcEE@Base 3.2.1~
 _ZN8casacore5ArrayIcEC1ERKNS_9IPositionE@Base 3.2.1~
 _ZN8casacore5ArrayIcEC1ERKNS_9IPositionENS_15ArrayInitPolicyE@Base 3.2.1~
 _ZN8casacore5ArrayIcEC1ERKNS_9IPositionENS_15ArrayInitPolicyEPNS_17Allocator_private13BulkAllocatorIcEE@Base 3.2.1~
 _ZN8casacore5ArrayIcEC1ERKNS_9IPositionEPKc@Base 3.2.1~
 _ZN8casacore5ArrayIcEC1ERKNS_9IPositionEPcNS_17StorageInitPolicyE@Base 3.2.1~
 _ZN8casacore5ArrayIcEC1ERKNS_9IPositionEPcNS_17StorageInitPolicyERKNS_17AbstractAllocatorIcEE@Base 3.2.1~
 _ZN8casacore5ArrayIcEC1ERKNS_9IPositionERKc@Base 3.2.1~
 _ZN8casacore5ArrayIcEC1ERKS1_@Base 3.2.1~
 _ZN8casacore5ArrayIcEC1Ev@Base 3.2.1~
 _ZN8casacore5ArrayIcEC2ENS_17Allocator_private9AllocSpecIcEE@Base 3.2.1~
 _ZN8casacore5ArrayIcEC2ERKNS_9IPositionE@Base 3.2.1~
 _ZN8casacore5ArrayIcEC2ERKNS_9IPositionENS_15ArrayInitPolicyE@Base 3.2.1~
 _ZN8casacore5ArrayIcEC2ERKNS_9IPositionENS_15ArrayInitPolicyEPNS_17Allocator_private13BulkAllocatorIcEE@Base 3.2.1~
 _ZN8casacore5ArrayIcEC2ERKNS_9IPositionEPKc@Base 3.2.1~
 _ZN8casacore5ArrayIcEC2ERKNS_9IPositionEPcNS_17StorageInitPolicyE@Base 3.2.1~
 _ZN8casacore5ArrayIcEC2ERKNS_9IPositionEPcNS_17StorageInitPolicyERKNS_17AbstractAllocatorIcEE@Base 3.2.1~
 _ZN8casacore5ArrayIcEC2ERKNS_9IPositionERKc@Base 3.2.1~
 _ZN8casacore5ArrayIcEC2ERKS1_@Base 3.2.1~
 _ZN8casacore5ArrayIcEC2Ev@Base 3.2.1~
 _ZN8casacore5ArrayIcED0Ev@Base 3.2.1~
 _ZN8casacore5ArrayIcED1Ev@Base 3.2.1~
 _ZN8casacore5ArrayIcED2Ev@Base 3.2.1~
 _ZN8casacore5ArrayIcEaSERKNS_11MaskedArrayIcEE@Base 3.2.1~
 _ZN8casacore5ArrayIcEaSERKS1_@Base 3.2.1~
 _ZN8casacore5ArrayIcEaSERKc@Base 3.2.1~
 _ZN8casacore5ArrayIcEclERKNS0_IbEE@Base 3.2.1~
 _ZN8casacore5ArrayIcEclERKNS_11MaskedArrayIbEE@Base 3.2.1~
 _ZN8casacore5ArrayIcEclERKNS_6SlicerE@Base 3.2.1~
 _ZN8casacore5ArrayIcEclERKNS_9IPositionE@Base 3.2.1~
 _ZN8casacore5ArrayIcEclERKNS_9IPositionES4_@Base 3.2.1~
 _ZN8casacore5ArrayIcEclERKNS_9IPositionES4_S4_@Base 3.2.1~
 _ZN8casacore5ArrayIdE10assignBaseERKNS_9ArrayBaseEb@Base 3.2.1~
 _ZN8casacore5ArrayIdE10getStorageERb@Base 3.2.1~
 _ZN8casacore5ArrayIdE10putStorageERPdb@Base 3.2.1~
 _ZN8casacore5ArrayIdE10setEndIterEv@Base 3.2.1~
 _ZN8casacore5ArrayIdE11IteratorSTLC1EPKd@Base 3.2.1~
 _ZN8casacore5ArrayIdE11IteratorSTLC1ERS1_@Base 3.2.1~
 _ZN8casacore5ArrayIdE11IteratorSTLC2EPKd@Base 3.2.1~
 _ZN8casacore5ArrayIdE11IteratorSTLC2ERS1_@Base 3.2.1~
 _ZN8casacore5ArrayIdE11IteratorSTLdeEv@Base 3.2.1~
 _ZN8casacore5ArrayIdE11IteratorSTLppEi@Base 3.2.1~
 _ZN8casacore5ArrayIdE11IteratorSTLppEv@Base 3.2.1~
 _ZN8casacore5ArrayIdE11IteratorSTLptEv@Base 3.2.1~
 _ZN8casacore5ArrayIdE11getVStorageERb@Base 3.2.1~
 _ZN8casacore5ArrayIdE11putVStorageERPvb@Base 3.2.1~
 _ZN8casacore5ArrayIdE11takeStorageERKNS_9IPositionEPKd@Base 3.2.1~
 _ZN8casacore5ArrayIdE11takeStorageERKNS_9IPositionEPKdRKNS_17AbstractAllocatorIdEE@Base 3.2.1~
 _ZN8casacore5ArrayIdE11takeStorageERKNS_9IPositionEPdNS_17StorageInitPolicyE@Base 3.2.1~
 _ZN8casacore5ArrayIdE11takeStorageERKNS_9IPositionEPdNS_17StorageInitPolicyERKNS_17AbstractAllocatorIdEE@Base 3.2.1~
 _ZN8casacore5ArrayIdE13addDegenerateEj@Base 3.2.1~
 _ZN8casacore5ArrayIdE13nonDegenerateERKS1_RKNS_9IPositionE@Base 3.2.1~
 _ZN8casacore5ArrayIdE13nonDegenerateERKS1_jb@Base 3.2.1~
 _ZN8casacore5ArrayIdE14adjustLastAxisERKNS_9IPositionEjb@Base 3.2.1~
 _ZN8casacore5ArrayIdE14preTakeStorageERKNS_9IPositionE@Base 3.2.1~
 _ZN8casacore5ArrayIdE14reformOrResizeERKNS_9IPositionEjb@Base 3.2.1~
 _ZN8casacore5ArrayIdE15BaseIteratorSTL6getPosEv@Base 3.2.1~
 _ZN8casacore5ArrayIdE15BaseIteratorSTL8nextElemEv@Base 3.2.1~
 _ZN8casacore5ArrayIdE15BaseIteratorSTL8nextLineEv@Base 3.2.1~
 _ZN8casacore5ArrayIdE15BaseIteratorSTL9incrementEv@Base 3.2.1~
 _ZN8casacore5ArrayIdE15BaseIteratorSTLC1EPKd@Base 3.2.1~
 _ZN8casacore5ArrayIdE15BaseIteratorSTLC1ERKS1_@Base 3.2.1~
 _ZN8casacore5ArrayIdE15BaseIteratorSTLC2EPKd@Base 3.2.1~
 _ZN8casacore5ArrayIdE15BaseIteratorSTLC2ERKS1_@Base 3.2.1~
 _ZN8casacore5ArrayIdE15doNonDegenerateERKS1_RKNS_9IPositionE@Base 3.2.1~
 _ZN8casacore5ArrayIdE15postTakeStorageEv@Base 3.2.1~
 _ZN8casacore5ArrayIdE16ConstIteratorSTLC1EPKd@Base 3.2.1~
 _ZN8casacore5ArrayIdE16ConstIteratorSTLC1ERKNS1_11IteratorSTLE@Base 3.2.1~
 _ZN8casacore5ArrayIdE16ConstIteratorSTLC1ERKS1_@Base 3.2.1~
 _ZN8casacore5ArrayIdE16ConstIteratorSTLC2EPKd@Base 3.2.1~
 _ZN8casacore5ArrayIdE16ConstIteratorSTLC2ERKNS1_11IteratorSTLE@Base 3.2.1~
 _ZN8casacore5ArrayIdE16ConstIteratorSTLC2ERKS1_@Base 3.2.1~
 _ZN8casacore5ArrayIdE16ConstIteratorSTLppEi@Base 3.2.1~
 _ZN8casacore5ArrayIdE16ConstIteratorSTLppEv@Base 3.2.1~
 _ZN8casacore5ArrayIdE16ConstIteratorSTLptEv@Base 3.2.1~
 _ZN8casacore5ArrayIdE16copyMatchingPartERKS1_@Base 3.2.1~
 _ZN8casacore5ArrayIdE16removeDegenerateERKNS_9IPositionE@Base 3.2.1~
 _ZN8casacore5ArrayIdE16removeDegenerateEjb@Base 3.2.1~
 _ZN8casacore5ArrayIdE22defaultArrayInitPolicyEv@Base 3.2.1~
 _ZN8casacore5ArrayIdE23copyToContiguousStorageEPdRKS1_NS_15ArrayInitPolicyE@Base 3.2.1~
 _ZN8casacore5ArrayIdE3endEv@Base 3.2.1~
 _ZN8casacore5ArrayIdE3setERKd@Base 3.2.1~
 _ZN8casacore5ArrayIdE4cendEv@Base 3.2.1~
 _ZN8casacore5ArrayIdE4dataEv@Base 3.2.1~
 _ZN8casacore5ArrayIdE5applyEPFdRKdE@Base 3.2.1~
 _ZN8casacore5ArrayIdE5applyEPFddE@Base 3.2.1~
 _ZN8casacore5ArrayIdE5applyERKNS_10FunctionalIddEE@Base 3.2.1~
 _ZN8casacore5ArrayIdE5beginEv@Base 3.2.1~
 _ZN8casacore5ArrayIdE6assignERKS1_@Base 3.2.1~
 _ZN8casacore5ArrayIdE6cbeginEv@Base 3.2.1~
 _ZN8casacore5ArrayIdE6resizeERKNS_9IPositionEb@Base 3.2.1~
 _ZN8casacore5ArrayIdE6resizeERKNS_9IPositionEbNS_15ArrayInitPolicyE@Base 3.2.1~
 _ZN8casacore5ArrayIdE6resizeEv@Base 3.2.1~
 _ZN8casacore5ArrayIdE6uniqueEv@Base 3.2.1~
 _ZN8casacore5ArrayIdE9makeStepsEv@Base 3.2.1~
 _ZN8casacore5ArrayIdE9referenceERKS1_@Base 3.2.1~
 _ZN8casacore5ArrayIdEC1ENS_17Allocator_private9AllocSpecIdEE@Base 3.2.1~
 _ZN8casacore5ArrayIdEC1ERKNS_9IPositionE@Base 3.2.1~
 _ZN8casacore5ArrayIdEC1ERKNS_9IPositionENS_15ArrayInitPolicyE@Base 3.2.1~
 _ZN8casacore5ArrayIdEC1ERKNS_9IPositionENS_15ArrayInitPolicyEPNS_17Allocator_private13BulkAllocatorIdEE@Base 3.2.1~
 _ZN8casacore5ArrayIdEC1ERKNS_9IPositionEPKd@Base 3.2.1~
 _ZN8casacore5ArrayIdEC1ERKNS_9IPositionEPdNS_17StorageInitPolicyE@Base 3.2.1~
 _ZN8casacore5ArrayIdEC1ERKNS_9IPositionEPdNS_17StorageInitPolicyERKNS_17AbstractAllocatorIdEE@Base 3.2.1~
 _ZN8casacore5ArrayIdEC1ERKNS_9IPositionERKd@Base 3.2.1~
 _ZN8casacore5ArrayIdEC1ERKS1_@Base 3.2.1~
 _ZN8casacore5ArrayIdEC1Ev@Base 3.2.1~
 _ZN8casacore5ArrayIdEC2ENS_17Allocator_private9AllocSpecIdEE@Base 3.2.1~
 _ZN8casacore5ArrayIdEC2ERKNS_9IPositionE@Base 3.2.1~
 _ZN8casacore5ArrayIdEC2ERKNS_9IPositionENS_15ArrayInitPolicyE@Base 3.2.1~
 _ZN8casacore5ArrayIdEC2ERKNS_9IPositionENS_15ArrayInitPolicyEPNS_17Allocator_private13BulkAllocatorIdEE@Base 3.2.1~
 _ZN8casacore5ArrayIdEC2ERKNS_9IPositionEPKd@Base 3.2.1~
 _ZN8casacore5ArrayIdEC2ERKNS_9IPositionEPdNS_17StorageInitPolicyE@Base 3.2.1~
 _ZN8casacore5ArrayIdEC2ERKNS_9IPositionEPdNS_17StorageInitPolicyERKNS_17AbstractAllocatorIdEE@Base 3.2.1~
 _ZN8casacore5ArrayIdEC2ERKNS_9IPositionERKd@Base 3.2.1~
 _ZN8casacore5ArrayIdEC2ERKS1_@Base 3.2.1~
 _ZN8casacore5ArrayIdEC2Ev@Base 3.2.1~
 _ZN8casacore5ArrayIdED0Ev@Base 3.2.1~
 _ZN8casacore5ArrayIdED1Ev@Base 3.2.1~
 _ZN8casacore5ArrayIdED2Ev@Base 3.2.1~
 _ZN8casacore5ArrayIdEaSERKNS_11MaskedArrayIdEE@Base 3.2.1~
 _ZN8casacore5ArrayIdEaSERKS1_@Base 3.2.1~
 _ZN8casacore5ArrayIdEaSERKd@Base 3.2.1~
 _ZN8casacore5ArrayIdEclERKNS0_IbEE@Base 3.2.1~
 _ZN8casacore5ArrayIdEclERKNS_11MaskedArrayIbEE@Base 3.2.1~
 _ZN8casacore5ArrayIdEclERKNS_6SlicerE@Base 3.2.1~
 _ZN8casacore5ArrayIdEclERKNS_9IPositionE@Base 3.2.1~
 _ZN8casacore5ArrayIdEclERKNS_9IPositionES4_@Base 3.2.1~
 _ZN8casacore5ArrayIdEclERKNS_9IPositionES4_S4_@Base 3.2.1~
 _ZN8casacore5ArrayIfE10assignBaseERKNS_9ArrayBaseEb@Base 3.2.1~
 _ZN8casacore5ArrayIfE10getStorageERb@Base 3.2.1~
 _ZN8casacore5ArrayIfE10putStorageERPfb@Base 3.2.1~
 _ZN8casacore5ArrayIfE10setEndIterEv@Base 3.2.1~
 _ZN8casacore5ArrayIfE11IteratorSTLC1EPKf@Base 3.2.1~
 _ZN8casacore5ArrayIfE11IteratorSTLC1ERS1_@Base 3.2.1~
 _ZN8casacore5ArrayIfE11IteratorSTLC2EPKf@Base 3.2.1~
 _ZN8casacore5ArrayIfE11IteratorSTLC2ERS1_@Base 3.2.1~
 _ZN8casacore5ArrayIfE11IteratorSTLdeEv@Base 3.2.1~
 _ZN8casacore5ArrayIfE11IteratorSTLppEi@Base 3.2.1~
 _ZN8casacore5ArrayIfE11IteratorSTLppEv@Base 3.2.1~
 _ZN8casacore5ArrayIfE11IteratorSTLptEv@Base 3.2.1~
 _ZN8casacore5ArrayIfE11getVStorageERb@Base 3.2.1~
 _ZN8casacore5ArrayIfE11putVStorageERPvb@Base 3.2.1~
 _ZN8casacore5ArrayIfE11takeStorageERKNS_9IPositionEPKf@Base 3.2.1~
 _ZN8casacore5ArrayIfE11takeStorageERKNS_9IPositionEPKfRKNS_17AbstractAllocatorIfEE@Base 3.2.1~
 _ZN8casacore5ArrayIfE11takeStorageERKNS_9IPositionEPfNS_17StorageInitPolicyE@Base 3.2.1~
 _ZN8casacore5ArrayIfE11takeStorageERKNS_9IPositionEPfNS_17StorageInitPolicyERKNS_17AbstractAllocatorIfEE@Base 3.2.1~
 _ZN8casacore5ArrayIfE13addDegenerateEj@Base 3.2.1~
 _ZN8casacore5ArrayIfE13nonDegenerateERKS1_RKNS_9IPositionE@Base 3.2.1~
 _ZN8casacore5ArrayIfE13nonDegenerateERKS1_jb@Base 3.2.1~
 _ZN8casacore5ArrayIfE14adjustLastAxisERKNS_9IPositionEjb@Base 3.2.1~
 _ZN8casacore5ArrayIfE14preTakeStorageERKNS_9IPositionE@Base 3.2.1~
 _ZN8casacore5ArrayIfE14reformOrResizeERKNS_9IPositionEjb@Base 3.2.1~
 _ZN8casacore5ArrayIfE15BaseIteratorSTL6getPosEv@Base 3.2.1~
 _ZN8casacore5ArrayIfE15BaseIteratorSTL8nextElemEv@Base 3.2.1~
 _ZN8casacore5ArrayIfE15BaseIteratorSTL8nextLineEv@Base 3.2.1~
 _ZN8casacore5ArrayIfE15BaseIteratorSTL9incrementEv@Base 3.2.1~
 _ZN8casacore5ArrayIfE15BaseIteratorSTLC1EPKf@Base 3.2.1~
 _ZN8casacore5ArrayIfE15BaseIteratorSTLC1ERKS1_@Base 3.2.1~
 _ZN8casacore5ArrayIfE15BaseIteratorSTLC2EPKf@Base 3.2.1~
 _ZN8casacore5ArrayIfE15BaseIteratorSTLC2ERKS1_@Base 3.2.1~
 _ZN8casacore5ArrayIfE15doNonDegenerateERKS1_RKNS_9IPositionE@Base 3.2.1~
 _ZN8casacore5ArrayIfE15postTakeStorageEv@Base 3.2.1~
 _ZN8casacore5ArrayIfE16ConstIteratorSTLC1EPKf@Base 3.2.1~
 _ZN8casacore5ArrayIfE16ConstIteratorSTLC1ERKNS1_11IteratorSTLE@Base 3.2.1~
 _ZN8casacore5ArrayIfE16ConstIteratorSTLC1ERKS1_@Base 3.2.1~
 _ZN8casacore5ArrayIfE16ConstIteratorSTLC2EPKf@Base 3.2.1~
 _ZN8casacore5ArrayIfE16ConstIteratorSTLC2ERKNS1_11IteratorSTLE@Base 3.2.1~
 _ZN8casacore5ArrayIfE16ConstIteratorSTLC2ERKS1_@Base 3.2.1~
 _ZN8casacore5ArrayIfE16ConstIteratorSTLppEi@Base 3.2.1~
 _ZN8casacore5ArrayIfE16ConstIteratorSTLppEv@Base 3.2.1~
 _ZN8casacore5ArrayIfE16ConstIteratorSTLptEv@Base 3.2.1~
 _ZN8casacore5ArrayIfE16copyMatchingPartERKS1_@Base 3.2.1~
 _ZN8casacore5ArrayIfE16removeDegenerateERKNS_9IPositionE@Base 3.2.1~
 _ZN8casacore5ArrayIfE16removeDegenerateEjb@Base 3.2.1~
 _ZN8casacore5ArrayIfE22defaultArrayInitPolicyEv@Base 3.2.1~
 _ZN8casacore5ArrayIfE23copyToContiguousStorageEPfRKS1_NS_15ArrayInitPolicyE@Base 3.2.1~
 _ZN8casacore5ArrayIfE3endEv@Base 3.2.1~
 _ZN8casacore5ArrayIfE3setERKf@Base 3.2.1~
 _ZN8casacore5ArrayIfE4cendEv@Base 3.2.1~
 _ZN8casacore5ArrayIfE4dataEv@Base 3.2.1~
 _ZN8casacore5ArrayIfE5applyEPFfRKfE@Base 3.2.1~
 _ZN8casacore5ArrayIfE5applyEPFffE@Base 3.2.1~
 _ZN8casacore5ArrayIfE5applyERKNS_10FunctionalIffEE@Base 3.2.1~
 _ZN8casacore5ArrayIfE5beginEv@Base 3.2.1~
 _ZN8casacore5ArrayIfE6assignERKS1_@Base 3.2.1~
 _ZN8casacore5ArrayIfE6cbeginEv@Base 3.2.1~
 _ZN8casacore5ArrayIfE6resizeERKNS_9IPositionEb@Base 3.2.1~
 _ZN8casacore5ArrayIfE6resizeERKNS_9IPositionEbNS_15ArrayInitPolicyE@Base 3.2.1~
 _ZN8casacore5ArrayIfE6resizeEv@Base 3.2.1~
 _ZN8casacore5ArrayIfE6uniqueEv@Base 3.2.1~
 _ZN8casacore5ArrayIfE9makeStepsEv@Base 3.2.1~
 _ZN8casacore5ArrayIfE9referenceERKS1_@Base 3.2.1~
 _ZN8casacore5ArrayIfEC1ENS_17Allocator_private9AllocSpecIfEE@Base 3.2.1~
 _ZN8casacore5ArrayIfEC1ERKNS_9IPositionE@Base 3.2.1~
 _ZN8casacore5ArrayIfEC1ERKNS_9IPositionENS_15ArrayInitPolicyE@Base 3.2.1~
 _ZN8casacore5ArrayIfEC1ERKNS_9IPositionENS_15ArrayInitPolicyEPNS_17Allocator_private13BulkAllocatorIfEE@Base 3.2.1~
 _ZN8casacore5ArrayIfEC1ERKNS_9IPositionEPKf@Base 3.2.1~
 _ZN8casacore5ArrayIfEC1ERKNS_9IPositionEPfNS_17StorageInitPolicyE@Base 3.2.1~
 _ZN8casacore5ArrayIfEC1ERKNS_9IPositionEPfNS_17StorageInitPolicyERKNS_17AbstractAllocatorIfEE@Base 3.2.1~
 _ZN8casacore5ArrayIfEC1ERKNS_9IPositionERKf@Base 3.2.1~
 _ZN8casacore5ArrayIfEC1ERKS1_@Base 3.2.1~
 _ZN8casacore5ArrayIfEC1Ev@Base 3.2.1~
 _ZN8casacore5ArrayIfEC2ENS_17Allocator_private9AllocSpecIfEE@Base 3.2.1~
 _ZN8casacore5ArrayIfEC2ERKNS_9IPositionE@Base 3.2.1~
 _ZN8casacore5ArrayIfEC2ERKNS_9IPositionENS_15ArrayInitPolicyE@Base 3.2.1~
 _ZN8casacore5ArrayIfEC2ERKNS_9IPositionENS_15ArrayInitPolicyEPNS_17Allocator_private13BulkAllocatorIfEE@Base 3.2.1~
 _ZN8casacore5ArrayIfEC2ERKNS_9IPositionEPKf@Base 3.2.1~
 _ZN8casacore5ArrayIfEC2ERKNS_9IPositionEPfNS_17StorageInitPolicyE@Base 3.2.1~
 _ZN8casacore5ArrayIfEC2ERKNS_9IPositionEPfNS_17StorageInitPolicyERKNS_17AbstractAllocatorIfEE@Base 3.2.1~
 _ZN8casacore5ArrayIfEC2ERKNS_9IPositionERKf@Base 3.2.1~
 _ZN8casacore5ArrayIfEC2ERKS1_@Base 3.2.1~
 _ZN8casacore5ArrayIfEC2Ev@Base 3.2.1~
 _ZN8casacore5ArrayIfED0Ev@Base 3.2.1~
 _ZN8casacore5ArrayIfED1Ev@Base 3.2.1~
 _ZN8casacore5ArrayIfED2Ev@Base 3.2.1~
 _ZN8casacore5ArrayIfEaSERKNS_11MaskedArrayIfEE@Base 3.2.1~
 _ZN8casacore5ArrayIfEaSERKS1_@Base 3.2.1~
 _ZN8casacore5ArrayIfEaSERKf@Base 3.2.1~
 _ZN8casacore5ArrayIfEclERKNS0_IbEE@Base 3.2.1~
 _ZN8casacore5ArrayIfEclERKNS_11MaskedArrayIbEE@Base 3.2.1~
 _ZN8casacore5ArrayIfEclERKNS_6SlicerE@Base 3.2.1~
 _ZN8casacore5ArrayIfEclERKNS_9IPositionE@Base 3.2.1~
 _ZN8casacore5ArrayIfEclERKNS_9IPositionES4_@Base 3.2.1~
 _ZN8casacore5ArrayIfEclERKNS_9IPositionES4_S4_@Base 3.2.1~
 _ZN8casacore5ArrayIhE10assignBaseERKNS_9ArrayBaseEb@Base 3.2.1~
 _ZN8casacore5ArrayIhE10getStorageERb@Base 3.2.1~
 _ZN8casacore5ArrayIhE10putStorageERPhb@Base 3.2.1~
 _ZN8casacore5ArrayIhE10setEndIterEv@Base 3.2.1~
 _ZN8casacore5ArrayIhE11IteratorSTLC1EPKh@Base 3.2.1~
 _ZN8casacore5ArrayIhE11IteratorSTLC1ERS1_@Base 3.2.1~
 _ZN8casacore5ArrayIhE11IteratorSTLC2EPKh@Base 3.2.1~
 _ZN8casacore5ArrayIhE11IteratorSTLC2ERS1_@Base 3.2.1~
 _ZN8casacore5ArrayIhE11IteratorSTLdeEv@Base 3.2.1~
 _ZN8casacore5ArrayIhE11IteratorSTLppEi@Base 3.2.1~
 _ZN8casacore5ArrayIhE11IteratorSTLppEv@Base 3.2.1~
 _ZN8casacore5ArrayIhE11IteratorSTLptEv@Base 3.2.1~
 _ZN8casacore5ArrayIhE11getVStorageERb@Base 3.2.1~
 _ZN8casacore5ArrayIhE11putVStorageERPvb@Base 3.2.1~
 _ZN8casacore5ArrayIhE11takeStorageERKNS_9IPositionEPKh@Base 3.2.1~
 _ZN8casacore5ArrayIhE11takeStorageERKNS_9IPositionEPKhRKNS_17AbstractAllocatorIhEE@Base 3.2.1~
 _ZN8casacore5ArrayIhE11takeStorageERKNS_9IPositionEPhNS_17StorageInitPolicyE@Base 3.2.1~
 _ZN8casacore5ArrayIhE11takeStorageERKNS_9IPositionEPhNS_17StorageInitPolicyERKNS_17AbstractAllocatorIhEE@Base 3.2.1~
 _ZN8casacore5ArrayIhE13addDegenerateEj@Base 3.2.1~
 _ZN8casacore5ArrayIhE13nonDegenerateERKS1_RKNS_9IPositionE@Base 3.2.1~
 _ZN8casacore5ArrayIhE13nonDegenerateERKS1_jb@Base 3.2.1~
 _ZN8casacore5ArrayIhE14adjustLastAxisERKNS_9IPositionEjb@Base 3.2.1~
 _ZN8casacore5ArrayIhE14preTakeStorageERKNS_9IPositionE@Base 3.2.1~
 _ZN8casacore5ArrayIhE14reformOrResizeERKNS_9IPositionEjb@Base 3.2.1~
 _ZN8casacore5ArrayIhE15BaseIteratorSTL6getPosEv@Base 3.2.1~
 _ZN8casacore5ArrayIhE15BaseIteratorSTL8nextElemEv@Base 3.2.1~
 _ZN8casacore5ArrayIhE15BaseIteratorSTL8nextLineEv@Base 3.2.1~
 _ZN8casacore5ArrayIhE15BaseIteratorSTL9incrementEv@Base 3.2.1~
 _ZN8casacore5ArrayIhE15BaseIteratorSTLC1EPKh@Base 3.2.1~
 _ZN8casacore5ArrayIhE15BaseIteratorSTLC1ERKS1_@Base 3.2.1~
 _ZN8casacore5ArrayIhE15BaseIteratorSTLC2EPKh@Base 3.2.1~
 _ZN8casacore5ArrayIhE15BaseIteratorSTLC2ERKS1_@Base 3.2.1~
 _ZN8casacore5ArrayIhE15doNonDegenerateERKS1_RKNS_9IPositionE@Base 3.2.1~
 _ZN8casacore5ArrayIhE15postTakeStorageEv@Base 3.2.1~
 _ZN8casacore5ArrayIhE16ConstIteratorSTLC1EPKh@Base 3.2.1~
 _ZN8casacore5ArrayIhE16ConstIteratorSTLC1ERKNS1_11IteratorSTLE@Base 3.2.1~
 _ZN8casacore5ArrayIhE16ConstIteratorSTLC1ERKS1_@Base 3.2.1~
 _ZN8casacore5ArrayIhE16ConstIteratorSTLC2EPKh@Base 3.2.1~
 _ZN8casacore5ArrayIhE16ConstIteratorSTLC2ERKNS1_11IteratorSTLE@Base 3.2.1~
 _ZN8casacore5ArrayIhE16ConstIteratorSTLC2ERKS1_@Base 3.2.1~
 _ZN8casacore5ArrayIhE16ConstIteratorSTLppEi@Base 3.2.1~
 _ZN8casacore5ArrayIhE16ConstIteratorSTLppEv@Base 3.2.1~
 _ZN8casacore5ArrayIhE16ConstIteratorSTLptEv@Base 3.2.1~
 _ZN8casacore5ArrayIhE16copyMatchingPartERKS1_@Base 3.2.1~
 _ZN8casacore5ArrayIhE16removeDegenerateERKNS_9IPositionE@Base 3.2.1~
 _ZN8casacore5ArrayIhE16removeDegenerateEjb@Base 3.2.1~
 _ZN8casacore5ArrayIhE22defaultArrayInitPolicyEv@Base 3.2.1~
 _ZN8casacore5ArrayIhE23copyToContiguousStorageEPhRKS1_NS_15ArrayInitPolicyE@Base 3.2.1~
 _ZN8casacore5ArrayIhE3endEv@Base 3.2.1~
 _ZN8casacore5ArrayIhE3setERKh@Base 3.2.1~
 _ZN8casacore5ArrayIhE4cendEv@Base 3.2.1~
 _ZN8casacore5ArrayIhE4dataEv@Base 3.2.1~
 _ZN8casacore5ArrayIhE5applyEPFhRKhE@Base 3.2.1~
 _ZN8casacore5ArrayIhE5applyEPFhhE@Base 3.2.1~
 _ZN8casacore5ArrayIhE5applyERKNS_10FunctionalIhhEE@Base 3.2.1~
 _ZN8casacore5ArrayIhE5beginEv@Base 3.2.1~
 _ZN8casacore5ArrayIhE6assignERKS1_@Base 3.2.1~
 _ZN8casacore5ArrayIhE6cbeginEv@Base 3.2.1~
 _ZN8casacore5ArrayIhE6resizeERKNS_9IPositionEb@Base 3.2.1~
 _ZN8casacore5ArrayIhE6resizeERKNS_9IPositionEbNS_15ArrayInitPolicyE@Base 3.2.1~
 _ZN8casacore5ArrayIhE6resizeEv@Base 3.2.1~
 _ZN8casacore5ArrayIhE6uniqueEv@Base 3.2.1~
 _ZN8casacore5ArrayIhE9makeStepsEv@Base 3.2.1~
 _ZN8casacore5ArrayIhE9referenceERKS1_@Base 3.2.1~
 _ZN8casacore5ArrayIhEC1ENS_17Allocator_private9AllocSpecIhEE@Base 3.2.1~
 _ZN8casacore5ArrayIhEC1ERKNS_9IPositionE@Base 3.2.1~
 _ZN8casacore5ArrayIhEC1ERKNS_9IPositionENS_15ArrayInitPolicyE@Base 3.2.1~
 _ZN8casacore5ArrayIhEC1ERKNS_9IPositionENS_15ArrayInitPolicyEPNS_17Allocator_private13BulkAllocatorIhEE@Base 3.2.1~
 _ZN8casacore5ArrayIhEC1ERKNS_9IPositionEPKh@Base 3.2.1~
 _ZN8casacore5ArrayIhEC1ERKNS_9IPositionEPhNS_17StorageInitPolicyE@Base 3.2.1~
 _ZN8casacore5ArrayIhEC1ERKNS_9IPositionEPhNS_17StorageInitPolicyERKNS_17AbstractAllocatorIhEE@Base 3.2.1~
 _ZN8casacore5ArrayIhEC1ERKNS_9IPositionERKh@Base 3.2.1~
 _ZN8casacore5ArrayIhEC1ERKS1_@Base 3.2.1~
 _ZN8casacore5ArrayIhEC1Ev@Base 3.2.1~
 _ZN8casacore5ArrayIhEC2ENS_17Allocator_private9AllocSpecIhEE@Base 3.2.1~
 _ZN8casacore5ArrayIhEC2ERKNS_9IPositionE@Base 3.2.1~
 _ZN8casacore5ArrayIhEC2ERKNS_9IPositionENS_15ArrayInitPolicyE@Base 3.2.1~
 _ZN8casacore5ArrayIhEC2ERKNS_9IPositionENS_15ArrayInitPolicyEPNS_17Allocator_private13BulkAllocatorIhEE@Base 3.2.1~
 _ZN8casacore5ArrayIhEC2ERKNS_9IPositionEPKh@Base 3.2.1~
 _ZN8casacore5ArrayIhEC2ERKNS_9IPositionEPhNS_17StorageInitPolicyE@Base 3.2.1~
 _ZN8casacore5ArrayIhEC2ERKNS_9IPositionEPhNS_17StorageInitPolicyERKNS_17AbstractAllocatorIhEE@Base 3.2.1~
 _ZN8casacore5ArrayIhEC2ERKNS_9IPositionERKh@Base 3.2.1~
 _ZN8casacore5ArrayIhEC2ERKS1_@Base 3.2.1~
 _ZN8casacore5ArrayIhEC2Ev@Base 3.2.1~
 _ZN8casacore5ArrayIhED0Ev@Base 3.2.1~
 _ZN8casacore5ArrayIhED1Ev@Base 3.2.1~
 _ZN8casacore5ArrayIhED2Ev@Base 3.2.1~
 _ZN8casacore5ArrayIhEaSERKNS_11MaskedArrayIhEE@Base 3.2.1~
 _ZN8casacore5ArrayIhEaSERKS1_@Base 3.2.1~
 _ZN8casacore5ArrayIhEaSERKh@Base 3.2.1~
 _ZN8casacore5ArrayIhEclERKNS0_IbEE@Base 3.2.1~
 _ZN8casacore5ArrayIhEclERKNS_11MaskedArrayIbEE@Base 3.2.1~
 _ZN8casacore5ArrayIhEclERKNS_6SlicerE@Base 3.2.1~
 _ZN8casacore5ArrayIhEclERKNS_9IPositionE@Base 3.2.1~
 _ZN8casacore5ArrayIhEclERKNS_9IPositionES4_@Base 3.2.1~
 _ZN8casacore5ArrayIhEclERKNS_9IPositionES4_S4_@Base 3.2.1~
 _ZN8casacore5ArrayIiE10assignBaseERKNS_9ArrayBaseEb@Base 3.2.1~
 _ZN8casacore5ArrayIiE10getStorageERb@Base 3.2.1~
 _ZN8casacore5ArrayIiE10putStorageERPib@Base 3.2.1~
 _ZN8casacore5ArrayIiE10setEndIterEv@Base 3.2.1~
 _ZN8casacore5ArrayIiE11IteratorSTLC1EPKi@Base 3.2.1~
 _ZN8casacore5ArrayIiE11IteratorSTLC1ERS1_@Base 3.2.1~
 _ZN8casacore5ArrayIiE11IteratorSTLC2EPKi@Base 3.2.1~
 _ZN8casacore5ArrayIiE11IteratorSTLC2ERS1_@Base 3.2.1~
 _ZN8casacore5ArrayIiE11IteratorSTLdeEv@Base 3.2.1~
 _ZN8casacore5ArrayIiE11IteratorSTLppEi@Base 3.2.1~
 _ZN8casacore5ArrayIiE11IteratorSTLppEv@Base 3.2.1~
 _ZN8casacore5ArrayIiE11IteratorSTLptEv@Base 3.2.1~
 _ZN8casacore5ArrayIiE11getVStorageERb@Base 3.2.1~
 _ZN8casacore5ArrayIiE11putVStorageERPvb@Base 3.2.1~
 _ZN8casacore5ArrayIiE11takeStorageERKNS_9IPositionEPKi@Base 3.2.1~
 _ZN8casacore5ArrayIiE11takeStorageERKNS_9IPositionEPKiRKNS_17AbstractAllocatorIiEE@Base 3.2.1~
 _ZN8casacore5ArrayIiE11takeStorageERKNS_9IPositionEPiNS_17StorageInitPolicyE@Base 3.2.1~
 _ZN8casacore5ArrayIiE11takeStorageERKNS_9IPositionEPiNS_17StorageInitPolicyERKNS_17AbstractAllocatorIiEE@Base 3.2.1~
 _ZN8casacore5ArrayIiE13addDegenerateEj@Base 3.2.1~
 _ZN8casacore5ArrayIiE13nonDegenerateERKS1_RKNS_9IPositionE@Base 3.2.1~
 _ZN8casacore5ArrayIiE13nonDegenerateERKS1_jb@Base 3.2.1~
 _ZN8casacore5ArrayIiE14adjustLastAxisERKNS_9IPositionEjb@Base 3.2.1~
 _ZN8casacore5ArrayIiE14preTakeStorageERKNS_9IPositionE@Base 3.2.1~
 _ZN8casacore5ArrayIiE14reformOrResizeERKNS_9IPositionEjb@Base 3.2.1~
 _ZN8casacore5ArrayIiE15BaseIteratorSTL6getPosEv@Base 3.2.1~
 _ZN8casacore5ArrayIiE15BaseIteratorSTL8nextElemEv@Base 3.2.1~
 _ZN8casacore5ArrayIiE15BaseIteratorSTL8nextLineEv@Base 3.2.1~
 _ZN8casacore5ArrayIiE15BaseIteratorSTL9incrementEv@Base 3.2.1~
 _ZN8casacore5ArrayIiE15BaseIteratorSTLC1EPKi@Base 3.2.1~
 _ZN8casacore5ArrayIiE15BaseIteratorSTLC1ERKS1_@Base 3.2.1~
 _ZN8casacore5ArrayIiE15BaseIteratorSTLC2EPKi@Base 3.2.1~
 _ZN8casacore5ArrayIiE15BaseIteratorSTLC2ERKS1_@Base 3.2.1~
 _ZN8casacore5ArrayIiE15doNonDegenerateERKS1_RKNS_9IPositionE@Base 3.2.1~
 _ZN8casacore5ArrayIiE15postTakeStorageEv@Base 3.2.1~
 _ZN8casacore5ArrayIiE16ConstIteratorSTLC1EPKi@Base 3.2.1~
 _ZN8casacore5ArrayIiE16ConstIteratorSTLC1ERKNS1_11IteratorSTLE@Base 3.2.1~
 _ZN8casacore5ArrayIiE16ConstIteratorSTLC1ERKS1_@Base 3.2.1~
 _ZN8casacore5ArrayIiE16ConstIteratorSTLC2EPKi@Base 3.2.1~
 _ZN8casacore5ArrayIiE16ConstIteratorSTLC2ERKNS1_11IteratorSTLE@Base 3.2.1~
 _ZN8casacore5ArrayIiE16ConstIteratorSTLC2ERKS1_@Base 3.2.1~
 _ZN8casacore5ArrayIiE16ConstIteratorSTLppEi@Base 3.2.1~
 _ZN8casacore5ArrayIiE16ConstIteratorSTLppEv@Base 3.2.1~
 _ZN8casacore5ArrayIiE16ConstIteratorSTLptEv@Base 3.2.1~
 _ZN8casacore5ArrayIiE16copyMatchingPartERKS1_@Base 3.2.1~
 _ZN8casacore5ArrayIiE16removeDegenerateERKNS_9IPositionE@Base 3.2.1~
 _ZN8casacore5ArrayIiE16removeDegenerateEjb@Base 3.2.1~
 _ZN8casacore5ArrayIiE22defaultArrayInitPolicyEv@Base 3.2.1~
 _ZN8casacore5ArrayIiE23copyToContiguousStorageEPiRKS1_NS_15ArrayInitPolicyE@Base 3.2.1~
 _ZN8casacore5ArrayIiE3endEv@Base 3.2.1~
 _ZN8casacore5ArrayIiE3setERKi@Base 3.2.1~
 _ZN8casacore5ArrayIiE4cendEv@Base 3.2.1~
 _ZN8casacore5ArrayIiE4dataEv@Base 3.2.1~
 _ZN8casacore5ArrayIiE5applyEPFiRKiE@Base 3.2.1~
 _ZN8casacore5ArrayIiE5applyEPFiiE@Base 3.2.1~
 _ZN8casacore5ArrayIiE5applyERKNS_10FunctionalIiiEE@Base 3.2.1~
 _ZN8casacore5ArrayIiE5beginEv@Base 3.2.1~
 _ZN8casacore5ArrayIiE6assignERKS1_@Base 3.2.1~
 _ZN8casacore5ArrayIiE6cbeginEv@Base 3.2.1~
 _ZN8casacore5ArrayIiE6resizeERKNS_9IPositionEb@Base 3.2.1~
 _ZN8casacore5ArrayIiE6resizeERKNS_9IPositionEbNS_15ArrayInitPolicyE@Base 3.2.1~
 _ZN8casacore5ArrayIiE6resizeEv@Base 3.2.1~
 _ZN8casacore5ArrayIiE6uniqueEv@Base 3.2.1~
 _ZN8casacore5ArrayIiE9makeStepsEv@Base 3.2.1~
 _ZN8casacore5ArrayIiE9referenceERKS1_@Base 3.2.1~
 _ZN8casacore5ArrayIiEC1ENS_17Allocator_private9AllocSpecIiEE@Base 3.2.1~
 _ZN8casacore5ArrayIiEC1ERKNS_9IPositionE@Base 3.2.1~
 _ZN8casacore5ArrayIiEC1ERKNS_9IPositionENS_15ArrayInitPolicyE@Base 3.2.1~
 _ZN8casacore5ArrayIiEC1ERKNS_9IPositionENS_15ArrayInitPolicyEPNS_17Allocator_private13BulkAllocatorIiEE@Base 3.2.1~
 _ZN8casacore5ArrayIiEC1ERKNS_9IPositionEPKi@Base 3.2.1~
 _ZN8casacore5ArrayIiEC1ERKNS_9IPositionEPiNS_17StorageInitPolicyE@Base 3.2.1~
 _ZN8casacore5ArrayIiEC1ERKNS_9IPositionEPiNS_17StorageInitPolicyERKNS_17AbstractAllocatorIiEE@Base 3.2.1~
 _ZN8casacore5ArrayIiEC1ERKNS_9IPositionERKi@Base 3.2.1~
 _ZN8casacore5ArrayIiEC1ERKS1_@Base 3.2.1~
 _ZN8casacore5ArrayIiEC1Ev@Base 3.2.1~
 _ZN8casacore5ArrayIiEC2ENS_17Allocator_private9AllocSpecIiEE@Base 3.2.1~
 _ZN8casacore5ArrayIiEC2ERKNS_9IPositionE@Base 3.2.1~
 _ZN8casacore5ArrayIiEC2ERKNS_9IPositionENS_15ArrayInitPolicyE@Base 3.2.1~
 _ZN8casacore5ArrayIiEC2ERKNS_9IPositionENS_15ArrayInitPolicyEPNS_17Allocator_private13BulkAllocatorIiEE@Base 3.2.1~
 _ZN8casacore5ArrayIiEC2ERKNS_9IPositionEPKi@Base 3.2.1~
 _ZN8casacore5ArrayIiEC2ERKNS_9IPositionEPiNS_17StorageInitPolicyE@Base 3.2.1~
 _ZN8casacore5ArrayIiEC2ERKNS_9IPositionEPiNS_17StorageInitPolicyERKNS_17AbstractAllocatorIiEE@Base 3.2.1~
 _ZN8casacore5ArrayIiEC2ERKNS_9IPositionERKi@Base 3.2.1~
 _ZN8casacore5ArrayIiEC2ERKS1_@Base 3.2.1~
 _ZN8casacore5ArrayIiEC2Ev@Base 3.2.1~
 _ZN8casacore5ArrayIiED0Ev@Base 3.2.1~
 _ZN8casacore5ArrayIiED1Ev@Base 3.2.1~
 _ZN8casacore5ArrayIiED2Ev@Base 3.2.1~
 _ZN8casacore5ArrayIiEaSERKNS_11MaskedArrayIiEE@Base 3.2.1~
 _ZN8casacore5ArrayIiEaSERKS1_@Base 3.2.1~
 _ZN8casacore5ArrayIiEaSERKi@Base 3.2.1~
 _ZN8casacore5ArrayIiEclERKNS0_IbEE@Base 3.2.1~
 _ZN8casacore5ArrayIiEclERKNS_11MaskedArrayIbEE@Base 3.2.1~
 _ZN8casacore5ArrayIiEclERKNS_6SlicerE@Base 3.2.1~
 _ZN8casacore5ArrayIiEclERKNS_9IPositionE@Base 3.2.1~
 _ZN8casacore5ArrayIiEclERKNS_9IPositionES4_@Base 3.2.1~
 _ZN8casacore5ArrayIiEclERKNS_9IPositionES4_S4_@Base 3.2.1~
 _ZN8casacore5ArrayIjE10assignBaseERKNS_9ArrayBaseEb@Base 3.2.1~
 _ZN8casacore5ArrayIjE10getStorageERb@Base 3.2.1~
 _ZN8casacore5ArrayIjE10putStorageERPjb@Base 3.2.1~
 _ZN8casacore5ArrayIjE10setEndIterEv@Base 3.2.1~
 _ZN8casacore5ArrayIjE11IteratorSTLC1EPKj@Base 3.2.1~
 _ZN8casacore5ArrayIjE11IteratorSTLC1ERS1_@Base 3.2.1~
 _ZN8casacore5ArrayIjE11IteratorSTLC2EPKj@Base 3.2.1~
 _ZN8casacore5ArrayIjE11IteratorSTLC2ERS1_@Base 3.2.1~
 _ZN8casacore5ArrayIjE11IteratorSTLdeEv@Base 3.2.1~
 _ZN8casacore5ArrayIjE11IteratorSTLppEi@Base 3.2.1~
 _ZN8casacore5ArrayIjE11IteratorSTLppEv@Base 3.2.1~
 _ZN8casacore5ArrayIjE11IteratorSTLptEv@Base 3.2.1~
 _ZN8casacore5ArrayIjE11getVStorageERb@Base 3.2.1~
 _ZN8casacore5ArrayIjE11putVStorageERPvb@Base 3.2.1~
 _ZN8casacore5ArrayIjE11takeStorageERKNS_9IPositionEPKj@Base 3.2.1~
 _ZN8casacore5ArrayIjE11takeStorageERKNS_9IPositionEPKjRKNS_17AbstractAllocatorIjEE@Base 3.2.1~
 _ZN8casacore5ArrayIjE11takeStorageERKNS_9IPositionEPjNS_17StorageInitPolicyE@Base 3.2.1~
 _ZN8casacore5ArrayIjE11takeStorageERKNS_9IPositionEPjNS_17StorageInitPolicyERKNS_17AbstractAllocatorIjEE@Base 3.2.1~
 _ZN8casacore5ArrayIjE13addDegenerateEj@Base 3.2.1~
 _ZN8casacore5ArrayIjE13nonDegenerateERKS1_RKNS_9IPositionE@Base 3.2.1~
 _ZN8casacore5ArrayIjE13nonDegenerateERKS1_jb@Base 3.2.1~
 _ZN8casacore5ArrayIjE14adjustLastAxisERKNS_9IPositionEjb@Base 3.2.1~
 _ZN8casacore5ArrayIjE14preTakeStorageERKNS_9IPositionE@Base 3.2.1~
 _ZN8casacore5ArrayIjE14reformOrResizeERKNS_9IPositionEjb@Base 3.2.1~
 _ZN8casacore5ArrayIjE15BaseIteratorSTL6getPosEv@Base 3.2.1~
 _ZN8casacore5ArrayIjE15BaseIteratorSTL8nextElemEv@Base 3.2.1~
 _ZN8casacore5ArrayIjE15BaseIteratorSTL8nextLineEv@Base 3.2.1~
 _ZN8casacore5ArrayIjE15BaseIteratorSTL9incrementEv@Base 3.2.1~
 _ZN8casacore5ArrayIjE15BaseIteratorSTLC1EPKj@Base 3.2.1~
 _ZN8casacore5ArrayIjE15BaseIteratorSTLC1ERKS1_@Base 3.2.1~
 _ZN8casacore5ArrayIjE15BaseIteratorSTLC2EPKj@Base 3.2.1~
 _ZN8casacore5ArrayIjE15BaseIteratorSTLC2ERKS1_@Base 3.2.1~
 _ZN8casacore5ArrayIjE15doNonDegenerateERKS1_RKNS_9IPositionE@Base 3.2.1~
 _ZN8casacore5ArrayIjE15postTakeStorageEv@Base 3.2.1~
 _ZN8casacore5ArrayIjE16ConstIteratorSTLC1EPKj@Base 3.2.1~
 _ZN8casacore5ArrayIjE16ConstIteratorSTLC1ERKNS1_11IteratorSTLE@Base 3.2.1~
 _ZN8casacore5ArrayIjE16ConstIteratorSTLC1ERKS1_@Base 3.2.1~
 _ZN8casacore5ArrayIjE16ConstIteratorSTLC2EPKj@Base 3.2.1~
 _ZN8casacore5ArrayIjE16ConstIteratorSTLC2ERKNS1_11IteratorSTLE@Base 3.2.1~
 _ZN8casacore5ArrayIjE16ConstIteratorSTLC2ERKS1_@Base 3.2.1~
 _ZN8casacore5ArrayIjE16ConstIteratorSTLppEi@Base 3.2.1~
 _ZN8casacore5ArrayIjE16ConstIteratorSTLppEv@Base 3.2.1~
 _ZN8casacore5ArrayIjE16ConstIteratorSTLptEv@Base 3.2.1~
 _ZN8casacore5ArrayIjE16copyMatchingPartERKS1_@Base 3.2.1~
 _ZN8casacore5ArrayIjE16removeDegenerateERKNS_9IPositionE@Base 3.2.1~
 _ZN8casacore5ArrayIjE16removeDegenerateEjb@Base 3.2.1~
 _ZN8casacore5ArrayIjE22defaultArrayInitPolicyEv@Base 3.2.1~
 _ZN8casacore5ArrayIjE23copyToContiguousStorageEPjRKS1_NS_15ArrayInitPolicyE@Base 3.2.1~
 _ZN8casacore5ArrayIjE3endEv@Base 3.2.1~
 _ZN8casacore5ArrayIjE3setERKj@Base 3.2.1~
 _ZN8casacore5ArrayIjE4cendEv@Base 3.2.1~
 _ZN8casacore5ArrayIjE4dataEv@Base 3.2.1~
 _ZN8casacore5ArrayIjE5applyEPFjRKjE@Base 3.2.1~
 _ZN8casacore5ArrayIjE5applyEPFjjE@Base 3.2.1~
 _ZN8casacore5ArrayIjE5applyERKNS_10FunctionalIjjEE@Base 3.2.1~
 _ZN8casacore5ArrayIjE5beginEv@Base 3.2.1~
 _ZN8casacore5ArrayIjE6assignERKS1_@Base 3.2.1~
 _ZN8casacore5ArrayIjE6cbeginEv@Base 3.2.1~
 _ZN8casacore5ArrayIjE6resizeERKNS_9IPositionEb@Base 3.2.1~
 _ZN8casacore5ArrayIjE6resizeERKNS_9IPositionEbNS_15ArrayInitPolicyE@Base 3.2.1~
 _ZN8casacore5ArrayIjE6resizeEv@Base 3.2.1~
 _ZN8casacore5ArrayIjE6uniqueEv@Base 3.2.1~
 _ZN8casacore5ArrayIjE9makeStepsEv@Base 3.2.1~
 _ZN8casacore5ArrayIjE9referenceERKS1_@Base 3.2.1~
 _ZN8casacore5ArrayIjEC1ENS_17Allocator_private9AllocSpecIjEE@Base 3.2.1~
 _ZN8casacore5ArrayIjEC1ERKNS_9IPositionE@Base 3.2.1~
 _ZN8casacore5ArrayIjEC1ERKNS_9IPositionENS_15ArrayInitPolicyE@Base 3.2.1~
 _ZN8casacore5ArrayIjEC1ERKNS_9IPositionENS_15ArrayInitPolicyEPNS_17Allocator_private13BulkAllocatorIjEE@Base 3.2.1~
 _ZN8casacore5ArrayIjEC1ERKNS_9IPositionEPKj@Base 3.2.1~
 _ZN8casacore5ArrayIjEC1ERKNS_9IPositionEPjNS_17StorageInitPolicyE@Base 3.2.1~
 _ZN8casacore5ArrayIjEC1ERKNS_9IPositionEPjNS_17StorageInitPolicyERKNS_17AbstractAllocatorIjEE@Base 3.2.1~
 _ZN8casacore5ArrayIjEC1ERKNS_9IPositionERKj@Base 3.2.1~
 _ZN8casacore5ArrayIjEC1ERKS1_@Base 3.2.1~
 _ZN8casacore5ArrayIjEC1Ev@Base 3.2.1~
 _ZN8casacore5ArrayIjEC2ENS_17Allocator_private9AllocSpecIjEE@Base 3.2.1~
 _ZN8casacore5ArrayIjEC2ERKNS_9IPositionE@Base 3.2.1~
 _ZN8casacore5ArrayIjEC2ERKNS_9IPositionENS_15ArrayInitPolicyE@Base 3.2.1~
 _ZN8casacore5ArrayIjEC2ERKNS_9IPositionENS_15ArrayInitPolicyEPNS_17Allocator_private13BulkAllocatorIjEE@Base 3.2.1~
 _ZN8casacore5ArrayIjEC2ERKNS_9IPositionEPKj@Base 3.2.1~
 _ZN8casacore5ArrayIjEC2ERKNS_9IPositionEPjNS_17StorageInitPolicyE@Base 3.2.1~
 _ZN8casacore5ArrayIjEC2ERKNS_9IPositionEPjNS_17StorageInitPolicyERKNS_17AbstractAllocatorIjEE@Base 3.2.1~
 _ZN8casacore5ArrayIjEC2ERKNS_9IPositionERKj@Base 3.2.1~
 _ZN8casacore5ArrayIjEC2ERKS1_@Base 3.2.1~
 _ZN8casacore5ArrayIjEC2Ev@Base 3.2.1~
 _ZN8casacore5ArrayIjED0Ev@Base 3.2.1~
 _ZN8casacore5ArrayIjED1Ev@Base 3.2.1~
 _ZN8casacore5ArrayIjED2Ev@Base 3.2.1~
 _ZN8casacore5ArrayIjEaSERKNS_11MaskedArrayIjEE@Base 3.2.1~
 _ZN8casacore5ArrayIjEaSERKS1_@Base 3.2.1~
 _ZN8casacore5ArrayIjEaSERKj@Base 3.2.1~
 _ZN8casacore5ArrayIjEclERKNS0_IbEE@Base 3.2.1~
 _ZN8casacore5ArrayIjEclERKNS_11MaskedArrayIbEE@Base 3.2.1~
 _ZN8casacore5ArrayIjEclERKNS_6SlicerE@Base 3.2.1~
 _ZN8casacore5ArrayIjEclERKNS_9IPositionE@Base 3.2.1~
 _ZN8casacore5ArrayIjEclERKNS_9IPositionES4_@Base 3.2.1~
 _ZN8casacore5ArrayIjEclERKNS_9IPositionES4_S4_@Base 3.2.1~
 _ZN8casacore5ArrayIsE10assignBaseERKNS_9ArrayBaseEb@Base 3.2.1~
 _ZN8casacore5ArrayIsE10getStorageERb@Base 3.2.1~
 _ZN8casacore5ArrayIsE10putStorageERPsb@Base 3.2.1~
 _ZN8casacore5ArrayIsE10setEndIterEv@Base 3.2.1~
 _ZN8casacore5ArrayIsE11IteratorSTLC1EPKs@Base 3.2.1~
 _ZN8casacore5ArrayIsE11IteratorSTLC1ERS1_@Base 3.2.1~
 _ZN8casacore5ArrayIsE11IteratorSTLC2EPKs@Base 3.2.1~
 _ZN8casacore5ArrayIsE11IteratorSTLC2ERS1_@Base 3.2.1~
 _ZN8casacore5ArrayIsE11IteratorSTLdeEv@Base 3.2.1~
 _ZN8casacore5ArrayIsE11IteratorSTLppEi@Base 3.2.1~
 _ZN8casacore5ArrayIsE11IteratorSTLppEv@Base 3.2.1~
 _ZN8casacore5ArrayIsE11IteratorSTLptEv@Base 3.2.1~
 _ZN8casacore5ArrayIsE11getVStorageERb@Base 3.2.1~
 _ZN8casacore5ArrayIsE11putVStorageERPvb@Base 3.2.1~
 _ZN8casacore5ArrayIsE11takeStorageERKNS_9IPositionEPKs@Base 3.2.1~
 _ZN8casacore5ArrayIsE11takeStorageERKNS_9IPositionEPKsRKNS_17AbstractAllocatorIsEE@Base 3.2.1~
 _ZN8casacore5ArrayIsE11takeStorageERKNS_9IPositionEPsNS_17StorageInitPolicyE@Base 3.2.1~
 _ZN8casacore5ArrayIsE11takeStorageERKNS_9IPositionEPsNS_17StorageInitPolicyERKNS_17AbstractAllocatorIsEE@Base 3.2.1~
 _ZN8casacore5ArrayIsE13addDegenerateEj@Base 3.2.1~
 _ZN8casacore5ArrayIsE13nonDegenerateERKS1_RKNS_9IPositionE@Base 3.2.1~
 _ZN8casacore5ArrayIsE13nonDegenerateERKS1_jb@Base 3.2.1~
 _ZN8casacore5ArrayIsE14adjustLastAxisERKNS_9IPositionEjb@Base 3.2.1~
 _ZN8casacore5ArrayIsE14preTakeStorageERKNS_9IPositionE@Base 3.2.1~
 _ZN8casacore5ArrayIsE14reformOrResizeERKNS_9IPositionEjb@Base 3.2.1~
 _ZN8casacore5ArrayIsE15BaseIteratorSTL6getPosEv@Base 3.2.1~
 _ZN8casacore5ArrayIsE15BaseIteratorSTL8nextElemEv@Base 3.2.1~
 _ZN8casacore5ArrayIsE15BaseIteratorSTL8nextLineEv@Base 3.2.1~
 _ZN8casacore5ArrayIsE15BaseIteratorSTL9incrementEv@Base 3.2.1~
 _ZN8casacore5ArrayIsE15BaseIteratorSTLC1EPKs@Base 3.2.1~
 _ZN8casacore5ArrayIsE15BaseIteratorSTLC1ERKS1_@Base 3.2.1~
 _ZN8casacore5ArrayIsE15BaseIteratorSTLC2EPKs@Base 3.2.1~
 _ZN8casacore5ArrayIsE15BaseIteratorSTLC2ERKS1_@Base 3.2.1~
 _ZN8casacore5ArrayIsE15doNonDegenerateERKS1_RKNS_9IPositionE@Base 3.2.1~
 _ZN8casacore5ArrayIsE15postTakeStorageEv@Base 3.2.1~
 _ZN8casacore5ArrayIsE16ConstIteratorSTLC1EPKs@Base 3.2.1~
 _ZN8casacore5ArrayIsE16ConstIteratorSTLC1ERKNS1_11IteratorSTLE@Base 3.2.1~
 _ZN8casacore5ArrayIsE16ConstIteratorSTLC1ERKS1_@Base 3.2.1~
 _ZN8casacore5ArrayIsE16ConstIteratorSTLC2EPKs@Base 3.2.1~
 _ZN8casacore5ArrayIsE16ConstIteratorSTLC2ERKNS1_11IteratorSTLE@Base 3.2.1~
 _ZN8casacore5ArrayIsE16ConstIteratorSTLC2ERKS1_@Base 3.2.1~
 _ZN8casacore5ArrayIsE16ConstIteratorSTLppEi@Base 3.2.1~
 _ZN8casacore5ArrayIsE16ConstIteratorSTLppEv@Base 3.2.1~
 _ZN8casacore5ArrayIsE16ConstIteratorSTLptEv@Base 3.2.1~
 _ZN8casacore5ArrayIsE16copyMatchingPartERKS1_@Base 3.2.1~
 _ZN8casacore5ArrayIsE16removeDegenerateERKNS_9IPositionE@Base 3.2.1~
 _ZN8casacore5ArrayIsE16removeDegenerateEjb@Base 3.2.1~
 _ZN8casacore5ArrayIsE22defaultArrayInitPolicyEv@Base 3.2.1~
 _ZN8casacore5ArrayIsE23copyToContiguousStorageEPsRKS1_NS_15ArrayInitPolicyE@Base 3.2.1~
 _ZN8casacore5ArrayIsE3endEv@Base 3.2.1~
 _ZN8casacore5ArrayIsE3setERKs@Base 3.2.1~
 _ZN8casacore5ArrayIsE4cendEv@Base 3.2.1~
 _ZN8casacore5ArrayIsE4dataEv@Base 3.2.1~
 _ZN8casacore5ArrayIsE5applyEPFsRKsE@Base 3.2.1~
 _ZN8casacore5ArrayIsE5applyEPFssE@Base 3.2.1~
 _ZN8casacore5ArrayIsE5applyERKNS_10FunctionalIssEE@Base 3.2.1~
 _ZN8casacore5ArrayIsE5beginEv@Base 3.2.1~
 _ZN8casacore5ArrayIsE6assignERKS1_@Base 3.2.1~
 _ZN8casacore5ArrayIsE6cbeginEv@Base 3.2.1~
 _ZN8casacore5ArrayIsE6resizeERKNS_9IPositionEb@Base 3.2.1~
 _ZN8casacore5ArrayIsE6resizeERKNS_9IPositionEbNS_15ArrayInitPolicyE@Base 3.2.1~
 _ZN8casacore5ArrayIsE6resizeEv@Base 3.2.1~
 _ZN8casacore5ArrayIsE6uniqueEv@Base 3.2.1~
 _ZN8casacore5ArrayIsE9makeStepsEv@Base 3.2.1~
 _ZN8casacore5ArrayIsE9referenceERKS1_@Base 3.2.1~
 _ZN8casacore5ArrayIsEC1ENS_17Allocator_private9AllocSpecIsEE@Base 3.2.1~
 _ZN8casacore5ArrayIsEC1ERKNS_9IPositionE@Base 3.2.1~
 _ZN8casacore5ArrayIsEC1ERKNS_9IPositionENS_15ArrayInitPolicyE@Base 3.2.1~
 _ZN8casacore5ArrayIsEC1ERKNS_9IPositionENS_15ArrayInitPolicyEPNS_17Allocator_private13BulkAllocatorIsEE@Base 3.2.1~
 _ZN8casacore5ArrayIsEC1ERKNS_9IPositionEPKs@Base 3.2.1~
 _ZN8casacore5ArrayIsEC1ERKNS_9IPositionEPsNS_17StorageInitPolicyE@Base 3.2.1~
 _ZN8casacore5ArrayIsEC1ERKNS_9IPositionEPsNS_17StorageInitPolicyERKNS_17AbstractAllocatorIsEE@Base 3.2.1~
 _ZN8casacore5ArrayIsEC1ERKNS_9IPositionERKs@Base 3.2.1~
 _ZN8casacore5ArrayIsEC1ERKS1_@Base 3.2.1~
 _ZN8casacore5ArrayIsEC1Ev@Base 3.2.1~
 _ZN8casacore5ArrayIsEC2ENS_17Allocator_private9AllocSpecIsEE@Base 3.2.1~
 _ZN8casacore5ArrayIsEC2ERKNS_9IPositionE@Base 3.2.1~
 _ZN8casacore5ArrayIsEC2ERKNS_9IPositionENS_15ArrayInitPolicyE@Base 3.2.1~
 _ZN8casacore5ArrayIsEC2ERKNS_9IPositionENS_15ArrayInitPolicyEPNS_17Allocator_private13BulkAllocatorIsEE@Base 3.2.1~
 _ZN8casacore5ArrayIsEC2ERKNS_9IPositionEPKs@Base 3.2.1~
 _ZN8casacore5ArrayIsEC2ERKNS_9IPositionEPsNS_17StorageInitPolicyE@Base 3.2.1~
 _ZN8casacore5ArrayIsEC2ERKNS_9IPositionEPsNS_17StorageInitPolicyERKNS_17AbstractAllocatorIsEE@Base 3.2.1~
 _ZN8casacore5ArrayIsEC2ERKNS_9IPositionERKs@Base 3.2.1~
 _ZN8casacore5ArrayIsEC2ERKS1_@Base 3.2.1~
 _ZN8casacore5ArrayIsEC2Ev@Base 3.2.1~
 _ZN8casacore5ArrayIsED0Ev@Base 3.2.1~
 _ZN8casacore5ArrayIsED1Ev@Base 3.2.1~
 _ZN8casacore5ArrayIsED2Ev@Base 3.2.1~
 _ZN8casacore5ArrayIsEaSERKNS_11MaskedArrayIsEE@Base 3.2.1~
 _ZN8casacore5ArrayIsEaSERKS1_@Base 3.2.1~
 _ZN8casacore5ArrayIsEaSERKs@Base 3.2.1~
 _ZN8casacore5ArrayIsEclERKNS0_IbEE@Base 3.2.1~
 _ZN8casacore5ArrayIsEclERKNS_11MaskedArrayIbEE@Base 3.2.1~
 _ZN8casacore5ArrayIsEclERKNS_6SlicerE@Base 3.2.1~
 _ZN8casacore5ArrayIsEclERKNS_9IPositionE@Base 3.2.1~
 _ZN8casacore5ArrayIsEclERKNS_9IPositionES4_@Base 3.2.1~
 _ZN8casacore5ArrayIsEclERKNS_9IPositionES4_S4_@Base 3.2.1~
 _ZN8casacore5ArrayItE10assignBaseERKNS_9ArrayBaseEb@Base 3.2.1~
 _ZN8casacore5ArrayItE10getStorageERb@Base 3.2.1~
 _ZN8casacore5ArrayItE10putStorageERPtb@Base 3.2.1~
 _ZN8casacore5ArrayItE10setEndIterEv@Base 3.2.1~
 _ZN8casacore5ArrayItE11IteratorSTLC1EPKt@Base 3.2.1~
 _ZN8casacore5ArrayItE11IteratorSTLC1ERS1_@Base 3.2.1~
 _ZN8casacore5ArrayItE11IteratorSTLC2EPKt@Base 3.2.1~
 _ZN8casacore5ArrayItE11IteratorSTLC2ERS1_@Base 3.2.1~
 _ZN8casacore5ArrayItE11IteratorSTLdeEv@Base 3.2.1~
 _ZN8casacore5ArrayItE11IteratorSTLppEi@Base 3.2.1~
 _ZN8casacore5ArrayItE11IteratorSTLppEv@Base 3.2.1~
 _ZN8casacore5ArrayItE11IteratorSTLptEv@Base 3.2.1~
 _ZN8casacore5ArrayItE11getVStorageERb@Base 3.2.1~
 _ZN8casacore5ArrayItE11putVStorageERPvb@Base 3.2.1~
 _ZN8casacore5ArrayItE11takeStorageERKNS_9IPositionEPKt@Base 3.2.1~
 _ZN8casacore5ArrayItE11takeStorageERKNS_9IPositionEPKtRKNS_17AbstractAllocatorItEE@Base 3.2.1~
 _ZN8casacore5ArrayItE11takeStorageERKNS_9IPositionEPtNS_17StorageInitPolicyE@Base 3.2.1~
 _ZN8casacore5ArrayItE11takeStorageERKNS_9IPositionEPtNS_17StorageInitPolicyERKNS_17AbstractAllocatorItEE@Base 3.2.1~
 _ZN8casacore5ArrayItE13addDegenerateEj@Base 3.2.1~
 _ZN8casacore5ArrayItE13nonDegenerateERKS1_RKNS_9IPositionE@Base 3.2.1~
 _ZN8casacore5ArrayItE13nonDegenerateERKS1_jb@Base 3.2.1~
 _ZN8casacore5ArrayItE14adjustLastAxisERKNS_9IPositionEjb@Base 3.2.1~
 _ZN8casacore5ArrayItE14preTakeStorageERKNS_9IPositionE@Base 3.2.1~
 _ZN8casacore5ArrayItE14reformOrResizeERKNS_9IPositionEjb@Base 3.2.1~
 _ZN8casacore5ArrayItE15BaseIteratorSTL6getPosEv@Base 3.2.1~
 _ZN8casacore5ArrayItE15BaseIteratorSTL8nextElemEv@Base 3.2.1~
 _ZN8casacore5ArrayItE15BaseIteratorSTL8nextLineEv@Base 3.2.1~
 _ZN8casacore5ArrayItE15BaseIteratorSTL9incrementEv@Base 3.2.1~
 _ZN8casacore5ArrayItE15BaseIteratorSTLC1EPKt@Base 3.2.1~
 _ZN8casacore5ArrayItE15BaseIteratorSTLC1ERKS1_@Base 3.2.1~
 _ZN8casacore5ArrayItE15BaseIteratorSTLC2EPKt@Base 3.2.1~
 _ZN8casacore5ArrayItE15BaseIteratorSTLC2ERKS1_@Base 3.2.1~
 _ZN8casacore5ArrayItE15doNonDegenerateERKS1_RKNS_9IPositionE@Base 3.2.1~
 _ZN8casacore5ArrayItE15postTakeStorageEv@Base 3.2.1~
 _ZN8casacore5ArrayItE16ConstIteratorSTLC1EPKt@Base 3.2.1~
 _ZN8casacore5ArrayItE16ConstIteratorSTLC1ERKNS1_11IteratorSTLE@Base 3.2.1~
 _ZN8casacore5ArrayItE16ConstIteratorSTLC1ERKS1_@Base 3.2.1~
 _ZN8casacore5ArrayItE16ConstIteratorSTLC2EPKt@Base 3.2.1~
 _ZN8casacore5ArrayItE16ConstIteratorSTLC2ERKNS1_11IteratorSTLE@Base 3.2.1~
 _ZN8casacore5ArrayItE16ConstIteratorSTLC2ERKS1_@Base 3.2.1~
 _ZN8casacore5ArrayItE16ConstIteratorSTLppEi@Base 3.2.1~
 _ZN8casacore5ArrayItE16ConstIteratorSTLppEv@Base 3.2.1~
 _ZN8casacore5ArrayItE16ConstIteratorSTLptEv@Base 3.2.1~
 _ZN8casacore5ArrayItE16copyMatchingPartERKS1_@Base 3.2.1~
 _ZN8casacore5ArrayItE16removeDegenerateERKNS_9IPositionE@Base 3.2.1~
 _ZN8casacore5ArrayItE16removeDegenerateEjb@Base 3.2.1~
 _ZN8casacore5ArrayItE22defaultArrayInitPolicyEv@Base 3.2.1~
 _ZN8casacore5ArrayItE23copyToContiguousStorageEPtRKS1_NS_15ArrayInitPolicyE@Base 3.2.1~
 _ZN8casacore5ArrayItE3endEv@Base 3.2.1~
 _ZN8casacore5ArrayItE3setERKt@Base 3.2.1~
 _ZN8casacore5ArrayItE4cendEv@Base 3.2.1~
 _ZN8casacore5ArrayItE4dataEv@Base 3.2.1~
 _ZN8casacore5ArrayItE5applyEPFtRKtE@Base 3.2.1~
 _ZN8casacore5ArrayItE5applyEPFttE@Base 3.2.1~
 _ZN8casacore5ArrayItE5applyERKNS_10FunctionalIttEE@Base 3.2.1~
 _ZN8casacore5ArrayItE5beginEv@Base 3.2.1~
 _ZN8casacore5ArrayItE6assignERKS1_@Base 3.2.1~
 _ZN8casacore5ArrayItE6cbeginEv@Base 3.2.1~
 _ZN8casacore5ArrayItE6resizeERKNS_9IPositionEb@Base 3.2.1~
 _ZN8casacore5ArrayItE6resizeERKNS_9IPositionEbNS_15ArrayInitPolicyE@Base 3.2.1~
 _ZN8casacore5ArrayItE6resizeEv@Base 3.2.1~
 _ZN8casacore5ArrayItE6uniqueEv@Base 3.2.1~
 _ZN8casacore5ArrayItE9makeStepsEv@Base 3.2.1~
 _ZN8casacore5ArrayItE9referenceERKS1_@Base 3.2.1~
 _ZN8casacore5ArrayItEC1ENS_17Allocator_private9AllocSpecItEE@Base 3.2.1~
 _ZN8casacore5ArrayItEC1ERKNS_9IPositionE@Base 3.2.1~
 _ZN8casacore5ArrayItEC1ERKNS_9IPositionENS_15ArrayInitPolicyE@Base 3.2.1~
 _ZN8casacore5ArrayItEC1ERKNS_9IPositionENS_15ArrayInitPolicyEPNS_17Allocator_private13BulkAllocatorItEE@Base 3.2.1~
 _ZN8casacore5ArrayItEC1ERKNS_9IPositionEPKt@Base 3.2.1~
 _ZN8casacore5ArrayItEC1ERKNS_9IPositionEPtNS_17StorageInitPolicyE@Base 3.2.1~
 _ZN8casacore5ArrayItEC1ERKNS_9IPositionEPtNS_17StorageInitPolicyERKNS_17AbstractAllocatorItEE@Base 3.2.1~
 _ZN8casacore5ArrayItEC1ERKNS_9IPositionERKt@Base 3.2.1~
 _ZN8casacore5ArrayItEC1ERKS1_@Base 3.2.1~
 _ZN8casacore5ArrayItEC1Ev@Base 3.2.1~
 _ZN8casacore5ArrayItEC2ENS_17Allocator_private9AllocSpecItEE@Base 3.2.1~
 _ZN8casacore5ArrayItEC2ERKNS_9IPositionE@Base 3.2.1~
 _ZN8casacore5ArrayItEC2ERKNS_9IPositionENS_15ArrayInitPolicyE@Base 3.2.1~
 _ZN8casacore5ArrayItEC2ERKNS_9IPositionENS_15ArrayInitPolicyEPNS_17Allocator_private13BulkAllocatorItEE@Base 3.2.1~
 _ZN8casacore5ArrayItEC2ERKNS_9IPositionEPKt@Base 3.2.1~
 _ZN8casacore5ArrayItEC2ERKNS_9IPositionEPtNS_17StorageInitPolicyE@Base 3.2.1~
 _ZN8casacore5ArrayItEC2ERKNS_9IPositionEPtNS_17StorageInitPolicyERKNS_17AbstractAllocatorItEE@Base 3.2.1~
 _ZN8casacore5ArrayItEC2ERKNS_9IPositionERKt@Base 3.2.1~
 _ZN8casacore5ArrayItEC2ERKS1_@Base 3.2.1~
 _ZN8casacore5ArrayItEC2Ev@Base 3.2.1~
 _ZN8casacore5ArrayItED0Ev@Base 3.2.1~
 _ZN8casacore5ArrayItED1Ev@Base 3.2.1~
 _ZN8casacore5ArrayItED2Ev@Base 3.2.1~
 _ZN8casacore5ArrayItEaSERKNS_11MaskedArrayItEE@Base 3.2.1~
 _ZN8casacore5ArrayItEaSERKS1_@Base 3.2.1~
 _ZN8casacore5ArrayItEaSERKt@Base 3.2.1~
 _ZN8casacore5ArrayItEclERKNS0_IbEE@Base 3.2.1~
 _ZN8casacore5ArrayItEclERKNS_11MaskedArrayIbEE@Base 3.2.1~
 _ZN8casacore5ArrayItEclERKNS_6SlicerE@Base 3.2.1~
 _ZN8casacore5ArrayItEclERKNS_9IPositionE@Base 3.2.1~
 _ZN8casacore5ArrayItEclERKNS_9IPositionES4_@Base 3.2.1~
 _ZN8casacore5ArrayItEclERKNS_9IPositionES4_S4_@Base 3.2.1~
 _ZN8casacore5ArrayIxE10assignBaseERKNS_9ArrayBaseEb@Base 3.2.1~
 _ZN8casacore5ArrayIxE10getStorageERb@Base 3.2.1~
 _ZN8casacore5ArrayIxE10putStorageERPxb@Base 3.2.1~
 _ZN8casacore5ArrayIxE10setEndIterEv@Base 3.2.1~
 _ZN8casacore5ArrayIxE11IteratorSTLC1EPKx@Base 3.2.1~
 _ZN8casacore5ArrayIxE11IteratorSTLC1ERS1_@Base 3.2.1~
 _ZN8casacore5ArrayIxE11IteratorSTLC2EPKx@Base 3.2.1~
 _ZN8casacore5ArrayIxE11IteratorSTLC2ERS1_@Base 3.2.1~
 _ZN8casacore5ArrayIxE11IteratorSTLdeEv@Base 3.2.1~
 _ZN8casacore5ArrayIxE11IteratorSTLppEi@Base 3.2.1~
 _ZN8casacore5ArrayIxE11IteratorSTLppEv@Base 3.2.1~
 _ZN8casacore5ArrayIxE11IteratorSTLptEv@Base 3.2.1~
 _ZN8casacore5ArrayIxE11getVStorageERb@Base 3.2.1~
 _ZN8casacore5ArrayIxE11putVStorageERPvb@Base 3.2.1~
 _ZN8casacore5ArrayIxE11takeStorageERKNS_9IPositionEPKx@Base 3.2.1~
 _ZN8casacore5ArrayIxE11takeStorageERKNS_9IPositionEPKxRKNS_17AbstractAllocatorIxEE@Base 3.2.1~
 _ZN8casacore5ArrayIxE11takeStorageERKNS_9IPositionEPxNS_17StorageInitPolicyE@Base 3.2.1~
 _ZN8casacore5ArrayIxE11takeStorageERKNS_9IPositionEPxNS_17StorageInitPolicyERKNS_17AbstractAllocatorIxEE@Base 3.2.1~
 _ZN8casacore5ArrayIxE13addDegenerateEj@Base 3.2.1~
 _ZN8casacore5ArrayIxE13nonDegenerateERKS1_RKNS_9IPositionE@Base 3.2.1~
 _ZN8casacore5ArrayIxE13nonDegenerateERKS1_jb@Base 3.2.1~
 _ZN8casacore5ArrayIxE14adjustLastAxisERKNS_9IPositionEjb@Base 3.2.1~
 _ZN8casacore5ArrayIxE14preTakeStorageERKNS_9IPositionE@Base 3.2.1~
 _ZN8casacore5ArrayIxE14reformOrResizeERKNS_9IPositionEjb@Base 3.2.1~
 _ZN8casacore5ArrayIxE15BaseIteratorSTL6getPosEv@Base 3.2.1~
 _ZN8casacore5ArrayIxE15BaseIteratorSTL8nextElemEv@Base 3.2.1~
 _ZN8casacore5ArrayIxE15BaseIteratorSTL8nextLineEv@Base 3.2.1~
 _ZN8casacore5ArrayIxE15BaseIteratorSTL9incrementEv@Base 3.2.1~
 _ZN8casacore5ArrayIxE15BaseIteratorSTLC1EPKx@Base 3.2.1~
 _ZN8casacore5ArrayIxE15BaseIteratorSTLC1ERKS1_@Base 3.2.1~
 _ZN8casacore5ArrayIxE15BaseIteratorSTLC2EPKx@Base 3.2.1~
 _ZN8casacore5ArrayIxE15BaseIteratorSTLC2ERKS1_@Base 3.2.1~
 _ZN8casacore5ArrayIxE15doNonDegenerateERKS1_RKNS_9IPositionE@Base 3.2.1~
 _ZN8casacore5ArrayIxE15postTakeStorageEv@Base 3.2.1~
 _ZN8casacore5ArrayIxE16ConstIteratorSTLC1EPKx@Base 3.2.1~
 _ZN8casacore5ArrayIxE16ConstIteratorSTLC1ERKNS1_11IteratorSTLE@Base 3.2.1~
 _ZN8casacore5ArrayIxE16ConstIteratorSTLC1ERKS1_@Base 3.2.1~
 _ZN8casacore5ArrayIxE16ConstIteratorSTLC2EPKx@Base 3.2.1~
 _ZN8casacore5ArrayIxE16ConstIteratorSTLC2ERKNS1_11IteratorSTLE@Base 3.2.1~
 _ZN8casacore5ArrayIxE16ConstIteratorSTLC2ERKS1_@Base 3.2.1~
 _ZN8casacore5ArrayIxE16ConstIteratorSTLppEi@Base 3.2.1~
 _ZN8casacore5ArrayIxE16ConstIteratorSTLppEv@Base 3.2.1~
 _ZN8casacore5ArrayIxE16ConstIteratorSTLptEv@Base 3.2.1~
 _ZN8casacore5ArrayIxE16copyMatchingPartERKS1_@Base 3.2.1~
 _ZN8casacore5ArrayIxE16removeDegenerateERKNS_9IPositionE@Base 3.2.1~
 _ZN8casacore5ArrayIxE16removeDegenerateEjb@Base 3.2.1~
 _ZN8casacore5ArrayIxE22defaultArrayInitPolicyEv@Base 3.2.1~
 _ZN8casacore5ArrayIxE23copyToContiguousStorageEPxRKS1_NS_15ArrayInitPolicyE@Base 3.2.1~
 _ZN8casacore5ArrayIxE3endEv@Base 3.2.1~
 _ZN8casacore5ArrayIxE3setERKx@Base 3.2.1~
 _ZN8casacore5ArrayIxE4cendEv@Base 3.2.1~
 _ZN8casacore5ArrayIxE4dataEv@Base 3.2.1~
 _ZN8casacore5ArrayIxE5applyEPFxRKxE@Base 3.2.1~
 _ZN8casacore5ArrayIxE5applyEPFxxE@Base 3.2.1~
 _ZN8casacore5ArrayIxE5applyERKNS_10FunctionalIxxEE@Base 3.2.1~
 _ZN8casacore5ArrayIxE5beginEv@Base 3.2.1~
 _ZN8casacore5ArrayIxE6assignERKS1_@Base 3.2.1~
 _ZN8casacore5ArrayIxE6cbeginEv@Base 3.2.1~
 _ZN8casacore5ArrayIxE6resizeERKNS_9IPositionEb@Base 3.2.1~
 _ZN8casacore5ArrayIxE6resizeERKNS_9IPositionEbNS_15ArrayInitPolicyE@Base 3.2.1~
 _ZN8casacore5ArrayIxE6resizeEv@Base 3.2.1~
 _ZN8casacore5ArrayIxE6uniqueEv@Base 3.2.1~
 _ZN8casacore5ArrayIxE9makeStepsEv@Base 3.2.1~
 _ZN8casacore5ArrayIxE9referenceERKS1_@Base 3.2.1~
 _ZN8casacore5ArrayIxEC1ENS_17Allocator_private9AllocSpecIxEE@Base 3.2.1~
 _ZN8casacore5ArrayIxEC1ERKNS_9IPositionE@Base 3.2.1~
 _ZN8casacore5ArrayIxEC1ERKNS_9IPositionENS_15ArrayInitPolicyE@Base 3.2.1~
 _ZN8casacore5ArrayIxEC1ERKNS_9IPositionENS_15ArrayInitPolicyEPNS_17Allocator_private13BulkAllocatorIxEE@Base 3.2.1~
 _ZN8casacore5ArrayIxEC1ERKNS_9IPositionEPKx@Base 3.2.1~
 _ZN8casacore5ArrayIxEC1ERKNS_9IPositionEPxNS_17StorageInitPolicyE@Base 3.2.1~
 _ZN8casacore5ArrayIxEC1ERKNS_9IPositionEPxNS_17StorageInitPolicyERKNS_17AbstractAllocatorIxEE@Base 3.2.1~
 _ZN8casacore5ArrayIxEC1ERKNS_9IPositionERKx@Base 3.2.1~
 _ZN8casacore5ArrayIxEC1ERKS1_@Base 3.2.1~
 _ZN8casacore5ArrayIxEC1Ev@Base 3.2.1~
 _ZN8casacore5ArrayIxEC2ENS_17Allocator_private9AllocSpecIxEE@Base 3.2.1~
 _ZN8casacore5ArrayIxEC2ERKNS_9IPositionE@Base 3.2.1~
 _ZN8casacore5ArrayIxEC2ERKNS_9IPositionENS_15ArrayInitPolicyE@Base 3.2.1~
 _ZN8casacore5ArrayIxEC2ERKNS_9IPositionENS_15ArrayInitPolicyEPNS_17Allocator_private13BulkAllocatorIxEE@Base 3.2.1~
 _ZN8casacore5ArrayIxEC2ERKNS_9IPositionEPKx@Base 3.2.1~
 _ZN8casacore5ArrayIxEC2ERKNS_9IPositionEPxNS_17StorageInitPolicyE@Base 3.2.1~
 _ZN8casacore5ArrayIxEC2ERKNS_9IPositionEPxNS_17StorageInitPolicyERKNS_17AbstractAllocatorIxEE@Base 3.2.1~
 _ZN8casacore5ArrayIxEC2ERKNS_9IPositionERKx@Base 3.2.1~
 _ZN8casacore5ArrayIxEC2ERKS1_@Base 3.2.1~
 _ZN8casacore5ArrayIxEC2Ev@Base 3.2.1~
 _ZN8casacore5ArrayIxED0Ev@Base 3.2.1~
 _ZN8casacore5ArrayIxED1Ev@Base 3.2.1~
 _ZN8casacore5ArrayIxED2Ev@Base 3.2.1~
 _ZN8casacore5ArrayIxEaSERKNS_11MaskedArrayIxEE@Base 3.2.1~
 _ZN8casacore5ArrayIxEaSERKS1_@Base 3.2.1~
 _ZN8casacore5ArrayIxEaSERKx@Base 3.2.1~
 _ZN8casacore5ArrayIxEclERKNS0_IbEE@Base 3.2.1~
 _ZN8casacore5ArrayIxEclERKNS_11MaskedArrayIbEE@Base 3.2.1~
 _ZN8casacore5ArrayIxEclERKNS_6SlicerE@Base 3.2.1~
 _ZN8casacore5ArrayIxEclERKNS_9IPositionE@Base 3.2.1~
 _ZN8casacore5ArrayIxEclERKNS_9IPositionES4_@Base 3.2.1~
 _ZN8casacore5ArrayIxEclERKNS_9IPositionES4_S4_@Base 3.2.1~
 _ZN8casacore5BlockINS_5SliceEE6deinitEv@Base 3.2.1~
 _ZN8casacore5BlockINS_5SliceEE7deallocEv@Base 3.2.1~
 _ZN8casacore5BlockINS_6StringEE11init_anywayEv@Base 3.2.1~
 _ZN8casacore5BlockINS_6StringEE12set_capacityEm@Base 3.2.1~
 _ZN8casacore5BlockINS_6StringEE13get_allocatorEv@Base 3.2.1~
 _ZN8casacore5BlockINS_6StringEE14replaceStorageEmRPS1_b@Base 3.2.1~
 _ZN8casacore5BlockINS_6StringEE23permitChangingAllocatorEv@Base 3.2.1~
 _ZN8casacore5BlockINS_6StringEE25prohibitChangingAllocatorEv@Base 3.2.1~
 _ZN8casacore5BlockINS_6StringEE3endEv@Base 3.2.1~
 _ZN8casacore5BlockINS_6StringEE3setERKS1_@Base 3.2.1~
 _ZN8casacore5BlockINS_6StringEE4initENS_15ArrayInitPolicyE@Base 3.2.1~
 _ZN8casacore5BlockINS_6StringEE5beginEv@Base 3.2.1~
 _ZN8casacore5BlockINS_6StringEE6deinitEv@Base 3.2.1~
 _ZN8casacore5BlockINS_6StringEE6removeEmb@Base 3.2.1~
 _ZN8casacore5BlockINS_6StringEE6removeEmbNS_15ArrayInitPolicyE@Base 3.2.1~
 _ZN8casacore5BlockINS_6StringEE6resizeEmbb@Base 3.2.1~
 _ZN8casacore5BlockINS_6StringEE6resizeEmbbNS_15ArrayInitPolicyE@Base 3.2.1~
 _ZN8casacore5BlockINS_6StringEE7deallocEv@Base 3.2.1~
 _ZN8casacore5BlockINS_6StringEE7destroyEmm@Base 3.2.1~
 _ZN8casacore5BlockINS_6StringEE7storageEv@Base 3.2.1~
 _ZN8casacore5BlockINS_6StringEE8set_sizeEm@Base 3.2.1~
 _ZN8casacore5BlockINS_6StringEE9constructEmm@Base 3.2.1~
 _ZN8casacore5BlockINS_6StringEE9constructEmmPKS1_@Base 3.2.1~
 _ZN8casacore5BlockINS_6StringEE9constructEmmRKS1_@Base 3.2.1~
 _ZN8casacore5BlockINS_6StringEEC1ERKS2_@Base 3.2.1~
 _ZN8casacore5BlockINS_6StringEEC1Em@Base 3.2.1~
 _ZN8casacore5BlockINS_6StringEEC1EmNS_15ArrayInitPolicyE@Base 3.2.1~
 _ZN8casacore5BlockINS_6StringEEC1EmNS_15ArrayInitPolicyEPNS_17Allocator_private13BulkAllocatorIS1_EE@Base 3.2.1~
 _ZN8casacore5BlockINS_6StringEEC1EmNS_17Allocator_private9AllocSpecIS1_EE@Base 3.2.1~
 _ZN8casacore5BlockINS_6StringEEC1EmRKS1_@Base 3.2.1~
 _ZN8casacore5BlockINS_6StringEEC1EmRPS1_b@Base 3.2.1~
 _ZN8casacore5BlockINS_6StringEEC1EmRPS1_bPNS_17Allocator_private13BulkAllocatorIS1_EE@Base 3.2.1~
 _ZN8casacore5BlockINS_6StringEEC1Ev@Base 3.2.1~
 _ZN8casacore5BlockINS_6StringEEC2ERKS2_@Base 3.2.1~
 _ZN8casacore5BlockINS_6StringEEC2Em@Base 3.2.1~
 _ZN8casacore5BlockINS_6StringEEC2EmNS_15ArrayInitPolicyE@Base 3.2.1~
 _ZN8casacore5BlockINS_6StringEEC2EmNS_15ArrayInitPolicyEPNS_17Allocator_private13BulkAllocatorIS1_EE@Base 3.2.1~
 _ZN8casacore5BlockINS_6StringEEC2EmNS_17Allocator_private9AllocSpecIS1_EE@Base 3.2.1~
 _ZN8casacore5BlockINS_6StringEEC2EmRKS1_@Base 3.2.1~
 _ZN8casacore5BlockINS_6StringEEC2EmRPS1_b@Base 3.2.1~
 _ZN8casacore5BlockINS_6StringEEC2EmRPS1_bPNS_17Allocator_private13BulkAllocatorIS1_EE@Base 3.2.1~
 _ZN8casacore5BlockINS_6StringEEC2Ev@Base 3.2.1~
 _ZN8casacore5BlockINS_6StringEED1Ev@Base 3.2.1~
 _ZN8casacore5BlockINS_6StringEED2Ev@Base 3.2.1~
 _ZN8casacore5BlockINS_6StringEEaSERKS1_@Base 3.2.1~
 _ZN8casacore5BlockINS_6StringEEaSERKS2_@Base 3.2.1~
 _ZN8casacore5BlockINS_6StringEEixEm@Base 3.2.1~
 _ZN8casacore5BlockINS_6VectorINS_6StringEEEE6deinitEv@Base 3.2.1~
 _ZN8casacore5BlockINS_6VectorIbEEE6deinitEv@Base 3.2.1~
 _ZN8casacore5BlockINS_7QuantumIdEEE6deinitEv@Base 3.2.1~
 _ZN8casacore5BlockINS_7QuantumIdEEE7deallocEv@Base 3.2.1~
 _ZN8casacore5BlockINS_9IPositionEE6deinitEv@Base 3.2.1~
 _ZN8casacore5BlockINS_9IPositionEE7deallocEv@Base 3.2.1~
 _ZN8casacore5BlockIPvE11init_anywayEv@Base 3.2.1~
 _ZN8casacore5BlockIPvE12set_capacityEm@Base 3.2.1~
 _ZN8casacore5BlockIPvE13get_allocatorEv@Base 3.2.1~
 _ZN8casacore5BlockIPvE14replaceStorageEmRPS1_b@Base 3.2.1~
 _ZN8casacore5BlockIPvE23permitChangingAllocatorEv@Base 3.2.1~
 _ZN8casacore5BlockIPvE25prohibitChangingAllocatorEv@Base 3.2.1~
 _ZN8casacore5BlockIPvE3endEv@Base 3.2.1~
 _ZN8casacore5BlockIPvE3setERKS1_@Base 3.2.1~
 _ZN8casacore5BlockIPvE4initENS_15ArrayInitPolicyE@Base 3.2.1~
 _ZN8casacore5BlockIPvE5beginEv@Base 3.2.1~
 _ZN8casacore5BlockIPvE6deinitEv@Base 3.2.1~
 _ZN8casacore5BlockIPvE6removeEmb@Base 3.2.1~
 _ZN8casacore5BlockIPvE6removeEmbNS_15ArrayInitPolicyE@Base 3.2.1~
 _ZN8casacore5BlockIPvE6resizeEmbb@Base 3.2.1~
 _ZN8casacore5BlockIPvE6resizeEmbbNS_15ArrayInitPolicyE@Base 3.2.1~
 _ZN8casacore5BlockIPvE7deallocEv@Base 3.2.1~
 _ZN8casacore5BlockIPvE7destroyEmm@Base 3.2.1~
 _ZN8casacore5BlockIPvE7storageEv@Base 3.2.1~
 _ZN8casacore5BlockIPvE8set_sizeEm@Base 3.2.1~
 _ZN8casacore5BlockIPvE9constructEmm@Base 3.2.1~
 _ZN8casacore5BlockIPvE9constructEmmPKS1_@Base 3.2.1~
 _ZN8casacore5BlockIPvE9constructEmmRKS1_@Base 3.2.1~
 _ZN8casacore5BlockIPvEC1ERKS2_@Base 3.2.1~
 _ZN8casacore5BlockIPvEC1Em@Base 3.2.1~
 _ZN8casacore5BlockIPvEC1EmNS_15ArrayInitPolicyE@Base 3.2.1~
 _ZN8casacore5BlockIPvEC1EmNS_15ArrayInitPolicyEPNS_17Allocator_private13BulkAllocatorIS1_EE@Base 3.2.1~
 _ZN8casacore5BlockIPvEC1EmNS_17Allocator_private9AllocSpecIS1_EE@Base 3.2.1~
 _ZN8casacore5BlockIPvEC1EmRKS1_@Base 3.2.1~
 _ZN8casacore5BlockIPvEC1EmRPS1_b@Base 3.2.1~
 _ZN8casacore5BlockIPvEC1EmRPS1_bPNS_17Allocator_private13BulkAllocatorIS1_EE@Base 3.2.1~
 _ZN8casacore5BlockIPvEC1Ev@Base 3.2.1~
 _ZN8casacore5BlockIPvEC2ERKS2_@Base 3.2.1~
 _ZN8casacore5BlockIPvEC2Em@Base 3.2.1~
 _ZN8casacore5BlockIPvEC2EmNS_15ArrayInitPolicyE@Base 3.2.1~
 _ZN8casacore5BlockIPvEC2EmNS_15ArrayInitPolicyEPNS_17Allocator_private13BulkAllocatorIS1_EE@Base 3.2.1~
 _ZN8casacore5BlockIPvEC2EmNS_17Allocator_private9AllocSpecIS1_EE@Base 3.2.1~
 _ZN8casacore5BlockIPvEC2EmRKS1_@Base 3.2.1~
 _ZN8casacore5BlockIPvEC2EmRPS1_b@Base 3.2.1~
 _ZN8casacore5BlockIPvEC2EmRPS1_bPNS_17Allocator_private13BulkAllocatorIS1_EE@Base 3.2.1~
 _ZN8casacore5BlockIPvEC2Ev@Base 3.2.1~
 _ZN8casacore5BlockIPvED1Ev@Base 3.2.1~
 _ZN8casacore5BlockIPvED2Ev@Base 3.2.1~
 _ZN8casacore5BlockIPvEaSERKS1_@Base 3.2.1~
 _ZN8casacore5BlockIPvEaSERKS2_@Base 3.2.1~
 _ZN8casacore5BlockIPvEixEm@Base 3.2.1~
 _ZN8casacore5BlockISt7complexIdEE11init_anywayEv@Base 3.2.1~
 _ZN8casacore5BlockISt7complexIdEE12set_capacityEm@Base 3.2.1~
 _ZN8casacore5BlockISt7complexIdEE13get_allocatorEv@Base 3.2.1~
 _ZN8casacore5BlockISt7complexIdEE14replaceStorageEmRPS2_b@Base 3.2.1~
 _ZN8casacore5BlockISt7complexIdEE23permitChangingAllocatorEv@Base 3.2.1~
 _ZN8casacore5BlockISt7complexIdEE25prohibitChangingAllocatorEv@Base 3.2.1~
 _ZN8casacore5BlockISt7complexIdEE3endEv@Base 3.2.1~
 _ZN8casacore5BlockISt7complexIdEE3setERKS2_@Base 3.2.1~
 _ZN8casacore5BlockISt7complexIdEE4initENS_15ArrayInitPolicyE@Base 3.2.1~
 _ZN8casacore5BlockISt7complexIdEE5beginEv@Base 3.2.1~
 _ZN8casacore5BlockISt7complexIdEE6deinitEv@Base 3.2.1~
 _ZN8casacore5BlockISt7complexIdEE6removeEmb@Base 3.2.1~
 _ZN8casacore5BlockISt7complexIdEE6removeEmbNS_15ArrayInitPolicyE@Base 3.2.1~
 _ZN8casacore5BlockISt7complexIdEE6resizeEmbb@Base 3.2.1~
 _ZN8casacore5BlockISt7complexIdEE6resizeEmbbNS_15ArrayInitPolicyE@Base 3.2.1~
 _ZN8casacore5BlockISt7complexIdEE7deallocEv@Base 3.2.1~
 _ZN8casacore5BlockISt7complexIdEE7destroyEmm@Base 3.2.1~
 _ZN8casacore5BlockISt7complexIdEE7storageEv@Base 3.2.1~
 _ZN8casacore5BlockISt7complexIdEE8set_sizeEm@Base 3.2.1~
 _ZN8casacore5BlockISt7complexIdEE9constructEmm@Base 3.2.1~
 _ZN8casacore5BlockISt7complexIdEE9constructEmmPKS2_@Base 3.2.1~
 _ZN8casacore5BlockISt7complexIdEE9constructEmmRKS2_@Base 3.2.1~
 _ZN8casacore5BlockISt7complexIdEEC1ERKS3_@Base 3.2.1~
 _ZN8casacore5BlockISt7complexIdEEC1Em@Base 3.2.1~
 _ZN8casacore5BlockISt7complexIdEEC1EmNS_15ArrayInitPolicyE@Base 3.2.1~
 _ZN8casacore5BlockISt7complexIdEEC1EmNS_15ArrayInitPolicyEPNS_17Allocator_private13BulkAllocatorIS2_EE@Base 3.2.1~
 _ZN8casacore5BlockISt7complexIdEEC1EmNS_17Allocator_private9AllocSpecIS2_EE@Base 3.2.1~
 _ZN8casacore5BlockISt7complexIdEEC1EmRKS2_@Base 3.2.1~
 _ZN8casacore5BlockISt7complexIdEEC1EmRPS2_b@Base 3.2.1~
 _ZN8casacore5BlockISt7complexIdEEC1EmRPS2_bPNS_17Allocator_private13BulkAllocatorIS2_EE@Base 3.2.1~
 _ZN8casacore5BlockISt7complexIdEEC1Ev@Base 3.2.1~
 _ZN8casacore5BlockISt7complexIdEEC2ERKS3_@Base 3.2.1~
 _ZN8casacore5BlockISt7complexIdEEC2Em@Base 3.2.1~
 _ZN8casacore5BlockISt7complexIdEEC2EmNS_15ArrayInitPolicyE@Base 3.2.1~
 _ZN8casacore5BlockISt7complexIdEEC2EmNS_15ArrayInitPolicyEPNS_17Allocator_private13BulkAllocatorIS2_EE@Base 3.2.1~
 _ZN8casacore5BlockISt7complexIdEEC2EmNS_17Allocator_private9AllocSpecIS2_EE@Base 3.2.1~
 _ZN8casacore5BlockISt7complexIdEEC2EmRKS2_@Base 3.2.1~
 _ZN8casacore5BlockISt7complexIdEEC2EmRPS2_b@Base 3.2.1~
 _ZN8casacore5BlockISt7complexIdEEC2EmRPS2_bPNS_17Allocator_private13BulkAllocatorIS2_EE@Base 3.2.1~
 _ZN8casacore5BlockISt7complexIdEEC2Ev@Base 3.2.1~
 _ZN8casacore5BlockISt7complexIdEED1Ev@Base 3.2.1~
 _ZN8casacore5BlockISt7complexIdEED2Ev@Base 3.2.1~
 _ZN8casacore5BlockISt7complexIdEEaSERKS2_@Base 3.2.1~
 _ZN8casacore5BlockISt7complexIdEEaSERKS3_@Base 3.2.1~
 _ZN8casacore5BlockISt7complexIdEEixEm@Base 3.2.1~
 _ZN8casacore5BlockISt7complexIfEE11init_anywayEv@Base 3.2.1~
 _ZN8casacore5BlockISt7complexIfEE12set_capacityEm@Base 3.2.1~
 _ZN8casacore5BlockISt7complexIfEE13get_allocatorEv@Base 3.2.1~
 _ZN8casacore5BlockISt7complexIfEE14replaceStorageEmRPS2_b@Base 3.2.1~
 _ZN8casacore5BlockISt7complexIfEE23permitChangingAllocatorEv@Base 3.2.1~
 _ZN8casacore5BlockISt7complexIfEE25prohibitChangingAllocatorEv@Base 3.2.1~
 _ZN8casacore5BlockISt7complexIfEE3endEv@Base 3.2.1~
 _ZN8casacore5BlockISt7complexIfEE3setERKS2_@Base 3.2.1~
 _ZN8casacore5BlockISt7complexIfEE4initENS_15ArrayInitPolicyE@Base 3.2.1~
 _ZN8casacore5BlockISt7complexIfEE5beginEv@Base 3.2.1~
 _ZN8casacore5BlockISt7complexIfEE6deinitEv@Base 3.2.1~
 _ZN8casacore5BlockISt7complexIfEE6removeEmb@Base 3.2.1~
 _ZN8casacore5BlockISt7complexIfEE6removeEmbNS_15ArrayInitPolicyE@Base 3.2.1~
 _ZN8casacore5BlockISt7complexIfEE6resizeEmbb@Base 3.2.1~
 _ZN8casacore5BlockISt7complexIfEE6resizeEmbbNS_15ArrayInitPolicyE@Base 3.2.1~
 _ZN8casacore5BlockISt7complexIfEE7deallocEv@Base 3.2.1~
 _ZN8casacore5BlockISt7complexIfEE7destroyEmm@Base 3.2.1~
 _ZN8casacore5BlockISt7complexIfEE7storageEv@Base 3.2.1~
 _ZN8casacore5BlockISt7complexIfEE8set_sizeEm@Base 3.2.1~
 _ZN8casacore5BlockISt7complexIfEE9constructEmm@Base 3.2.1~
 _ZN8casacore5BlockISt7complexIfEE9constructEmmPKS2_@Base 3.2.1~
 _ZN8casacore5BlockISt7complexIfEE9constructEmmRKS2_@Base 3.2.1~
 _ZN8casacore5BlockISt7complexIfEEC1ERKS3_@Base 3.2.1~
 _ZN8casacore5BlockISt7complexIfEEC1Em@Base 3.2.1~
 _ZN8casacore5BlockISt7complexIfEEC1EmNS_15ArrayInitPolicyE@Base 3.2.1~
 _ZN8casacore5BlockISt7complexIfEEC1EmNS_15ArrayInitPolicyEPNS_17Allocator_private13BulkAllocatorIS2_EE@Base 3.2.1~
 _ZN8casacore5BlockISt7complexIfEEC1EmNS_17Allocator_private9AllocSpecIS2_EE@Base 3.2.1~
 _ZN8casacore5BlockISt7complexIfEEC1EmRKS2_@Base 3.2.1~
 _ZN8casacore5BlockISt7complexIfEEC1EmRPS2_b@Base 3.2.1~
 _ZN8casacore5BlockISt7complexIfEEC1EmRPS2_bPNS_17Allocator_private13BulkAllocatorIS2_EE@Base 3.2.1~
 _ZN8casacore5BlockISt7complexIfEEC1Ev@Base 3.2.1~
 _ZN8casacore5BlockISt7complexIfEEC2ERKS3_@Base 3.2.1~
 _ZN8casacore5BlockISt7complexIfEEC2Em@Base 3.2.1~
 _ZN8casacore5BlockISt7complexIfEEC2EmNS_15ArrayInitPolicyE@Base 3.2.1~
 _ZN8casacore5BlockISt7complexIfEEC2EmNS_15ArrayInitPolicyEPNS_17Allocator_private13BulkAllocatorIS2_EE@Base 3.2.1~
 _ZN8casacore5BlockISt7complexIfEEC2EmNS_17Allocator_private9AllocSpecIS2_EE@Base 3.2.1~
 _ZN8casacore5BlockISt7complexIfEEC2EmRKS2_@Base 3.2.1~
 _ZN8casacore5BlockISt7complexIfEEC2EmRPS2_b@Base 3.2.1~
 _ZN8casacore5BlockISt7complexIfEEC2EmRPS2_bPNS_17Allocator_private13BulkAllocatorIS2_EE@Base 3.2.1~
 _ZN8casacore5BlockISt7complexIfEEC2Ev@Base 3.2.1~
 _ZN8casacore5BlockISt7complexIfEED1Ev@Base 3.2.1~
 _ZN8casacore5BlockISt7complexIfEED2Ev@Base 3.2.1~
 _ZN8casacore5BlockISt7complexIfEEaSERKS2_@Base 3.2.1~
 _ZN8casacore5BlockISt7complexIfEEaSERKS3_@Base 3.2.1~
 _ZN8casacore5BlockISt7complexIfEEixEm@Base 3.2.1~
 _ZN8casacore5BlockIbE11init_anywayEv@Base 3.2.1~
 _ZN8casacore5BlockIbE12set_capacityEm@Base 3.2.1~
 _ZN8casacore5BlockIbE13get_allocatorEv@Base 3.2.1~
 _ZN8casacore5BlockIbE14replaceStorageEmRPbb@Base 3.2.1~
 _ZN8casacore5BlockIbE23permitChangingAllocatorEv@Base 3.2.1~
 _ZN8casacore5BlockIbE25prohibitChangingAllocatorEv@Base 3.2.1~
 _ZN8casacore5BlockIbE3endEv@Base 3.2.1~
 _ZN8casacore5BlockIbE3setERKb@Base 3.2.1~
 _ZN8casacore5BlockIbE4initENS_15ArrayInitPolicyE@Base 3.2.1~
 _ZN8casacore5BlockIbE5beginEv@Base 3.2.1~
 _ZN8casacore5BlockIbE6deinitEv@Base 3.2.1~
 _ZN8casacore5BlockIbE6removeEmb@Base 3.2.1~
 _ZN8casacore5BlockIbE6removeEmbNS_15ArrayInitPolicyE@Base 3.2.1~
 _ZN8casacore5BlockIbE6resizeEmbb@Base 3.2.1~
 _ZN8casacore5BlockIbE6resizeEmbbNS_15ArrayInitPolicyE@Base 3.2.1~
 _ZN8casacore5BlockIbE7deallocEv@Base 3.2.1~
 _ZN8casacore5BlockIbE7destroyEmm@Base 3.2.1~
 _ZN8casacore5BlockIbE7storageEv@Base 3.2.1~
 _ZN8casacore5BlockIbE8set_sizeEm@Base 3.2.1~
 _ZN8casacore5BlockIbE9constructEmm@Base 3.2.1~
 _ZN8casacore5BlockIbE9constructEmmPKb@Base 3.2.1~
 _ZN8casacore5BlockIbE9constructEmmRKb@Base 3.2.1~
 _ZN8casacore5BlockIbEC1ERKS1_@Base 3.2.1~
 _ZN8casacore5BlockIbEC1Em@Base 3.2.1~
 _ZN8casacore5BlockIbEC1EmNS_15ArrayInitPolicyE@Base 3.2.1~
 _ZN8casacore5BlockIbEC1EmNS_15ArrayInitPolicyEPNS_17Allocator_private13BulkAllocatorIbEE@Base 3.2.1~
 _ZN8casacore5BlockIbEC1EmNS_17Allocator_private9AllocSpecIbEE@Base 3.2.1~
 _ZN8casacore5BlockIbEC1EmRKb@Base 3.2.1~
 _ZN8casacore5BlockIbEC1EmRPbb@Base 3.2.1~
 _ZN8casacore5BlockIbEC1EmRPbbPNS_17Allocator_private13BulkAllocatorIbEE@Base 3.2.1~
 _ZN8casacore5BlockIbEC1Ev@Base 3.2.1~
 _ZN8casacore5BlockIbEC2ERKS1_@Base 3.2.1~
 _ZN8casacore5BlockIbEC2Em@Base 3.2.1~
 _ZN8casacore5BlockIbEC2EmNS_15ArrayInitPolicyE@Base 3.2.1~
 _ZN8casacore5BlockIbEC2EmNS_15ArrayInitPolicyEPNS_17Allocator_private13BulkAllocatorIbEE@Base 3.2.1~
 _ZN8casacore5BlockIbEC2EmNS_17Allocator_private9AllocSpecIbEE@Base 3.2.1~
 _ZN8casacore5BlockIbEC2EmRKb@Base 3.2.1~
 _ZN8casacore5BlockIbEC2EmRPbb@Base 3.2.1~
 _ZN8casacore5BlockIbEC2EmRPbbPNS_17Allocator_private13BulkAllocatorIbEE@Base 3.2.1~
 _ZN8casacore5BlockIbEC2Ev@Base 3.2.1~
 _ZN8casacore5BlockIbED1Ev@Base 3.2.1~
 _ZN8casacore5BlockIbED2Ev@Base 3.2.1~
 _ZN8casacore5BlockIbEaSERKS1_@Base 3.2.1~
 _ZN8casacore5BlockIbEaSERKb@Base 3.2.1~
 _ZN8casacore5BlockIbEixEm@Base 3.2.1~
 _ZN8casacore5BlockIcE11init_anywayEv@Base 3.2.1~
 _ZN8casacore5BlockIcE12set_capacityEm@Base 3.2.1~
 _ZN8casacore5BlockIcE13get_allocatorEv@Base 3.2.1~
 _ZN8casacore5BlockIcE14replaceStorageEmRPcb@Base 3.2.1~
 _ZN8casacore5BlockIcE23permitChangingAllocatorEv@Base 3.2.1~
 _ZN8casacore5BlockIcE25prohibitChangingAllocatorEv@Base 3.2.1~
 _ZN8casacore5BlockIcE3endEv@Base 3.2.1~
 _ZN8casacore5BlockIcE3setERKc@Base 3.2.1~
 _ZN8casacore5BlockIcE4initENS_15ArrayInitPolicyE@Base 3.2.1~
 _ZN8casacore5BlockIcE5beginEv@Base 3.2.1~
 _ZN8casacore5BlockIcE6deinitEv@Base 3.2.1~
 _ZN8casacore5BlockIcE6removeEmb@Base 3.2.1~
 _ZN8casacore5BlockIcE6removeEmbNS_15ArrayInitPolicyE@Base 3.2.1~
 _ZN8casacore5BlockIcE6resizeEmbb@Base 3.2.1~
 _ZN8casacore5BlockIcE6resizeEmbbNS_15ArrayInitPolicyE@Base 3.2.1~
 _ZN8casacore5BlockIcE7deallocEv@Base 3.2.1~
 _ZN8casacore5BlockIcE7destroyEmm@Base 3.2.1~
 _ZN8casacore5BlockIcE7storageEv@Base 3.2.1~
 _ZN8casacore5BlockIcE8set_sizeEm@Base 3.2.1~
 _ZN8casacore5BlockIcE9constructEmm@Base 3.2.1~
 _ZN8casacore5BlockIcE9constructEmmPKc@Base 3.2.1~
 _ZN8casacore5BlockIcE9constructEmmRKc@Base 3.2.1~
 _ZN8casacore5BlockIcEC1ERKS1_@Base 3.2.1~
 _ZN8casacore5BlockIcEC1Em@Base 3.2.1~
 _ZN8casacore5BlockIcEC1EmNS_15ArrayInitPolicyE@Base 3.2.1~
 _ZN8casacore5BlockIcEC1EmNS_15ArrayInitPolicyEPNS_17Allocator_private13BulkAllocatorIcEE@Base 3.2.1~
 _ZN8casacore5BlockIcEC1EmNS_17Allocator_private9AllocSpecIcEE@Base 3.2.1~
 _ZN8casacore5BlockIcEC1EmRKc@Base 3.2.1~
 _ZN8casacore5BlockIcEC1EmRPcb@Base 3.2.1~
 _ZN8casacore5BlockIcEC1EmRPcbPNS_17Allocator_private13BulkAllocatorIcEE@Base 3.2.1~
 _ZN8casacore5BlockIcEC1Ev@Base 3.2.1~
 _ZN8casacore5BlockIcEC2ERKS1_@Base 3.2.1~
 _ZN8casacore5BlockIcEC2Em@Base 3.2.1~
 _ZN8casacore5BlockIcEC2EmNS_15ArrayInitPolicyE@Base 3.2.1~
 _ZN8casacore5BlockIcEC2EmNS_15ArrayInitPolicyEPNS_17Allocator_private13BulkAllocatorIcEE@Base 3.2.1~
 _ZN8casacore5BlockIcEC2EmNS_17Allocator_private9AllocSpecIcEE@Base 3.2.1~
 _ZN8casacore5BlockIcEC2EmRKc@Base 3.2.1~
 _ZN8casacore5BlockIcEC2EmRPcb@Base 3.2.1~
 _ZN8casacore5BlockIcEC2EmRPcbPNS_17Allocator_private13BulkAllocatorIcEE@Base 3.2.1~
 _ZN8casacore5BlockIcEC2Ev@Base 3.2.1~
 _ZN8casacore5BlockIcED1Ev@Base 3.2.1~
 _ZN8casacore5BlockIcED2Ev@Base 3.2.1~
 _ZN8casacore5BlockIcEaSERKS1_@Base 3.2.1~
 _ZN8casacore5BlockIcEaSERKc@Base 3.2.1~
 _ZN8casacore5BlockIcEixEm@Base 3.2.1~
 _ZN8casacore5BlockIdE11init_anywayEv@Base 3.2.1~
 _ZN8casacore5BlockIdE12set_capacityEm@Base 3.2.1~
 _ZN8casacore5BlockIdE13get_allocatorEv@Base 3.2.1~
 _ZN8casacore5BlockIdE14replaceStorageEmRPdb@Base 3.2.1~
 _ZN8casacore5BlockIdE23permitChangingAllocatorEv@Base 3.2.1~
 _ZN8casacore5BlockIdE25prohibitChangingAllocatorEv@Base 3.2.1~
 _ZN8casacore5BlockIdE3endEv@Base 3.2.1~
 _ZN8casacore5BlockIdE3setERKd@Base 3.2.1~
 _ZN8casacore5BlockIdE4initENS_15ArrayInitPolicyE@Base 3.2.1~
 _ZN8casacore5BlockIdE5beginEv@Base 3.2.1~
 _ZN8casacore5BlockIdE6deinitEv@Base 3.2.1~
 _ZN8casacore5BlockIdE6removeEmb@Base 3.2.1~
 _ZN8casacore5BlockIdE6removeEmbNS_15ArrayInitPolicyE@Base 3.2.1~
 _ZN8casacore5BlockIdE6resizeEmbb@Base 3.2.1~
 _ZN8casacore5BlockIdE6resizeEmbbNS_15ArrayInitPolicyE@Base 3.2.1~
 _ZN8casacore5BlockIdE7deallocEv@Base 3.2.1~
 _ZN8casacore5BlockIdE7destroyEmm@Base 3.2.1~
 _ZN8casacore5BlockIdE7storageEv@Base 3.2.1~
 _ZN8casacore5BlockIdE8set_sizeEm@Base 3.2.1~
 _ZN8casacore5BlockIdE9constructEmm@Base 3.2.1~
 _ZN8casacore5BlockIdE9constructEmmPKd@Base 3.2.1~
 _ZN8casacore5BlockIdE9constructEmmRKd@Base 3.2.1~
 _ZN8casacore5BlockIdEC1ERKS1_@Base 3.2.1~
 _ZN8casacore5BlockIdEC1Em@Base 3.2.1~
 _ZN8casacore5BlockIdEC1EmNS_15ArrayInitPolicyE@Base 3.2.1~
 _ZN8casacore5BlockIdEC1EmNS_15ArrayInitPolicyEPNS_17Allocator_private13BulkAllocatorIdEE@Base 3.2.1~
 _ZN8casacore5BlockIdEC1EmNS_17Allocator_private9AllocSpecIdEE@Base 3.2.1~
 _ZN8casacore5BlockIdEC1EmRKd@Base 3.2.1~
 _ZN8casacore5BlockIdEC1EmRPdb@Base 3.2.1~
 _ZN8casacore5BlockIdEC1EmRPdbPNS_17Allocator_private13BulkAllocatorIdEE@Base 3.2.1~
 _ZN8casacore5BlockIdEC1Ev@Base 3.2.1~
 _ZN8casacore5BlockIdEC2ERKS1_@Base 3.2.1~
 _ZN8casacore5BlockIdEC2Em@Base 3.2.1~
 _ZN8casacore5BlockIdEC2EmNS_15ArrayInitPolicyE@Base 3.2.1~
 _ZN8casacore5BlockIdEC2EmNS_15ArrayInitPolicyEPNS_17Allocator_private13BulkAllocatorIdEE@Base 3.2.1~
 _ZN8casacore5BlockIdEC2EmNS_17Allocator_private9AllocSpecIdEE@Base 3.2.1~
 _ZN8casacore5BlockIdEC2EmRKd@Base 3.2.1~
 _ZN8casacore5BlockIdEC2EmRPdb@Base 3.2.1~
 _ZN8casacore5BlockIdEC2EmRPdbPNS_17Allocator_private13BulkAllocatorIdEE@Base 3.2.1~
 _ZN8casacore5BlockIdEC2Ev@Base 3.2.1~
 _ZN8casacore5BlockIdED1Ev@Base 3.2.1~
 _ZN8casacore5BlockIdED2Ev@Base 3.2.1~
 _ZN8casacore5BlockIdEaSERKS1_@Base 3.2.1~
 _ZN8casacore5BlockIdEaSERKd@Base 3.2.1~
 _ZN8casacore5BlockIdEixEm@Base 3.2.1~
 _ZN8casacore5BlockIfE11init_anywayEv@Base 3.2.1~
 _ZN8casacore5BlockIfE12set_capacityEm@Base 3.2.1~
 _ZN8casacore5BlockIfE13get_allocatorEv@Base 3.2.1~
 _ZN8casacore5BlockIfE14replaceStorageEmRPfb@Base 3.2.1~
 _ZN8casacore5BlockIfE23permitChangingAllocatorEv@Base 3.2.1~
 _ZN8casacore5BlockIfE25prohibitChangingAllocatorEv@Base 3.2.1~
 _ZN8casacore5BlockIfE3endEv@Base 3.2.1~
 _ZN8casacore5BlockIfE3setERKf@Base 3.2.1~
 _ZN8casacore5BlockIfE4initENS_15ArrayInitPolicyE@Base 3.2.1~
 _ZN8casacore5BlockIfE5beginEv@Base 3.2.1~
 _ZN8casacore5BlockIfE6deinitEv@Base 3.2.1~
 _ZN8casacore5BlockIfE6removeEmb@Base 3.2.1~
 _ZN8casacore5BlockIfE6removeEmbNS_15ArrayInitPolicyE@Base 3.2.1~
 _ZN8casacore5BlockIfE6resizeEmbb@Base 3.2.1~
 _ZN8casacore5BlockIfE6resizeEmbbNS_15ArrayInitPolicyE@Base 3.2.1~
 _ZN8casacore5BlockIfE7deallocEv@Base 3.2.1~
 _ZN8casacore5BlockIfE7destroyEmm@Base 3.2.1~
 _ZN8casacore5BlockIfE7storageEv@Base 3.2.1~
 _ZN8casacore5BlockIfE8set_sizeEm@Base 3.2.1~
 _ZN8casacore5BlockIfE9constructEmm@Base 3.2.1~
 _ZN8casacore5BlockIfE9constructEmmPKf@Base 3.2.1~
 _ZN8casacore5BlockIfE9constructEmmRKf@Base 3.2.1~
 _ZN8casacore5BlockIfEC1ERKS1_@Base 3.2.1~
 _ZN8casacore5BlockIfEC1Em@Base 3.2.1~
 _ZN8casacore5BlockIfEC1EmNS_15ArrayInitPolicyE@Base 3.2.1~
 _ZN8casacore5BlockIfEC1EmNS_15ArrayInitPolicyEPNS_17Allocator_private13BulkAllocatorIfEE@Base 3.2.1~
 _ZN8casacore5BlockIfEC1EmNS_17Allocator_private9AllocSpecIfEE@Base 3.2.1~
 _ZN8casacore5BlockIfEC1EmRKf@Base 3.2.1~
 _ZN8casacore5BlockIfEC1EmRPfb@Base 3.2.1~
 _ZN8casacore5BlockIfEC1EmRPfbPNS_17Allocator_private13BulkAllocatorIfEE@Base 3.2.1~
 _ZN8casacore5BlockIfEC1Ev@Base 3.2.1~
 _ZN8casacore5BlockIfEC2ERKS1_@Base 3.2.1~
 _ZN8casacore5BlockIfEC2Em@Base 3.2.1~
 _ZN8casacore5BlockIfEC2EmNS_15ArrayInitPolicyE@Base 3.2.1~
 _ZN8casacore5BlockIfEC2EmNS_15ArrayInitPolicyEPNS_17Allocator_private13BulkAllocatorIfEE@Base 3.2.1~
 _ZN8casacore5BlockIfEC2EmNS_17Allocator_private9AllocSpecIfEE@Base 3.2.1~
 _ZN8casacore5BlockIfEC2EmRKf@Base 3.2.1~
 _ZN8casacore5BlockIfEC2EmRPfb@Base 3.2.1~
 _ZN8casacore5BlockIfEC2EmRPfbPNS_17Allocator_private13BulkAllocatorIfEE@Base 3.2.1~
 _ZN8casacore5BlockIfEC2Ev@Base 3.2.1~
 _ZN8casacore5BlockIfED1Ev@Base 3.2.1~
 _ZN8casacore5BlockIfED2Ev@Base 3.2.1~
 _ZN8casacore5BlockIfEaSERKS1_@Base 3.2.1~
 _ZN8casacore5BlockIfEaSERKf@Base 3.2.1~
 _ZN8casacore5BlockIfEixEm@Base 3.2.1~
 _ZN8casacore5BlockIhE4initENS_15ArrayInitPolicyE@Base 3.2.1~
 _ZN8casacore5BlockIhE6deinitEv@Base 3.2.1~
 _ZN8casacore5BlockIhE7deallocEv@Base 3.2.1~
 _ZN8casacore5BlockIiE11init_anywayEv@Base 3.2.1~
 _ZN8casacore5BlockIiE12set_capacityEm@Base 3.2.1~
 _ZN8casacore5BlockIiE13get_allocatorEv@Base 3.2.1~
 _ZN8casacore5BlockIiE14replaceStorageEmRPib@Base 3.2.1~
 _ZN8casacore5BlockIiE23permitChangingAllocatorEv@Base 3.2.1~
 _ZN8casacore5BlockIiE25prohibitChangingAllocatorEv@Base 3.2.1~
 _ZN8casacore5BlockIiE3endEv@Base 3.2.1~
 _ZN8casacore5BlockIiE3setERKi@Base 3.2.1~
 _ZN8casacore5BlockIiE4initENS_15ArrayInitPolicyE@Base 3.2.1~
 _ZN8casacore5BlockIiE5beginEv@Base 3.2.1~
 _ZN8casacore5BlockIiE6deinitEv@Base 3.2.1~
 _ZN8casacore5BlockIiE6removeEmb@Base 3.2.1~
 _ZN8casacore5BlockIiE6removeEmbNS_15ArrayInitPolicyE@Base 3.2.1~
 _ZN8casacore5BlockIiE6resizeEmbb@Base 3.2.1~
 _ZN8casacore5BlockIiE6resizeEmbbNS_15ArrayInitPolicyE@Base 3.2.1~
 _ZN8casacore5BlockIiE7deallocEv@Base 3.2.1~
 _ZN8casacore5BlockIiE7destroyEmm@Base 3.2.1~
 _ZN8casacore5BlockIiE7storageEv@Base 3.2.1~
 _ZN8casacore5BlockIiE8set_sizeEm@Base 3.2.1~
 _ZN8casacore5BlockIiE9constructEmm@Base 3.2.1~
 _ZN8casacore5BlockIiE9constructEmmPKi@Base 3.2.1~
 _ZN8casacore5BlockIiE9constructEmmRKi@Base 3.2.1~
 _ZN8casacore5BlockIiEC1ERKS1_@Base 3.2.1~
 _ZN8casacore5BlockIiEC1Em@Base 3.2.1~
 _ZN8casacore5BlockIiEC1EmNS_15ArrayInitPolicyE@Base 3.2.1~
 _ZN8casacore5BlockIiEC1EmNS_15ArrayInitPolicyEPNS_17Allocator_private13BulkAllocatorIiEE@Base 3.2.1~
 _ZN8casacore5BlockIiEC1EmNS_17Allocator_private9AllocSpecIiEE@Base 3.2.1~
 _ZN8casacore5BlockIiEC1EmRKi@Base 3.2.1~
 _ZN8casacore5BlockIiEC1EmRPib@Base 3.2.1~
 _ZN8casacore5BlockIiEC1EmRPibPNS_17Allocator_private13BulkAllocatorIiEE@Base 3.2.1~
 _ZN8casacore5BlockIiEC1Ev@Base 3.2.1~
 _ZN8casacore5BlockIiEC2ERKS1_@Base 3.2.1~
 _ZN8casacore5BlockIiEC2Em@Base 3.2.1~
 _ZN8casacore5BlockIiEC2EmNS_15ArrayInitPolicyE@Base 3.2.1~
 _ZN8casacore5BlockIiEC2EmNS_15ArrayInitPolicyEPNS_17Allocator_private13BulkAllocatorIiEE@Base 3.2.1~
 _ZN8casacore5BlockIiEC2EmNS_17Allocator_private9AllocSpecIiEE@Base 3.2.1~
 _ZN8casacore5BlockIiEC2EmRKi@Base 3.2.1~
 _ZN8casacore5BlockIiEC2EmRPib@Base 3.2.1~
 _ZN8casacore5BlockIiEC2EmRPibPNS_17Allocator_private13BulkAllocatorIiEE@Base 3.2.1~
 _ZN8casacore5BlockIiEC2Ev@Base 3.2.1~
 _ZN8casacore5BlockIiED1Ev@Base 3.2.1~
 _ZN8casacore5BlockIiED2Ev@Base 3.2.1~
 _ZN8casacore5BlockIiEaSERKS1_@Base 3.2.1~
 _ZN8casacore5BlockIiEaSERKi@Base 3.2.1~
 _ZN8casacore5BlockIiEixEm@Base 3.2.1~
 _ZN8casacore5BlockIjE11init_anywayEv@Base 3.2.1~
 _ZN8casacore5BlockIjE12set_capacityEm@Base 3.2.1~
 _ZN8casacore5BlockIjE13get_allocatorEv@Base 3.2.1~
 _ZN8casacore5BlockIjE14replaceStorageEmRPjb@Base 3.2.1~
 _ZN8casacore5BlockIjE23permitChangingAllocatorEv@Base 3.2.1~
 _ZN8casacore5BlockIjE25prohibitChangingAllocatorEv@Base 3.2.1~
 _ZN8casacore5BlockIjE3endEv@Base 3.2.1~
 _ZN8casacore5BlockIjE3setERKj@Base 3.2.1~
 _ZN8casacore5BlockIjE4initENS_15ArrayInitPolicyE@Base 3.2.1~
 _ZN8casacore5BlockIjE5beginEv@Base 3.2.1~
 _ZN8casacore5BlockIjE6deinitEv@Base 3.2.1~
 _ZN8casacore5BlockIjE6removeEmb@Base 3.2.1~
 _ZN8casacore5BlockIjE6removeEmbNS_15ArrayInitPolicyE@Base 3.2.1~
 _ZN8casacore5BlockIjE6resizeEmbb@Base 3.2.1~
 _ZN8casacore5BlockIjE6resizeEmbbNS_15ArrayInitPolicyE@Base 3.2.1~
 _ZN8casacore5BlockIjE7deallocEv@Base 3.2.1~
 _ZN8casacore5BlockIjE7destroyEmm@Base 3.2.1~
 _ZN8casacore5BlockIjE7storageEv@Base 3.2.1~
 _ZN8casacore5BlockIjE8set_sizeEm@Base 3.2.1~
 _ZN8casacore5BlockIjE9constructEmm@Base 3.2.1~
 _ZN8casacore5BlockIjE9constructEmmPKj@Base 3.2.1~
 _ZN8casacore5BlockIjE9constructEmmRKj@Base 3.2.1~
 _ZN8casacore5BlockIjEC1ERKS1_@Base 3.2.1~
 _ZN8casacore5BlockIjEC1Em@Base 3.2.1~
 _ZN8casacore5BlockIjEC1EmNS_15ArrayInitPolicyE@Base 3.2.1~
 _ZN8casacore5BlockIjEC1EmNS_15ArrayInitPolicyEPNS_17Allocator_private13BulkAllocatorIjEE@Base 3.2.1~
 _ZN8casacore5BlockIjEC1EmNS_17Allocator_private9AllocSpecIjEE@Base 3.2.1~
 _ZN8casacore5BlockIjEC1EmRKj@Base 3.2.1~
 _ZN8casacore5BlockIjEC1EmRPjb@Base 3.2.1~
 _ZN8casacore5BlockIjEC1EmRPjbPNS_17Allocator_private13BulkAllocatorIjEE@Base 3.2.1~
 _ZN8casacore5BlockIjEC1Ev@Base 3.2.1~
 _ZN8casacore5BlockIjEC2ERKS1_@Base 3.2.1~
 _ZN8casacore5BlockIjEC2Em@Base 3.2.1~
 _ZN8casacore5BlockIjEC2EmNS_15ArrayInitPolicyE@Base 3.2.1~
 _ZN8casacore5BlockIjEC2EmNS_15ArrayInitPolicyEPNS_17Allocator_private13BulkAllocatorIjEE@Base 3.2.1~
 _ZN8casacore5BlockIjEC2EmNS_17Allocator_private9AllocSpecIjEE@Base 3.2.1~
 _ZN8casacore5BlockIjEC2EmRKj@Base 3.2.1~
 _ZN8casacore5BlockIjEC2EmRPjb@Base 3.2.1~
 _ZN8casacore5BlockIjEC2EmRPjbPNS_17Allocator_private13BulkAllocatorIjEE@Base 3.2.1~
 _ZN8casacore5BlockIjEC2Ev@Base 3.2.1~
 _ZN8casacore5BlockIjED1Ev@Base 3.2.1~
 _ZN8casacore5BlockIjED2Ev@Base 3.2.1~
 _ZN8casacore5BlockIjEaSERKS1_@Base 3.2.1~
 _ZN8casacore5BlockIjEaSERKj@Base 3.2.1~
 _ZN8casacore5BlockIjEixEm@Base 3.2.1~
 _ZN8casacore5BlockIsE11init_anywayEv@Base 3.2.1~
 _ZN8casacore5BlockIsE12set_capacityEm@Base 3.2.1~
 _ZN8casacore5BlockIsE13get_allocatorEv@Base 3.2.1~
 _ZN8casacore5BlockIsE14replaceStorageEmRPsb@Base 3.2.1~
 _ZN8casacore5BlockIsE23permitChangingAllocatorEv@Base 3.2.1~
 _ZN8casacore5BlockIsE25prohibitChangingAllocatorEv@Base 3.2.1~
 _ZN8casacore5BlockIsE3endEv@Base 3.2.1~
 _ZN8casacore5BlockIsE3setERKs@Base 3.2.1~
 _ZN8casacore5BlockIsE4initENS_15ArrayInitPolicyE@Base 3.2.1~
 _ZN8casacore5BlockIsE5beginEv@Base 3.2.1~
 _ZN8casacore5BlockIsE6deinitEv@Base 3.2.1~
 _ZN8casacore5BlockIsE6removeEmb@Base 3.2.1~
 _ZN8casacore5BlockIsE6removeEmbNS_15ArrayInitPolicyE@Base 3.2.1~
 _ZN8casacore5BlockIsE6resizeEmbb@Base 3.2.1~
 _ZN8casacore5BlockIsE6resizeEmbbNS_15ArrayInitPolicyE@Base 3.2.1~
 _ZN8casacore5BlockIsE7deallocEv@Base 3.2.1~
 _ZN8casacore5BlockIsE7destroyEmm@Base 3.2.1~
 _ZN8casacore5BlockIsE7storageEv@Base 3.2.1~
 _ZN8casacore5BlockIsE8set_sizeEm@Base 3.2.1~
 _ZN8casacore5BlockIsE9constructEmm@Base 3.2.1~
 _ZN8casacore5BlockIsE9constructEmmPKs@Base 3.2.1~
 _ZN8casacore5BlockIsE9constructEmmRKs@Base 3.2.1~
 _ZN8casacore5BlockIsEC1ERKS1_@Base 3.2.1~
 _ZN8casacore5BlockIsEC1Em@Base 3.2.1~
 _ZN8casacore5BlockIsEC1EmNS_15ArrayInitPolicyE@Base 3.2.1~
 _ZN8casacore5BlockIsEC1EmNS_15ArrayInitPolicyEPNS_17Allocator_private13BulkAllocatorIsEE@Base 3.2.1~
 _ZN8casacore5BlockIsEC1EmNS_17Allocator_private9AllocSpecIsEE@Base 3.2.1~
 _ZN8casacore5BlockIsEC1EmRKs@Base 3.2.1~
 _ZN8casacore5BlockIsEC1EmRPsb@Base 3.2.1~
 _ZN8casacore5BlockIsEC1EmRPsbPNS_17Allocator_private13BulkAllocatorIsEE@Base 3.2.1~
 _ZN8casacore5BlockIsEC1Ev@Base 3.2.1~
 _ZN8casacore5BlockIsEC2ERKS1_@Base 3.2.1~
 _ZN8casacore5BlockIsEC2Em@Base 3.2.1~
 _ZN8casacore5BlockIsEC2EmNS_15ArrayInitPolicyE@Base 3.2.1~
 _ZN8casacore5BlockIsEC2EmNS_15ArrayInitPolicyEPNS_17Allocator_private13BulkAllocatorIsEE@Base 3.2.1~
 _ZN8casacore5BlockIsEC2EmNS_17Allocator_private9AllocSpecIsEE@Base 3.2.1~
 _ZN8casacore5BlockIsEC2EmRKs@Base 3.2.1~
 _ZN8casacore5BlockIsEC2EmRPsb@Base 3.2.1~
 _ZN8casacore5BlockIsEC2EmRPsbPNS_17Allocator_private13BulkAllocatorIsEE@Base 3.2.1~
 _ZN8casacore5BlockIsEC2Ev@Base 3.2.1~
 _ZN8casacore5BlockIsED1Ev@Base 3.2.1~
 _ZN8casacore5BlockIsED2Ev@Base 3.2.1~
 _ZN8casacore5BlockIsEaSERKS1_@Base 3.2.1~
 _ZN8casacore5BlockIsEaSERKs@Base 3.2.1~
 _ZN8casacore5BlockIsEixEm@Base 3.2.1~
 _ZN8casacore5BlockItE11init_anywayEv@Base 3.2.1~
 _ZN8casacore5BlockItE12set_capacityEm@Base 3.2.1~
 _ZN8casacore5BlockItE13get_allocatorEv@Base 3.2.1~
 _ZN8casacore5BlockItE14replaceStorageEmRPtb@Base 3.2.1~
 _ZN8casacore5BlockItE23permitChangingAllocatorEv@Base 3.2.1~
 _ZN8casacore5BlockItE25prohibitChangingAllocatorEv@Base 3.2.1~
 _ZN8casacore5BlockItE3endEv@Base 3.2.1~
 _ZN8casacore5BlockItE3setERKt@Base 3.2.1~
 _ZN8casacore5BlockItE4initENS_15ArrayInitPolicyE@Base 3.2.1~
 _ZN8casacore5BlockItE5beginEv@Base 3.2.1~
 _ZN8casacore5BlockItE6deinitEv@Base 3.2.1~
 _ZN8casacore5BlockItE6removeEmb@Base 3.2.1~
 _ZN8casacore5BlockItE6removeEmbNS_15ArrayInitPolicyE@Base 3.2.1~
 _ZN8casacore5BlockItE6resizeEmbb@Base 3.2.1~
 _ZN8casacore5BlockItE6resizeEmbbNS_15ArrayInitPolicyE@Base 3.2.1~
 _ZN8casacore5BlockItE7deallocEv@Base 3.2.1~
 _ZN8casacore5BlockItE7destroyEmm@Base 3.2.1~
 _ZN8casacore5BlockItE7storageEv@Base 3.2.1~
 _ZN8casacore5BlockItE8set_sizeEm@Base 3.2.1~
 _ZN8casacore5BlockItE9constructEmm@Base 3.2.1~
 _ZN8casacore5BlockItE9constructEmmPKt@Base 3.2.1~
 _ZN8casacore5BlockItE9constructEmmRKt@Base 3.2.1~
 _ZN8casacore5BlockItEC1ERKS1_@Base 3.2.1~
 _ZN8casacore5BlockItEC1Em@Base 3.2.1~
 _ZN8casacore5BlockItEC1EmNS_15ArrayInitPolicyE@Base 3.2.1~
 _ZN8casacore5BlockItEC1EmNS_15ArrayInitPolicyEPNS_17Allocator_private13BulkAllocatorItEE@Base 3.2.1~
 _ZN8casacore5BlockItEC1EmNS_17Allocator_private9AllocSpecItEE@Base 3.2.1~
 _ZN8casacore5BlockItEC1EmRKt@Base 3.2.1~
 _ZN8casacore5BlockItEC1EmRPtb@Base 3.2.1~
 _ZN8casacore5BlockItEC1EmRPtbPNS_17Allocator_private13BulkAllocatorItEE@Base 3.2.1~
 _ZN8casacore5BlockItEC1Ev@Base 3.2.1~
 _ZN8casacore5BlockItEC2ERKS1_@Base 3.2.1~
 _ZN8casacore5BlockItEC2Em@Base 3.2.1~
 _ZN8casacore5BlockItEC2EmNS_15ArrayInitPolicyE@Base 3.2.1~
 _ZN8casacore5BlockItEC2EmNS_15ArrayInitPolicyEPNS_17Allocator_private13BulkAllocatorItEE@Base 3.2.1~
 _ZN8casacore5BlockItEC2EmNS_17Allocator_private9AllocSpecItEE@Base 3.2.1~
 _ZN8casacore5BlockItEC2EmRKt@Base 3.2.1~
 _ZN8casacore5BlockItEC2EmRPtb@Base 3.2.1~
 _ZN8casacore5BlockItEC2EmRPtbPNS_17Allocator_private13BulkAllocatorItEE@Base 3.2.1~
 _ZN8casacore5BlockItEC2Ev@Base 3.2.1~
 _ZN8casacore5BlockItED1Ev@Base 3.2.1~
 _ZN8casacore5BlockItED2Ev@Base 3.2.1~
 _ZN8casacore5BlockItEaSERKS1_@Base 3.2.1~
 _ZN8casacore5BlockItEaSERKt@Base 3.2.1~
 _ZN8casacore5BlockItEixEm@Base 3.2.1~
 _ZN8casacore5BlockIxE11init_anywayEv@Base 3.2.1~
 _ZN8casacore5BlockIxE12set_capacityEm@Base 3.2.1~
 _ZN8casacore5BlockIxE13get_allocatorEv@Base 3.2.1~
 _ZN8casacore5BlockIxE14replaceStorageEmRPxb@Base 3.2.1~
 _ZN8casacore5BlockIxE23permitChangingAllocatorEv@Base 3.2.1~
 _ZN8casacore5BlockIxE25prohibitChangingAllocatorEv@Base 3.2.1~
 _ZN8casacore5BlockIxE3endEv@Base 3.2.1~
 _ZN8casacore5BlockIxE3setERKx@Base 3.2.1~
 _ZN8casacore5BlockIxE4initENS_15ArrayInitPolicyE@Base 3.2.1~
 _ZN8casacore5BlockIxE5beginEv@Base 3.2.1~
 _ZN8casacore5BlockIxE6deinitEv@Base 3.2.1~
 _ZN8casacore5BlockIxE6removeEmb@Base 3.2.1~
 _ZN8casacore5BlockIxE6removeEmbNS_15ArrayInitPolicyE@Base 3.2.1~
 _ZN8casacore5BlockIxE6resizeEmbb@Base 3.2.1~
 _ZN8casacore5BlockIxE6resizeEmbbNS_15ArrayInitPolicyE@Base 3.2.1~
 _ZN8casacore5BlockIxE7deallocEv@Base 3.2.1~
 _ZN8casacore5BlockIxE7destroyEmm@Base 3.2.1~
 _ZN8casacore5BlockIxE7storageEv@Base 3.2.1~
 _ZN8casacore5BlockIxE8set_sizeEm@Base 3.2.1~
 _ZN8casacore5BlockIxE9constructEmm@Base 3.2.1~
 _ZN8casacore5BlockIxE9constructEmmPKx@Base 3.2.1~
 _ZN8casacore5BlockIxE9constructEmmRKx@Base 3.2.1~
 _ZN8casacore5BlockIxEC1ERKS1_@Base 3.2.1~
 _ZN8casacore5BlockIxEC1Em@Base 3.2.1~
 _ZN8casacore5BlockIxEC1EmNS_15ArrayInitPolicyE@Base 3.2.1~
 _ZN8casacore5BlockIxEC1EmNS_15ArrayInitPolicyEPNS_17Allocator_private13BulkAllocatorIxEE@Base 3.2.1~
 _ZN8casacore5BlockIxEC1EmNS_17Allocator_private9AllocSpecIxEE@Base 3.2.1~
 _ZN8casacore5BlockIxEC1EmRKx@Base 3.2.1~
 _ZN8casacore5BlockIxEC1EmRPxb@Base 3.2.1~
 _ZN8casacore5BlockIxEC1EmRPxbPNS_17Allocator_private13BulkAllocatorIxEE@Base 3.2.1~
 _ZN8casacore5BlockIxEC1Ev@Base 3.2.1~
 _ZN8casacore5BlockIxEC2ERKS1_@Base 3.2.1~
 _ZN8casacore5BlockIxEC2Em@Base 3.2.1~
 _ZN8casacore5BlockIxEC2EmNS_15ArrayInitPolicyE@Base 3.2.1~
 _ZN8casacore5BlockIxEC2EmNS_15ArrayInitPolicyEPNS_17Allocator_private13BulkAllocatorIxEE@Base 3.2.1~
 _ZN8casacore5BlockIxEC2EmNS_17Allocator_private9AllocSpecIxEE@Base 3.2.1~
 _ZN8casacore5BlockIxEC2EmRKx@Base 3.2.1~
 _ZN8casacore5BlockIxEC2EmRPxb@Base 3.2.1~
 _ZN8casacore5BlockIxEC2EmRPxbPNS_17Allocator_private13BulkAllocatorIxEE@Base 3.2.1~
 _ZN8casacore5BlockIxEC2Ev@Base 3.2.1~
 _ZN8casacore5BlockIxED1Ev@Base 3.2.1~
 _ZN8casacore5BlockIxED2Ev@Base 3.2.1~
 _ZN8casacore5BlockIxEaSERKS1_@Base 3.2.1~
 _ZN8casacore5BlockIxEaSERKx@Base 3.2.1~
 _ZN8casacore5BlockIxEixEm@Base 3.2.1~
 _ZN8casacore5Euler3setEjj@Base 3.2.1~
 _ZN8casacore5Euler3setEjjj@Base 3.2.1~
 _ZN8casacore5Euler7makeRadERKNS_7QuantumINS_6VectorIdEEEE@Base 3.2.1~
 _ZN8casacore5Euler7makeRadERKNS_7QuantumIdEE@Base 3.2.1~
 _ZN8casacore5EulerC1ERKNS_7QuantumINS_6VectorIdEEEE@Base 3.2.1~
 _ZN8casacore5EulerC1ERKNS_7QuantumINS_6VectorIdEEEERKNS2_IjEE@Base 3.2.1~
 _ZN8casacore5EulerC1ERKNS_7QuantumIdEE@Base 3.2.1~
 _ZN8casacore5EulerC1ERKNS_7QuantumIdEES4_@Base 3.2.1~
 _ZN8casacore5EulerC1ERKNS_7QuantumIdEES4_S4_@Base 3.2.1~
 _ZN8casacore5EulerC1ERKNS_7QuantumIdEEj@Base 3.2.1~
 _ZN8casacore5EulerC1ERKNS_7QuantumIdEEjS4_j@Base 3.2.1~
 _ZN8casacore5EulerC1ERKNS_7QuantumIdEEjS4_jS4_j@Base 3.2.1~
 _ZN8casacore5EulerC1ERKS0_@Base 3.2.1~
 _ZN8casacore5EulerC1Eddd@Base 3.2.1~
 _ZN8casacore5EulerC1Edjdjdj@Base 3.2.1~
 _ZN8casacore5EulerC1Ev@Base 3.2.1~
 _ZN8casacore5EulerC2ERKNS_7QuantumINS_6VectorIdEEEE@Base 3.2.1~
 _ZN8casacore5EulerC2ERKNS_7QuantumINS_6VectorIdEEEERKNS2_IjEE@Base 3.2.1~
 _ZN8casacore5EulerC2ERKNS_7QuantumIdEE@Base 3.2.1~
 _ZN8casacore5EulerC2ERKNS_7QuantumIdEES4_@Base 3.2.1~
 _ZN8casacore5EulerC2ERKNS_7QuantumIdEES4_S4_@Base 3.2.1~
 _ZN8casacore5EulerC2ERKNS_7QuantumIdEEj@Base 3.2.1~
 _ZN8casacore5EulerC2ERKNS_7QuantumIdEEjS4_j@Base 3.2.1~
 _ZN8casacore5EulerC2ERKNS_7QuantumIdEEjS4_jS4_j@Base 3.2.1~
 _ZN8casacore5EulerC2ERKS0_@Base 3.2.1~
 _ZN8casacore5EulerC2Eddd@Base 3.2.1~
 _ZN8casacore5EulerC2Edjdjdj@Base 3.2.1~
 _ZN8casacore5EulerC2Ev@Base 3.2.1~
 _ZN8casacore5EulerD1Ev@Base 3.2.1~
 _ZN8casacore5EulerD2Ev@Base 3.2.1~
 _ZN8casacore5EuleraSERKS0_@Base 3.2.1~
 _ZN8casacore5EulerclEj@Base 3.2.1~
 _ZN8casacore5EulermIERKS0_@Base 3.2.1~
 _ZN8casacore5EulerpLERKS0_@Base 3.2.1~
 _ZN8casacore5Input11getIntArrayERKNS_6StringE@Base 3.2.1~
 _ZN8casacore5Input13readArgumentsEiPKPKc@Base 3.2.1~
 _ZN8casacore5Input14getDoubleArrayERKNS_6StringE@Base 3.2.1~
 _ZN8casacore5Input18makeMaskFromRangesERKNS_6StringEjb@Base 3.2.1~
 _ZN8casacore5Input3putERKNS_6StringE@Base 3.2.1~
 _ZN8casacore5Input3putERKNS_6StringES3_@Base 3.2.1~
 _ZN8casacore5Input4keysEv@Base 3.2.1~
 _ZN8casacore5Input5closeEv@Base 3.2.1~
 _ZN8casacore5Input6createERKNS_6StringE@Base 3.2.1~
 _ZN8casacore5Input6createERKNS_6StringES3_@Base 3.2.1~
 _ZN8casacore5Input6createERKNS_6StringES3_S3_@Base 3.2.1~
 _ZN8casacore5Input6createERKNS_6StringES3_S3_S3_@Base 3.2.1~
 _ZN8casacore5Input6createERKNS_6StringES3_S3_S3_S3_@Base 3.2.1~
 _ZN8casacore5Input6createERKNS_6StringES3_S3_S3_S3_S3_@Base 3.2.1~
 _ZN8casacore5Input6getIntERKNS_6StringE@Base 3.2.1~
 _ZN8casacore5Input7getBoolERKNS_6StringE@Base 3.2.1~
 _ZN8casacore5Input7versionERKNS_6StringE@Base 3.2.1~
 _ZN8casacore5Input8announceEv@Base 3.2.1~
 _ZN8casacore5Input9createParEiRKNS_6StringES3_S3_S3_S3_S3_@Base 3.2.1~
 _ZN8casacore5Input9envCreateEPKcRKNS_6StringES5_@Base 3.2.1~
 _ZN8casacore5Input9getDoubleERKNS_6StringE@Base 3.2.1~
 _ZN8casacore5Input9getStringERKNS_6StringE@Base 3.2.1~
 _ZN8casacore5InputC1Ei@Base 3.2.1~
 _ZN8casacore5InputC2Ei@Base 3.2.1~
 _ZN8casacore5InputD1Ev@Base 3.2.1~
 _ZN8casacore5InputD2Ev@Base 3.2.1~
 _ZN8casacore5LogIO11postLocallyEv@Base 3.2.1~
 _ZN8casacore5LogIO13postThenThrowINS_9AipsErrorEEEvRKT_@Base 3.2.1~
 _ZN8casacore5LogIO14sourceLocationEPKNS_14SourceLocationE@Base 3.2.1~
 _ZN8casacore5LogIO20preparePostThenThrowERKNS_9AipsErrorE@Base 3.2.1~
 _ZN8casacore5LogIO4postERNS_10LogMessageE@Base 3.2.1~
 _ZN8casacore5LogIO4postEv@Base 3.2.1~
 _ZN8casacore5LogIO6originERKNS_9LogOriginE@Base 3.2.1~
 _ZN8casacore5LogIO6outputEv@Base 3.2.1~
 _ZN8casacore5LogIO8priorityENS_10LogMessage8PriorityE@Base 3.2.1~
 _ZN8casacore5LogIO8priorityEv@Base 3.2.1~
 _ZN8casacore5LogIOC1ERKNS_9LogOriginE@Base 3.2.1~
 _ZN8casacore5LogIOC1ERKNS_9LogOriginERNS_7LogSinkE@Base 3.2.1~
 _ZN8casacore5LogIOC1ERKS0_@Base 3.2.1~
 _ZN8casacore5LogIOC1ERNS_7LogSinkE@Base 3.2.1~
 _ZN8casacore5LogIOC1Ev@Base 3.2.1~
 _ZN8casacore5LogIOC2ERKNS_9LogOriginE@Base 3.2.1~
 _ZN8casacore5LogIOC2ERKNS_9LogOriginERNS_7LogSinkE@Base 3.2.1~
 _ZN8casacore5LogIOC2ERKS0_@Base 3.2.1~
 _ZN8casacore5LogIOC2ERNS_7LogSinkE@Base 3.2.1~
 _ZN8casacore5LogIOC2Ev@Base 3.2.1~
 _ZN8casacore5LogIOD1Ev@Base 3.2.1~
 _ZN8casacore5LogIOD2Ev@Base 3.2.1~
 _ZN8casacore5LogIOaSERKS0_@Base 3.2.1~
 _ZN8casacore5MVuvw6adjustERd@Base 3.2.1~
 _ZN8casacore5MVuvw6adjustEv@Base 3.2.1~
 _ZN8casacore5MVuvw6assureERKNS_9MeasValueE@Base 3.2.1~
 _ZN8casacore5MVuvw6radiusEv@Base 3.2.1~
 _ZN8casacore5MVuvw8putValueERKNS_6VectorINS_7QuantumIdEEEE@Base 3.2.1~
 _ZN8casacore5MVuvw8readjustEd@Base 3.2.1~
 _ZN8casacore5MVuvw9putVectorERKNS_6VectorIdEE@Base 3.2.1~
 _ZN8casacore5MVuvwC1ERKNS_10MVBaselineERKNS_11MVDirectionEb@Base 3.2.1~
 _ZN8casacore5MVuvwC1ERKNS_10MVPositionE@Base 3.2.1~
 _ZN8casacore5MVuvwC1ERKNS_6VectorINS_7QuantumIdEEEE@Base 3.2.1~
 _ZN8casacore5MVuvwC1ERKNS_6VectorIdEE@Base 3.2.1~
 _ZN8casacore5MVuvwC1ERKNS_7QuantumINS_6VectorIdEEEE@Base 3.2.1~
 _ZN8casacore5MVuvwC1ERKNS_7QuantumIdEE@Base 3.2.1~
 _ZN8casacore5MVuvwC1ERKNS_7QuantumIdEERKNS1_INS_6VectorIdEEEE@Base 3.2.1~
 _ZN8casacore5MVuvwC1ERKNS_7QuantumIdEES4_S4_@Base 3.2.1~
 _ZN8casacore5MVuvwC1ERKNS_7QuantumIdEEdd@Base 3.2.1~
 _ZN8casacore5MVuvwC1Ed@Base 3.2.1~
 _ZN8casacore5MVuvwC1Eddd@Base 3.2.1~
 _ZN8casacore5MVuvwC1Ev@Base 3.2.1~
 _ZN8casacore5MVuvwC2ERKNS_10MVBaselineERKNS_11MVDirectionEb@Base 3.2.1~
 _ZN8casacore5MVuvwC2ERKNS_10MVPositionE@Base 3.2.1~
 _ZN8casacore5MVuvwC2ERKNS_6VectorINS_7QuantumIdEEEE@Base 3.2.1~
 _ZN8casacore5MVuvwC2ERKNS_6VectorIdEE@Base 3.2.1~
 _ZN8casacore5MVuvwC2ERKNS_7QuantumINS_6VectorIdEEEE@Base 3.2.1~
 _ZN8casacore5MVuvwC2ERKNS_7QuantumIdEE@Base 3.2.1~
 _ZN8casacore5MVuvwC2ERKNS_7QuantumIdEERKNS1_INS_6VectorIdEEEE@Base 3.2.1~
 _ZN8casacore5MVuvwC2ERKNS_7QuantumIdEES4_S4_@Base 3.2.1~
 _ZN8casacore5MVuvwC2ERKNS_7QuantumIdEEdd@Base 3.2.1~
 _ZN8casacore5MVuvwC2Ed@Base 3.2.1~
 _ZN8casacore5MVuvwC2Eddd@Base 3.2.1~
 _ZN8casacore5MVuvwC2Ev@Base 3.2.1~
 _ZN8casacore5MVuvwD0Ev@Base 3.2.1~
 _ZN8casacore5MVuvwD1Ev@Base 3.2.1~
 _ZN8casacore5MVuvwD2Ev@Base 3.2.1~
 _ZN8casacore5MVuvwaSERKS0_@Base 3.2.1~
 _ZN8casacore5MVuvwmIERKS0_@Base 3.2.1~
 _ZN8casacore5MVuvwpLERKS0_@Base 3.2.1~
 _ZN8casacore5Mutex6unlockEv@Base 3.2.1~
 _ZN8casacore5MutexC1ENS0_4TypeE@Base 3.2.1~
 _ZN8casacore5MutexC2ENS0_4TypeE@Base 3.2.1~
 _ZN8casacore5MutexD1Ev@Base 3.2.1~
 _ZN8casacore5MutexD2Ev@Base 3.2.1~
 _ZN8casacore5Param3putERKNS_6StringE@Base 3.2.1~
 _ZN8casacore5ParamC1ERKNS_6StringES3_S3_S3_S3_S3_@Base 3.2.1~
 _ZN8casacore5ParamC1ERKS0_@Base 3.2.1~
 _ZN8casacore5ParamC1Ev@Base 3.2.1~
 _ZN8casacore5ParamC2ERKNS_6StringES3_S3_S3_S3_S3_@Base 3.2.1~
 _ZN8casacore5ParamC2ERKS0_@Base 3.2.1~
 _ZN8casacore5ParamC2Ev@Base 3.2.1~
 _ZN8casacore5ParamD1Ev@Base 3.2.1~
 _ZN8casacore5ParamD2Ev@Base 3.2.1~
 _ZN8casacore5ParamaSERKS0_@Base 3.2.1~
 _ZN8casacore5QBase7setUnitERKNS_4UnitE@Base 3.2.1~
 _ZN8casacore5QBase7setUnitERKS0_@Base 3.2.1~
 _ZN8casacore5QBaseC1ERKNS_4UnitE@Base 3.2.1~
 _ZN8casacore5QBaseC1ERKS0_@Base 3.2.1~
 _ZN8casacore5QBaseC1Ev@Base 3.2.1~
 _ZN8casacore5QBaseC2ERKNS_4UnitE@Base 3.2.1~
 _ZN8casacore5QBaseC2ERKS0_@Base 3.2.1~
 _ZN8casacore5QBaseC2Ev@Base 3.2.1~
 _ZN8casacore5QBaseD0Ev@Base 3.2.1~
 _ZN8casacore5QBaseD1Ev@Base 3.2.1~
 _ZN8casacore5QBaseD2Ev@Base 3.2.1~
 _ZN8casacore5RXintE@Base 3.2.1~
 _ZN8casacore5RawIO4readEmPNS_6StringE@Base 3.2.1~
 _ZN8casacore5RawIO4readEmPSt7complexIdE@Base 3.2.1~
 _ZN8casacore5RawIO4readEmPSt7complexIfE@Base 3.2.1~
 _ZN8casacore5RawIO4readEmPb@Base 3.2.1~
 _ZN8casacore5RawIO4readEmPc@Base 3.2.1~
 _ZN8casacore5RawIO4readEmPd@Base 3.2.1~
 _ZN8casacore5RawIO4readEmPf@Base 3.2.1~
 _ZN8casacore5RawIO4readEmPh@Base 3.2.1~
 _ZN8casacore5RawIO4readEmPi@Base 3.2.1~
 _ZN8casacore5RawIO4readEmPj@Base 3.2.1~
 _ZN8casacore5RawIO4readEmPs@Base 3.2.1~
 _ZN8casacore5RawIO4readEmPt@Base 3.2.1~
 _ZN8casacore5RawIO4readEmPx@Base 3.2.1~
 _ZN8casacore5RawIO4readEmPy@Base 3.2.1~
 _ZN8casacore5RawIO5writeEmPKNS_6StringE@Base 3.2.1~
 _ZN8casacore5RawIO5writeEmPKSt7complexIdE@Base 3.2.1~
 _ZN8casacore5RawIO5writeEmPKSt7complexIfE@Base 3.2.1~
 _ZN8casacore5RawIO5writeEmPKb@Base 3.2.1~
 _ZN8casacore5RawIO5writeEmPKc@Base 3.2.1~
 _ZN8casacore5RawIO5writeEmPKd@Base 3.2.1~
 _ZN8casacore5RawIO5writeEmPKf@Base 3.2.1~
 _ZN8casacore5RawIO5writeEmPKh@Base 3.2.1~
 _ZN8casacore5RawIO5writeEmPKi@Base 3.2.1~
 _ZN8casacore5RawIO5writeEmPKj@Base 3.2.1~
 _ZN8casacore5RawIO5writeEmPKs@Base 3.2.1~
 _ZN8casacore5RawIO5writeEmPKt@Base 3.2.1~
 _ZN8casacore5RawIO5writeEmPKx@Base 3.2.1~
 _ZN8casacore5RawIO5writeEmPKy@Base 3.2.1~
 _ZN8casacore5RawIOC1EPNS_6ByteIOEb@Base 3.2.1~
 _ZN8casacore5RawIOC1ERKS0_@Base 3.2.1~
 _ZN8casacore5RawIOC2EPNS_6ByteIOEb@Base 3.2.1~
 _ZN8casacore5RawIOC2ERKS0_@Base 3.2.1~
 _ZN8casacore5RawIOD0Ev@Base 3.2.1~
 _ZN8casacore5RawIOD1Ev@Base 3.2.1~
 _ZN8casacore5RawIOD2Ev@Base 3.2.1~
 _ZN8casacore5RawIOaSERKS0_@Base 3.2.1~
 _ZN8casacore5Regex10fromStringERKNS_6StringE@Base 3.2.1~
 _ZN8casacore5Regex11fromPatternERKNS_6StringE@Base 3.2.1~
 _ZN8casacore5Regex14fromSQLPatternERKNS_6StringE@Base 3.2.1~
 _ZN8casacore5Regex19makeCaseInsensitiveERKNS_6StringE@Base 3.2.1~
 _ZN8casacore5Regex6createERKNS_6StringEiiPKc@Base 3.2.1~
 _ZN8casacore5Regex7deallocEv@Base 3.2.1~
 _ZN8casacore5RegexC1ERKNS_6StringEbiPKc@Base 3.2.1~
 _ZN8casacore5RegexC1ERKS0_@Base 3.2.1~
 _ZN8casacore5RegexC1Ev@Base 3.2.1~
 _ZN8casacore5RegexC2ERKNS_6StringEbiPKc@Base 3.2.1~
 _ZN8casacore5RegexC2ERKS0_@Base 3.2.1~
 _ZN8casacore5RegexC2Ev@Base 3.2.1~
 _ZN8casacore5RegexD0Ev@Base 3.2.1~
 _ZN8casacore5RegexD1Ev@Base 3.2.1~
 _ZN8casacore5RegexD2Ev@Base 3.2.1~
 _ZN8casacore5RegexaSERKNS_6StringE@Base 3.2.1~
 _ZN8casacore5RegexaSERKS0_@Base 3.2.1~
 _ZN8casacore5Rot3DEid@Base 3.2.1~
 _ZN8casacore5Rot3DEif@Base 3.2.1~
 _ZN8casacore5Slice11checkSlicesERNS_6VectorINS1_IS0_EEEERNS_6SlicerERKNS_9IPositionE@Base 3.2.1~
 _ZN8casacore5Timer4markEv@Base 3.2.1~
 _ZN8casacore5UMaps4initEv@Base 3.2.1~
 _ZN8casacore5UMapsD1Ev@Base 3.2.1~
 _ZN8casacore5UMapsD2Ev@Base 3.2.1~
 _ZN8casacore5atan2ERKSt7complexIdES3_@Base 3.2.1~
 _ZN8casacore5atan2ERKSt7complexIfES3_@Base 3.2.1~
 _ZN8casacore5floorERKi@Base 3.2.1~
 _ZN8casacore5isInfERKSt7complexIdE@Base 3.2.1~
 _ZN8casacore5isInfERKSt7complexIfE@Base 3.2.1~
 _ZN8casacore5isInfEd@Base 3.2.1~
 _ZN8casacore5isInfEf@Base 3.2.1~
 _ZN8casacore5isNaNERKSt7complexIdE@Base 3.2.1~
 _ZN8casacore5isNaNERKSt7complexIfE@Base 3.2.1~
 _ZN8casacore5norm1ERKNS_6MatrixISt7complexIdEEE@Base 3.2.1~
 _ZN8casacore5norm1ERKNS_6MatrixISt7complexIfEEE@Base 3.2.1~
 _ZN8casacore5norm1ERKNS_6MatrixIdEE@Base 3.2.1~
 _ZN8casacore5norm1ERKNS_6MatrixIfEE@Base 3.2.1~
 _ZN8casacore5norm1ERKNS_6MatrixIiEE@Base 3.2.1~
 _ZN8casacore5normIERKNS_6MatrixISt7complexIdEEE@Base 3.2.1~
 _ZN8casacore5normIERKNS_6MatrixISt7complexIfEEE@Base 3.2.1~
 _ZN8casacore5normIERKNS_6MatrixIdEE@Base 3.2.1~
 _ZN8casacore5normIERKNS_6MatrixIfEE@Base 3.2.1~
 _ZN8casacore5normIERKNS_6MatrixIiEE@Base 3.2.1~
 _ZN8casacore5phaseERKNS_5ArrayISt7complexIdEEE@Base 3.2.1~
 _ZN8casacore5phaseERKNS_5ArrayISt7complexIfEEE@Base 3.2.1~
 _ZN8casacore5phaseERNS_5ArrayIdEERKNS0_ISt7complexIdEEE@Base 3.2.1~
 _ZN8casacore5phaseERNS_5ArrayIfEERKNS0_ISt7complexIfEEE@Base 3.2.1~
 _ZN8casacore5splitERKNSt7__cxx1112basic_stringIcSt11char_traitsIcESaIcEEEPS5_iRKNS_9RegexBaseE@Base 3.2.1~
 _ZN8casacore5splitERKNSt7__cxx1112basic_stringIcSt11char_traitsIcESaIcEEEPS5_iS7_@Base 3.2.1~
 _ZN8casacore5splitERKNSt7__cxx1112basic_stringIcSt11char_traitsIcESaIcEEEPS5_ic@Base 3.2.1~
 _ZN8casacore6AipsIO10magicval_pE@Base 3.2.1~
 _ZN8casacore6AipsIO10testgeterrEv@Base 3.2.1~
 _ZN8casacore6AipsIO10testputerrEv@Base 3.2.1~
 _ZN8casacore6AipsIO11getNextTypeEv@Base 3.2.1~
 _ZN8casacore6AipsIO16testgeterrLengthEv@Base 3.2.1~
 _ZN8casacore6AipsIO3getERSt6vectorIbSaIbEE@Base 3.2.1~
 _ZN8casacore6AipsIO3getEjPNS_6StringE@Base 3.2.1~
 _ZN8casacore6AipsIO3getEjPSt7complexIdE@Base 3.2.1~
 _ZN8casacore6AipsIO3getEjPSt7complexIfE@Base 3.2.1~
 _ZN8casacore6AipsIO3getEjPb@Base 3.2.1~
 _ZN8casacore6AipsIO3getEjPc@Base 3.2.1~
 _ZN8casacore6AipsIO3getEjPd@Base 3.2.1~
 _ZN8casacore6AipsIO3getEjPf@Base 3.2.1~
 _ZN8casacore6AipsIO3getEjPh@Base 3.2.1~
 _ZN8casacore6AipsIO3getEjPi@Base 3.2.1~
 _ZN8casacore6AipsIO3getEjPj@Base 3.2.1~
 _ZN8casacore6AipsIO3getEjPs@Base 3.2.1~
 _ZN8casacore6AipsIO3getEjPt@Base 3.2.1~
 _ZN8casacore6AipsIO3getEjPx@Base 3.2.1~
 _ZN8casacore6AipsIO3getEjPy@Base 3.2.1~
 _ZN8casacore6AipsIO3putERKSt6vectorIbSaIbEE@Base 3.2.1~
 _ZN8casacore6AipsIO3putEjPKNS_6StringEb@Base 3.2.1~
 _ZN8casacore6AipsIO3putEjPKSt7complexIdEb@Base 3.2.1~
 _ZN8casacore6AipsIO3putEjPKSt7complexIfEb@Base 3.2.1~
 _ZN8casacore6AipsIO3putEjPKbb@Base 3.2.1~
 _ZN8casacore6AipsIO3putEjPKcb@Base 3.2.1~
 _ZN8casacore6AipsIO3putEjPKdb@Base 3.2.1~
 _ZN8casacore6AipsIO3putEjPKfb@Base 3.2.1~
 _ZN8casacore6AipsIO3putEjPKhb@Base 3.2.1~
 _ZN8casacore6AipsIO3putEjPKib@Base 3.2.1~
 _ZN8casacore6AipsIO3putEjPKjb@Base 3.2.1~
 _ZN8casacore6AipsIO3putEjPKsb@Base 3.2.1~
 _ZN8casacore6AipsIO3putEjPKtb@Base 3.2.1~
 _ZN8casacore6AipsIO3putEjPKxb@Base 3.2.1~
 _ZN8casacore6AipsIO3putEjPKyb@Base 3.2.1~
 _ZN8casacore6AipsIO4openEPNS_6ByteIOE@Base 3.2.1~
 _ZN8casacore6AipsIO4openEPNS_6TypeIOE@Base 3.2.1~
 _ZN8casacore6AipsIO4openERKNS_6StringENS_6ByteIO10OpenOptionEjPNS_13MultiFileBaseE@Base 3.2.1~
 _ZN8casacore6AipsIO5closeEv@Base 3.2.1~
 _ZN8casacore6AipsIO6getendEv@Base 3.2.1~
 _ZN8casacore6AipsIO6getnewERjRPNS_6StringE@Base 3.2.1~
 _ZN8casacore6AipsIO6getnewERjRPSt7complexIdE@Base 3.2.1~
 _ZN8casacore6AipsIO6getnewERjRPSt7complexIfE@Base 3.2.1~
 _ZN8casacore6AipsIO6getnewERjRPb@Base 3.2.1~
 _ZN8casacore6AipsIO6getnewERjRPc@Base 3.2.1~
 _ZN8casacore6AipsIO6getnewERjRPd@Base 3.2.1~
 _ZN8casacore6AipsIO6getnewERjRPf@Base 3.2.1~
 _ZN8casacore6AipsIO6getnewERjRPh@Base 3.2.1~
 _ZN8casacore6AipsIO6getnewERjRPi@Base 3.2.1~
 _ZN8casacore6AipsIO6getnewERjRPj@Base 3.2.1~
 _ZN8casacore6AipsIO6getnewERjRPs@Base 3.2.1~
 _ZN8casacore6AipsIO6getnewERjRPt@Base 3.2.1~
 _ZN8casacore6AipsIO6getnewERjRPx@Base 3.2.1~
 _ZN8casacore6AipsIO6getnewERjRPy@Base 3.2.1~
 _ZN8casacore6AipsIO6getposEv@Base 3.2.1~
 _ZN8casacore6AipsIO6putendEv@Base 3.2.1~
 _ZN8casacore6AipsIO6setposEx@Base 3.2.1~
 _ZN8casacore6AipsIO8getstartEPKc@Base 3.2.1~
 _ZN8casacore6AipsIO8getstartERKNS_6StringE@Base 3.2.1~
 _ZN8casacore6AipsIO8openInitENS_6ByteIO10OpenOptionE@Base 3.2.1~
 _ZN8casacore6AipsIO8putstartEPKcj@Base 3.2.1~
 _ZN8casacore6AipsIO8putstartERKNS_6StringEj@Base 3.2.1~
 _ZN8casacore6AipsIOC1EPNS_6ByteIOE@Base 3.2.1~
 _ZN8casacore6AipsIOC1EPNS_6TypeIOE@Base 3.2.1~
 _ZN8casacore6AipsIOC1ERKNS_6StringENS_6ByteIO10OpenOptionEjPNS_13MultiFileBaseE@Base 3.2.1~
 _ZN8casacore6AipsIOC1Ev@Base 3.2.1~
 _ZN8casacore6AipsIOC2EPNS_6ByteIOE@Base 3.2.1~
 _ZN8casacore6AipsIOC2EPNS_6TypeIOE@Base 3.2.1~
 _ZN8casacore6AipsIOC2ERKNS_6StringENS_6ByteIO10OpenOptionEjPNS_13MultiFileBaseE@Base 3.2.1~
 _ZN8casacore6AipsIOC2Ev@Base 3.2.1~
 _ZN8casacore6AipsIOD1Ev@Base 3.2.1~
 _ZN8casacore6AipsIOD2Ev@Base 3.2.1~
 _ZN8casacore6AipsIOlsEPKc@Base 3.2.1~
 _ZN8casacore6AipsIOlsERKNS_6StringE@Base 3.2.1~
 _ZN8casacore6AipsIOlsERKSt7complexIdE@Base 3.2.1~
 _ZN8casacore6AipsIOlsERKSt7complexIfE@Base 3.2.1~
 _ZN8casacore6AipsIOlsERKb@Base 3.2.1~
 _ZN8casacore6AipsIOlsERKc@Base 3.2.1~
 _ZN8casacore6AipsIOlsERKd@Base 3.2.1~
 _ZN8casacore6AipsIOlsERKf@Base 3.2.1~
 _ZN8casacore6AipsIOlsERKh@Base 3.2.1~
 _ZN8casacore6AipsIOlsERKi@Base 3.2.1~
 _ZN8casacore6AipsIOlsERKj@Base 3.2.1~
 _ZN8casacore6AipsIOlsERKs@Base 3.2.1~
 _ZN8casacore6AipsIOlsERKt@Base 3.2.1~
 _ZN8casacore6AipsIOlsERKx@Base 3.2.1~
 _ZN8casacore6AipsIOlsERKy@Base 3.2.1~
 _ZN8casacore6AipsIOrsERNS_6StringE@Base 3.2.1~
 _ZN8casacore6AipsIOrsERSt7complexIdE@Base 3.2.1~
 _ZN8casacore6AipsIOrsERSt7complexIfE@Base 3.2.1~
 _ZN8casacore6AipsIOrsERb@Base 3.2.1~
 _ZN8casacore6AipsIOrsERc@Base 3.2.1~
 _ZN8casacore6AipsIOrsERd@Base 3.2.1~
 _ZN8casacore6AipsIOrsERf@Base 3.2.1~
 _ZN8casacore6AipsIOrsERh@Base 3.2.1~
 _ZN8casacore6AipsIOrsERi@Base 3.2.1~
 _ZN8casacore6AipsIOrsERj@Base 3.2.1~
 _ZN8casacore6AipsIOrsERs@Base 3.2.1~
 _ZN8casacore6AipsIOrsERt@Base 3.2.1~
 _ZN8casacore6AipsIOrsERx@Base 3.2.1~
 _ZN8casacore6AipsIOrsERy@Base 3.2.1~
 _ZN8casacore6Aipsrc10findNoHomeERNS_6StringERKS1_@Base 3.2.1~
 _ZN8casacore6Aipsrc10findNoHomeERNS_6StringERKS1_S4_@Base 3.2.1~
 _ZN8casacore6Aipsrc10genRestoreERNS_6VectorINS_6StringEEES4_RKS2_@Base 3.2.1~
 _ZN8casacore6Aipsrc10registerRCERKNS_6StringERKNS_6VectorIS1_EES3_@Base 3.2.1~
 _ZN8casacore6Aipsrc10registerRCERKNS_6StringERNS_5BlockIS1_EE@Base 3.2.1~
 _ZN8casacore6Aipsrc10registerRCERKNS_6StringES3_@Base 3.2.1~
 _ZN8casacore6Aipsrc10registerRCERKNS_6StringEiPS2_S3_@Base 3.2.1~
 _ZN8casacore6Aipsrc11extAipsPathE@Base 3.2.1~
 _ZN8casacore6Aipsrc11findNoParseERNS_6StringERKS1_j@Base 3.2.1~
 _ZN8casacore6Aipsrc11setAipsPathERKNS_6StringE@Base 3.2.1~
 _ZN8casacore6Aipsrc12keywordValueE@Base 3.2.1~
 _ZN8casacore6Aipsrc12matchKeywordERjRKNS_6StringEj@Base 3.2.1~
 _ZN8casacore6Aipsrc13theirCallOnceE@Base 3.2.1~
 _ZN8casacore6Aipsrc14keywordPatternE@Base 3.2.1~
 _ZN8casacore6Aipsrc3getERjj@Base 3.2.1~
 _ZN8casacore6Aipsrc3getEj@Base 3.2.1~
 _ZN8casacore6Aipsrc3setEjRKNS_6StringE@Base 3.2.1~
 _ZN8casacore6Aipsrc3setEjRKNS_6VectorINS_6StringEEERKS2_@Base 3.2.1~
 _ZN8casacore6Aipsrc3setEjiPKNS_6StringERS2_@Base 3.2.1~
 _ZN8casacore6Aipsrc4archE@Base 3.2.1~
 _ZN8casacore6Aipsrc4findERNS_6StringERKS1_@Base 3.2.1~
 _ZN8casacore6Aipsrc4findERNS_6StringERKS1_S4_@Base 3.2.1~
 _ZN8casacore6Aipsrc4findERNS_6StringERKS1_j@Base 3.2.1~
 _ZN8casacore6Aipsrc4findERjRKNS_6StringERKNS_6VectorIS2_EE@Base 3.2.1~
 _ZN8casacore6Aipsrc4findERjRKNS_6StringERKNS_6VectorIS2_EES4_@Base 3.2.1~
 _ZN8casacore6Aipsrc4findERjRKNS_6StringEiPS3_@Base 3.2.1~
 _ZN8casacore6Aipsrc4findERjRKNS_6StringEiPS3_S4_@Base 3.2.1~
 _ZN8casacore6Aipsrc4homeE@Base 3.2.1~
 _ZN8casacore6Aipsrc4hostE@Base 3.2.1~
 _ZN8casacore6Aipsrc4rootE@Base 3.2.1~
 _ZN8casacore6Aipsrc4saveENS_6StringES1_@Base 3.2.1~
 _ZN8casacore6Aipsrc4saveEj@Base 3.2.1~
 _ZN8casacore6Aipsrc4saveEjPKNS_6StringE@Base 3.2.1~
 _ZN8casacore6Aipsrc4saveEjRKNS_6VectorINS_6StringEEE@Base 3.2.1~
 _ZN8casacore6Aipsrc4showERSo@Base 3.2.1~
 _ZN8casacore6Aipsrc4showEv@Base 3.2.1~
 _ZN8casacore6Aipsrc4siteE@Base 3.2.1~
 _ZN8casacore6Aipsrc5parseEv@Base 3.2.1~
 _ZN8casacore6Aipsrc5uhomeE@Base 3.2.1~
 _ZN8casacore6Aipsrc6codlstE@Base 3.2.1~
 _ZN8casacore6Aipsrc6filledE@Base 3.2.1~
 _ZN8casacore6Aipsrc6genGetERNS_6StringERNS_6VectorIS1_EES5_RKS1_@Base 3.2.1~
 _ZN8casacore6Aipsrc6genSetERNS_6VectorINS_6StringEEES4_RKS2_S6_@Base 3.2.1~
 _ZN8casacore6Aipsrc6reReadEv@Base 3.2.1~
 _ZN8casacore6Aipsrc6strlstE@Base 3.2.1~
 _ZN8casacore6Aipsrc6valuesEv@Base 3.2.1~
 _ZN8casacore6Aipsrc7doParseERNS_6StringE@Base 3.2.1~
 _ZN8casacore6Aipsrc7fileEndE@Base 3.2.1~
 _ZN8casacore6Aipsrc7findDirERNS_6StringERKS1_RKNS_6VectorIS1_EES8_b@Base 3.2.1~
 _ZN8casacore6Aipsrc7genSaveERNS_6VectorINS_6StringEEES4_RKS2_@Base 3.2.1~
 _ZN8casacore6Aipsrc7ncodlstE@Base 3.2.1~
 _ZN8casacore6Aipsrc7nstrlstE@Base 3.2.1~
 _ZN8casacore6Aipsrc8aipsArchEv@Base 3.2.1~
 _ZN8casacore6Aipsrc8aipsHomeEv@Base 3.2.1~
 _ZN8casacore6Aipsrc8aipsHostEv@Base 3.2.1~
 _ZN8casacore6Aipsrc8aipsRootEv@Base 3.2.1~
 _ZN8casacore6Aipsrc8aipsSiteEv@Base 3.2.1~
 _ZN8casacore6Aipsrc8fillAipsEv@Base 3.2.1~
 _ZN8casacore6Aipsrc8genParseERNS_5BlockINS_6StringEEES4_RjRKS2_@Base 3.2.1~
 _ZN8casacore6Aipsrc8genUnSetERNS_6VectorINS_6StringEEES4_RKS2_@Base 3.2.1~
 _ZN8casacore6Aipsrc8lastReadEv@Base 3.2.1~
 _ZN8casacore6Aipsrc8patternsEv@Base 3.2.1~
 _ZN8casacore6Aipsrc9lastParseE@Base 3.2.1~
 _ZN8casacore6ByteIO5flushEv@Base 3.2.1~
 _ZN8casacore6ByteIO5fsyncEv@Base 3.2.1~
 _ZN8casacore6ByteIO5preadExxPvb@Base 3.2.1~
 _ZN8casacore6ByteIO6pwriteExxPKv@Base 3.2.1~
 _ZN8casacore6ByteIO6resyncEv@Base 3.2.1~
 _ZN8casacore6ByteIO8reopenRWEv@Base 3.2.1~
 _ZN8casacore6ByteIOD0Ev@Base 3.2.1~
 _ZN8casacore6ByteIOD1Ev@Base 3.2.1~
 _ZN8casacore6ByteIOD2Ev@Base 3.2.1~
 _ZN8casacore6COWPtrINS_13RecordDescRepEE10makeUniqueEv@Base 3.2.1~
 _ZN8casacore6COWPtrINS_9RecordRepEE10makeUniqueEv@Base 3.2.1~
 _ZN8casacore6Casarc11initializedE@Base 3.2.1~
 _ZN8casacore6Casarc12default_pathB5cxx11E@Base 3.2.1~
 _ZN8casacore6Casarc14setDefaultPathERKNSt7__cxx1112basic_stringIcSt11char_traitsIcESaIcEEE@Base 3.2.1~
 _ZN8casacore6Casarc16clearDefaultPathEv@Base 3.2.1~
 _ZN8casacore6Casarc25current_modification_timeER4stat@Base 3.2.1~
 _ZN8casacore6Casarc3endB5cxx11Ev@Base 3.2.1~
 _ZN8casacore6Casarc3getERKNSt7__cxx1112basic_stringIcSt11char_traitsIcESaIcEEE@Base 3.2.1~
 _ZN8casacore6Casarc3getERKNSt7__cxx1112basic_stringIcSt11char_traitsIcESaIcEEERS6_@Base 3.2.1~
 _ZN8casacore6Casarc3putERKNSt7__cxx1112basic_stringIcSt11char_traitsIcESaIcEEES8_@Base 3.2.1~
 _ZN8casacore6Casarc4listB5cxx11Ev@Base 3.2.1~
 _ZN8casacore6Casarc4lockENS0_9lock_modeE@Base 3.2.1~
 _ZN8casacore6Casarc4syncEv@Base 3.2.1~
 _ZN8casacore6Casarc5beginB5cxx11Ev@Base 3.2.1~
 _ZN8casacore6Casarc5closeEi@Base 3.2.1~
 _ZN8casacore6Casarc6rclistB5cxx11E@Base 3.2.1~
 _ZN8casacore6Casarc6unlockEi@Base 3.2.1~
 _ZN8casacore6Casarc7rcfilesE@Base 3.2.1~
 _ZN8casacore6Casarc7startupEv@Base 3.2.1~
 _ZN8casacore6Casarc8instanceERKNSt7__cxx1112basic_stringIcSt11char_traitsIcESaIcEEE@Base 3.2.1~
 _ZN8casacore6Casarc8instanceEv@Base 3.2.1~
 _ZN8casacore6Casarc8shutdownEv@Base 3.2.1~
 _ZN8casacore6Casarc9filenamesB5cxx11E@Base 3.2.1~
 _ZN8casacore6Casarc9read_fileEv@Base 3.2.1~
 _ZN8casacore6CasarcC1ERKNSt7__cxx1112basic_stringIcSt11char_traitsIcESaIcEEE@Base 3.2.1~
 _ZN8casacore6CasarcC2ERKNSt7__cxx1112basic_stringIcSt11char_traitsIcESaIcEEE@Base 3.2.1~
 _ZN8casacore6Choice13ostreamChoiceERSoRKNS_6StringERKNS_6VectorIS2_EE@Base 3.2.1~
 _ZN8casacore6Choice13setChoiceFuncEPFNS_6StringERKS1_RKNS_6VectorIS1_EEE@Base 3.2.1~
 _ZN8casacore6Choice15theirChoiceFuncE@Base 3.2.1~
 _ZN8casacore6Choice6choiceERKNS_6StringERKNS_6VectorIS1_EE@Base 3.2.1~
 _ZN8casacore6DynLib15tryCasacorePathERKNSt7__cxx1112basic_stringIcSt11char_traitsIcESaIcEEES8_S8_@Base 3.2.1~
 _ZN8casacore6DynLib4openERKNSt7__cxx1112basic_stringIcSt11char_traitsIcESaIcEEE@Base 3.2.1~
 _ZN8casacore6DynLib5closeEv@Base 3.2.1~
 _ZN8casacore6DynLib6attachERKNSt7__cxx1112basic_stringIcSt11char_traitsIcESaIcEEES8_S8_S8_@Base 3.2.1~
 _ZN8casacore6DynLib7getFuncERKNSt7__cxx1112basic_stringIcSt11char_traitsIcESaIcEEE@Base 3.2.1~
 _ZN8casacore6DynLib7tryOpenERKNSt7__cxx1112basic_stringIcSt11char_traitsIcESaIcEEES8_S8_S8_@Base 3.2.1~
 _ZN8casacore6DynLibC1ERKNSt7__cxx1112basic_stringIcSt11char_traitsIcESaIcEEES8_S8_S8_b@Base 3.2.1~
 _ZN8casacore6DynLibC1ERKNSt7__cxx1112basic_stringIcSt11char_traitsIcESaIcEEES8_S8_b@Base 3.2.1~
 _ZN8casacore6DynLibC1ERKNSt7__cxx1112basic_stringIcSt11char_traitsIcESaIcEEEbS8_S8_@Base 3.2.1~
 _ZN8casacore6DynLibC2ERKNSt7__cxx1112basic_stringIcSt11char_traitsIcESaIcEEES8_S8_S8_b@Base 3.2.1~
 _ZN8casacore6DynLibC2ERKNSt7__cxx1112basic_stringIcSt11char_traitsIcESaIcEEES8_S8_b@Base 3.2.1~
 _ZN8casacore6DynLibC2ERKNSt7__cxx1112basic_stringIcSt11char_traitsIcESaIcEEEbS8_S8_@Base 3.2.1~
 _ZN8casacore6DynLibD1Ev@Base 3.2.1~
 _ZN8casacore6DynLibD2Ev@Base 3.2.1~
 _ZN8casacore6Erlang13setParametersERKNS_6VectorIdEE@Base 3.2.1~
 _ZN8casacore6Erlang8setStateEv@Base 3.2.1~
 _ZN8casacore6ErlangD0Ev@Base 3.2.1~
 _ZN8casacore6ErlangD1Ev@Base 3.2.1~
 _ZN8casacore6ErlangD2Ev@Base 3.2.1~
 _ZN8casacore6ErlangclEv@Base 3.2.1~
 _ZN8casacore6MMapIOC1ERKNS_11RegularFileENS_6ByteIO10OpenOptionE@Base 3.2.1~
 _ZN8casacore6MMapIOC2ERKNS_11RegularFileENS_6ByteIO10OpenOptionE@Base 3.2.1~
 _ZN8casacore6MMapIOD0Ev@Base 3.2.1~
 _ZN8casacore6MMapIOD1Ev@Base 3.2.1~
 _ZN8casacore6MMapIOD2Ev@Base 3.2.1~
 _ZN8casacore6MVTime10interimSetE@Base 3.2.1~
 _ZN8casacore6MVTime13defaultFormatE@Base 3.2.1~
 _ZN8casacore6MVTime13interimFormatE@Base 3.2.1~
 _ZN8casacore6MVTime4readERNS_7QuantumIdEERKNS_6StringEb@Base 3.2.1~
 _ZN8casacore6MVTime4readERNS_7QuantumIdEERKNS_6StringEbb@Base 3.2.1~
 _ZN8casacore6MVTime4readERNS_7QuantumIdEERNS_8MUStringEb@Base 3.2.1~
 _ZN8casacore6MVTime4readERNS_7QuantumIdEERNS_8MUStringEbb@Base 3.2.1~
 _ZN8casacore6MVTime6giveMeERKNS_6StringE@Base 3.2.1~
 _ZN8casacore6MVTime7dayNameEj@Base 3.2.1~
 _ZN8casacore6MVTime8timeZoneEv@Base 3.2.1~
 _ZN8casacore6MVTime9getFormatEv@Base 3.2.1~
 _ZN8casacore6MVTime9monthNameEj@Base 3.2.1~
 _ZN8casacore6MVTime9setFormatENS0_11formatTypesEj@Base 3.2.1~
 _ZN8casacore6MVTime9setFormatERKNS0_6FormatE@Base 3.2.1~
 _ZN8casacore6MVTime9setFormatEj@Base 3.2.1~
 _ZN8casacore6MVTime9setFormatEjj@Base 3.2.1~
 _ZN8casacore6MVTimeC1ERKNS_4TimeE@Base 3.2.1~
 _ZN8casacore6MVTimeC1ERKNS_7MVEpochE@Base 3.2.1~
 _ZN8casacore6MVTimeC1ERKNS_7QuantumIdEE@Base 3.2.1~
 _ZN8casacore6MVTimeC1ERKS0_@Base 3.2.1~
 _ZN8casacore6MVTimeC1Ed@Base 3.2.1~
 _ZN8casacore6MVTimeC1Eiidd@Base 3.2.1~
 _ZN8casacore6MVTimeC1Ev@Base 3.2.1~
 _ZN8casacore6MVTimeC2ERKNS_4TimeE@Base 3.2.1~
 _ZN8casacore6MVTimeC2ERKNS_7MVEpochE@Base 3.2.1~
 _ZN8casacore6MVTimeC2ERKNS_7QuantumIdEE@Base 3.2.1~
 _ZN8casacore6MVTimeC2ERKS0_@Base 3.2.1~
 _ZN8casacore6MVTimeC2Ed@Base 3.2.1~
 _ZN8casacore6MVTimeC2Eiidd@Base 3.2.1~
 _ZN8casacore6MVTimeC2Ev@Base 3.2.1~
 _ZN8casacore6MVTimeD1Ev@Base 3.2.1~
 _ZN8casacore6MVTimeD2Ev@Base 3.2.1~
 _ZN8casacore6MVTimeaSERKS0_@Base 3.2.1~
 _ZN8casacore6MatrixISt7complexIdEE14preTakeStorageERKNS_9IPositionE@Base 3.2.1~
 _ZN8casacore6MatrixISt7complexIdEE15doNonDegenerateERKNS_5ArrayIS2_EERKNS_9IPositionE@Base 3.2.1~
 _ZN8casacore6MatrixISt7complexIdEE15postTakeStorageEv@Base 3.2.1~
 _ZN8casacore6MatrixISt7complexIdEE21makeIndexingConstantsEv@Base 3.2.1~
 _ZN8casacore6MatrixISt7complexIdEE3rowEm@Base 3.2.1~
 _ZN8casacore6MatrixISt7complexIdEE6assignERKNS_5ArrayIS2_EE@Base 3.2.1~
 _ZN8casacore6MatrixISt7complexIdEE6columnEm@Base 3.2.1~
 _ZN8casacore6MatrixISt7complexIdEE6resizeERKNS_9IPositionEbNS_15ArrayInitPolicyE@Base 3.2.1~
 _ZN8casacore6MatrixISt7complexIdEE6resizeEmmb@Base 3.2.1~
 _ZN8casacore6MatrixISt7complexIdEE6resizeEmmbNS_15ArrayInitPolicyE@Base 3.2.1~
 _ZN8casacore6MatrixISt7complexIdEE6resizeEv@Base 3.2.1~
 _ZN8casacore6MatrixISt7complexIdEE8diagonalEx@Base 3.2.1~
 _ZN8casacore6MatrixISt7complexIdEE8identityEm@Base 3.2.1~
 _ZN8casacore6MatrixISt7complexIdEE9referenceERKNS_5ArrayIS2_EE@Base 3.2.1~
 _ZN8casacore6MatrixISt7complexIdEEC1ERKNS_5ArrayIS2_EE@Base 3.2.1~
 _ZN8casacore6MatrixISt7complexIdEEC1ERKNS_9IPositionE@Base 3.2.1~
 _ZN8casacore6MatrixISt7complexIdEEC1ERKNS_9IPositionENS_15ArrayInitPolicyE@Base 3.2.1~
 _ZN8casacore6MatrixISt7complexIdEEC1ERKNS_9IPositionEPKS2_@Base 3.2.1~
 _ZN8casacore6MatrixISt7complexIdEEC1ERKNS_9IPositionEPS2_NS_17StorageInitPolicyE@Base 3.2.1~
 _ZN8casacore6MatrixISt7complexIdEEC1ERKNS_9IPositionEPS2_NS_17StorageInitPolicyERKNS_17AbstractAllocatorIS2_EE@Base 3.2.1~
 _ZN8casacore6MatrixISt7complexIdEEC1ERKNS_9IPositionERKS2_@Base 3.2.1~
 _ZN8casacore6MatrixISt7complexIdEEC1ERKS3_@Base 3.2.1~
 _ZN8casacore6MatrixISt7complexIdEEC1Emm@Base 3.2.1~
 _ZN8casacore6MatrixISt7complexIdEEC1EmmNS_15ArrayInitPolicyE@Base 3.2.1~
 _ZN8casacore6MatrixISt7complexIdEEC1EmmRKS2_@Base 3.2.1~
 _ZN8casacore6MatrixISt7complexIdEEC1Ev@Base 3.2.1~
 _ZN8casacore6MatrixISt7complexIdEEC2ERKNS_5ArrayIS2_EE@Base 3.2.1~
 _ZN8casacore6MatrixISt7complexIdEEC2ERKNS_9IPositionE@Base 3.2.1~
 _ZN8casacore6MatrixISt7complexIdEEC2ERKNS_9IPositionENS_15ArrayInitPolicyE@Base 3.2.1~
 _ZN8casacore6MatrixISt7complexIdEEC2ERKNS_9IPositionEPKS2_@Base 3.2.1~
 _ZN8casacore6MatrixISt7complexIdEEC2ERKNS_9IPositionEPS2_NS_17StorageInitPolicyE@Base 3.2.1~
 _ZN8casacore6MatrixISt7complexIdEEC2ERKNS_9IPositionEPS2_NS_17StorageInitPolicyERKNS_17AbstractAllocatorIS2_EE@Base 3.2.1~
 _ZN8casacore6MatrixISt7complexIdEEC2ERKNS_9IPositionERKS2_@Base 3.2.1~
 _ZN8casacore6MatrixISt7complexIdEEC2ERKS3_@Base 3.2.1~
 _ZN8casacore6MatrixISt7complexIdEEC2Emm@Base 3.2.1~
 _ZN8casacore6MatrixISt7complexIdEEC2EmmNS_15ArrayInitPolicyE@Base 3.2.1~
 _ZN8casacore6MatrixISt7complexIdEEC2EmmRKS2_@Base 3.2.1~
 _ZN8casacore6MatrixISt7complexIdEEC2Ev@Base 3.2.1~
 _ZN8casacore6MatrixISt7complexIdEED0Ev@Base 3.2.1~
 _ZN8casacore6MatrixISt7complexIdEED1Ev@Base 3.2.1~
 _ZN8casacore6MatrixISt7complexIdEED2Ev@Base 3.2.1~
 _ZN8casacore6MatrixISt7complexIdEEaSERKNS_11MaskedArrayIS2_EE@Base 3.2.1~
 _ZN8casacore6MatrixISt7complexIdEEaSERKNS_5ArrayIS2_EE@Base 3.2.1~
 _ZN8casacore6MatrixISt7complexIdEEaSERKS2_@Base 3.2.1~
 _ZN8casacore6MatrixISt7complexIdEEaSERKS3_@Base 3.2.1~
 _ZN8casacore6MatrixISt7complexIdEEclERKNS_11MaskedArrayIbEE@Base 3.2.1~
 _ZN8casacore6MatrixISt7complexIdEEclERKNS_5ArrayIbEE@Base 3.2.1~
 _ZN8casacore6MatrixISt7complexIdEEclERKNS_5SliceES6_@Base 3.2.1~
 _ZN8casacore6MatrixISt7complexIdEEclERKNS_6SlicerE@Base 3.2.1~
 _ZN8casacore6MatrixISt7complexIdEEclERKNS_9IPositionE@Base 3.2.1~
 _ZN8casacore6MatrixISt7complexIdEEclERKNS_9IPositionES6_@Base 3.2.1~
 _ZN8casacore6MatrixISt7complexIdEEclERKNS_9IPositionES6_S6_@Base 3.2.1~
 _ZN8casacore6MatrixISt7complexIdEEclEmm@Base 3.2.1~
 _ZN8casacore6MatrixISt7complexIfEE14preTakeStorageERKNS_9IPositionE@Base 3.2.1~
 _ZN8casacore6MatrixISt7complexIfEE15doNonDegenerateERKNS_5ArrayIS2_EERKNS_9IPositionE@Base 3.2.1~
 _ZN8casacore6MatrixISt7complexIfEE15postTakeStorageEv@Base 3.2.1~
 _ZN8casacore6MatrixISt7complexIfEE21makeIndexingConstantsEv@Base 3.2.1~
 _ZN8casacore6MatrixISt7complexIfEE3rowEm@Base 3.2.1~
 _ZN8casacore6MatrixISt7complexIfEE6assignERKNS_5ArrayIS2_EE@Base 3.2.1~
 _ZN8casacore6MatrixISt7complexIfEE6columnEm@Base 3.2.1~
 _ZN8casacore6MatrixISt7complexIfEE6resizeERKNS_9IPositionEbNS_15ArrayInitPolicyE@Base 3.2.1~
 _ZN8casacore6MatrixISt7complexIfEE6resizeEmmb@Base 3.2.1~
 _ZN8casacore6MatrixISt7complexIfEE6resizeEmmbNS_15ArrayInitPolicyE@Base 3.2.1~
 _ZN8casacore6MatrixISt7complexIfEE6resizeEv@Base 3.2.1~
 _ZN8casacore6MatrixISt7complexIfEE8diagonalEx@Base 3.2.1~
 _ZN8casacore6MatrixISt7complexIfEE8identityEm@Base 3.2.1~
 _ZN8casacore6MatrixISt7complexIfEE9referenceERKNS_5ArrayIS2_EE@Base 3.2.1~
 _ZN8casacore6MatrixISt7complexIfEEC1ERKNS_5ArrayIS2_EE@Base 3.2.1~
 _ZN8casacore6MatrixISt7complexIfEEC1ERKNS_9IPositionE@Base 3.2.1~
 _ZN8casacore6MatrixISt7complexIfEEC1ERKNS_9IPositionENS_15ArrayInitPolicyE@Base 3.2.1~
 _ZN8casacore6MatrixISt7complexIfEEC1ERKNS_9IPositionEPKS2_@Base 3.2.1~
 _ZN8casacore6MatrixISt7complexIfEEC1ERKNS_9IPositionEPS2_NS_17StorageInitPolicyE@Base 3.2.1~
 _ZN8casacore6MatrixISt7complexIfEEC1ERKNS_9IPositionEPS2_NS_17StorageInitPolicyERKNS_17AbstractAllocatorIS2_EE@Base 3.2.1~
 _ZN8casacore6MatrixISt7complexIfEEC1ERKNS_9IPositionERKS2_@Base 3.2.1~
 _ZN8casacore6MatrixISt7complexIfEEC1ERKS3_@Base 3.2.1~
 _ZN8casacore6MatrixISt7complexIfEEC1Emm@Base 3.2.1~
 _ZN8casacore6MatrixISt7complexIfEEC1EmmNS_15ArrayInitPolicyE@Base 3.2.1~
 _ZN8casacore6MatrixISt7complexIfEEC1EmmRKS2_@Base 3.2.1~
 _ZN8casacore6MatrixISt7complexIfEEC1Ev@Base 3.2.1~
 _ZN8casacore6MatrixISt7complexIfEEC2ERKNS_5ArrayIS2_EE@Base 3.2.1~
 _ZN8casacore6MatrixISt7complexIfEEC2ERKNS_9IPositionE@Base 3.2.1~
 _ZN8casacore6MatrixISt7complexIfEEC2ERKNS_9IPositionENS_15ArrayInitPolicyE@Base 3.2.1~
 _ZN8casacore6MatrixISt7complexIfEEC2ERKNS_9IPositionEPKS2_@Base 3.2.1~
 _ZN8casacore6MatrixISt7complexIfEEC2ERKNS_9IPositionEPS2_NS_17StorageInitPolicyE@Base 3.2.1~
 _ZN8casacore6MatrixISt7complexIfEEC2ERKNS_9IPositionEPS2_NS_17StorageInitPolicyERKNS_17AbstractAllocatorIS2_EE@Base 3.2.1~
 _ZN8casacore6MatrixISt7complexIfEEC2ERKNS_9IPositionERKS2_@Base 3.2.1~
 _ZN8casacore6MatrixISt7complexIfEEC2ERKS3_@Base 3.2.1~
 _ZN8casacore6MatrixISt7complexIfEEC2Emm@Base 3.2.1~
 _ZN8casacore6MatrixISt7complexIfEEC2EmmNS_15ArrayInitPolicyE@Base 3.2.1~
 _ZN8casacore6MatrixISt7complexIfEEC2EmmRKS2_@Base 3.2.1~
 _ZN8casacore6MatrixISt7complexIfEEC2Ev@Base 3.2.1~
 _ZN8casacore6MatrixISt7complexIfEED0Ev@Base 3.2.1~
 _ZN8casacore6MatrixISt7complexIfEED1Ev@Base 3.2.1~
 _ZN8casacore6MatrixISt7complexIfEED2Ev@Base 3.2.1~
 _ZN8casacore6MatrixISt7complexIfEEaSERKNS_11MaskedArrayIS2_EE@Base 3.2.1~
 _ZN8casacore6MatrixISt7complexIfEEaSERKNS_5ArrayIS2_EE@Base 3.2.1~
 _ZN8casacore6MatrixISt7complexIfEEaSERKS2_@Base 3.2.1~
 _ZN8casacore6MatrixISt7complexIfEEaSERKS3_@Base 3.2.1~
 _ZN8casacore6MatrixISt7complexIfEEclERKNS_11MaskedArrayIbEE@Base 3.2.1~
 _ZN8casacore6MatrixISt7complexIfEEclERKNS_5ArrayIbEE@Base 3.2.1~
 _ZN8casacore6MatrixISt7complexIfEEclERKNS_5SliceES6_@Base 3.2.1~
 _ZN8casacore6MatrixISt7complexIfEEclERKNS_6SlicerE@Base 3.2.1~
 _ZN8casacore6MatrixISt7complexIfEEclERKNS_9IPositionE@Base 3.2.1~
 _ZN8casacore6MatrixISt7complexIfEEclERKNS_9IPositionES6_@Base 3.2.1~
 _ZN8casacore6MatrixISt7complexIfEEclERKNS_9IPositionES6_S6_@Base 3.2.1~
 _ZN8casacore6MatrixISt7complexIfEEclEmm@Base 3.2.1~
 _ZN8casacore6MatrixIbE14preTakeStorageERKNS_9IPositionE@Base 3.2.1~
 _ZN8casacore6MatrixIbE15doNonDegenerateERKNS_5ArrayIbEERKNS_9IPositionE@Base 3.2.1~
 _ZN8casacore6MatrixIbE15postTakeStorageEv@Base 3.2.1~
 _ZN8casacore6MatrixIbE21makeIndexingConstantsEv@Base 3.2.1~
 _ZN8casacore6MatrixIbE3rowEm@Base 3.2.1~
 _ZN8casacore6MatrixIbE6assignERKNS_5ArrayIbEE@Base 3.2.1~
 _ZN8casacore6MatrixIbE6columnEm@Base 3.2.1~
 _ZN8casacore6MatrixIbE6resizeERKNS_9IPositionEbNS_15ArrayInitPolicyE@Base 3.2.1~
 _ZN8casacore6MatrixIbE6resizeEmmb@Base 3.2.1~
 _ZN8casacore6MatrixIbE6resizeEmmbNS_15ArrayInitPolicyE@Base 3.2.1~
 _ZN8casacore6MatrixIbE6resizeEv@Base 3.2.1~
 _ZN8casacore6MatrixIbE8diagonalEx@Base 3.2.1~
 _ZN8casacore6MatrixIbE8identityEm@Base 3.2.1~
 _ZN8casacore6MatrixIbE9referenceERKNS_5ArrayIbEE@Base 3.2.1~
 _ZN8casacore6MatrixIbEC1ERKNS_5ArrayIbEE@Base 3.2.1~
 _ZN8casacore6MatrixIbEC1ERKNS_9IPositionE@Base 3.2.1~
 _ZN8casacore6MatrixIbEC1ERKNS_9IPositionENS_15ArrayInitPolicyE@Base 3.2.1~
 _ZN8casacore6MatrixIbEC1ERKNS_9IPositionEPKb@Base 3.2.1~
 _ZN8casacore6MatrixIbEC1ERKNS_9IPositionEPbNS_17StorageInitPolicyE@Base 3.2.1~
 _ZN8casacore6MatrixIbEC1ERKNS_9IPositionEPbNS_17StorageInitPolicyERKNS_17AbstractAllocatorIbEE@Base 3.2.1~
 _ZN8casacore6MatrixIbEC1ERKNS_9IPositionERKb@Base 3.2.1~
 _ZN8casacore6MatrixIbEC1ERKS1_@Base 3.2.1~
 _ZN8casacore6MatrixIbEC1Emm@Base 3.2.1~
 _ZN8casacore6MatrixIbEC1EmmNS_15ArrayInitPolicyE@Base 3.2.1~
 _ZN8casacore6MatrixIbEC1EmmRKb@Base 3.2.1~
 _ZN8casacore6MatrixIbEC1Ev@Base 3.2.1~
 _ZN8casacore6MatrixIbEC2ERKNS_5ArrayIbEE@Base 3.2.1~
 _ZN8casacore6MatrixIbEC2ERKNS_9IPositionE@Base 3.2.1~
 _ZN8casacore6MatrixIbEC2ERKNS_9IPositionENS_15ArrayInitPolicyE@Base 3.2.1~
 _ZN8casacore6MatrixIbEC2ERKNS_9IPositionEPKb@Base 3.2.1~
 _ZN8casacore6MatrixIbEC2ERKNS_9IPositionEPbNS_17StorageInitPolicyE@Base 3.2.1~
 _ZN8casacore6MatrixIbEC2ERKNS_9IPositionEPbNS_17StorageInitPolicyERKNS_17AbstractAllocatorIbEE@Base 3.2.1~
 _ZN8casacore6MatrixIbEC2ERKNS_9IPositionERKb@Base 3.2.1~
 _ZN8casacore6MatrixIbEC2ERKS1_@Base 3.2.1~
 _ZN8casacore6MatrixIbEC2Emm@Base 3.2.1~
 _ZN8casacore6MatrixIbEC2EmmNS_15ArrayInitPolicyE@Base 3.2.1~
 _ZN8casacore6MatrixIbEC2EmmRKb@Base 3.2.1~
 _ZN8casacore6MatrixIbEC2Ev@Base 3.2.1~
 _ZN8casacore6MatrixIbED0Ev@Base 3.2.1~
 _ZN8casacore6MatrixIbED1Ev@Base 3.2.1~
 _ZN8casacore6MatrixIbED2Ev@Base 3.2.1~
 _ZN8casacore6MatrixIbEaSERKNS_11MaskedArrayIbEE@Base 3.2.1~
 _ZN8casacore6MatrixIbEaSERKNS_5ArrayIbEE@Base 3.2.1~
 _ZN8casacore6MatrixIbEaSERKS1_@Base 3.2.1~
 _ZN8casacore6MatrixIbEaSERKb@Base 3.2.1~
 _ZN8casacore6MatrixIbEclERKNS_11MaskedArrayIbEE@Base 3.2.1~
 _ZN8casacore6MatrixIbEclERKNS_5ArrayIbEE@Base 3.2.1~
 _ZN8casacore6MatrixIbEclERKNS_5SliceES4_@Base 3.2.1~
 _ZN8casacore6MatrixIbEclERKNS_6SlicerE@Base 3.2.1~
 _ZN8casacore6MatrixIbEclERKNS_9IPositionE@Base 3.2.1~
 _ZN8casacore6MatrixIbEclERKNS_9IPositionES4_@Base 3.2.1~
 _ZN8casacore6MatrixIbEclERKNS_9IPositionES4_S4_@Base 3.2.1~
 _ZN8casacore6MatrixIbEclEmm@Base 3.2.1~
 _ZN8casacore6MatrixIdE14preTakeStorageERKNS_9IPositionE@Base 3.2.1~
 _ZN8casacore6MatrixIdE15doNonDegenerateERKNS_5ArrayIdEERKNS_9IPositionE@Base 3.2.1~
 _ZN8casacore6MatrixIdE15postTakeStorageEv@Base 3.2.1~
 _ZN8casacore6MatrixIdE21makeIndexingConstantsEv@Base 3.2.1~
 _ZN8casacore6MatrixIdE3rowEm@Base 3.2.1~
 _ZN8casacore6MatrixIdE6assignERKNS_5ArrayIdEE@Base 3.2.1~
 _ZN8casacore6MatrixIdE6columnEm@Base 3.2.1~
 _ZN8casacore6MatrixIdE6resizeERKNS_9IPositionEbNS_15ArrayInitPolicyE@Base 3.2.1~
 _ZN8casacore6MatrixIdE6resizeEmmb@Base 3.2.1~
 _ZN8casacore6MatrixIdE6resizeEmmbNS_15ArrayInitPolicyE@Base 3.2.1~
 _ZN8casacore6MatrixIdE6resizeEv@Base 3.2.1~
 _ZN8casacore6MatrixIdE8diagonalEx@Base 3.2.1~
 _ZN8casacore6MatrixIdE8identityEm@Base 3.2.1~
 _ZN8casacore6MatrixIdE9referenceERKNS_5ArrayIdEE@Base 3.2.1~
 _ZN8casacore6MatrixIdEC1ERKNS_5ArrayIdEE@Base 3.2.1~
 _ZN8casacore6MatrixIdEC1ERKNS_9IPositionE@Base 3.2.1~
 _ZN8casacore6MatrixIdEC1ERKNS_9IPositionENS_15ArrayInitPolicyE@Base 3.2.1~
 _ZN8casacore6MatrixIdEC1ERKNS_9IPositionEPKd@Base 3.2.1~
 _ZN8casacore6MatrixIdEC1ERKNS_9IPositionEPdNS_17StorageInitPolicyE@Base 3.2.1~
 _ZN8casacore6MatrixIdEC1ERKNS_9IPositionEPdNS_17StorageInitPolicyERKNS_17AbstractAllocatorIdEE@Base 3.2.1~
 _ZN8casacore6MatrixIdEC1ERKNS_9IPositionERKd@Base 3.2.1~
 _ZN8casacore6MatrixIdEC1ERKS1_@Base 3.2.1~
 _ZN8casacore6MatrixIdEC1Emm@Base 3.2.1~
 _ZN8casacore6MatrixIdEC1EmmNS_15ArrayInitPolicyE@Base 3.2.1~
 _ZN8casacore6MatrixIdEC1EmmRKd@Base 3.2.1~
 _ZN8casacore6MatrixIdEC1Ev@Base 3.2.1~
 _ZN8casacore6MatrixIdEC2ERKNS_5ArrayIdEE@Base 3.2.1~
 _ZN8casacore6MatrixIdEC2ERKNS_9IPositionE@Base 3.2.1~
 _ZN8casacore6MatrixIdEC2ERKNS_9IPositionENS_15ArrayInitPolicyE@Base 3.2.1~
 _ZN8casacore6MatrixIdEC2ERKNS_9IPositionEPKd@Base 3.2.1~
 _ZN8casacore6MatrixIdEC2ERKNS_9IPositionEPdNS_17StorageInitPolicyE@Base 3.2.1~
 _ZN8casacore6MatrixIdEC2ERKNS_9IPositionEPdNS_17StorageInitPolicyERKNS_17AbstractAllocatorIdEE@Base 3.2.1~
 _ZN8casacore6MatrixIdEC2ERKNS_9IPositionERKd@Base 3.2.1~
 _ZN8casacore6MatrixIdEC2ERKS1_@Base 3.2.1~
 _ZN8casacore6MatrixIdEC2Emm@Base 3.2.1~
 _ZN8casacore6MatrixIdEC2EmmNS_15ArrayInitPolicyE@Base 3.2.1~
 _ZN8casacore6MatrixIdEC2EmmRKd@Base 3.2.1~
 _ZN8casacore6MatrixIdEC2Ev@Base 3.2.1~
 _ZN8casacore6MatrixIdED0Ev@Base 3.2.1~
 _ZN8casacore6MatrixIdED1Ev@Base 3.2.1~
 _ZN8casacore6MatrixIdED2Ev@Base 3.2.1~
 _ZN8casacore6MatrixIdEaSERKNS_11MaskedArrayIdEE@Base 3.2.1~
 _ZN8casacore6MatrixIdEaSERKNS_5ArrayIdEE@Base 3.2.1~
 _ZN8casacore6MatrixIdEaSERKS1_@Base 3.2.1~
 _ZN8casacore6MatrixIdEaSERKd@Base 3.2.1~
 _ZN8casacore6MatrixIdEclERKNS_11MaskedArrayIbEE@Base 3.2.1~
 _ZN8casacore6MatrixIdEclERKNS_5ArrayIbEE@Base 3.2.1~
 _ZN8casacore6MatrixIdEclERKNS_5SliceES4_@Base 3.2.1~
 _ZN8casacore6MatrixIdEclERKNS_6SlicerE@Base 3.2.1~
 _ZN8casacore6MatrixIdEclERKNS_9IPositionE@Base 3.2.1~
 _ZN8casacore6MatrixIdEclERKNS_9IPositionES4_@Base 3.2.1~
 _ZN8casacore6MatrixIdEclERKNS_9IPositionES4_S4_@Base 3.2.1~
 _ZN8casacore6MatrixIdEclEmm@Base 3.2.1~
 _ZN8casacore6MatrixIfE14preTakeStorageERKNS_9IPositionE@Base 3.2.1~
 _ZN8casacore6MatrixIfE15doNonDegenerateERKNS_5ArrayIfEERKNS_9IPositionE@Base 3.2.1~
 _ZN8casacore6MatrixIfE15postTakeStorageEv@Base 3.2.1~
 _ZN8casacore6MatrixIfE21makeIndexingConstantsEv@Base 3.2.1~
 _ZN8casacore6MatrixIfE3rowEm@Base 3.2.1~
 _ZN8casacore6MatrixIfE6assignERKNS_5ArrayIfEE@Base 3.2.1~
 _ZN8casacore6MatrixIfE6columnEm@Base 3.2.1~
 _ZN8casacore6MatrixIfE6resizeERKNS_9IPositionEbNS_15ArrayInitPolicyE@Base 3.2.1~
 _ZN8casacore6MatrixIfE6resizeEmmb@Base 3.2.1~
 _ZN8casacore6MatrixIfE6resizeEmmbNS_15ArrayInitPolicyE@Base 3.2.1~
 _ZN8casacore6MatrixIfE6resizeEv@Base 3.2.1~
 _ZN8casacore6MatrixIfE8diagonalEx@Base 3.2.1~
 _ZN8casacore6MatrixIfE8identityEm@Base 3.2.1~
 _ZN8casacore6MatrixIfE9referenceERKNS_5ArrayIfEE@Base 3.2.1~
 _ZN8casacore6MatrixIfEC1ERKNS_5ArrayIfEE@Base 3.2.1~
 _ZN8casacore6MatrixIfEC1ERKNS_9IPositionE@Base 3.2.1~
 _ZN8casacore6MatrixIfEC1ERKNS_9IPositionENS_15ArrayInitPolicyE@Base 3.2.1~
 _ZN8casacore6MatrixIfEC1ERKNS_9IPositionEPKf@Base 3.2.1~
 _ZN8casacore6MatrixIfEC1ERKNS_9IPositionEPfNS_17StorageInitPolicyE@Base 3.2.1~
 _ZN8casacore6MatrixIfEC1ERKNS_9IPositionEPfNS_17StorageInitPolicyERKNS_17AbstractAllocatorIfEE@Base 3.2.1~
 _ZN8casacore6MatrixIfEC1ERKNS_9IPositionERKf@Base 3.2.1~
 _ZN8casacore6MatrixIfEC1ERKS1_@Base 3.2.1~
 _ZN8casacore6MatrixIfEC1Emm@Base 3.2.1~
 _ZN8casacore6MatrixIfEC1EmmNS_15ArrayInitPolicyE@Base 3.2.1~
 _ZN8casacore6MatrixIfEC1EmmRKf@Base 3.2.1~
 _ZN8casacore6MatrixIfEC1Ev@Base 3.2.1~
 _ZN8casacore6MatrixIfEC2ERKNS_5ArrayIfEE@Base 3.2.1~
 _ZN8casacore6MatrixIfEC2ERKNS_9IPositionE@Base 3.2.1~
 _ZN8casacore6MatrixIfEC2ERKNS_9IPositionENS_15ArrayInitPolicyE@Base 3.2.1~
 _ZN8casacore6MatrixIfEC2ERKNS_9IPositionEPKf@Base 3.2.1~
 _ZN8casacore6MatrixIfEC2ERKNS_9IPositionEPfNS_17StorageInitPolicyE@Base 3.2.1~
 _ZN8casacore6MatrixIfEC2ERKNS_9IPositionEPfNS_17StorageInitPolicyERKNS_17AbstractAllocatorIfEE@Base 3.2.1~
 _ZN8casacore6MatrixIfEC2ERKNS_9IPositionERKf@Base 3.2.1~
 _ZN8casacore6MatrixIfEC2ERKS1_@Base 3.2.1~
 _ZN8casacore6MatrixIfEC2Emm@Base 3.2.1~
 _ZN8casacore6MatrixIfEC2EmmNS_15ArrayInitPolicyE@Base 3.2.1~
 _ZN8casacore6MatrixIfEC2EmmRKf@Base 3.2.1~
 _ZN8casacore6MatrixIfEC2Ev@Base 3.2.1~
 _ZN8casacore6MatrixIfED0Ev@Base 3.2.1~
 _ZN8casacore6MatrixIfED1Ev@Base 3.2.1~
 _ZN8casacore6MatrixIfED2Ev@Base 3.2.1~
 _ZN8casacore6MatrixIfEaSERKNS_11MaskedArrayIfEE@Base 3.2.1~
 _ZN8casacore6MatrixIfEaSERKNS_5ArrayIfEE@Base 3.2.1~
 _ZN8casacore6MatrixIfEaSERKS1_@Base 3.2.1~
 _ZN8casacore6MatrixIfEaSERKf@Base 3.2.1~
 _ZN8casacore6MatrixIfEclERKNS_11MaskedArrayIbEE@Base 3.2.1~
 _ZN8casacore6MatrixIfEclERKNS_5ArrayIbEE@Base 3.2.1~
 _ZN8casacore6MatrixIfEclERKNS_5SliceES4_@Base 3.2.1~
 _ZN8casacore6MatrixIfEclERKNS_6SlicerE@Base 3.2.1~
 _ZN8casacore6MatrixIfEclERKNS_9IPositionE@Base 3.2.1~
 _ZN8casacore6MatrixIfEclERKNS_9IPositionES4_@Base 3.2.1~
 _ZN8casacore6MatrixIfEclERKNS_9IPositionES4_S4_@Base 3.2.1~
 _ZN8casacore6MatrixIfEclEmm@Base 3.2.1~
 _ZN8casacore6MatrixIiE14preTakeStorageERKNS_9IPositionE@Base 3.2.1~
 _ZN8casacore6MatrixIiE15doNonDegenerateERKNS_5ArrayIiEERKNS_9IPositionE@Base 3.2.1~
 _ZN8casacore6MatrixIiE15postTakeStorageEv@Base 3.2.1~
 _ZN8casacore6MatrixIiE3rowEm@Base 3.2.1~
 _ZN8casacore6MatrixIiE6assignERKNS_5ArrayIiEE@Base 3.2.1~
 _ZN8casacore6MatrixIiE6columnEm@Base 3.2.1~
 _ZN8casacore6MatrixIiE6resizeERKNS_9IPositionEbNS_15ArrayInitPolicyE@Base 3.2.1~
 _ZN8casacore6MatrixIiE6resizeEv@Base 3.2.1~
 _ZN8casacore6MatrixIiE9referenceERKNS_5ArrayIiEE@Base 3.2.1~
 _ZN8casacore6MatrixIiEC1ERKNS_5ArrayIiEE@Base 3.2.1~
 _ZN8casacore6MatrixIiEC1Ev@Base 3.2.1~
 _ZN8casacore6MatrixIiEC2ERKNS_5ArrayIiEE@Base 3.2.1~
 _ZN8casacore6MatrixIiEC2Ev@Base 3.2.1~
 _ZN8casacore6MatrixIiED0Ev@Base 3.2.1~
 _ZN8casacore6MatrixIiED1Ev@Base 3.2.1~
 _ZN8casacore6MatrixIiED2Ev@Base 3.2.1~
 _ZN8casacore6MatrixIiEaSERKNS_5ArrayIiEE@Base 3.2.1~
 _ZN8casacore6MatrixIiEclERKNS_5SliceES4_@Base 3.2.1~
 _ZN8casacore6Memory13releaseMemoryEv@Base 3.2.1~
 _ZN8casacore6Memory15setMemoryOptionEii@Base 3.2.1~
 _ZN8casacore6Memory16setMemoryOptionsEv@Base 3.2.1~
 _ZN8casacore6Memory21assignedMemoryInBytesEv@Base 3.2.1~
 _ZN8casacore6Memory22allocatedMemoryInBytesEv@Base 3.2.1~
 _ZN8casacore6Normal13setParametersERKNS_6VectorIdEE@Base 3.2.1~
 _ZN8casacore6Normal4meanEd@Base 3.2.1~
 _ZN8casacore6Normal8varianceEd@Base 3.2.1~
 _ZN8casacore6NormalC1EPNS_3RNGEdd@Base 3.2.1~
 _ZN8casacore6NormalC2EPNS_3RNGEdd@Base 3.2.1~
 _ZN8casacore6NormalD0Ev@Base 3.2.1~
 _ZN8casacore6NormalD1Ev@Base 3.2.1~
 _ZN8casacore6NormalD2Ev@Base 3.2.1~
 _ZN8casacore6NormalclEv@Base 3.2.1~
 _ZN8casacore6NoticeD0Ev@Base 3.2.1~
 _ZN8casacore6NoticeD1Ev@Base 3.2.1~
 _ZN8casacore6NoticeD2Ev@Base 3.2.1~
 _ZN8casacore6Primes10cacheTableE@Base 3.2.1~
 _ZN8casacore6Primes10theirMutexE@Base 3.2.1~
 _ZN8casacore6Primes15initializeCacheEv@Base 3.2.1~
 _ZN8casacore6Primes16aLargerPrimeThanEj@Base 3.2.1~
 _ZN8casacore6Primes19nextLargerPrimeThanEj@Base 3.2.1~
 _ZN8casacore6Primes19smallestPrimeFactorEj@Base 3.2.1~
 _ZN8casacore6Primes6factorEj@Base 3.2.1~
 _ZN8casacore6Primes7isPrimeEj@Base 3.2.1~
 _ZN8casacore6Random17defaultParametersENS0_5TypesE@Base 3.2.1~
 _ZN8casacore6Random6asTypeERKNS_6StringE@Base 3.2.1~
 _ZN8casacore6Random8asStringENS0_5TypesE@Base 3.2.1~
 _ZN8casacore6Random9constructENS0_5TypesEPNS_3RNGE@Base 3.2.1~
 _ZN8casacore6RandomD0Ev@Base 3.2.1~
 _ZN8casacore6RandomD1Ev@Base 3.2.1~
 _ZN8casacore6RandomD2Ev@Base 3.2.1~
 _ZN8casacore6Record10asrwRecordERKNS_13RecordFieldIdE@Base 3.2.1~
 _ZN8casacore6Record10makeUniqueEv@Base 3.2.1~
 _ZN8casacore6Record10mergeFieldERKS0_RKNS_13RecordFieldIdENS_15RecordInterface14DuplicatesFlagE@Base 3.2.1~
 _ZN8casacore6Record10setCommentERKNS_13RecordFieldIdERKNS_6StringE@Base 3.2.1~
 _ZN8casacore6Record11removeFieldERKNS_13RecordFieldIdE@Base 3.2.1~
 _ZN8casacore6Record11renameFieldERKNS_6StringERKNS_13RecordFieldIdE@Base 3.2.1~
 _ZN8casacore6Record11restructureERKNS_10RecordDescEb@Base 3.2.1~
 _ZN8casacore6Record11rwSubRecordERKNS_13RecordFieldIdE@Base 3.2.1~
 _ZN8casacore6Record12addDataFieldERKNS_6StringENS_8DataTypeERKNS_9IPositionEbPKv@Base 3.2.1~
 _ZN8casacore6Record12defineRecordERKNS_13RecordFieldIdERKNS_15RecordInterfaceENS4_10RecordTypeE@Base 3.2.1~
 _ZN8casacore6Record12defineRecordERKNS_13RecordFieldIdERKS0_NS_15RecordInterface10RecordTypeE@Base 3.2.1~
 _ZN8casacore6Record15defineDataFieldEiNS_8DataTypeEPKv@Base 3.2.1~
 _ZN8casacore6Record21defineFromValueHolderERKNS_13RecordFieldIdERKNS_11ValueHolderE@Base 3.2.1~
 _ZN8casacore6Record5mergeERKS0_NS_15RecordInterface14DuplicatesFlagE@Base 3.2.1~
 _ZN8casacore6Record5rwRefEv@Base 3.2.1~
 _ZN8casacore6Record6assignERKNS_15RecordInterfaceE@Base 3.2.1~
 _ZN8casacore6Record9getRecordERNS_6AipsIOE@Base 3.2.1~
 _ZN8casacore6RecordC1ENS_15RecordInterface10RecordTypeEPFbRKNS_6StringENS_8DataTypeEPKvRS3_ES8_@Base 3.2.1~
 _ZN8casacore6RecordC1EPNS_9RecordRepENS_15RecordInterface10RecordTypeE@Base 3.2.1~
 _ZN8casacore6RecordC1EPNS_9RecordRepERKNS_10RecordDescE@Base 3.2.1~
 _ZN8casacore6RecordC1ERKNS_10RecordDescENS_15RecordInterface10RecordTypeEPFbRKNS_6StringENS_8DataTypeEPKvRS6_ESB_@Base 3.2.1~
 _ZN8casacore6RecordC1ERKNS_15RecordInterfaceE@Base 3.2.1~
 _ZN8casacore6RecordC1ERKS0_@Base 3.2.1~
 _ZN8casacore6RecordC1Ev@Base 3.2.1~
 _ZN8casacore6RecordC2ENS_15RecordInterface10RecordTypeEPFbRKNS_6StringENS_8DataTypeEPKvRS3_ES8_@Base 3.2.1~
 _ZN8casacore6RecordC2EPNS_9RecordRepENS_15RecordInterface10RecordTypeE@Base 3.2.1~
 _ZN8casacore6RecordC2EPNS_9RecordRepERKNS_10RecordDescE@Base 3.2.1~
 _ZN8casacore6RecordC2ERKNS_10RecordDescENS_15RecordInterface10RecordTypeEPFbRKNS_6StringENS_8DataTypeEPKvRS6_ESB_@Base 3.2.1~
 _ZN8casacore6RecordC2ERKNS_15RecordInterfaceE@Base 3.2.1~
 _ZN8casacore6RecordC2ERKS0_@Base 3.2.1~
 _ZN8casacore6RecordC2Ev@Base 3.2.1~
 _ZN8casacore6RecordD0Ev@Base 3.2.1~
 _ZN8casacore6RecordD1Ev@Base 3.2.1~
 _ZN8casacore6RecordD2Ev@Base 3.2.1~
 _ZN8casacore6RecordaSERKS0_@Base 3.2.1~
 _ZN8casacore6Slicer10fillEndLenEv@Base 3.2.1~
 _ZN8casacore6Slicer9fillFixedEv@Base 3.2.1~
 _ZN8casacore6Slicer9fillSliceERKNS_5SliceERlS4_S4_@Base 3.2.1~
 _ZN8casacore6SlicerC1ERKNS_5SliceENS0_12LengthOrLastE@Base 3.2.1~
 _ZN8casacore6SlicerC1ERKNS_5SliceES3_NS0_12LengthOrLastE@Base 3.2.1~
 _ZN8casacore6SlicerC1ERKNS_5SliceES3_S3_NS0_12LengthOrLastE@Base 3.2.1~
 _ZN8casacore6SlicerC1ERKNS_9IPositionE@Base 3.2.1~
 _ZN8casacore6SlicerC1ERKNS_9IPositionES3_NS0_12LengthOrLastE@Base 3.2.1~
 _ZN8casacore6SlicerC1ERKNS_9IPositionES3_S3_NS0_12LengthOrLastE@Base 3.2.1~
 _ZN8casacore6SlicerC1ERKS0_@Base 3.2.1~
 _ZN8casacore6SlicerC1Ev@Base 3.2.1~
 _ZN8casacore6SlicerC2ERKNS_5SliceENS0_12LengthOrLastE@Base 3.2.1~
 _ZN8casacore6SlicerC2ERKNS_5SliceES3_NS0_12LengthOrLastE@Base 3.2.1~
 _ZN8casacore6SlicerC2ERKNS_5SliceES3_S3_NS0_12LengthOrLastE@Base 3.2.1~
 _ZN8casacore6SlicerC2ERKNS_9IPositionE@Base 3.2.1~
 _ZN8casacore6SlicerC2ERKNS_9IPositionES3_NS0_12LengthOrLastE@Base 3.2.1~
 _ZN8casacore6SlicerC2ERKNS_9IPositionES3_S3_NS0_12LengthOrLastE@Base 3.2.1~
 _ZN8casacore6SlicerC2ERKS0_@Base 3.2.1~
 _ZN8casacore6SlicerC2Ev@Base 3.2.1~
 _ZN8casacore6SlicerD1Ev@Base 3.2.1~
 _ZN8casacore6SlicerD2Ev@Base 3.2.1~
 _ZN8casacore6SliceraSERKS0_@Base 3.2.1~
 _ZN8casacore6String10capitalizeEv@Base 3.2.1~
 _ZN8casacore6String2atEPKci@Base 3.2.1~
 _ZN8casacore6String2atERKNS_9RegexBaseEi@Base 3.2.1~
 _ZN8casacore6String2atERKNSt7__cxx1112basic_stringIcSt11char_traitsIcESaIcEEEi@Base 3.2.1~
 _ZN8casacore6String2atEci@Base 3.2.1~
 _ZN8casacore6String2atEmm@Base 3.2.1~
 _ZN8casacore6String3delEPKcm@Base 3.2.1~
 _ZN8casacore6String3delERKNS_9RegexBaseEm@Base 3.2.1~
 _ZN8casacore6String3delERKNSt7__cxx1112basic_stringIcSt11char_traitsIcESaIcEEEm@Base 3.2.1~
 _ZN8casacore6String3delEcm@Base 3.2.1~
 _ZN8casacore6String3delEmm@Base 3.2.1~
 _ZN8casacore6String4fromEPKcm@Base 3.2.1~
 _ZN8casacore6String4fromERKNS_9RegexBaseEm@Base 3.2.1~
 _ZN8casacore6String4fromERKNSt7__cxx1112basic_stringIcSt11char_traitsIcESaIcEEEm@Base 3.2.1~
 _ZN8casacore6String4fromEcm@Base 3.2.1~
 _ZN8casacore6String4fromEm@Base 3.2.1~
 _ZN8casacore6String4gsubEPKcRKNSt7__cxx1112basic_stringIcSt11char_traitsIcESaIcEEE@Base 3.2.1~
 _ZN8casacore6String4gsubEPKcS2_@Base 3.2.1~
 _ZN8casacore6String4gsubERKNS_9RegexBaseERKNSt7__cxx1112basic_stringIcSt11char_traitsIcESaIcEEE@Base 3.2.1~
 _ZN8casacore6String4gsubERKNSt7__cxx1112basic_stringIcSt11char_traitsIcESaIcEEES8_@Base 3.2.1~
 _ZN8casacore6String4trimEPcj@Base 3.2.1~
 _ZN8casacore6String4trimEv@Base 3.2.1~
 _ZN8casacore6String5afterEPKcm@Base 3.2.1~
 _ZN8casacore6String5afterERKNS_9RegexBaseEm@Base 3.2.1~
 _ZN8casacore6String5afterERKNSt7__cxx1112basic_stringIcSt11char_traitsIcESaIcEEEm@Base 3.2.1~
 _ZN8casacore6String5afterEcm@Base 3.2.1~
 _ZN8casacore6String5afterEm@Base 3.2.1~
 _ZN8casacore6String5ltrimEc@Base 3.2.1~
 _ZN8casacore6String5rtrimEc@Base 3.2.1~
 _ZN8casacore6String5toIntERKS0_b@Base 3.2.1~
 _ZN8casacore6String6formatEPKcz@Base 3.2.1~
 _ZN8casacore6String6upcaseEv@Base 3.2.1~
 _ZN8casacore6String7prependEPKc@Base 3.2.1~
 _ZN8casacore6String7prependERKNSt7__cxx1112basic_stringIcSt11char_traitsIcESaIcEEE@Base 3.2.1~
 _ZN8casacore6String7prependEc@Base 3.2.1~
 _ZN8casacore6String7reverseEv@Base 3.2.1~
 _ZN8casacore6String7throughEPKcm@Base 3.2.1~
 _ZN8casacore6String7throughERKNS_9RegexBaseEm@Base 3.2.1~
 _ZN8casacore6String7throughERKNSt7__cxx1112basic_stringIcSt11char_traitsIcESaIcEEEm@Base 3.2.1~
 _ZN8casacore6String7throughEcm@Base 3.2.1~
 _ZN8casacore6String7throughEm@Base 3.2.1~
 _ZN8casacore6String7toFloatERKS0_b@Base 3.2.1~
 _ZN8casacore6String8downcaseEv@Base 3.2.1~
 _ZN8casacore6String8toDoubleERKS0_b@Base 3.2.1~
 _ZN8casacore6String8toStringINS_8DataTypeEEES0_RKT_@Base 3.2.1~
 _ZN8casacore6String8toStringIiEES0_RKT_@Base 3.2.1~
 _ZN8casacore6String8toStringIjEES0_RKT_@Base 3.2.1~
 _ZN8casacore6String8toStringImEES0_RKT_@Base 3.2.1~
 _ZN8casacore6String8toStringItEES0_RKT_@Base 3.2.1~
 _ZN8casacore6String8toStringIxEES0_RKT_@Base 3.2.1~
 _ZN8casacore6StringC1ERNSt7__cxx1119basic_ostringstreamIcSt11char_traitsIcESaIcEEE@Base 3.2.1~
 _ZN8casacore6StringC2ERNSt7__cxx1119basic_ostringstreamIcSt11char_traitsIcESaIcEEE@Base 3.2.1~
 _ZN8casacore6StringD1Ev@Base 3.2.1~
 _ZN8casacore6StringD2Ev@Base 3.2.1~
 _ZN8casacore6TapeIO11fillRWFlagsEv@Base 3.2.1~
 _ZN8casacore6TapeIO12fillSeekableEv@Base 3.2.1~
 _ZN8casacore6TapeIO12setBlockSizeEj@Base 3.2.1~
 _ZN8casacore6TapeIO17setFixedBlockSizeEj@Base 3.2.1~
 _ZN8casacore6TapeIO20setVariableBlockSizeEv@Base 3.2.1~
 _ZN8casacore6TapeIO4markEj@Base 3.2.1~
 _ZN8casacore6TapeIO4openERKNS_4PathEb@Base 3.2.1~
 _ZN8casacore6TapeIO4readExPvb@Base 3.2.1~
 _ZN8casacore6TapeIO4skipEj@Base 3.2.1~
 _ZN8casacore6TapeIO5closeEi@Base 3.2.1~
 _ZN8casacore6TapeIO5writeExPKv@Base 3.2.1~
 _ZN8casacore6TapeIO6attachERKNS_4PathEb@Base 3.2.1~
 _ZN8casacore6TapeIO6attachEi@Base 3.2.1~
 _ZN8casacore6TapeIO6detachEv@Base 3.2.1~
 _ZN8casacore6TapeIO6doSeekExNS_6ByteIO10SeekOptionE@Base 3.2.1~
 _ZN8casacore6TapeIO6lengthEv@Base 3.2.1~
 _ZN8casacore6TapeIO6rewindEv@Base 3.2.1~
 _ZN8casacore6TapeIOC1ERKNS_4PathEb@Base 3.2.1~
 _ZN8casacore6TapeIOC1Ei@Base 3.2.1~
 _ZN8casacore6TapeIOC1Ev@Base 3.2.1~
 _ZN8casacore6TapeIOC2ERKNS_4PathEb@Base 3.2.1~
 _ZN8casacore6TapeIOC2Ei@Base 3.2.1~
 _ZN8casacore6TapeIOC2Ev@Base 3.2.1~
 _ZN8casacore6TapeIOD0Ev@Base 3.2.1~
 _ZN8casacore6TapeIOD1Ev@Base 3.2.1~
 _ZN8casacore6TapeIOD2Ev@Base 3.2.1~
 _ZN8casacore6TypeIO4readEmPNS_6StringE@Base 3.2.1~
 _ZN8casacore6TypeIO4readEmPSt7complexIdE@Base 3.2.1~
 _ZN8casacore6TypeIO4readEmPSt7complexIfE@Base 3.2.1~
 _ZN8casacore6TypeIO4readEmPb@Base 3.2.1~
 _ZN8casacore6TypeIO4seekEiNS_6ByteIO10SeekOptionE@Base 3.2.1~
 _ZN8casacore6TypeIO4seekExNS_6ByteIO10SeekOptionE@Base 3.2.1~
 _ZN8casacore6TypeIO5writeEmPKNS_6StringE@Base 3.2.1~
 _ZN8casacore6TypeIO5writeEmPKSt7complexIdE@Base 3.2.1~
 _ZN8casacore6TypeIO5writeEmPKSt7complexIfE@Base 3.2.1~
 _ZN8casacore6TypeIO5writeEmPKb@Base 3.2.1~
 _ZN8casacore6TypeIO6byteIOEv@Base 3.2.1~
 _ZN8casacore6TypeIOC1EPNS_6ByteIOEb@Base 3.2.1~
 _ZN8casacore6TypeIOC1ERKS0_@Base 3.2.1~
 _ZN8casacore6TypeIOC2EPNS_6ByteIOEb@Base 3.2.1~
 _ZN8casacore6TypeIOC2ERKS0_@Base 3.2.1~
 _ZN8casacore6TypeIOD0Ev@Base 3.2.1~
 _ZN8casacore6TypeIOD1Ev@Base 3.2.1~
 _ZN8casacore6TypeIOD2Ev@Base 3.2.1~
 _ZN8casacore6TypeIOaSERKS0_@Base 3.2.1~
 _ZN8casacore6VectorINS_5SliceEE14preTakeStorageERKNS_9IPositionE@Base 3.2.1~
 _ZN8casacore6VectorINS_5SliceEE15doNonDegenerateERKNS_5ArrayIS1_EERKNS_9IPositionE@Base 3.2.1~
 _ZN8casacore6VectorINS_5SliceEE6assignERKNS_5ArrayIS1_EE@Base 3.2.1~
 _ZN8casacore6VectorINS_5SliceEE6resizeERKNS_9IPositionEbNS_15ArrayInitPolicyE@Base 3.2.1~
 _ZN8casacore6VectorINS_5SliceEE6resizeEv@Base 3.2.1~
 _ZN8casacore6VectorINS_5SliceEE9referenceERKNS_5ArrayIS1_EE@Base 3.2.1~
 _ZN8casacore6VectorINS_5SliceEEC1Ev@Base 3.2.1~
 _ZN8casacore6VectorINS_5SliceEEC2Ev@Base 3.2.1~
 _ZN8casacore6VectorINS_5SliceEED0Ev@Base 3.2.1~
 _ZN8casacore6VectorINS_5SliceEED1Ev@Base 3.2.1~
 _ZN8casacore6VectorINS_5SliceEED2Ev@Base 3.2.1~
 _ZN8casacore6VectorINS_5SliceEEaSERKNS_5ArrayIS1_EE@Base 3.2.1~
 _ZN8casacore6VectorINS_5SliceEEaSERKS2_@Base 3.2.1~
 _ZN8casacore6VectorINS_6StringEE10initVectorERKNS_5BlockIS1_EEx@Base 3.2.1~
 _ZN8casacore6VectorINS_6StringEE14preTakeStorageERKNS_9IPositionE@Base 3.2.1~
 _ZN8casacore6VectorINS_6StringEE15doNonDegenerateERKNS_5ArrayIS1_EERKNS_9IPositionE@Base 3.2.1~
 _ZN8casacore6VectorINS_6StringEE6assignERKNS_5ArrayIS1_EE@Base 3.2.1~
 _ZN8casacore6VectorINS_6StringEE6resizeERKNS_9IPositionEbNS_15ArrayInitPolicyE@Base 3.2.1~
 _ZN8casacore6VectorINS_6StringEE6resizeEmb@Base 3.2.1~
 _ZN8casacore6VectorINS_6StringEE6resizeEmbNS_15ArrayInitPolicyE@Base 3.2.1~
 _ZN8casacore6VectorINS_6StringEE6resizeEv@Base 3.2.1~
 _ZN8casacore6VectorINS_6StringEE9referenceERKNS_5ArrayIS1_EE@Base 3.2.1~
 _ZN8casacore6VectorINS_6StringEEC1ERKNS_5ArrayIS1_EE@Base 3.2.1~
 _ZN8casacore6VectorINS_6StringEEC1ERKNS_5BlockIS1_EE@Base 3.2.1~
 _ZN8casacore6VectorINS_6StringEEC1ERKNS_5BlockIS1_EEx@Base 3.2.1~
 _ZN8casacore6VectorINS_6StringEEC1ERKNS_9IPositionE@Base 3.2.1~
 _ZN8casacore6VectorINS_6StringEEC1ERKNS_9IPositionENS_15ArrayInitPolicyE@Base 3.2.1~
 _ZN8casacore6VectorINS_6StringEEC1ERKNS_9IPositionEPKS1_@Base 3.2.1~
 _ZN8casacore6VectorINS_6StringEEC1ERKNS_9IPositionEPS1_NS_17StorageInitPolicyE@Base 3.2.1~
 _ZN8casacore6VectorINS_6StringEEC1ERKNS_9IPositionEPS1_NS_17StorageInitPolicyERKNS_17AbstractAllocatorIS1_EE@Base 3.2.1~
 _ZN8casacore6VectorINS_6StringEEC1ERKNS_9IPositionERKS1_@Base 3.2.1~
 _ZN8casacore6VectorINS_6StringEEC1ERKS2_@Base 3.2.1~
 _ZN8casacore6VectorINS_6StringEEC1Em@Base 3.2.1~
 _ZN8casacore6VectorINS_6StringEEC1EmNS_15ArrayInitPolicyE@Base 3.2.1~
 _ZN8casacore6VectorINS_6StringEEC1EmRKS1_@Base 3.2.1~
 _ZN8casacore6VectorINS_6StringEEC1Ev@Base 3.2.1~
 _ZN8casacore6VectorINS_6StringEEC1IS1_SaIS1_EEERKSt6vectorIT_T0_E@Base 3.2.1~
 _ZN8casacore6VectorINS_6StringEEC2ERKNS_5ArrayIS1_EE@Base 3.2.1~
 _ZN8casacore6VectorINS_6StringEEC2ERKNS_5BlockIS1_EE@Base 3.2.1~
 _ZN8casacore6VectorINS_6StringEEC2ERKNS_5BlockIS1_EEx@Base 3.2.1~
 _ZN8casacore6VectorINS_6StringEEC2ERKNS_9IPositionE@Base 3.2.1~
 _ZN8casacore6VectorINS_6StringEEC2ERKNS_9IPositionENS_15ArrayInitPolicyE@Base 3.2.1~
 _ZN8casacore6VectorINS_6StringEEC2ERKNS_9IPositionEPKS1_@Base 3.2.1~
 _ZN8casacore6VectorINS_6StringEEC2ERKNS_9IPositionEPS1_NS_17StorageInitPolicyE@Base 3.2.1~
 _ZN8casacore6VectorINS_6StringEEC2ERKNS_9IPositionEPS1_NS_17StorageInitPolicyERKNS_17AbstractAllocatorIS1_EE@Base 3.2.1~
 _ZN8casacore6VectorINS_6StringEEC2ERKNS_9IPositionERKS1_@Base 3.2.1~
 _ZN8casacore6VectorINS_6StringEEC2ERKS2_@Base 3.2.1~
 _ZN8casacore6VectorINS_6StringEEC2Em@Base 3.2.1~
 _ZN8casacore6VectorINS_6StringEEC2EmNS_15ArrayInitPolicyE@Base 3.2.1~
 _ZN8casacore6VectorINS_6StringEEC2EmRKS1_@Base 3.2.1~
 _ZN8casacore6VectorINS_6StringEEC2Ev@Base 3.2.1~
 _ZN8casacore6VectorINS_6StringEEC2IS1_SaIS1_EEERKSt6vectorIT_T0_E@Base 3.2.1~
 _ZN8casacore6VectorINS_6StringEED0Ev@Base 3.2.1~
 _ZN8casacore6VectorINS_6StringEED1Ev@Base 3.2.1~
 _ZN8casacore6VectorINS_6StringEED2Ev@Base 3.2.1~
 _ZN8casacore6VectorINS_6StringEEaSERKNS_11MaskedArrayIS1_EE@Base 3.2.1~
 _ZN8casacore6VectorINS_6StringEEaSERKNS_5ArrayIS1_EE@Base 3.2.1~
 _ZN8casacore6VectorINS_6StringEEaSERKS1_@Base 3.2.1~
 _ZN8casacore6VectorINS_6StringEEaSERKS2_@Base 3.2.1~
 _ZN8casacore6VectorINS_6StringEEclERKNS_11MaskedArrayIbEE@Base 3.2.1~
 _ZN8casacore6VectorINS_6StringEEclERKNS_5ArrayIbEE@Base 3.2.1~
 _ZN8casacore6VectorINS_6StringEEclERKNS_5SliceE@Base 3.2.1~
 _ZN8casacore6VectorINS_6StringEEclERKNS_6SlicerE@Base 3.2.1~
 _ZN8casacore6VectorINS_6StringEEclERKNS_9IPositionE@Base 3.2.1~
 _ZN8casacore6VectorINS_6StringEEclERKNS_9IPositionES5_@Base 3.2.1~
 _ZN8casacore6VectorINS_6StringEEclERKNS_9IPositionES5_S5_@Base 3.2.1~
 _ZN8casacore6VectorINS_6StringEEclEm@Base 3.2.1~
 _ZN8casacore6VectorINS_6StringEEixEm@Base 3.2.1~
 _ZN8casacore6VectorINS_7QuantumIdEEE14preTakeStorageERKNS_9IPositionE@Base 3.2.1~
 _ZN8casacore6VectorINS_7QuantumIdEEE15doNonDegenerateERKNS_5ArrayIS2_EERKNS_9IPositionE@Base 3.2.1~
 _ZN8casacore6VectorINS_7QuantumIdEEE6assignERKNS_5ArrayIS2_EE@Base 3.2.1~
 _ZN8casacore6VectorINS_7QuantumIdEEE6resizeERKNS_9IPositionEbNS_15ArrayInitPolicyE@Base 3.2.1~
 _ZN8casacore6VectorINS_7QuantumIdEEE6resizeEv@Base 3.2.1~
 _ZN8casacore6VectorINS_7QuantumIdEEE9referenceERKNS_5ArrayIS2_EE@Base 3.2.1~
 _ZN8casacore6VectorINS_7QuantumIdEEEC1Em@Base 3.2.1~
 _ZN8casacore6VectorINS_7QuantumIdEEEC2Em@Base 3.2.1~
 _ZN8casacore6VectorINS_7QuantumIdEEED0Ev@Base 3.2.1~
 _ZN8casacore6VectorINS_7QuantumIdEEED1Ev@Base 3.2.1~
 _ZN8casacore6VectorINS_7QuantumIdEEED2Ev@Base 3.2.1~
 _ZN8casacore6VectorINS_7QuantumIdEEEaSERKNS_5ArrayIS2_EE@Base 3.2.1~
 _ZN8casacore6VectorINS_7QuantumIdEEEaSERKS3_@Base 3.2.1~
 _ZN8casacore6VectorISt7complexIdEE10initVectorERKNS_5BlockIS2_EEx@Base 3.2.1~
 _ZN8casacore6VectorISt7complexIdEE14preTakeStorageERKNS_9IPositionE@Base 3.2.1~
 _ZN8casacore6VectorISt7complexIdEE15doNonDegenerateERKNS_5ArrayIS2_EERKNS_9IPositionE@Base 3.2.1~
 _ZN8casacore6VectorISt7complexIdEE6assignERKNS_5ArrayIS2_EE@Base 3.2.1~
 _ZN8casacore6VectorISt7complexIdEE6resizeERKNS_9IPositionEbNS_15ArrayInitPolicyE@Base 3.2.1~
 _ZN8casacore6VectorISt7complexIdEE6resizeEmb@Base 3.2.1~
 _ZN8casacore6VectorISt7complexIdEE6resizeEmbNS_15ArrayInitPolicyE@Base 3.2.1~
 _ZN8casacore6VectorISt7complexIdEE6resizeEv@Base 3.2.1~
 _ZN8casacore6VectorISt7complexIdEE9referenceERKNS_5ArrayIS2_EE@Base 3.2.1~
 _ZN8casacore6VectorISt7complexIdEEC1ERKNS_5ArrayIS2_EE@Base 3.2.1~
 _ZN8casacore6VectorISt7complexIdEEC1ERKNS_5BlockIS2_EE@Base 3.2.1~
 _ZN8casacore6VectorISt7complexIdEEC1ERKNS_5BlockIS2_EEx@Base 3.2.1~
 _ZN8casacore6VectorISt7complexIdEEC1ERKNS_9IPositionE@Base 3.2.1~
 _ZN8casacore6VectorISt7complexIdEEC1ERKNS_9IPositionENS_15ArrayInitPolicyE@Base 3.2.1~
 _ZN8casacore6VectorISt7complexIdEEC1ERKNS_9IPositionEPKS2_@Base 3.2.1~
 _ZN8casacore6VectorISt7complexIdEEC1ERKNS_9IPositionEPS2_NS_17StorageInitPolicyE@Base 3.2.1~
 _ZN8casacore6VectorISt7complexIdEEC1ERKNS_9IPositionEPS2_NS_17StorageInitPolicyERKNS_17AbstractAllocatorIS2_EE@Base 3.2.1~
 _ZN8casacore6VectorISt7complexIdEEC1ERKNS_9IPositionERKS2_@Base 3.2.1~
 _ZN8casacore6VectorISt7complexIdEEC1ERKS3_@Base 3.2.1~
 _ZN8casacore6VectorISt7complexIdEEC1Em@Base 3.2.1~
 _ZN8casacore6VectorISt7complexIdEEC1EmNS_15ArrayInitPolicyE@Base 3.2.1~
 _ZN8casacore6VectorISt7complexIdEEC1EmRKS2_@Base 3.2.1~
 _ZN8casacore6VectorISt7complexIdEEC1Ev@Base 3.2.1~
 _ZN8casacore6VectorISt7complexIdEEC2ERKNS_5ArrayIS2_EE@Base 3.2.1~
 _ZN8casacore6VectorISt7complexIdEEC2ERKNS_5BlockIS2_EE@Base 3.2.1~
 _ZN8casacore6VectorISt7complexIdEEC2ERKNS_5BlockIS2_EEx@Base 3.2.1~
 _ZN8casacore6VectorISt7complexIdEEC2ERKNS_9IPositionE@Base 3.2.1~
 _ZN8casacore6VectorISt7complexIdEEC2ERKNS_9IPositionENS_15ArrayInitPolicyE@Base 3.2.1~
 _ZN8casacore6VectorISt7complexIdEEC2ERKNS_9IPositionEPKS2_@Base 3.2.1~
 _ZN8casacore6VectorISt7complexIdEEC2ERKNS_9IPositionEPS2_NS_17StorageInitPolicyE@Base 3.2.1~
 _ZN8casacore6VectorISt7complexIdEEC2ERKNS_9IPositionEPS2_NS_17StorageInitPolicyERKNS_17AbstractAllocatorIS2_EE@Base 3.2.1~
 _ZN8casacore6VectorISt7complexIdEEC2ERKNS_9IPositionERKS2_@Base 3.2.1~
 _ZN8casacore6VectorISt7complexIdEEC2ERKS3_@Base 3.2.1~
 _ZN8casacore6VectorISt7complexIdEEC2Em@Base 3.2.1~
 _ZN8casacore6VectorISt7complexIdEEC2EmNS_15ArrayInitPolicyE@Base 3.2.1~
 _ZN8casacore6VectorISt7complexIdEEC2EmRKS2_@Base 3.2.1~
 _ZN8casacore6VectorISt7complexIdEEC2Ev@Base 3.2.1~
 _ZN8casacore6VectorISt7complexIdEED0Ev@Base 3.2.1~
 _ZN8casacore6VectorISt7complexIdEED1Ev@Base 3.2.1~
 _ZN8casacore6VectorISt7complexIdEED2Ev@Base 3.2.1~
 _ZN8casacore6VectorISt7complexIdEEaSERKNS_11MaskedArrayIS2_EE@Base 3.2.1~
 _ZN8casacore6VectorISt7complexIdEEaSERKNS_5ArrayIS2_EE@Base 3.2.1~
 _ZN8casacore6VectorISt7complexIdEEaSERKS2_@Base 3.2.1~
 _ZN8casacore6VectorISt7complexIdEEaSERKS3_@Base 3.2.1~
 _ZN8casacore6VectorISt7complexIdEEclERKNS_11MaskedArrayIbEE@Base 3.2.1~
 _ZN8casacore6VectorISt7complexIdEEclERKNS_5ArrayIbEE@Base 3.2.1~
 _ZN8casacore6VectorISt7complexIdEEclERKNS_5SliceE@Base 3.2.1~
 _ZN8casacore6VectorISt7complexIdEEclERKNS_6SlicerE@Base 3.2.1~
 _ZN8casacore6VectorISt7complexIdEEclERKNS_9IPositionE@Base 3.2.1~
 _ZN8casacore6VectorISt7complexIdEEclERKNS_9IPositionES6_@Base 3.2.1~
 _ZN8casacore6VectorISt7complexIdEEclERKNS_9IPositionES6_S6_@Base 3.2.1~
 _ZN8casacore6VectorISt7complexIdEEclEm@Base 3.2.1~
 _ZN8casacore6VectorISt7complexIdEEixEm@Base 3.2.1~
 _ZN8casacore6VectorISt7complexIfEE10initVectorERKNS_5BlockIS2_EEx@Base 3.2.1~
 _ZN8casacore6VectorISt7complexIfEE14preTakeStorageERKNS_9IPositionE@Base 3.2.1~
 _ZN8casacore6VectorISt7complexIfEE15doNonDegenerateERKNS_5ArrayIS2_EERKNS_9IPositionE@Base 3.2.1~
 _ZN8casacore6VectorISt7complexIfEE6assignERKNS_5ArrayIS2_EE@Base 3.2.1~
 _ZN8casacore6VectorISt7complexIfEE6resizeERKNS_9IPositionEbNS_15ArrayInitPolicyE@Base 3.2.1~
 _ZN8casacore6VectorISt7complexIfEE6resizeEmb@Base 3.2.1~
 _ZN8casacore6VectorISt7complexIfEE6resizeEmbNS_15ArrayInitPolicyE@Base 3.2.1~
 _ZN8casacore6VectorISt7complexIfEE6resizeEv@Base 3.2.1~
 _ZN8casacore6VectorISt7complexIfEE9referenceERKNS_5ArrayIS2_EE@Base 3.2.1~
 _ZN8casacore6VectorISt7complexIfEEC1ERKNS_5ArrayIS2_EE@Base 3.2.1~
 _ZN8casacore6VectorISt7complexIfEEC1ERKNS_5BlockIS2_EE@Base 3.2.1~
 _ZN8casacore6VectorISt7complexIfEEC1ERKNS_5BlockIS2_EEx@Base 3.2.1~
 _ZN8casacore6VectorISt7complexIfEEC1ERKNS_9IPositionE@Base 3.2.1~
 _ZN8casacore6VectorISt7complexIfEEC1ERKNS_9IPositionENS_15ArrayInitPolicyE@Base 3.2.1~
 _ZN8casacore6VectorISt7complexIfEEC1ERKNS_9IPositionEPKS2_@Base 3.2.1~
 _ZN8casacore6VectorISt7complexIfEEC1ERKNS_9IPositionEPS2_NS_17StorageInitPolicyE@Base 3.2.1~
 _ZN8casacore6VectorISt7complexIfEEC1ERKNS_9IPositionEPS2_NS_17StorageInitPolicyERKNS_17AbstractAllocatorIS2_EE@Base 3.2.1~
 _ZN8casacore6VectorISt7complexIfEEC1ERKNS_9IPositionERKS2_@Base 3.2.1~
 _ZN8casacore6VectorISt7complexIfEEC1ERKS3_@Base 3.2.1~
 _ZN8casacore6VectorISt7complexIfEEC1Em@Base 3.2.1~
 _ZN8casacore6VectorISt7complexIfEEC1EmNS_15ArrayInitPolicyE@Base 3.2.1~
 _ZN8casacore6VectorISt7complexIfEEC1EmRKS2_@Base 3.2.1~
 _ZN8casacore6VectorISt7complexIfEEC1Ev@Base 3.2.1~
 _ZN8casacore6VectorISt7complexIfEEC2ERKNS_5ArrayIS2_EE@Base 3.2.1~
 _ZN8casacore6VectorISt7complexIfEEC2ERKNS_5BlockIS2_EE@Base 3.2.1~
 _ZN8casacore6VectorISt7complexIfEEC2ERKNS_5BlockIS2_EEx@Base 3.2.1~
 _ZN8casacore6VectorISt7complexIfEEC2ERKNS_9IPositionE@Base 3.2.1~
 _ZN8casacore6VectorISt7complexIfEEC2ERKNS_9IPositionENS_15ArrayInitPolicyE@Base 3.2.1~
 _ZN8casacore6VectorISt7complexIfEEC2ERKNS_9IPositionEPKS2_@Base 3.2.1~
 _ZN8casacore6VectorISt7complexIfEEC2ERKNS_9IPositionEPS2_NS_17StorageInitPolicyE@Base 3.2.1~
 _ZN8casacore6VectorISt7complexIfEEC2ERKNS_9IPositionEPS2_NS_17StorageInitPolicyERKNS_17AbstractAllocatorIS2_EE@Base 3.2.1~
 _ZN8casacore6VectorISt7complexIfEEC2ERKNS_9IPositionERKS2_@Base 3.2.1~
 _ZN8casacore6VectorISt7complexIfEEC2ERKS3_@Base 3.2.1~
 _ZN8casacore6VectorISt7complexIfEEC2Em@Base 3.2.1~
 _ZN8casacore6VectorISt7complexIfEEC2EmNS_15ArrayInitPolicyE@Base 3.2.1~
 _ZN8casacore6VectorISt7complexIfEEC2EmRKS2_@Base 3.2.1~
 _ZN8casacore6VectorISt7complexIfEEC2Ev@Base 3.2.1~
 _ZN8casacore6VectorISt7complexIfEED0Ev@Base 3.2.1~
 _ZN8casacore6VectorISt7complexIfEED1Ev@Base 3.2.1~
 _ZN8casacore6VectorISt7complexIfEED2Ev@Base 3.2.1~
 _ZN8casacore6VectorISt7complexIfEEaSERKNS_11MaskedArrayIS2_EE@Base 3.2.1~
 _ZN8casacore6VectorISt7complexIfEEaSERKNS_5ArrayIS2_EE@Base 3.2.1~
 _ZN8casacore6VectorISt7complexIfEEaSERKS2_@Base 3.2.1~
 _ZN8casacore6VectorISt7complexIfEEaSERKS3_@Base 3.2.1~
 _ZN8casacore6VectorISt7complexIfEEclERKNS_11MaskedArrayIbEE@Base 3.2.1~
 _ZN8casacore6VectorISt7complexIfEEclERKNS_5ArrayIbEE@Base 3.2.1~
 _ZN8casacore6VectorISt7complexIfEEclERKNS_5SliceE@Base 3.2.1~
 _ZN8casacore6VectorISt7complexIfEEclERKNS_6SlicerE@Base 3.2.1~
 _ZN8casacore6VectorISt7complexIfEEclERKNS_9IPositionE@Base 3.2.1~
 _ZN8casacore6VectorISt7complexIfEEclERKNS_9IPositionES6_@Base 3.2.1~
 _ZN8casacore6VectorISt7complexIfEEclERKNS_9IPositionES6_S6_@Base 3.2.1~
 _ZN8casacore6VectorISt7complexIfEEclEm@Base 3.2.1~
 _ZN8casacore6VectorISt7complexIfEEixEm@Base 3.2.1~
 _ZN8casacore6VectorIbE10initVectorERKNS_5BlockIbEEx@Base 3.2.1~
 _ZN8casacore6VectorIbE14preTakeStorageERKNS_9IPositionE@Base 3.2.1~
 _ZN8casacore6VectorIbE15doNonDegenerateERKNS_5ArrayIbEERKNS_9IPositionE@Base 3.2.1~
 _ZN8casacore6VectorIbE6assignERKNS_5ArrayIbEE@Base 3.2.1~
 _ZN8casacore6VectorIbE6resizeERKNS_9IPositionEbNS_15ArrayInitPolicyE@Base 3.2.1~
 _ZN8casacore6VectorIbE6resizeEmb@Base 3.2.1~
 _ZN8casacore6VectorIbE6resizeEmbNS_15ArrayInitPolicyE@Base 3.2.1~
 _ZN8casacore6VectorIbE6resizeEv@Base 3.2.1~
 _ZN8casacore6VectorIbE9referenceERKNS_5ArrayIbEE@Base 3.2.1~
 _ZN8casacore6VectorIbEC1ERKNS_5ArrayIbEE@Base 3.2.1~
 _ZN8casacore6VectorIbEC1ERKNS_5BlockIbEE@Base 3.2.1~
 _ZN8casacore6VectorIbEC1ERKNS_5BlockIbEEx@Base 3.2.1~
 _ZN8casacore6VectorIbEC1ERKNS_9IPositionE@Base 3.2.1~
 _ZN8casacore6VectorIbEC1ERKNS_9IPositionENS_15ArrayInitPolicyE@Base 3.2.1~
 _ZN8casacore6VectorIbEC1ERKNS_9IPositionEPKb@Base 3.2.1~
 _ZN8casacore6VectorIbEC1ERKNS_9IPositionEPbNS_17StorageInitPolicyE@Base 3.2.1~
 _ZN8casacore6VectorIbEC1ERKNS_9IPositionEPbNS_17StorageInitPolicyERKNS_17AbstractAllocatorIbEE@Base 3.2.1~
 _ZN8casacore6VectorIbEC1ERKNS_9IPositionERKb@Base 3.2.1~
 _ZN8casacore6VectorIbEC1ERKS1_@Base 3.2.1~
 _ZN8casacore6VectorIbEC1Em@Base 3.2.1~
 _ZN8casacore6VectorIbEC1EmNS_15ArrayInitPolicyE@Base 3.2.1~
 _ZN8casacore6VectorIbEC1EmRKb@Base 3.2.1~
 _ZN8casacore6VectorIbEC1Ev@Base 3.2.1~
 _ZN8casacore6VectorIbEC2ERKNS_5ArrayIbEE@Base 3.2.1~
 _ZN8casacore6VectorIbEC2ERKNS_5BlockIbEE@Base 3.2.1~
 _ZN8casacore6VectorIbEC2ERKNS_5BlockIbEEx@Base 3.2.1~
 _ZN8casacore6VectorIbEC2ERKNS_9IPositionE@Base 3.2.1~
 _ZN8casacore6VectorIbEC2ERKNS_9IPositionENS_15ArrayInitPolicyE@Base 3.2.1~
 _ZN8casacore6VectorIbEC2ERKNS_9IPositionEPKb@Base 3.2.1~
 _ZN8casacore6VectorIbEC2ERKNS_9IPositionEPbNS_17StorageInitPolicyE@Base 3.2.1~
 _ZN8casacore6VectorIbEC2ERKNS_9IPositionEPbNS_17StorageInitPolicyERKNS_17AbstractAllocatorIbEE@Base 3.2.1~
 _ZN8casacore6VectorIbEC2ERKNS_9IPositionERKb@Base 3.2.1~
 _ZN8casacore6VectorIbEC2ERKS1_@Base 3.2.1~
 _ZN8casacore6VectorIbEC2Em@Base 3.2.1~
 _ZN8casacore6VectorIbEC2EmNS_15ArrayInitPolicyE@Base 3.2.1~
 _ZN8casacore6VectorIbEC2EmRKb@Base 3.2.1~
 _ZN8casacore6VectorIbEC2Ev@Base 3.2.1~
 _ZN8casacore6VectorIbED0Ev@Base 3.2.1~
 _ZN8casacore6VectorIbED1Ev@Base 3.2.1~
 _ZN8casacore6VectorIbED2Ev@Base 3.2.1~
 _ZN8casacore6VectorIbEaSERKNS_11MaskedArrayIbEE@Base 3.2.1~
 _ZN8casacore6VectorIbEaSERKNS_5ArrayIbEE@Base 3.2.1~
 _ZN8casacore6VectorIbEaSERKS1_@Base 3.2.1~
 _ZN8casacore6VectorIbEaSERKb@Base 3.2.1~
 _ZN8casacore6VectorIbEclERKNS_11MaskedArrayIbEE@Base 3.2.1~
 _ZN8casacore6VectorIbEclERKNS_5ArrayIbEE@Base 3.2.1~
 _ZN8casacore6VectorIbEclERKNS_5SliceE@Base 3.2.1~
 _ZN8casacore6VectorIbEclERKNS_6SlicerE@Base 3.2.1~
 _ZN8casacore6VectorIbEclERKNS_9IPositionE@Base 3.2.1~
 _ZN8casacore6VectorIbEclERKNS_9IPositionES4_@Base 3.2.1~
 _ZN8casacore6VectorIbEclERKNS_9IPositionES4_S4_@Base 3.2.1~
 _ZN8casacore6VectorIbEclEm@Base 3.2.1~
 _ZN8casacore6VectorIbEixEm@Base 3.2.1~
 _ZN8casacore6VectorIcE10initVectorERKNS_5BlockIcEEx@Base 3.2.1~
 _ZN8casacore6VectorIcE14preTakeStorageERKNS_9IPositionE@Base 3.2.1~
 _ZN8casacore6VectorIcE15doNonDegenerateERKNS_5ArrayIcEERKNS_9IPositionE@Base 3.2.1~
 _ZN8casacore6VectorIcE6assignERKNS_5ArrayIcEE@Base 3.2.1~
 _ZN8casacore6VectorIcE6resizeERKNS_9IPositionEbNS_15ArrayInitPolicyE@Base 3.2.1~
 _ZN8casacore6VectorIcE6resizeEmb@Base 3.2.1~
 _ZN8casacore6VectorIcE6resizeEmbNS_15ArrayInitPolicyE@Base 3.2.1~
 _ZN8casacore6VectorIcE6resizeEv@Base 3.2.1~
 _ZN8casacore6VectorIcE9referenceERKNS_5ArrayIcEE@Base 3.2.1~
 _ZN8casacore6VectorIcEC1ERKNS_5ArrayIcEE@Base 3.2.1~
 _ZN8casacore6VectorIcEC1ERKNS_5BlockIcEE@Base 3.2.1~
 _ZN8casacore6VectorIcEC1ERKNS_5BlockIcEEx@Base 3.2.1~
 _ZN8casacore6VectorIcEC1ERKNS_9IPositionE@Base 3.2.1~
 _ZN8casacore6VectorIcEC1ERKNS_9IPositionENS_15ArrayInitPolicyE@Base 3.2.1~
 _ZN8casacore6VectorIcEC1ERKNS_9IPositionEPKc@Base 3.2.1~
 _ZN8casacore6VectorIcEC1ERKNS_9IPositionEPcNS_17StorageInitPolicyE@Base 3.2.1~
 _ZN8casacore6VectorIcEC1ERKNS_9IPositionEPcNS_17StorageInitPolicyERKNS_17AbstractAllocatorIcEE@Base 3.2.1~
 _ZN8casacore6VectorIcEC1ERKNS_9IPositionERKc@Base 3.2.1~
 _ZN8casacore6VectorIcEC1ERKS1_@Base 3.2.1~
 _ZN8casacore6VectorIcEC1Em@Base 3.2.1~
 _ZN8casacore6VectorIcEC1EmNS_15ArrayInitPolicyE@Base 3.2.1~
 _ZN8casacore6VectorIcEC1EmRKc@Base 3.2.1~
 _ZN8casacore6VectorIcEC1Ev@Base 3.2.1~
 _ZN8casacore6VectorIcEC2ERKNS_5ArrayIcEE@Base 3.2.1~
 _ZN8casacore6VectorIcEC2ERKNS_5BlockIcEE@Base 3.2.1~
 _ZN8casacore6VectorIcEC2ERKNS_5BlockIcEEx@Base 3.2.1~
 _ZN8casacore6VectorIcEC2ERKNS_9IPositionE@Base 3.2.1~
 _ZN8casacore6VectorIcEC2ERKNS_9IPositionENS_15ArrayInitPolicyE@Base 3.2.1~
 _ZN8casacore6VectorIcEC2ERKNS_9IPositionEPKc@Base 3.2.1~
 _ZN8casacore6VectorIcEC2ERKNS_9IPositionEPcNS_17StorageInitPolicyE@Base 3.2.1~
 _ZN8casacore6VectorIcEC2ERKNS_9IPositionEPcNS_17StorageInitPolicyERKNS_17AbstractAllocatorIcEE@Base 3.2.1~
 _ZN8casacore6VectorIcEC2ERKNS_9IPositionERKc@Base 3.2.1~
 _ZN8casacore6VectorIcEC2ERKS1_@Base 3.2.1~
 _ZN8casacore6VectorIcEC2Em@Base 3.2.1~
 _ZN8casacore6VectorIcEC2EmNS_15ArrayInitPolicyE@Base 3.2.1~
 _ZN8casacore6VectorIcEC2EmRKc@Base 3.2.1~
 _ZN8casacore6VectorIcEC2Ev@Base 3.2.1~
 _ZN8casacore6VectorIcED0Ev@Base 3.2.1~
 _ZN8casacore6VectorIcED1Ev@Base 3.2.1~
 _ZN8casacore6VectorIcED2Ev@Base 3.2.1~
 _ZN8casacore6VectorIcEaSERKNS_11MaskedArrayIcEE@Base 3.2.1~
 _ZN8casacore6VectorIcEaSERKNS_5ArrayIcEE@Base 3.2.1~
 _ZN8casacore6VectorIcEaSERKS1_@Base 3.2.1~
 _ZN8casacore6VectorIcEaSERKc@Base 3.2.1~
 _ZN8casacore6VectorIcEclERKNS_11MaskedArrayIbEE@Base 3.2.1~
 _ZN8casacore6VectorIcEclERKNS_5ArrayIbEE@Base 3.2.1~
 _ZN8casacore6VectorIcEclERKNS_5SliceE@Base 3.2.1~
 _ZN8casacore6VectorIcEclERKNS_6SlicerE@Base 3.2.1~
 _ZN8casacore6VectorIcEclERKNS_9IPositionE@Base 3.2.1~
 _ZN8casacore6VectorIcEclERKNS_9IPositionES4_@Base 3.2.1~
 _ZN8casacore6VectorIcEclERKNS_9IPositionES4_S4_@Base 3.2.1~
 _ZN8casacore6VectorIcEclEm@Base 3.2.1~
 _ZN8casacore6VectorIcEixEm@Base 3.2.1~
 _ZN8casacore6VectorIdE10initVectorERKNS_5BlockIdEEx@Base 3.2.1~
 _ZN8casacore6VectorIdE14preTakeStorageERKNS_9IPositionE@Base 3.2.1~
 _ZN8casacore6VectorIdE15doNonDegenerateERKNS_5ArrayIdEERKNS_9IPositionE@Base 3.2.1~
 _ZN8casacore6VectorIdE6assignERKNS_5ArrayIdEE@Base 3.2.1~
 _ZN8casacore6VectorIdE6resizeERKNS_9IPositionEbNS_15ArrayInitPolicyE@Base 3.2.1~
 _ZN8casacore6VectorIdE6resizeEmb@Base 3.2.1~
 _ZN8casacore6VectorIdE6resizeEmbNS_15ArrayInitPolicyE@Base 3.2.1~
 _ZN8casacore6VectorIdE6resizeEv@Base 3.2.1~
 _ZN8casacore6VectorIdE9referenceERKNS_5ArrayIdEE@Base 3.2.1~
 _ZN8casacore6VectorIdEC1ERKNS_5ArrayIdEE@Base 3.2.1~
 _ZN8casacore6VectorIdEC1ERKNS_5BlockIdEE@Base 3.2.1~
 _ZN8casacore6VectorIdEC1ERKNS_5BlockIdEEx@Base 3.2.1~
 _ZN8casacore6VectorIdEC1ERKNS_9IPositionE@Base 3.2.1~
 _ZN8casacore6VectorIdEC1ERKNS_9IPositionENS_15ArrayInitPolicyE@Base 3.2.1~
 _ZN8casacore6VectorIdEC1ERKNS_9IPositionEPKd@Base 3.2.1~
 _ZN8casacore6VectorIdEC1ERKNS_9IPositionEPdNS_17StorageInitPolicyE@Base 3.2.1~
 _ZN8casacore6VectorIdEC1ERKNS_9IPositionEPdNS_17StorageInitPolicyERKNS_17AbstractAllocatorIdEE@Base 3.2.1~
 _ZN8casacore6VectorIdEC1ERKNS_9IPositionERKd@Base 3.2.1~
 _ZN8casacore6VectorIdEC1ERKS1_@Base 3.2.1~
 _ZN8casacore6VectorIdEC1Em@Base 3.2.1~
 _ZN8casacore6VectorIdEC1EmNS_15ArrayInitPolicyE@Base 3.2.1~
 _ZN8casacore6VectorIdEC1EmRKd@Base 3.2.1~
 _ZN8casacore6VectorIdEC1Ev@Base 3.2.1~
 _ZN8casacore6VectorIdEC2ERKNS_5ArrayIdEE@Base 3.2.1~
 _ZN8casacore6VectorIdEC2ERKNS_5BlockIdEE@Base 3.2.1~
 _ZN8casacore6VectorIdEC2ERKNS_5BlockIdEEx@Base 3.2.1~
 _ZN8casacore6VectorIdEC2ERKNS_9IPositionE@Base 3.2.1~
 _ZN8casacore6VectorIdEC2ERKNS_9IPositionENS_15ArrayInitPolicyE@Base 3.2.1~
 _ZN8casacore6VectorIdEC2ERKNS_9IPositionEPKd@Base 3.2.1~
 _ZN8casacore6VectorIdEC2ERKNS_9IPositionEPdNS_17StorageInitPolicyE@Base 3.2.1~
 _ZN8casacore6VectorIdEC2ERKNS_9IPositionEPdNS_17StorageInitPolicyERKNS_17AbstractAllocatorIdEE@Base 3.2.1~
 _ZN8casacore6VectorIdEC2ERKNS_9IPositionERKd@Base 3.2.1~
 _ZN8casacore6VectorIdEC2ERKS1_@Base 3.2.1~
 _ZN8casacore6VectorIdEC2Em@Base 3.2.1~
 _ZN8casacore6VectorIdEC2EmNS_15ArrayInitPolicyE@Base 3.2.1~
 _ZN8casacore6VectorIdEC2EmRKd@Base 3.2.1~
 _ZN8casacore6VectorIdEC2Ev@Base 3.2.1~
 _ZN8casacore6VectorIdED0Ev@Base 3.2.1~
 _ZN8casacore6VectorIdED1Ev@Base 3.2.1~
 _ZN8casacore6VectorIdED2Ev@Base 3.2.1~
 _ZN8casacore6VectorIdEaSERKNS_11MaskedArrayIdEE@Base 3.2.1~
 _ZN8casacore6VectorIdEaSERKNS_5ArrayIdEE@Base 3.2.1~
 _ZN8casacore6VectorIdEaSERKS1_@Base 3.2.1~
 _ZN8casacore6VectorIdEaSERKd@Base 3.2.1~
 _ZN8casacore6VectorIdEclERKNS_11MaskedArrayIbEE@Base 3.2.1~
 _ZN8casacore6VectorIdEclERKNS_5ArrayIbEE@Base 3.2.1~
 _ZN8casacore6VectorIdEclERKNS_5SliceE@Base 3.2.1~
 _ZN8casacore6VectorIdEclERKNS_6SlicerE@Base 3.2.1~
 _ZN8casacore6VectorIdEclERKNS_9IPositionE@Base 3.2.1~
 _ZN8casacore6VectorIdEclERKNS_9IPositionES4_@Base 3.2.1~
 _ZN8casacore6VectorIdEclERKNS_9IPositionES4_S4_@Base 3.2.1~
 _ZN8casacore6VectorIdEclEm@Base 3.2.1~
 _ZN8casacore6VectorIdEixEm@Base 3.2.1~
 _ZN8casacore6VectorIfE10initVectorERKNS_5BlockIfEEx@Base 3.2.1~
 _ZN8casacore6VectorIfE14preTakeStorageERKNS_9IPositionE@Base 3.2.1~
 _ZN8casacore6VectorIfE15doNonDegenerateERKNS_5ArrayIfEERKNS_9IPositionE@Base 3.2.1~
 _ZN8casacore6VectorIfE6assignERKNS_5ArrayIfEE@Base 3.2.1~
 _ZN8casacore6VectorIfE6resizeERKNS_9IPositionEbNS_15ArrayInitPolicyE@Base 3.2.1~
 _ZN8casacore6VectorIfE6resizeEmb@Base 3.2.1~
 _ZN8casacore6VectorIfE6resizeEmbNS_15ArrayInitPolicyE@Base 3.2.1~
 _ZN8casacore6VectorIfE6resizeEv@Base 3.2.1~
 _ZN8casacore6VectorIfE9referenceERKNS_5ArrayIfEE@Base 3.2.1~
 _ZN8casacore6VectorIfEC1ERKNS_5ArrayIfEE@Base 3.2.1~
 _ZN8casacore6VectorIfEC1ERKNS_5BlockIfEE@Base 3.2.1~
 _ZN8casacore6VectorIfEC1ERKNS_5BlockIfEEx@Base 3.2.1~
 _ZN8casacore6VectorIfEC1ERKNS_9IPositionE@Base 3.2.1~
 _ZN8casacore6VectorIfEC1ERKNS_9IPositionENS_15ArrayInitPolicyE@Base 3.2.1~
 _ZN8casacore6VectorIfEC1ERKNS_9IPositionEPKf@Base 3.2.1~
 _ZN8casacore6VectorIfEC1ERKNS_9IPositionEPfNS_17StorageInitPolicyE@Base 3.2.1~
 _ZN8casacore6VectorIfEC1ERKNS_9IPositionEPfNS_17StorageInitPolicyERKNS_17AbstractAllocatorIfEE@Base 3.2.1~
 _ZN8casacore6VectorIfEC1ERKNS_9IPositionERKf@Base 3.2.1~
 _ZN8casacore6VectorIfEC1ERKS1_@Base 3.2.1~
 _ZN8casacore6VectorIfEC1Em@Base 3.2.1~
 _ZN8casacore6VectorIfEC1EmNS_15ArrayInitPolicyE@Base 3.2.1~
 _ZN8casacore6VectorIfEC1EmRKf@Base 3.2.1~
 _ZN8casacore6VectorIfEC1Ev@Base 3.2.1~
 _ZN8casacore6VectorIfEC2ERKNS_5ArrayIfEE@Base 3.2.1~
 _ZN8casacore6VectorIfEC2ERKNS_5BlockIfEE@Base 3.2.1~
 _ZN8casacore6VectorIfEC2ERKNS_5BlockIfEEx@Base 3.2.1~
 _ZN8casacore6VectorIfEC2ERKNS_9IPositionE@Base 3.2.1~
 _ZN8casacore6VectorIfEC2ERKNS_9IPositionENS_15ArrayInitPolicyE@Base 3.2.1~
 _ZN8casacore6VectorIfEC2ERKNS_9IPositionEPKf@Base 3.2.1~
 _ZN8casacore6VectorIfEC2ERKNS_9IPositionEPfNS_17StorageInitPolicyE@Base 3.2.1~
 _ZN8casacore6VectorIfEC2ERKNS_9IPositionEPfNS_17StorageInitPolicyERKNS_17AbstractAllocatorIfEE@Base 3.2.1~
 _ZN8casacore6VectorIfEC2ERKNS_9IPositionERKf@Base 3.2.1~
 _ZN8casacore6VectorIfEC2ERKS1_@Base 3.2.1~
 _ZN8casacore6VectorIfEC2Em@Base 3.2.1~
 _ZN8casacore6VectorIfEC2EmNS_15ArrayInitPolicyE@Base 3.2.1~
 _ZN8casacore6VectorIfEC2EmRKf@Base 3.2.1~
 _ZN8casacore6VectorIfEC2Ev@Base 3.2.1~
 _ZN8casacore6VectorIfED0Ev@Base 3.2.1~
 _ZN8casacore6VectorIfED1Ev@Base 3.2.1~
 _ZN8casacore6VectorIfED2Ev@Base 3.2.1~
 _ZN8casacore6VectorIfEaSERKNS_11MaskedArrayIfEE@Base 3.2.1~
 _ZN8casacore6VectorIfEaSERKNS_5ArrayIfEE@Base 3.2.1~
 _ZN8casacore6VectorIfEaSERKS1_@Base 3.2.1~
 _ZN8casacore6VectorIfEaSERKf@Base 3.2.1~
 _ZN8casacore6VectorIfEclERKNS_11MaskedArrayIbEE@Base 3.2.1~
 _ZN8casacore6VectorIfEclERKNS_5ArrayIbEE@Base 3.2.1~
 _ZN8casacore6VectorIfEclERKNS_5SliceE@Base 3.2.1~
 _ZN8casacore6VectorIfEclERKNS_6SlicerE@Base 3.2.1~
 _ZN8casacore6VectorIfEclERKNS_9IPositionE@Base 3.2.1~
 _ZN8casacore6VectorIfEclERKNS_9IPositionES4_@Base 3.2.1~
 _ZN8casacore6VectorIfEclERKNS_9IPositionES4_S4_@Base 3.2.1~
 _ZN8casacore6VectorIfEclEm@Base 3.2.1~
 _ZN8casacore6VectorIfEixEm@Base 3.2.1~
 _ZN8casacore6VectorIhE14preTakeStorageERKNS_9IPositionE@Base 3.2.1~
 _ZN8casacore6VectorIhE15doNonDegenerateERKNS_5ArrayIhEERKNS_9IPositionE@Base 3.2.1~
 _ZN8casacore6VectorIhE6assignERKNS_5ArrayIhEE@Base 3.2.1~
 _ZN8casacore6VectorIhE6resizeERKNS_9IPositionEbNS_15ArrayInitPolicyE@Base 3.2.1~
 _ZN8casacore6VectorIhE6resizeEv@Base 3.2.1~
 _ZN8casacore6VectorIhE9referenceERKNS_5ArrayIhEE@Base 3.2.1~
 _ZN8casacore6VectorIhEC1ERKNS_5ArrayIhEE@Base 3.2.1~
 _ZN8casacore6VectorIhEC2ERKNS_5ArrayIhEE@Base 3.2.1~
 _ZN8casacore6VectorIhED0Ev@Base 3.2.1~
 _ZN8casacore6VectorIhED1Ev@Base 3.2.1~
 _ZN8casacore6VectorIhED2Ev@Base 3.2.1~
 _ZN8casacore6VectorIhEaSERKNS_5ArrayIhEE@Base 3.2.1~
 _ZN8casacore6VectorIhEaSERKS1_@Base 3.2.1~
 _ZN8casacore6VectorIhEclERKNS_5SliceE@Base 3.2.1~
 _ZN8casacore6VectorIiE10initVectorERKNS_5BlockIiEEx@Base 3.2.1~
 _ZN8casacore6VectorIiE14preTakeStorageERKNS_9IPositionE@Base 3.2.1~
 _ZN8casacore6VectorIiE15doNonDegenerateERKNS_5ArrayIiEERKNS_9IPositionE@Base 3.2.1~
 _ZN8casacore6VectorIiE6assignERKNS_5ArrayIiEE@Base 3.2.1~
 _ZN8casacore6VectorIiE6resizeERKNS_9IPositionEbNS_15ArrayInitPolicyE@Base 3.2.1~
 _ZN8casacore6VectorIiE6resizeEmb@Base 3.2.1~
 _ZN8casacore6VectorIiE6resizeEmbNS_15ArrayInitPolicyE@Base 3.2.1~
 _ZN8casacore6VectorIiE6resizeEv@Base 3.2.1~
 _ZN8casacore6VectorIiE9referenceERKNS_5ArrayIiEE@Base 3.2.1~
 _ZN8casacore6VectorIiEC1ERKNS_5ArrayIiEE@Base 3.2.1~
 _ZN8casacore6VectorIiEC1ERKNS_5BlockIiEE@Base 3.2.1~
 _ZN8casacore6VectorIiEC1ERKNS_5BlockIiEEx@Base 3.2.1~
 _ZN8casacore6VectorIiEC1ERKNS_9IPositionE@Base 3.2.1~
 _ZN8casacore6VectorIiEC1ERKNS_9IPositionENS_15ArrayInitPolicyE@Base 3.2.1~
 _ZN8casacore6VectorIiEC1ERKNS_9IPositionEPKi@Base 3.2.1~
 _ZN8casacore6VectorIiEC1ERKNS_9IPositionEPiNS_17StorageInitPolicyE@Base 3.2.1~
 _ZN8casacore6VectorIiEC1ERKNS_9IPositionEPiNS_17StorageInitPolicyERKNS_17AbstractAllocatorIiEE@Base 3.2.1~
 _ZN8casacore6VectorIiEC1ERKNS_9IPositionERKi@Base 3.2.1~
 _ZN8casacore6VectorIiEC1ERKS1_@Base 3.2.1~
 _ZN8casacore6VectorIiEC1Em@Base 3.2.1~
 _ZN8casacore6VectorIiEC1EmNS_15ArrayInitPolicyE@Base 3.2.1~
 _ZN8casacore6VectorIiEC1EmRKi@Base 3.2.1~
 _ZN8casacore6VectorIiEC1Ev@Base 3.2.1~
 _ZN8casacore6VectorIiEC2ERKNS_5ArrayIiEE@Base 3.2.1~
 _ZN8casacore6VectorIiEC2ERKNS_5BlockIiEE@Base 3.2.1~
 _ZN8casacore6VectorIiEC2ERKNS_5BlockIiEEx@Base 3.2.1~
 _ZN8casacore6VectorIiEC2ERKNS_9IPositionE@Base 3.2.1~
 _ZN8casacore6VectorIiEC2ERKNS_9IPositionENS_15ArrayInitPolicyE@Base 3.2.1~
 _ZN8casacore6VectorIiEC2ERKNS_9IPositionEPKi@Base 3.2.1~
 _ZN8casacore6VectorIiEC2ERKNS_9IPositionEPiNS_17StorageInitPolicyE@Base 3.2.1~
 _ZN8casacore6VectorIiEC2ERKNS_9IPositionEPiNS_17StorageInitPolicyERKNS_17AbstractAllocatorIiEE@Base 3.2.1~
 _ZN8casacore6VectorIiEC2ERKNS_9IPositionERKi@Base 3.2.1~
 _ZN8casacore6VectorIiEC2ERKS1_@Base 3.2.1~
 _ZN8casacore6VectorIiEC2Em@Base 3.2.1~
 _ZN8casacore6VectorIiEC2EmNS_15ArrayInitPolicyE@Base 3.2.1~
 _ZN8casacore6VectorIiEC2EmRKi@Base 3.2.1~
 _ZN8casacore6VectorIiEC2Ev@Base 3.2.1~
 _ZN8casacore6VectorIiED0Ev@Base 3.2.1~
 _ZN8casacore6VectorIiED1Ev@Base 3.2.1~
 _ZN8casacore6VectorIiED2Ev@Base 3.2.1~
 _ZN8casacore6VectorIiEaSERKNS_11MaskedArrayIiEE@Base 3.2.1~
 _ZN8casacore6VectorIiEaSERKNS_5ArrayIiEE@Base 3.2.1~
 _ZN8casacore6VectorIiEaSERKS1_@Base 3.2.1~
 _ZN8casacore6VectorIiEaSERKi@Base 3.2.1~
 _ZN8casacore6VectorIiEclERKNS_11MaskedArrayIbEE@Base 3.2.1~
 _ZN8casacore6VectorIiEclERKNS_5ArrayIbEE@Base 3.2.1~
 _ZN8casacore6VectorIiEclERKNS_5SliceE@Base 3.2.1~
 _ZN8casacore6VectorIiEclERKNS_6SlicerE@Base 3.2.1~
 _ZN8casacore6VectorIiEclERKNS_9IPositionE@Base 3.2.1~
 _ZN8casacore6VectorIiEclERKNS_9IPositionES4_@Base 3.2.1~
 _ZN8casacore6VectorIiEclERKNS_9IPositionES4_S4_@Base 3.2.1~
 _ZN8casacore6VectorIiEclEm@Base 3.2.1~
 _ZN8casacore6VectorIiEixEm@Base 3.2.1~
 _ZN8casacore6VectorIjE10initVectorERKNS_5BlockIjEEx@Base 3.2.1~
 _ZN8casacore6VectorIjE14preTakeStorageERKNS_9IPositionE@Base 3.2.1~
 _ZN8casacore6VectorIjE15doNonDegenerateERKNS_5ArrayIjEERKNS_9IPositionE@Base 3.2.1~
 _ZN8casacore6VectorIjE6assignERKNS_5ArrayIjEE@Base 3.2.1~
 _ZN8casacore6VectorIjE6resizeERKNS_9IPositionEbNS_15ArrayInitPolicyE@Base 3.2.1~
 _ZN8casacore6VectorIjE6resizeEmb@Base 3.2.1~
 _ZN8casacore6VectorIjE6resizeEmbNS_15ArrayInitPolicyE@Base 3.2.1~
 _ZN8casacore6VectorIjE6resizeEv@Base 3.2.1~
 _ZN8casacore6VectorIjE9referenceERKNS_5ArrayIjEE@Base 3.2.1~
 _ZN8casacore6VectorIjEC1ERKNS_5ArrayIjEE@Base 3.2.1~
 _ZN8casacore6VectorIjEC1ERKNS_5BlockIjEE@Base 3.2.1~
 _ZN8casacore6VectorIjEC1ERKNS_5BlockIjEEx@Base 3.2.1~
 _ZN8casacore6VectorIjEC1ERKNS_9IPositionE@Base 3.2.1~
 _ZN8casacore6VectorIjEC1ERKNS_9IPositionENS_15ArrayInitPolicyE@Base 3.2.1~
 _ZN8casacore6VectorIjEC1ERKNS_9IPositionEPKj@Base 3.2.1~
 _ZN8casacore6VectorIjEC1ERKNS_9IPositionEPjNS_17StorageInitPolicyE@Base 3.2.1~
 _ZN8casacore6VectorIjEC1ERKNS_9IPositionEPjNS_17StorageInitPolicyERKNS_17AbstractAllocatorIjEE@Base 3.2.1~
 _ZN8casacore6VectorIjEC1ERKNS_9IPositionERKj@Base 3.2.1~
 _ZN8casacore6VectorIjEC1ERKS1_@Base 3.2.1~
 _ZN8casacore6VectorIjEC1Em@Base 3.2.1~
 _ZN8casacore6VectorIjEC1EmNS_15ArrayInitPolicyE@Base 3.2.1~
 _ZN8casacore6VectorIjEC1EmRKj@Base 3.2.1~
 _ZN8casacore6VectorIjEC1Ev@Base 3.2.1~
 _ZN8casacore6VectorIjEC2ERKNS_5ArrayIjEE@Base 3.2.1~
 _ZN8casacore6VectorIjEC2ERKNS_5BlockIjEE@Base 3.2.1~
 _ZN8casacore6VectorIjEC2ERKNS_5BlockIjEEx@Base 3.2.1~
 _ZN8casacore6VectorIjEC2ERKNS_9IPositionE@Base 3.2.1~
 _ZN8casacore6VectorIjEC2ERKNS_9IPositionENS_15ArrayInitPolicyE@Base 3.2.1~
 _ZN8casacore6VectorIjEC2ERKNS_9IPositionEPKj@Base 3.2.1~
 _ZN8casacore6VectorIjEC2ERKNS_9IPositionEPjNS_17StorageInitPolicyE@Base 3.2.1~
 _ZN8casacore6VectorIjEC2ERKNS_9IPositionEPjNS_17StorageInitPolicyERKNS_17AbstractAllocatorIjEE@Base 3.2.1~
 _ZN8casacore6VectorIjEC2ERKNS_9IPositionERKj@Base 3.2.1~
 _ZN8casacore6VectorIjEC2ERKS1_@Base 3.2.1~
 _ZN8casacore6VectorIjEC2Em@Base 3.2.1~
 _ZN8casacore6VectorIjEC2EmNS_15ArrayInitPolicyE@Base 3.2.1~
 _ZN8casacore6VectorIjEC2EmRKj@Base 3.2.1~
 _ZN8casacore6VectorIjEC2Ev@Base 3.2.1~
 _ZN8casacore6VectorIjED0Ev@Base 3.2.1~
 _ZN8casacore6VectorIjED1Ev@Base 3.2.1~
 _ZN8casacore6VectorIjED2Ev@Base 3.2.1~
 _ZN8casacore6VectorIjEaSERKNS_11MaskedArrayIjEE@Base 3.2.1~
 _ZN8casacore6VectorIjEaSERKNS_5ArrayIjEE@Base 3.2.1~
 _ZN8casacore6VectorIjEaSERKS1_@Base 3.2.1~
 _ZN8casacore6VectorIjEaSERKj@Base 3.2.1~
 _ZN8casacore6VectorIjEclERKNS_11MaskedArrayIbEE@Base 3.2.1~
 _ZN8casacore6VectorIjEclERKNS_5ArrayIbEE@Base 3.2.1~
 _ZN8casacore6VectorIjEclERKNS_5SliceE@Base 3.2.1~
 _ZN8casacore6VectorIjEclERKNS_6SlicerE@Base 3.2.1~
 _ZN8casacore6VectorIjEclERKNS_9IPositionE@Base 3.2.1~
 _ZN8casacore6VectorIjEclERKNS_9IPositionES4_@Base 3.2.1~
 _ZN8casacore6VectorIjEclERKNS_9IPositionES4_S4_@Base 3.2.1~
 _ZN8casacore6VectorIjEclEm@Base 3.2.1~
 _ZN8casacore6VectorIjEixEm@Base 3.2.1~
 _ZN8casacore6VectorIsE10initVectorERKNS_5BlockIsEEx@Base 3.2.1~
 _ZN8casacore6VectorIsE14preTakeStorageERKNS_9IPositionE@Base 3.2.1~
 _ZN8casacore6VectorIsE15doNonDegenerateERKNS_5ArrayIsEERKNS_9IPositionE@Base 3.2.1~
 _ZN8casacore6VectorIsE6assignERKNS_5ArrayIsEE@Base 3.2.1~
 _ZN8casacore6VectorIsE6resizeERKNS_9IPositionEbNS_15ArrayInitPolicyE@Base 3.2.1~
 _ZN8casacore6VectorIsE6resizeEmb@Base 3.2.1~
 _ZN8casacore6VectorIsE6resizeEmbNS_15ArrayInitPolicyE@Base 3.2.1~
 _ZN8casacore6VectorIsE6resizeEv@Base 3.2.1~
 _ZN8casacore6VectorIsE9referenceERKNS_5ArrayIsEE@Base 3.2.1~
 _ZN8casacore6VectorIsEC1ERKNS_5ArrayIsEE@Base 3.2.1~
 _ZN8casacore6VectorIsEC1ERKNS_5BlockIsEE@Base 3.2.1~
 _ZN8casacore6VectorIsEC1ERKNS_5BlockIsEEx@Base 3.2.1~
 _ZN8casacore6VectorIsEC1ERKNS_9IPositionE@Base 3.2.1~
 _ZN8casacore6VectorIsEC1ERKNS_9IPositionENS_15ArrayInitPolicyE@Base 3.2.1~
 _ZN8casacore6VectorIsEC1ERKNS_9IPositionEPKs@Base 3.2.1~
 _ZN8casacore6VectorIsEC1ERKNS_9IPositionEPsNS_17StorageInitPolicyE@Base 3.2.1~
 _ZN8casacore6VectorIsEC1ERKNS_9IPositionEPsNS_17StorageInitPolicyERKNS_17AbstractAllocatorIsEE@Base 3.2.1~
 _ZN8casacore6VectorIsEC1ERKNS_9IPositionERKs@Base 3.2.1~
 _ZN8casacore6VectorIsEC1ERKS1_@Base 3.2.1~
 _ZN8casacore6VectorIsEC1Em@Base 3.2.1~
 _ZN8casacore6VectorIsEC1EmNS_15ArrayInitPolicyE@Base 3.2.1~
 _ZN8casacore6VectorIsEC1EmRKs@Base 3.2.1~
 _ZN8casacore6VectorIsEC1Ev@Base 3.2.1~
 _ZN8casacore6VectorIsEC2ERKNS_5ArrayIsEE@Base 3.2.1~
 _ZN8casacore6VectorIsEC2ERKNS_5BlockIsEE@Base 3.2.1~
 _ZN8casacore6VectorIsEC2ERKNS_5BlockIsEEx@Base 3.2.1~
 _ZN8casacore6VectorIsEC2ERKNS_9IPositionE@Base 3.2.1~
 _ZN8casacore6VectorIsEC2ERKNS_9IPositionENS_15ArrayInitPolicyE@Base 3.2.1~
 _ZN8casacore6VectorIsEC2ERKNS_9IPositionEPKs@Base 3.2.1~
 _ZN8casacore6VectorIsEC2ERKNS_9IPositionEPsNS_17StorageInitPolicyE@Base 3.2.1~
 _ZN8casacore6VectorIsEC2ERKNS_9IPositionEPsNS_17StorageInitPolicyERKNS_17AbstractAllocatorIsEE@Base 3.2.1~
 _ZN8casacore6VectorIsEC2ERKNS_9IPositionERKs@Base 3.2.1~
 _ZN8casacore6VectorIsEC2ERKS1_@Base 3.2.1~
 _ZN8casacore6VectorIsEC2Em@Base 3.2.1~
 _ZN8casacore6VectorIsEC2EmNS_15ArrayInitPolicyE@Base 3.2.1~
 _ZN8casacore6VectorIsEC2EmRKs@Base 3.2.1~
 _ZN8casacore6VectorIsEC2Ev@Base 3.2.1~
 _ZN8casacore6VectorIsED0Ev@Base 3.2.1~
 _ZN8casacore6VectorIsED1Ev@Base 3.2.1~
 _ZN8casacore6VectorIsED2Ev@Base 3.2.1~
 _ZN8casacore6VectorIsEaSERKNS_11MaskedArrayIsEE@Base 3.2.1~
 _ZN8casacore6VectorIsEaSERKNS_5ArrayIsEE@Base 3.2.1~
 _ZN8casacore6VectorIsEaSERKS1_@Base 3.2.1~
 _ZN8casacore6VectorIsEaSERKs@Base 3.2.1~
 _ZN8casacore6VectorIsEclERKNS_11MaskedArrayIbEE@Base 3.2.1~
 _ZN8casacore6VectorIsEclERKNS_5ArrayIbEE@Base 3.2.1~
 _ZN8casacore6VectorIsEclERKNS_5SliceE@Base 3.2.1~
 _ZN8casacore6VectorIsEclERKNS_6SlicerE@Base 3.2.1~
 _ZN8casacore6VectorIsEclERKNS_9IPositionE@Base 3.2.1~
 _ZN8casacore6VectorIsEclERKNS_9IPositionES4_@Base 3.2.1~
 _ZN8casacore6VectorIsEclERKNS_9IPositionES4_S4_@Base 3.2.1~
 _ZN8casacore6VectorIsEclEm@Base 3.2.1~
 _ZN8casacore6VectorIsEixEm@Base 3.2.1~
 _ZN8casacore6VectorItE10initVectorERKNS_5BlockItEEx@Base 3.2.1~
 _ZN8casacore6VectorItE14preTakeStorageERKNS_9IPositionE@Base 3.2.1~
 _ZN8casacore6VectorItE15doNonDegenerateERKNS_5ArrayItEERKNS_9IPositionE@Base 3.2.1~
 _ZN8casacore6VectorItE6assignERKNS_5ArrayItEE@Base 3.2.1~
 _ZN8casacore6VectorItE6resizeERKNS_9IPositionEbNS_15ArrayInitPolicyE@Base 3.2.1~
 _ZN8casacore6VectorItE6resizeEmb@Base 3.2.1~
 _ZN8casacore6VectorItE6resizeEmbNS_15ArrayInitPolicyE@Base 3.2.1~
 _ZN8casacore6VectorItE6resizeEv@Base 3.2.1~
 _ZN8casacore6VectorItE9referenceERKNS_5ArrayItEE@Base 3.2.1~
 _ZN8casacore6VectorItEC1ERKNS_5ArrayItEE@Base 3.2.1~
 _ZN8casacore6VectorItEC1ERKNS_5BlockItEE@Base 3.2.1~
 _ZN8casacore6VectorItEC1ERKNS_5BlockItEEx@Base 3.2.1~
 _ZN8casacore6VectorItEC1ERKNS_9IPositionE@Base 3.2.1~
 _ZN8casacore6VectorItEC1ERKNS_9IPositionENS_15ArrayInitPolicyE@Base 3.2.1~
 _ZN8casacore6VectorItEC1ERKNS_9IPositionEPKt@Base 3.2.1~
 _ZN8casacore6VectorItEC1ERKNS_9IPositionEPtNS_17StorageInitPolicyE@Base 3.2.1~
 _ZN8casacore6VectorItEC1ERKNS_9IPositionEPtNS_17StorageInitPolicyERKNS_17AbstractAllocatorItEE@Base 3.2.1~
 _ZN8casacore6VectorItEC1ERKNS_9IPositionERKt@Base 3.2.1~
 _ZN8casacore6VectorItEC1ERKS1_@Base 3.2.1~
 _ZN8casacore6VectorItEC1Em@Base 3.2.1~
 _ZN8casacore6VectorItEC1EmNS_15ArrayInitPolicyE@Base 3.2.1~
 _ZN8casacore6VectorItEC1EmRKt@Base 3.2.1~
 _ZN8casacore6VectorItEC1Ev@Base 3.2.1~
 _ZN8casacore6VectorItEC2ERKNS_5ArrayItEE@Base 3.2.1~
 _ZN8casacore6VectorItEC2ERKNS_5BlockItEE@Base 3.2.1~
 _ZN8casacore6VectorItEC2ERKNS_5BlockItEEx@Base 3.2.1~
 _ZN8casacore6VectorItEC2ERKNS_9IPositionE@Base 3.2.1~
 _ZN8casacore6VectorItEC2ERKNS_9IPositionENS_15ArrayInitPolicyE@Base 3.2.1~
 _ZN8casacore6VectorItEC2ERKNS_9IPositionEPKt@Base 3.2.1~
 _ZN8casacore6VectorItEC2ERKNS_9IPositionEPtNS_17StorageInitPolicyE@Base 3.2.1~
 _ZN8casacore6VectorItEC2ERKNS_9IPositionEPtNS_17StorageInitPolicyERKNS_17AbstractAllocatorItEE@Base 3.2.1~
 _ZN8casacore6VectorItEC2ERKNS_9IPositionERKt@Base 3.2.1~
 _ZN8casacore6VectorItEC2ERKS1_@Base 3.2.1~
 _ZN8casacore6VectorItEC2Em@Base 3.2.1~
 _ZN8casacore6VectorItEC2EmNS_15ArrayInitPolicyE@Base 3.2.1~
 _ZN8casacore6VectorItEC2EmRKt@Base 3.2.1~
 _ZN8casacore6VectorItEC2Ev@Base 3.2.1~
 _ZN8casacore6VectorItED0Ev@Base 3.2.1~
 _ZN8casacore6VectorItED1Ev@Base 3.2.1~
 _ZN8casacore6VectorItED2Ev@Base 3.2.1~
 _ZN8casacore6VectorItEaSERKNS_11MaskedArrayItEE@Base 3.2.1~
 _ZN8casacore6VectorItEaSERKNS_5ArrayItEE@Base 3.2.1~
 _ZN8casacore6VectorItEaSERKS1_@Base 3.2.1~
 _ZN8casacore6VectorItEaSERKt@Base 3.2.1~
 _ZN8casacore6VectorItEclERKNS_11MaskedArrayIbEE@Base 3.2.1~
 _ZN8casacore6VectorItEclERKNS_5ArrayIbEE@Base 3.2.1~
 _ZN8casacore6VectorItEclERKNS_5SliceE@Base 3.2.1~
 _ZN8casacore6VectorItEclERKNS_6SlicerE@Base 3.2.1~
 _ZN8casacore6VectorItEclERKNS_9IPositionE@Base 3.2.1~
 _ZN8casacore6VectorItEclERKNS_9IPositionES4_@Base 3.2.1~
 _ZN8casacore6VectorItEclERKNS_9IPositionES4_S4_@Base 3.2.1~
 _ZN8casacore6VectorItEclEm@Base 3.2.1~
 _ZN8casacore6VectorItEixEm@Base 3.2.1~
 _ZN8casacore6VectorIxE10initVectorERKNS_5BlockIxEEx@Base 3.2.1~
 _ZN8casacore6VectorIxE14preTakeStorageERKNS_9IPositionE@Base 3.2.1~
 _ZN8casacore6VectorIxE15doNonDegenerateERKNS_5ArrayIxEERKNS_9IPositionE@Base 3.2.1~
 _ZN8casacore6VectorIxE6assignERKNS_5ArrayIxEE@Base 3.2.1~
 _ZN8casacore6VectorIxE6resizeERKNS_9IPositionEbNS_15ArrayInitPolicyE@Base 3.2.1~
 _ZN8casacore6VectorIxE6resizeEmb@Base 3.2.1~
 _ZN8casacore6VectorIxE6resizeEmbNS_15ArrayInitPolicyE@Base 3.2.1~
 _ZN8casacore6VectorIxE6resizeEv@Base 3.2.1~
 _ZN8casacore6VectorIxE9referenceERKNS_5ArrayIxEE@Base 3.2.1~
 _ZN8casacore6VectorIxEC1ERKNS_5ArrayIxEE@Base 3.2.1~
 _ZN8casacore6VectorIxEC1ERKNS_5BlockIxEE@Base 3.2.1~
 _ZN8casacore6VectorIxEC1ERKNS_5BlockIxEEx@Base 3.2.1~
 _ZN8casacore6VectorIxEC1ERKNS_9IPositionE@Base 3.2.1~
 _ZN8casacore6VectorIxEC1ERKNS_9IPositionENS_15ArrayInitPolicyE@Base 3.2.1~
 _ZN8casacore6VectorIxEC1ERKNS_9IPositionEPKx@Base 3.2.1~
 _ZN8casacore6VectorIxEC1ERKNS_9IPositionEPxNS_17StorageInitPolicyE@Base 3.2.1~
 _ZN8casacore6VectorIxEC1ERKNS_9IPositionEPxNS_17StorageInitPolicyERKNS_17AbstractAllocatorIxEE@Base 3.2.1~
 _ZN8casacore6VectorIxEC1ERKNS_9IPositionERKx@Base 3.2.1~
 _ZN8casacore6VectorIxEC1ERKS1_@Base 3.2.1~
 _ZN8casacore6VectorIxEC1Em@Base 3.2.1~
 _ZN8casacore6VectorIxEC1EmNS_15ArrayInitPolicyE@Base 3.2.1~
 _ZN8casacore6VectorIxEC1EmRKx@Base 3.2.1~
 _ZN8casacore6VectorIxEC1Ev@Base 3.2.1~
 _ZN8casacore6VectorIxEC2ERKNS_5ArrayIxEE@Base 3.2.1~
 _ZN8casacore6VectorIxEC2ERKNS_5BlockIxEE@Base 3.2.1~
 _ZN8casacore6VectorIxEC2ERKNS_5BlockIxEEx@Base 3.2.1~
 _ZN8casacore6VectorIxEC2ERKNS_9IPositionE@Base 3.2.1~
 _ZN8casacore6VectorIxEC2ERKNS_9IPositionENS_15ArrayInitPolicyE@Base 3.2.1~
 _ZN8casacore6VectorIxEC2ERKNS_9IPositionEPKx@Base 3.2.1~
 _ZN8casacore6VectorIxEC2ERKNS_9IPositionEPxNS_17StorageInitPolicyE@Base 3.2.1~
 _ZN8casacore6VectorIxEC2ERKNS_9IPositionEPxNS_17StorageInitPolicyERKNS_17AbstractAllocatorIxEE@Base 3.2.1~
 _ZN8casacore6VectorIxEC2ERKNS_9IPositionERKx@Base 3.2.1~
 _ZN8casacore6VectorIxEC2ERKS1_@Base 3.2.1~
 _ZN8casacore6VectorIxEC2Em@Base 3.2.1~
 _ZN8casacore6VectorIxEC2EmNS_15ArrayInitPolicyE@Base 3.2.1~
 _ZN8casacore6VectorIxEC2EmRKx@Base 3.2.1~
 _ZN8casacore6VectorIxEC2Ev@Base 3.2.1~
 _ZN8casacore6VectorIxED0Ev@Base 3.2.1~
 _ZN8casacore6VectorIxED1Ev@Base 3.2.1~
 _ZN8casacore6VectorIxED2Ev@Base 3.2.1~
 _ZN8casacore6VectorIxEaSERKNS_11MaskedArrayIxEE@Base 3.2.1~
 _ZN8casacore6VectorIxEaSERKNS_5ArrayIxEE@Base 3.2.1~
 _ZN8casacore6VectorIxEaSERKS1_@Base 3.2.1~
 _ZN8casacore6VectorIxEaSERKx@Base 3.2.1~
 _ZN8casacore6VectorIxEclERKNS_11MaskedArrayIbEE@Base 3.2.1~
 _ZN8casacore6VectorIxEclERKNS_5ArrayIbEE@Base 3.2.1~
 _ZN8casacore6VectorIxEclERKNS_5SliceE@Base 3.2.1~
 _ZN8casacore6VectorIxEclERKNS_6SlicerE@Base 3.2.1~
 _ZN8casacore6VectorIxEclERKNS_9IPositionE@Base 3.2.1~
 _ZN8casacore6VectorIxEclERKNS_9IPositionES4_@Base 3.2.1~
 _ZN8casacore6VectorIxEclERKNS_9IPositionES4_S4_@Base 3.2.1~
 _ZN8casacore6VectorIxEclEm@Base 3.2.1~
 _ZN8casacore6VectorIxEixEm@Base 3.2.1~
 _ZN8casacore6indgenIiEEvRNS_5ArrayIT_EES2_S2_@Base 3.2.1~
 _ZN8casacore6indgenIjEEvRNS_5ArrayIT_EES2_S2_@Base 3.2.1~
 _ZN8casacore6isRealENS_8DataTypeE@Base 3.2.1~
 _ZN8casacore6objsetINS_6StringEEEvPT_S2_mm@Base 3.2.1~
 _ZN8casacore6setInfERSt7complexIdE@Base 3.2.1~
 _ZN8casacore6setInfERSt7complexIfE@Base 3.2.1~
 _ZN8casacore6setInfERd@Base 3.2.1~
 _ZN8casacore6setInfERf@Base 3.2.1~
 _ZN8casacore6setNaNERSt7complexIdE@Base 3.2.1~
 _ZN8casacore6setNaNERSt7complexIfE@Base 3.2.1~
 _ZN8casacore6setNaNERd@Base 3.2.1~
 _ZN8casacore6setNaNERf@Base 3.2.1~
 _ZN8casacore6upcaseERKNSt7__cxx1112basic_stringIcSt11char_traitsIcESaIcEEE@Base 3.2.1~
 _ZN8casacore7AppInfo11need_init_pE@Base 3.2.1~
 _ZN8casacore7AppInfo12workFileNameEjRKNS_6StringE@Base 3.2.1~
 _ZN8casacore7AppInfo13workDirectoryEj@Base 3.2.1~
 _ZN8casacore7AppInfo15workDirectoriesEj@Base 3.2.1~
 _ZN8casacore7AppInfo4initEv@Base 3.2.1~
 _ZN8casacore7AppInfo4tz_rE@Base 3.2.1~
 _ZN8casacore7GenSortIjE10insSortAscEPjii@Base 3.2.1~
 _ZN8casacore7GenSortIjE11heapSortAscEPji@Base 3.2.1~
 _ZN8casacore7GenSortIjE12quickSortAscEPjibi@Base 3.2.1~
 _ZN8casacore7GenSortIjE15heapAscSiftDownEiiPj@Base 3.2.1~
 _ZN8casacore7GenSortIjE5mergeEPjS2_jS2_j@Base 3.2.1~
 _ZN8casacore7GenSortIjE7parSortEPjjNS_4Sort5OrderEii@Base 3.2.1~
 _ZN8casacore7GenSortIjE7reverseEPjPKjj@Base 3.2.1~
 _ZN8casacore7GenSortIxE10insSortAscEPxii@Base 3.2.1~
 _ZN8casacore7GenSortIxE11heapSortAscEPxi@Base 3.2.1~
 _ZN8casacore7GenSortIxE12quickSortAscEPxibi@Base 3.2.1~
 _ZN8casacore7GenSortIxE15heapAscSiftDownEiiPx@Base 3.2.1~
 _ZN8casacore7GenSortIxE5mergeEPxS2_jPjj@Base 3.2.1~
 _ZN8casacore7GenSortIxE7parSortEPxjNS_4Sort5OrderEii@Base 3.2.1~
 _ZN8casacore7GenSortIxE7reverseEPxPKxj@Base 3.2.1~
 _ZN8casacore7JsonOut11startNestedERKNS_6StringES3_@Base 3.2.1~
 _ZN8casacore7JsonOut12escapeStringERKNS_6StringE@Base 3.2.1~
 _ZN8casacore7JsonOut12writeCommentERKNS_6StringE@Base 3.2.1~
 _ZN8casacore7JsonOut3endEv@Base 3.2.1~
 _ZN8casacore7JsonOut3putEPKc@Base 3.2.1~
 _ZN8casacore7JsonOut3putERKNS_6RecordE@Base 3.2.1~
 _ZN8casacore7JsonOut3putERKNS_6StringE@Base 3.2.1~
 _ZN8casacore7JsonOut3putERKSt7complexIdE@Base 3.2.1~
 _ZN8casacore7JsonOut3putERKSt7complexIfE@Base 3.2.1~
 _ZN8casacore7JsonOut3putEb@Base 3.2.1~
 _ZN8casacore7JsonOut3putEd@Base 3.2.1~
 _ZN8casacore7JsonOut3putEf@Base 3.2.1~
 _ZN8casacore7JsonOut5startERKNS_6StringES3_S3_@Base 3.2.1~
 _ZN8casacore7JsonOut7putNameERKNS_6StringE@Base 3.2.1~
 _ZN8casacore7JsonOut7putNullEv@Base 3.2.1~
 _ZN8casacore7JsonOut7writeKVERKNS_6StringERKNS_11ValueHolderE@Base 3.2.1~
 _ZN8casacore7JsonOut8putArrayINS_6StringEEEvRKNS_5ArrayIT_EERKS2_bb@Base 3.2.1~
 _ZN8casacore7JsonOut8putArrayISt7complexIdEEEvRKNS_5ArrayIT_EERKNS_6StringEbb@Base 3.2.1~
 _ZN8casacore7JsonOut8putArrayISt7complexIfEEEvRKNS_5ArrayIT_EERKNS_6StringEbb@Base 3.2.1~
 _ZN8casacore7JsonOut8putArrayIbEEvRKNS_5ArrayIT_EERKNS_6StringEbb@Base 3.2.1~
 _ZN8casacore7JsonOut8putArrayIdEEvRKNS_5ArrayIT_EERKNS_6StringEbb@Base 3.2.1~
 _ZN8casacore7JsonOut8putArrayIfEEvRKNS_5ArrayIT_EERKNS_6StringEbb@Base 3.2.1~
 _ZN8casacore7JsonOut8putArrayIxEEvRKNS_5ArrayIT_EERKNS_6StringEbb@Base 3.2.1~
 _ZN8casacore7JsonOut9endNestedEv@Base 3.2.1~
 _ZN8casacore7JsonOutC1ERKNS_6StringE@Base 3.2.1~
 _ZN8casacore7JsonOutC1ERSo@Base 3.2.1~
 _ZN8casacore7JsonOutC1Ev@Base 3.2.1~
 _ZN8casacore7JsonOutC2ERKNS_6StringE@Base 3.2.1~
 _ZN8casacore7JsonOutC2ERSo@Base 3.2.1~
 _ZN8casacore7JsonOutC2Ev@Base 3.2.1~
 _ZN8casacore7JsonOutD1Ev@Base 3.2.1~
 _ZN8casacore7JsonOutD2Ev@Base 3.2.1~
 _ZN8casacore7LogSink10globalSinkERPNS_16LogSinkInterfaceE@Base 3.2.1~
 _ZN8casacore7LogSink10globalSinkEv@Base 3.2.1~
 _ZN8casacore7LogSink11postLocallyERKNS_10LogMessageE@Base 3.2.1~
 _ZN8casacore7LogSink12clearLocallyEv@Base 3.2.1~
 _ZN8casacore7LogSink12postGloballyERKNS_10LogMessageE@Base 3.2.1~
 _ZN8casacore7LogSink12writeLocallyEdRKNS_6StringES3_S3_S3_@Base 3.2.1~
 _ZN8casacore7LogSink13global_sink_pE@Base 3.2.1~
 _ZN8casacore7LogSink13theirCallOnceE@Base 3.2.1~
 _ZN8casacore7LogSink14nullGlobalSinkEv@Base 3.2.1~
 _ZN8casacore7LogSink16createGlobalSinkEv@Base 3.2.1~
 _ZN8casacore7LogSink20preparePostThenThrowERKNS_10LogMessageERKNS_9AipsErrorE@Base 3.2.1~
 _ZN8casacore7LogSink21postGloballyThenThrowERKNS_10LogMessageE@Base 3.2.1~
 _ZN8casacore7LogSink4postERKNS_10LogMessageE@Base 3.2.1~
 _ZN8casacore7LogSink5flushEb@Base 3.2.1~
 _ZN8casacore7LogSink6filterERKNS_18LogFilterInterfaceE@Base 3.2.1~
 _ZN8casacore7LogSink7localIdEv@Base 3.2.1~
 _ZN8casacore7LogSink9localSinkERPNS_16LogSinkInterfaceE@Base 3.2.1~
 _ZN8casacore7LogSink9localSinkEv@Base 3.2.1~
 _ZN8casacore7LogSinkC1ENS_10LogMessage8PriorityEPSob@Base 3.2.1~
 _ZN8casacore7LogSinkC1ENS_10LogMessage8PriorityEb@Base 3.2.1~
 _ZN8casacore7LogSinkC1ERKNS_18LogFilterInterfaceEPSob@Base 3.2.1~
 _ZN8casacore7LogSinkC1ERKNS_18LogFilterInterfaceERKNS_10CountedPtrINS_16LogSinkInterfaceEEE@Base 3.2.1~
 _ZN8casacore7LogSinkC1ERKNS_18LogFilterInterfaceEb@Base 3.2.1~
 _ZN8casacore7LogSinkC1ERKS0_@Base 3.2.1~
 _ZN8casacore7LogSinkC2ENS_10LogMessage8PriorityEPSob@Base 3.2.1~
 _ZN8casacore7LogSinkC2ENS_10LogMessage8PriorityEb@Base 3.2.1~
 _ZN8casacore7LogSinkC2ERKNS_18LogFilterInterfaceEPSob@Base 3.2.1~
 _ZN8casacore7LogSinkC2ERKNS_18LogFilterInterfaceERKNS_10CountedPtrINS_16LogSinkInterfaceEEE@Base 3.2.1~
 _ZN8casacore7LogSinkC2ERKNS_18LogFilterInterfaceEb@Base 3.2.1~
 _ZN8casacore7LogSinkC2ERKS0_@Base 3.2.1~
 _ZN8casacore7LogSinkD0Ev@Base 3.2.1~
 _ZN8casacore7LogSinkD1Ev@Base 3.2.1~
 _ZN8casacore7LogSinkD2Ev@Base 3.2.1~
 _ZN8casacore7LogSinkaSERKS0_@Base 3.2.1~
 _ZN8casacore7MVAngle10interimSetE@Base 3.2.1~
 _ZN8casacore7MVAngle10unitStringERNS_7UnitValERNS_6StringERNS_8MUStringE@Base 3.2.1~
 _ZN8casacore7MVAngle13defaultFormatE@Base 3.2.1~
 _ZN8casacore7MVAngle13interimFormatE@Base 3.2.1~
 _ZN8casacore7MVAngle15handleReadErrorERNS_8MUStringEb@Base 3.2.1~
 _ZN8casacore7MVAngle4readERNS_7QuantumIdEERKNS_6StringEb@Base 3.2.1~
 _ZN8casacore7MVAngle4readERNS_7QuantumIdEERKNS_6StringEbb@Base 3.2.1~
 _ZN8casacore7MVAngle4readERNS_7QuantumIdEERNS_8MUStringEb@Base 3.2.1~
 _ZN8casacore7MVAngle4readERNS_7QuantumIdEERNS_8MUStringEbb@Base 3.2.1~
 _ZN8casacore7MVAngle6binormEd@Base 3.2.1~
 _ZN8casacore7MVAngle6giveMeERKNS_6StringE@Base 3.2.1~
 _ZN8casacore7MVAngle8timeZoneEv@Base 3.2.1~
 _ZN8casacore7MVAngle9getFormatEv@Base 3.2.1~
 _ZN8casacore7MVAngle9setFormatENS0_11formatTypesEj@Base 3.2.1~
 _ZN8casacore7MVAngle9setFormatERKNS0_6FormatE@Base 3.2.1~
 _ZN8casacore7MVAngle9setFormatEj@Base 3.2.1~
 _ZN8casacore7MVAngle9setFormatEjj@Base 3.2.1~
 _ZN8casacore7MVAngleC1ERKNS_7QuantumIdEE@Base 3.2.1~
 _ZN8casacore7MVAngleC1ERKS0_@Base 3.2.1~
 _ZN8casacore7MVAngleC1Ed@Base 3.2.1~
 _ZN8casacore7MVAngleC1Ev@Base 3.2.1~
 _ZN8casacore7MVAngleC2ERKNS_7QuantumIdEE@Base 3.2.1~
 _ZN8casacore7MVAngleC2ERKS0_@Base 3.2.1~
 _ZN8casacore7MVAngleC2Ed@Base 3.2.1~
 _ZN8casacore7MVAngleC2Ev@Base 3.2.1~
 _ZN8casacore7MVAngleD1Ev@Base 3.2.1~
 _ZN8casacore7MVAngleD2Ev@Base 3.2.1~
 _ZN8casacore7MVAngleaSERKS0_@Base 3.2.1~
 _ZN8casacore7MVAngleclERKS0_@Base 3.2.1~
 _ZN8casacore7MVAngleclEd@Base 3.2.1~
 _ZN8casacore7MVAngleclEv@Base 3.2.1~
 _ZN8casacore7MVEpoch6adjustERd@Base 3.2.1~
 _ZN8casacore7MVEpoch6adjustEv@Base 3.2.1~
 _ZN8casacore7MVEpoch6assureERKNS_9MeasValueE@Base 3.2.1~
 _ZN8casacore7MVEpoch7addTimeEd@Base 3.2.1~
 _ZN8casacore7MVEpoch7unitDayE@Base 3.2.1~
 _ZN8casacore7MVEpoch8putValueERKNS_6VectorINS_7QuantumIdEEEE@Base 3.2.1~
 _ZN8casacore7MVEpoch8secInDayE@Base 3.2.1~
 _ZN8casacore7MVEpoch9putVectorERKNS_6VectorIdEE@Base 3.2.1~
 _ZN8casacore7MVEpochC1ERKNS_6VectorINS_7QuantumIdEEEE@Base 3.2.1~
 _ZN8casacore7MVEpochC1ERKNS_6VectorIdEE@Base 3.2.1~
 _ZN8casacore7MVEpochC1ERKNS_7QuantumINS_6VectorIdEEEE@Base 3.2.1~
 _ZN8casacore7MVEpochC1ERKNS_7QuantumIdEE@Base 3.2.1~
 _ZN8casacore7MVEpochC1ERKNS_7QuantumIdEES4_@Base 3.2.1~
 _ZN8casacore7MVEpochC1ERKS0_@Base 3.2.1~
 _ZN8casacore7MVEpochC1Edd@Base 3.2.1~
 _ZN8casacore7MVEpochC1Ev@Base 3.2.1~
 _ZN8casacore7MVEpochC2ERKNS_6VectorINS_7QuantumIdEEEE@Base 3.2.1~
 _ZN8casacore7MVEpochC2ERKNS_6VectorIdEE@Base 3.2.1~
 _ZN8casacore7MVEpochC2ERKNS_7QuantumINS_6VectorIdEEEE@Base 3.2.1~
 _ZN8casacore7MVEpochC2ERKNS_7QuantumIdEE@Base 3.2.1~
 _ZN8casacore7MVEpochC2ERKNS_7QuantumIdEES4_@Base 3.2.1~
 _ZN8casacore7MVEpochC2ERKS0_@Base 3.2.1~
 _ZN8casacore7MVEpochC2Edd@Base 3.2.1~
 _ZN8casacore7MVEpochC2Ev@Base 3.2.1~
 _ZN8casacore7MVEpochD0Ev@Base 3.2.1~
 _ZN8casacore7MVEpochD1Ev@Base 3.2.1~
 _ZN8casacore7MVEpochD2Ev@Base 3.2.1~
 _ZN8casacore7MVEpochaSERKS0_@Base 3.2.1~
 _ZN8casacore7MVEpochmIERKS0_@Base 3.2.1~
 _ZN8casacore7MVEpochpLERKS0_@Base 3.2.1~
 _ZN8casacore7Poisson13setParametersERKNS_6VectorIdEE@Base 3.2.1~
 _ZN8casacore7Poisson4meanEd@Base 3.2.1~
 _ZN8casacore7Poisson5asIntEv@Base 3.2.1~
 _ZN8casacore7PoissonC1EPNS_3RNGEd@Base 3.2.1~
 _ZN8casacore7PoissonC2EPNS_3RNGEd@Base 3.2.1~
 _ZN8casacore7PoissonD0Ev@Base 3.2.1~
 _ZN8casacore7PoissonD1Ev@Base 3.2.1~
 _ZN8casacore7PoissonD2Ev@Base 3.2.1~
 _ZN8casacore7PoissonclEv@Base 3.2.1~
 _ZN8casacore7QuantumINS_5ArrayISt7complexIdEEEED0Ev@Base 3.2.1~
 _ZN8casacore7QuantumINS_5ArrayISt7complexIdEEEED1Ev@Base 3.2.1~
 _ZN8casacore7QuantumINS_5ArrayISt7complexIdEEEED2Ev@Base 3.2.1~
 _ZN8casacore7QuantumINS_5ArrayISt7complexIfEEEED0Ev@Base 3.2.1~
 _ZN8casacore7QuantumINS_5ArrayISt7complexIfEEEED1Ev@Base 3.2.1~
 _ZN8casacore7QuantumINS_5ArrayISt7complexIfEEEED2Ev@Base 3.2.1~
 _ZN8casacore7QuantumINS_5ArrayIdEEED0Ev@Base 3.2.1~
 _ZN8casacore7QuantumINS_5ArrayIdEEED1Ev@Base 3.2.1~
 _ZN8casacore7QuantumINS_5ArrayIdEEED2Ev@Base 3.2.1~
 _ZN8casacore7QuantumINS_5ArrayIfEEED0Ev@Base 3.2.1~
 _ZN8casacore7QuantumINS_5ArrayIfEEED1Ev@Base 3.2.1~
 _ZN8casacore7QuantumINS_5ArrayIfEEED2Ev@Base 3.2.1~
 _ZN8casacore7QuantumINS_5ArrayIiEEED0Ev@Base 3.2.1~
 _ZN8casacore7QuantumINS_5ArrayIiEEED1Ev@Base 3.2.1~
 _ZN8casacore7QuantumINS_5ArrayIiEEED2Ev@Base 3.2.1~
 _ZN8casacore7QuantumINS_6VectorISt7complexIdEEEED0Ev@Base 3.2.1~
 _ZN8casacore7QuantumINS_6VectorISt7complexIdEEEED1Ev@Base 3.2.1~
 _ZN8casacore7QuantumINS_6VectorISt7complexIdEEEED2Ev@Base 3.2.1~
 _ZN8casacore7QuantumINS_6VectorISt7complexIfEEEED0Ev@Base 3.2.1~
 _ZN8casacore7QuantumINS_6VectorISt7complexIfEEEED1Ev@Base 3.2.1~
 _ZN8casacore7QuantumINS_6VectorISt7complexIfEEEED2Ev@Base 3.2.1~
 _ZN8casacore7QuantumINS_6VectorIdEEE7convertERKNS_4UnitE@Base 3.2.1~
 _ZN8casacore7QuantumINS_6VectorIdEEEC1ERKS2_RKNS_4UnitE@Base 3.2.1~
 _ZN8casacore7QuantumINS_6VectorIdEEEC1ERKS3_@Base 3.2.1~
 _ZN8casacore7QuantumINS_6VectorIdEEEC1Ev@Base 3.2.1~
 _ZN8casacore7QuantumINS_6VectorIdEEEC2ERKS2_RKNS_4UnitE@Base 3.2.1~
 _ZN8casacore7QuantumINS_6VectorIdEEEC2ERKS3_@Base 3.2.1~
 _ZN8casacore7QuantumINS_6VectorIdEEEC2Ev@Base 3.2.1~
 _ZN8casacore7QuantumINS_6VectorIdEEED0Ev@Base 3.2.1~
 _ZN8casacore7QuantumINS_6VectorIdEEED1Ev@Base 3.2.1~
 _ZN8casacore7QuantumINS_6VectorIdEEED2Ev@Base 3.2.1~
 _ZN8casacore7QuantumINS_6VectorIfEEED0Ev@Base 3.2.1~
 _ZN8casacore7QuantumINS_6VectorIfEEED1Ev@Base 3.2.1~
 _ZN8casacore7QuantumINS_6VectorIfEEED2Ev@Base 3.2.1~
 _ZN8casacore7QuantumINS_6VectorIiEEED0Ev@Base 3.2.1~
 _ZN8casacore7QuantumINS_6VectorIiEEED1Ev@Base 3.2.1~
 _ZN8casacore7QuantumINS_6VectorIiEEED2Ev@Base 3.2.1~
 _ZN8casacore7QuantumISt7complexIdEED0Ev@Base 3.2.1~
 _ZN8casacore7QuantumISt7complexIdEED1Ev@Base 3.2.1~
 _ZN8casacore7QuantumISt7complexIdEED2Ev@Base 3.2.1~
 _ZN8casacore7QuantumISt7complexIfEED0Ev@Base 3.2.1~
 _ZN8casacore7QuantumISt7complexIfEED1Ev@Base 3.2.1~
 _ZN8casacore7QuantumISt7complexIfEED2Ev@Base 3.2.1~
 _ZN8casacore7QuantumIdE4readERS1_RKNS_6StringE@Base 3.2.1~
 _ZN8casacore7QuantumIdE4readERS1_RNS_8MUStringE@Base 3.2.1~
 _ZN8casacore7QuantumIdE5scaleERKd@Base 3.2.1~
 _ZN8casacore7QuantumIdE6myTypeEv@Base 3.2.1~
 _ZN8casacore7QuantumIdE7convertERKNS_4UnitE@Base 3.2.1~
 _ZN8casacore7QuantumIdE7convertERKS1_@Base 3.2.1~
 _ZN8casacore7QuantumIdE7convertEv@Base 3.2.1~
 _ZN8casacore7QuantumIdE8getValueEv@Base 3.2.1~
 _ZN8casacore7QuantumIdE8setValueERKd@Base 3.2.1~
 _ZN8casacore7QuantumIdEC1ERKS1_@Base 3.2.1~
 _ZN8casacore7QuantumIdEC1ERKd@Base 3.2.1~
 _ZN8casacore7QuantumIdEC1ERKdRKNS_4UnitE@Base 3.2.1~
 _ZN8casacore7QuantumIdEC1ERKdRKNS_5QBaseE@Base 3.2.1~
 _ZN8casacore7QuantumIdEC1Ev@Base 3.2.1~
 _ZN8casacore7QuantumIdEC2ERKS1_@Base 3.2.1~
 _ZN8casacore7QuantumIdEC2ERKd@Base 3.2.1~
 _ZN8casacore7QuantumIdEC2ERKdRKNS_4UnitE@Base 3.2.1~
 _ZN8casacore7QuantumIdEC2ERKdRKNS_5QBaseE@Base 3.2.1~
 _ZN8casacore7QuantumIdEC2Ev@Base 3.2.1~
 _ZN8casacore7QuantumIdED0Ev@Base 3.2.1~
 _ZN8casacore7QuantumIdED1Ev@Base 3.2.1~
 _ZN8casacore7QuantumIdED2Ev@Base 3.2.1~
 _ZN8casacore7QuantumIdEaSERKS1_@Base 3.2.1~
 _ZN8casacore7QuantumIdEdVERKS1_@Base 3.2.1~
 _ZN8casacore7QuantumIdEdVERKd@Base 3.2.1~
 _ZN8casacore7QuantumIdEmIERKS1_@Base 3.2.1~
 _ZN8casacore7QuantumIdEmIERKd@Base 3.2.1~
 _ZN8casacore7QuantumIdEmLERKS1_@Base 3.2.1~
 _ZN8casacore7QuantumIdEmLERKd@Base 3.2.1~
 _ZN8casacore7QuantumIdEpLERKS1_@Base 3.2.1~
 _ZN8casacore7QuantumIdEpLERKd@Base 3.2.1~
 _ZN8casacore7QuantumIfED0Ev@Base 3.2.1~
 _ZN8casacore7QuantumIfED1Ev@Base 3.2.1~
 _ZN8casacore7QuantumIfED2Ev@Base 3.2.1~
 _ZN8casacore7QuantumIiED0Ev@Base 3.2.1~
 _ZN8casacore7QuantumIiED1Ev@Base 3.2.1~
 _ZN8casacore7QuantumIiED2Ev@Base 3.2.1~
 _ZN8casacore7RXalphaE@Base 3.2.1~
 _ZN8casacore7RXwhiteE@Base 3.2.1~
 _ZN8casacore7SortKeyC1EPKvRKNS_10CountedPtrINS_11BaseCompareEEEji@Base 3.2.1~
 _ZN8casacore7SortKeyC1ERKS0_@Base 3.2.1~
 _ZN8casacore7SortKeyC2EPKvRKNS_10CountedPtrINS_11BaseCompareEEEji@Base 3.2.1~
 _ZN8casacore7SortKeyC2ERKS0_@Base 3.2.1~
 _ZN8casacore7SortKeyD1Ev@Base 3.2.1~
 _ZN8casacore7SortKeyD2Ev@Base 3.2.1~
 _ZN8casacore7SortKeyaSERKS0_@Base 3.2.1~
 _ZN8casacore7SymLink4moveERKNS_4PathEb@Base 3.2.1~
 _ZN8casacore7SymLink6createERKNS_4PathEb@Base 3.2.1~
 _ZN8casacore7SymLink6removeEv@Base 3.2.1~
 _ZN8casacore7SymLinkC1ERKNS_4FileE@Base 3.2.1~
 _ZN8casacore7SymLinkC1ERKNS_4PathE@Base 3.2.1~
 _ZN8casacore7SymLinkC1ERKNS_6StringE@Base 3.2.1~
 _ZN8casacore7SymLinkC1ERKS0_@Base 3.2.1~
 _ZN8casacore7SymLinkC1Ev@Base 3.2.1~
 _ZN8casacore7SymLinkC2ERKNS_4FileE@Base 3.2.1~
 _ZN8casacore7SymLinkC2ERKNS_4PathE@Base 3.2.1~
 _ZN8casacore7SymLinkC2ERKNS_6StringE@Base 3.2.1~
 _ZN8casacore7SymLinkC2ERKS0_@Base 3.2.1~
 _ZN8casacore7SymLinkC2Ev@Base 3.2.1~
 _ZN8casacore7SymLinkD0Ev@Base 3.2.1~
 _ZN8casacore7SymLinkD1Ev@Base 3.2.1~
 _ZN8casacore7SymLinkD2Ev@Base 3.2.1~
 _ZN8casacore7SymLinkaSERKS0_@Base 3.2.1~
 _ZN8casacore7Uniform13setParametersERKNS_6VectorIdEE@Base 3.2.1~
 _ZN8casacore7Uniform3lowEd@Base 3.2.1~
 _ZN8casacore7Uniform4highEd@Base 3.2.1~
 _ZN8casacore7Uniform5rangeEdd@Base 3.2.1~
 _ZN8casacore7Uniform9calcDeltaEdd@Base 3.2.1~
 _ZN8casacore7UniformC1EPNS_3RNGEdd@Base 3.2.1~
 _ZN8casacore7UniformC2EPNS_3RNGEdd@Base 3.2.1~
 _ZN8casacore7UniformD0Ev@Base 3.2.1~
 _ZN8casacore7UniformD1Ev@Base 3.2.1~
 _ZN8casacore7UniformD2Ev@Base 3.2.1~
 _ZN8casacore7UniformclEv@Base 3.2.1~
 _ZN8casacore7UnitDim3powEi@Base 3.2.1~
 _ZN8casacore7UnitDim4initEi@Base 3.2.1~
 _ZN8casacore7UnitDim4initEv@Base 3.2.1~
 _ZN8casacore7UnitDim7dimFullEj@Base 3.2.1~
 _ZN8casacore7UnitDim7dimNameEj@Base 3.2.1~
 _ZN8casacore7UnitDimC1ERKS0_@Base 3.2.1~
 _ZN8casacore7UnitDimC2ERKS0_@Base 3.2.1~
 _ZN8casacore7UnitDimD1Ev@Base 3.2.1~
 _ZN8casacore7UnitDimD2Ev@Base 3.2.1~
 _ZN8casacore7UnitDimaSERKS0_@Base 3.2.1~
 _ZN8casacore7UnitDimdVERKS0_@Base 3.2.1~
 _ZN8casacore7UnitDimmLERKS0_@Base 3.2.1~
 _ZN8casacore7UnitMap10clearCacheEv@Base 3.2.1~
 _ZN8casacore7UnitMap10removeUserERKNS_6StringE@Base 3.2.1~
 _ZN8casacore7UnitMap10removeUserERKNS_8UnitNameE@Base 3.2.1~
 _ZN8casacore7UnitMap11getMapCacheEv@Base 3.2.1~
 _ZN8casacore7UnitMap11getNameFITSERPKNS_8UnitNameEj@Base 3.2.1~
 _ZN8casacore7UnitMap11initUMCust1ERNS_5UMapsE@Base 3.2.1~
 _ZN8casacore7UnitMap11initUMCust2ERNS_5UMapsE@Base 3.2.1~
 _ZN8casacore7UnitMap11initUMCust3ERNS_5UMapsE@Base 3.2.1~
 _ZN8casacore7UnitMap12initUMPrefixERNS_5UMapsE@Base 3.2.1~
 _ZN8casacore7UnitMap13getStringFITSEj@Base 3.2.1~
 _ZN8casacore7UnitMap4listERSo@Base 3.2.1~
 _ZN8casacore7UnitMap4listEv@Base 3.2.1~
 _ZN8casacore7UnitMap6giveSIEv@Base 3.2.1~
 _ZN8casacore7UnitMap6listSIERSo@Base 3.2.1~
 _ZN8casacore7UnitMap6listSIEv@Base 3.2.1~
 _ZN8casacore7UnitMap6toFITSERKNS_4UnitE@Base 3.2.1~
 _ZN8casacore7UnitMap7addFITSEv@Base 3.2.1~
 _ZN8casacore7UnitMap7getMapsEv@Base 3.2.1~
 _ZN8casacore7UnitMap7getPrefERKNS_6StringERNS_8UnitNameEPNS_5UMapsE@Base 3.2.1~
 _ZN8casacore7UnitMap7getUnitERKNS_6StringERNS_8UnitNameEPNS_5UMapsE@Base 3.2.1~
 _ZN8casacore7UnitMap7giveDefEv@Base 3.2.1~
 _ZN8casacore7UnitMap7listDefERSo@Base 3.2.1~
 _ZN8casacore7UnitMap7listDefEv@Base 3.2.1~
 _ZN8casacore7UnitMap7putUserERKNS_6StringERKNS_7UnitValE@Base 3.2.1~
 _ZN8casacore7UnitMap7putUserERKNS_6StringERKNS_7UnitValES3_@Base 3.2.1~
 _ZN8casacore7UnitMap7putUserERKNS_8UnitNameE@Base 3.2.1~
 _ZN8casacore7UnitMap8fromFITSERKNS_4UnitE@Base 3.2.1~
 _ZN8casacore7UnitMap8getCacheERKNS_6StringERNS_7UnitValE@Base 3.2.1~
 _ZN8casacore7UnitMap8giveCustEv@Base 3.2.1~
 _ZN8casacore7UnitMap8givePrefEv@Base 3.2.1~
 _ZN8casacore7UnitMap8giveUserEv@Base 3.2.1~
 _ZN8casacore7UnitMap8listCustERSo@Base 3.2.1~
 _ZN8casacore7UnitMap8listCustEv@Base 3.2.1~
 _ZN8casacore7UnitMap8listPrefERSo@Base 3.2.1~
 _ZN8casacore7UnitMap8listPrefEv@Base 3.2.1~
 _ZN8casacore7UnitMap8listUserERSo@Base 3.2.1~
 _ZN8casacore7UnitMap8listUserEv@Base 3.2.1~
 _ZN8casacore7UnitMap8putCacheERKNS_6StringERKNS_7UnitValE@Base 3.2.1~
 _ZN8casacore7UnitMap9clearFITSEv@Base 3.2.1~
 _ZN8casacore7UnitMap9fitsMutexE@Base 3.2.1~
 _ZN8casacore7UnitMap9giveCacheEv@Base 3.2.1~
 _ZN8casacore7UnitMap9initUMSI1ERNS_5UMapsE@Base 3.2.1~
 _ZN8casacore7UnitMap9initUMSI2ERNS_5UMapsE@Base 3.2.1~
 _ZN8casacore7UnitMap9listCacheERSo@Base 3.2.1~
 _ZN8casacore7UnitMap9listCacheEv@Base 3.2.1~
 _ZN8casacore7UnitMapC1Ev@Base 3.2.1~
 _ZN8casacore7UnitMapC2Ev@Base 3.2.1~
 _ZN8casacore7UnitMapD1Ev@Base 3.2.1~
 _ZN8casacore7UnitMapD2Ev@Base 3.2.1~
 _ZN8casacore7UnitVal10SOLIDANGLEE@Base 3.2.1~
 _ZN8casacore7UnitVal11TEMPERATUREE@Base 3.2.1~
 _ZN8casacore7UnitVal3powEi@Base 3.2.1~
 _ZN8casacore7UnitVal4MASSE@Base 3.2.1~
 _ZN8casacore7UnitVal4TIMEE@Base 3.2.1~
 _ZN8casacore7UnitVal4initEd@Base 3.2.1~
 _ZN8casacore7UnitVal4initEdi@Base 3.2.1~
 _ZN8casacore7UnitVal5ANGLEE@Base 3.2.1~
 _ZN8casacore7UnitVal5MOLARE@Base 3.2.1~
 _ZN8casacore7UnitVal5NODIME@Base 3.2.1~
 _ZN8casacore7UnitVal5UNDIME@Base 3.2.1~
 _ZN8casacore7UnitVal5checkERKNS_6StringE@Base 3.2.1~
 _ZN8casacore7UnitVal5checkERKNS_6StringERS0_@Base 3.2.1~
 _ZN8casacore7UnitVal5fieldERNS_8MUStringERS0_PNS_5UMapsE@Base 3.2.1~
 _ZN8casacore7UnitVal5powerERNS_8MUStringE@Base 3.2.1~
 _ZN8casacore7UnitVal5psignERNS_8MUStringE@Base 3.2.1~
 _ZN8casacore7UnitVal6LENGTHE@Base 3.2.1~
 _ZN8casacore7UnitVal6createERKNS_6StringERS0_PNS_5UMapsE@Base 3.2.1~
 _ZN8casacore7UnitVal6createERNS_8MUStringERS0_PNS_5UMapsE@Base 3.2.1~
 _ZN8casacore7UnitVal7CURRENTE@Base 3.2.1~
 _ZN8casacore7UnitVal9INTENSITYE@Base 3.2.1~
 _ZN8casacore7UnitValC1ERKS0_@Base 3.2.1~
 _ZN8casacore7UnitValC1EdRKNS_6StringEPNS_5UMapsE@Base 3.2.1~
 _ZN8casacore7UnitValC1Edi@Base 3.2.1~
 _ZN8casacore7UnitValC1Ev@Base 3.2.1~
 _ZN8casacore7UnitValC2ERKS0_@Base 3.2.1~
 _ZN8casacore7UnitValC2EdRKNS_6StringEPNS_5UMapsE@Base 3.2.1~
 _ZN8casacore7UnitValC2Edi@Base 3.2.1~
 _ZN8casacore7UnitValC2Ev@Base 3.2.1~
 _ZN8casacore7UnitValD1Ev@Base 3.2.1~
 _ZN8casacore7UnitValD2Ev@Base 3.2.1~
 _ZN8casacore7UnitValaSERKS0_@Base 3.2.1~
 _ZN8casacore7UnitValdVERKS0_@Base 3.2.1~
 _ZN8casacore7UnitValmLERKS0_@Base 3.2.1~
 _ZN8casacore7ValType10getCmpFuncENS_8DataTypeE@Base 3.2.1~
 _ZN8casacore7ValType10getTypeStrENS_8DataTypeE@Base 3.2.1~
 _ZN8casacore7ValType10undeffloatE@Base 3.2.1~
 _ZN8casacore7ValType10undefint64E@Base 3.2.1~
 _ZN8casacore7ValType10undefshortE@Base 3.2.1~
 _ZN8casacore7ValType10undefucharE@Base 3.2.1~
 _ZN8casacore7ValType11getTypeSizeENS_8DataTypeE@Base 3.2.1~
 _ZN8casacore7ValType11undefdoubleE@Base 3.2.1~
 _ZN8casacore7ValType11undefstringE@Base 3.2.1~
 _ZN8casacore7ValType11undefushortE@Base 3.2.1~
 _ZN8casacore7ValType12isPromotableENS_8DataTypeES1_@Base 3.2.1~
 _ZN8casacore7ValType12undefcomplexE@Base 3.2.1~
 _ZN8casacore7ValType13undefdcomplexE@Base 3.2.1~
 _ZN8casacore7ValType16getCanonicalFuncENS_8DataTypeERPFmPvPKvmES7_Rjb@Base 3.2.1~
 _ZN8casacore7ValType16getCanonicalSizeENS_8DataTypeEb@Base 3.2.1~
 _ZN8casacore7ValType8undefintE@Base 3.2.1~
 _ZN8casacore7ValType9getCmpObjENS_8DataTypeE@Base 3.2.1~
 _ZN8casacore7ValType9undefboolE@Base 3.2.1~
 _ZN8casacore7ValType9undefcharE@Base 3.2.1~
 _ZN8casacore7ValType9undefuintE@Base 3.2.1~
 _ZN8casacore7ValTypeC1Ev@Base 3.2.1~
 _ZN8casacore7ValTypeC2Ev@Base 3.2.1~
 _ZN8casacore7Weibull13setParametersERKNS_6VectorIdEE@Base 3.2.1~
 _ZN8casacore7Weibull4betaEd@Base 3.2.1~
 _ZN8casacore7Weibull5alphaEd@Base 3.2.1~
 _ZN8casacore7Weibull8setStateEv@Base 3.2.1~
 _ZN8casacore7WeibullC1EPNS_3RNGEdd@Base 3.2.1~
 _ZN8casacore7WeibullC2EPNS_3RNGEdd@Base 3.2.1~
 _ZN8casacore7WeibullD0Ev@Base 3.2.1~
 _ZN8casacore7WeibullD1Ev@Base 3.2.1~
 _ZN8casacore7WeibullD2Ev@Base 3.2.1~
 _ZN8casacore7WeibullclEv@Base 3.2.1~
 _ZN8casacore7adjointERKNS_6MatrixISt7complexIdEEE@Base 3.2.1~
 _ZN8casacore7adjointERKNS_6MatrixISt7complexIfEEE@Base 3.2.1~
 _ZN8casacore7adjointERKNS_6MatrixIdEE@Base 3.2.1~
 _ZN8casacore7adjointERKNS_6MatrixIfEE@Base 3.2.1~
 _ZN8casacore7adjointERKNS_6MatrixIiEE@Base 3.2.1~
 _ZN8casacore7asArrayENS_8DataTypeE@Base 3.2.1~
 _ZN8casacore7assert_INS_10ArrayErrorEEC1EiPKcS4_i@Base 3.2.1~
 _ZN8casacore7assert_INS_10ArrayErrorEEC2EiPKcS4_i@Base 3.2.1~
 _ZN8casacore7assert_INS_9AipsErrorEEC1EiPKcS4_i@Base 3.2.1~
 _ZN8casacore7assert_INS_9AipsErrorEEC2EiPKcS4_i@Base 3.2.1~
 _ZN8casacore7assert_INS_9JsonErrorEEC1EiPKcS4_i@Base 3.2.1~
 _ZN8casacore7assert_INS_9JsonErrorEEC2EiPKcS4_i@Base 3.2.1~
 _ZN8casacore7isArrayENS_8DataTypeE@Base 3.2.1~
 _ZN8casacore7nearAbsERKSt7complexIdES3_d@Base 3.2.1~
 _ZN8casacore7nearAbsERKSt7complexIfES3_d@Base 3.2.1~
 _ZN8casacore7nearAbsEddd@Base 3.2.1~
 _ZN8casacore7nearAbsEffd@Base 3.2.1~
 _ZN8casacore7nearAbsEiid@Base 3.2.1~
 _ZN8casacore7nearAbsEjjd@Base 3.2.1~
 _ZN8casacore7objcopyINS_5SliceEEEvPT_PKS2_m@Base 3.2.1~
 _ZN8casacore7objcopyINS_5SliceEEEvPT_PKS2_mmm@Base 3.2.1~
 _ZN8casacore7objcopyINS_6StringEEEvPT_PKS2_m@Base 3.2.1~
 _ZN8casacore7objcopyINS_6StringEEEvPT_PKS2_mmm@Base 3.2.1~
 _ZN8casacore7objcopyINS_7QuantumIdEEEEvPT_PKS3_m@Base 3.2.1~
 _ZN8casacore7objcopyINS_7QuantumIdEEEEvPT_PKS3_mmm@Base 3.2.1~
 _ZN8casacore7objcopyINS_9IPositionEEEvPT_PKS2_m@Base 3.2.1~
 _ZN8casacore7objcopyIPvEEvPT_PKS2_m@Base 3.2.1~
 _ZN8casacore7objcopyISt7complexIdEEEvPT_PKS3_m@Base 3.2.1~
 _ZN8casacore7objcopyISt7complexIdEEEvPT_PKS3_mmm@Base 3.2.1~
 _ZN8casacore7objcopyISt7complexIfEEEvPT_PKS3_m@Base 3.2.1~
 _ZN8casacore7objcopyISt7complexIfEEEvPT_PKS3_mmm@Base 3.2.1~
 _ZN8casacore7objcopyIbEEvPT_PKS1_m@Base 3.2.1~
 _ZN8casacore7objcopyIcEEvPT_PKS1_m@Base 3.2.1~
 _ZN8casacore7objcopyIdEEvPT_PKS1_m@Base 3.2.1~
 _ZN8casacore7objcopyIdEEvPT_PKS1_mmm@Base 3.2.1~
 _ZN8casacore7objcopyIfEEvPT_PKS1_m@Base 3.2.1~
 _ZN8casacore7objcopyIfEEvPT_PKS1_mmm@Base 3.2.1~
 _ZN8casacore7objcopyIhEEvPT_PKS1_m@Base 3.2.1~
 _ZN8casacore7objcopyIiEEvPT_PKS1_m@Base 3.2.1~
 _ZN8casacore7objcopyIiEEvPT_PKS1_mmm@Base 3.2.1~
 _ZN8casacore7objcopyIjEEvPT_PKS1_m@Base 3.2.1~
 _ZN8casacore7objcopyIjEEvPT_PKS1_mmm@Base 3.2.1~
 _ZN8casacore7objcopyIsEEvPT_PKS1_m@Base 3.2.1~
 _ZN8casacore7objcopyIsEEvPT_PKS1_mmm@Base 3.2.1~
 _ZN8casacore7objcopyItEEvPT_PKS1_m@Base 3.2.1~
 _ZN8casacore7objcopyItEEvPT_PKS1_mmm@Base 3.2.1~
 _ZN8casacore7objcopyIxEEvPT_PKS1_m@Base 3.2.1~
 _ZN8casacore7objcopyIxEEvPT_PKS1_mmm@Base 3.2.1~
 _ZN8casacore7objmoveINS_6StringEEEvPT_PKS2_m@Base 3.2.1~
 _ZN8casacore7productERKNS_6MatrixISt7complexIfEEERKNS_6VectorIfEE@Base 3.2.1~
 _ZN8casacore7re_compEPc@Base 3.2.1~
 _ZN8casacore7re_execEPc@Base 3.2.1~
 _ZN8casacore7reverseERKNSt7__cxx1112basic_stringIcSt11char_traitsIcESaIcEEE@Base 3.2.1~
 _ZN8casacore8AppStateD0Ev@Base 3.2.1~
 _ZN8casacore8AppStateD1Ev@Base 3.2.1~
 _ZN8casacore8AppStateD2Ev@Base 3.2.1~
 _ZN8casacore8Binomial13setParametersERKNS_6VectorIdEE@Base 3.2.1~
 _ZN8casacore8Binomial1nEd@Base 3.2.1~
 _ZN8casacore8Binomial1nEj@Base 3.2.1~
 _ZN8casacore8Binomial1pEd@Base 3.2.1~
 _ZN8casacore8Binomial5asIntEv@Base 3.2.1~
 _ZN8casacore8BinomialC1EPNS_3RNGEjd@Base 3.2.1~
 _ZN8casacore8BinomialC2EPNS_3RNGEjd@Base 3.2.1~
 _ZN8casacore8BinomialD0Ev@Base 3.2.1~
 _ZN8casacore8BinomialD1Ev@Base 3.2.1~
 _ZN8casacore8BinomialD2Ev@Base 3.2.1~
 _ZN8casacore8BinomialclEv@Base 3.2.1~
 _ZN8casacore8ByteSink5writeEmPKNS_6StringE@Base 3.2.1~
 _ZN8casacore8ByteSink5writeEmPKSt7complexIdE@Base 3.2.1~
 _ZN8casacore8ByteSink5writeEmPKSt7complexIfE@Base 3.2.1~
 _ZN8casacore8ByteSink5writeEmPKb@Base 3.2.1~
 _ZN8casacore8ByteSink5writeEmPKc@Base 3.2.1~
 _ZN8casacore8ByteSink5writeEmPKd@Base 3.2.1~
 _ZN8casacore8ByteSink5writeEmPKf@Base 3.2.1~
 _ZN8casacore8ByteSink5writeEmPKh@Base 3.2.1~
 _ZN8casacore8ByteSink5writeEmPKi@Base 3.2.1~
 _ZN8casacore8ByteSink5writeEmPKj@Base 3.2.1~
 _ZN8casacore8ByteSink5writeEmPKs@Base 3.2.1~
 _ZN8casacore8ByteSink5writeEmPKt@Base 3.2.1~
 _ZN8casacore8ByteSink5writeEmPKx@Base 3.2.1~
 _ZN8casacore8ByteSink5writeEmPKy@Base 3.2.1~
 _ZN8casacore8ByteSinkC1EPNS_6TypeIOEb@Base 3.2.1~
 _ZN8casacore8ByteSinkC1ERKS0_@Base 3.2.1~
 _ZN8casacore8ByteSinkC1Ev@Base 3.2.1~
 _ZN8casacore8ByteSinkC2EPNS_6TypeIOEb@Base 3.2.1~
 _ZN8casacore8ByteSinkC2ERKS0_@Base 3.2.1~
 _ZN8casacore8ByteSinkC2Ev@Base 3.2.1~
 _ZN8casacore8ByteSinkD0Ev@Base 3.2.1~
 _ZN8casacore8ByteSinkD1Ev@Base 3.2.1~
 _ZN8casacore8ByteSinkD2Ev@Base 3.2.1~
 _ZN8casacore8ByteSinkaSERKS0_@Base 3.2.1~
 _ZN8casacore8ByteSinklsEPKc@Base 3.2.1~
 _ZN8casacore8ByteSinklsERKNS_6StringE@Base 3.2.1~
 _ZN8casacore8ByteSinklsERKSt7complexIdE@Base 3.2.1~
 _ZN8casacore8ByteSinklsERKSt7complexIfE@Base 3.2.1~
 _ZN8casacore8ByteSinklsEb@Base 3.2.1~
 _ZN8casacore8ByteSinklsEc@Base 3.2.1~
 _ZN8casacore8ByteSinklsEd@Base 3.2.1~
 _ZN8casacore8ByteSinklsEf@Base 3.2.1~
 _ZN8casacore8ByteSinklsEh@Base 3.2.1~
 _ZN8casacore8ByteSinklsEi@Base 3.2.1~
 _ZN8casacore8ByteSinklsEj@Base 3.2.1~
 _ZN8casacore8ByteSinklsEs@Base 3.2.1~
 _ZN8casacore8ByteSinklsEt@Base 3.2.1~
 _ZN8casacore8ByteSinklsEx@Base 3.2.1~
 _ZN8casacore8ByteSinklsEy@Base 3.2.1~
 _ZN8casacore8HDF5File5closeEv@Base 3.2.1~
 _ZN8casacore8HDF5File5flushEv@Base 3.2.1~
 _ZN8casacore8HDF5File6doOpenEv@Base 3.2.1~
 _ZN8casacore8HDF5File6isHDF5ERKNS_6StringE@Base 3.2.1~
 _ZN8casacore8HDF5File6reopenEv@Base 3.2.1~
 _ZN8casacore8HDF5File8reopenRWEv@Base 3.2.1~
 _ZN8casacore8HDF5FileC1ERKNS_6StringENS_6ByteIO10OpenOptionE@Base 3.2.1~
 _ZN8casacore8HDF5FileC2ERKNS_6StringENS_6ByteIO10OpenOptionE@Base 3.2.1~
 _ZN8casacore8HDF5FileD0Ev@Base 3.2.1~
 _ZN8casacore8HDF5FileD1Ev@Base 3.2.1~
 _ZN8casacore8HDF5FileD2Ev@Base 3.2.1~
 _ZN8casacore8HostInfo10memoryFreeEv@Base 3.2.1~
 _ZN8casacore8HostInfo10memoryUsedEv@Base 3.2.1~
 _ZN8casacore8HostInfo10setNumCPUsEi@Base 3.2.1~
 _ZN8casacore8HostInfo11memoryTotalEb@Base 3.2.1~
 _ZN8casacore8HostInfo14setMemoryTotalEl@Base 3.2.1~
 _ZN8casacore8HostInfo15secondsFrom1970Ev@Base 3.2.1~
 _ZN8casacore8HostInfo16resources_memoryE@Base 3.2.1~
 _ZN8casacore8HostInfo17resources_memfracE@Base 3.2.1~
 _ZN8casacore8HostInfo17resources_numCPUsE@Base 3.2.1~
 _ZN8casacore8HostInfo17setMemoryFractionEi@Base 3.2.1~
 _ZN8casacore8HostInfo4infoE@Base 3.2.1~
 _ZN8casacore8HostInfo7numCPUsEb@Base 3.2.1~
 _ZN8casacore8HostInfo8hostNameEv@Base 3.2.1~
 _ZN8casacore8HostInfo8swapFreeEv@Base 3.2.1~
 _ZN8casacore8HostInfo8swapUsedEv@Base 3.2.1~
 _ZN8casacore8HostInfo9processIDEv@Base 3.2.1~
 _ZN8casacore8HostInfo9swapTotalEv@Base 3.2.1~
 _ZN8casacore8LockFile11isMultiUsedEv@Base 3.2.1~
 _ZN8casacore8LockFile11removeReqIdEv@Base 3.2.1~
 _ZN8casacore8LockFile7acquireEPNS_8MemoryIOENS_10FileLocker8LockTypeEj@Base 3.2.1~
 _ZN8casacore8LockFile7getInfoERNS_8MemoryIOE@Base 3.2.1~
 _ZN8casacore8LockFile7inspectEb@Base 3.2.1~
 _ZN8casacore8LockFile7releaseEPKNS_8MemoryIOE@Base 3.2.1~
 _ZN8casacore8LockFile8addReqIdEv@Base 3.2.1~
 _ZN8casacore8LockFile8getReqIdEv@Base 3.2.1~
 _ZN8casacore8LockFile8showLockERjRbRKNS_6StringE@Base 3.2.1~
 _ZN8casacore8LockFile9convReqIdEPKhj@Base 3.2.1~
 _ZN8casacore8LockFileC1ERKNS_6StringEdbbbjbb@Base 3.2.1~
 _ZN8casacore8LockFileC2ERKNS_6StringEdbbbjbb@Base 3.2.1~
 _ZN8casacore8LockFileD1Ev@Base 3.2.1~
 _ZN8casacore8LockFileD2Ev@Base 3.2.1~
 _ZN8casacore8MFFileIO4readExPvb@Base 3.2.1~
 _ZN8casacore8MFFileIO5flushEv@Base 3.2.1~
 _ZN8casacore8MFFileIO5fsyncEv@Base 3.2.1~
 _ZN8casacore8MFFileIO5writeExPKv@Base 3.2.1~
 _ZN8casacore8MFFileIO6doSeekExNS_6ByteIO10SeekOptionE@Base 3.2.1~
 _ZN8casacore8MFFileIO6lengthEv@Base 3.2.1~
 _ZN8casacore8MFFileIO6removeEv@Base 3.2.1~
 _ZN8casacore8MFFileIO8reopenRWEv@Base 3.2.1~
 _ZN8casacore8MFFileIOC1ERNS_13MultiFileBaseERKNS_6StringENS_6ByteIO10OpenOptionE@Base 3.2.1~
 _ZN8casacore8MFFileIOC2ERNS_13MultiFileBaseERKNS_6StringENS_6ByteIO10OpenOptionE@Base 3.2.1~
 _ZN8casacore8MFFileIOD0Ev@Base 3.2.1~
 _ZN8casacore8MFFileIOD1Ev@Base 3.2.1~
 _ZN8casacore8MFFileIOD2Ev@Base 3.2.1~
 _ZN8casacore8MMapfdIO15getWritePointerEx@Base 3.2.1~
 _ZN8casacore8MMapfdIO3mapEiRKNS_6StringE@Base 3.2.1~
 _ZN8casacore8MMapfdIO4readExPvb@Base 3.2.1~
 _ZN8casacore8MMapfdIO5flushEv@Base 3.2.1~
 _ZN8casacore8MMapfdIO5writeExPKv@Base 3.2.1~
 _ZN8casacore8MMapfdIO6doSeekExNS_6ByteIO10SeekOptionE@Base 3.2.1~
 _ZN8casacore8MMapfdIO7mapFileEv@Base 3.2.1~
 _ZN8casacore8MMapfdIO9unmapFileEv@Base 3.2.1~
 _ZN8casacore8MMapfdIOC1EiRKNS_6StringE@Base 3.2.1~
 _ZN8casacore8MMapfdIOC1Ev@Base 3.2.1~
 _ZN8casacore8MMapfdIOC2EiRKNS_6StringE@Base 3.2.1~
 _ZN8casacore8MMapfdIOC2Ev@Base 3.2.1~
 _ZN8casacore8MMapfdIOD0Ev@Base 3.2.1~
 _ZN8casacore8MMapfdIOD1Ev@Base 3.2.1~
 _ZN8casacore8MMapfdIOD2Ev@Base 3.2.1~
 _ZN8casacore8MUString10skipCharNCEc@Base 3.2.1~
 _ZN8casacore8MUString10skipDoubleEv@Base 3.2.1~
 _ZN8casacore8MUString10skipStringERKNS_5RegexE@Base 3.2.1~
 _ZN8casacore8MUString10skipStringERKNS_6StringE@Base 3.2.1~
 _ZN8casacore8MUString10tSkipAlphaEv@Base 3.2.1~
 _ZN8casacore8MUString10tSkipBlankEv@Base 3.2.1~
 _ZN8casacore8MUString11getAlphaNumEv@Base 3.2.1~
 _ZN8casacore8MUString11getStringNCERKNS_6StringE@Base 3.2.1~
 _ZN8casacore8MUString11tSkipCharNCEc@Base 3.2.1~
 _ZN8casacore8MUString11tSkipDoubleEv@Base 3.2.1~
 _ZN8casacore8MUString11tSkipStringERKNS_5RegexE@Base 3.2.1~
 _ZN8casacore8MUString11tSkipStringERKNS_6StringE@Base 3.2.1~
 _ZN8casacore8MUString12skipAlphaNumEv@Base 3.2.1~
 _ZN8casacore8MUString12skipStringNCERKNS_6StringE@Base 3.2.1~
 _ZN8casacore8MUString12tSkipOneCharEc@Base 3.2.1~
 _ZN8casacore8MUString13tSkipAlphaNumEv@Base 3.2.1~
 _ZN8casacore8MUString13tSkipStringNCERKNS_6StringE@Base 3.2.1~
 _ZN8casacore8MUString14tSkipOneCharNCEc@Base 3.2.1~
 _ZN8casacore8MUString3getEj@Base 3.2.1~
 _ZN8casacore8MUString3getEjj@Base 3.2.1~
 _ZN8casacore8MUString3getEv@Base 3.2.1~
 _ZN8casacore8MUString3popEv@Base 3.2.1~
 _ZN8casacore8MUString4pushEv@Base 3.2.1~
 _ZN8casacore8MUString6getIntEv@Base 3.2.1~
 _ZN8casacore8MUString6setPtrEi@Base 3.2.1~
 _ZN8casacore8MUString6unpushEv@Base 3.2.1~
 _ZN8casacore8MUString7getCharEv@Base 3.2.1~
 _ZN8casacore8MUString7getSignEv@Base 3.2.1~
 _ZN8casacore8MUString7getuIntEv@Base 3.2.1~
 _ZN8casacore8MUString7setLastEi@Base 3.2.1~
 _ZN8casacore8MUString7skipIntEv@Base 3.2.1~
 _ZN8casacore8MUString7skipNumEv@Base 3.2.1~
 _ZN8casacore8MUString8getAlphaEv@Base 3.2.1~
 _ZN8casacore8MUString8initLastEv@Base 3.2.1~
 _ZN8casacore8MUString8skipCharERKNS_5RegexE@Base 3.2.1~
 _ZN8casacore8MUString8skipCharEc@Base 3.2.1~
 _ZN8casacore8MUString8skipCharEi@Base 3.2.1~
 _ZN8casacore8MUString8skipSignEv@Base 3.2.1~
 _ZN8casacore8MUString8skipuIntEv@Base 3.2.1~
 _ZN8casacore8MUString8tSkipIntEv@Base 3.2.1~
 _ZN8casacore8MUString8tSkipNumEv@Base 3.2.1~
 _ZN8casacore8MUString9adjustPtrEi@Base 3.2.1~
 _ZN8casacore8MUString9getDoubleEv@Base 3.2.1~
 _ZN8casacore8MUString9getStringERKNS_5RegexE@Base 3.2.1~
 _ZN8casacore8MUString9getStringERKNS_6StringE@Base 3.2.1~
 _ZN8casacore8MUString9matchPairEc@Base 3.2.1~
 _ZN8casacore8MUString9minimaxNCERKNS_6StringERKNS_6VectorIS1_EE@Base 3.2.1~
 _ZN8casacore8MUString9minimaxNCERKNS_6StringEiPS2_@Base 3.2.1~
 _ZN8casacore8MUString9skipAlphaEv@Base 3.2.1~
 _ZN8casacore8MUString9skipBlankEv@Base 3.2.1~
 _ZN8casacore8MUString9tSkipCharERKNS_5RegexE@Base 3.2.1~
 _ZN8casacore8MUString9tSkipCharEc@Base 3.2.1~
 _ZN8casacore8MUString9tSkipSignEv@Base 3.2.1~
 _ZN8casacore8MUString9tSkipuIntEv@Base 3.2.1~
 _ZN8casacore8MUStringC1EPKc@Base 3.2.1~
 _ZN8casacore8MUStringC1ERKNS_6StringE@Base 3.2.1~
 _ZN8casacore8MUStringC1ERKS0_@Base 3.2.1~
 _ZN8casacore8MUStringC1Ec@Base 3.2.1~
 _ZN8casacore8MUStringC1Ev@Base 3.2.1~
 _ZN8casacore8MUStringC2EPKc@Base 3.2.1~
 _ZN8casacore8MUStringC2ERKNS_6StringE@Base 3.2.1~
 _ZN8casacore8MUStringC2ERKS0_@Base 3.2.1~
 _ZN8casacore8MUStringC2Ec@Base 3.2.1~
 _ZN8casacore8MUStringC2Ev@Base 3.2.1~
 _ZN8casacore8MUStringD1Ev@Base 3.2.1~
 _ZN8casacore8MUStringD2Ev@Base 3.2.1~
 _ZN8casacore8MUStringaSERKS0_@Base 3.2.1~
 _ZN8casacore8MUStringclEv@Base 3.2.1~
 _ZN8casacore8MVDouble6assureERKNS_9MeasValueE@Base 3.2.1~
 _ZN8casacore8MVDouble8putValueERKNS_6VectorINS_7QuantumIdEEEE@Base 3.2.1~
 _ZN8casacore8MVDouble9putVectorERKNS_6VectorIdEE@Base 3.2.1~
 _ZN8casacore8MVDoubleC1ERKNS_6VectorINS_7QuantumIdEEEE@Base 3.2.1~
 _ZN8casacore8MVDoubleC1ERKNS_6VectorIdEE@Base 3.2.1~
 _ZN8casacore8MVDoubleC1ERKNS_7QuantumINS_6VectorIdEEEE@Base 3.2.1~
 _ZN8casacore8MVDoubleC1ERKNS_7QuantumIdEE@Base 3.2.1~
 _ZN8casacore8MVDoubleC1ERKS0_@Base 3.2.1~
 _ZN8casacore8MVDoubleC1Ed@Base 3.2.1~
 _ZN8casacore8MVDoubleC2ERKNS_6VectorINS_7QuantumIdEEEE@Base 3.2.1~
 _ZN8casacore8MVDoubleC2ERKNS_6VectorIdEE@Base 3.2.1~
 _ZN8casacore8MVDoubleC2ERKNS_7QuantumINS_6VectorIdEEEE@Base 3.2.1~
 _ZN8casacore8MVDoubleC2ERKNS_7QuantumIdEE@Base 3.2.1~
 _ZN8casacore8MVDoubleC2ERKS0_@Base 3.2.1~
 _ZN8casacore8MVDoubleC2Ed@Base 3.2.1~
 _ZN8casacore8MVDoubleD0Ev@Base 3.2.1~
 _ZN8casacore8MVDoubleD1Ev@Base 3.2.1~
 _ZN8casacore8MVDoubleD2Ev@Base 3.2.1~
 _ZN8casacore8MVDoubleaSERKS0_@Base 3.2.1~
 _ZN8casacore8MVDoublemIERKS0_@Base 3.2.1~
 _ZN8casacore8MVDoublepLERKS0_@Base 3.2.1~
 _ZN8casacore8MemoryIO4readExPvb@Base 3.2.1~
 _ZN8casacore8MemoryIO5writeExPKv@Base 3.2.1~
 _ZN8casacore8MemoryIO6doSeekExNS_6ByteIO10SeekOptionE@Base 3.2.1~
 _ZN8casacore8MemoryIO6expandEy@Base 3.2.1~
 _ZN8casacore8MemoryIO6lengthEv@Base 3.2.1~
 _ZN8casacore8MemoryIO7setUsedEy@Base 3.2.1~
 _ZN8casacore8MemoryIO9setBufferEy@Base 3.2.1~
 _ZN8casacore8MemoryIOC1EPKvy@Base 3.2.1~
 _ZN8casacore8MemoryIOC1EPvyNS_6ByteIO10OpenOptionEyb@Base 3.2.1~
 _ZN8casacore8MemoryIOC1Eyy@Base 3.2.1~
 _ZN8casacore8MemoryIOC2EPKvy@Base 3.2.1~
 _ZN8casacore8MemoryIOC2EPvyNS_6ByteIO10OpenOptionEyb@Base 3.2.1~
 _ZN8casacore8MemoryIOC2Eyy@Base 3.2.1~
 _ZN8casacore8MemoryIOD0Ev@Base 3.2.1~
 _ZN8casacore8MemoryIOD1Ev@Base 3.2.1~
 _ZN8casacore8MemoryIOD2Ev@Base 3.2.1~
 _ZN8casacore8ObjectID10extractIDsERNS_5BlockIS0_EERKNS_6StringE@Base 3.2.1~
 _ZN8casacore8ObjectID10fromStringERNS_6StringERKS1_@Base 3.2.1~
 _ZN8casacore8ObjectID15sequence_numberEv@Base 3.2.1~
 _ZN8casacore8ObjectIDC1ERKS0_@Base 3.2.1~
 _ZN8casacore8ObjectIDC1Eb@Base 3.2.1~
 _ZN8casacore8ObjectIDC1EiiiRKNS_6StringE@Base 3.2.1~
 _ZN8casacore8ObjectIDC2ERKS0_@Base 3.2.1~
 _ZN8casacore8ObjectIDC2Eb@Base 3.2.1~
 _ZN8casacore8ObjectIDC2EiiiRKNS_6StringE@Base 3.2.1~
 _ZN8casacore8ObjectIDaSERKS0_@Base 3.2.1~
 _ZN8casacore8RXdoubleE@Base 3.2.1~
 _ZN8casacore8StreamIO4readExPvb@Base 3.2.1~
 _ZN8casacore8StreamIO5writeExPKv@Base 3.2.1~
 _ZN8casacore8StreamIO6doSeekExNS_6ByteIO10SeekOptionE@Base 3.2.1~
 _ZN8casacore8StreamIO6lengthEv@Base 3.2.1~
 _ZN8casacore8StreamIOC1ERKNS_6StringEt@Base 3.2.1~
 _ZN8casacore8StreamIOC2ERKNS_6StringEt@Base 3.2.1~
 _ZN8casacore8StreamIOD0Ev@Base 3.2.1~
 _ZN8casacore8StreamIOD1Ev@Base 3.2.1~
 _ZN8casacore8StreamIOD2Ev@Base 3.2.1~
 _ZN8casacore8UnitNameC1ERKNS_4UnitERKNS_6StringE@Base 3.2.1~
 _ZN8casacore8UnitNameC1ERKNS_6StringERKNS_7UnitValES3_@Base 3.2.1~
 _ZN8casacore8UnitNameC1ERKS0_@Base 3.2.1~
 _ZN8casacore8UnitNameC1Ev@Base 3.2.1~
 _ZN8casacore8UnitNameC2ERKNS_4UnitERKNS_6StringE@Base 3.2.1~
 _ZN8casacore8UnitNameC2ERKNS_6StringERKNS_7UnitValES3_@Base 3.2.1~
 _ZN8casacore8UnitNameC2ERKS0_@Base 3.2.1~
 _ZN8casacore8UnitNameC2Ev@Base 3.2.1~
 _ZN8casacore8UnitNameD1Ev@Base 3.2.1~
 _ZN8casacore8UnitNameD2Ev@Base 3.2.1~
 _ZN8casacore8UnitNameaSERKS0_@Base 3.2.1~
 _ZN8casacore8asScalarENS_8DataTypeE@Base 3.2.1~
 _ZN8casacore8downcaseERKNSt7__cxx1112basic_stringIcSt11char_traitsIcESaIcEEE@Base 3.2.1~
 _ZN8casacore8fcompareERKNS_6StringES2_@Base 3.2.1~
 _ZN8casacore8floatInfEv@Base 3.2.1~
 _ZN8casacore8floatNaNEv@Base 3.2.1~
 _ZN8casacore8hashFuncERKNS_8ObjectIDE@Base 3.2.1~
 _ZN8casacore8isFiniteERKSt7complexIdE@Base 3.2.1~
 _ZN8casacore8isFiniteERKSt7complexIfE@Base 3.2.1~
 _ZN8casacore8isScalarENS_8DataTypeE@Base 3.2.1~
 _ZN8casacore8pass_oneEPKcPc@Base 3.2.1~
 _ZN8casacore8pass_twoEPcS0_@Base 3.2.1~
 _ZN8casacore8putArrayINS_6StringEEEvRNS_6AipsIOERKNS_5ArrayIT_EEPKc@Base 3.2.1~
 _ZN8casacore8putArrayISt7complexIdEEEvRNS_6AipsIOERKNS_5ArrayIT_EEPKc@Base 3.2.1~
 _ZN8casacore8putArrayISt7complexIfEEEvRNS_6AipsIOERKNS_5ArrayIT_EEPKc@Base 3.2.1~
 _ZN8casacore8putArrayIbEEvRNS_6AipsIOERKNS_5ArrayIT_EEPKc@Base 3.2.1~
 _ZN8casacore8putArrayIdEEvRNS_6AipsIOERKNS_5ArrayIT_EEPKc@Base 3.2.1~
 _ZN8casacore8putArrayIfEEvRNS_6AipsIOERKNS_5ArrayIT_EEPKc@Base 3.2.1~
 _ZN8casacore8putArrayIhEEvRNS_6AipsIOERKNS_5ArrayIT_EEPKc@Base 3.2.1~
 _ZN8casacore8putArrayIiEEvRNS_6AipsIOERKNS_5ArrayIT_EEPKc@Base 3.2.1~
 _ZN8casacore8putArrayIjEEvRNS_6AipsIOERKNS_5ArrayIT_EEPKc@Base 3.2.1~
 _ZN8casacore8putArrayIsEEvRNS_6AipsIOERKNS_5ArrayIT_EEPKc@Base 3.2.1~
 _ZN8casacore8putArrayIxEEvRNS_6AipsIOERKNS_5ArrayIT_EEPKc@Base 3.2.1~
 _ZN8casacore8rproductERKNS_6MatrixISt7complexIfEEERKNS_6VectorIS2_EE@Base 3.2.1~
 _ZN8casacore8rproductERKNS_6MatrixISt7complexIfEEES5_@Base 3.2.1~
 _ZN8casacore9AipsError11getLastInfoERNS_6StringES2_@Base 3.2.1~
 _ZN8casacore9AipsError12throwIfErrorEiRKNS_6StringEPKciS5_@Base 3.2.1~
 _ZN8casacore9AipsError13addStackTraceEv@Base 3.2.1~
 _ZN8casacore9AipsError13clearLastInfoEv@Base 3.2.1~
 _ZN8casacore9AipsError14getLastMessageEv@Base 3.2.1~
 _ZN8casacore9AipsError17getLastStackTraceEv@Base 3.2.1~
 _ZN8casacore9AipsError18repackageAipsErrorERS0_RKNS_6StringEPKciS6_@Base 3.2.1~
 _ZN8casacore9AipsError7throwIfEbRKNS_6StringEPKciS5_@Base 3.2.1~
 _ZN8casacore9AipsErrorC1ENS0_8CategoryE@Base 3.2.1~
 _ZN8casacore9AipsErrorC1EPKcNS0_8CategoryE@Base 3.2.1~
 _ZN8casacore9AipsErrorC1ERKNS_6StringENS0_8CategoryE@Base 3.2.1~
 _ZN8casacore9AipsErrorC1ERKNS_6StringES3_jNS0_8CategoryE@Base 3.2.1~
 _ZN8casacore9AipsErrorC1ERKS0_@Base 3.2.1~
 _ZN8casacore9AipsErrorC2ENS0_8CategoryE@Base 3.2.1~
 _ZN8casacore9AipsErrorC2EPKcNS0_8CategoryE@Base 3.2.1~
 _ZN8casacore9AipsErrorC2ERKNS_6StringENS0_8CategoryE@Base 3.2.1~
 _ZN8casacore9AipsErrorC2ERKNS_6StringES3_jNS0_8CategoryE@Base 3.2.1~
 _ZN8casacore9AipsErrorC2ERKS0_@Base 3.2.1~
 _ZN8casacore9AipsErrorD0Ev@Base 3.2.1~
 _ZN8casacore9AipsErrorD1Ev@Base 3.2.1~
 _ZN8casacore9AipsErrorD2Ev@Base 3.2.1~
 _ZN8casacore9ArrayBase10assignBaseERKS0_b@Base 3.2.1~
 _ZN8casacore9ArrayBase10makeSubsetERS0_RKNS_9IPositionES4_S4_@Base 3.2.1~
 _ZN8casacore9ArrayBase11getVStorageERb@Base 3.2.1~
 _ZN8casacore9ArrayBase11putVStorageERPvb@Base 3.2.1~
 _ZN8casacore9ArrayBase12makeDiagonalEjx@Base 3.2.1~
 _ZN8casacore9ArrayBase13baseMakeStepsEv@Base 3.2.1~
 _ZN8casacore9ArrayBase14checkCubeShapeEv@Base 3.2.1~
 _ZN8casacore9ArrayBase14reformOrResizeERKNS_9IPositionEbjxbj@Base 3.2.1~
 _ZN8casacore9ArrayBase15throwNdimVectorEv@Base 3.2.1~
 _ZN8casacore9ArrayBase16checkMatrixShapeEv@Base 3.2.1~
 _ZN8casacore9ArrayBase16checkVectorShapeEv@Base 3.2.1~
 _ZN8casacore9ArrayBase16copyVectorHelperERKS0_@Base 3.2.1~
 _ZN8casacore9ArrayBase17baseAddDegenerateERS0_j@Base 3.2.1~
 _ZN8casacore9ArrayBase17baseNonDegenerateERKS0_RKNS_9IPositionE@Base 3.2.1~
 _ZN8casacore9ArrayBase6resizeERKNS_9IPositionEb@Base 3.2.1~
 _ZN8casacore9ArrayBase6resizeERKNS_9IPositionEbNS_15ArrayInitPolicyE@Base 3.2.1~
 _ZN8casacore9ArrayBaseC1ERKNS_9IPositionE@Base 3.2.1~
 _ZN8casacore9ArrayBaseC1ERKS0_@Base 3.2.1~
 _ZN8casacore9ArrayBaseC1Ev@Base 3.2.1~
 _ZN8casacore9ArrayBaseC2ERKNS_9IPositionE@Base 3.2.1~
 _ZN8casacore9ArrayBaseC2ERKS0_@Base 3.2.1~
 _ZN8casacore9ArrayBaseC2Ev@Base 3.2.1~
 _ZN8casacore9ArrayBaseD0Ev@Base 3.2.1~
 _ZN8casacore9ArrayBaseD1Ev@Base 3.2.1~
 _ZN8casacore9ArrayBaseD2Ev@Base 3.2.1~
 _ZN8casacore9ArrayBaseaSERKS0_@Base 3.2.1~
 _ZN8casacore9BitVector3setEb@Base 3.2.1~
 _ZN8casacore9BitVector3setEjjb@Base 3.2.1~
 _ZN8casacore9BitVector4copyEjjRKS0_j@Base 3.2.1~
 _ZN8casacore9BitVector6putBitEjb@Base 3.2.1~
 _ZN8casacore9BitVector6resizeEjbb@Base 3.2.1~
 _ZN8casacore9BitVector7reverseEv@Base 3.2.1~
 _ZN8casacore9BitVector9toggleBitEj@Base 3.2.1~
 _ZN8casacore9BitVectorC1ERKS0_@Base 3.2.1~
 _ZN8casacore9BitVectorC1Ejb@Base 3.2.1~
 _ZN8casacore9BitVectorC1Ev@Base 3.2.1~
 _ZN8casacore9BitVectorC2ERKS0_@Base 3.2.1~
 _ZN8casacore9BitVectorC2Ejb@Base 3.2.1~
 _ZN8casacore9BitVectorC2Ev@Base 3.2.1~
 _ZN8casacore9BitVectorD1Ev@Base 3.2.1~
 _ZN8casacore9BitVectorD2Ev@Base 3.2.1~
 _ZN8casacore9BitVectoraNERKS0_@Base 3.2.1~
 _ZN8casacore9BitVectoraSERKS0_@Base 3.2.1~
 _ZN8casacore9BitVectoraSEb@Base 3.2.1~
 _ZN8casacore9BitVectoreOERKS0_@Base 3.2.1~
 _ZN8casacore9BitVectoroRERKS0_@Base 3.2.1~
 _ZN8casacore9Directory11removeFilesEv@Base 3.2.1~
 _ZN8casacore9Directory11shellExpandERKNS_6VectorINS_6StringEEEb@Base 3.2.1~
 _ZN8casacore9Directory15removeRecursiveEb@Base 3.2.1~
 _ZN8casacore9Directory4moveERKNS_4PathEb@Base 3.2.1~
 _ZN8casacore9Directory6createEb@Base 3.2.1~
 _ZN8casacore9Directory6removeEv@Base 3.2.1~
 _ZN8casacore9Directory9checkPathEv@Base 3.2.1~
 _ZN8casacore9DirectoryC1ERKNS_4FileE@Base 3.2.1~
 _ZN8casacore9DirectoryC1ERKNS_4PathE@Base 3.2.1~
 _ZN8casacore9DirectoryC1ERKNS_6StringE@Base 3.2.1~
 _ZN8casacore9DirectoryC1ERKS0_@Base 3.2.1~
 _ZN8casacore9DirectoryC1Ev@Base 3.2.1~
 _ZN8casacore9DirectoryC2ERKNS_4FileE@Base 3.2.1~
 _ZN8casacore9DirectoryC2ERKNS_4PathE@Base 3.2.1~
 _ZN8casacore9DirectoryC2ERKNS_6StringE@Base 3.2.1~
 _ZN8casacore9DirectoryC2ERKS0_@Base 3.2.1~
 _ZN8casacore9DirectoryC2Ev@Base 3.2.1~
 _ZN8casacore9DirectoryD0Ev@Base 3.2.1~
 _ZN8casacore9DirectoryD1Ev@Base 3.2.1~
 _ZN8casacore9DirectoryD2Ev@Base 3.2.1~
 _ZN8casacore9DirectoryaSERKS0_@Base 3.2.1~
 _ZN8casacore9DuplErrorD0Ev@Base 3.2.1~
 _ZN8casacore9DuplErrorD1Ev@Base 3.2.1~
 _ZN8casacore9DuplErrorD2Ev@Base 3.2.1~
 _ZN8casacore9DynBuffer10allocstartEv@Base 3.2.1~
 _ZN8casacore9DynBuffer4nextERjRPc@Base 3.2.1~
 _ZN8casacore9DynBuffer6newbufEjj@Base 3.2.1~
 _ZN8casacore9DynBuffer6removeEj@Base 3.2.1~
 _ZN8casacore9DynBuffer9nextstartEv@Base 3.2.1~
 _ZN8casacore9DynBufferC1Ej@Base 3.2.1~
 _ZN8casacore9DynBufferC2Ej@Base 3.2.1~
 _ZN8casacore9DynBufferD1Ev@Base 3.2.1~
 _ZN8casacore9DynBufferD2Ev@Base 3.2.1~
 _ZN8casacore9FilebufIO10readBufferExPcxb@Base 3.2.1~
 _ZN8casacore9FilebufIO10writeBlockExPKc@Base 3.2.1~
 _ZN8casacore9FilebufIO11fillRWFlagsEi@Base 3.2.1~
 _ZN8casacore9FilebufIO11writeBufferExPKcx@Base 3.2.1~
 _ZN8casacore9FilebufIO12fillSeekableEv@Base 3.2.1~
 _ZN8casacore9FilebufIO4readExPvb@Base 3.2.1~
 _ZN8casacore9FilebufIO5flushEv@Base 3.2.1~
 _ZN8casacore9FilebufIO5writeExPKv@Base 3.2.1~
 _ZN8casacore9FilebufIO6attachEij@Base 3.2.1~
 _ZN8casacore9FilebufIO6detachEb@Base 3.2.1~
 _ZN8casacore9FilebufIO6doSeekExNS_6ByteIO10SeekOptionE@Base 3.2.1~
 _ZN8casacore9FilebufIO6lengthEv@Base 3.2.1~
 _ZN8casacore9FilebufIO6resyncEv@Base 3.2.1~
 _ZN8casacore9FilebufIO9readBlockExPcb@Base 3.2.1~
 _ZN8casacore9FilebufIO9setBufferEx@Base 3.2.1~
 _ZN8casacore9FilebufIOC1Eij@Base 3.2.1~
 _ZN8casacore9FilebufIOC1Ev@Base 3.2.1~
 _ZN8casacore9FilebufIOC2Eij@Base 3.2.1~
 _ZN8casacore9FilebufIOC2Ev@Base 3.2.1~
 _ZN8casacore9FilebufIOD0Ev@Base 3.2.1~
 _ZN8casacore9FilebufIOD1Ev@Base 3.2.1~
 _ZN8casacore9FilebufIOD2Ev@Base 3.2.1~
 _ZN8casacore9FiledesIO11fillRWFlagsEi@Base 3.2.1~
 _ZN8casacore9FiledesIO12fillSeekableEv@Base 3.2.1~
 _ZN8casacore9FiledesIO4openEPKcbb@Base 3.2.1~
 _ZN8casacore9FiledesIO4readExPvb@Base 3.2.1~
 _ZN8casacore9FiledesIO5closeEi@Base 3.2.1~
 _ZN8casacore9FiledesIO5fsyncEv@Base 3.2.1~
 _ZN8casacore9FiledesIO5preadExxPvb@Base 3.2.1~
 _ZN8casacore9FiledesIO5writeExPKv@Base 3.2.1~
 _ZN8casacore9FiledesIO6attachEiRKNS_6StringE@Base 3.2.1~
 _ZN8casacore9FiledesIO6createEPKci@Base 3.2.1~
 _ZN8casacore9FiledesIO6detachEv@Base 3.2.1~
 _ZN8casacore9FiledesIO6doSeekExNS_6ByteIO10SeekOptionE@Base 3.2.1~
 _ZN8casacore9FiledesIO6lengthEv@Base 3.2.1~
 _ZN8casacore9FiledesIO6pwriteExxPKv@Base 3.2.1~
 _ZN8casacore9FiledesIOC1EiRKNS_6StringE@Base 3.2.1~
 _ZN8casacore9FiledesIOC1Ev@Base 3.2.1~
 _ZN8casacore9FiledesIOC2EiRKNS_6StringE@Base 3.2.1~
 _ZN8casacore9FiledesIOC2Ev@Base 3.2.1~
 _ZN8casacore9FiledesIOD0Ev@Base 3.2.1~
 _ZN8casacore9FiledesIOD1Ev@Base 3.2.1~
 _ZN8casacore9FiledesIOD2Ev@Base 3.2.1~
 _ZN8casacore9Geometric11probabilityEd@Base 3.2.1~
 _ZN8casacore9Geometric13setParametersERKNS_6VectorIdEE@Base 3.2.1~
 _ZN8casacore9Geometric5asIntEv@Base 3.2.1~
 _ZN8casacore9GeometricC1EPNS_3RNGEd@Base 3.2.1~
 _ZN8casacore9GeometricC2EPNS_3RNGEd@Base 3.2.1~
 _ZN8casacore9GeometricD0Ev@Base 3.2.1~
 _ZN8casacore9GeometricD1Ev@Base 3.2.1~
 _ZN8casacore9GeometricD2Ev@Base 3.2.1~
 _ZN8casacore9GeometricclEv@Base 3.2.1~
 _ZN8casacore9HDF5ErrorC1ENS_9AipsError8CategoryE@Base 3.2.1~
 _ZN8casacore9HDF5ErrorC1ERKNS_6StringENS_9AipsError8CategoryE@Base 3.2.1~
 _ZN8casacore9HDF5ErrorC2ENS_9AipsError8CategoryE@Base 3.2.1~
 _ZN8casacore9HDF5ErrorC2ERKNS_6StringENS_9AipsError8CategoryE@Base 3.2.1~
 _ZN8casacore9HDF5ErrorD0Ev@Base 3.2.1~
 _ZN8casacore9HDF5ErrorD1Ev@Base 3.2.1~
 _ZN8casacore9HDF5ErrorD2Ev@Base 3.2.1~
 _ZN8casacore9HDF5Group4initElRKNS_6StringES3_bb@Base 3.2.1~
 _ZN8casacore9HDF5Group5closeEv@Base 3.2.1~
 _ZN8casacore9HDF5Group6existsERKNS_10HDF5ObjectERKNS_6StringE@Base 3.2.1~
 _ZN8casacore9HDF5Group6removeERKNS_10HDF5ObjectERKNS_6StringE@Base 3.2.1~
 _ZN8casacore9HDF5Group9linkNamesERKNS_10HDF5ObjectE@Base 3.2.1~
 _ZN8casacore9HDF5GroupD0Ev@Base 3.2.1~
 _ZN8casacore9HDF5GroupD1Ev@Base 3.2.1~
 _ZN8casacore9HDF5GroupD2Ev@Base 3.2.1~
 _ZN8casacore9IPosition12makeAxisPathEjRKS0_@Base 3.2.1~
 _ZN8casacore9IPosition14allocateBufferEv@Base 3.2.1~
 _ZN8casacore9IPosition6appendERKS0_@Base 3.2.1~
 _ZN8casacore9IPosition6resizeEjb@Base 3.2.1~
 _ZN8casacore9IPosition7prependERKS0_@Base 3.2.1~
 _ZN8casacore9IPosition7setLastERKS0_@Base 3.2.1~
 _ZN8casacore9IPosition8setFirstERKS0_@Base 3.2.1~
 _ZN8casacore9IPosition9otherAxesEjRKS0_@Base 3.2.1~
 _ZN8casacore9IPositionC1ERKNS_5ArrayIiEE@Base 3.2.1~
 _ZN8casacore9IPositionC1ERKS0_@Base 3.2.1~
 _ZN8casacore9IPositionC1ERKSt6vectorIiSaIiEE@Base 3.2.1~
 _ZN8casacore9IPositionC1Ej@Base 3.2.1~
 _ZN8casacore9IPositionC1Ejl@Base 3.2.1~
 _ZN8casacore9IPositionC1Ejllllllllll@Base 3.2.1~
 _ZN8casacore9IPositionC2ERKNS_5ArrayIiEE@Base 3.2.1~
 _ZN8casacore9IPositionC2ERKS0_@Base 3.2.1~
 _ZN8casacore9IPositionC2ERKSt6vectorIiSaIiEE@Base 3.2.1~
 _ZN8casacore9IPositionC2Ej@Base 3.2.1~
 _ZN8casacore9IPositionC2Ejl@Base 3.2.1~
 _ZN8casacore9IPositionC2Ejllllllllll@Base 3.2.1~
 _ZN8casacore9IPositionD1Ev@Base 3.2.1~
 _ZN8casacore9IPositionD2Ev@Base 3.2.1~
 _ZN8casacore9IPositionaSERKS0_@Base 3.2.1~
 _ZN8casacore9IPositionaSEl@Base 3.2.1~
 _ZN8casacore9IPositiondVERKS0_@Base 3.2.1~
 _ZN8casacore9IPositiondVEl@Base 3.2.1~
 _ZN8casacore9IPositionmIERKS0_@Base 3.2.1~
 _ZN8casacore9IPositionmIEl@Base 3.2.1~
 _ZN8casacore9IPositionmLERKS0_@Base 3.2.1~
 _ZN8casacore9IPositionmLEl@Base 3.2.1~
 _ZN8casacore9IPositionpLERKS0_@Base 3.2.1~
 _ZN8casacore9IPositionpLEl@Base 3.2.1~
 _ZN8casacore9IterErrorC1EPKcNS_9AipsError8CategoryE@Base 3.2.1~
 _ZN8casacore9IterErrorC2EPKcNS_9AipsError8CategoryE@Base 3.2.1~
 _ZN8casacore9IterErrorD0Ev@Base 3.2.1~
 _ZN8casacore9IterErrorD1Ev@Base 3.2.1~
 _ZN8casacore9IterErrorD2Ev@Base 3.2.1~
 _ZN8casacore9JsonErrorC1ERKNS_6StringE@Base 3.2.1~
 _ZN8casacore9JsonErrorC2ERKNS_6StringE@Base 3.2.1~
 _ZN8casacore9JsonErrorD0Ev@Base 3.2.1~
 _ZN8casacore9JsonErrorD1Ev@Base 3.2.1~
 _ZN8casacore9JsonErrorD2Ev@Base 3.2.1~
 _ZN8casacore9JsonKVMapC1ERKS0_@Base 3.2.1~
 _ZN8casacore9JsonKVMapC1Ev@Base 3.2.1~
 _ZN8casacore9JsonKVMapC2ERKS0_@Base 3.2.1~
 _ZN8casacore9JsonKVMapC2Ev@Base 3.2.1~
 _ZN8casacore9JsonKVMapD1Ev@Base 3.2.1~
 _ZN8casacore9JsonKVMapD2Ev@Base 3.2.1~
 _ZN8casacore9JsonKVMapaSERKS0_@Base 3.2.1~
 _ZN8casacore9JsonValue5clearEv@Base 3.2.1~
 _ZN8casacore9JsonValue9copyValueERKS0_@Base 3.2.1~
 _ZN8casacore9JsonValueC1EPKc@Base 3.2.1~
 _ZN8casacore9JsonValueC1ERKNS_6StringE@Base 3.2.1~
 _ZN8casacore9JsonValueC1ERKNS_9JsonKVMapE@Base 3.2.1~
 _ZN8casacore9JsonValueC1ERKS0_@Base 3.2.1~
 _ZN8casacore9JsonValueC1ERKSt6vectorIS0_SaIS0_EE@Base 3.2.1~
 _ZN8casacore9JsonValueC1ERKSt7complexIdE@Base 3.2.1~
 _ZN8casacore9JsonValueC1Eb@Base 3.2.1~
 _ZN8casacore9JsonValueC1Ed@Base 3.2.1~
 _ZN8casacore9JsonValueC1Ei@Base 3.2.1~
 _ZN8casacore9JsonValueC1Ev@Base 3.2.1~
 _ZN8casacore9JsonValueC1Ex@Base 3.2.1~
 _ZN8casacore9JsonValueC2EPKc@Base 3.2.1~
 _ZN8casacore9JsonValueC2ERKNS_6StringE@Base 3.2.1~
 _ZN8casacore9JsonValueC2ERKNS_9JsonKVMapE@Base 3.2.1~
 _ZN8casacore9JsonValueC2ERKS0_@Base 3.2.1~
 _ZN8casacore9JsonValueC2ERKSt6vectorIS0_SaIS0_EE@Base 3.2.1~
 _ZN8casacore9JsonValueC2ERKSt7complexIdE@Base 3.2.1~
 _ZN8casacore9JsonValueC2Eb@Base 3.2.1~
 _ZN8casacore9JsonValueC2Ed@Base 3.2.1~
 _ZN8casacore9JsonValueC2Ei@Base 3.2.1~
 _ZN8casacore9JsonValueC2Ev@Base 3.2.1~
 _ZN8casacore9JsonValueC2Ex@Base 3.2.1~
 _ZN8casacore9JsonValueD1Ev@Base 3.2.1~
 _ZN8casacore9JsonValueD2Ev@Base 3.2.1~
 _ZN8casacore9JsonValueaSERKS0_@Base 3.2.1~
 _ZN8casacore9LogFilterC1ENS_10LogMessage8PriorityE@Base 3.2.1~
 _ZN8casacore9LogFilterC1ERKS0_@Base 3.2.1~
 _ZN8casacore9LogFilterC2ENS_10LogMessage8PriorityE@Base 3.2.1~
 _ZN8casacore9LogFilterC2ERKS0_@Base 3.2.1~
 _ZN8casacore9LogFilterD0Ev@Base 3.2.1~
 _ZN8casacore9LogFilterD1Ev@Base 3.2.1~
 _ZN8casacore9LogFilterD2Ev@Base 3.2.1~
 _ZN8casacore9LogFilteraSERKS0_@Base 3.2.1~
 _ZN8casacore9LogNormal13setParametersERKNS_6VectorIdEE@Base 3.2.1~
 _ZN8casacore9LogNormal4meanEd@Base 3.2.1~
 _ZN8casacore9LogNormal8setStateEv@Base 3.2.1~
 _ZN8casacore9LogNormal8varianceEd@Base 3.2.1~
 _ZN8casacore9LogNormalC1EPNS_3RNGEdd@Base 3.2.1~
 _ZN8casacore9LogNormalC2EPNS_3RNGEdd@Base 3.2.1~
 _ZN8casacore9LogNormalD0Ev@Base 3.2.1~
 _ZN8casacore9LogNormalD1Ev@Base 3.2.1~
 _ZN8casacore9LogNormalD2Ev@Base 3.2.1~
 _ZN8casacore9LogNormalclEv@Base 3.2.1~
 _ZN8casacore9LogOrigin10copy_otherERKS0_@Base 3.2.1~
 _ZN8casacore9LogOrigin12functionNameERKNS_6StringE@Base 3.2.1~
 _ZN8casacore9LogOrigin14sourceLocationEPKNS_14SourceLocationE@Base 3.2.1~
 _ZN8casacore9LogOrigin4lineEj@Base 3.2.1~
 _ZN8casacore9LogOrigin7getNodeEv@Base 3.2.1~
 _ZN8casacore9LogOrigin8fileNameERKNS_6StringE@Base 3.2.1~
 _ZN8casacore9LogOrigin8objectIDERKNS_8ObjectIDE@Base 3.2.1~
 _ZN8casacore9LogOrigin8taskNameERKNS_6StringE@Base 3.2.1~
 _ZN8casacore9LogOrigin9classNameERKNS_6StringE@Base 3.2.1~
 _ZN8casacore9LogOriginC1ERKNS_6StringEPKNS_14SourceLocationE@Base 3.2.1~
 _ZN8casacore9LogOriginC1ERKNS_6StringES3_PKNS_14SourceLocationE@Base 3.2.1~
 _ZN8casacore9LogOriginC1ERKNS_6StringES3_RKNS_8ObjectIDEPKNS_14SourceLocationE@Base 3.2.1~
 _ZN8casacore9LogOriginC1ERKS0_@Base 3.2.1~
 _ZN8casacore9LogOriginC1Ev@Base 3.2.1~
 _ZN8casacore9LogOriginC2ERKNS_6StringEPKNS_14SourceLocationE@Base 3.2.1~
 _ZN8casacore9LogOriginC2ERKNS_6StringES3_PKNS_14SourceLocationE@Base 3.2.1~
 _ZN8casacore9LogOriginC2ERKNS_6StringES3_RKNS_8ObjectIDEPKNS_14SourceLocationE@Base 3.2.1~
 _ZN8casacore9LogOriginC2ERKS0_@Base 3.2.1~
 _ZN8casacore9LogOriginC2Ev@Base 3.2.1~
 _ZN8casacore9LogOriginD1Ev@Base 3.2.1~
 _ZN8casacore9LogOriginD2Ev@Base 3.2.1~
 _ZN8casacore9LogOriginaSERKS0_@Base 3.2.1~
 _ZN8casacore9MVDoppler6assureERKNS_9MeasValueE@Base 3.2.1~
 _ZN8casacore9MVDoppler8putValueERKNS_6VectorINS_7QuantumIdEEEE@Base 3.2.1~
 _ZN8casacore9MVDoppler9putVectorERKNS_6VectorIdEE@Base 3.2.1~
 _ZN8casacore9MVDopplerC1ERKNS_6VectorINS_7QuantumIdEEEE@Base 3.2.1~
 _ZN8casacore9MVDopplerC1ERKNS_6VectorIdEE@Base 3.2.1~
 _ZN8casacore9MVDopplerC1ERKNS_7QuantumINS_6VectorIdEEEE@Base 3.2.1~
 _ZN8casacore9MVDopplerC1ERKNS_7QuantumIdEE@Base 3.2.1~
 _ZN8casacore9MVDopplerC1ERKS0_@Base 3.2.1~
 _ZN8casacore9MVDopplerC1Ed@Base 3.2.1~
 _ZN8casacore9MVDopplerC1Ev@Base 3.2.1~
 _ZN8casacore9MVDopplerC2ERKNS_6VectorINS_7QuantumIdEEEE@Base 3.2.1~
 _ZN8casacore9MVDopplerC2ERKNS_6VectorIdEE@Base 3.2.1~
 _ZN8casacore9MVDopplerC2ERKNS_7QuantumINS_6VectorIdEEEE@Base 3.2.1~
 _ZN8casacore9MVDopplerC2ERKNS_7QuantumIdEE@Base 3.2.1~
 _ZN8casacore9MVDopplerC2ERKS0_@Base 3.2.1~
 _ZN8casacore9MVDopplerC2Ed@Base 3.2.1~
 _ZN8casacore9MVDopplerC2Ev@Base 3.2.1~
 _ZN8casacore9MVDopplerD0Ev@Base 3.2.1~
 _ZN8casacore9MVDopplerD1Ev@Base 3.2.1~
 _ZN8casacore9MVDopplerD2Ev@Base 3.2.1~
 _ZN8casacore9MVDoppleraSERKS0_@Base 3.2.1~
 _ZN8casacore9MVDopplermIERKS0_@Base 3.2.1~
 _ZN8casacore9MVDopplerpLERKS0_@Base 3.2.1~
 _ZN8casacore9MeasValue6adjustERd@Base 3.2.1~
 _ZN8casacore9MeasValue6adjustEv@Base 3.2.1~
 _ZN8casacore9MeasValue8readjustEd@Base 3.2.1~
 _ZN8casacore9MeasValueD0Ev@Base 3.2.1~
 _ZN8casacore9MeasValueD1Ev@Base 3.2.1~
 _ZN8casacore9MeasValueD2Ev@Base 3.2.1~
 _ZN8casacore9MultiFile10readHeaderEb@Base 3.2.1~
 _ZN8casacore9MultiFile10writeBlockERNS_13MultiFileInfoExPKv@Base 3.2.1~
 _ZN8casacore9MultiFile11writeHeaderEv@Base 3.2.1~
 _ZN8casacore9MultiFile12doDeleteFileERNS_13MultiFileInfoE@Base 3.2.1~
 _ZN8casacore9MultiFile5closeEv@Base 3.2.1~
 _ZN8casacore9MultiFile5fsyncEv@Base 3.2.1~
 _ZN8casacore9MultiFile6extendERNS_13MultiFileInfoEx@Base 3.2.1~
 _ZN8casacore9MultiFile8reopenRWEv@Base 3.2.1~
 _ZN8casacore9MultiFile9doAddFileERNS_13MultiFileInfoE@Base 3.2.1~
 _ZN8casacore9MultiFile9flushFileEv@Base 3.2.1~
 _ZN8casacore9MultiFile9readBlockERNS_13MultiFileInfoExPv@Base 3.2.1~
 _ZN8casacore9MultiFileC1ERKNS_6StringENS_6ByteIO10OpenOptionEib@Base 3.2.1~
 _ZN8casacore9MultiFileC2ERKNS_6StringENS_6ByteIO10OpenOptionEib@Base 3.2.1~
 _ZN8casacore9MultiFileD0Ev@Base 3.2.1~
 _ZN8casacore9MultiFileD1Ev@Base 3.2.1~
 _ZN8casacore9MultiFileD2Ev@Base 3.2.1~
 _ZN8casacore9MultiHDF510readHeaderEb@Base 3.2.1~
 _ZN8casacore9MultiHDF510writeBlockERNS_13MultiFileInfoExPKv@Base 3.2.1~
 _ZN8casacore9MultiHDF511writeHeaderEv@Base 3.2.1~
 _ZN8casacore9MultiHDF512doDeleteFileERNS_13MultiFileInfoE@Base 3.2.1~
 _ZN8casacore9MultiHDF55closeEv@Base 3.2.1~
 _ZN8casacore9MultiHDF55fsyncEv@Base 3.2.1~
 _ZN8casacore9MultiHDF56extendERNS_13MultiFileInfoEx@Base 3.2.1~
 _ZN8casacore9MultiHDF58reopenRWEv@Base 3.2.1~
 _ZN8casacore9MultiHDF59doAddFileERNS_13MultiFileInfoE@Base 3.2.1~
 _ZN8casacore9MultiHDF59flushFileEv@Base 3.2.1~
 _ZN8casacore9MultiHDF59readBlockERNS_13MultiFileInfoExPv@Base 3.2.1~
 _ZN8casacore9MultiHDF5C1ERKNS_6StringENS_6ByteIO10OpenOptionEi@Base 3.2.1~
 _ZN8casacore9MultiHDF5C2ERKNS_6StringENS_6ByteIO10OpenOptionEi@Base 3.2.1~
 _ZN8casacore9MultiHDF5D0Ev@Base 3.2.1~
 _ZN8casacore9MultiHDF5D1Ev@Base 3.2.1~
 _ZN8casacore9MultiHDF5D2Ev@Base 3.2.1~
 _ZN8casacore9PGPlotter17setCreateFunctionEPFS0_RKNS_6StringEjjjjEb@Base 3.2.1~
 _ZN8casacore9PGPlotter2ptERKNS_6VectorIfEES4_i@Base 3.2.1~
 _ZN8casacore9PGPlotter3askEb@Base 3.2.1~
 _ZN8casacore9PGPlotter3binERKNS_6VectorIfEES4_b@Base 3.2.1~
 _ZN8casacore9PGPlotter3boxERKNS_6StringEfiS3_fi@Base 3.2.1~
 _ZN8casacore9PGPlotter3envEffffii@Base 3.2.1~
 _ZN8casacore9PGPlotter3labERKNS_6StringES3_S3_@Base 3.2.1~
 _ZN8casacore9PGPlotter3lenEiRKNS_6StringE@Base 3.2.1~
 _ZN8casacore9PGPlotter3papEff@Base 3.2.1~
 _ZN8casacore9PGPlotter3qahEv@Base 3.2.1~
 _ZN8casacore9PGPlotter3qcfEv@Base 3.2.1~
 _ZN8casacore9PGPlotter3qchEv@Base 3.2.1~
 _ZN8casacore9PGPlotter3qciEv@Base 3.2.1~
 _ZN8casacore9PGPlotter3qcrEi@Base 3.2.1~
 _ZN8casacore9PGPlotter3qcsEi@Base 3.2.1~
 _ZN8casacore9PGPlotter3qfsEv@Base 3.2.1~
 _ZN8casacore9PGPlotter3qhsEv@Base 3.2.1~
 _ZN8casacore9PGPlotter3qidEv@Base 3.2.1~
 _ZN8casacore9PGPlotter3qlsEv@Base 3.2.1~
 _ZN8casacore9PGPlotter3qlwEv@Base 3.2.1~
 _ZN8casacore9PGPlotter3qvpEi@Base 3.2.1~
 _ZN8casacore9PGPlotter3rndEfi@Base 3.2.1~
 _ZN8casacore9PGPlotter3sahEiff@Base 3.2.1~
 _ZN8casacore9PGPlotter3scfEi@Base 3.2.1~
 _ZN8casacore9PGPlotter3schEf@Base 3.2.1~
 _ZN8casacore9PGPlotter3sciEi@Base 3.2.1~
 _ZN8casacore9PGPlotter3scrEifff@Base 3.2.1~
 _ZN8casacore9PGPlotter3sfsEi@Base 3.2.1~
 _ZN8casacore9PGPlotter3shsEfff@Base 3.2.1~
 _ZN8casacore9PGPlotter3slsEi@Base 3.2.1~
 _ZN8casacore9PGPlotter3slwEi@Base 3.2.1~
 _ZN8casacore9PGPlotter3svpEffff@Base 3.2.1~
 _ZN8casacore9PGPlotter4arroEffff@Base 3.2.1~
 _ZN8casacore9PGPlotter4bbufEv@Base 3.2.1~
 _ZN8casacore9PGPlotter4circEfff@Base 3.2.1~
 _ZN8casacore9PGPlotter4conbERKNS_6MatrixIfEERKNS_6VectorIfEES8_f@Base 3.2.1~
 _ZN8casacore9PGPlotter4conlERKNS_6MatrixIfEEfRKNS_6VectorIfEERKNS_6StringEii@Base 3.2.1~
 _ZN8casacore9PGPlotter4consERKNS_6MatrixIfEERKNS_6VectorIfEES8_@Base 3.2.1~
 _ZN8casacore9PGPlotter4contERKNS_6MatrixIfEERKNS_6VectorIfEEbS8_@Base 3.2.1~
 _ZN8casacore9PGPlotter4ctabERKNS_6VectorIfEES4_S4_S4_ff@Base 3.2.1~
 _ZN8casacore9PGPlotter4cursEff@Base 3.2.1~
 _ZN8casacore9PGPlotter4drawEff@Base 3.2.1~
 _ZN8casacore9PGPlotter4ebufEv@Base 3.2.1~
 _ZN8casacore9PGPlotter4erasEv@Base 3.2.1~
 _ZN8casacore9PGPlotter4errbEiRKNS_6VectorIfEES4_S4_f@Base 3.2.1~
 _ZN8casacore9PGPlotter4errxERKNS_6VectorIfEES4_S4_f@Base 3.2.1~
 _ZN8casacore9PGPlotter4erryERKNS_6VectorIfEES4_S4_f@Base 3.2.1~
 _ZN8casacore9PGPlotter4grayERKNS_6MatrixIfEEffRKNS_6VectorIfEE@Base 3.2.1~
 _ZN8casacore9PGPlotter4hi2dERKNS_6MatrixIfEERKNS_6VectorIfEEifbS8_@Base 3.2.1~
 _ZN8casacore9PGPlotter4histERKNS_6VectorIfEEffii@Base 3.2.1~
 _ZN8casacore9PGPlotter4idenEv@Base 3.2.1~
 _ZN8casacore9PGPlotter4imagERKNS_6MatrixIfEEffRKNS_6VectorIfEE@Base 3.2.1~
 _ZN8casacore9PGPlotter4ldevEv@Base 3.2.1~
 _ZN8casacore9PGPlotter4lineERKNS_6VectorIfEES4_@Base 3.2.1~
 _ZN8casacore9PGPlotter4moveEff@Base 3.2.1~
 _ZN8casacore9PGPlotter4mtxtERKNS_6StringEfffS3_@Base 3.2.1~
 _ZN8casacore9PGPlotter4numbEiii@Base 3.2.1~
 _ZN8casacore9PGPlotter4pageEv@Base 3.2.1~
 _ZN8casacore9PGPlotter4panlEii@Base 3.2.1~
 _ZN8casacore9PGPlotter4pixlERKNS_6MatrixIiEEffff@Base 3.2.1~
 _ZN8casacore9PGPlotter4pntsERKNS_6VectorIfEES4_NS1_IiEE@Base 3.2.1~
 _ZN8casacore9PGPlotter4polyERKNS_6VectorIfEES4_@Base 3.2.1~
 _ZN8casacore9PGPlotter4ptxtEffffRKNS_6StringE@Base 3.2.1~
 _ZN8casacore9PGPlotter4qcirEv@Base 3.2.1~
 _ZN8casacore9PGPlotter4qcolEv@Base 3.2.1~
 _ZN8casacore9PGPlotter4qinfERKNS_6StringE@Base 3.2.1~
 _ZN8casacore9PGPlotter4qitfEv@Base 3.2.1~
 _ZN8casacore9PGPlotter4qposEv@Base 3.2.1~
 _ZN8casacore9PGPlotter4qtbgEv@Base 3.2.1~
 _ZN8casacore9PGPlotter4qtxtEffffRKNS_6StringE@Base 3.2.1~
 _ZN8casacore9PGPlotter4qvszEi@Base 3.2.1~
 _ZN8casacore9PGPlotter4qwinEv@Base 3.2.1~
 _ZN8casacore9PGPlotter4rectEffff@Base 3.2.1~
 _ZN8casacore9PGPlotter4rngeEff@Base 3.2.1~
 _ZN8casacore9PGPlotter4saveEv@Base 3.2.1~
 _ZN8casacore9PGPlotter4scirEii@Base 3.2.1~
 _ZN8casacore9PGPlotter4scrnEiRKNS_6StringE@Base 3.2.1~
 _ZN8casacore9PGPlotter4shlsEifff@Base 3.2.1~
 _ZN8casacore9PGPlotter4sitfEi@Base 3.2.1~
 _ZN8casacore9PGPlotter4stbgEi@Base 3.2.1~
 _ZN8casacore9PGPlotter4subpEii@Base 3.2.1~
 _ZN8casacore9PGPlotter4swinEffff@Base 3.2.1~
 _ZN8casacore9PGPlotter4tboxERKNS_6StringEfiS3_fi@Base 3.2.1~
 _ZN8casacore9PGPlotter4textEffRKNS_6StringE@Base 3.2.1~
 _ZN8casacore9PGPlotter4unsaEv@Base 3.2.1~
 _ZN8casacore9PGPlotter4updtEv@Base 3.2.1~
 _ZN8casacore9PGPlotter4vectERKNS_6MatrixIfEES4_fiRKNS_6VectorIfEEf@Base 3.2.1~
 _ZN8casacore9PGPlotter4vsizEffff@Base 3.2.1~
 _ZN8casacore9PGPlotter4vstdEv@Base 3.2.1~
 _ZN8casacore9PGPlotter4wedgERKNS_6StringEffffS3_@Base 3.2.1~
 _ZN8casacore9PGPlotter4wnadEffff@Base 3.2.1~
 _ZN8casacore9PGPlotter6createERKNS_6StringEjjjj@Base 3.2.1~
 _ZN8casacore9PGPlotter6detachEv@Base 3.2.1~
 _ZN8casacore9PGPlotter7messageERKNS_6StringE@Base 3.2.1~
 _ZN8casacore9PGPlotter9creator_pE@Base 3.2.1~
 _ZN8casacore9PGPlotterC1EPNS_18PGPlotterInterfaceE@Base 3.2.1~
 _ZN8casacore9PGPlotterC1ERKNS_6StringEjjjj@Base 3.2.1~
 _ZN8casacore9PGPlotterC1ERKS0_@Base 3.2.1~
 _ZN8casacore9PGPlotterC1Ev@Base 3.2.1~
 _ZN8casacore9PGPlotterC2EPNS_18PGPlotterInterfaceE@Base 3.2.1~
 _ZN8casacore9PGPlotterC2ERKNS_6StringEjjjj@Base 3.2.1~
 _ZN8casacore9PGPlotterC2ERKS0_@Base 3.2.1~
 _ZN8casacore9PGPlotterC2Ev@Base 3.2.1~
 _ZN8casacore9PGPlotterD0Ev@Base 3.2.1~
 _ZN8casacore9PGPlotterD1Ev@Base 3.2.1~
 _ZN8casacore9PGPlotterD2Ev@Base 3.2.1~
 _ZN8casacore9PGPlotteraSERKS0_@Base 3.2.1~
 _ZN8casacore9PrecTimer16CPU_speed_in_MHzE@Base 3.2.1~
 _ZN8casacore9PrecTimer20get_CPU_speed_in_MHzEv@Base 3.2.1~
 _ZN8casacore9PtrHolderINS_5QBaseEE27delete_pointer_if_necessaryEv@Base 3.2.1~
 _ZN8casacore9PtrHolderINS_6RandomEE27delete_pointer_if_necessaryEv@Base 3.2.1~
 _ZN8casacore9QMakeBoolERKNS_5ArrayIbEE@Base 3.2.1~
 _ZN8casacore9QMakeBoolEi@Base 3.2.1~
 _ZN8casacore9RecordRep10addDataPtrEPv@Base 3.2.1~
 _ZN8casacore9RecordRep10checkShapeENS_8DataTypeERKNS_9IPositionEPKvRKNS_6StringE@Base 3.2.1~
 _ZN8casacore9RecordRep10copy_otherERKS0_@Base 3.2.1~
 _ZN8casacore9RecordRep10getKeyDescERNS_6AipsIOERNS_10RecordDescE@Base 3.2.1~
 _ZN8casacore9RecordRep10mergeFieldERKS0_iNS_15RecordInterface14DuplicatesFlagE@Base 3.2.1~
 _ZN8casacore9RecordRep10removeDataEiPvS1_@Base 3.2.1~
 _ZN8casacore9RecordRep11makeDataVecEiNS_8DataTypeE@Base 3.2.1~
 _ZN8casacore9RecordRep11removeFieldEi@Base 3.2.1~
 _ZN8casacore9RecordRep11restructureERKNS_10RecordDescEb@Base 3.2.1~
 _ZN8casacore9RecordRep12addDataFieldERKNS_6StringENS_8DataTypeERKNS_9IPositionEbPKv@Base 3.2.1~
 _ZN8casacore9RecordRep12getArrayKeysERNS_6AipsIOE@Base 3.2.1~
 _ZN8casacore9RecordRep12getDataFieldERNS_6AipsIOENS_8DataTypeEPv@Base 3.2.1~
 _ZN8casacore9RecordRep13delete_myselfEj@Base 3.2.1~
 _ZN8casacore9RecordRep13getScalarKeysERNS_6AipsIOE@Base 3.2.1~
 _ZN8casacore9RecordRep13removeDataPtrEi@Base 3.2.1~
 _ZN8casacore9RecordRep14addFieldToDescERKNS_6StringENS_8DataTypeERKNS_9IPositionEb@Base 3.2.1~
 _ZN8casacore9RecordRep15createDataFieldENS_8DataTypeERKNS_9IPositionE@Base 3.2.1~
 _ZN8casacore9RecordRep15defineDataFieldEiNS_8DataTypeEPKv@Base 3.2.1~
 _ZN8casacore9RecordRep15deleteDataFieldENS_8DataTypeEPvS2_@Base 3.2.1~
 _ZN8casacore9RecordRep19removeFieldFromDescEi@Base 3.2.1~
 _ZN8casacore9RecordRep5mergeERKS0_NS_15RecordInterface14DuplicatesFlagE@Base 3.2.1~
 _ZN8casacore9RecordRep7getDataERNS_6AipsIOEj@Base 3.2.1~
 _ZN8casacore9RecordRep8addFieldERKNS_6StringERKNS_6RecordENS_15RecordInterface10RecordTypeE@Base 3.2.1~
 _ZN8casacore9RecordRep8copyDataERKS0_@Base 3.2.1~
 _ZN8casacore9RecordRep9getKeySetERNS_6AipsIOEjj@Base 3.2.1~
 _ZN8casacore9RecordRep9getRecordERNS_6AipsIOERi@Base 3.2.1~
 _ZN8casacore9RecordRepC1ERKNS_10RecordDescE@Base 3.2.1~
 _ZN8casacore9RecordRepC1ERKS0_@Base 3.2.1~
 _ZN8casacore9RecordRepC1Ev@Base 3.2.1~
 _ZN8casacore9RecordRepC2ERKNS_10RecordDescE@Base 3.2.1~
 _ZN8casacore9RecordRepC2ERKS0_@Base 3.2.1~
 _ZN8casacore9RecordRepC2Ev@Base 3.2.1~
 _ZN8casacore9RecordRepD0Ev@Base 3.2.1~
 _ZN8casacore9RecordRepD1Ev@Base 3.2.1~
 _ZN8casacore9RecordRepD2Ev@Base 3.2.1~
 _ZN8casacore9RecordRepaSERKS0_@Base 3.2.1~
 _ZN8casacore9RegexBaseD0Ev@Base 3.2.1~
 _ZN8casacore9RegexBaseD1Ev@Base 3.2.1~
 _ZN8casacore9RegexBaseD2Ev@Base 3.2.1~
 _ZN8casacore9RotMatrix11applySingleEdi@Base 3.2.1~
 _ZN8casacore9RotMatrix3setERKNS_6MatrixIdEE@Base 3.2.1~
 _ZN8casacore9RotMatrix3setERKNS_6VectorIdEES4_S4_@Base 3.2.1~
 _ZN8casacore9RotMatrix9transposeEv@Base 3.2.1~
 _ZN8casacore9RotMatrixC1ERKNS_5EulerE@Base 3.2.1~
 _ZN8casacore9RotMatrixC1ERKNS_5EulerEiii@Base 3.2.1~
 _ZN8casacore9RotMatrixC1ERKS0_@Base 3.2.1~
 _ZN8casacore9RotMatrixC1Ev@Base 3.2.1~
 _ZN8casacore9RotMatrixC2ERKNS_5EulerE@Base 3.2.1~
 _ZN8casacore9RotMatrixC2ERKNS_5EulerEiii@Base 3.2.1~
 _ZN8casacore9RotMatrixC2ERKS0_@Base 3.2.1~
 _ZN8casacore9RotMatrixC2Ev@Base 3.2.1~
 _ZN8casacore9RotMatrixD1Ev@Base 3.2.1~
 _ZN8casacore9RotMatrixD2Ev@Base 3.2.1~
 _ZN8casacore9RotMatrixaSERKS0_@Base 3.2.1~
 _ZN8casacore9RotMatrixclEjj@Base 3.2.1~
 _ZN8casacore9RotMatrixmLERKS0_@Base 3.2.1~
 _ZN8casacore9SortErrorC1ENS_9AipsError8CategoryE@Base 3.2.1~
 _ZN8casacore9SortErrorC1ERKNS_6StringENS_9AipsError8CategoryE@Base 3.2.1~
 _ZN8casacore9SortErrorC2ENS_9AipsError8CategoryE@Base 3.2.1~
 _ZN8casacore9SortErrorC2ERKNS_6StringENS_9AipsError8CategoryE@Base 3.2.1~
 _ZN8casacore9SortErrorD0Ev@Base 3.2.1~
 _ZN8casacore9SortErrorD1Ev@Base 3.2.1~
 _ZN8casacore9SortErrorD2Ev@Base 3.2.1~
 _ZN8casacore9SortInvDTC1ENS_9AipsError8CategoryE@Base 3.2.1~
 _ZN8casacore9SortInvDTC2ENS_9AipsError8CategoryE@Base 3.2.1~
 _ZN8casacore9SortInvDTD0Ev@Base 3.2.1~
 _ZN8casacore9SortInvDTD1Ev@Base 3.2.1~
 _ZN8casacore9SortInvDTD2Ev@Base 3.2.1~
 _ZN8casacore9SubStringaSEPKc@Base 3.2.1~
 _ZN8casacore9SubStringaSERKNS_6StringE@Base 3.2.1~
 _ZN8casacore9SubStringaSERKS0_@Base 3.2.1~
 _ZN8casacore9SubStringaSEc@Base 3.2.1~
 _ZN8casacore9amplitudeERKNS_5ArrayISt7complexIdEEE@Base 3.2.1~
 _ZN8casacore9amplitudeERKNS_5ArrayISt7complexIfEEE@Base 3.2.1~
 _ZN8casacore9amplitudeERNS_5ArrayIdEERKNS0_ISt7complexIdEEE@Base 3.2.1~
 _ZN8casacore9amplitudeERNS_5ArrayIfEERKNS0_ISt7complexIfEEE@Base 3.2.1~
 _ZN8casacore9conjugateERKNS_6MatrixISt7complexIdEEE@Base 3.2.1~
 _ZN8casacore9conjugateERKNS_6MatrixISt7complexIfEEE@Base 3.2.1~
 _ZN8casacore9doubleInfEv@Base 3.2.1~
 _ZN8casacore9doubleNaNEv@Base 3.2.1~
 _ZN8casacore9isComplexENS_8DataTypeE@Base 3.2.1~
 _ZN8casacore9isNumericENS_8DataTypeE@Base 3.2.1~
 _ZN8casacore9objtestmvERmS0_S0_PKvS2_mmmS2_S2_mm@Base 3.2.1~
 _ZN8casacore9replicateERKNSt7__cxx1112basic_stringIcSt11char_traitsIcESaIcEEEm@Base 3.2.1~
 _ZN8casacore9replicateEcm@Base 3.2.1~
 _ZN8casacoreaaIbEENS_5ArrayIbEERKNS1_IT_EES6_@Base 3.2.1~
 _ZN8casacoredvERKNS_5ArrayISt7complexIdEEEd@Base 3.2.1~
 _ZN8casacoredvERKNS_5ArrayISt7complexIfEEEd@Base 3.2.1~
 _ZN8casacoredvERKNS_5ArrayIfEEd@Base 3.2.1~
 _ZN8casacoredvERKNS_5ArrayIiEEd@Base 3.2.1~
 _ZN8casacoredvERKNS_7UnitValES2_@Base 3.2.1~
 _ZN8casacoredvERKNS_9IPositionES2_@Base 3.2.1~
 _ZN8casacoredvERKNS_9IPositionEl@Base 3.2.1~
 _ZN8casacoredvElRKNS_9IPositionE@Base 3.2.1~
 _ZN8casacoreeqERKNS_9IPositionES2_@Base 3.2.1~
 _ZN8casacoreeqERKNS_9IPositionEl@Base 3.2.1~
 _ZN8casacoreeqElRKNS_9IPositionE@Base 3.2.1~
 _ZN8casacoregeERKNS_9IPositionES2_@Base 3.2.1~
 _ZN8casacoregeERKNS_9IPositionEl@Base 3.2.1~
 _ZN8casacoregeElRKNS_9IPositionE@Base 3.2.1~
 _ZN8casacoregtERKNS_9IPositionES2_@Base 3.2.1~
 _ZN8casacoregtERKNS_9IPositionEl@Base 3.2.1~
 _ZN8casacoregtElRKNS_9IPositionE@Base 3.2.1~
 _ZN8casacoregtIdEEbRKNS_7QuantumIT_EES5_@Base 3.2.1~
 _ZN8casacoreleERKNS_9IPositionES2_@Base 3.2.1~
 _ZN8casacoreleERKNS_9IPositionEl@Base 3.2.1~
 _ZN8casacoreleElRKNS_9IPositionE@Base 3.2.1~
 _ZN8casacorelsERNS_5LogIOENS0_7CommandE@Base 3.2.1~
 _ZN8casacorelsERNS_5LogIOEPFRSoS2_E@Base 3.2.1~
 _ZN8casacorelsERNS_5LogIOEPKNS_14SourceLocationE@Base 3.2.1~
 _ZN8casacorelsERNS_5LogIOEPKc@Base 3.2.1~
 _ZN8casacorelsERNS_5LogIOERKNS_5QBaseE@Base 3.2.1~
 _ZN8casacorelsERNS_5LogIOERKNS_6StringE@Base 3.2.1~
 _ZN8casacorelsERNS_5LogIOERKNS_9AipsErrorE@Base 3.2.1~
 _ZN8casacorelsERNS_5LogIOERKNS_9IPositionE@Base 3.2.1~
 _ZN8casacorelsERNS_5LogIOERKNS_9LogOriginE@Base 3.2.1~
 _ZN8casacorelsERNS_5LogIOESt7complexIdE@Base 3.2.1~
 _ZN8casacorelsERNS_5LogIOESt7complexIfE@Base 3.2.1~
 _ZN8casacorelsERNS_5LogIOEb@Base 3.2.1~
 _ZN8casacorelsERNS_5LogIOEd@Base 3.2.1~
 _ZN8casacorelsERNS_5LogIOEi@Base 3.2.1~
 _ZN8casacorelsERNS_5LogIOEj@Base 3.2.1~
 _ZN8casacorelsERNS_5LogIOEl@Base 3.2.1~
 _ZN8casacorelsERNS_5LogIOEm@Base 3.2.1~
 _ZN8casacorelsERNS_5LogIOEx@Base 3.2.1~
 _ZN8casacorelsERNS_5LogIOEy@Base 3.2.1~
 _ZN8casacorelsERNS_6AipsIOERKNS_13MultiFileInfoE@Base 3.2.1~
 _ZN8casacorelsERNS_6AipsIOERKNS_5ParamE@Base 3.2.1~
 _ZN8casacorelsERNS_6AipsIOERKNS_9IPositionE@Base 3.2.1~
 _ZN8casacorelsERSoNS_8DataTypeE@Base 3.2.1~
 _ZN8casacorelsERSoRKNS_10LogMessageE@Base 3.2.1~
 _ZN8casacorelsERSoRKNS_13MultiFileInfoE@Base 3.2.1~
 _ZN8casacorelsERSoRKNS_5EulerE@Base 3.2.1~
 _ZN8casacorelsERSoRKNS_5ParamE@Base 3.2.1~
 _ZN8casacorelsERSoRKNS_5QBaseE@Base 3.2.1~
 _ZN8casacorelsERSoRKNS_5RegexE@Base 3.2.1~
 _ZN8casacorelsERSoRKNS_6MVTime6FormatE@Base 3.2.1~
 _ZN8casacorelsERSoRKNS_6MVTimeE@Base 3.2.1~
 _ZN8casacorelsERSoRKNS_6SlicerE@Base 3.2.1~
 _ZN8casacorelsERSoRKNS_7MVAngle6FormatE@Base 3.2.1~
 _ZN8casacorelsERSoRKNS_7MVAngleE@Base 3.2.1~
 _ZN8casacorelsERSoRKNS_7UnitDimE@Base 3.2.1~
 _ZN8casacorelsERSoRKNS_7UnitValE@Base 3.2.1~
 _ZN8casacorelsERSoRKNS_8IComplexE@Base 3.2.1~
 _ZN8casacorelsERSoRKNS_8MUStringE@Base 3.2.1~
 _ZN8casacorelsERSoRKNS_8ObjectIDE@Base 3.2.1~
 _ZN8casacorelsERSoRKNS_8UnitNameE@Base 3.2.1~
 _ZN8casacorelsERSoRKNS_9BitVectorE@Base 3.2.1~
 _ZN8casacorelsERSoRKNS_9IPositionE@Base 3.2.1~
 _ZN8casacorelsERSoRKNS_9JsonKVMapE@Base 3.2.1~
 _ZN8casacorelsERSoRKNS_9JsonValueE@Base 3.2.1~
 _ZN8casacorelsERSoRKNS_9LogOriginE@Base 3.2.1~
 _ZN8casacorelsERSoRKNS_9MeasValueE@Base 3.2.1~
 _ZN8casacorelsERSoRKNS_9RotMatrixE@Base 3.2.1~
 _ZN8casacorelsINS_6StringEEERSoS2_RKNS_5ArrayIT_EE@Base 3.2.1~
 _ZN8casacorelsISt7complexIdEEERSoS3_RKNS_5ArrayIT_EE@Base 3.2.1~
 _ZN8casacorelsISt7complexIfEEERSoS3_RKNS_5ArrayIT_EE@Base 3.2.1~
 _ZN8casacorelsIbEERSoS1_RKNS_5ArrayIT_EE@Base 3.2.1~
 _ZN8casacorelsIdEERSoS1_RKNS_5ArrayIT_EE@Base 3.2.1~
 _ZN8casacorelsIfEERSoS1_RKNS_5ArrayIT_EE@Base 3.2.1~
 _ZN8casacorelsIhEERSoS1_RKNS_5ArrayIT_EE@Base 3.2.1~
 _ZN8casacorelsIiEERSoS1_RKNS_5ArrayIT_EE@Base 3.2.1~
 _ZN8casacorelsIjEERSoS1_RKNS_5ArrayIT_EE@Base 3.2.1~
 _ZN8casacorelsIsEERSoS1_RKNS_5ArrayIT_EE@Base 3.2.1~
 _ZN8casacorelsIxEERSoS1_RKNS_5ArrayIT_EE@Base 3.2.1~
 _ZN8casacoreltERKNS_9IPositionES2_@Base 3.2.1~
 _ZN8casacoreltERKNS_9IPositionEl@Base 3.2.1~
 _ZN8casacoreltElRKNS_9IPositionE@Base 3.2.1~
 _ZN8casacoremIIdEEvRNS_5ArrayIT_EERKS3_@Base 3.2.1~
 _ZN8casacoremiERKNS_9IPositionES2_@Base 3.2.1~
 _ZN8casacoremiERKNS_9IPositionEl@Base 3.2.1~
 _ZN8casacoremiElRKNS_9IPositionE@Base 3.2.1~
 _ZN8casacoremlERKNS_10MVBaselineERKNS_10MVPositionE@Base 3.2.1~
 _ZN8casacoremlERKNS_10MVBaselineERKNS_6VectorIdEE@Base 3.2.1~
 _ZN8casacoremlERKNS_10MVBaselineERKNS_9RotMatrixE@Base 3.2.1~
 _ZN8casacoremlERKNS_10MVBaselineEd@Base 3.2.1~
 _ZN8casacoremlERKNS_10MVPositionERKNS_10MVBaselineE@Base 3.2.1~
 _ZN8casacoremlERKNS_10MVPositionERKNS_15MVEarthMagneticE@Base 3.2.1~
 _ZN8casacoremlERKNS_10MVPositionERKNS_5MVuvwE@Base 3.2.1~
 _ZN8casacoremlERKNS_10MVPositionERKNS_6VectorIdEE@Base 3.2.1~
 _ZN8casacoremlERKNS_10MVPositionERKNS_9RotMatrixE@Base 3.2.1~
 _ZN8casacoremlERKNS_10MVPositionEd@Base 3.2.1~
 _ZN8casacoremlERKNS_11MVDirectionERKNS_9RotMatrixE@Base 3.2.1~
 _ZN8casacoremlERKNS_11MaskedArrayISt7complexIfEEERKf@Base 3.2.1~
 _ZN8casacoremlERKNS_15MVEarthMagneticERKNS_10MVPositionE@Base 3.2.1~
 _ZN8casacoremlERKNS_15MVEarthMagneticERKNS_6VectorIdEE@Base 3.2.1~
 _ZN8casacoremlERKNS_15MVEarthMagneticERKNS_9RotMatrixE@Base 3.2.1~
 _ZN8casacoremlERKNS_15MVEarthMagneticEd@Base 3.2.1~
 _ZN8casacoremlERKNS_5ArrayISt7complexIdEEEd@Base 3.2.1~
 _ZN8casacoremlERKNS_5ArrayISt7complexIfEEEd@Base 3.2.1~
 _ZN8casacoremlERKNS_5ArrayIfEEd@Base 3.2.1~
 _ZN8casacoremlERKNS_5ArrayIiEEd@Base 3.2.1~
 _ZN8casacoremlERKNS_5MVuvwERKNS_10MVPositionE@Base 3.2.1~
 _ZN8casacoremlERKNS_5MVuvwERKNS_6VectorIdEE@Base 3.2.1~
 _ZN8casacoremlERKNS_5MVuvwERKNS_9RotMatrixE@Base 3.2.1~
 _ZN8casacoremlERKNS_5MVuvwEd@Base 3.2.1~
 _ZN8casacoremlERKNS_6VectorIdEERKNS_10MVBaselineE@Base 3.2.1~
 _ZN8casacoremlERKNS_6VectorIdEERKNS_10MVPositionE@Base 3.2.1~
 _ZN8casacoremlERKNS_6VectorIdEERKNS_15MVEarthMagneticE@Base 3.2.1~
 _ZN8casacoremlERKNS_6VectorIdEERKNS_5MVuvwE@Base 3.2.1~
 _ZN8casacoremlERKNS_7UnitValES2_@Base 3.2.1~
 _ZN8casacoremlERKNS_9IPositionES2_@Base 3.2.1~
 _ZN8casacoremlERKNS_9IPositionEl@Base 3.2.1~
 _ZN8casacoremlERKNS_9RotMatrixERKNS_10MVBaselineE@Base 3.2.1~
 _ZN8casacoremlERKNS_9RotMatrixERKNS_10MVPositionE@Base 3.2.1~
 _ZN8casacoremlERKNS_9RotMatrixERKNS_11MVDirectionE@Base 3.2.1~
 _ZN8casacoremlERKNS_9RotMatrixERKNS_15MVEarthMagneticE@Base 3.2.1~
 _ZN8casacoremlERKNS_9RotMatrixERKNS_5MVuvwE@Base 3.2.1~
 _ZN8casacoremlERKfRKNS_11MaskedArrayISt7complexIfEEE@Base 3.2.1~
 _ZN8casacoremlEdRKNS_10MVBaselineE@Base 3.2.1~
 _ZN8casacoremlEdRKNS_10MVPositionE@Base 3.2.1~
 _ZN8casacoremlEdRKNS_15MVEarthMagneticE@Base 3.2.1~
 _ZN8casacoremlEdRKNS_5MVuvwE@Base 3.2.1~
 _ZN8casacoremlElRKNS_9IPositionE@Base 3.2.1~
 _ZN8casacoreneERKNS_9IPositionES2_@Base 3.2.1~
 _ZN8casacoreneERKNS_9IPositionEl@Base 3.2.1~
 _ZN8casacoreneElRKNS_9IPositionE@Base 3.2.1~
 _ZN8casacoreplEPKcRKNS_6StringE@Base 3.2.1~
 _ZN8casacoreplERKNS_6StringEPKc@Base 3.2.1~
 _ZN8casacoreplERKNS_6StringES2_@Base 3.2.1~
 _ZN8casacoreplERKNS_9IPositionES2_@Base 3.2.1~
 _ZN8casacoreplERKNS_9IPositionEl@Base 3.2.1~
 _ZN8casacoreplElRKNS_9IPositionE@Base 3.2.1~
 _ZN8casacorersERNS_6AipsIOERNS_13MultiFileInfoE@Base 3.2.1~
 _ZN8casacorersERNS_6AipsIOERNS_5ParamE@Base 3.2.1~
 _ZN8casacorersERNS_6AipsIOERNS_9IPositionE@Base 3.2.1~
 _ZN8casacorersERSiRNS_4TimeE@Base 3.2.1~
 _ZN8casacorersERSiRNS_5ParamE@Base 3.2.1~
 _ZN8casacorersERSiRNS_6MVTimeE@Base 3.2.1~
 _ZN8casacorersERSiRNS_7MVAngleE@Base 3.2.1~
 _ZN8casacorersERSiRNS_7QuantumIdEE@Base 3.2.1~
 _ZN8casacorersINS_6StringEEERNS_6AipsIOES3_RNS_5ArrayIT_EE@Base 3.2.1~
 _ZN8casacorersISt7complexIdEEERNS_6AipsIOES4_RNS_5ArrayIT_EE@Base 3.2.1~
 _ZN8casacorersISt7complexIfEEERNS_6AipsIOES4_RNS_5ArrayIT_EE@Base 3.2.1~
 _ZN8casacorersIbEERNS_6AipsIOES2_RNS_5ArrayIT_EE@Base 3.2.1~
 _ZN8casacorersIdEERNS_6AipsIOES2_RNS_5ArrayIT_EE@Base 3.2.1~
 _ZN8casacorersIfEERNS_6AipsIOES2_RNS_5ArrayIT_EE@Base 3.2.1~
 _ZN8casacorersIhEERNS_6AipsIOES2_RNS_5ArrayIT_EE@Base 3.2.1~
 _ZN8casacorersIiEERNS_6AipsIOES2_RNS_5ArrayIT_EE@Base 3.2.1~
 _ZN8casacorersIjEERNS_6AipsIOES2_RNS_5ArrayIT_EE@Base 3.2.1~
 _ZN8casacorersIsEERNS_6AipsIOES2_RNS_5ArrayIT_EE@Base 3.2.1~
 _ZN8casacorersIxEERNS_6AipsIOES2_RNS_5ArrayIT_EE@Base 3.2.1~
 _ZNK8casacore10BucketFile4nameEv@Base 3.2.1~
 _ZNK8casacore10BucketFile8fileSizeEv@Base 3.2.1~
 _ZNK8casacore10CountedPtrINS_14ValueHolderRepEE7DeleterIS1_EclEPS1_@Base 3.2.1~
 _ZNK8casacore10CountedPtrINS_5BlockINS_5SliceEEEE7DeleterIS3_EclEPS3_@Base 3.2.1~
 _ZNK8casacore10CountedPtrINS_5BlockINS_6StringEEEE7DeleterIS3_EclEPS3_@Base 3.2.1~
 _ZNK8casacore10CountedPtrINS_5BlockINS_7QuantumIdEEEEE7DeleterIS4_EclEPS4_@Base 3.2.1~
 _ZNK8casacore10CountedPtrINS_5BlockISt7complexIdEEEE7DeleterIS4_EclEPS4_@Base 3.2.1~
 _ZNK8casacore10CountedPtrINS_5BlockISt7complexIfEEEE7DeleterIS4_EclEPS4_@Base 3.2.1~
 _ZNK8casacore10CountedPtrINS_5BlockIbEEE7DeleterIS2_EclEPS2_@Base 3.2.1~
 _ZNK8casacore10CountedPtrINS_5BlockIcEEE7DeleterIS2_EclEPS2_@Base 3.2.1~
 _ZNK8casacore10CountedPtrINS_5BlockIdEEE7DeleterIS2_EclEPS2_@Base 3.2.1~
 _ZNK8casacore10CountedPtrINS_5BlockIfEEE7DeleterIS2_EclEPS2_@Base 3.2.1~
 _ZNK8casacore10CountedPtrINS_5BlockIhEEE7DeleterIS2_EclEPS2_@Base 3.2.1~
 _ZNK8casacore10CountedPtrINS_5BlockIiEEE7DeleterIS2_EclEPS2_@Base 3.2.1~
 _ZNK8casacore10CountedPtrINS_5BlockIjEEE7DeleterIS2_EclEPS2_@Base 3.2.1~
 _ZNK8casacore10CountedPtrINS_5BlockIsEEE7DeleterIS2_EclEPS2_@Base 3.2.1~
 _ZNK8casacore10CountedPtrINS_5BlockItEEE7DeleterIS2_EclEPS2_@Base 3.2.1~
 _ZNK8casacore10CountedPtrINS_5BlockIxEEE7DeleterIS2_EclEPS2_@Base 3.2.1~
 _ZNK8casacore10FileLocker11lastMessageEv@Base 3.2.1~
 _ZNK8casacore10LogMessage11messageTimeEv@Base 3.2.1~
 _ZNK8casacore10LogMessage12toTermStringEv@Base 3.2.1~
 _ZNK8casacore10LogMessage4lineEv@Base 3.2.1~
 _ZNK8casacore10LogMessage6originEv@Base 3.2.1~
 _ZNK8casacore10LogMessage7messageEv@Base 3.2.1~
 _ZNK8casacore10LogMessage8priorityEv@Base 3.2.1~
 _ZNK8casacore10LogMessage8toStringEv@Base 3.2.1~
 _ZNK8casacore10MVBaseline10separationERKS0_@Base 3.2.1~
 _ZNK8casacore10MVBaseline10separationERKS0_RKNS_4UnitE@Base 3.2.1~
 _ZNK8casacore10MVBaseline12crossProductERKS0_@Base 3.2.1~
 _ZNK8casacore10MVBaseline13BaselineAngleERKS0_@Base 3.2.1~
 _ZNK8casacore10MVBaseline13BaselineAngleERKS0_RKNS_4UnitE@Base 3.2.1~
 _ZNK8casacore10MVBaseline14getRecordValueEv@Base 3.2.1~
 _ZNK8casacore10MVBaseline15getXRecordValueEv@Base 3.2.1~
 _ZNK8casacore10MVBaseline16getTMRecordValueEv@Base 3.2.1~
 _ZNK8casacore10MVBaseline3getEv@Base 3.2.1~
 _ZNK8casacore10MVBaseline4nearERKS0_NS_7QuantumIdEE@Base 3.2.1~
 _ZNK8casacore10MVBaseline4nearERKS0_d@Base 3.2.1~
 _ZNK8casacore10MVBaseline4typeEv@Base 3.2.1~
 _ZNK8casacore10MVBaseline5cloneEv@Base 3.2.1~
 _ZNK8casacore10MVBaseline5printERSo@Base 3.2.1~
 _ZNK8casacore10MVBaseline7nearAbsERKS0_d@Base 3.2.1~
 _ZNK8casacore10MVBaseline8getAngleERKNS_4UnitE@Base 3.2.1~
 _ZNK8casacore10MVBaseline8getAngleEv@Base 3.2.1~
 _ZNK8casacore10MVBaseline8getValueEv@Base 3.2.1~
 _ZNK8casacore10MVBaseline9getLengthERKNS_4UnitE@Base 3.2.1~
 _ZNK8casacore10MVBaseline9getLengthEv@Base 3.2.1~
 _ZNK8casacore10MVBaseline9getVectorEv@Base 3.2.1~
 _ZNK8casacore10MVBaselineeqERKS0_@Base 3.2.1~
 _ZNK8casacore10MVBaselinemiERKS0_@Base 3.2.1~
 _ZNK8casacore10MVBaselinemlERKS0_@Base 3.2.1~
 _ZNK8casacore10MVBaselineneERKS0_@Base 3.2.1~
 _ZNK8casacore10MVBaselinengEv@Base 3.2.1~
 _ZNK8casacore10MVBaselineplERKS0_@Base 3.2.1~
 _ZNK8casacore10MVPosition10separationERKS0_@Base 3.2.1~
 _ZNK8casacore10MVPosition10separationERKS0_RKNS_4UnitE@Base 3.2.1~
 _ZNK8casacore10MVPosition12crossProductERKS0_@Base 3.2.1~
 _ZNK8casacore10MVPosition13positionAngleERKS0_@Base 3.2.1~
 _ZNK8casacore10MVPosition13positionAngleERKS0_RKNS_4UnitE@Base 3.2.1~
 _ZNK8casacore10MVPosition14getRecordValueEv@Base 3.2.1~
 _ZNK8casacore10MVPosition15getXRecordValueEv@Base 3.2.1~
 _ZNK8casacore10MVPosition16getTMRecordValueEv@Base 3.2.1~
 _ZNK8casacore10MVPosition3getEv@Base 3.2.1~
 _ZNK8casacore10MVPosition4nearERKS0_NS_7QuantumIdEE@Base 3.2.1~
 _ZNK8casacore10MVPosition4nearERKS0_d@Base 3.2.1~
 _ZNK8casacore10MVPosition4typeEv@Base 3.2.1~
 _ZNK8casacore10MVPosition5cloneEv@Base 3.2.1~
 _ZNK8casacore10MVPosition5printERSo@Base 3.2.1~
 _ZNK8casacore10MVPosition6getLatERKNS_4UnitE@Base 3.2.1~
 _ZNK8casacore10MVPosition6getLatEd@Base 3.2.1~
 _ZNK8casacore10MVPosition6getLatEv@Base 3.2.1~
 _ZNK8casacore10MVPosition7getLongERKNS_4UnitE@Base 3.2.1~
 _ZNK8casacore10MVPosition7getLongEv@Base 3.2.1~
 _ZNK8casacore10MVPosition7nearAbsERKS0_d@Base 3.2.1~
 _ZNK8casacore10MVPosition8getAngleERKNS_4UnitE@Base 3.2.1~
 _ZNK8casacore10MVPosition8getAngleEv@Base 3.2.1~
 _ZNK8casacore10MVPosition8getValueEv@Base 3.2.1~
 _ZNK8casacore10MVPosition9getLengthERKNS_4UnitE@Base 3.2.1~
 _ZNK8casacore10MVPosition9getLengthEv@Base 3.2.1~
 _ZNK8casacore10MVPosition9getVectorEv@Base 3.2.1~
 _ZNK8casacore10MVPositionclEj@Base 3.2.1~
 _ZNK8casacore10MVPositioneqERKS0_@Base 3.2.1~
 _ZNK8casacore10MVPositionmiERKS0_@Base 3.2.1~
 _ZNK8casacore10MVPositionmlERKS0_@Base 3.2.1~
 _ZNK8casacore10MVPositionneERKS0_@Base 3.2.1~
 _ZNK8casacore10MVPositionngEv@Base 3.2.1~
 _ZNK8casacore10MVPositionplERKS0_@Base 3.2.1~
 _ZNK8casacore10ObjCompareINS_6StringEE4compEPKvS4_@Base 3.2.1~
 _ZNK8casacore10ObjCompareINS_6StringEE8dataTypeEv@Base 3.2.1~
 _ZNK8casacore10ObjCompareISt7complexIdEE4compEPKvS5_@Base 3.2.1~
 _ZNK8casacore10ObjCompareISt7complexIdEE8dataTypeEv@Base 3.2.1~
 _ZNK8casacore10ObjCompareISt7complexIfEE4compEPKvS5_@Base 3.2.1~
 _ZNK8casacore10ObjCompareISt7complexIfEE8dataTypeEv@Base 3.2.1~
 _ZNK8casacore10ObjCompareIbE4compEPKvS3_@Base 3.2.1~
 _ZNK8casacore10ObjCompareIbE8dataTypeEv@Base 3.2.1~
 _ZNK8casacore10ObjCompareIcE4compEPKvS3_@Base 3.2.1~
 _ZNK8casacore10ObjCompareIcE8dataTypeEv@Base 3.2.1~
 _ZNK8casacore10ObjCompareIdE4compEPKvS3_@Base 3.2.1~
 _ZNK8casacore10ObjCompareIdE8dataTypeEv@Base 3.2.1~
 _ZNK8casacore10ObjCompareIfE4compEPKvS3_@Base 3.2.1~
 _ZNK8casacore10ObjCompareIfE8dataTypeEv@Base 3.2.1~
 _ZNK8casacore10ObjCompareIhE4compEPKvS3_@Base 3.2.1~
 _ZNK8casacore10ObjCompareIhE8dataTypeEv@Base 3.2.1~
 _ZNK8casacore10ObjCompareIiE4compEPKvS3_@Base 3.2.1~
 _ZNK8casacore10ObjCompareIiE8dataTypeEv@Base 3.2.1~
 _ZNK8casacore10ObjCompareIjE4compEPKvS3_@Base 3.2.1~
 _ZNK8casacore10ObjCompareIjE8dataTypeEv@Base 3.2.1~
 _ZNK8casacore10ObjCompareIsE4compEPKvS3_@Base 3.2.1~
 _ZNK8casacore10ObjCompareIsE8dataTypeEv@Base 3.2.1~
 _ZNK8casacore10ObjCompareItE4compEPKvS3_@Base 3.2.1~
 _ZNK8casacore10ObjCompareItE8dataTypeEv@Base 3.2.1~
