libcasa_derivedmscal.so.4 libcasa-derivedmscal4 #MINVER#
 _ZGVN8casacore15NewDelAllocatorINS_10MDirectionEE5valueE@Base 3.2.1-1kern1
 _ZGVN8casacore15NewDelAllocatorINS_6MVTimeEE5valueE@Base 3.2.1-1kern1
 _ZGVN8casacore15NewDelAllocatorINS_7QuantumIdEEE5valueE@Base 3.2.1-1kern1
 _ZGVN8casacore15NewDelAllocatorIPNS_6SlicerEE5valueE@Base 3.2.1-1kern1
 _ZGVN8casacore16DefaultAllocatorINS_10MDirectionEE5valueE@Base 3.2.1-1kern1
 _ZGVN8casacore16DefaultAllocatorINS_6MVTimeEE5valueE@Base 3.2.1-1kern1
 _ZGVN8casacore16DefaultAllocatorINS_7QuantumIdEEE5valueE@Base 3.2.1-1kern1
 _ZGVN8casacore16DefaultAllocatorIPNS_6SlicerEE5valueE@Base 3.2.1-1kern1
 _ZGVN8casacore17Allocator_private17BulkAllocatorImplINS_17new_del_allocatorINS_10MDirectionEEEE9allocatorE@Base 3.2.1-1kern1
 _ZGVN8casacore17Allocator_private17BulkAllocatorImplINS_17new_del_allocatorINS_6MVTimeEEEE9allocatorE@Base 3.2.1-1kern1
 _ZGVN8casacore17Allocator_private17BulkAllocatorImplINS_17new_del_allocatorINS_7QuantumIdEEEEE9allocatorE@Base 3.2.1-1kern1
 _ZGVN8casacore17Allocator_private17BulkAllocatorImplINS_17new_del_allocatorIPNS_6SlicerEEEE9allocatorE@Base 3.2.1-1kern1
 _ZGVN8casacore17Allocator_private17BulkAllocatorImplINS_18casacore_allocatorINS_10MDirectionELm32EEEE9allocatorE@Base 3.2.1-1kern1
 _ZGVN8casacore17Allocator_private17BulkAllocatorImplINS_18casacore_allocatorINS_6MVTimeELm32EEEE9allocatorE@Base 3.2.1-1kern1
 _ZGVN8casacore17Allocator_private17BulkAllocatorImplINS_18casacore_allocatorINS_6StringELm32EEEE9allocatorE@Base 3.2.1-1kern1
 _ZGVN8casacore17Allocator_private17BulkAllocatorImplINS_18casacore_allocatorINS_7QuantumIdEELm32EEEE9allocatorE@Base 3.2.1-1kern1
 _ZGVN8casacore17Allocator_private17BulkAllocatorImplINS_18casacore_allocatorIPNS_6SlicerELm32EEEE9allocatorE@Base 3.2.1-1kern1
 _ZGVN8casacore17Allocator_private17BulkAllocatorImplINS_18casacore_allocatorIbLm32EEEE9allocatorE@Base 3.2.1-1kern1
 _ZGVN8casacore17Allocator_private17BulkAllocatorImplINS_18casacore_allocatorIjLm32EEEE9allocatorE@Base 3.2.1-1kern1
 _ZGVZN8casacore17Allocator_private17get_allocator_rawINS_17new_del_allocatorINS_10MDirectionEEEEEPNS0_17BulkAllocatorImplIT_EEvE3ptr@Base 3.2.1-1kern1
 _ZGVZN8casacore17Allocator_private17get_allocator_rawINS_17new_del_allocatorINS_6MVTimeEEEEEPNS0_17BulkAllocatorImplIT_EEvE3ptr@Base 3.2.1-1kern1
 _ZGVZN8casacore17Allocator_private17get_allocator_rawINS_17new_del_allocatorINS_7QuantumIdEEEEEEPNS0_17BulkAllocatorImplIT_EEvE3ptr@Base 3.2.1-1kern1
 _ZGVZN8casacore17Allocator_private17get_allocator_rawINS_17new_del_allocatorIPNS_6SlicerEEEEEPNS0_17BulkAllocatorImplIT_EEvE3ptr@Base 3.2.1-1kern1
 _ZGVZN8casacore17Allocator_private17get_allocator_rawINS_18casacore_allocatorINS_10MDirectionELm32EEEEEPNS0_17BulkAllocatorImplIT_EEvE3ptr@Base 3.2.1-1kern1
 _ZGVZN8casacore17Allocator_private17get_allocator_rawINS_18casacore_allocatorINS_6MVTimeELm32EEEEEPNS0_17BulkAllocatorImplIT_EEvE3ptr@Base 3.2.1-1kern1
 _ZGVZN8casacore17Allocator_private17get_allocator_rawINS_18casacore_allocatorINS_7QuantumIdEELm32EEEEEPNS0_17BulkAllocatorImplIT_EEvE3ptr@Base 3.2.1-1kern1
 _ZGVZN8casacore17Allocator_private17get_allocator_rawINS_18casacore_allocatorIPNS_6SlicerELm32EEEEEPNS0_17BulkAllocatorImplIT_EEvE3ptr@Base 3.2.1-1kern1
 _ZGVZN8casacore17Allocator_private17get_allocator_rawINS_18casacore_allocatorIbLm32EEEEEPNS0_17BulkAllocatorImplIT_EEvE3ptr@Base 3.2.1-1kern1
 _ZGVZN8casacore17Allocator_private17get_allocator_rawINS_18casacore_allocatorIjLm32EEEEEPNS0_17BulkAllocatorImplIT_EEvE3ptr@Base 3.2.1-1kern1
 _ZGVZN8casacore7ValType9strdoubleEvE6result@Base 3.2.1-1kern1
 _ZN8casacore10AzElColumn14isShapeDefinedEj@Base 3.2.1-1kern1
 _ZN8casacore10AzElColumn5shapeEj@Base 3.2.1-1kern1
 _ZN8casacore10AzElColumn8getArrayEjRNS_5ArrayIdEE@Base 3.2.1-1kern1
 _ZN8casacore10AzElColumnD0Ev@Base 3.2.1-1kern1
 _ZN8casacore10AzElColumnD1Ev@Base 3.2.1-1kern1
 _ZN8casacore10AzElColumnD2Ev@Base 3.2.1-1kern1
 _ZN8casacore10CountedPtrINS_23MSSelectionErrorHandlerEEaSEPS1_@Base 3.2.1-1kern1
 _ZN8casacore10ItrfColumn14isShapeDefinedEj@Base 3.2.1-1kern1
 _ZN8casacore10ItrfColumn5shapeEj@Base 3.2.1-1kern1
 _ZN8casacore10ItrfColumn8getArrayEjRNS_5ArrayIdEE@Base 3.2.1-1kern1
 _ZN8casacore10ItrfColumnD0Ev@Base 3.2.1-1kern1
 _ZN8casacore10ItrfColumnD1Ev@Base 3.2.1-1kern1
 _ZN8casacore10ItrfColumnD2Ev@Base 3.2.1-1kern1
 _ZN8casacore10LASTColumn3getEjRd@Base 3.2.1-1kern1
 _ZN8casacore10LASTColumnD0Ev@Base 3.2.1-1kern1
 _ZN8casacore10LASTColumnD1Ev@Base 3.2.1-1kern1
 _ZN8casacore10LASTColumnD2Ev@Base 3.2.1-1kern1
 _ZN8casacore11HaDecColumn14isShapeDefinedEj@Base 3.2.1-1kern1
 _ZN8casacore11HaDecColumn5shapeEj@Base 3.2.1-1kern1
 _ZN8casacore11HaDecColumn8getArrayEjRNS_5ArrayIdEE@Base 3.2.1-1kern1
 _ZN8casacore11HaDecColumnD0Ev@Base 3.2.1-1kern1
 _ZN8casacore11HaDecColumnD1Ev@Base 3.2.1-1kern1
 _ZN8casacore11HaDecColumnD2Ev@Base 3.2.1-1kern1
 _ZN8casacore11MSCalEngine10fillAntPosEii@Base 3.2.1-1kern1
 _ZN8casacore11MSCalEngine11fillCalDescEv@Base 3.2.1-1kern1
 _ZN8casacore11MSCalEngine11getSubTableEiRKNS_6StringEb@Base 3.2.1-1kern1
 _ZN8casacore11MSCalEngine12fillFieldDirEii@Base 3.2.1-1kern1
 _ZN8casacore11MSCalEngine12setDirectionERKNS_10MDirectionE@Base 3.2.1-1kern1
 _ZN8casacore11MSCalEngine13setDirColNameERKNS_6StringE@Base 3.2.1-1kern1
 _ZN8casacore11MSCalEngine4initEv@Base 3.2.1-1kern1
 _ZN8casacore11MSCalEngine5getHAEij@Base 3.2.1-1kern1
 _ZN8casacore11MSCalEngine5getPAEij@Base 3.2.1-1kern1
 _ZN8casacore11MSCalEngine7getAzElEijRNS_5ArrayIdEE@Base 3.2.1-1kern1
 _ZN8casacore11MSCalEngine7getItrfEijRNS_5ArrayIdEE@Base 3.2.1-1kern1
 _ZN8casacore11MSCalEngine7getLASTEij@Base 3.2.1-1kern1
 _ZN8casacore11MSCalEngine7setDataEijb@Base 3.2.1-1kern1
 _ZN8casacore11MSCalEngine8getDelayEij@Base 3.2.1-1kern1
 _ZN8casacore11MSCalEngine8getHaDecEijRNS_5ArrayIdEE@Base 3.2.1-1kern1
 _ZN8casacore11MSCalEngine8setTableERKNS_5TableE@Base 3.2.1-1kern1
 _ZN8casacore11MSCalEngine9getNewUVWEbjRNS_5ArrayIdEE@Base 3.2.1-1kern1
 _ZN8casacore11MSCalEngineC1Ev@Base 3.2.1-1kern1
 _ZN8casacore11MSCalEngineC2Ev@Base 3.2.1-1kern1
 _ZN8casacore11MSCalEngineD1Ev@Base 3.2.1-1kern1
 _ZN8casacore11MSCalEngineD2Ev@Base 3.2.1-1kern1
 _ZN8casacore11MeasConvertINS_10MDirectionEE12addFrameTypeEj@Base 3.2.1-1kern1
 _ZN8casacore11MeasConvertINS_10MDirectionEE3setERKNS_4UnitE@Base 3.2.1-1kern1
 _ZN8casacore11MeasConvertINS_10MDirectionEE3setERKNS_9MeasValueE@Base 3.2.1-1kern1
 _ZN8casacore11MeasConvertINS_10MDirectionEE3setERKS1_RKNS_7MeasRefIS1_EE@Base 3.2.1-1kern1
 _ZN8casacore11MeasConvertINS_10MDirectionEE4initEv@Base 3.2.1-1kern1
 _ZN8casacore11MeasConvertINS_10MDirectionEE5clearEv@Base 3.2.1-1kern1
 _ZN8casacore11MeasConvertINS_10MDirectionEE6createEv@Base 3.2.1-1kern1
 _ZN8casacore11MeasConvertINS_10MDirectionEE7convertERKNS_11MVDirectionE@Base 3.2.1-1kern1
 _ZN8casacore11MeasConvertINS_10MDirectionEE7convertEv@Base 3.2.1-1kern1
 _ZN8casacore11MeasConvertINS_10MDirectionEE8setModelERKNS_7MeasureE@Base 3.2.1-1kern1
 _ZN8casacore11MeasConvertINS_10MDirectionEE9addMethodEj@Base 3.2.1-1kern1
 _ZN8casacore11MeasConvertINS_10MDirectionEEC1ERKS1_RKNS_7MeasRefIS1_EE@Base 3.2.1-1kern1
 _ZN8casacore11MeasConvertINS_10MDirectionEEC1Ev@Base 3.2.1-1kern1
 _ZN8casacore11MeasConvertINS_10MDirectionEEC2ERKS1_RKNS_7MeasRefIS1_EE@Base 3.2.1-1kern1
 _ZN8casacore11MeasConvertINS_10MDirectionEEC2Ev@Base 3.2.1-1kern1
 _ZN8casacore11MeasConvertINS_10MDirectionEED0Ev@Base 3.2.1-1kern1
 _ZN8casacore11MeasConvertINS_10MDirectionEED1Ev@Base 3.2.1-1kern1
 _ZN8casacore11MeasConvertINS_10MDirectionEED2Ev@Base 3.2.1-1kern1
 _ZN8casacore11MeasConvertINS_10MDirectionEEclERKNS_11MVDirectionE@Base 3.2.1-1kern1
 _ZN8casacore11MeasConvertINS_10MDirectionEEclEv@Base 3.2.1-1kern1
 _ZN8casacore11MeasConvertINS_4MuvwEE12addFrameTypeEj@Base 3.2.1-1kern1
 _ZN8casacore11MeasConvertINS_4MuvwEE3setERKNS_4UnitE@Base 3.2.1-1kern1
 _ZN8casacore11MeasConvertINS_4MuvwEE3setERKNS_9MeasValueE@Base 3.2.1-1kern1
 _ZN8casacore11MeasConvertINS_4MuvwEE4initEv@Base 3.2.1-1kern1
 _ZN8casacore11MeasConvertINS_4MuvwEE5clearEv@Base 3.2.1-1kern1
 _ZN8casacore11MeasConvertINS_4MuvwEE6createEv@Base 3.2.1-1kern1
 _ZN8casacore11MeasConvertINS_4MuvwEE7convertERKNS_5MVuvwE@Base 3.2.1-1kern1
 _ZN8casacore11MeasConvertINS_4MuvwEE7convertEv@Base 3.2.1-1kern1
 _ZN8casacore11MeasConvertINS_4MuvwEE8setModelERKNS_7MeasureE@Base 3.2.1-1kern1
 _ZN8casacore11MeasConvertINS_4MuvwEE9addMethodEj@Base 3.2.1-1kern1
 _ZN8casacore11MeasConvertINS_4MuvwEEC1ERKS1_RKNS_7MeasRefIS1_EE@Base 3.2.1-1kern1
 _ZN8casacore11MeasConvertINS_4MuvwEEC2ERKS1_RKNS_7MeasRefIS1_EE@Base 3.2.1-1kern1
 _ZN8casacore11MeasConvertINS_4MuvwEED0Ev@Base 3.2.1-1kern1
 _ZN8casacore11MeasConvertINS_4MuvwEED1Ev@Base 3.2.1-1kern1
 _ZN8casacore11MeasConvertINS_4MuvwEED2Ev@Base 3.2.1-1kern1
 _ZN8casacore11MeasConvertINS_6MEpochEE12addFrameTypeEj@Base 3.2.1-1kern1
 _ZN8casacore11MeasConvertINS_6MEpochEE3setERKNS_4UnitE@Base 3.2.1-1kern1
 _ZN8casacore11MeasConvertINS_6MEpochEE3setERKNS_9MeasValueE@Base 3.2.1-1kern1
 _ZN8casacore11MeasConvertINS_6MEpochEE4initEv@Base 3.2.1-1kern1
 _ZN8casacore11MeasConvertINS_6MEpochEE5clearEv@Base 3.2.1-1kern1
 _ZN8casacore11MeasConvertINS_6MEpochEE6createEv@Base 3.2.1-1kern1
 _ZN8casacore11MeasConvertINS_6MEpochEE7convertERKNS_7MVEpochE@Base 3.2.1-1kern1
 _ZN8casacore11MeasConvertINS_6MEpochEE7convertEv@Base 3.2.1-1kern1
 _ZN8casacore11MeasConvertINS_6MEpochEE8setModelERKNS_7MeasureE@Base 3.2.1-1kern1
 _ZN8casacore11MeasConvertINS_6MEpochEE9addMethodEj@Base 3.2.1-1kern1
 _ZN8casacore11MeasConvertINS_6MEpochEEC1ERKS1_RKNS_7MeasRefIS1_EE@Base 3.2.1-1kern1
 _ZN8casacore11MeasConvertINS_6MEpochEEC2ERKS1_RKNS_7MeasRefIS1_EE@Base 3.2.1-1kern1
 _ZN8casacore11MeasConvertINS_6MEpochEED0Ev@Base 3.2.1-1kern1
 _ZN8casacore11MeasConvertINS_6MEpochEED1Ev@Base 3.2.1-1kern1
 _ZN8casacore11MeasConvertINS_6MEpochEED2Ev@Base 3.2.1-1kern1
 _ZN8casacore11MeasConvertINS_9MBaselineEE12addFrameTypeEj@Base 3.2.1-1kern1
 _ZN8casacore11MeasConvertINS_9MBaselineEE3setERKNS_4UnitE@Base 3.2.1-1kern1
 _ZN8casacore11MeasConvertINS_9MBaselineEE3setERKNS_9MeasValueE@Base 3.2.1-1kern1
 _ZN8casacore11MeasConvertINS_9MBaselineEE4initEv@Base 3.2.1-1kern1
 _ZN8casacore11MeasConvertINS_9MBaselineEE5clearEv@Base 3.2.1-1kern1
 _ZN8casacore11MeasConvertINS_9MBaselineEE6createEv@Base 3.2.1-1kern1
 _ZN8casacore11MeasConvertINS_9MBaselineEE7convertERKNS_10MVBaselineE@Base 3.2.1-1kern1
 _ZN8casacore11MeasConvertINS_9MBaselineEE7convertEv@Base 3.2.1-1kern1
 _ZN8casacore11MeasConvertINS_9MBaselineEE8setModelERKNS_7MeasureE@Base 3.2.1-1kern1
 _ZN8casacore11MeasConvertINS_9MBaselineEE9addMethodEj@Base 3.2.1-1kern1
 _ZN8casacore11MeasConvertINS_9MBaselineEEC1ERKS1_RKNS_7MeasRefIS1_EE@Base 3.2.1-1kern1
 _ZN8casacore11MeasConvertINS_9MBaselineEEC2ERKS1_RKNS_7MeasRefIS1_EE@Base 3.2.1-1kern1
 _ZN8casacore11MeasConvertINS_9MBaselineEED0Ev@Base 3.2.1-1kern1
 _ZN8casacore11MeasConvertINS_9MBaselineEED1Ev@Base 3.2.1-1kern1
 _ZN8casacore11MeasConvertINS_9MBaselineEED2Ev@Base 3.2.1-1kern1
 _ZN8casacore11MeasConvertINS_9MPositionEE12addFrameTypeEj@Base 3.2.1-1kern1
 _ZN8casacore11MeasConvertINS_9MPositionEE3setERKNS_4UnitE@Base 3.2.1-1kern1
 _ZN8casacore11MeasConvertINS_9MPositionEE3setERKNS_9MeasValueE@Base 3.2.1-1kern1
 _ZN8casacore11MeasConvertINS_9MPositionEE4initEv@Base 3.2.1-1kern1
 _ZN8casacore11MeasConvertINS_9MPositionEE5clearEv@Base 3.2.1-1kern1
 _ZN8casacore11MeasConvertINS_9MPositionEE6createEv@Base 3.2.1-1kern1
 _ZN8casacore11MeasConvertINS_9MPositionEE7convertERKNS_10MVPositionE@Base 3.2.1-1kern1
 _ZN8casacore11MeasConvertINS_9MPositionEE7convertEv@Base 3.2.1-1kern1
 _ZN8casacore11MeasConvertINS_9MPositionEE8setModelERKNS_7MeasureE@Base 3.2.1-1kern1
 _ZN8casacore11MeasConvertINS_9MPositionEE9addMethodEj@Base 3.2.1-1kern1
 _ZN8casacore11MeasConvertINS_9MPositionEEC1ERKS1_NS1_5TypesE@Base 3.2.1-1kern1
 _ZN8casacore11MeasConvertINS_9MPositionEEC1ERKS1_RKNS_7MeasRefIS1_EE@Base 3.2.1-1kern1
 _ZN8casacore11MeasConvertINS_9MPositionEEC2ERKS1_NS1_5TypesE@Base 3.2.1-1kern1
 _ZN8casacore11MeasConvertINS_9MPositionEEC2ERKS1_RKNS_7MeasRefIS1_EE@Base 3.2.1-1kern1
 _ZN8casacore11MeasConvertINS_9MPositionEED0Ev@Base 3.2.1-1kern1
 _ZN8casacore11MeasConvertINS_9MPositionEED1Ev@Base 3.2.1-1kern1
 _ZN8casacore11MeasConvertINS_9MPositionEED2Ev@Base 3.2.1-1kern1
 _ZN8casacore11MeasConvertINS_9MPositionEEclERKNS_10MVPositionE@Base 3.2.1-1kern1
 _ZN8casacore11MeasConvertINS_9MPositionEEclEv@Base 3.2.1-1kern1
 _ZN8casacore11objcopyctorINS_10MDirectionEEEvPT_PKS2_m@Base 3.2.1-1kern1
 _ZN8casacore11objcopyctorINS_10MDirectionEEEvPT_PKS2_mmm@Base 3.2.1-1kern1
 _ZN8casacore11objcopyctorINS_7QuantumIdEEEEvPT_PKS3_m@Base 3.2.1-1kern1
 _ZN8casacore11objcopyctorINS_7QuantumIdEEEEvPT_PKS3_mmm@Base 3.2.1-1kern1
 _ZN8casacore12DerivedMSCal10makeObjectERKNS_6StringERKNS_6RecordE@Base 3.2.1-1kern1
 _ZN8casacore12DerivedMSCal12removeColumnEPNS_17DataManagerColumnE@Base 3.2.1-1kern1
 _ZN8casacore12DerivedMSCal13registerClassEv@Base 3.2.1-1kern1
 _ZN8casacore12DerivedMSCal16makeIndArrColumnERKNS_6StringEiS3_@Base 3.2.1-1kern1
 _ZN8casacore12DerivedMSCal16makeScalarColumnERKNS_6StringEiS3_@Base 3.2.1-1kern1
 _ZN8casacore12DerivedMSCal7prepareEv@Base 3.2.1-1kern1
 _ZN8casacore12DerivedMSCal9addColumnEPNS_17DataManagerColumnE@Base 3.2.1-1kern1
 _ZN8casacore12DerivedMSCalC1ERKNS_6RecordE@Base 3.2.1-1kern1
 _ZN8casacore12DerivedMSCalC1ERKS0_@Base 3.2.1-1kern1
 _ZN8casacore12DerivedMSCalC1Ev@Base 3.2.1-1kern1
 _ZN8casacore12DerivedMSCalC2ERKNS_6RecordE@Base 3.2.1-1kern1
 _ZN8casacore12DerivedMSCalC2ERKS0_@Base 3.2.1-1kern1
 _ZN8casacore12DerivedMSCalC2Ev@Base 3.2.1-1kern1
 _ZN8casacore12DerivedMSCalD0Ev@Base 3.2.1-1kern1
 _ZN8casacore12DerivedMSCalD1Ev@Base 3.2.1-1kern1
 _ZN8casacore12DerivedMSCalD2Ev@Base 3.2.1-1kern1
 _ZN8casacore12HelpMsCalUDF15showFuncsStokesERSob@Base 3.2.1-1kern1
 _ZN8casacore12HelpMsCalUDF16showFuncsDerivedERSo@Base 3.2.1-1kern1
 _ZN8casacore12HelpMsCalUDF17showFuncsSubtableERSo@Base 3.2.1-1kern1
 _ZN8casacore12HelpMsCalUDF18showFuncsSelectionERSo@Base 3.2.1-1kern1
 _ZN8casacore12HelpMsCalUDF5setupERKNS_5TableERKNS_9TaQLStyleE@Base 3.2.1-1kern1
 _ZN8casacore12HelpMsCalUDF8makeHELPERKNS_6StringE@Base 3.2.1-1kern1
 _ZN8casacore12HelpMsCalUDF9getStringERKNS_11TableExprIdE@Base 3.2.1-1kern1
 _ZN8casacore12HelpMsCalUDFD0Ev@Base 3.2.1-1kern1
 _ZN8casacore12HelpMsCalUDFD1Ev@Base 3.2.1-1kern1
 _ZN8casacore12HelpMsCalUDFD2Ev@Base 3.2.1-1kern1
 _ZN8casacore12convertArrayISt7complexIdES1_IfEEEvRNS_5ArrayIT_EERKNS4_IT0_EE@Base 3.2.1-1kern1
 _ZN8casacore12convertArrayISt7complexIfES1_IdEEEvRNS_5ArrayIT_EERKNS4_IT0_EE@Base 3.2.1-1kern1
 _ZN8casacore12convertArrayIdfEEvRNS_5ArrayIT_EERKNS1_IT0_EE@Base 3.2.1-1kern1
 _ZN8casacore12convertArrayIfdEEvRNS_5ArrayIT_EERKNS1_IT0_EE@Base 3.2.1-1kern1
 _ZN8casacore13ArrayIteratorINS_10MDirectionEE12apSetPointerEi@Base 3.2.1-1kern1
 _ZN8casacore13ArrayIteratorINS_10MDirectionEE3setERKNS_9IPositionE@Base 3.2.1-1kern1
 _ZN8casacore13ArrayIteratorINS_10MDirectionEE4initERKNS_5ArrayIS1_EE@Base 3.2.1-1kern1
 _ZN8casacore13ArrayIteratorINS_10MDirectionEE4nextEv@Base 3.2.1-1kern1
 _ZN8casacore13ArrayIteratorINS_10MDirectionEE5resetEv@Base 3.2.1-1kern1
 _ZN8casacore13ArrayIteratorINS_10MDirectionEE8getArrayEv@Base 3.2.1-1kern1
 _ZN8casacore13ArrayIteratorINS_10MDirectionEED0Ev@Base 3.2.1-1kern1
 _ZN8casacore13ArrayIteratorINS_10MDirectionEED1Ev@Base 3.2.1-1kern1
 _ZN8casacore13ArrayIteratorINS_10MDirectionEED2Ev@Base 3.2.1-1kern1
 _ZN8casacore13ArrayIteratorINS_7QuantumIdEEE12apSetPointerEi@Base 3.2.1-1kern1
 _ZN8casacore13ArrayIteratorINS_7QuantumIdEEE3setERKNS_9IPositionE@Base 3.2.1-1kern1
 _ZN8casacore13ArrayIteratorINS_7QuantumIdEEE4initERKNS_5ArrayIS2_EE@Base 3.2.1-1kern1
 _ZN8casacore13ArrayIteratorINS_7QuantumIdEEE4nextEv@Base 3.2.1-1kern1
 _ZN8casacore13ArrayIteratorINS_7QuantumIdEEE5resetEv@Base 3.2.1-1kern1
 _ZN8casacore13ArrayIteratorINS_7QuantumIdEEE8getArrayEv@Base 3.2.1-1kern1
 _ZN8casacore13ArrayIteratorINS_7QuantumIdEEED0Ev@Base 3.2.1-1kern1
 _ZN8casacore13ArrayIteratorINS_7QuantumIdEEED1Ev@Base 3.2.1-1kern1
 _ZN8casacore13ArrayIteratorINS_7QuantumIdEEED2Ev@Base 3.2.1-1kern1
 _ZN8casacore13ArrayIteratorIdE12apSetPointerEi@Base 3.2.1-1kern1
 _ZN8casacore13ArrayIteratorIdE3setERKNS_9IPositionE@Base 3.2.1-1kern1
 _ZN8casacore13ArrayIteratorIdE4initERKNS_5ArrayIdEE@Base 3.2.1-1kern1
 _ZN8casacore13ArrayIteratorIdE4nextEv@Base 3.2.1-1kern1
 _ZN8casacore13ArrayIteratorIdE5resetEv@Base 3.2.1-1kern1
 _ZN8casacore13ArrayIteratorIdE8getArrayEv@Base 3.2.1-1kern1
 _ZN8casacore13ArrayIteratorIdEC1ERKNS_5ArrayIdEEj@Base 3.2.1-1kern1
 _ZN8casacore13ArrayIteratorIdEC2ERKNS_5ArrayIdEEj@Base 3.2.1-1kern1
 _ZN8casacore13ArrayIteratorIdED0Ev@Base 3.2.1-1kern1
 _ZN8casacore13ArrayIteratorIdED1Ev@Base 3.2.1-1kern1
 _ZN8casacore13ArrayIteratorIdED2Ev@Base 3.2.1-1kern1
 _ZN8casacore14ParAngleColumn3getEjRd@Base 3.2.1-1kern1
 _ZN8casacore14ParAngleColumnD0Ev@Base 3.2.1-1kern1
 _ZN8casacore14ParAngleColumnD1Ev@Base 3.2.1-1kern1
 _ZN8casacore14ParAngleColumnD2Ev@Base 3.2.1-1kern1
 _ZN8casacore14UVWJ2000Column14isShapeDefinedEj@Base 3.2.1-1kern1
 _ZN8casacore14UVWJ2000Column5shapeEj@Base 3.2.1-1kern1
 _ZN8casacore14UVWJ2000Column8getArrayEjRNS_5ArrayIdEE@Base 3.2.1-1kern1
 _ZN8casacore14UVWJ2000ColumnD0Ev@Base 3.2.1-1kern1
 _ZN8casacore14UVWJ2000ColumnD1Ev@Base 3.2.1-1kern1
 _ZN8casacore14UVWJ2000ColumnD2Ev@Base 3.2.1-1kern1
 _ZN8casacore15ArrayMeasColumnINS_10MDirectionEE7cleanUpEv@Base 3.2.1-1kern1
 _ZN8casacore15ArrayMeasColumnINS_10MDirectionEEC1ERKNS_5TableERKNS_6StringE@Base 3.2.1-1kern1
 _ZN8casacore15ArrayMeasColumnINS_10MDirectionEEC2ERKNS_5TableERKNS_6StringE@Base 3.2.1-1kern1
 _ZN8casacore15ArrayMeasColumnINS_10MDirectionEED0Ev@Base 3.2.1-1kern1
 _ZN8casacore15ArrayMeasColumnINS_10MDirectionEED1Ev@Base 3.2.1-1kern1
 _ZN8casacore15ArrayMeasColumnINS_10MDirectionEED2Ev@Base 3.2.1-1kern1
 _ZN8casacore15HourangleColumn3getEjRd@Base 3.2.1-1kern1
 _ZN8casacore15HourangleColumnD0Ev@Base 3.2.1-1kern1
 _ZN8casacore15HourangleColumnD1Ev@Base 3.2.1-1kern1
 _ZN8casacore15HourangleColumnD2Ev@Base 3.2.1-1kern1
 _ZN8casacore15NewDelAllocatorINS_10MDirectionEE5valueE@Base 3.2.1-1kern1
 _ZN8casacore15NewDelAllocatorINS_10MDirectionEED0Ev@Base 3.2.1-1kern1
 _ZN8casacore15NewDelAllocatorINS_10MDirectionEED1Ev@Base 3.2.1-1kern1
 _ZN8casacore15NewDelAllocatorINS_10MDirectionEED2Ev@Base 3.2.1-1kern1
 _ZN8casacore15NewDelAllocatorINS_6MVTimeEE5valueE@Base 3.2.1-1kern1
 _ZN8casacore15NewDelAllocatorINS_6MVTimeEED0Ev@Base 3.2.1-1kern1
 _ZN8casacore15NewDelAllocatorINS_6MVTimeEED1Ev@Base 3.2.1-1kern1
 _ZN8casacore15NewDelAllocatorINS_6MVTimeEED2Ev@Base 3.2.1-1kern1
 _ZN8casacore15NewDelAllocatorINS_7QuantumIdEEE5valueE@Base 3.2.1-1kern1
 _ZN8casacore15NewDelAllocatorINS_7QuantumIdEEED0Ev@Base 3.2.1-1kern1
 _ZN8casacore15NewDelAllocatorINS_7QuantumIdEEED1Ev@Base 3.2.1-1kern1
 _ZN8casacore15NewDelAllocatorINS_7QuantumIdEEED2Ev@Base 3.2.1-1kern1
 _ZN8casacore15NewDelAllocatorIPNS_6SlicerEE5valueE@Base 3.2.1-1kern1
 _ZN8casacore15NewDelAllocatorIPNS_6SlicerEED0Ev@Base 3.2.1-1kern1
 _ZN8casacore15NewDelAllocatorIPNS_6SlicerEED1Ev@Base 3.2.1-1kern1
 _ZN8casacore15NewDelAllocatorIPNS_6SlicerEED2Ev@Base 3.2.1-1kern1
 _ZN8casacore16DefaultAllocatorINS_10MDirectionEE5valueE@Base 3.2.1-1kern1
 _ZN8casacore16DefaultAllocatorINS_10MDirectionEED0Ev@Base 3.2.1-1kern1
 _ZN8casacore16DefaultAllocatorINS_10MDirectionEED1Ev@Base 3.2.1-1kern1
 _ZN8casacore16DefaultAllocatorINS_10MDirectionEED2Ev@Base 3.2.1-1kern1
 _ZN8casacore16DefaultAllocatorINS_6MVTimeEE5valueE@Base 3.2.1-1kern1
 _ZN8casacore16DefaultAllocatorINS_6MVTimeEED0Ev@Base 3.2.1-1kern1
 _ZN8casacore16DefaultAllocatorINS_6MVTimeEED1Ev@Base 3.2.1-1kern1
 _ZN8casacore16DefaultAllocatorINS_6MVTimeEED2Ev@Base 3.2.1-1kern1
 _ZN8casacore16DefaultAllocatorINS_7QuantumIdEEE5valueE@Base 3.2.1-1kern1
 _ZN8casacore16DefaultAllocatorINS_7QuantumIdEEED0Ev@Base 3.2.1-1kern1
 _ZN8casacore16DefaultAllocatorINS_7QuantumIdEEED1Ev@Base 3.2.1-1kern1
 _ZN8casacore16DefaultAllocatorINS_7QuantumIdEEED2Ev@Base 3.2.1-1kern1
 _ZN8casacore16DefaultAllocatorIPNS_6SlicerEE5valueE@Base 3.2.1-1kern1
 _ZN8casacore16DefaultAllocatorIPNS_6SlicerEED0Ev@Base 3.2.1-1kern1
 _ZN8casacore16DefaultAllocatorIPNS_6SlicerEED1Ev@Base 3.2.1-1kern1
 _ZN8casacore16DefaultAllocatorIPNS_6SlicerEED2Ev@Base 3.2.1-1kern1
 _ZN8casacore16ScalarMeasColumnINS_10MDirectionEE7cleanUpEv@Base 3.2.1-1kern1
 _ZN8casacore16ScalarMeasColumnINS_10MDirectionEEC1ERKNS_5TableERKNS_6StringE@Base 3.2.1-1kern1
 _ZN8casacore16ScalarMeasColumnINS_10MDirectionEEC2ERKNS_5TableERKNS_6StringE@Base 3.2.1-1kern1
 _ZN8casacore16ScalarMeasColumnINS_10MDirectionEED0Ev@Base 3.2.1-1kern1
 _ZN8casacore16ScalarMeasColumnINS_10MDirectionEED1Ev@Base 3.2.1-1kern1
 _ZN8casacore16ScalarMeasColumnINS_10MDirectionEED2Ev@Base 3.2.1-1kern1
 _ZN8casacore16ScalarMeasColumnINS_6MEpochEE7cleanUpEv@Base 3.2.1-1kern1
 _ZN8casacore16ScalarMeasColumnINS_6MEpochEE9referenceERKS2_@Base 3.2.1-1kern1
 _ZN8casacore16ScalarMeasColumnINS_6MEpochEEC1ERKNS_5TableERKNS_6StringE@Base 3.2.1-1kern1
 _ZN8casacore16ScalarMeasColumnINS_6MEpochEEC2ERKNS_5TableERKNS_6StringE@Base 3.2.1-1kern1
 _ZN8casacore16ScalarMeasColumnINS_6MEpochEED0Ev@Base 3.2.1-1kern1
 _ZN8casacore16ScalarMeasColumnINS_6MEpochEED1Ev@Base 3.2.1-1kern1
 _ZN8casacore16ScalarMeasColumnINS_6MEpochEED2Ev@Base 3.2.1-1kern1
 _ZN8casacore16ScalarMeasColumnINS_9MPositionEE7cleanUpEv@Base 3.2.1-1kern1
 _ZN8casacore16ScalarMeasColumnINS_9MPositionEEC1ERKNS_5TableERKNS_6StringE@Base 3.2.1-1kern1
 _ZN8casacore16ScalarMeasColumnINS_9MPositionEEC2ERKNS_5TableERKNS_6StringE@Base 3.2.1-1kern1
 _ZN8casacore16ScalarMeasColumnINS_9MPositionEED0Ev@Base 3.2.1-1kern1
 _ZN8casacore16ScalarMeasColumnINS_9MPositionEED1Ev@Base 3.2.1-1kern1
 _ZN8casacore16ScalarMeasColumnINS_9MPositionEED2Ev@Base 3.2.1-1kern1
 _ZN8casacore17Allocator_private17BulkAllocatorImplINS_17new_del_allocatorINS_10MDirectionEEEE10deallocateEPS3_m@Base 3.2.1-1kern1
 _ZN8casacore17Allocator_private17BulkAllocatorImplINS_17new_del_allocatorINS_10MDirectionEEEE7destroyEPS3_m@Base 3.2.1-1kern1
 _ZN8casacore17Allocator_private17BulkAllocatorImplINS_17new_del_allocatorINS_10MDirectionEEEE8allocateEmPKv@Base 3.2.1-1kern1
 _ZN8casacore17Allocator_private17BulkAllocatorImplINS_17new_del_allocatorINS_10MDirectionEEEE9allocatorE@Base 3.2.1-1kern1
 _ZN8casacore17Allocator_private17BulkAllocatorImplINS_17new_del_allocatorINS_10MDirectionEEEE9constructEPS3_m@Base 3.2.1-1kern1
 _ZN8casacore17Allocator_private17BulkAllocatorImplINS_17new_del_allocatorINS_10MDirectionEEEE9constructEPS3_mPKS3_@Base 3.2.1-1kern1
 _ZN8casacore17Allocator_private17BulkAllocatorImplINS_17new_del_allocatorINS_10MDirectionEEEE9constructEPS3_mRKS3_@Base 3.2.1-1kern1
 _ZN8casacore17Allocator_private17BulkAllocatorImplINS_17new_del_allocatorINS_10MDirectionEEEED0Ev@Base 3.2.1-1kern1
 _ZN8casacore17Allocator_private17BulkAllocatorImplINS_17new_del_allocatorINS_10MDirectionEEEED1Ev@Base 3.2.1-1kern1
 _ZN8casacore17Allocator_private17BulkAllocatorImplINS_17new_del_allocatorINS_10MDirectionEEEED2Ev@Base 3.2.1-1kern1
 _ZN8casacore17Allocator_private17BulkAllocatorImplINS_17new_del_allocatorINS_6MVTimeEEEE10deallocateEPS3_m@Base 3.2.1-1kern1
 _ZN8casacore17Allocator_private17BulkAllocatorImplINS_17new_del_allocatorINS_6MVTimeEEEE7destroyEPS3_m@Base 3.2.1-1kern1
 _ZN8casacore17Allocator_private17BulkAllocatorImplINS_17new_del_allocatorINS_6MVTimeEEEE8allocateEmPKv@Base 3.2.1-1kern1
 _ZN8casacore17Allocator_private17BulkAllocatorImplINS_17new_del_allocatorINS_6MVTimeEEEE9allocatorE@Base 3.2.1-1kern1
 _ZN8casacore17Allocator_private17BulkAllocatorImplINS_17new_del_allocatorINS_6MVTimeEEEE9constructEPS3_m@Base 3.2.1-1kern1
 _ZN8casacore17Allocator_private17BulkAllocatorImplINS_17new_del_allocatorINS_6MVTimeEEEE9constructEPS3_mPKS3_@Base 3.2.1-1kern1
 _ZN8casacore17Allocator_private17BulkAllocatorImplINS_17new_del_allocatorINS_6MVTimeEEEE9constructEPS3_mRKS3_@Base 3.2.1-1kern1
 _ZN8casacore17Allocator_private17BulkAllocatorImplINS_17new_del_allocatorINS_6MVTimeEEEED0Ev@Base 3.2.1-1kern1
 _ZN8casacore17Allocator_private17BulkAllocatorImplINS_17new_del_allocatorINS_6MVTimeEEEED1Ev@Base 3.2.1-1kern1
 _ZN8casacore17Allocator_private17BulkAllocatorImplINS_17new_del_allocatorINS_6MVTimeEEEED2Ev@Base 3.2.1-1kern1
 _ZN8casacore17Allocator_private17BulkAllocatorImplINS_17new_del_allocatorINS_7QuantumIdEEEEE10deallocateEPS4_m@Base 3.2.1-1kern1
 _ZN8casacore17Allocator_private17BulkAllocatorImplINS_17new_del_allocatorINS_7QuantumIdEEEEE7destroyEPS4_m@Base 3.2.1-1kern1
 _ZN8casacore17Allocator_private17BulkAllocatorImplINS_17new_del_allocatorINS_7QuantumIdEEEEE8allocateEmPKv@Base 3.2.1-1kern1
 _ZN8casacore17Allocator_private17BulkAllocatorImplINS_17new_del_allocatorINS_7QuantumIdEEEEE9allocatorE@Base 3.2.1-1kern1
 _ZN8casacore17Allocator_private17BulkAllocatorImplINS_17new_del_allocatorINS_7QuantumIdEEEEE9constructEPS4_m@Base 3.2.1-1kern1
 _ZN8casacore17Allocator_private17BulkAllocatorImplINS_17new_del_allocatorINS_7QuantumIdEEEEE9constructEPS4_mPKS4_@Base 3.2.1-1kern1
 _ZN8casacore17Allocator_private17BulkAllocatorImplINS_17new_del_allocatorINS_7QuantumIdEEEEE9constructEPS4_mRKS4_@Base 3.2.1-1kern1
 _ZN8casacore17Allocator_private17BulkAllocatorImplINS_17new_del_allocatorINS_7QuantumIdEEEEED0Ev@Base 3.2.1-1kern1
 _ZN8casacore17Allocator_private17BulkAllocatorImplINS_17new_del_allocatorINS_7QuantumIdEEEEED1Ev@Base 3.2.1-1kern1
 _ZN8casacore17Allocator_private17BulkAllocatorImplINS_17new_del_allocatorINS_7QuantumIdEEEEED2Ev@Base 3.2.1-1kern1
 _ZN8casacore17Allocator_private17BulkAllocatorImplINS_17new_del_allocatorIPNS_6SlicerEEEE10deallocateEPS4_m@Base 3.2.1-1kern1
 _ZN8casacore17Allocator_private17BulkAllocatorImplINS_17new_del_allocatorIPNS_6SlicerEEEE7destroyEPS4_m@Base 3.2.1-1kern1
 _ZN8casacore17Allocator_private17BulkAllocatorImplINS_17new_del_allocatorIPNS_6SlicerEEEE8allocateEmPKv@Base 3.2.1-1kern1
 _ZN8casacore17Allocator_private17BulkAllocatorImplINS_17new_del_allocatorIPNS_6SlicerEEEE9allocatorE@Base 3.2.1-1kern1
 _ZN8casacore17Allocator_private17BulkAllocatorImplINS_17new_del_allocatorIPNS_6SlicerEEEE9constructEPS4_m@Base 3.2.1-1kern1
 _ZN8casacore17Allocator_private17BulkAllocatorImplINS_17new_del_allocatorIPNS_6SlicerEEEE9constructEPS4_mPKS4_@Base 3.2.1-1kern1
 _ZN8casacore17Allocator_private17BulkAllocatorImplINS_17new_del_allocatorIPNS_6SlicerEEEE9constructEPS4_mRKS4_@Base 3.2.1-1kern1
 _ZN8casacore17Allocator_private17BulkAllocatorImplINS_17new_del_allocatorIPNS_6SlicerEEEED0Ev@Base 3.2.1-1kern1
 _ZN8casacore17Allocator_private17BulkAllocatorImplINS_17new_del_allocatorIPNS_6SlicerEEEED1Ev@Base 3.2.1-1kern1
 _ZN8casacore17Allocator_private17BulkAllocatorImplINS_17new_del_allocatorIPNS_6SlicerEEEED2Ev@Base 3.2.1-1kern1
 _ZN8casacore17Allocator_private17BulkAllocatorImplINS_18casacore_allocatorINS_10MDirectionELm32EEEE10deallocateEPS3_m@Base 3.2.1-1kern1
 _ZN8casacore17Allocator_private17BulkAllocatorImplINS_18casacore_allocatorINS_10MDirectionELm32EEEE7destroyEPS3_m@Base 3.2.1-1kern1
 _ZN8casacore17Allocator_private17BulkAllocatorImplINS_18casacore_allocatorINS_10MDirectionELm32EEEE8allocateEmPKv@Base 3.2.1-1kern1
 _ZN8casacore17Allocator_private17BulkAllocatorImplINS_18casacore_allocatorINS_10MDirectionELm32EEEE9allocatorE@Base 3.2.1-1kern1
 _ZN8casacore17Allocator_private17BulkAllocatorImplINS_18casacore_allocatorINS_10MDirectionELm32EEEE9constructEPS3_m@Base 3.2.1-1kern1
 _ZN8casacore17Allocator_private17BulkAllocatorImplINS_18casacore_allocatorINS_10MDirectionELm32EEEE9constructEPS3_mPKS3_@Base 3.2.1-1kern1
 _ZN8casacore17Allocator_private17BulkAllocatorImplINS_18casacore_allocatorINS_10MDirectionELm32EEEE9constructEPS3_mRKS3_@Base 3.2.1-1kern1
 _ZN8casacore17Allocator_private17BulkAllocatorImplINS_18casacore_allocatorINS_10MDirectionELm32EEEED0Ev@Base 3.2.1-1kern1
 _ZN8casacore17Allocator_private17BulkAllocatorImplINS_18casacore_allocatorINS_10MDirectionELm32EEEED1Ev@Base 3.2.1-1kern1
 _ZN8casacore17Allocator_private17BulkAllocatorImplINS_18casacore_allocatorINS_10MDirectionELm32EEEED2Ev@Base 3.2.1-1kern1
 _ZN8casacore17Allocator_private17BulkAllocatorImplINS_18casacore_allocatorINS_6MVTimeELm32EEEE10deallocateEPS3_m@Base 3.2.1-1kern1
 _ZN8casacore17Allocator_private17BulkAllocatorImplINS_18casacore_allocatorINS_6MVTimeELm32EEEE7destroyEPS3_m@Base 3.2.1-1kern1
 _ZN8casacore17Allocator_private17BulkAllocatorImplINS_18casacore_allocatorINS_6MVTimeELm32EEEE8allocateEmPKv@Base 3.2.1-1kern1
 _ZN8casacore17Allocator_private17BulkAllocatorImplINS_18casacore_allocatorINS_6MVTimeELm32EEEE9allocatorE@Base 3.2.1-1kern1
 _ZN8casacore17Allocator_private17BulkAllocatorImplINS_18casacore_allocatorINS_6MVTimeELm32EEEE9constructEPS3_m@Base 3.2.1-1kern1
 _ZN8casacore17Allocator_private17BulkAllocatorImplINS_18casacore_allocatorINS_6MVTimeELm32EEEE9constructEPS3_mPKS3_@Base 3.2.1-1kern1
 _ZN8casacore17Allocator_private17BulkAllocatorImplINS_18casacore_allocatorINS_6MVTimeELm32EEEE9constructEPS3_mRKS3_@Base 3.2.1-1kern1
 _ZN8casacore17Allocator_private17BulkAllocatorImplINS_18casacore_allocatorINS_6MVTimeELm32EEEED0Ev@Base 3.2.1-1kern1
 _ZN8casacore17Allocator_private17BulkAllocatorImplINS_18casacore_allocatorINS_6MVTimeELm32EEEED1Ev@Base 3.2.1-1kern1
 _ZN8casacore17Allocator_private17BulkAllocatorImplINS_18casacore_allocatorINS_6MVTimeELm32EEEED2Ev@Base 3.2.1-1kern1
 _ZN8casacore17Allocator_private17BulkAllocatorImplINS_18casacore_allocatorINS_6StringELm32EEEE9allocatorE@Base 3.2.1-1kern1
 _ZN8casacore17Allocator_private17BulkAllocatorImplINS_18casacore_allocatorINS_7QuantumIdEELm32EEEE10deallocateEPS4_m@Base 3.2.1-1kern1
 _ZN8casacore17Allocator_private17BulkAllocatorImplINS_18casacore_allocatorINS_7QuantumIdEELm32EEEE7destroyEPS4_m@Base 3.2.1-1kern1
 _ZN8casacore17Allocator_private17BulkAllocatorImplINS_18casacore_allocatorINS_7QuantumIdEELm32EEEE8allocateEmPKv@Base 3.2.1-1kern1
 _ZN8casacore17Allocator_private17BulkAllocatorImplINS_18casacore_allocatorINS_7QuantumIdEELm32EEEE9allocatorE@Base 3.2.1-1kern1
 _ZN8casacore17Allocator_private17BulkAllocatorImplINS_18casacore_allocatorINS_7QuantumIdEELm32EEEE9constructEPS4_m@Base 3.2.1-1kern1
 _ZN8casacore17Allocator_private17BulkAllocatorImplINS_18casacore_allocatorINS_7QuantumIdEELm32EEEE9constructEPS4_mPKS4_@Base 3.2.1-1kern1
 _ZN8casacore17Allocator_private17BulkAllocatorImplINS_18casacore_allocatorINS_7QuantumIdEELm32EEEE9constructEPS4_mRKS4_@Base 3.2.1-1kern1
 _ZN8casacore17Allocator_private17BulkAllocatorImplINS_18casacore_allocatorINS_7QuantumIdEELm32EEEED0Ev@Base 3.2.1-1kern1
 _ZN8casacore17Allocator_private17BulkAllocatorImplINS_18casacore_allocatorINS_7QuantumIdEELm32EEEED1Ev@Base 3.2.1-1kern1
 _ZN8casacore17Allocator_private17BulkAllocatorImplINS_18casacore_allocatorINS_7QuantumIdEELm32EEEED2Ev@Base 3.2.1-1kern1
 _ZN8casacore17Allocator_private17BulkAllocatorImplINS_18casacore_allocatorIPNS_6SlicerELm32EEEE10deallocateEPS4_m@Base 3.2.1-1kern1
 _ZN8casacore17Allocator_private17BulkAllocatorImplINS_18casacore_allocatorIPNS_6SlicerELm32EEEE7destroyEPS4_m@Base 3.2.1-1kern1
 _ZN8casacore17Allocator_private17BulkAllocatorImplINS_18casacore_allocatorIPNS_6SlicerELm32EEEE8allocateEmPKv@Base 3.2.1-1kern1
 _ZN8casacore17Allocator_private17BulkAllocatorImplINS_18casacore_allocatorIPNS_6SlicerELm32EEEE9allocatorE@Base 3.2.1-1kern1
 _ZN8casacore17Allocator_private17BulkAllocatorImplINS_18casacore_allocatorIPNS_6SlicerELm32EEEE9constructEPS4_m@Base 3.2.1-1kern1
 _ZN8casacore17Allocator_private17BulkAllocatorImplINS_18casacore_allocatorIPNS_6SlicerELm32EEEE9constructEPS4_mPKS4_@Base 3.2.1-1kern1
 _ZN8casacore17Allocator_private17BulkAllocatorImplINS_18casacore_allocatorIPNS_6SlicerELm32EEEE9constructEPS4_mRKS4_@Base 3.2.1-1kern1
 _ZN8casacore17Allocator_private17BulkAllocatorImplINS_18casacore_allocatorIPNS_6SlicerELm32EEEED0Ev@Base 3.2.1-1kern1
 _ZN8casacore17Allocator_private17BulkAllocatorImplINS_18casacore_allocatorIPNS_6SlicerELm32EEEED1Ev@Base 3.2.1-1kern1
 _ZN8casacore17Allocator_private17BulkAllocatorImplINS_18casacore_allocatorIPNS_6SlicerELm32EEEED2Ev@Base 3.2.1-1kern1
 _ZN8casacore17Allocator_private17BulkAllocatorImplINS_18casacore_allocatorIbLm32EEEE10deallocateEPbm@Base 3.2.1-1kern1
 _ZN8casacore17Allocator_private17BulkAllocatorImplINS_18casacore_allocatorIbLm32EEEE7destroyEPbm@Base 3.2.1-1kern1
 _ZN8casacore17Allocator_private17BulkAllocatorImplINS_18casacore_allocatorIbLm32EEEE8allocateEmPKv@Base 3.2.1-1kern1
 _ZN8casacore17Allocator_private17BulkAllocatorImplINS_18casacore_allocatorIbLm32EEEE9allocatorE@Base 3.2.1-1kern1
 _ZN8casacore17Allocator_private17BulkAllocatorImplINS_18casacore_allocatorIbLm32EEEE9constructEPbm@Base 3.2.1-1kern1
 _ZN8casacore17Allocator_private17BulkAllocatorImplINS_18casacore_allocatorIbLm32EEEE9constructEPbmPKb@Base 3.2.1-1kern1
 _ZN8casacore17Allocator_private17BulkAllocatorImplINS_18casacore_allocatorIbLm32EEEE9constructEPbmRKb@Base 3.2.1-1kern1
 _ZN8casacore17Allocator_private17BulkAllocatorImplINS_18casacore_allocatorIbLm32EEEED0Ev@Base 3.2.1-1kern1
 _ZN8casacore17Allocator_private17BulkAllocatorImplINS_18casacore_allocatorIbLm32EEEED1Ev@Base 3.2.1-1kern1
 _ZN8casacore17Allocator_private17BulkAllocatorImplINS_18casacore_allocatorIbLm32EEEED2Ev@Base 3.2.1-1kern1
 _ZN8casacore17Allocator_private17BulkAllocatorImplINS_18casacore_allocatorIjLm32EEEE10deallocateEPjm@Base 3.2.1-1kern1
 _ZN8casacore17Allocator_private17BulkAllocatorImplINS_18casacore_allocatorIjLm32EEEE7destroyEPjm@Base 3.2.1-1kern1
 _ZN8casacore17Allocator_private17BulkAllocatorImplINS_18casacore_allocatorIjLm32EEEE8allocateEmPKv@Base 3.2.1-1kern1
 _ZN8casacore17Allocator_private17BulkAllocatorImplINS_18casacore_allocatorIjLm32EEEE9allocatorE@Base 3.2.1-1kern1
 _ZN8casacore17Allocator_private17BulkAllocatorImplINS_18casacore_allocatorIjLm32EEEE9constructEPjm@Base 3.2.1-1kern1
 _ZN8casacore17Allocator_private17BulkAllocatorImplINS_18casacore_allocatorIjLm32EEEE9constructEPjmPKj@Base 3.2.1-1kern1
 _ZN8casacore17Allocator_private17BulkAllocatorImplINS_18casacore_allocatorIjLm32EEEE9constructEPjmRKj@Base 3.2.1-1kern1
 _ZN8casacore17Allocator_private17BulkAllocatorImplINS_18casacore_allocatorIjLm32EEEED0Ev@Base 3.2.1-1kern1
 _ZN8casacore17Allocator_private17BulkAllocatorImplINS_18casacore_allocatorIjLm32EEEED1Ev@Base 3.2.1-1kern1
 _ZN8casacore17Allocator_private17BulkAllocatorImplINS_18casacore_allocatorIjLm32EEEED2Ev@Base 3.2.1-1kern1
 _ZN8casacore17new_del_allocatorINS_10MDirectionEED1Ev@Base 3.2.1-1kern1
 _ZN8casacore17new_del_allocatorINS_10MDirectionEED2Ev@Base 3.2.1-1kern1
 _ZN8casacore17new_del_allocatorINS_6MVTimeEED1Ev@Base 3.2.1-1kern1
 _ZN8casacore17new_del_allocatorINS_6MVTimeEED2Ev@Base 3.2.1-1kern1
 _ZN8casacore17new_del_allocatorINS_7QuantumIdEEED1Ev@Base 3.2.1-1kern1
 _ZN8casacore17new_del_allocatorINS_7QuantumIdEEED2Ev@Base 3.2.1-1kern1
 _ZN8casacore17new_del_allocatorIPNS_6SlicerEED1Ev@Base 3.2.1-1kern1
 _ZN8casacore17new_del_allocatorIPNS_6SlicerEED2Ev@Base 3.2.1-1kern1
 _ZN8casacore18MSMainColInterface13exposureQuantEv@Base 3.2.1-1kern1
 _ZN8casacore18MSMainColInterface4asMSEv@Base 3.2.1-1kern1
 _ZN8casacore18MSMainColInterface4flagEv@Base 3.2.1-1kern1
 _ZN8casacore18MSMainColInterface4initERKNS_5TableE@Base 3.2.1-1kern1
 _ZN8casacore18MSMainColInterface7flagRowERKi@Base 3.2.1-1kern1
 _ZN8casacore18MSMainColInterface9timeQuantEv@Base 3.2.1-1kern1
 _ZN8casacore18MSMainColInterfaceD0Ev@Base 3.2.1-1kern1
 _ZN8casacore18MSMainColInterfaceD1Ev@Base 3.2.1-1kern1
 _ZN8casacore18MSMainColInterfaceD2Ev@Base 3.2.1-1kern1
 _ZN8casacore18VirtualArrayColumnIdE14getArrayColumnERNS_5ArrayIdEE@Base 3.2.1-1kern1
 _ZN8casacore18VirtualArrayColumnIdE14getColumnSliceERKNS_6SlicerERNS_5ArrayIdEE@Base 3.2.1-1kern1
 _ZN8casacore18VirtualArrayColumnIdE14isShapeDefinedEj@Base 3.2.1-1kern1
 _ZN8casacore18VirtualArrayColumnIdE14putArrayColumnERKNS_5ArrayIdEE@Base 3.2.1-1kern1
 _ZN8casacore18VirtualArrayColumnIdE14putColumnSliceERKNS_6SlicerERKNS_5ArrayIdEE@Base 3.2.1-1kern1
 _ZN8casacore18VirtualArrayColumnIdE14setShapeColumnERKNS_9IPositionE@Base 3.2.1-1kern1
 _ZN8casacore18VirtualArrayColumnIdE15getArrayColumnVEPv@Base 3.2.1-1kern1
 _ZN8casacore18VirtualArrayColumnIdE15getColumnSliceVERKNS_6SlicerEPv@Base 3.2.1-1kern1
 _ZN8casacore18VirtualArrayColumnIdE15putArrayColumnVEPKv@Base 3.2.1-1kern1
 _ZN8casacore18VirtualArrayColumnIdE15putColumnSliceVERKNS_6SlicerEPKv@Base 3.2.1-1kern1
 _ZN8casacore18VirtualArrayColumnIdE19getArrayColumnCellsERKNS_7RefRowsERNS_5ArrayIdEE@Base 3.2.1-1kern1
 _ZN8casacore18VirtualArrayColumnIdE19getColumnSliceCellsERKNS_7RefRowsERKNS_6SlicerERNS_5ArrayIdEE@Base 3.2.1-1kern1
 _ZN8casacore18VirtualArrayColumnIdE19putArrayColumnCellsERKNS_7RefRowsERKNS_5ArrayIdEE@Base 3.2.1-1kern1
 _ZN8casacore18VirtualArrayColumnIdE19putColumnSliceCellsERKNS_7RefRowsERKNS_6SlicerERKNS_5ArrayIdEE@Base 3.2.1-1kern1
 _ZN8casacore18VirtualArrayColumnIdE20getArrayColumnCellsVERKNS_7RefRowsEPv@Base 3.2.1-1kern1
 _ZN8casacore18VirtualArrayColumnIdE20getColumnSliceCellsVERKNS_7RefRowsERKNS_6SlicerEPv@Base 3.2.1-1kern1
 _ZN8casacore18VirtualArrayColumnIdE20putArrayColumnCellsVERKNS_7RefRowsEPKv@Base 3.2.1-1kern1
 _ZN8casacore18VirtualArrayColumnIdE20putColumnSliceCellsVERKNS_7RefRowsERKNS_6SlicerEPKv@Base 3.2.1-1kern1
 _ZN8casacore18VirtualArrayColumnIdE4ndimEj@Base 3.2.1-1kern1
 _ZN8casacore18VirtualArrayColumnIdE5shapeEj@Base 3.2.1-1kern1
 _ZN8casacore18VirtualArrayColumnIdE8getSliceEjRKNS_6SlicerERNS_5ArrayIdEE@Base 3.2.1-1kern1
 _ZN8casacore18VirtualArrayColumnIdE8putArrayEjRKNS_5ArrayIdEE@Base 3.2.1-1kern1
 _ZN8casacore18VirtualArrayColumnIdE8putSliceEjRKNS_6SlicerERKNS_5ArrayIdEE@Base 3.2.1-1kern1
 _ZN8casacore18VirtualArrayColumnIdE8setShapeEjRKNS_9IPositionE@Base 3.2.1-1kern1
 _ZN8casacore18VirtualArrayColumnIdE9getArrayVEjPv@Base 3.2.1-1kern1
 _ZN8casacore18VirtualArrayColumnIdE9getSliceVEjRKNS_6SlicerEPv@Base 3.2.1-1kern1
 _ZN8casacore18VirtualArrayColumnIdE9putArrayVEjPKv@Base 3.2.1-1kern1
 _ZN8casacore18VirtualArrayColumnIdE9putSliceVEjRKNS_6SlicerEPKv@Base 3.2.1-1kern1
 _ZN8casacore18casacore_allocatorINS_10MDirectionELm32EED1Ev@Base 3.2.1-1kern1
 _ZN8casacore18casacore_allocatorINS_10MDirectionELm32EED2Ev@Base 3.2.1-1kern1
 _ZN8casacore18casacore_allocatorINS_6MVTimeELm32EED1Ev@Base 3.2.1-1kern1
 _ZN8casacore18casacore_allocatorINS_6MVTimeELm32EED2Ev@Base 3.2.1-1kern1
 _ZN8casacore18casacore_allocatorINS_6StringELm32EED1Ev@Base 3.2.1-1kern1
 _ZN8casacore18casacore_allocatorINS_6StringELm32EED2Ev@Base 3.2.1-1kern1
 _ZN8casacore18casacore_allocatorINS_7QuantumIdEELm32EED1Ev@Base 3.2.1-1kern1
 _ZN8casacore18casacore_allocatorINS_7QuantumIdEELm32EED2Ev@Base 3.2.1-1kern1
 _ZN8casacore18casacore_allocatorIPNS_6SlicerELm32EED1Ev@Base 3.2.1-1kern1
 _ZN8casacore18casacore_allocatorIPNS_6SlicerELm32EED2Ev@Base 3.2.1-1kern1
 _ZN8casacore18casacore_allocatorIbLm32EED1Ev@Base 3.2.1-1kern1
 _ZN8casacore18casacore_allocatorIbLm32EED2Ev@Base 3.2.1-1kern1
 _ZN8casacore18casacore_allocatorIjLm32EED1Ev@Base 3.2.1-1kern1
 _ZN8casacore18casacore_allocatorIjLm32EED2Ev@Base 3.2.1-1kern1
 _ZN8casacore19VirtualScalarColumnIdE10getStringVEjPNS_6StringE@Base 3.2.1-1kern1
 _ZN8casacore19VirtualScalarColumnIdE10getdoubleVEjPd@Base 3.2.1-1kern1
 _ZN8casacore19VirtualScalarColumnIdE10getuShortVEjPt@Base 3.2.1-1kern1
 _ZN8casacore19VirtualScalarColumnIdE10putStringVEjPKNS_6StringE@Base 3.2.1-1kern1
 _ZN8casacore19VirtualScalarColumnIdE10putdoubleVEjPKd@Base 3.2.1-1kern1
 _ZN8casacore19VirtualScalarColumnIdE10putuShortVEjPKt@Base 3.2.1-1kern1
 _ZN8casacore19VirtualScalarColumnIdE11getComplexVEjPSt7complexIfE@Base 3.2.1-1kern1
 _ZN8casacore19VirtualScalarColumnIdE11putComplexVEjPKSt7complexIfE@Base 3.2.1-1kern1
 _ZN8casacore19VirtualScalarColumnIdE12getDComplexVEjPSt7complexIdE@Base 3.2.1-1kern1
 _ZN8casacore19VirtualScalarColumnIdE12putDComplexVEjPKSt7complexIdE@Base 3.2.1-1kern1
 _ZN8casacore19VirtualScalarColumnIdE15getScalarColumnERNS_6VectorIdEE@Base 3.2.1-1kern1
 _ZN8casacore19VirtualScalarColumnIdE15putScalarColumnERKNS_6VectorIdEE@Base 3.2.1-1kern1
 _ZN8casacore19VirtualScalarColumnIdE16getScalarColumnVEPv@Base 3.2.1-1kern1
 _ZN8casacore19VirtualScalarColumnIdE16putScalarColumnVEPKv@Base 3.2.1-1kern1
 _ZN8casacore19VirtualScalarColumnIdE3putEjRKd@Base 3.2.1-1kern1
 _ZN8casacore19VirtualScalarColumnIdE7getIntVEjPi@Base 3.2.1-1kern1
 _ZN8casacore19VirtualScalarColumnIdE7putIntVEjPKi@Base 3.2.1-1kern1
 _ZN8casacore19VirtualScalarColumnIdE8getBlockEjjPd@Base 3.2.1-1kern1
 _ZN8casacore19VirtualScalarColumnIdE8getBoolVEjPb@Base 3.2.1-1kern1
 _ZN8casacore19VirtualScalarColumnIdE8getuIntVEjPj@Base 3.2.1-1kern1
 _ZN8casacore19VirtualScalarColumnIdE8putBlockEjjPKd@Base 3.2.1-1kern1
 _ZN8casacore19VirtualScalarColumnIdE8putBoolVEjPKb@Base 3.2.1-1kern1
 _ZN8casacore19VirtualScalarColumnIdE8putuIntVEjPKj@Base 3.2.1-1kern1
 _ZN8casacore19VirtualScalarColumnIdE9getBlockVEjjPv@Base 3.2.1-1kern1
 _ZN8casacore19VirtualScalarColumnIdE9getInt64VEjPx@Base 3.2.1-1kern1
 _ZN8casacore19VirtualScalarColumnIdE9getOtherVEjPv@Base 3.2.1-1kern1
 _ZN8casacore19VirtualScalarColumnIdE9getShortVEjPs@Base 3.2.1-1kern1
 _ZN8casacore19VirtualScalarColumnIdE9getfloatVEjPf@Base 3.2.1-1kern1
 _ZN8casacore19VirtualScalarColumnIdE9getuCharVEjPh@Base 3.2.1-1kern1
 _ZN8casacore19VirtualScalarColumnIdE9putBlockVEjjPKv@Base 3.2.1-1kern1
 _ZN8casacore19VirtualScalarColumnIdE9putInt64VEjPKx@Base 3.2.1-1kern1
 _ZN8casacore19VirtualScalarColumnIdE9putOtherVEjPKv@Base 3.2.1-1kern1
 _ZN8casacore19VirtualScalarColumnIdE9putShortVEjPKs@Base 3.2.1-1kern1
 _ZN8casacore19VirtualScalarColumnIdE9putfloatVEjPKf@Base 3.2.1-1kern1
 _ZN8casacore19VirtualScalarColumnIdE9putuCharVEjPKh@Base 3.2.1-1kern1
 _ZN8casacore20UDFMSCalErrorHandler11handleErrorERNS_16MSSelectionErrorE@Base 3.2.1-1kern1
 _ZN8casacore20UDFMSCalErrorHandler11reportErrorEPKcNS_6StringE@Base 3.2.1-1kern1
 _ZN8casacore20UDFMSCalErrorHandlerD0Ev@Base 3.2.1-1kern1
 _ZN8casacore20UDFMSCalErrorHandlerD1Ev@Base 3.2.1-1kern1
 _ZN8casacore20UDFMSCalErrorHandlerD2Ev@Base 3.2.1-1kern1
 _ZN8casacore21ArrayPositionIteratorD0Ev@Base 3.2.1-1kern1
 _ZN8casacore21ArrayPositionIteratorD1Ev@Base 3.2.1-1kern1
 _ZN8casacore21ArrayPositionIteratorD2Ev@Base 3.2.1-1kern1
 _ZN8casacore21arrayTransformInPlaceIddSt10multipliesIdEEEvRNS_5ArrayIT_EET0_T1_@Base 3.2.1-1kern1
 _ZN8casacore23MSSelectionErrorHandler5cloneEv@Base 3.2.1-1kern1
 _ZN8casacore26UnitVal_static_initializerC1Ev@Base 3.2.1-1kern1
 _ZN8casacore26UnitVal_static_initializerC2Ev@Base 3.2.1-1kern1
 _ZN8casacore5ArrayINS_10MDirectionEE10assignBaseERKNS_9ArrayBaseEb@Base 3.2.1-1kern1
 _ZN8casacore5ArrayINS_10MDirectionEE10getStorageERb@Base 3.2.1-1kern1
 _ZN8casacore5ArrayINS_10MDirectionEE10putStorageERPS1_b@Base 3.2.1-1kern1
 _ZN8casacore5ArrayINS_10MDirectionEE11getVStorageERb@Base 3.2.1-1kern1
 _ZN8casacore5ArrayINS_10MDirectionEE11putVStorageERPvb@Base 3.2.1-1kern1
 _ZN8casacore5ArrayINS_10MDirectionEE11takeStorageERKNS_9IPositionEPKS1_@Base 3.2.1-1kern1
 _ZN8casacore5ArrayINS_10MDirectionEE11takeStorageERKNS_9IPositionEPKS1_RKNS_17AbstractAllocatorIS1_EE@Base 3.2.1-1kern1
 _ZN8casacore5ArrayINS_10MDirectionEE11takeStorageERKNS_9IPositionEPS1_NS_17StorageInitPolicyE@Base 3.2.1-1kern1
 _ZN8casacore5ArrayINS_10MDirectionEE11takeStorageERKNS_9IPositionEPS1_NS_17StorageInitPolicyERKNS_17AbstractAllocatorIS1_EE@Base 3.2.1-1kern1
 _ZN8casacore5ArrayINS_10MDirectionEE14preTakeStorageERKNS_9IPositionE@Base 3.2.1-1kern1
 _ZN8casacore5ArrayINS_10MDirectionEE15BaseIteratorSTL9incrementEv@Base 3.2.1-1kern1
 _ZN8casacore5ArrayINS_10MDirectionEE15BaseIteratorSTLC1ERKS2_@Base 3.2.1-1kern1
 _ZN8casacore5ArrayINS_10MDirectionEE15BaseIteratorSTLC2ERKS2_@Base 3.2.1-1kern1
 _ZN8casacore5ArrayINS_10MDirectionEE15doNonDegenerateERKS2_RKNS_9IPositionE@Base 3.2.1-1kern1
 _ZN8casacore5ArrayINS_10MDirectionEE15postTakeStorageEv@Base 3.2.1-1kern1
 _ZN8casacore5ArrayINS_10MDirectionEE16copyMatchingPartERKS2_@Base 3.2.1-1kern1
 _ZN8casacore5ArrayINS_10MDirectionEE23copyToContiguousStorageEPS1_RKS2_NS_15ArrayInitPolicyE@Base 3.2.1-1kern1
 _ZN8casacore5ArrayINS_10MDirectionEE6assignERKS2_@Base 3.2.1-1kern1
 _ZN8casacore5ArrayINS_10MDirectionEE6resizeERKNS_9IPositionEb@Base 3.2.1-1kern1
 _ZN8casacore5ArrayINS_10MDirectionEE6resizeERKNS_9IPositionEbNS_15ArrayInitPolicyE@Base 3.2.1-1kern1
 _ZN8casacore5ArrayINS_10MDirectionEE6resizeEv@Base 3.2.1-1kern1
 _ZN8casacore5ArrayINS_10MDirectionEE9referenceERKS2_@Base 3.2.1-1kern1
 _ZN8casacore5ArrayINS_10MDirectionEEC1ERKNS_9IPositionENS_15ArrayInitPolicyEPNS_17Allocator_private13BulkAllocatorIS1_EE@Base 3.2.1-1kern1
 _ZN8casacore5ArrayINS_10MDirectionEEC1ERKS2_@Base 3.2.1-1kern1
 _ZN8casacore5ArrayINS_10MDirectionEEC1Ev@Base 3.2.1-1kern1
 _ZN8casacore5ArrayINS_10MDirectionEEC2ERKNS_9IPositionENS_15ArrayInitPolicyEPNS_17Allocator_private13BulkAllocatorIS1_EE@Base 3.2.1-1kern1
 _ZN8casacore5ArrayINS_10MDirectionEEC2ERKS2_@Base 3.2.1-1kern1
 _ZN8casacore5ArrayINS_10MDirectionEEC2Ev@Base 3.2.1-1kern1
 _ZN8casacore5ArrayINS_10MDirectionEED0Ev@Base 3.2.1-1kern1
 _ZN8casacore5ArrayINS_10MDirectionEED1Ev@Base 3.2.1-1kern1
 _ZN8casacore5ArrayINS_10MDirectionEED2Ev@Base 3.2.1-1kern1
 _ZN8casacore5ArrayINS_10MDirectionEEaSERKS2_@Base 3.2.1-1kern1
 _ZN8casacore5ArrayINS_10MDirectionEEclERKNS_6SlicerE@Base 3.2.1-1kern1
 _ZN8casacore5ArrayINS_10MDirectionEEclERKNS_9IPositionES5_@Base 3.2.1-1kern1
 _ZN8casacore5ArrayINS_10MDirectionEEclERKNS_9IPositionES5_S5_@Base 3.2.1-1kern1
 _ZN8casacore5ArrayINS_7QuantumIdEEE10assignBaseERKNS_9ArrayBaseEb@Base 3.2.1-1kern1
 _ZN8casacore5ArrayINS_7QuantumIdEEE10getStorageERb@Base 3.2.1-1kern1
 _ZN8casacore5ArrayINS_7QuantumIdEEE10putStorageERPS2_b@Base 3.2.1-1kern1
 _ZN8casacore5ArrayINS_7QuantumIdEEE11getVStorageERb@Base 3.2.1-1kern1
 _ZN8casacore5ArrayINS_7QuantumIdEEE11putVStorageERPvb@Base 3.2.1-1kern1
 _ZN8casacore5ArrayINS_7QuantumIdEEE11takeStorageERKNS_9IPositionEPKS2_@Base 3.2.1-1kern1
 _ZN8casacore5ArrayINS_7QuantumIdEEE11takeStorageERKNS_9IPositionEPKS2_RKNS_17AbstractAllocatorIS2_EE@Base 3.2.1-1kern1
 _ZN8casacore5ArrayINS_7QuantumIdEEE11takeStorageERKNS_9IPositionEPS2_NS_17StorageInitPolicyE@Base 3.2.1-1kern1
 _ZN8casacore5ArrayINS_7QuantumIdEEE11takeStorageERKNS_9IPositionEPS2_NS_17StorageInitPolicyERKNS_17AbstractAllocatorIS2_EE@Base 3.2.1-1kern1
 _ZN8casacore5ArrayINS_7QuantumIdEEE14preTakeStorageERKNS_9IPositionE@Base 3.2.1-1kern1
 _ZN8casacore5ArrayINS_7QuantumIdEEE15BaseIteratorSTL9incrementEv@Base 3.2.1-1kern1
 _ZN8casacore5ArrayINS_7QuantumIdEEE15BaseIteratorSTLC1ERKS3_@Base 3.2.1-1kern1
 _ZN8casacore5ArrayINS_7QuantumIdEEE15BaseIteratorSTLC2ERKS3_@Base 3.2.1-1kern1
 _ZN8casacore5ArrayINS_7QuantumIdEEE15doNonDegenerateERKS3_RKNS_9IPositionE@Base 3.2.1-1kern1
 _ZN8casacore5ArrayINS_7QuantumIdEEE15postTakeStorageEv@Base 3.2.1-1kern1
 _ZN8casacore5ArrayINS_7QuantumIdEEE16copyMatchingPartERKS3_@Base 3.2.1-1kern1
 _ZN8casacore5ArrayINS_7QuantumIdEEE23copyToContiguousStorageEPS2_RKS3_NS_15ArrayInitPolicyE@Base 3.2.1-1kern1
 _ZN8casacore5ArrayINS_7QuantumIdEEE6assignERKS3_@Base 3.2.1-1kern1
 _ZN8casacore5ArrayINS_7QuantumIdEEE6resizeERKNS_9IPositionEb@Base 3.2.1-1kern1
 _ZN8casacore5ArrayINS_7QuantumIdEEE6resizeERKNS_9IPositionEbNS_15ArrayInitPolicyE@Base 3.2.1-1kern1
 _ZN8casacore5ArrayINS_7QuantumIdEEE6resizeEv@Base 3.2.1-1kern1
 _ZN8casacore5ArrayINS_7QuantumIdEEE9referenceERKS3_@Base 3.2.1-1kern1
 _ZN8casacore5ArrayINS_7QuantumIdEEEC1ERKNS_9IPositionENS_15ArrayInitPolicyEPNS_17Allocator_private13BulkAllocatorIS2_EE@Base 3.2.1-1kern1
 _ZN8casacore5ArrayINS_7QuantumIdEEEC1ERKS3_@Base 3.2.1-1kern1
 _ZN8casacore5ArrayINS_7QuantumIdEEEC1Ev@Base 3.2.1-1kern1
 _ZN8casacore5ArrayINS_7QuantumIdEEEC2ERKNS_9IPositionENS_15ArrayInitPolicyEPNS_17Allocator_private13BulkAllocatorIS2_EE@Base 3.2.1-1kern1
 _ZN8casacore5ArrayINS_7QuantumIdEEEC2ERKS3_@Base 3.2.1-1kern1
 _ZN8casacore5ArrayINS_7QuantumIdEEEC2Ev@Base 3.2.1-1kern1
 _ZN8casacore5ArrayINS_7QuantumIdEEED0Ev@Base 3.2.1-1kern1
 _ZN8casacore5ArrayINS_7QuantumIdEEED1Ev@Base 3.2.1-1kern1
 _ZN8casacore5ArrayINS_7QuantumIdEEED2Ev@Base 3.2.1-1kern1
 _ZN8casacore5ArrayINS_7QuantumIdEEEaSERKS3_@Base 3.2.1-1kern1
 _ZN8casacore5ArrayINS_7QuantumIdEEEclERKNS_6SlicerE@Base 3.2.1-1kern1
 _ZN8casacore5ArrayINS_7QuantumIdEEEclERKNS_9IPositionES6_@Base 3.2.1-1kern1
 _ZN8casacore5ArrayINS_7QuantumIdEEEclERKNS_9IPositionES6_S6_@Base 3.2.1-1kern1
 _ZN8casacore5BlockINS_10MDirectionEE6deinitEv@Base 3.2.1-1kern1
 _ZN8casacore5BlockINS_10MDirectionEE7deallocEv@Base 3.2.1-1kern1
 _ZN8casacore5BlockINS_7QuantumIdEEE4initENS_15ArrayInitPolicyE@Base 3.2.1-1kern1
 _ZN8casacore5BlockINS_7QuantumIdEEE6deinitEv@Base 3.2.1-1kern1
 _ZN8casacore6MArrayISt7complexIdEED1Ev@Base 3.2.1-1kern1
 _ZN8casacore6MArrayISt7complexIdEED2Ev@Base 3.2.1-1kern1
 _ZN8casacore6MArrayIbED1Ev@Base 3.2.1-1kern1
 _ZN8casacore6MArrayIbED2Ev@Base 3.2.1-1kern1
 _ZN8casacore6MArrayIdEC1ERKNS_5ArrayIdEE@Base 3.2.1-1kern1
 _ZN8casacore6MArrayIdEC2ERKNS_5ArrayIdEE@Base 3.2.1-1kern1
 _ZN8casacore6MArrayIdED1Ev@Base 3.2.1-1kern1
 _ZN8casacore6MArrayIdED2Ev@Base 3.2.1-1kern1
 _ZN8casacore6MatrixIiE14preTakeStorageERKNS_9IPositionE@Base 3.2.1-1kern1
 _ZN8casacore6MatrixIiE15doNonDegenerateERKNS_5ArrayIiEERKNS_9IPositionE@Base 3.2.1-1kern1
 _ZN8casacore6MatrixIiE15postTakeStorageEv@Base 3.2.1-1kern1
 _ZN8casacore6MatrixIiE6assignERKNS_5ArrayIiEE@Base 3.2.1-1kern1
 _ZN8casacore6MatrixIiE6resizeERKNS_9IPositionEbNS_15ArrayInitPolicyE@Base 3.2.1-1kern1
 _ZN8casacore6MatrixIiE6resizeEv@Base 3.2.1-1kern1
 _ZN8casacore6MatrixIiE9referenceERKNS_5ArrayIiEE@Base 3.2.1-1kern1
 _ZN8casacore6MatrixIiEC1Ev@Base 3.2.1-1kern1
 _ZN8casacore6MatrixIiEC2Ev@Base 3.2.1-1kern1
 _ZN8casacore6MatrixIiED0Ev@Base 3.2.1-1kern1
 _ZN8casacore6MatrixIiED1Ev@Base 3.2.1-1kern1
 _ZN8casacore6MatrixIiED2Ev@Base 3.2.1-1kern1
 _ZN8casacore6MatrixIiEaSERKNS_5ArrayIiEE@Base 3.2.1-1kern1
 _ZN8casacore6String8toStringIiEES0_RKT_@Base 3.2.1-1kern1
 _ZN8casacore6String8toStringIjEES0_RKT_@Base 3.2.1-1kern1
 _ZN8casacore6String8toStringImEES0_RKT_@Base 3.2.1-1kern1
 _ZN8casacore6StringD1Ev@Base 3.2.1-1kern1
 _ZN8casacore6StringD2Ev@Base 3.2.1-1kern1
 _ZN8casacore6VectorINS_7QuantumIdEEE14preTakeStorageERKNS_9IPositionE@Base 3.2.1-1kern1
 _ZN8casacore6VectorINS_7QuantumIdEEE15doNonDegenerateERKNS_5ArrayIS2_EERKNS_9IPositionE@Base 3.2.1-1kern1
 _ZN8casacore6VectorINS_7QuantumIdEEE6assignERKNS_5ArrayIS2_EE@Base 3.2.1-1kern1
 _ZN8casacore6VectorINS_7QuantumIdEEE6resizeERKNS_9IPositionEbNS_15ArrayInitPolicyE@Base 3.2.1-1kern1
 _ZN8casacore6VectorINS_7QuantumIdEEE6resizeEv@Base 3.2.1-1kern1
 _ZN8casacore6VectorINS_7QuantumIdEEE9referenceERKNS_5ArrayIS2_EE@Base 3.2.1-1kern1
 _ZN8casacore6VectorINS_7QuantumIdEEEC1Em@Base 3.2.1-1kern1
 _ZN8casacore6VectorINS_7QuantumIdEEEC2Em@Base 3.2.1-1kern1
 _ZN8casacore6VectorINS_7QuantumIdEEED0Ev@Base 3.2.1-1kern1
 _ZN8casacore6VectorINS_7QuantumIdEEED1Ev@Base 3.2.1-1kern1
 _ZN8casacore6VectorINS_7QuantumIdEEED2Ev@Base 3.2.1-1kern1
 _ZN8casacore6VectorINS_7QuantumIdEEEaSERKNS_5ArrayIS2_EE@Base 3.2.1-1kern1
 _ZN8casacore6VectorINS_7QuantumIdEEEaSERKS3_@Base 3.2.1-1kern1
 _ZN8casacore7MeasRefINS_10MDirectionEE3setERKNS_7MeasureE@Base 3.2.1-1kern1
 _ZN8casacore7MeasRefINS_10MDirectionEE3setERKNS_9MeasFrameE@Base 3.2.1-1kern1
 _ZN8casacore7MeasRefINS_10MDirectionEE3setERKS1_@Base 3.2.1-1kern1
 _ZN8casacore7MeasRefINS_10MDirectionEE3setEj@Base 3.2.1-1kern1
 _ZN8casacore7MeasRefINS_10MDirectionEE6createEv@Base 3.2.1-1kern1
 _ZN8casacore7MeasRefINS_10MDirectionEE7setTypeEj@Base 3.2.1-1kern1
 _ZN8casacore7MeasRefINS_10MDirectionEE8getFrameEv@Base 3.2.1-1kern1
 _ZN8casacore7MeasRefINS_10MDirectionEEC1Ej@Base 3.2.1-1kern1
 _ZN8casacore7MeasRefINS_10MDirectionEEC1EjRKNS_9MeasFrameE@Base 3.2.1-1kern1
 _ZN8casacore7MeasRefINS_10MDirectionEEC2Ej@Base 3.2.1-1kern1
 _ZN8casacore7MeasRefINS_10MDirectionEEC2EjRKNS_9MeasFrameE@Base 3.2.1-1kern1
 _ZN8casacore7MeasRefINS_10MDirectionEED0Ev@Base 3.2.1-1kern1
 _ZN8casacore7MeasRefINS_10MDirectionEED1Ev@Base 3.2.1-1kern1
 _ZN8casacore7MeasRefINS_10MDirectionEED2Ev@Base 3.2.1-1kern1
 _ZN8casacore7MeasRefINS_4MuvwEE3setERKNS_9MeasFrameE@Base 3.2.1-1kern1
 _ZN8casacore7MeasRefINS_4MuvwEE3setEj@Base 3.2.1-1kern1
 _ZN8casacore7MeasRefINS_4MuvwEE6createEv@Base 3.2.1-1kern1
 _ZN8casacore7MeasRefINS_4MuvwEE7setTypeEj@Base 3.2.1-1kern1
 _ZN8casacore7MeasRefINS_4MuvwEE8getFrameEv@Base 3.2.1-1kern1
 _ZN8casacore7MeasRefINS_4MuvwEEC1Ej@Base 3.2.1-1kern1
 _ZN8casacore7MeasRefINS_4MuvwEEC1EjRKNS_9MeasFrameE@Base 3.2.1-1kern1
 _ZN8casacore7MeasRefINS_4MuvwEEC2Ej@Base 3.2.1-1kern1
 _ZN8casacore7MeasRefINS_4MuvwEEC2EjRKNS_9MeasFrameE@Base 3.2.1-1kern1
 _ZN8casacore7MeasRefINS_4MuvwEED0Ev@Base 3.2.1-1kern1
 _ZN8casacore7MeasRefINS_4MuvwEED1Ev@Base 3.2.1-1kern1
 _ZN8casacore7MeasRefINS_4MuvwEED2Ev@Base 3.2.1-1kern1
 _ZN8casacore7MeasRefINS_6MEpochEE3setERKNS_9MeasFrameE@Base 3.2.1-1kern1
 _ZN8casacore7MeasRefINS_6MEpochEE3setEj@Base 3.2.1-1kern1
 _ZN8casacore7MeasRefINS_6MEpochEE6createEv@Base 3.2.1-1kern1
 _ZN8casacore7MeasRefINS_6MEpochEE7setTypeEj@Base 3.2.1-1kern1
 _ZN8casacore7MeasRefINS_6MEpochEE8getFrameEv@Base 3.2.1-1kern1
 _ZN8casacore7MeasRefINS_6MEpochEEC1Ej@Base 3.2.1-1kern1
 _ZN8casacore7MeasRefINS_6MEpochEEC1EjRKNS_9MeasFrameE@Base 3.2.1-1kern1
 _ZN8casacore7MeasRefINS_6MEpochEEC2Ej@Base 3.2.1-1kern1
 _ZN8casacore7MeasRefINS_6MEpochEEC2EjRKNS_9MeasFrameE@Base 3.2.1-1kern1
 _ZN8casacore7MeasRefINS_6MEpochEED0Ev@Base 3.2.1-1kern1
 _ZN8casacore7MeasRefINS_6MEpochEED1Ev@Base 3.2.1-1kern1
 _ZN8casacore7MeasRefINS_6MEpochEED2Ev@Base 3.2.1-1kern1
 _ZN8casacore7MeasRefINS_9MBaselineEE3setERKNS_9MeasFrameE@Base 3.2.1-1kern1
 _ZN8casacore7MeasRefINS_9MBaselineEE3setEj@Base 3.2.1-1kern1
 _ZN8casacore7MeasRefINS_9MBaselineEE6createEv@Base 3.2.1-1kern1
 _ZN8casacore7MeasRefINS_9MBaselineEE7setTypeEj@Base 3.2.1-1kern1
 _ZN8casacore7MeasRefINS_9MBaselineEE8getFrameEv@Base 3.2.1-1kern1
 _ZN8casacore7MeasRefINS_9MBaselineEEC1Ej@Base 3.2.1-1kern1
 _ZN8casacore7MeasRefINS_9MBaselineEEC1EjRKNS_9MeasFrameE@Base 3.2.1-1kern1
 _ZN8casacore7MeasRefINS_9MBaselineEEC2Ej@Base 3.2.1-1kern1
 _ZN8casacore7MeasRefINS_9MBaselineEEC2EjRKNS_9MeasFrameE@Base 3.2.1-1kern1
 _ZN8casacore7MeasRefINS_9MBaselineEED0Ev@Base 3.2.1-1kern1
 _ZN8casacore7MeasRefINS_9MBaselineEED1Ev@Base 3.2.1-1kern1
 _ZN8casacore7MeasRefINS_9MBaselineEED2Ev@Base 3.2.1-1kern1
 _ZN8casacore7MeasRefINS_9MPositionEE3setERKNS_9MeasFrameE@Base 3.2.1-1kern1
 _ZN8casacore7MeasRefINS_9MPositionEE3setEj@Base 3.2.1-1kern1
 _ZN8casacore7MeasRefINS_9MPositionEE6createEv@Base 3.2.1-1kern1
 _ZN8casacore7MeasRefINS_9MPositionEE7setTypeEj@Base 3.2.1-1kern1
 _ZN8casacore7MeasRefINS_9MPositionEE8getFrameEv@Base 3.2.1-1kern1
 _ZN8casacore7MeasRefINS_9MPositionEEC1Ej@Base 3.2.1-1kern1
 _ZN8casacore7MeasRefINS_9MPositionEEC1EjRKNS_9MeasFrameE@Base 3.2.1-1kern1
 _ZN8casacore7MeasRefINS_9MPositionEEC2Ej@Base 3.2.1-1kern1
 _ZN8casacore7MeasRefINS_9MPositionEEC2EjRKNS_9MeasFrameE@Base 3.2.1-1kern1
 _ZN8casacore7MeasRefINS_9MPositionEED0Ev@Base 3.2.1-1kern1
 _ZN8casacore7MeasRefINS_9MPositionEED1Ev@Base 3.2.1-1kern1
 _ZN8casacore7MeasRefINS_9MPositionEED2Ev@Base 3.2.1-1kern1
 _ZN8casacore7assert_INS_9AipsErrorEEC1EiPKcS4_i@Base 3.2.1-1kern1
 _ZN8casacore7assert_INS_9AipsErrorEEC2EiPKcS4_i@Base 3.2.1-1kern1
 _ZN8casacore7objcopyINS_10MDirectionEEEvPT_PKS2_m@Base 3.2.1-1kern1
 _ZN8casacore7objcopyINS_10MDirectionEEEvPT_PKS2_mmm@Base 3.2.1-1kern1
 _ZN8casacore7objcopyINS_7QuantumIdEEEEvPT_PKS3_m@Base 3.2.1-1kern1
 _ZN8casacore7objcopyINS_7QuantumIdEEEEvPT_PKS3_mmm@Base 3.2.1-1kern1
 _ZN8casacore8MeasBaseINS_11MVDirectionENS_7MeasRefINS_10MDirectionEEEE3setERKNS_9MeasValueE@Base 3.2.1-1kern1
 _ZN8casacore8MeasBaseINS_11MVDirectionENS_7MeasRefINS_10MDirectionEEEE3setERKS1_RKS4_@Base 3.2.1-1kern1
 _ZN8casacore8MeasBaseINS_11MVDirectionENS_7MeasRefINS_10MDirectionEEEE5clearEv@Base 3.2.1-1kern1
 _ZN8casacore8MeasBaseINS_11MVDirectionENS_7MeasRefINS_10MDirectionEEEE8putValueERKNS_6VectorINS_7QuantumIdEEEE@Base 3.2.1-1kern1
 _ZN8casacore8MeasBaseINS_11MVDirectionENS_7MeasRefINS_10MDirectionEEEEC1ERKS5_@Base 3.2.1-1kern1
 _ZN8casacore8MeasBaseINS_11MVDirectionENS_7MeasRefINS_10MDirectionEEEEC2ERKS5_@Base 3.2.1-1kern1
 _ZN8casacore8MeasBaseINS_7MVEpochENS_7MeasRefINS_6MEpochEEEE3setERKNS_9MeasValueE@Base 3.2.1-1kern1
 _ZN8casacore8MeasBaseINS_7MVEpochENS_7MeasRefINS_6MEpochEEEE5clearEv@Base 3.2.1-1kern1
 _ZN8casacore8MeasBaseINS_7MVEpochENS_7MeasRefINS_6MEpochEEEE8putValueERKNS_6VectorINS_7QuantumIdEEEE@Base 3.2.1-1kern1
 _ZN8casacore8MeasBaseINS_7MVEpochENS_7MeasRefINS_6MEpochEEEEC1ERKS5_@Base 3.2.1-1kern1
 _ZN8casacore8MeasBaseINS_7MVEpochENS_7MeasRefINS_6MEpochEEEEC2ERKS5_@Base 3.2.1-1kern1
 _ZN8casacore8UDFMSCal10makeDelay1ERKNS_6StringE@Base 3.2.1-1kern1
 _ZN8casacore8UDFMSCal10makeDelay2ERKNS_6StringE@Base 3.2.1-1kern1
 _ZN8casacore8UDFMSCal10makeHADEC1ERKNS_6StringE@Base 3.2.1-1kern1
 _ZN8casacore8UDFMSCal10makeHADEC2ERKNS_6StringE@Base 3.2.1-1kern1
 _ZN8casacore8UDFMSCal10makeObsColERKNS_6StringE@Base 3.2.1-1kern1
 _ZN8casacore8UDFMSCal10makePolColERKNS_6StringE@Base 3.2.1-1kern1
 _ZN8casacore8UDFMSCal10makeSpwColERKNS_6StringE@Base 3.2.1-1kern1
 _ZN8casacore8UDFMSCal10makeStokesERKNS_6StringE@Base 3.2.1-1kern1
 _ZN8casacore8UDFMSCal10makeSubColERKNS_6StringE@Base 3.2.1-1kern1
 _ZN8casacore8UDFMSCal10makeUVDistERKNS_6StringE@Base 3.2.1-1kern1
 _ZN8casacore8UDFMSCal10makeUvwAPPERKNS_6StringE@Base 3.2.1-1kern1
 _ZN8casacore8UDFMSCal10makeUvwWvlERKNS_6StringE@Base 3.2.1-1kern1
 _ZN8casacore8UDFMSCal10makeWvlAPPERKNS_6StringE@Base 3.2.1-1kern1
 _ZN8casacore8UDFMSCal11getArrayIntERKNS_11TableExprIdE@Base 3.2.1-1kern1
 _ZN8casacore8UDFMSCal11getDComplexERKNS_11TableExprIdE@Base 3.2.1-1kern1
 _ZN8casacore8UDFMSCal11makeAnt1ColERKNS_6StringE@Base 3.2.1-1kern1
 _ZN8casacore8UDFMSCal11makeAnt2ColERKNS_6StringE@Base 3.2.1-1kern1
 _ZN8casacore8UDFMSCal11makeProcColERKNS_6StringE@Base 3.2.1-1kern1
 _ZN8casacore8UDFMSCal11makeUvwWvlsERKNS_6StringE@Base 3.2.1-1kern1
 _ZN8casacore8UDFMSCal11makeWvlsAPPERKNS_6StringE@Base 3.2.1-1kern1
 _ZN8casacore8UDFMSCal11setupStokesERKNS_5TableERSt6vectorINS_10CountedPtrINS_16TableExprNodeRepEEESaIS7_EE@Base 3.2.1-1kern1
 _ZN8casacore8UDFMSCal12getArrayBoolERKNS_11TableExprIdE@Base 3.2.1-1kern1
 _ZN8casacore8UDFMSCal12makeAnt1NameERKNS_6StringE@Base 3.2.1-1kern1
 _ZN8casacore8UDFMSCal12makeAnt2NameERKNS_6StringE@Base 3.2.1-1kern1
 _ZN8casacore8UDFMSCal12makeBaselineERKNS_6StringE@Base 3.2.1-1kern1
 _ZN8casacore8UDFMSCal12makeFieldColERKNS_6StringE@Base 3.2.1-1kern1
 _ZN8casacore8UDFMSCal12makeStateColERKNS_6StringE@Base 3.2.1-1kern1
 _ZN8casacore8UDFMSCal12makeUvwJ2000ERKNS_6StringE@Base 3.2.1-1kern1
 _ZN8casacore8UDFMSCal12makeWvlJ2000ERKNS_6StringE@Base 3.2.1-1kern1
 _ZN8casacore8UDFMSCal13makeWvlsJ2000ERKNS_6StringE@Base 3.2.1-1kern1
 _ZN8casacore8UDFMSCal13setupGetValueERKNS_5TableERSt6vectorINS_10CountedPtrINS_16TableExprNodeRepEEESaIS7_EE@Base 3.2.1-1kern1
 _ZN8casacore8UDFMSCal14getArrayDoubleERKNS_11TableExprIdE@Base 3.2.1-1kern1
 _ZN8casacore8UDFMSCal14getArrayStringERKNS_11TableExprIdE@Base 3.2.1-1kern1
 _ZN8casacore8UDFMSCal14setupSelectionERKNS_5TableERSt6vectorINS_10CountedPtrINS_16TableExprNodeRepEEESaIS7_EE@Base 3.2.1-1kern1
 _ZN8casacore8UDFMSCal16getArrayDComplexERKNS_11TableExprIdE@Base 3.2.1-1kern1
 _ZN8casacore8UDFMSCal21recreateColumnObjectsERKNS_6VectorIjEE@Base 3.2.1-1kern1
 _ZN8casacore8UDFMSCal5setupERKNS_5TableERKNS_9TaQLStyleE@Base 3.2.1-1kern1
 _ZN8casacore8UDFMSCal6getIntERKNS_11TableExprIdE@Base 3.2.1-1kern1
 _ZN8casacore8UDFMSCal6makeHAERKNS_6StringE@Base 3.2.1-1kern1
 _ZN8casacore8UDFMSCal6toWvlsERKNS_11TableExprIdE@Base 3.2.1-1kern1
 _ZN8casacore8UDFMSCal7getBoolERKNS_11TableExprIdE@Base 3.2.1-1kern1
 _ZN8casacore8UDFMSCal7makeHA1ERKNS_6StringE@Base 3.2.1-1kern1
 _ZN8casacore8UDFMSCal7makeHA2ERKNS_6StringE@Base 3.2.1-1kern1
 _ZN8casacore8UDFMSCal7makeObsERKNS_6StringE@Base 3.2.1-1kern1
 _ZN8casacore8UDFMSCal7makePA1ERKNS_6StringE@Base 3.2.1-1kern1
 _ZN8casacore8UDFMSCal7makePA2ERKNS_6StringE@Base 3.2.1-1kern1
 _ZN8casacore8UDFMSCal7makeSpwERKNS_6StringE@Base 3.2.1-1kern1
 _ZN8casacore8UDFMSCal8getRowNrERKNS_11TableExprIdE@Base 3.2.1-1kern1
 _ZN8casacore8UDFMSCal8makeAZELERKNS_6StringE@Base 3.2.1-1kern1
 _ZN8casacore8UDFMSCal8makeCorrERKNS_6StringE@Base 3.2.1-1kern1
 _ZN8casacore8UDFMSCal8makeFeedERKNS_6StringE@Base 3.2.1-1kern1
 _ZN8casacore8UDFMSCal8makeITRFERKNS_6StringE@Base 3.2.1-1kern1
 _ZN8casacore8UDFMSCal8makeLASTERKNS_6StringE@Base 3.2.1-1kern1
 _ZN8casacore8UDFMSCal8makeScanERKNS_6StringE@Base 3.2.1-1kern1
 _ZN8casacore8UDFMSCal8makeTimeERKNS_6StringE@Base 3.2.1-1kern1
 _ZN8casacore8UDFMSCal8setupDirERNS_10CountedPtrINS_16TableExprNodeRepEEE@Base 3.2.1-1kern1
 _ZN8casacore8UDFMSCal9getDoubleERKNS_11TableExprIdE@Base 3.2.1-1kern1
 _ZN8casacore8UDFMSCal9getStringERKNS_11TableExprIdE@Base 3.2.1-1kern1
 _ZN8casacore8UDFMSCal9makeAZEL1ERKNS_6StringE@Base 3.2.1-1kern1
 _ZN8casacore8UDFMSCal9makeAZEL2ERKNS_6StringE@Base 3.2.1-1kern1
 _ZN8casacore8UDFMSCal9makeArrayERKNS_6StringE@Base 3.2.1-1kern1
 _ZN8casacore8UDFMSCal9makeDelayERKNS_6StringE@Base 3.2.1-1kern1
 _ZN8casacore8UDFMSCal9makeFieldERKNS_6StringE@Base 3.2.1-1kern1
 _ZN8casacore8UDFMSCal9makeHADECERKNS_6StringE@Base 3.2.1-1kern1
 _ZN8casacore8UDFMSCal9makeLAST1ERKNS_6StringE@Base 3.2.1-1kern1
 _ZN8casacore8UDFMSCal9makeLAST2ERKNS_6StringE@Base 3.2.1-1kern1
 _ZN8casacore8UDFMSCal9makeStateERKNS_6StringE@Base 3.2.1-1kern1
 _ZN8casacore8UDFMSCal9setupWvlsERKNS_5TableERSt6vectorINS_10CountedPtrINS_16TableExprNodeRepEEESaIS7_EEj@Base 3.2.1-1kern1
 _ZN8casacore8UDFMSCalC1ENS0_7ColTypeEi@Base 3.2.1-1kern1
 _ZN8casacore8UDFMSCalC1ERKNS_6StringE@Base 3.2.1-1kern1
 _ZN8casacore8UDFMSCalC1ERKNS_6StringES3_S3_S3_@Base 3.2.1-1kern1
 _ZN8casacore8UDFMSCalC1ERKNS_6StringES3_S3_i@Base 3.2.1-1kern1
 _ZN8casacore8UDFMSCalC2ENS0_7ColTypeEi@Base 3.2.1-1kern1
 _ZN8casacore8UDFMSCalC2ERKNS_6StringE@Base 3.2.1-1kern1
 _ZN8casacore8UDFMSCalC2ERKNS_6StringES3_S3_S3_@Base 3.2.1-1kern1
 _ZN8casacore8UDFMSCalC2ERKNS_6StringES3_S3_i@Base 3.2.1-1kern1
 _ZN8casacore8UDFMSCalD0Ev@Base 3.2.1-1kern1
 _ZN8casacore8UDFMSCalD1Ev@Base 3.2.1-1kern1
 _ZN8casacore8UDFMSCalD2Ev@Base 3.2.1-1kern1
 _ZN8casacoreplEPKcRKNS_6StringE@Base 3.2.1-1kern1
 _ZN8casacoreplERKNS_6StringEPKc@Base 3.2.1-1kern1
 _ZN8casacoreplERKNS_6StringES2_@Base 3.2.1-1kern1
 _ZNK8casacore10CountedPtrINS_5BlockINS_10MDirectionEEEE7DeleterIS3_EclEPS3_@Base 3.2.1-1kern1
 _ZNK8casacore10CountedPtrINS_5BlockINS_7QuantumIdEEEEE7DeleterIS4_EclEPS4_@Base 3.2.1-1kern1
 _ZNK8casacore11MeasConvertINS_10MDirectionEE5printERSo@Base 3.2.1-1kern1
 _ZNK8casacore11MeasConvertINS_10MDirectionEE7nMethodEv@Base 3.2.1-1kern1
 _ZNK8casacore11MeasConvertINS_10MDirectionEE9getMethodEj@Base 3.2.1-1kern1
 _ZNK8casacore11MeasConvertINS_4MuvwEE5printERSo@Base 3.2.1-1kern1
 _ZNK8casacore11MeasConvertINS_4MuvwEE7nMethodEv@Base 3.2.1-1kern1
 _ZNK8casacore11MeasConvertINS_4MuvwEE9getMethodEj@Base 3.2.1-1kern1
 _ZNK8casacore11MeasConvertINS_6MEpochEE5printERSo@Base 3.2.1-1kern1
 _ZNK8casacore11MeasConvertINS_6MEpochEE7nMethodEv@Base 3.2.1-1kern1
 _ZNK8casacore11MeasConvertINS_6MEpochEE9getMethodEj@Base 3.2.1-1kern1
 _ZNK8casacore11MeasConvertINS_9MBaselineEE5printERSo@Base 3.2.1-1kern1
 _ZNK8casacore11MeasConvertINS_9MBaselineEE7nMethodEv@Base 3.2.1-1kern1
 _ZNK8casacore11MeasConvertINS_9MBaselineEE9getMethodEj@Base 3.2.1-1kern1
 _ZNK8casacore11MeasConvertINS_9MPositionEE5printERSo@Base 3.2.1-1kern1
 _ZNK8casacore11MeasConvertINS_9MPositionEE7nMethodEv@Base 3.2.1-1kern1
 _ZNK8casacore11MeasConvertINS_9MPositionEE9getMethodEj@Base 3.2.1-1kern1
 _ZNK8casacore12DerivedMSCal12canAddColumnEv@Base 3.2.1-1kern1
 _ZNK8casacore12DerivedMSCal15canRemoveColumnEv@Base 3.2.1-1kern1
 _ZNK8casacore12DerivedMSCal15dataManagerSpecEv@Base 3.2.1-1kern1
 _ZNK8casacore12DerivedMSCal15dataManagerTypeEv@Base 3.2.1-1kern1
 _ZNK8casacore12DerivedMSCal5cloneEv@Base 3.2.1-1kern1
 _ZNK8casacore13BaseAllocatorINS_10MDirectionENS_15NewDelAllocatorIS1_EEE12getAllocatorEv@Base 3.2.1-1kern1
 _ZNK8casacore13BaseAllocatorINS_10MDirectionENS_16AlignedAllocatorIS1_Lm32EEEE12getAllocatorEv@Base 3.2.1-1kern1
 _ZNK8casacore13BaseAllocatorINS_6MVTimeENS_15NewDelAllocatorIS1_EEE12getAllocatorEv@Base 3.2.1-1kern1
 _ZNK8casacore13BaseAllocatorINS_6MVTimeENS_16AlignedAllocatorIS1_Lm32EEEE12getAllocatorEv@Base 3.2.1-1kern1
 _ZNK8casacore13BaseAllocatorINS_7QuantumIdEENS_15NewDelAllocatorIS2_EEE12getAllocatorEv@Base 3.2.1-1kern1
 _ZNK8casacore13BaseAllocatorINS_7QuantumIdEENS_16AlignedAllocatorIS2_Lm32EEEE12getAllocatorEv@Base 3.2.1-1kern1
 _ZNK8casacore13BaseAllocatorIPNS_6SlicerENS_15NewDelAllocatorIS2_EEE12getAllocatorEv@Base 3.2.1-1kern1
 _ZNK8casacore13BaseAllocatorIPNS_6SlicerENS_16AlignedAllocatorIS2_Lm32EEEE12getAllocatorEv@Base 3.2.1-1kern1
 _ZNK8casacore15ArrayMeasColumnINS_10MDirectionEE3getEjRNS_5ArrayIS1_EEb@Base 3.2.1-1kern1
 _ZNK8casacore16ScalarMeasColumnINS_10MDirectionEE11makeMeasRefEj@Base 3.2.1-1kern1
 _ZNK8casacore16ScalarMeasColumnINS_10MDirectionEE3getEjRS1_@Base 3.2.1-1kern1
 _ZNK8casacore16ScalarMeasColumnINS_6MEpochEE11makeMeasRefEj@Base 3.2.1-1kern1
 _ZNK8casacore16ScalarMeasColumnINS_6MEpochEE3getEjRS1_@Base 3.2.1-1kern1
 _ZNK8casacore16ScalarMeasColumnINS_9MPositionEE11makeMeasRefEj@Base 3.2.1-1kern1
 _ZNK8casacore16ScalarMeasColumnINS_9MPositionEE3getEjRS1_@Base 3.2.1-1kern1
 _ZNK8casacore17Allocator_private17BulkAllocatorImplINS_17new_del_allocatorINS_10MDirectionEEEE16allocator_typeidEv@Base 3.2.1-1kern1
 _ZNK8casacore17Allocator_private17BulkAllocatorImplINS_17new_del_allocatorINS_6MVTimeEEEE16allocator_typeidEv@Base 3.2.1-1kern1
 _ZNK8casacore17Allocator_private17BulkAllocatorImplINS_17new_del_allocatorINS_7QuantumIdEEEEE16allocator_typeidEv@Base 3.2.1-1kern1
 _ZNK8casacore17Allocator_private17BulkAllocatorImplINS_17new_del_allocatorIPNS_6SlicerEEEE16allocator_typeidEv@Base 3.2.1-1kern1
 _ZNK8casacore17Allocator_private17BulkAllocatorImplINS_18casacore_allocatorINS_10MDirectionELm32EEEE16allocator_typeidEv@Base 3.2.1-1kern1
 _ZNK8casacore17Allocator_private17BulkAllocatorImplINS_18casacore_allocatorINS_6MVTimeELm32EEEE16allocator_typeidEv@Base 3.2.1-1kern1
 _ZNK8casacore17Allocator_private17BulkAllocatorImplINS_18casacore_allocatorINS_7QuantumIdEELm32EEEE16allocator_typeidEv@Base 3.2.1-1kern1
 _ZNK8casacore17Allocator_private17BulkAllocatorImplINS_18casacore_allocatorIPNS_6SlicerELm32EEEE16allocator_typeidEv@Base 3.2.1-1kern1
 _ZNK8casacore17Allocator_private17BulkAllocatorImplINS_18casacore_allocatorIbLm32EEEE16allocator_typeidEv@Base 3.2.1-1kern1
 _ZNK8casacore17Allocator_private17BulkAllocatorImplINS_18casacore_allocatorIjLm32EEEE16allocator_typeidEv@Base 3.2.1-1kern1
 _ZNK8casacore18VirtualArrayColumnIdE10dataTypeIdEv@Base 3.2.1-1kern1
 _ZNK8casacore18VirtualArrayColumnIdE10isWritableEv@Base 3.2.1-1kern1
 _ZNK8casacore18VirtualArrayColumnIdE14canAccessSliceERb@Base 3.2.1-1kern1
 _ZNK8casacore18VirtualArrayColumnIdE20canAccessArrayColumnERb@Base 3.2.1-1kern1
 _ZNK8casacore18VirtualArrayColumnIdE20canAccessColumnSliceERb@Base 3.2.1-1kern1
 _ZNK8casacore18VirtualArrayColumnIdE8dataTypeEv@Base 3.2.1-1kern1
 _ZNK8casacore19VirtualScalarColumnIdE10dataTypeIdEv@Base 3.2.1-1kern1
 _ZNK8casacore19VirtualScalarColumnIdE10isWritableEv@Base 3.2.1-1kern1
 _ZNK8casacore19VirtualScalarColumnIdE21canAccessScalarColumnERb@Base 3.2.1-1kern1
 _ZNK8casacore19VirtualScalarColumnIdE8dataTypeEv@Base 3.2.1-1kern1
 _ZNK8casacore5ArrayINS_10MDirectionEE10getSectionERKNS_6SlicerE@Base 3.2.1-1kern1
 _ZNK8casacore5ArrayINS_10MDirectionEE11freeStorageERPKS1_b@Base 3.2.1-1kern1
 _ZNK8casacore5ArrayINS_10MDirectionEE11getVStorageERb@Base 3.2.1-1kern1
 _ZNK8casacore5ArrayINS_10MDirectionEE12freeVStorageERPKvb@Base 3.2.1-1kern1
 _ZNK8casacore5ArrayINS_10MDirectionEE12makeIteratorEj@Base 3.2.1-1kern1
 _ZNK8casacore5ArrayINS_10MDirectionEE18nonNewDelAllocatorEv@Base 3.2.1-1kern1
 _ZNK8casacore5ArrayINS_10MDirectionEE2okEv@Base 3.2.1-1kern1
 _ZNK8casacore5ArrayINS_10MDirectionEE9makeArrayEv@Base 3.2.1-1kern1
 _ZNK8casacore5ArrayINS_7QuantumIdEEE10getSectionERKNS_6SlicerE@Base 3.2.1-1kern1
 _ZNK8casacore5ArrayINS_7QuantumIdEEE11freeStorageERPKS2_b@Base 3.2.1-1kern1
 _ZNK8casacore5ArrayINS_7QuantumIdEEE11getVStorageERb@Base 3.2.1-1kern1
 _ZNK8casacore5ArrayINS_7QuantumIdEEE12freeVStorageERPKvb@Base 3.2.1-1kern1
 _ZNK8casacore5ArrayINS_7QuantumIdEEE12makeIteratorEj@Base 3.2.1-1kern1
 _ZNK8casacore5ArrayINS_7QuantumIdEEE18nonNewDelAllocatorEv@Base 3.2.1-1kern1
 _ZNK8casacore5ArrayINS_7QuantumIdEEE2okEv@Base 3.2.1-1kern1
 _ZNK8casacore5ArrayINS_7QuantumIdEEE9makeArrayEv@Base 3.2.1-1kern1
 _ZNK8casacore6MatrixIiE2okEv@Base 3.2.1-1kern1
 _ZNK8casacore6VectorINS_7QuantumIdEEE2okEv@Base 3.2.1-1kern1
 _ZNK8casacore7MeasRefINS_10MDirectionEE5emptyEv@Base 3.2.1-1kern1
 _ZNK8casacore7MeasRefINS_10MDirectionEE5printERSo@Base 3.2.1-1kern1
 _ZNK8casacore7MeasRefINS_10MDirectionEE6offsetEv@Base 3.2.1-1kern1
 _ZNK8casacore7MeasRefINS_10MDirectionEE7getTypeEv@Base 3.2.1-1kern1
 _ZNK8casacore7MeasRefINS_4MuvwEE5emptyEv@Base 3.2.1-1kern1
 _ZNK8casacore7MeasRefINS_4MuvwEE5printERSo@Base 3.2.1-1kern1
 _ZNK8casacore7MeasRefINS_4MuvwEE6offsetEv@Base 3.2.1-1kern1
 _ZNK8casacore7MeasRefINS_4MuvwEE7getTypeEv@Base 3.2.1-1kern1
 _ZNK8casacore7MeasRefINS_6MEpochEE5emptyEv@Base 3.2.1-1kern1
 _ZNK8casacore7MeasRefINS_6MEpochEE5printERSo@Base 3.2.1-1kern1
 _ZNK8casacore7MeasRefINS_6MEpochEE6offsetEv@Base 3.2.1-1kern1
 _ZNK8casacore7MeasRefINS_6MEpochEE7getTypeEv@Base 3.2.1-1kern1
 _ZNK8casacore7MeasRefINS_9MBaselineEE5emptyEv@Base 3.2.1-1kern1
 _ZNK8casacore7MeasRefINS_9MBaselineEE5printERSo@Base 3.2.1-1kern1
 _ZNK8casacore7MeasRefINS_9MBaselineEE6offsetEv@Base 3.2.1-1kern1
 _ZNK8casacore7MeasRefINS_9MBaselineEE7getTypeEv@Base 3.2.1-1kern1
 _ZNK8casacore7MeasRefINS_9MPositionEE5emptyEv@Base 3.2.1-1kern1
 _ZNK8casacore7MeasRefINS_9MPositionEE5printERSo@Base 3.2.1-1kern1
 _ZNK8casacore7MeasRefINS_9MPositionEE6offsetEv@Base 3.2.1-1kern1
 _ZNK8casacore7MeasRefINS_9MPositionEE7getTypeEv@Base 3.2.1-1kern1
 _ZNK8casacore8MeasBaseINS_11MVDirectionENS_7MeasRefINS_10MDirectionEEEE5printERSo@Base 3.2.1-1kern1
 _ZNK8casacore8MeasBaseINS_11MVDirectionENS_7MeasRefINS_10MDirectionEEEE6areYouERKNS_6StringE@Base 3.2.1-1kern1
 _ZNK8casacore8MeasBaseINS_11MVDirectionENS_7MeasRefINS_10MDirectionEEEE7assuredERKNS_6StringE@Base 3.2.1-1kern1
 _ZNK8casacore8MeasBaseINS_11MVDirectionENS_7MeasRefINS_10MDirectionEEEE7getDataEv@Base 3.2.1-1kern1
 _ZNK8casacore8MeasBaseINS_11MVDirectionENS_7MeasRefINS_10MDirectionEEEE7getUnitEv@Base 3.2.1-1kern1
 _ZNK8casacore8MeasBaseINS_11MVDirectionENS_7MeasRefINS_10MDirectionEEEE9getRefPtrEv@Base 3.2.1-1kern1
 _ZNK8casacore8MeasBaseINS_7MVEpochENS_7MeasRefINS_6MEpochEEEE5printERSo@Base 3.2.1-1kern1
 _ZNK8casacore8MeasBaseINS_7MVEpochENS_7MeasRefINS_6MEpochEEEE6areYouERKNS_6StringE@Base 3.2.1-1kern1
 _ZNK8casacore8MeasBaseINS_7MVEpochENS_7MeasRefINS_6MEpochEEEE7assuredERKNS_6StringE@Base 3.2.1-1kern1
 _ZNK8casacore8MeasBaseINS_7MVEpochENS_7MeasRefINS_6MEpochEEEE7getDataEv@Base 3.2.1-1kern1
 _ZNK8casacore8MeasBaseINS_7MVEpochENS_7MeasRefINS_6MEpochEEEE7getUnitEv@Base 3.2.1-1kern1
 _ZNK8casacore8MeasBaseINS_7MVEpochENS_7MeasRefINS_6MEpochEEEE9getRefPtrEv@Base 3.2.1-1kern1
 _ZNKSt5ctypeIcE8do_widenEc@Base 3.2.1-1kern1
 _ZNKSt8_Rb_treeIN8casacore6StringESt4pairIKS1_NS0_10CountedPtrINS0_10ColumnDescEEEESt10_Select1stIS7_ESt4lessIS1_ESaIS7_EE4findERS3_@Base 3.2.1-1kern1
 _ZNSt14__shared_countILN9__gnu_cxx12_Lock_policyE2EEaSERKS2_@Base 3.2.1-1kern1
 _ZNSt15_Sp_counted_ptrIPN8casacore23MSSelectionErrorHandlerELN9__gnu_cxx12_Lock_policyE2EE10_M_destroyEv@Base 3.2.1-1kern1
 _ZNSt15_Sp_counted_ptrIPN8casacore23MSSelectionErrorHandlerELN9__gnu_cxx12_Lock_policyE2EE10_M_disposeEv@Base 3.2.1-1kern1
 _ZNSt15_Sp_counted_ptrIPN8casacore23MSSelectionErrorHandlerELN9__gnu_cxx12_Lock_policyE2EE14_M_get_deleterERKSt9type_info@Base 3.2.1-1kern1
 _ZNSt15_Sp_counted_ptrIPN8casacore23MSSelectionErrorHandlerELN9__gnu_cxx12_Lock_policyE2EED0Ev@Base 3.2.1-1kern1
 _ZNSt15_Sp_counted_ptrIPN8casacore23MSSelectionErrorHandlerELN9__gnu_cxx12_Lock_policyE2EED1Ev@Base 3.2.1-1kern1
 _ZNSt15_Sp_counted_ptrIPN8casacore23MSSelectionErrorHandlerELN9__gnu_cxx12_Lock_policyE2EED2Ev@Base 3.2.1-1kern1
 _ZNSt15_Sp_counted_ptrIPN8casacore5BlockINS0_10MDirectionEEELN9__gnu_cxx12_Lock_policyE2EE10_M_destroyEv@Base 3.2.1-1kern1
 _ZNSt15_Sp_counted_ptrIPN8casacore5BlockINS0_10MDirectionEEELN9__gnu_cxx12_Lock_policyE2EE10_M_disposeEv@Base 3.2.1-1kern1
 _ZNSt15_Sp_counted_ptrIPN8casacore5BlockINS0_10MDirectionEEELN9__gnu_cxx12_Lock_policyE2EE14_M_get_deleterERKSt9type_info@Base 3.2.1-1kern1
 _ZNSt15_Sp_counted_ptrIPN8casacore5BlockINS0_10MDirectionEEELN9__gnu_cxx12_Lock_policyE2EED0Ev@Base 3.2.1-1kern1
 _ZNSt15_Sp_counted_ptrIPN8casacore5BlockINS0_10MDirectionEEELN9__gnu_cxx12_Lock_policyE2EED1Ev@Base 3.2.1-1kern1
 _ZNSt15_Sp_counted_ptrIPN8casacore5BlockINS0_10MDirectionEEELN9__gnu_cxx12_Lock_policyE2EED2Ev@Base 3.2.1-1kern1
 _ZNSt15_Sp_counted_ptrIPN8casacore5BlockINS0_7QuantumIdEEEELN9__gnu_cxx12_Lock_policyE2EE10_M_destroyEv@Base 3.2.1-1kern1
 _ZNSt15_Sp_counted_ptrIPN8casacore5BlockINS0_7QuantumIdEEEELN9__gnu_cxx12_Lock_policyE2EE10_M_disposeEv@Base 3.2.1-1kern1
 _ZNSt15_Sp_counted_ptrIPN8casacore5BlockINS0_7QuantumIdEEEELN9__gnu_cxx12_Lock_policyE2EE14_M_get_deleterERKSt9type_info@Base 3.2.1-1kern1
 _ZNSt15_Sp_counted_ptrIPN8casacore5BlockINS0_7QuantumIdEEEELN9__gnu_cxx12_Lock_policyE2EED0Ev@Base 3.2.1-1kern1
 _ZNSt15_Sp_counted_ptrIPN8casacore5BlockINS0_7QuantumIdEEEELN9__gnu_cxx12_Lock_policyE2EED1Ev@Base 3.2.1-1kern1
 _ZNSt15_Sp_counted_ptrIPN8casacore5BlockINS0_7QuantumIdEEEELN9__gnu_cxx12_Lock_policyE2EED2Ev@Base 3.2.1-1kern1
 _ZNSt15_Sp_counted_ptrIPN8casacore7MeasRefINS0_10MDirectionEE6RefRepELN9__gnu_cxx12_Lock_policyE2EE10_M_destroyEv@Base 3.2.1-1kern1
 _ZNSt15_Sp_counted_ptrIPN8casacore7MeasRefINS0_10MDirectionEE6RefRepELN9__gnu_cxx12_Lock_policyE2EE10_M_disposeEv@Base 3.2.1-1kern1
 _ZNSt15_Sp_counted_ptrIPN8casacore7MeasRefINS0_10MDirectionEE6RefRepELN9__gnu_cxx12_Lock_policyE2EE14_M_get_deleterERKSt9type_info@Base 3.2.1-1kern1
 _ZNSt15_Sp_counted_ptrIPN8casacore7MeasRefINS0_10MDirectionEE6RefRepELN9__gnu_cxx12_Lock_policyE2EED0Ev@Base 3.2.1-1kern1
 _ZNSt15_Sp_counted_ptrIPN8casacore7MeasRefINS0_10MDirectionEE6RefRepELN9__gnu_cxx12_Lock_policyE2EED1Ev@Base 3.2.1-1kern1
 _ZNSt15_Sp_counted_ptrIPN8casacore7MeasRefINS0_10MDirectionEE6RefRepELN9__gnu_cxx12_Lock_policyE2EED2Ev@Base 3.2.1-1kern1
 _ZNSt15_Sp_counted_ptrIPN8casacore7MeasRefINS0_4MuvwEE6RefRepELN9__gnu_cxx12_Lock_policyE2EE10_M_destroyEv@Base 3.2.1-1kern1
 _ZNSt15_Sp_counted_ptrIPN8casacore7MeasRefINS0_4MuvwEE6RefRepELN9__gnu_cxx12_Lock_policyE2EE10_M_disposeEv@Base 3.2.1-1kern1
 _ZNSt15_Sp_counted_ptrIPN8casacore7MeasRefINS0_4MuvwEE6RefRepELN9__gnu_cxx12_Lock_policyE2EE14_M_get_deleterERKSt9type_info@Base 3.2.1-1kern1
 _ZNSt15_Sp_counted_ptrIPN8casacore7MeasRefINS0_4MuvwEE6RefRepELN9__gnu_cxx12_Lock_policyE2EED0Ev@Base 3.2.1-1kern1
 _ZNSt15_Sp_counted_ptrIPN8casacore7MeasRefINS0_4MuvwEE6RefRepELN9__gnu_cxx12_Lock_policyE2EED1Ev@Base 3.2.1-1kern1
 _ZNSt15_Sp_counted_ptrIPN8casacore7MeasRefINS0_4MuvwEE6RefRepELN9__gnu_cxx12_Lock_policyE2EED2Ev@Base 3.2.1-1kern1
 _ZNSt15_Sp_counted_ptrIPN8casacore7MeasRefINS0_6MEpochEE6RefRepELN9__gnu_cxx12_Lock_policyE2EE10_M_destroyEv@Base 3.2.1-1kern1
 _ZNSt15_Sp_counted_ptrIPN8casacore7MeasRefINS0_6MEpochEE6RefRepELN9__gnu_cxx12_Lock_policyE2EE10_M_disposeEv@Base 3.2.1-1kern1
 _ZNSt15_Sp_counted_ptrIPN8casacore7MeasRefINS0_6MEpochEE6RefRepELN9__gnu_cxx12_Lock_policyE2EE14_M_get_deleterERKSt9type_info@Base 3.2.1-1kern1
 _ZNSt15_Sp_counted_ptrIPN8casacore7MeasRefINS0_6MEpochEE6RefRepELN9__gnu_cxx12_Lock_policyE2EED0Ev@Base 3.2.1-1kern1
 _ZNSt15_Sp_counted_ptrIPN8casacore7MeasRefINS0_6MEpochEE6RefRepELN9__gnu_cxx12_Lock_policyE2EED1Ev@Base 3.2.1-1kern1
 _ZNSt15_Sp_counted_ptrIPN8casacore7MeasRefINS0_6MEpochEE6RefRepELN9__gnu_cxx12_Lock_policyE2EED2Ev@Base 3.2.1-1kern1
 _ZNSt15_Sp_counted_ptrIPN8casacore7MeasRefINS0_9MBaselineEE6RefRepELN9__gnu_cxx12_Lock_policyE2EE10_M_destroyEv@Base 3.2.1-1kern1
 _ZNSt15_Sp_counted_ptrIPN8casacore7MeasRefINS0_9MBaselineEE6RefRepELN9__gnu_cxx12_Lock_policyE2EE10_M_disposeEv@Base 3.2.1-1kern1
 _ZNSt15_Sp_counted_ptrIPN8casacore7MeasRefINS0_9MBaselineEE6RefRepELN9__gnu_cxx12_Lock_policyE2EE14_M_get_deleterERKSt9type_info@Base 3.2.1-1kern1
 _ZNSt15_Sp_counted_ptrIPN8casacore7MeasRefINS0_9MBaselineEE6RefRepELN9__gnu_cxx12_Lock_policyE2EED0Ev@Base 3.2.1-1kern1
 _ZNSt15_Sp_counted_ptrIPN8casacore7MeasRefINS0_9MBaselineEE6RefRepELN9__gnu_cxx12_Lock_policyE2EED1Ev@Base 3.2.1-1kern1
 _ZNSt15_Sp_counted_ptrIPN8casacore7MeasRefINS0_9MBaselineEE6RefRepELN9__gnu_cxx12_Lock_policyE2EED2Ev@Base 3.2.1-1kern1
 _ZNSt15_Sp_counted_ptrIPN8casacore7MeasRefINS0_9MPositionEE6RefRepELN9__gnu_cxx12_Lock_policyE2EE10_M_destroyEv@Base 3.2.1-1kern1
 _ZNSt15_Sp_counted_ptrIPN8casacore7MeasRefINS0_9MPositionEE6RefRepELN9__gnu_cxx12_Lock_policyE2EE10_M_disposeEv@Base 3.2.1-1kern1
 _ZNSt15_Sp_counted_ptrIPN8casacore7MeasRefINS0_9MPositionEE6RefRepELN9__gnu_cxx12_Lock_policyE2EE14_M_get_deleterERKSt9type_info@Base 3.2.1-1kern1
 _ZNSt15_Sp_counted_ptrIPN8casacore7MeasRefINS0_9MPositionEE6RefRepELN9__gnu_cxx12_Lock_policyE2EED0Ev@Base 3.2.1-1kern1
 _ZNSt15_Sp_counted_ptrIPN8casacore7MeasRefINS0_9MPositionEE6RefRepELN9__gnu_cxx12_Lock_policyE2EED1Ev@Base 3.2.1-1kern1
 _ZNSt15_Sp_counted_ptrIPN8casacore7MeasRefINS0_9MPositionEE6RefRepELN9__gnu_cxx12_Lock_policyE2EED2Ev@Base 3.2.1-1kern1
 _ZNSt16_Sp_counted_baseILN9__gnu_cxx12_Lock_policyE2EE10_M_releaseEv@Base 3.2.1-1kern1
 _ZNSt19_Sp_counted_deleterIPN8casacore21ArrayPositionIteratorENS0_10CountedPtrIS1_E7DeleterIS1_EESaIvELN9__gnu_cxx12_Lock_policyE2EE10_M_destroyEv@Base 3.2.1-1kern1
 _ZNSt19_Sp_counted_deleterIPN8casacore21ArrayPositionIteratorENS0_10CountedPtrIS1_E7DeleterIS1_EESaIvELN9__gnu_cxx12_Lock_policyE2EE10_M_disposeEv@Base 3.2.1-1kern1
 _ZNSt19_Sp_counted_deleterIPN8casacore21ArrayPositionIteratorENS0_10CountedPtrIS1_E7DeleterIS1_EESaIvELN9__gnu_cxx12_Lock_policyE2EE14_M_get_deleterERKSt9type_info@Base 3.2.1-1kern1
 _ZNSt19_Sp_counted_deleterIPN8casacore21ArrayPositionIteratorENS0_10CountedPtrIS1_E7DeleterIS1_EESaIvELN9__gnu_cxx12_Lock_policyE2EED0Ev@Base 3.2.1-1kern1
 _ZNSt19_Sp_counted_deleterIPN8casacore21ArrayPositionIteratorENS0_10CountedPtrIS1_E7DeleterIS1_EESaIvELN9__gnu_cxx12_Lock_policyE2EED1Ev@Base 3.2.1-1kern1
 _ZNSt19_Sp_counted_deleterIPN8casacore21ArrayPositionIteratorENS0_10CountedPtrIS1_E7DeleterIS1_EESaIvELN9__gnu_cxx12_Lock_policyE2EED2Ev@Base 3.2.1-1kern1
 _ZNSt19_Sp_counted_deleterIPN8casacore5BlockINS0_10MDirectionEEENS0_10CountedPtrIS3_E7DeleterIS3_EESaIvELN9__gnu_cxx12_Lock_policyE2EE10_M_destroyEv@Base 3.2.1-1kern1
 _ZNSt19_Sp_counted_deleterIPN8casacore5BlockINS0_10MDirectionEEENS0_10CountedPtrIS3_E7DeleterIS3_EESaIvELN9__gnu_cxx12_Lock_policyE2EE10_M_disposeEv@Base 3.2.1-1kern1
 _ZNSt19_Sp_counted_deleterIPN8casacore5BlockINS0_10MDirectionEEENS0_10CountedPtrIS3_E7DeleterIS3_EESaIvELN9__gnu_cxx12_Lock_policyE2EE14_M_get_deleterERKSt9type_info@Base 3.2.1-1kern1
 _ZNSt19_Sp_counted_deleterIPN8casacore5BlockINS0_10MDirectionEEENS0_10CountedPtrIS3_E7DeleterIS3_EESaIvELN9__gnu_cxx12_Lock_policyE2EED0Ev@Base 3.2.1-1kern1
 _ZNSt19_Sp_counted_deleterIPN8casacore5BlockINS0_10MDirectionEEENS0_10CountedPtrIS3_E7DeleterIS3_EESaIvELN9__gnu_cxx12_Lock_policyE2EED1Ev@Base 3.2.1-1kern1
 _ZNSt19_Sp_counted_deleterIPN8casacore5BlockINS0_10MDirectionEEENS0_10CountedPtrIS3_E7DeleterIS3_EESaIvELN9__gnu_cxx12_Lock_policyE2EED2Ev@Base 3.2.1-1kern1
 _ZNSt19_Sp_counted_deleterIPN8casacore5BlockINS0_7QuantumIdEEEENS0_10CountedPtrIS4_E7DeleterIS4_EESaIvELN9__gnu_cxx12_Lock_policyE2EE10_M_destroyEv@Base 3.2.1-1kern1
 _ZNSt19_Sp_counted_deleterIPN8casacore5BlockINS0_7QuantumIdEEEENS0_10CountedPtrIS4_E7DeleterIS4_EESaIvELN9__gnu_cxx12_Lock_policyE2EE10_M_disposeEv@Base 3.2.1-1kern1
 _ZNSt19_Sp_counted_deleterIPN8casacore5BlockINS0_7QuantumIdEEEENS0_10CountedPtrIS4_E7DeleterIS4_EESaIvELN9__gnu_cxx12_Lock_policyE2EE14_M_get_deleterERKSt9type_info@Base 3.2.1-1kern1
 _ZNSt19_Sp_counted_deleterIPN8casacore5BlockINS0_7QuantumIdEEEENS0_10CountedPtrIS4_E7DeleterIS4_EESaIvELN9__gnu_cxx12_Lock_policyE2EED0Ev@Base 3.2.1-1kern1
 _ZNSt19_Sp_counted_deleterIPN8casacore5BlockINS0_7QuantumIdEEEENS0_10CountedPtrIS4_E7DeleterIS4_EESaIvELN9__gnu_cxx12_Lock_policyE2EED1Ev@Base 3.2.1-1kern1
 _ZNSt19_Sp_counted_deleterIPN8casacore5BlockINS0_7QuantumIdEEEENS0_10CountedPtrIS4_E7DeleterIS4_EESaIvELN9__gnu_cxx12_Lock_policyE2EED2Ev@Base 3.2.1-1kern1
 _ZNSt19_Sp_counted_deleterIPN8casacore9ArrayBaseENS0_10CountedPtrIS1_E7DeleterIS1_EESaIvELN9__gnu_cxx12_Lock_policyE2EE10_M_destroyEv@Base 3.2.1-1kern1
 _ZNSt19_Sp_counted_deleterIPN8casacore9ArrayBaseENS0_10CountedPtrIS1_E7DeleterIS1_EESaIvELN9__gnu_cxx12_Lock_policyE2EE10_M_disposeEv@Base 3.2.1-1kern1
 _ZNSt19_Sp_counted_deleterIPN8casacore9ArrayBaseENS0_10CountedPtrIS1_E7DeleterIS1_EESaIvELN9__gnu_cxx12_Lock_policyE2EE14_M_get_deleterERKSt9type_info@Base 3.2.1-1kern1
 _ZNSt19_Sp_counted_deleterIPN8casacore9ArrayBaseENS0_10CountedPtrIS1_E7DeleterIS1_EESaIvELN9__gnu_cxx12_Lock_policyE2EED0Ev@Base 3.2.1-1kern1
 _ZNSt19_Sp_counted_deleterIPN8casacore9ArrayBaseENS0_10CountedPtrIS1_E7DeleterIS1_EESaIvELN9__gnu_cxx12_Lock_policyE2EED1Ev@Base 3.2.1-1kern1
 _ZNSt19_Sp_counted_deleterIPN8casacore9ArrayBaseENS0_10CountedPtrIS1_E7DeleterIS1_EESaIvELN9__gnu_cxx12_Lock_policyE2EED2Ev@Base 3.2.1-1kern1
 _ZNSt6vectorIN8casacore10MDirectionESaIS1_EE17_M_default_appendEm@Base 3.2.1-1kern1
 _ZNSt6vectorIN8casacore10MDirectionESaIS1_EE17_M_realloc_insertIJRKS1_EEEvN9__gnu_cxx17__normal_iteratorIPS1_S3_EEDpOT_@Base 3.2.1-1kern1
 _ZNSt6vectorIN8casacore10MDirectionESaIS1_EE7reserveEm@Base 3.2.1-1kern1
 _ZNSt6vectorIN8casacore10MDirectionESaIS1_EEaSERKS3_@Base 3.2.1-1kern1
 _ZNSt6vectorIN8casacore5BlockIbEESaIS2_EE17_M_default_appendEm@Base 3.2.1-1kern1
 _ZNSt6vectorIN8casacore5BlockIbEESaIS2_EED1Ev@Base 3.2.1-1kern1
 _ZNSt6vectorIN8casacore5BlockIbEESaIS2_EED2Ev@Base 3.2.1-1kern1
 _ZNSt6vectorIN8casacore6VectorIdEESaIS2_EE17_M_default_appendEm@Base 3.2.1-1kern1
 _ZNSt6vectorIN8casacore6VectorIdEESaIS2_EE17_M_realloc_insertIJS2_EEEvN9__gnu_cxx17__normal_iteratorIPS2_S4_EEDpOT_@Base 3.2.1-1kern1
 _ZNSt6vectorIN8casacore6VectorIdEESaIS2_EE7reserveEm@Base 3.2.1-1kern1
 _ZNSt6vectorIN8casacore9MBaselineESaIS1_EE17_M_realloc_insertIJS1_EEEvN9__gnu_cxx17__normal_iteratorIPS1_S3_EEDpOT_@Base 3.2.1-1kern1
 _ZNSt6vectorIN8casacore9MBaselineESaIS1_EE7reserveEm@Base 3.2.1-1kern1
 _ZNSt6vectorIN8casacore9MPositionESaIS1_EE17_M_realloc_insertIJRKS1_EEEvN9__gnu_cxx17__normal_iteratorIPS1_S3_EEDpOT_@Base 3.2.1-1kern1
 _ZNSt6vectorIN8casacore9MPositionESaIS1_EE7reserveEm@Base 3.2.1-1kern1
 _ZNSt6vectorIPN8casacore17DataManagerColumnESaIS2_EE17_M_realloc_insertIJRKS2_EEEvN9__gnu_cxx17__normal_iteratorIPS2_S4_EEDpOT_@Base 3.2.1-1kern1
 _ZNSt6vectorIS_IN8casacore10MDirectionESaIS1_EESaIS3_EE17_M_default_appendEm@Base 3.2.1-1kern1
 _ZNSt6vectorIS_IN8casacore6VectorIdEESaIS2_EESaIS4_EE17_M_default_appendEm@Base 3.2.1-1kern1
 _ZNSt6vectorIS_IN8casacore9MBaselineESaIS1_EESaIS3_EE17_M_default_appendEm@Base 3.2.1-1kern1
 _ZNSt6vectorIS_IN8casacore9MPositionESaIS1_EESaIS3_EE17_M_default_appendEm@Base 3.2.1-1kern1
 _ZNSt6vectorIS_IiSaIiEESaIS1_EE17_M_default_appendEm@Base 3.2.1-1kern1
 _ZNSt6vectorIdSaIdEE17_M_realloc_insertIJdEEEvN9__gnu_cxx17__normal_iteratorIPdS1_EEDpOT_@Base 3.2.1-1kern1
 _ZNSt6vectorIiSaIiEE17_M_realloc_insertIJRKiEEEvN9__gnu_cxx17__normal_iteratorIPiS1_EEDpOT_@Base 3.2.1-1kern1
 _ZNSt6vectorIiSaIiEE7reserveEm@Base 3.2.1-1kern1
 _ZNSt7__cxx1115basic_stringbufIcSt11char_traitsIcESaIcEED0Ev@Base 3.2.1-1kern1
 _ZNSt7__cxx1115basic_stringbufIcSt11char_traitsIcESaIcEED1Ev@Base 3.2.1-1kern1
 _ZNSt7__cxx1115basic_stringbufIcSt11char_traitsIcESaIcEED2Ev@Base 3.2.1-1kern1
 _ZNSt8_Rb_treeINSt7__cxx1112basic_stringIcSt11char_traitsIcESaIcEEESt4pairIKS5_iESt10_Select1stIS8_ESt4lessIS5_ESaIS8_EE24_M_get_insert_unique_posERS7_@Base 3.2.1-1kern1
 _ZNSt8_Rb_treeINSt7__cxx1112basic_stringIcSt11char_traitsIcESaIcEEESt4pairIKS5_iESt10_Select1stIS8_ESt4lessIS5_ESaIS8_EE29_M_get_insert_hint_unique_posESt23_Rb_tree_const_iteratorIS8_ERS7_@Base 3.2.1-1kern1
 _ZNSt8_Rb_treeINSt7__cxx1112basic_stringIcSt11char_traitsIcESaIcEEESt4pairIKS5_iESt10_Select1stIS8_ESt4lessIS5_ESaIS8_EE8_M_eraseEPSt13_Rb_tree_nodeIS8_E@Base 3.2.1-1kern1
 _ZTIN8casacore10AzElColumnE@Base 3.2.1-1kern1
 _ZTIN8casacore10ItrfColumnE@Base 3.2.1-1kern1
 _ZTIN8casacore10LASTColumnE@Base 3.2.1-1kern1
 _ZTIN8casacore11HaDecColumnE@Base 3.2.1-1kern1
 _ZTIN8casacore11MeasConvertINS_10MDirectionEEE@Base 3.2.1-1kern1
 _ZTIN8casacore11MeasConvertINS_4MuvwEEE@Base 3.2.1-1kern1
 _ZTIN8casacore11MeasConvertINS_6MEpochEEE@Base 3.2.1-1kern1
 _ZTIN8casacore11MeasConvertINS_9MBaselineEEE@Base 3.2.1-1kern1
 _ZTIN8casacore11MeasConvertINS_9MPositionEEE@Base 3.2.1-1kern1
 _ZTIN8casacore12DerivedMSCalE@Base 3.2.1-1kern1
 _ZTIN8casacore12HelpMsCalUDFE@Base 3.2.1-1kern1
 _ZTIN8casacore13ArrayIteratorINS_10MDirectionEEE@Base 3.2.1-1kern1
 _ZTIN8casacore13ArrayIteratorINS_7QuantumIdEEEE@Base 3.2.1-1kern1
 _ZTIN8casacore13ArrayIteratorIdEE@Base 3.2.1-1kern1
 _ZTIN8casacore13BaseAllocatorINS_10MDirectionENS_15NewDelAllocatorIS1_EEEE@Base 3.2.1-1kern1
 _ZTIN8casacore13BaseAllocatorINS_10MDirectionENS_16AlignedAllocatorIS1_Lm32EEEEE@Base 3.2.1-1kern1
 _ZTIN8casacore13BaseAllocatorINS_6MVTimeENS_15NewDelAllocatorIS1_EEEE@Base 3.2.1-1kern1
 _ZTIN8casacore13BaseAllocatorINS_6MVTimeENS_16AlignedAllocatorIS1_Lm32EEEEE@Base 3.2.1-1kern1
 _ZTIN8casacore13BaseAllocatorINS_7QuantumIdEENS_15NewDelAllocatorIS2_EEEE@Base 3.2.1-1kern1
 _ZTIN8casacore13BaseAllocatorINS_7QuantumIdEENS_16AlignedAllocatorIS2_Lm32EEEEE@Base 3.2.1-1kern1
 _ZTIN8casacore13BaseAllocatorIPNS_6SlicerENS_15NewDelAllocatorIS2_EEEE@Base 3.2.1-1kern1
 _ZTIN8casacore13BaseAllocatorIPNS_6SlicerENS_16AlignedAllocatorIS2_Lm32EEEEE@Base 3.2.1-1kern1
 _ZTIN8casacore14ParAngleColumnE@Base 3.2.1-1kern1
 _ZTIN8casacore14UVWJ2000ColumnE@Base 3.2.1-1kern1
 _ZTIN8casacore15ArrayMeasColumnINS_10MDirectionEEE@Base 3.2.1-1kern1
 _ZTIN8casacore15HourangleColumnE@Base 3.2.1-1kern1
 _ZTIN8casacore15NewDelAllocatorINS_10MDirectionEEE@Base 3.2.1-1kern1
 _ZTIN8casacore15NewDelAllocatorINS_6MVTimeEEE@Base 3.2.1-1kern1
 _ZTIN8casacore15NewDelAllocatorINS_7QuantumIdEEEE@Base 3.2.1-1kern1
 _ZTIN8casacore15NewDelAllocatorIPNS_6SlicerEEE@Base 3.2.1-1kern1
 _ZTIN8casacore16AlignedAllocatorINS_10MDirectionELm32EEE@Base 3.2.1-1kern1
 _ZTIN8casacore16AlignedAllocatorINS_6MVTimeELm32EEE@Base 3.2.1-1kern1
 _ZTIN8casacore16AlignedAllocatorINS_7QuantumIdEELm32EEE@Base 3.2.1-1kern1
 _ZTIN8casacore16AlignedAllocatorIPNS_6SlicerELm32EEE@Base 3.2.1-1kern1
 _ZTIN8casacore16DefaultAllocatorINS_10MDirectionEEE@Base 3.2.1-1kern1
 _ZTIN8casacore16DefaultAllocatorINS_6MVTimeEEE@Base 3.2.1-1kern1
 _ZTIN8casacore16DefaultAllocatorINS_7QuantumIdEEEE@Base 3.2.1-1kern1
 _ZTIN8casacore16DefaultAllocatorIPNS_6SlicerEEE@Base 3.2.1-1kern1
 _ZTIN8casacore16ScalarMeasColumnINS_10MDirectionEEE@Base 3.2.1-1kern1
 _ZTIN8casacore16ScalarMeasColumnINS_6MEpochEEE@Base 3.2.1-1kern1
 _ZTIN8casacore16ScalarMeasColumnINS_9MPositionEEE@Base 3.2.1-1kern1
 _ZTIN8casacore17AbstractAllocatorINS_10MDirectionEEE@Base 3.2.1-1kern1
 _ZTIN8casacore17AbstractAllocatorINS_6MVTimeEEE@Base 3.2.1-1kern1
 _ZTIN8casacore17AbstractAllocatorINS_7QuantumIdEEEE@Base 3.2.1-1kern1
 _ZTIN8casacore17AbstractAllocatorIPNS_6SlicerEEE@Base 3.2.1-1kern1
 _ZTIN8casacore17Allocator_private13BulkAllocatorINS_10MDirectionEEE@Base 3.2.1-1kern1
 _ZTIN8casacore17Allocator_private13BulkAllocatorINS_6MVTimeEEE@Base 3.2.1-1kern1
 _ZTIN8casacore17Allocator_private13BulkAllocatorINS_7QuantumIdEEEE@Base 3.2.1-1kern1
 _ZTIN8casacore17Allocator_private13BulkAllocatorIPNS_6SlicerEEE@Base 3.2.1-1kern1
 _ZTIN8casacore17Allocator_private13BulkAllocatorIbEE@Base 3.2.1-1kern1
 _ZTIN8casacore17Allocator_private13BulkAllocatorIjEE@Base 3.2.1-1kern1
 _ZTIN8casacore17Allocator_private17BulkAllocatorImplINS_17new_del_allocatorINS_10MDirectionEEEEE@Base 3.2.1-1kern1
 _ZTIN8casacore17Allocator_private17BulkAllocatorImplINS_17new_del_allocatorINS_6MVTimeEEEEE@Base 3.2.1-1kern1
 _ZTIN8casacore17Allocator_private17BulkAllocatorImplINS_17new_del_allocatorINS_7QuantumIdEEEEEE@Base 3.2.1-1kern1
 _ZTIN8casacore17Allocator_private17BulkAllocatorImplINS_17new_del_allocatorIPNS_6SlicerEEEEE@Base 3.2.1-1kern1
 _ZTIN8casacore17Allocator_private17BulkAllocatorImplINS_18casacore_allocatorINS_10MDirectionELm32EEEEE@Base 3.2.1-1kern1
 _ZTIN8casacore17Allocator_private17BulkAllocatorImplINS_18casacore_allocatorINS_6MVTimeELm32EEEEE@Base 3.2.1-1kern1
 _ZTIN8casacore17Allocator_private17BulkAllocatorImplINS_18casacore_allocatorINS_7QuantumIdEELm32EEEEE@Base 3.2.1-1kern1
 _ZTIN8casacore17Allocator_private17BulkAllocatorImplINS_18casacore_allocatorIPNS_6SlicerELm32EEEEE@Base 3.2.1-1kern1
 _ZTIN8casacore17Allocator_private17BulkAllocatorImplINS_18casacore_allocatorIbLm32EEEEE@Base 3.2.1-1kern1
 _ZTIN8casacore17Allocator_private17BulkAllocatorImplINS_18casacore_allocatorIjLm32EEEEE@Base 3.2.1-1kern1
 _ZTIN8casacore17new_del_allocatorINS_10MDirectionEEE@Base 3.2.1-1kern1
 _ZTIN8casacore17new_del_allocatorINS_6MVTimeEEE@Base 3.2.1-1kern1
 _ZTIN8casacore17new_del_allocatorINS_7QuantumIdEEEE@Base 3.2.1-1kern1
 _ZTIN8casacore17new_del_allocatorIPNS_6SlicerEEE@Base 3.2.1-1kern1
 _ZTIN8casacore18MSMainColInterfaceE@Base 3.2.1-1kern1
 _ZTIN8casacore18VirtualArrayColumnIdEE@Base 3.2.1-1kern1
 _ZTIN8casacore18casacore_allocatorINS_10MDirectionELm32EEE@Base 3.2.1-1kern1
 _ZTIN8casacore18casacore_allocatorINS_6MVTimeELm32EEE@Base 3.2.1-1kern1
 _ZTIN8casacore18casacore_allocatorINS_7QuantumIdEELm32EEE@Base 3.2.1-1kern1
 _ZTIN8casacore18casacore_allocatorIPNS_6SlicerELm32EEE@Base 3.2.1-1kern1
 _ZTIN8casacore18casacore_allocatorIbLm32EEE@Base 3.2.1-1kern1
 _ZTIN8casacore18casacore_allocatorIjLm32EEE@Base 3.2.1-1kern1
 _ZTIN8casacore19VirtualScalarColumnIdEE@Base 3.2.1-1kern1
 _ZTIN8casacore20UDFMSCalErrorHandlerE@Base 3.2.1-1kern1
 _ZTIN8casacore22MSSelectableMainColumnE@Base 3.2.1-1kern1
 _ZTIN8casacore5ArrayINS_10MDirectionEEE@Base 3.2.1-1kern1
 _ZTIN8casacore5ArrayINS_7QuantumIdEEEE@Base 3.2.1-1kern1
 _ZTIN8casacore6MatrixIiEE@Base 3.2.1-1kern1
 _ZTIN8casacore6VectorINS_7QuantumIdEEEE@Base 3.2.1-1kern1
 _ZTIN8casacore7MeasRefINS_10MDirectionEEE@Base 3.2.1-1kern1
 _ZTIN8casacore7MeasRefINS_4MuvwEEE@Base 3.2.1-1kern1
 _ZTIN8casacore7MeasRefINS_6MEpochEEE@Base 3.2.1-1kern1
 _ZTIN8casacore7MeasRefINS_9MBaselineEEE@Base 3.2.1-1kern1
 _ZTIN8casacore7MeasRefINS_9MPositionEEE@Base 3.2.1-1kern1
 _ZTIN8casacore8MeasBaseINS_11MVDirectionENS_7MeasRefINS_10MDirectionEEEEE@Base 3.2.1-1kern1
 _ZTIN8casacore8MeasBaseINS_7MVEpochENS_7MeasRefINS_6MEpochEEEEE@Base 3.2.1-1kern1
 _ZTIN8casacore8UDFMSCalE@Base 3.2.1-1kern1
 _ZTIN9__gnu_cxx13new_allocatorIN8casacore10MDirectionEEE@Base 3.2.1-1kern1
 _ZTIN9__gnu_cxx13new_allocatorIN8casacore6MVTimeEEE@Base 3.2.1-1kern1
 _ZTIN9__gnu_cxx13new_allocatorIN8casacore7QuantumIdEEEE@Base 3.2.1-1kern1
 _ZTIN9__gnu_cxx13new_allocatorIPN8casacore6SlicerEEE@Base 3.2.1-1kern1
 _ZTIN9__gnu_cxx13new_allocatorIbEE@Base 3.2.1-1kern1
 _ZTIN9__gnu_cxx13new_allocatorIjEE@Base 3.2.1-1kern1
 _ZTISaIN8casacore10MDirectionEE@Base 3.2.1-1kern1
 _ZTISaIN8casacore6MVTimeEE@Base 3.2.1-1kern1
 _ZTISaIN8casacore7QuantumIdEEE@Base 3.2.1-1kern1
 _ZTISaIPN8casacore6SlicerEE@Base 3.2.1-1kern1
 _ZTISaIbE@Base 3.2.1-1kern1
 _ZTISaIjE@Base 3.2.1-1kern1
 _ZTISt11_Mutex_baseILN9__gnu_cxx12_Lock_policyE2EE@Base 3.2.1-1kern1
 _ZTISt15_Sp_counted_ptrIPN8casacore23MSSelectionErrorHandlerELN9__gnu_cxx12_Lock_policyE2EE@Base 3.2.1-1kern1
 _ZTISt15_Sp_counted_ptrIPN8casacore5BlockINS0_10MDirectionEEELN9__gnu_cxx12_Lock_policyE2EE@Base 3.2.1-1kern1
 _ZTISt15_Sp_counted_ptrIPN8casacore5BlockINS0_7QuantumIdEEEELN9__gnu_cxx12_Lock_policyE2EE@Base 3.2.1-1kern1
 _ZTISt15_Sp_counted_ptrIPN8casacore7MeasRefINS0_10MDirectionEE6RefRepELN9__gnu_cxx12_Lock_policyE2EE@Base 3.2.1-1kern1
 _ZTISt15_Sp_counted_ptrIPN8casacore7MeasRefINS0_4MuvwEE6RefRepELN9__gnu_cxx12_Lock_policyE2EE@Base 3.2.1-1kern1
 _ZTISt15_Sp_counted_ptrIPN8casacore7MeasRefINS0_6MEpochEE6RefRepELN9__gnu_cxx12_Lock_policyE2EE@Base 3.2.1-1kern1
 _ZTISt15_Sp_counted_ptrIPN8casacore7MeasRefINS0_9MBaselineEE6RefRepELN9__gnu_cxx12_Lock_policyE2EE@Base 3.2.1-1kern1
 _ZTISt15_Sp_counted_ptrIPN8casacore7MeasRefINS0_9MPositionEE6RefRepELN9__gnu_cxx12_Lock_policyE2EE@Base 3.2.1-1kern1
 _ZTISt16_Sp_counted_baseILN9__gnu_cxx12_Lock_policyE2EE@Base 3.2.1-1kern1
 _ZTISt19_Sp_counted_deleterIPN8casacore21ArrayPositionIteratorENS0_10CountedPtrIS1_E7DeleterIS1_EESaIvELN9__gnu_cxx12_Lock_policyE2EE@Base 3.2.1-1kern1
 _ZTISt19_Sp_counted_deleterIPN8casacore5BlockINS0_10MDirectionEEENS0_10CountedPtrIS3_E7DeleterIS3_EESaIvELN9__gnu_cxx12_Lock_policyE2EE@Base 3.2.1-1kern1
 _ZTISt19_Sp_counted_deleterIPN8casacore5BlockINS0_7QuantumIdEEEENS0_10CountedPtrIS4_E7DeleterIS4_EESaIvELN9__gnu_cxx12_Lock_policyE2EE@Base 3.2.1-1kern1
 _ZTISt19_Sp_counted_deleterIPN8casacore9ArrayBaseENS0_10CountedPtrIS1_E7DeleterIS1_EESaIvELN9__gnu_cxx12_Lock_policyE2EE@Base 3.2.1-1kern1
 _ZTSN8casacore10AzElColumnE@Base 3.2.1-1kern1
 _ZTSN8casacore10CountedPtrINS_21ArrayPositionIteratorEE7DeleterIS1_EE@Base 3.2.1-1kern1
 _ZTSN8casacore10CountedPtrINS_5BlockINS_10MDirectionEEEE7DeleterIS3_EE@Base 3.2.1-1kern1
 _ZTSN8casacore10CountedPtrINS_5BlockINS_7QuantumIdEEEEE7DeleterIS4_EE@Base 3.2.1-1kern1
 _ZTSN8casacore10CountedPtrINS_9ArrayBaseEE7DeleterIS1_EE@Base 3.2.1-1kern1
 _ZTSN8casacore10ItrfColumnE@Base 3.2.1-1kern1
 _ZTSN8casacore10LASTColumnE@Base 3.2.1-1kern1
 _ZTSN8casacore11HaDecColumnE@Base 3.2.1-1kern1
 _ZTSN8casacore11MeasConvertINS_10MDirectionEEE@Base 3.2.1-1kern1
 _ZTSN8casacore11MeasConvertINS_4MuvwEEE@Base 3.2.1-1kern1
 _ZTSN8casacore11MeasConvertINS_6MEpochEEE@Base 3.2.1-1kern1
 _ZTSN8casacore11MeasConvertINS_9MBaselineEEE@Base 3.2.1-1kern1
 _ZTSN8casacore11MeasConvertINS_9MPositionEEE@Base 3.2.1-1kern1
 _ZTSN8casacore12DerivedMSCalE@Base 3.2.1-1kern1
 _ZTSN8casacore12HelpMsCalUDFE@Base 3.2.1-1kern1
 _ZTSN8casacore13ArrayIteratorINS_10MDirectionEEE@Base 3.2.1-1kern1
 _ZTSN8casacore13ArrayIteratorINS_7QuantumIdEEEE@Base 3.2.1-1kern1
 _ZTSN8casacore13ArrayIteratorIdEE@Base 3.2.1-1kern1
 _ZTSN8casacore13BaseAllocatorINS_10MDirectionENS_15NewDelAllocatorIS1_EEEE@Base 3.2.1-1kern1
 _ZTSN8casacore13BaseAllocatorINS_10MDirectionENS_16AlignedAllocatorIS1_Lm32EEEEE@Base 3.2.1-1kern1
 _ZTSN8casacore13BaseAllocatorINS_6MVTimeENS_15NewDelAllocatorIS1_EEEE@Base 3.2.1-1kern1
 _ZTSN8casacore13BaseAllocatorINS_6MVTimeENS_16AlignedAllocatorIS1_Lm32EEEEE@Base 3.2.1-1kern1
 _ZTSN8casacore13BaseAllocatorINS_7QuantumIdEENS_15NewDelAllocatorIS2_EEEE@Base 3.2.1-1kern1
 _ZTSN8casacore13BaseAllocatorINS_7QuantumIdEENS_16AlignedAllocatorIS2_Lm32EEEEE@Base 3.2.1-1kern1
 _ZTSN8casacore13BaseAllocatorIPNS_6SlicerENS_15NewDelAllocatorIS2_EEEE@Base 3.2.1-1kern1
 _ZTSN8casacore13BaseAllocatorIPNS_6SlicerENS_16AlignedAllocatorIS2_Lm32EEEEE@Base 3.2.1-1kern1
 _ZTSN8casacore14ParAngleColumnE@Base 3.2.1-1kern1
 _ZTSN8casacore14UVWJ2000ColumnE@Base 3.2.1-1kern1
 _ZTSN8casacore15ArrayMeasColumnINS_10MDirectionEEE@Base 3.2.1-1kern1
 _ZTSN8casacore15HourangleColumnE@Base 3.2.1-1kern1
 _ZTSN8casacore15NewDelAllocatorINS_10MDirectionEEE@Base 3.2.1-1kern1
 _ZTSN8casacore15NewDelAllocatorINS_6MVTimeEEE@Base 3.2.1-1kern1
 _ZTSN8casacore15NewDelAllocatorINS_7QuantumIdEEEE@Base 3.2.1-1kern1
 _ZTSN8casacore15NewDelAllocatorIPNS_6SlicerEEE@Base 3.2.1-1kern1
 _ZTSN8casacore16AlignedAllocatorINS_10MDirectionELm32EEE@Base 3.2.1-1kern1
 _ZTSN8casacore16AlignedAllocatorINS_6MVTimeELm32EEE@Base 3.2.1-1kern1
 _ZTSN8casacore16AlignedAllocatorINS_7QuantumIdEELm32EEE@Base 3.2.1-1kern1
 _ZTSN8casacore16AlignedAllocatorIPNS_6SlicerELm32EEE@Base 3.2.1-1kern1
 _ZTSN8casacore16DefaultAllocatorINS_10MDirectionEEE@Base 3.2.1-1kern1
 _ZTSN8casacore16DefaultAllocatorINS_6MVTimeEEE@Base 3.2.1-1kern1
 _ZTSN8casacore16DefaultAllocatorINS_7QuantumIdEEEE@Base 3.2.1-1kern1
 _ZTSN8casacore16DefaultAllocatorIPNS_6SlicerEEE@Base 3.2.1-1kern1
 _ZTSN8casacore16ScalarMeasColumnINS_10MDirectionEEE@Base 3.2.1-1kern1
 _ZTSN8casacore16ScalarMeasColumnINS_6MEpochEEE@Base 3.2.1-1kern1
 _ZTSN8casacore16ScalarMeasColumnINS_9MPositionEEE@Base 3.2.1-1kern1
 _ZTSN8casacore17AbstractAllocatorINS_10MDirectionEEE@Base 3.2.1-1kern1
 _ZTSN8casacore17AbstractAllocatorINS_6MVTimeEEE@Base 3.2.1-1kern1
 _ZTSN8casacore17AbstractAllocatorINS_7QuantumIdEEEE@Base 3.2.1-1kern1
 _ZTSN8casacore17AbstractAllocatorIPNS_6SlicerEEE@Base 3.2.1-1kern1
 _ZTSN8casacore17Allocator_private13BulkAllocatorINS_10MDirectionEEE@Base 3.2.1-1kern1
 _ZTSN8casacore17Allocator_private13BulkAllocatorINS_6MVTimeEEE@Base 3.2.1-1kern1
 _ZTSN8casacore17Allocator_private13BulkAllocatorINS_7QuantumIdEEEE@Base 3.2.1-1kern1
 _ZTSN8casacore17Allocator_private13BulkAllocatorIPNS_6SlicerEEE@Base 3.2.1-1kern1
 _ZTSN8casacore17Allocator_private13BulkAllocatorIbEE@Base 3.2.1-1kern1
 _ZTSN8casacore17Allocator_private13BulkAllocatorIjEE@Base 3.2.1-1kern1
 _ZTSN8casacore17Allocator_private17BulkAllocatorImplINS_17new_del_allocatorINS_10MDirectionEEEEE@Base 3.2.1-1kern1
 _ZTSN8casacore17Allocator_private17BulkAllocatorImplINS_17new_del_allocatorINS_6MVTimeEEEEE@Base 3.2.1-1kern1
 _ZTSN8casacore17Allocator_private17BulkAllocatorImplINS_17new_del_allocatorINS_7QuantumIdEEEEEE@Base 3.2.1-1kern1
 _ZTSN8casacore17Allocator_private17BulkAllocatorImplINS_17new_del_allocatorIPNS_6SlicerEEEEE@Base 3.2.1-1kern1
 _ZTSN8casacore17Allocator_private17BulkAllocatorImplINS_18casacore_allocatorINS_10MDirectionELm32EEEEE@Base 3.2.1-1kern1
 _ZTSN8casacore17Allocator_private17BulkAllocatorImplINS_18casacore_allocatorINS_6MVTimeELm32EEEEE@Base 3.2.1-1kern1
 _ZTSN8casacore17Allocator_private17BulkAllocatorImplINS_18casacore_allocatorINS_7QuantumIdEELm32EEEEE@Base 3.2.1-1kern1
 _ZTSN8casacore17Allocator_private17BulkAllocatorImplINS_18casacore_allocatorIPNS_6SlicerELm32EEEEE@Base 3.2.1-1kern1
 _ZTSN8casacore17Allocator_private17BulkAllocatorImplINS_18casacore_allocatorIbLm32EEEEE@Base 3.2.1-1kern1
 _ZTSN8casacore17Allocator_private17BulkAllocatorImplINS_18casacore_allocatorIjLm32EEEEE@Base 3.2.1-1kern1
 _ZTSN8casacore17new_del_allocatorINS_10MDirectionEEE@Base 3.2.1-1kern1
 _ZTSN8casacore17new_del_allocatorINS_6MVTimeEEE@Base 3.2.1-1kern1
 _ZTSN8casacore17new_del_allocatorINS_7QuantumIdEEEE@Base 3.2.1-1kern1
 _ZTSN8casacore17new_del_allocatorIPNS_6SlicerEEE@Base 3.2.1-1kern1
 _ZTSN8casacore18MSMainColInterfaceE@Base 3.2.1-1kern1
 _ZTSN8casacore18VirtualArrayColumnIdEE@Base 3.2.1-1kern1
 _ZTSN8casacore18casacore_allocatorINS_10MDirectionELm32EEE@Base 3.2.1-1kern1
 _ZTSN8casacore18casacore_allocatorINS_6MVTimeELm32EEE@Base 3.2.1-1kern1
 _ZTSN8casacore18casacore_allocatorINS_7QuantumIdEELm32EEE@Base 3.2.1-1kern1
 _ZTSN8casacore18casacore_allocatorIPNS_6SlicerELm32EEE@Base 3.2.1-1kern1
 _ZTSN8casacore18casacore_allocatorIbLm32EEE@Base 3.2.1-1kern1
 _ZTSN8casacore18casacore_allocatorIjLm32EEE@Base 3.2.1-1kern1
 _ZTSN8casacore19VirtualScalarColumnIdEE@Base 3.2.1-1kern1
 _ZTSN8casacore20UDFMSCalErrorHandlerE@Base 3.2.1-1kern1
 _ZTSN8casacore22MSSelectableMainColumnE@Base 3.2.1-1kern1
 _ZTSN8casacore5ArrayINS_10MDirectionEEE@Base 3.2.1-1kern1
 _ZTSN8casacore5ArrayINS_7QuantumIdEEEE@Base 3.2.1-1kern1
 _ZTSN8casacore6MatrixIiEE@Base 3.2.1-1kern1
 _ZTSN8casacore6VectorINS_7QuantumIdEEEE@Base 3.2.1-1kern1
 _ZTSN8casacore7MeasRefINS_10MDirectionEEE@Base 3.2.1-1kern1
 _ZTSN8casacore7MeasRefINS_4MuvwEEE@Base 3.2.1-1kern1
 _ZTSN8casacore7MeasRefINS_6MEpochEEE@Base 3.2.1-1kern1
 _ZTSN8casacore7MeasRefINS_9MBaselineEEE@Base 3.2.1-1kern1
 _ZTSN8casacore7MeasRefINS_9MPositionEEE@Base 3.2.1-1kern1
 _ZTSN8casacore8MeasBaseINS_11MVDirectionENS_7MeasRefINS_10MDirectionEEEEE@Base 3.2.1-1kern1
 _ZTSN8casacore8MeasBaseINS_7MVEpochENS_7MeasRefINS_6MEpochEEEEE@Base 3.2.1-1kern1
 _ZTSN8casacore8UDFMSCalE@Base 3.2.1-1kern1
 _ZTSN9__gnu_cxx13new_allocatorIN8casacore10MDirectionEEE@Base 3.2.1-1kern1
 _ZTSN9__gnu_cxx13new_allocatorIN8casacore6MVTimeEEE@Base 3.2.1-1kern1
 _ZTSN9__gnu_cxx13new_allocatorIN8casacore7QuantumIdEEEE@Base 3.2.1-1kern1
 _ZTSN9__gnu_cxx13new_allocatorIPN8casacore6SlicerEEE@Base 3.2.1-1kern1
 _ZTSN9__gnu_cxx13new_allocatorIbEE@Base 3.2.1-1kern1
 _ZTSN9__gnu_cxx13new_allocatorIjEE@Base 3.2.1-1kern1
 _ZTSSaIN8casacore10MDirectionEE@Base 3.2.1-1kern1
 _ZTSSaIN8casacore6MVTimeEE@Base 3.2.1-1kern1
 _ZTSSaIN8casacore7QuantumIdEEE@Base 3.2.1-1kern1
 _ZTSSaIPN8casacore6SlicerEE@Base 3.2.1-1kern1
 _ZTSSaIbE@Base 3.2.1-1kern1
 _ZTSSaIjE@Base 3.2.1-1kern1
 _ZTSSt11_Mutex_baseILN9__gnu_cxx12_Lock_policyE2EE@Base 3.2.1-1kern1
 _ZTSSt15_Sp_counted_ptrIPN8casacore23MSSelectionErrorHandlerELN9__gnu_cxx12_Lock_policyE2EE@Base 3.2.1-1kern1
 _ZTSSt15_Sp_counted_ptrIPN8casacore5BlockINS0_10MDirectionEEELN9__gnu_cxx12_Lock_policyE2EE@Base 3.2.1-1kern1
 _ZTSSt15_Sp_counted_ptrIPN8casacore5BlockINS0_7QuantumIdEEEELN9__gnu_cxx12_Lock_policyE2EE@Base 3.2.1-1kern1
 _ZTSSt15_Sp_counted_ptrIPN8casacore7MeasRefINS0_10MDirectionEE6RefRepELN9__gnu_cxx12_Lock_policyE2EE@Base 3.2.1-1kern1
 _ZTSSt15_Sp_counted_ptrIPN8casacore7MeasRefINS0_4MuvwEE6RefRepELN9__gnu_cxx12_Lock_policyE2EE@Base 3.2.1-1kern1
 _ZTSSt15_Sp_counted_ptrIPN8casacore7MeasRefINS0_6MEpochEE6RefRepELN9__gnu_cxx12_Lock_policyE2EE@Base 3.2.1-1kern1
 _ZTSSt15_Sp_counted_ptrIPN8casacore7MeasRefINS0_9MBaselineEE6RefRepELN9__gnu_cxx12_Lock_policyE2EE@Base 3.2.1-1kern1
 _ZTSSt15_Sp_counted_ptrIPN8casacore7MeasRefINS0_9MPositionEE6RefRepELN9__gnu_cxx12_Lock_policyE2EE@Base 3.2.1-1kern1
 _ZTSSt16_Sp_counted_baseILN9__gnu_cxx12_Lock_policyE2EE@Base 3.2.1-1kern1
 _ZTSSt19_Sp_counted_deleterIPN8casacore21ArrayPositionIteratorENS0_10CountedPtrIS1_E7DeleterIS1_EESaIvELN9__gnu_cxx12_Lock_policyE2EE@Base 3.2.1-1kern1
 _ZTSSt19_Sp_counted_deleterIPN8casacore5BlockINS0_10MDirectionEEENS0_10CountedPtrIS3_E7DeleterIS3_EESaIvELN9__gnu_cxx12_Lock_policyE2EE@Base 3.2.1-1kern1
 _ZTSSt19_Sp_counted_deleterIPN8casacore5BlockINS0_7QuantumIdEEEENS0_10CountedPtrIS4_E7DeleterIS4_EESaIvELN9__gnu_cxx12_Lock_policyE2EE@Base 3.2.1-1kern1
 _ZTSSt19_Sp_counted_deleterIPN8casacore9ArrayBaseENS0_10CountedPtrIS1_E7DeleterIS1_EESaIvELN9__gnu_cxx12_Lock_policyE2EE@Base 3.2.1-1kern1
 _ZTVN8casacore10AzElColumnE@Base 3.2.1-1kern1
 _ZTVN8casacore10ItrfColumnE@Base 3.2.1-1kern1
 _ZTVN8casacore10LASTColumnE@Base 3.2.1-1kern1
 _ZTVN8casacore11HaDecColumnE@Base 3.2.1-1kern1
 _ZTVN8casacore11MeasConvertINS_10MDirectionEEE@Base 3.2.1-1kern1
 _ZTVN8casacore11MeasConvertINS_4MuvwEEE@Base 3.2.1-1kern1
 _ZTVN8casacore11MeasConvertINS_6MEpochEEE@Base 3.2.1-1kern1
 _ZTVN8casacore11MeasConvertINS_9MBaselineEEE@Base 3.2.1-1kern1
 _ZTVN8casacore11MeasConvertINS_9MPositionEEE@Base 3.2.1-1kern1
 _ZTVN8casacore12DerivedMSCalE@Base 3.2.1-1kern1
 _ZTVN8casacore12HelpMsCalUDFE@Base 3.2.1-1kern1
 _ZTVN8casacore13ArrayIteratorINS_10MDirectionEEE@Base 3.2.1-1kern1
 _ZTVN8casacore13ArrayIteratorINS_7QuantumIdEEEE@Base 3.2.1-1kern1
 _ZTVN8casacore13ArrayIteratorIdEE@Base 3.2.1-1kern1
 _ZTVN8casacore14ParAngleColumnE@Base 3.2.1-1kern1
 _ZTVN8casacore14UVWJ2000ColumnE@Base 3.2.1-1kern1
 _ZTVN8casacore15ArrayMeasColumnINS_10MDirectionEEE@Base 3.2.1-1kern1
 _ZTVN8casacore15HourangleColumnE@Base 3.2.1-1kern1
 _ZTVN8casacore15NewDelAllocatorINS_10MDirectionEEE@Base 3.2.1-1kern1
 _ZTVN8casacore15NewDelAllocatorINS_6MVTimeEEE@Base 3.2.1-1kern1
 _ZTVN8casacore15NewDelAllocatorINS_7QuantumIdEEEE@Base 3.2.1-1kern1
 _ZTVN8casacore15NewDelAllocatorIPNS_6SlicerEEE@Base 3.2.1-1kern1
 _ZTVN8casacore16DefaultAllocatorINS_10MDirectionEEE@Base 3.2.1-1kern1
 _ZTVN8casacore16DefaultAllocatorINS_6MVTimeEEE@Base 3.2.1-1kern1
 _ZTVN8casacore16DefaultAllocatorINS_7QuantumIdEEEE@Base 3.2.1-1kern1
 _ZTVN8casacore16DefaultAllocatorIPNS_6SlicerEEE@Base 3.2.1-1kern1
 _ZTVN8casacore16ScalarMeasColumnINS_10MDirectionEEE@Base 3.2.1-1kern1
 _ZTVN8casacore16ScalarMeasColumnINS_6MEpochEEE@Base 3.2.1-1kern1
 _ZTVN8casacore16ScalarMeasColumnINS_9MPositionEEE@Base 3.2.1-1kern1
 _ZTVN8casacore17Allocator_private17BulkAllocatorImplINS_17new_del_allocatorINS_10MDirectionEEEEE@Base 3.2.1-1kern1
 _ZTVN8casacore17Allocator_private17BulkAllocatorImplINS_17new_del_allocatorINS_6MVTimeEEEEE@Base 3.2.1-1kern1
 _ZTVN8casacore17Allocator_private17BulkAllocatorImplINS_17new_del_allocatorINS_7QuantumIdEEEEEE@Base 3.2.1-1kern1
 _ZTVN8casacore17Allocator_private17BulkAllocatorImplINS_17new_del_allocatorIPNS_6SlicerEEEEE@Base 3.2.1-1kern1
 _ZTVN8casacore17Allocator_private17BulkAllocatorImplINS_18casacore_allocatorINS_10MDirectionELm32EEEEE@Base 3.2.1-1kern1
 _ZTVN8casacore17Allocator_private17BulkAllocatorImplINS_18casacore_allocatorINS_6MVTimeELm32EEEEE@Base 3.2.1-1kern1
 _ZTVN8casacore17Allocator_private17BulkAllocatorImplINS_18casacore_allocatorINS_7QuantumIdEELm32EEEEE@Base 3.2.1-1kern1
 _ZTVN8casacore17Allocator_private17BulkAllocatorImplINS_18casacore_allocatorIPNS_6SlicerELm32EEEEE@Base 3.2.1-1kern1
 _ZTVN8casacore17Allocator_private17BulkAllocatorImplINS_18casacore_allocatorIbLm32EEEEE@Base 3.2.1-1kern1
 _ZTVN8casacore17Allocator_private17BulkAllocatorImplINS_18casacore_allocatorIjLm32EEEEE@Base 3.2.1-1kern1
 _ZTVN8casacore18MSMainColInterfaceE@Base 3.2.1-1kern1
 _ZTVN8casacore18VirtualArrayColumnIdEE@Base 3.2.1-1kern1
 _ZTVN8casacore19VirtualScalarColumnIdEE@Base 3.2.1-1kern1
 _ZTVN8casacore20UDFMSCalErrorHandlerE@Base 3.2.1-1kern1
 _ZTVN8casacore5ArrayINS_10MDirectionEEE@Base 3.2.1-1kern1
 _ZTVN8casacore5ArrayINS_7QuantumIdEEEE@Base 3.2.1-1kern1
 _ZTVN8casacore6MatrixIiEE@Base 3.2.1-1kern1
 _ZTVN8casacore6VectorINS_7QuantumIdEEEE@Base 3.2.1-1kern1
 _ZTVN8casacore7MeasRefINS_10MDirectionEEE@Base 3.2.1-1kern1
 _ZTVN8casacore7MeasRefINS_4MuvwEEE@Base 3.2.1-1kern1
 _ZTVN8casacore7MeasRefINS_6MEpochEEE@Base 3.2.1-1kern1
 _ZTVN8casacore7MeasRefINS_9MBaselineEEE@Base 3.2.1-1kern1
 _ZTVN8casacore7MeasRefINS_9MPositionEEE@Base 3.2.1-1kern1
 _ZTVN8casacore8MeasBaseINS_11MVDirectionENS_7MeasRefINS_10MDirectionEEEEE@Base 3.2.1-1kern1
 _ZTVN8casacore8MeasBaseINS_7MVEpochENS_7MeasRefINS_6MEpochEEEEE@Base 3.2.1-1kern1
 _ZTVN8casacore8UDFMSCalE@Base 3.2.1-1kern1
 _ZTVSt15_Sp_counted_ptrIPN8casacore23MSSelectionErrorHandlerELN9__gnu_cxx12_Lock_policyE2EE@Base 3.2.1-1kern1
 _ZTVSt15_Sp_counted_ptrIPN8casacore5BlockINS0_10MDirectionEEELN9__gnu_cxx12_Lock_policyE2EE@Base 3.2.1-1kern1
 _ZTVSt15_Sp_counted_ptrIPN8casacore5BlockINS0_7QuantumIdEEEELN9__gnu_cxx12_Lock_policyE2EE@Base 3.2.1-1kern1
 _ZTVSt15_Sp_counted_ptrIPN8casacore7MeasRefINS0_10MDirectionEE6RefRepELN9__gnu_cxx12_Lock_policyE2EE@Base 3.2.1-1kern1
 _ZTVSt15_Sp_counted_ptrIPN8casacore7MeasRefINS0_4MuvwEE6RefRepELN9__gnu_cxx12_Lock_policyE2EE@Base 3.2.1-1kern1
 _ZTVSt15_Sp_counted_ptrIPN8casacore7MeasRefINS0_6MEpochEE6RefRepELN9__gnu_cxx12_Lock_policyE2EE@Base 3.2.1-1kern1
 _ZTVSt15_Sp_counted_ptrIPN8casacore7MeasRefINS0_9MBaselineEE6RefRepELN9__gnu_cxx12_Lock_policyE2EE@Base 3.2.1-1kern1
 _ZTVSt15_Sp_counted_ptrIPN8casacore7MeasRefINS0_9MPositionEE6RefRepELN9__gnu_cxx12_Lock_policyE2EE@Base 3.2.1-1kern1
 _ZTVSt19_Sp_counted_deleterIPN8casacore21ArrayPositionIteratorENS0_10CountedPtrIS1_E7DeleterIS1_EESaIvELN9__gnu_cxx12_Lock_policyE2EE@Base 3.2.1-1kern1
 _ZTVSt19_Sp_counted_deleterIPN8casacore5BlockINS0_10MDirectionEEENS0_10CountedPtrIS3_E7DeleterIS3_EESaIvELN9__gnu_cxx12_Lock_policyE2EE@Base 3.2.1-1kern1
 _ZTVSt19_Sp_counted_deleterIPN8casacore5BlockINS0_7QuantumIdEEEENS0_10CountedPtrIS4_E7DeleterIS4_EESaIvELN9__gnu_cxx12_Lock_policyE2EE@Base 3.2.1-1kern1
 _ZTVSt19_Sp_counted_deleterIPN8casacore9ArrayBaseENS0_10CountedPtrIS1_E7DeleterIS1_EESaIvELN9__gnu_cxx12_Lock_policyE2EE@Base 3.2.1-1kern1
 _ZZN8casacore17Allocator_private17get_allocator_rawINS_17new_del_allocatorINS_10MDirectionEEEEEPNS0_17BulkAllocatorImplIT_EEvE3ptr@Base 3.2.1-1kern1
 _ZZN8casacore17Allocator_private17get_allocator_rawINS_17new_del_allocatorINS_10MDirectionEEEEEPNS0_17BulkAllocatorImplIT_EEvE7storage@Base 3.2.1-1kern1
 _ZZN8casacore17Allocator_private17get_allocator_rawINS_17new_del_allocatorINS_6MVTimeEEEEEPNS0_17BulkAllocatorImplIT_EEvE3ptr@Base 3.2.1-1kern1
 _ZZN8casacore17Allocator_private17get_allocator_rawINS_17new_del_allocatorINS_6MVTimeEEEEEPNS0_17BulkAllocatorImplIT_EEvE7storage@Base 3.2.1-1kern1
 _ZZN8casacore17Allocator_private17get_allocator_rawINS_17new_del_allocatorINS_7QuantumIdEEEEEEPNS0_17BulkAllocatorImplIT_EEvE3ptr@Base 3.2.1-1kern1
 _ZZN8casacore17Allocator_private17get_allocator_rawINS_17new_del_allocatorINS_7QuantumIdEEEEEEPNS0_17BulkAllocatorImplIT_EEvE7storage@Base 3.2.1-1kern1
 _ZZN8casacore17Allocator_private17get_allocator_rawINS_17new_del_allocatorIPNS_6SlicerEEEEEPNS0_17BulkAllocatorImplIT_EEvE3ptr@Base 3.2.1-1kern1
 _ZZN8casacore17Allocator_private17get_allocator_rawINS_17new_del_allocatorIPNS_6SlicerEEEEEPNS0_17BulkAllocatorImplIT_EEvE7storage@Base 3.2.1-1kern1
 _ZZN8casacore17Allocator_private17get_allocator_rawINS_18casacore_allocatorINS_10MDirectionELm32EEEEEPNS0_17BulkAllocatorImplIT_EEvE3ptr@Base 3.2.1-1kern1
 _ZZN8casacore17Allocator_private17get_allocator_rawINS_18casacore_allocatorINS_10MDirectionELm32EEEEEPNS0_17BulkAllocatorImplIT_EEvE7storage@Base 3.2.1-1kern1
 _ZZN8casacore17Allocator_private17get_allocator_rawINS_18casacore_allocatorINS_6MVTimeELm32EEEEEPNS0_17BulkAllocatorImplIT_EEvE3ptr@Base 3.2.1-1kern1
 _ZZN8casacore17Allocator_private17get_allocator_rawINS_18casacore_allocatorINS_6MVTimeELm32EEEEEPNS0_17BulkAllocatorImplIT_EEvE7storage@Base 3.2.1-1kern1
 _ZZN8casacore17Allocator_private17get_allocator_rawINS_18casacore_allocatorINS_7QuantumIdEELm32EEEEEPNS0_17BulkAllocatorImplIT_EEvE3ptr@Base 3.2.1-1kern1
 _ZZN8casacore17Allocator_private17get_allocator_rawINS_18casacore_allocatorINS_7QuantumIdEELm32EEEEEPNS0_17BulkAllocatorImplIT_EEvE7storage@Base 3.2.1-1kern1
 _ZZN8casacore17Allocator_private17get_allocator_rawINS_18casacore_allocatorIPNS_6SlicerELm32EEEEEPNS0_17BulkAllocatorImplIT_EEvE3ptr@Base 3.2.1-1kern1
 _ZZN8casacore17Allocator_private17get_allocator_rawINS_18casacore_allocatorIPNS_6SlicerELm32EEEEEPNS0_17BulkAllocatorImplIT_EEvE7storage@Base 3.2.1-1kern1
 _ZZN8casacore17Allocator_private17get_allocator_rawINS_18casacore_allocatorIbLm32EEEEEPNS0_17BulkAllocatorImplIT_EEvE3ptr@Base 3.2.1-1kern1
 _ZZN8casacore17Allocator_private17get_allocator_rawINS_18casacore_allocatorIbLm32EEEEEPNS0_17BulkAllocatorImplIT_EEvE7storage@Base 3.2.1-1kern1
 _ZZN8casacore17Allocator_private17get_allocator_rawINS_18casacore_allocatorIjLm32EEEEEPNS0_17BulkAllocatorImplIT_EEvE3ptr@Base 3.2.1-1kern1
 _ZZN8casacore17Allocator_private17get_allocator_rawINS_18casacore_allocatorIjLm32EEEEEPNS0_17BulkAllocatorImplIT_EEvE7storage@Base 3.2.1-1kern1
 _ZZN8casacore7ValType9strdoubleEvE6result@Base 3.2.1-1kern1
 _ZZN8casacore7assert_INS_10ArrayErrorEEC4EiPKcS4_iE7message@Base 3.2.1-1kern1
 _ZZN8casacore7assert_INS_9AipsErrorEEC4EiPKcS4_iE7message@Base 3.2.1-1kern1
 register_derivedmscal@Base 3.2.1-1kern1
