libcasa_meas.so.4 libcasa-meas4 #MINVER#
 _ZGVN8casacore15NewDelAllocatorINS_10MDirectionEE5valueE@Base 3.2.1~
 _ZGVN8casacore15NewDelAllocatorINS_10MFrequencyEE5valueE@Base 3.2.1~
 _ZGVN8casacore15NewDelAllocatorINS_11MVFrequencyEE5valueE@Base 3.2.1~
 _ZGVN8casacore15NewDelAllocatorINS_14MEarthMagneticEE5valueE@Base 3.2.1~
 _ZGVN8casacore15NewDelAllocatorINS_15MRadialVelocityEE5valueE@Base 3.2.1~
 _ZGVN8casacore15NewDelAllocatorINS_6MEpochEE5valueE@Base 3.2.1~
 _ZGVN8casacore15NewDelAllocatorINS_6MVTimeEE5valueE@Base 3.2.1~
 _ZGVN8casacore15NewDelAllocatorINS_7QuantumIdEEE5valueE@Base 3.2.1~
 _ZGVN8casacore15NewDelAllocatorINS_8MDopplerEE5valueE@Base 3.2.1~
 _ZGVN8casacore15NewDelAllocatorINS_9MPositionEE5valueE@Base 3.2.1~
 _ZGVN8casacore15NewDelAllocatorIPNS_6SlicerEE5valueE@Base 3.2.1~
 _ZGVN8casacore16DefaultAllocatorINS_10MDirectionEE5valueE@Base 3.2.1~
 _ZGVN8casacore16DefaultAllocatorINS_10MFrequencyEE5valueE@Base 3.2.1~
 _ZGVN8casacore16DefaultAllocatorINS_11MVFrequencyEE5valueE@Base 3.2.1~
 _ZGVN8casacore16DefaultAllocatorINS_14MEarthMagneticEE5valueE@Base 3.2.1~
 _ZGVN8casacore16DefaultAllocatorINS_15MRadialVelocityEE5valueE@Base 3.2.1~
 _ZGVN8casacore16DefaultAllocatorINS_6MEpochEE5valueE@Base 3.2.1~
 _ZGVN8casacore16DefaultAllocatorINS_6MVTimeEE5valueE@Base 3.2.1~
 _ZGVN8casacore16DefaultAllocatorINS_7QuantumIdEEE5valueE@Base 3.2.1~
 _ZGVN8casacore16DefaultAllocatorINS_8MDopplerEE5valueE@Base 3.2.1~
 _ZGVN8casacore16DefaultAllocatorINS_9MPositionEE5valueE@Base 3.2.1~
 _ZGVN8casacore16DefaultAllocatorIPNS_6SlicerEE5valueE@Base 3.2.1~
 _ZGVN8casacore17Allocator_private17BulkAllocatorImplINS_17new_del_allocatorINS_10MDirectionEEEE9allocatorE@Base 3.2.1~
 _ZGVN8casacore17Allocator_private17BulkAllocatorImplINS_17new_del_allocatorINS_10MFrequencyEEEE9allocatorE@Base 3.2.1~
 _ZGVN8casacore17Allocator_private17BulkAllocatorImplINS_17new_del_allocatorINS_11MVFrequencyEEEE9allocatorE@Base 3.2.1~
 _ZGVN8casacore17Allocator_private17BulkAllocatorImplINS_17new_del_allocatorINS_14MEarthMagneticEEEE9allocatorE@Base 3.2.1~
 _ZGVN8casacore17Allocator_private17BulkAllocatorImplINS_17new_del_allocatorINS_15MRadialVelocityEEEE9allocatorE@Base 3.2.1~
 _ZGVN8casacore17Allocator_private17BulkAllocatorImplINS_17new_del_allocatorINS_6MEpochEEEE9allocatorE@Base 3.2.1~
 _ZGVN8casacore17Allocator_private17BulkAllocatorImplINS_17new_del_allocatorINS_6MVTimeEEEE9allocatorE@Base 3.2.1~
 _ZGVN8casacore17Allocator_private17BulkAllocatorImplINS_17new_del_allocatorINS_7QuantumIdEEEEE9allocatorE@Base 3.2.1~
 _ZGVN8casacore17Allocator_private17BulkAllocatorImplINS_17new_del_allocatorINS_8MDopplerEEEE9allocatorE@Base 3.2.1~
 _ZGVN8casacore17Allocator_private17BulkAllocatorImplINS_17new_del_allocatorINS_9MPositionEEEE9allocatorE@Base 3.2.1~
 _ZGVN8casacore17Allocator_private17BulkAllocatorImplINS_17new_del_allocatorIPNS_6SlicerEEEE9allocatorE@Base 3.2.1~
 _ZGVN8casacore17Allocator_private17BulkAllocatorImplINS_18casacore_allocatorINS_10MDirectionELm32EEEE9allocatorE@Base 3.2.1~
 _ZGVN8casacore17Allocator_private17BulkAllocatorImplINS_18casacore_allocatorINS_10MFrequencyELm32EEEE9allocatorE@Base 3.2.1~
 _ZGVN8casacore17Allocator_private17BulkAllocatorImplINS_18casacore_allocatorINS_11MVFrequencyELm32EEEE9allocatorE@Base 3.2.1~
 _ZGVN8casacore17Allocator_private17BulkAllocatorImplINS_18casacore_allocatorINS_14MEarthMagneticELm32EEEE9allocatorE@Base 3.2.1~
 _ZGVN8casacore17Allocator_private17BulkAllocatorImplINS_18casacore_allocatorINS_15MRadialVelocityELm32EEEE9allocatorE@Base 3.2.1~
 _ZGVN8casacore17Allocator_private17BulkAllocatorImplINS_18casacore_allocatorINS_6MEpochELm32EEEE9allocatorE@Base 3.2.1~
 _ZGVN8casacore17Allocator_private17BulkAllocatorImplINS_18casacore_allocatorINS_6MVTimeELm32EEEE9allocatorE@Base 3.2.1~
 _ZGVN8casacore17Allocator_private17BulkAllocatorImplINS_18casacore_allocatorINS_6StringELm32EEEE9allocatorE@Base 3.2.1~
 _ZGVN8casacore17Allocator_private17BulkAllocatorImplINS_18casacore_allocatorINS_7QuantumIdEELm32EEEE9allocatorE@Base 3.2.1~
 _ZGVN8casacore17Allocator_private17BulkAllocatorImplINS_18casacore_allocatorINS_8MDopplerELm32EEEE9allocatorE@Base 3.2.1~
 _ZGVN8casacore17Allocator_private17BulkAllocatorImplINS_18casacore_allocatorINS_9MPositionELm32EEEE9allocatorE@Base 3.2.1~
 _ZGVN8casacore17Allocator_private17BulkAllocatorImplINS_18casacore_allocatorIPNS_6SlicerELm32EEEE9allocatorE@Base 3.2.1~
 _ZGVN8casacore17Allocator_private17BulkAllocatorImplINS_18casacore_allocatorIjLm32EEEE9allocatorE@Base 3.2.1~
 _ZGVZN8casacore17Allocator_private17get_allocator_rawINS_17new_del_allocatorINS_10MDirectionEEEEEPNS0_17BulkAllocatorImplIT_EEvE3ptr@Base 3.2.1~
 _ZGVZN8casacore17Allocator_private17get_allocator_rawINS_17new_del_allocatorINS_10MFrequencyEEEEEPNS0_17BulkAllocatorImplIT_EEvE3ptr@Base 3.2.1~
 _ZGVZN8casacore17Allocator_private17get_allocator_rawINS_17new_del_allocatorINS_11MVFrequencyEEEEEPNS0_17BulkAllocatorImplIT_EEvE3ptr@Base 3.2.1~
 _ZGVZN8casacore17Allocator_private17get_allocator_rawINS_17new_del_allocatorINS_14MEarthMagneticEEEEEPNS0_17BulkAllocatorImplIT_EEvE3ptr@Base 3.2.1~
 _ZGVZN8casacore17Allocator_private17get_allocator_rawINS_17new_del_allocatorINS_15MRadialVelocityEEEEEPNS0_17BulkAllocatorImplIT_EEvE3ptr@Base 3.2.1~
 _ZGVZN8casacore17Allocator_private17get_allocator_rawINS_17new_del_allocatorINS_6MEpochEEEEEPNS0_17BulkAllocatorImplIT_EEvE3ptr@Base 3.2.1~
 _ZGVZN8casacore17Allocator_private17get_allocator_rawINS_17new_del_allocatorINS_6MVTimeEEEEEPNS0_17BulkAllocatorImplIT_EEvE3ptr@Base 3.2.1~
 _ZGVZN8casacore17Allocator_private17get_allocator_rawINS_17new_del_allocatorINS_7QuantumIdEEEEEEPNS0_17BulkAllocatorImplIT_EEvE3ptr@Base 3.2.1~
 _ZGVZN8casacore17Allocator_private17get_allocator_rawINS_17new_del_allocatorINS_8MDopplerEEEEEPNS0_17BulkAllocatorImplIT_EEvE3ptr@Base 3.2.1~
 _ZGVZN8casacore17Allocator_private17get_allocator_rawINS_17new_del_allocatorINS_9MPositionEEEEEPNS0_17BulkAllocatorImplIT_EEvE3ptr@Base 3.2.1~
 _ZGVZN8casacore17Allocator_private17get_allocator_rawINS_17new_del_allocatorIPNS_6SlicerEEEEEPNS0_17BulkAllocatorImplIT_EEvE3ptr@Base 3.2.1~
 _ZGVZN8casacore17Allocator_private17get_allocator_rawINS_18casacore_allocatorINS_10MDirectionELm32EEEEEPNS0_17BulkAllocatorImplIT_EEvE3ptr@Base 3.2.1~
 _ZGVZN8casacore17Allocator_private17get_allocator_rawINS_18casacore_allocatorINS_10MFrequencyELm32EEEEEPNS0_17BulkAllocatorImplIT_EEvE3ptr@Base 3.2.1~
 _ZGVZN8casacore17Allocator_private17get_allocator_rawINS_18casacore_allocatorINS_11MVFrequencyELm32EEEEEPNS0_17BulkAllocatorImplIT_EEvE3ptr@Base 3.2.1~
 _ZGVZN8casacore17Allocator_private17get_allocator_rawINS_18casacore_allocatorINS_14MEarthMagneticELm32EEEEEPNS0_17BulkAllocatorImplIT_EEvE3ptr@Base 3.2.1~
 _ZGVZN8casacore17Allocator_private17get_allocator_rawINS_18casacore_allocatorINS_15MRadialVelocityELm32EEEEEPNS0_17BulkAllocatorImplIT_EEvE3ptr@Base 3.2.1~
 _ZGVZN8casacore17Allocator_private17get_allocator_rawINS_18casacore_allocatorINS_6MEpochELm32EEEEEPNS0_17BulkAllocatorImplIT_EEvE3ptr@Base 3.2.1~
 _ZGVZN8casacore17Allocator_private17get_allocator_rawINS_18casacore_allocatorINS_6MVTimeELm32EEEEEPNS0_17BulkAllocatorImplIT_EEvE3ptr@Base 3.2.1~
 _ZGVZN8casacore17Allocator_private17get_allocator_rawINS_18casacore_allocatorINS_6StringELm32EEEEEPNS0_17BulkAllocatorImplIT_EEvE3ptr@Base 3.2.1~
 _ZGVZN8casacore17Allocator_private17get_allocator_rawINS_18casacore_allocatorINS_7QuantumIdEELm32EEEEEPNS0_17BulkAllocatorImplIT_EEvE3ptr@Base 3.2.1~
 _ZGVZN8casacore17Allocator_private17get_allocator_rawINS_18casacore_allocatorINS_8MDopplerELm32EEEEEPNS0_17BulkAllocatorImplIT_EEvE3ptr@Base 3.2.1~
 _ZGVZN8casacore17Allocator_private17get_allocator_rawINS_18casacore_allocatorINS_9MPositionELm32EEEEEPNS0_17BulkAllocatorImplIT_EEvE3ptr@Base 3.2.1~
 _ZGVZN8casacore17Allocator_private17get_allocator_rawINS_18casacore_allocatorIPNS_6SlicerELm32EEEEEPNS0_17BulkAllocatorImplIT_EEvE3ptr@Base 3.2.1~
 _ZGVZN8casacore17Allocator_private17get_allocator_rawINS_18casacore_allocatorIjLm32EEEEEPNS0_17BulkAllocatorImplIT_EEvE3ptr@Base 3.2.1~
 _ZN8casacore10BaseEngine10deriveAttrERKNS_4UnitEi@Base 3.2.1~
 _ZN8casacore10BaseEngine10extendBaseERKS0_b@Base 3.2.1~
 _ZN8casacore10BaseEngine12setValueTypeEi@Base 3.2.1~
 _ZN8casacore10BaseEngine13stripMeasTypeERKNS_6StringE@Base 3.2.1~
 _ZN8casacore10BaseEngine16adaptForConstantERKNS_9IPositionEj@Base 3.2.1~
 _ZN8casacore10BaseEngineD0Ev@Base 3.2.1~
 _ZN8casacore10BaseEngineD1Ev@Base 3.2.1~
 _ZN8casacore10BaseEngineD2Ev@Base 3.2.1~
 _ZN8casacore10CountedPtrINS_5BlockINS_6MVTimeEEEEaSEPS3_@Base 3.2.1~
 _ZN8casacore10DopplerUDF11makeDOPPLERERKNS_6StringE@Base 3.2.1~
 _ZN8casacore10DopplerUDF14getArrayDoubleERKNS_11TableExprIdE@Base 3.2.1~
 _ZN8casacore10DopplerUDF5setupERKNS_5TableERKNS_9TaQLStyleE@Base 3.2.1~
 _ZN8casacore10DopplerUDF9getDoubleERKNS_11TableExprIdE@Base 3.2.1~
 _ZN8casacore10DopplerUDFC1Ev@Base 3.2.1~
 _ZN8casacore10DopplerUDFC2Ev@Base 3.2.1~
 _ZN8casacore10DopplerUDFD0Ev@Base 3.2.1~
 _ZN8casacore10DopplerUDFD1Ev@Base 3.2.1~
 _ZN8casacore10DopplerUDFD2Ev@Base 3.2.1~
 _ZN8casacore10MeasEngineINS_10MDirectionEE14handleMeasTypeERKNS_10CountedPtrINS_16TableExprNodeRepEEEb@Base 3.2.1~
 _ZN8casacore10MeasEngineINS_10MDirectionEE15handleMeasArrayERKNS_10CountedPtrINS_16TableExprNodeRepEEE@Base 3.2.1~
 _ZN8casacore10MeasEngineINS_10MDirectionEED0Ev@Base 3.2.1~
 _ZN8casacore10MeasEngineINS_10MDirectionEED1Ev@Base 3.2.1~
 _ZN8casacore10MeasEngineINS_10MDirectionEED2Ev@Base 3.2.1~
 _ZN8casacore10MeasEngineINS_10MFrequencyEE14handleMeasTypeERKNS_10CountedPtrINS_16TableExprNodeRepEEEb@Base 3.2.1~
 _ZN8casacore10MeasEngineINS_10MFrequencyEE15handleMeasArrayERKNS_10CountedPtrINS_16TableExprNodeRepEEE@Base 3.2.1~
 _ZN8casacore10MeasEngineINS_10MFrequencyEED0Ev@Base 3.2.1~
 _ZN8casacore10MeasEngineINS_10MFrequencyEED1Ev@Base 3.2.1~
 _ZN8casacore10MeasEngineINS_10MFrequencyEED2Ev@Base 3.2.1~
 _ZN8casacore10MeasEngineINS_14MEarthMagneticEE14handleMeasTypeERKNS_10CountedPtrINS_16TableExprNodeRepEEEb@Base 3.2.1~
 _ZN8casacore10MeasEngineINS_14MEarthMagneticEE15handleMeasArrayERKNS_10CountedPtrINS_16TableExprNodeRepEEE@Base 3.2.1~
 _ZN8casacore10MeasEngineINS_14MEarthMagneticEED0Ev@Base 3.2.1~
 _ZN8casacore10MeasEngineINS_14MEarthMagneticEED1Ev@Base 3.2.1~
 _ZN8casacore10MeasEngineINS_14MEarthMagneticEED2Ev@Base 3.2.1~
 _ZN8casacore10MeasEngineINS_15MRadialVelocityEE14handleMeasTypeERKNS_10CountedPtrINS_16TableExprNodeRepEEEb@Base 3.2.1~
 _ZN8casacore10MeasEngineINS_15MRadialVelocityEE15handleMeasArrayERKNS_10CountedPtrINS_16TableExprNodeRepEEE@Base 3.2.1~
 _ZN8casacore10MeasEngineINS_15MRadialVelocityEED0Ev@Base 3.2.1~
 _ZN8casacore10MeasEngineINS_15MRadialVelocityEED1Ev@Base 3.2.1~
 _ZN8casacore10MeasEngineINS_15MRadialVelocityEED2Ev@Base 3.2.1~
 _ZN8casacore10MeasEngineINS_6MEpochEE14handleMeasTypeERKNS_10CountedPtrINS_16TableExprNodeRepEEEb@Base 3.2.1~
 _ZN8casacore10MeasEngineINS_6MEpochEE15handleMeasArrayERKNS_10CountedPtrINS_16TableExprNodeRepEEE@Base 3.2.1~
 _ZN8casacore10MeasEngineINS_6MEpochEED0Ev@Base 3.2.1~
 _ZN8casacore10MeasEngineINS_6MEpochEED1Ev@Base 3.2.1~
 _ZN8casacore10MeasEngineINS_6MEpochEED2Ev@Base 3.2.1~
 _ZN8casacore10MeasEngineINS_8MDopplerEE14handleMeasTypeERKNS_10CountedPtrINS_16TableExprNodeRepEEEb@Base 3.2.1~
 _ZN8casacore10MeasEngineINS_8MDopplerEE15handleMeasArrayERKNS_10CountedPtrINS_16TableExprNodeRepEEE@Base 3.2.1~
 _ZN8casacore10MeasEngineINS_8MDopplerEED0Ev@Base 3.2.1~
 _ZN8casacore10MeasEngineINS_8MDopplerEED1Ev@Base 3.2.1~
 _ZN8casacore10MeasEngineINS_8MDopplerEED2Ev@Base 3.2.1~
 _ZN8casacore10MeasEngineINS_9MPositionEE14handleMeasTypeERKNS_10CountedPtrINS_16TableExprNodeRepEEEb@Base 3.2.1~
 _ZN8casacore10MeasEngineINS_9MPositionEE15handleMeasArrayERKNS_10CountedPtrINS_16TableExprNodeRepEEE@Base 3.2.1~
 _ZN8casacore10MeasEngineINS_9MPositionEED0Ev@Base 3.2.1~
 _ZN8casacore10MeasEngineINS_9MPositionEED1Ev@Base 3.2.1~
 _ZN8casacore10MeasEngineINS_9MPositionEED2Ev@Base 3.2.1~
 _ZN8casacore11EpochEngine11handleEpochERSt6vectorINS_10CountedPtrINS_16TableExprNodeRepEEESaIS4_EERj@Base 3.2.1~
 _ZN8casacore11EpochEngine12handleValuesERNS_13TableExprNodeERKNS_11TableExprIdERNS_5ArrayINS_6MEpochEEE@Base 3.2.1~
 _ZN8casacore11EpochEngine12setConverterENS_6MEpoch5TypesEb@Base 3.2.1~
 _ZN8casacore11EpochEngine13stripMeasTypeERKNS_6StringE@Base 3.2.1~
 _ZN8casacore11EpochEngine14getArrayDoubleERKNS_11TableExprIdE@Base 3.2.1~
 _ZN8casacore11EpochEngine17setPositionEngineERNS_14PositionEngineE@Base 3.2.1~
 _ZN8casacore11EpochEngine9getEpochsERKNS_11TableExprIdE@Base 3.2.1~
 _ZN8casacore11EpochEngineC1Ev@Base 3.2.1~
 _ZN8casacore11EpochEngineC2Ev@Base 3.2.1~
 _ZN8casacore11EpochEngineD0Ev@Base 3.2.1~
 _ZN8casacore11EpochEngineD1Ev@Base 3.2.1~
 _ZN8casacore11EpochEngineD2Ev@Base 3.2.1~
 _ZN8casacore11HelpMeasUDF14showFuncsEpochERSob@Base 3.2.1~
 _ZN8casacore11HelpMeasUDF16showFuncsDopplerERSob@Base 3.2.1~
 _ZN8casacore11HelpMeasUDF17showFuncsPositionERSob@Base 3.2.1~
 _ZN8casacore11HelpMeasUDF18showFuncsDirectionERSob@Base 3.2.1~
 _ZN8casacore11HelpMeasUDF18showFuncsFrequencyERSob@Base 3.2.1~
 _ZN8casacore11HelpMeasUDF22showFuncsEarthMagneticERSob@Base 3.2.1~
 _ZN8casacore11HelpMeasUDF23showFuncsRadialVelocityERSob@Base 3.2.1~
 _ZN8casacore11HelpMeasUDF5setupERKNS_5TableERKNS_9TaQLStyleE@Base 3.2.1~
 _ZN8casacore11HelpMeasUDF8makeHELPERKNS_6StringE@Base 3.2.1~
 _ZN8casacore11HelpMeasUDF9getStringERKNS_11TableExprIdE@Base 3.2.1~
 _ZN8casacore11HelpMeasUDFD0Ev@Base 3.2.1~
 _ZN8casacore11HelpMeasUDFD1Ev@Base 3.2.1~
 _ZN8casacore11HelpMeasUDFD2Ev@Base 3.2.1~
 _ZN8casacore11MeasConvertINS_10MDirectionEE12addFrameTypeEj@Base 3.2.1~
 _ZN8casacore11MeasConvertINS_10MDirectionEE3setERKNS_4UnitE@Base 3.2.1~
 _ZN8casacore11MeasConvertINS_10MDirectionEE3setERKNS_9MeasValueE@Base 3.2.1~
 _ZN8casacore11MeasConvertINS_10MDirectionEE4initEv@Base 3.2.1~
 _ZN8casacore11MeasConvertINS_10MDirectionEE5clearEv@Base 3.2.1~
 _ZN8casacore11MeasConvertINS_10MDirectionEE6createEv@Base 3.2.1~
 _ZN8casacore11MeasConvertINS_10MDirectionEE7convertERKNS_11MVDirectionE@Base 3.2.1~
 _ZN8casacore11MeasConvertINS_10MDirectionEE7convertEv@Base 3.2.1~
 _ZN8casacore11MeasConvertINS_10MDirectionEE8setModelERKNS_7MeasureE@Base 3.2.1~
 _ZN8casacore11MeasConvertINS_10MDirectionEE9addMethodEj@Base 3.2.1~
 _ZN8casacore11MeasConvertINS_10MDirectionEEC1ENS1_5TypesERKNS_7MeasRefIS1_EE@Base 3.2.1~
 _ZN8casacore11MeasConvertINS_10MDirectionEEC1ERKS1_RKNS_7MeasRefIS1_EE@Base 3.2.1~
 _ZN8casacore11MeasConvertINS_10MDirectionEEC2ENS1_5TypesERKNS_7MeasRefIS1_EE@Base 3.2.1~
 _ZN8casacore11MeasConvertINS_10MDirectionEEC2ERKS1_RKNS_7MeasRefIS1_EE@Base 3.2.1~
 _ZN8casacore11MeasConvertINS_10MDirectionEED0Ev@Base 3.2.1~
 _ZN8casacore11MeasConvertINS_10MDirectionEED1Ev@Base 3.2.1~
 _ZN8casacore11MeasConvertINS_10MDirectionEED2Ev@Base 3.2.1~
 _ZN8casacore11MeasConvertINS_10MDirectionEEclERKNS_11MVDirectionE@Base 3.2.1~
 _ZN8casacore11MeasConvertINS_10MDirectionEEclERKS1_@Base 3.2.1~
 _ZN8casacore11MeasConvertINS_10MFrequencyEE12addFrameTypeEj@Base 3.2.1~
 _ZN8casacore11MeasConvertINS_10MFrequencyEE3setERKNS_4UnitE@Base 3.2.1~
 _ZN8casacore11MeasConvertINS_10MFrequencyEE3setERKNS_9MeasValueE@Base 3.2.1~
 _ZN8casacore11MeasConvertINS_10MFrequencyEE4initEv@Base 3.2.1~
 _ZN8casacore11MeasConvertINS_10MFrequencyEE5clearEv@Base 3.2.1~
 _ZN8casacore11MeasConvertINS_10MFrequencyEE6createEv@Base 3.2.1~
 _ZN8casacore11MeasConvertINS_10MFrequencyEE7convertERKNS_11MVFrequencyE@Base 3.2.1~
 _ZN8casacore11MeasConvertINS_10MFrequencyEE7convertEv@Base 3.2.1~
 _ZN8casacore11MeasConvertINS_10MFrequencyEE8setModelERKNS_7MeasureE@Base 3.2.1~
 _ZN8casacore11MeasConvertINS_10MFrequencyEE9addMethodEj@Base 3.2.1~
 _ZN8casacore11MeasConvertINS_10MFrequencyEEC1ERKS1_RKNS_7MeasRefIS1_EE@Base 3.2.1~
 _ZN8casacore11MeasConvertINS_10MFrequencyEEC2ERKS1_RKNS_7MeasRefIS1_EE@Base 3.2.1~
 _ZN8casacore11MeasConvertINS_10MFrequencyEED0Ev@Base 3.2.1~
 _ZN8casacore11MeasConvertINS_10MFrequencyEED1Ev@Base 3.2.1~
 _ZN8casacore11MeasConvertINS_10MFrequencyEED2Ev@Base 3.2.1~
 _ZN8casacore11MeasConvertINS_14MEarthMagneticEE12addFrameTypeEj@Base 3.2.1~
 _ZN8casacore11MeasConvertINS_14MEarthMagneticEE3setERKNS_4UnitE@Base 3.2.1~
 _ZN8casacore11MeasConvertINS_14MEarthMagneticEE3setERKNS_9MeasValueE@Base 3.2.1~
 _ZN8casacore11MeasConvertINS_14MEarthMagneticEE4initEv@Base 3.2.1~
 _ZN8casacore11MeasConvertINS_14MEarthMagneticEE5clearEv@Base 3.2.1~
 _ZN8casacore11MeasConvertINS_14MEarthMagneticEE6createEv@Base 3.2.1~
 _ZN8casacore11MeasConvertINS_14MEarthMagneticEE7convertERKNS_15MVEarthMagneticE@Base 3.2.1~
 _ZN8casacore11MeasConvertINS_14MEarthMagneticEE7convertEv@Base 3.2.1~
 _ZN8casacore11MeasConvertINS_14MEarthMagneticEE8setModelERKNS_7MeasureE@Base 3.2.1~
 _ZN8casacore11MeasConvertINS_14MEarthMagneticEE9addMethodEj@Base 3.2.1~
 _ZN8casacore11MeasConvertINS_14MEarthMagneticEEC1ERKS1_RKNS_7MeasRefIS1_EE@Base 3.2.1~
 _ZN8casacore11MeasConvertINS_14MEarthMagneticEEC2ERKS1_RKNS_7MeasRefIS1_EE@Base 3.2.1~
 _ZN8casacore11MeasConvertINS_14MEarthMagneticEED0Ev@Base 3.2.1~
 _ZN8casacore11MeasConvertINS_14MEarthMagneticEED1Ev@Base 3.2.1~
 _ZN8casacore11MeasConvertINS_14MEarthMagneticEED2Ev@Base 3.2.1~
 _ZN8casacore11MeasConvertINS_14MEarthMagneticEEclERKNS_15MVEarthMagneticE@Base 3.2.1~
 _ZN8casacore11MeasConvertINS_14MEarthMagneticEEclEv@Base 3.2.1~
 _ZN8casacore11MeasConvertINS_15MRadialVelocityEE12addFrameTypeEj@Base 3.2.1~
 _ZN8casacore11MeasConvertINS_15MRadialVelocityEE3setERKNS_4UnitE@Base 3.2.1~
 _ZN8casacore11MeasConvertINS_15MRadialVelocityEE3setERKNS_9MeasValueE@Base 3.2.1~
 _ZN8casacore11MeasConvertINS_15MRadialVelocityEE4initEv@Base 3.2.1~
 _ZN8casacore11MeasConvertINS_15MRadialVelocityEE5clearEv@Base 3.2.1~
 _ZN8casacore11MeasConvertINS_15MRadialVelocityEE6createEv@Base 3.2.1~
 _ZN8casacore11MeasConvertINS_15MRadialVelocityEE7convertERKNS_16MVRadialVelocityE@Base 3.2.1~
 _ZN8casacore11MeasConvertINS_15MRadialVelocityEE7convertEv@Base 3.2.1~
 _ZN8casacore11MeasConvertINS_15MRadialVelocityEE8setModelERKNS_7MeasureE@Base 3.2.1~
 _ZN8casacore11MeasConvertINS_15MRadialVelocityEE9addMethodEj@Base 3.2.1~
 _ZN8casacore11MeasConvertINS_15MRadialVelocityEEC1ERKS1_RKNS_7MeasRefIS1_EE@Base 3.2.1~
 _ZN8casacore11MeasConvertINS_15MRadialVelocityEEC2ERKS1_RKNS_7MeasRefIS1_EE@Base 3.2.1~
 _ZN8casacore11MeasConvertINS_15MRadialVelocityEED0Ev@Base 3.2.1~
 _ZN8casacore11MeasConvertINS_15MRadialVelocityEED1Ev@Base 3.2.1~
 _ZN8casacore11MeasConvertINS_15MRadialVelocityEED2Ev@Base 3.2.1~
 _ZN8casacore11MeasConvertINS_6MEpochEE12addFrameTypeEj@Base 3.2.1~
 _ZN8casacore11MeasConvertINS_6MEpochEE3setERKNS_4UnitE@Base 3.2.1~
 _ZN8casacore11MeasConvertINS_6MEpochEE3setERKNS_9MeasValueE@Base 3.2.1~
 _ZN8casacore11MeasConvertINS_6MEpochEE4initEv@Base 3.2.1~
 _ZN8casacore11MeasConvertINS_6MEpochEE5clearEv@Base 3.2.1~
 _ZN8casacore11MeasConvertINS_6MEpochEE6createEv@Base 3.2.1~
 _ZN8casacore11MeasConvertINS_6MEpochEE7convertERKNS_7MVEpochE@Base 3.2.1~
 _ZN8casacore11MeasConvertINS_6MEpochEE7convertEv@Base 3.2.1~
 _ZN8casacore11MeasConvertINS_6MEpochEE8setModelERKNS_7MeasureE@Base 3.2.1~
 _ZN8casacore11MeasConvertINS_6MEpochEE9addMethodEj@Base 3.2.1~
 _ZN8casacore11MeasConvertINS_6MEpochEEC1ERKS1_NS1_5TypesE@Base 3.2.1~
 _ZN8casacore11MeasConvertINS_6MEpochEEC1ERKS1_RKNS_7MeasRefIS1_EE@Base 3.2.1~
 _ZN8casacore11MeasConvertINS_6MEpochEEC2ERKS1_NS1_5TypesE@Base 3.2.1~
 _ZN8casacore11MeasConvertINS_6MEpochEEC2ERKS1_RKNS_7MeasRefIS1_EE@Base 3.2.1~
 _ZN8casacore11MeasConvertINS_6MEpochEED0Ev@Base 3.2.1~
 _ZN8casacore11MeasConvertINS_6MEpochEED1Ev@Base 3.2.1~
 _ZN8casacore11MeasConvertINS_6MEpochEED2Ev@Base 3.2.1~
 _ZN8casacore11MeasConvertINS_6MEpochEEclEv@Base 3.2.1~
 _ZN8casacore11MeasConvertINS_8MDopplerEE12addFrameTypeEj@Base 3.2.1~
 _ZN8casacore11MeasConvertINS_8MDopplerEE3setERKNS_4UnitE@Base 3.2.1~
 _ZN8casacore11MeasConvertINS_8MDopplerEE3setERKNS_9MeasValueE@Base 3.2.1~
 _ZN8casacore11MeasConvertINS_8MDopplerEE4initEv@Base 3.2.1~
 _ZN8casacore11MeasConvertINS_8MDopplerEE5clearEv@Base 3.2.1~
 _ZN8casacore11MeasConvertINS_8MDopplerEE6createEv@Base 3.2.1~
 _ZN8casacore11MeasConvertINS_8MDopplerEE7convertERKNS_9MVDopplerE@Base 3.2.1~
 _ZN8casacore11MeasConvertINS_8MDopplerEE7convertEv@Base 3.2.1~
 _ZN8casacore11MeasConvertINS_8MDopplerEE8setModelERKNS_7MeasureE@Base 3.2.1~
 _ZN8casacore11MeasConvertINS_8MDopplerEE9addMethodEj@Base 3.2.1~
 _ZN8casacore11MeasConvertINS_8MDopplerEEC1ERKS1_RKNS_7MeasRefIS1_EE@Base 3.2.1~
 _ZN8casacore11MeasConvertINS_8MDopplerEEC2ERKS1_RKNS_7MeasRefIS1_EE@Base 3.2.1~
 _ZN8casacore11MeasConvertINS_8MDopplerEED0Ev@Base 3.2.1~
 _ZN8casacore11MeasConvertINS_8MDopplerEED1Ev@Base 3.2.1~
 _ZN8casacore11MeasConvertINS_8MDopplerEED2Ev@Base 3.2.1~
 _ZN8casacore11MeasConvertINS_9MPositionEE12addFrameTypeEj@Base 3.2.1~
 _ZN8casacore11MeasConvertINS_9MPositionEE3setERKNS_4UnitE@Base 3.2.1~
 _ZN8casacore11MeasConvertINS_9MPositionEE3setERKNS_9MeasValueE@Base 3.2.1~
 _ZN8casacore11MeasConvertINS_9MPositionEE4initEv@Base 3.2.1~
 _ZN8casacore11MeasConvertINS_9MPositionEE5clearEv@Base 3.2.1~
 _ZN8casacore11MeasConvertINS_9MPositionEE6createEv@Base 3.2.1~
 _ZN8casacore11MeasConvertINS_9MPositionEE7convertERKNS_10MVPositionE@Base 3.2.1~
 _ZN8casacore11MeasConvertINS_9MPositionEE7convertEv@Base 3.2.1~
 _ZN8casacore11MeasConvertINS_9MPositionEE8setModelERKNS_7MeasureE@Base 3.2.1~
 _ZN8casacore11MeasConvertINS_9MPositionEE9addMethodEj@Base 3.2.1~
 _ZN8casacore11MeasConvertINS_9MPositionEEC1ERKS1_RKNS_7MeasRefIS1_EE@Base 3.2.1~
 _ZN8casacore11MeasConvertINS_9MPositionEEC2ERKS1_RKNS_7MeasRefIS1_EE@Base 3.2.1~
 _ZN8casacore11MeasConvertINS_9MPositionEED0Ev@Base 3.2.1~
 _ZN8casacore11MeasConvertINS_9MPositionEED1Ev@Base 3.2.1~
 _ZN8casacore11MeasConvertINS_9MPositionEED2Ev@Base 3.2.1~
 _ZN8casacore11PositionUDF10makeITRFLLERKNS_6StringE@Base 3.2.1~
 _ZN8casacore11PositionUDF10makeWGSLLHERKNS_6StringE@Base 3.2.1~
 _ZN8casacore11PositionUDF10makeWGSXYZERKNS_6StringE@Base 3.2.1~
 _ZN8casacore11PositionUDF11makeITRFLLHERKNS_6StringE@Base 3.2.1~
 _ZN8casacore11PositionUDF11makeITRFXYZERKNS_6StringE@Base 3.2.1~
 _ZN8casacore11PositionUDF14getArrayDoubleERKNS_11TableExprIdE@Base 3.2.1~
 _ZN8casacore11PositionUDF5setupERKNS_5TableERKNS_9TaQLStyleE@Base 3.2.1~
 _ZN8casacore11PositionUDF7makePOSERKNS_6StringE@Base 3.2.1~
 _ZN8casacore11PositionUDF8makeWGSHERKNS_6StringE@Base 3.2.1~
 _ZN8casacore11PositionUDF9getDoubleERKNS_11TableExprIdE@Base 3.2.1~
 _ZN8casacore11PositionUDF9makeITRFHERKNS_6StringE@Base 3.2.1~
 _ZN8casacore11PositionUDF9makeWGSLLERKNS_6StringE@Base 3.2.1~
 _ZN8casacore11PositionUDFC1ENS0_8FuncTypeE@Base 3.2.1~
 _ZN8casacore11PositionUDFC2ENS0_8FuncTypeE@Base 3.2.1~
 _ZN8casacore11PositionUDFD0Ev@Base 3.2.1~
 _ZN8casacore11PositionUDFD1Ev@Base 3.2.1~
 _ZN8casacore11PositionUDFD2Ev@Base 3.2.1~
 _ZN8casacore11objcopyctorINS_10MDirectionEEEvPT_PKS2_m@Base 3.2.1~
 _ZN8casacore11objcopyctorINS_10MDirectionEEEvPT_PKS2_mmm@Base 3.2.1~
 _ZN8casacore11objcopyctorINS_10MFrequencyEEEvPT_PKS2_m@Base 3.2.1~
 _ZN8casacore11objcopyctorINS_10MFrequencyEEEvPT_PKS2_mmm@Base 3.2.1~
 _ZN8casacore11objcopyctorINS_11MVFrequencyEEEvPT_PKS2_m@Base 3.2.1~
 _ZN8casacore11objcopyctorINS_11MVFrequencyEEEvPT_PKS2_mmm@Base 3.2.1~
 _ZN8casacore11objcopyctorINS_14MEarthMagneticEEEvPT_PKS2_m@Base 3.2.1~
 _ZN8casacore11objcopyctorINS_14MEarthMagneticEEEvPT_PKS2_mmm@Base 3.2.1~
 _ZN8casacore11objcopyctorINS_15MRadialVelocityEEEvPT_PKS2_m@Base 3.2.1~
 _ZN8casacore11objcopyctorINS_15MRadialVelocityEEEvPT_PKS2_mmm@Base 3.2.1~
 _ZN8casacore11objcopyctorINS_6MEpochEEEvPT_PKS2_m@Base 3.2.1~
 _ZN8casacore11objcopyctorINS_6MEpochEEEvPT_PKS2_mmm@Base 3.2.1~
 _ZN8casacore11objcopyctorINS_6MVTimeEEEvPT_PKS2_m@Base 3.2.1~
 _ZN8casacore11objcopyctorINS_6MVTimeEEEvPT_PKS2_mmm@Base 3.2.1~
 _ZN8casacore11objcopyctorINS_7QuantumIdEEEEvPT_PKS3_m@Base 3.2.1~
 _ZN8casacore11objcopyctorINS_7QuantumIdEEEEvPT_PKS3_mmm@Base 3.2.1~
 _ZN8casacore11objcopyctorINS_8MDopplerEEEvPT_PKS2_m@Base 3.2.1~
 _ZN8casacore11objcopyctorINS_8MDopplerEEEvPT_PKS2_mmm@Base 3.2.1~
 _ZN8casacore11objcopyctorINS_9MPositionEEEvPT_PKS2_m@Base 3.2.1~
 _ZN8casacore11objcopyctorINS_9MPositionEEEvPT_PKS2_mmm@Base 3.2.1~
 _ZN8casacore12DirectionUDF10makeDIRCOSERKNS_6StringE@Base 3.2.1~
 _ZN8casacore12DirectionUDF11makeRISESETERKNS_6StringE@Base 3.2.1~
 _ZN8casacore12DirectionUDF12getArrayDateERKNS_11TableExprIdE@Base 3.2.1~
 _ZN8casacore12DirectionUDF14getArrayDoubleERKNS_11TableExprIdE@Base 3.2.1~
 _ZN8casacore12DirectionUDF5setupERKNS_5TableERKNS_9TaQLStyleE@Base 3.2.1~
 _ZN8casacore12DirectionUDF7makeAPPERKNS_6StringE@Base 3.2.1~
 _ZN8casacore12DirectionUDF7makeDIRERKNS_6StringE@Base 3.2.1~
 _ZN8casacore12DirectionUDF7makeECLERKNS_6StringE@Base 3.2.1~
 _ZN8casacore12DirectionUDF7makeGALERKNS_6StringE@Base 3.2.1~
 _ZN8casacore12DirectionUDF8makeAZELERKNS_6StringE@Base 3.2.1~
 _ZN8casacore12DirectionUDF8makeITRFERKNS_6StringE@Base 3.2.1~
 _ZN8casacore12DirectionUDF8makeSGALERKNS_6StringE@Base 3.2.1~
 _ZN8casacore12DirectionUDF9getDoubleERKNS_11TableExprIdE@Base 3.2.1~
 _ZN8casacore12DirectionUDF9makeB1950ERKNS_6StringE@Base 3.2.1~
 _ZN8casacore12DirectionUDF9makeHADECERKNS_6StringE@Base 3.2.1~
 _ZN8casacore12DirectionUDF9makeJ2000ERKNS_6StringE@Base 3.2.1~
 _ZN8casacore12DirectionUDFC1ENS0_8FuncTypeEb@Base 3.2.1~
 _ZN8casacore12DirectionUDFC2ENS0_8FuncTypeEb@Base 3.2.1~
 _ZN8casacore12DirectionUDFD0Ev@Base 3.2.1~
 _ZN8casacore12DirectionUDFD1Ev@Base 3.2.1~
 _ZN8casacore12DirectionUDFD2Ev@Base 3.2.1~
 _ZN8casacore12FrequencyUDF14getArrayDoubleERKNS_11TableExprIdE@Base 3.2.1~
 _ZN8casacore12FrequencyUDF19handleRadVelDopplerERjb@Base 3.2.1~
 _ZN8casacore12FrequencyUDF5setupERKNS_5TableERKNS_9TaQLStyleE@Base 3.2.1~
 _ZN8casacore12FrequencyUDF8makeFREQERKNS_6StringE@Base 3.2.1~
 _ZN8casacore12FrequencyUDF8makeRESTERKNS_6StringE@Base 3.2.1~
 _ZN8casacore12FrequencyUDF9getDoubleERKNS_11TableExprIdE@Base 3.2.1~
 _ZN8casacore12FrequencyUDF9makeSHIFTERKNS_6StringE@Base 3.2.1~
 _ZN8casacore12FrequencyUDFC1ENS0_8FuncTypeE@Base 3.2.1~
 _ZN8casacore12FrequencyUDFC2ENS0_8FuncTypeE@Base 3.2.1~
 _ZN8casacore12FrequencyUDFD0Ev@Base 3.2.1~
 _ZN8casacore12FrequencyUDFD1Ev@Base 3.2.1~
 _ZN8casacore12FrequencyUDFD2Ev@Base 3.2.1~
 _ZN8casacore13ArrayIteratorINS_10MDirectionEE12apSetPointerEi@Base 3.2.1~
 _ZN8casacore13ArrayIteratorINS_10MDirectionEE3setERKNS_9IPositionE@Base 3.2.1~
 _ZN8casacore13ArrayIteratorINS_10MDirectionEE4initERKNS_5ArrayIS1_EE@Base 3.2.1~
 _ZN8casacore13ArrayIteratorINS_10MDirectionEE4nextEv@Base 3.2.1~
 _ZN8casacore13ArrayIteratorINS_10MDirectionEE5resetEv@Base 3.2.1~
 _ZN8casacore13ArrayIteratorINS_10MDirectionEE8getArrayEv@Base 3.2.1~
 _ZN8casacore13ArrayIteratorINS_10MDirectionEED0Ev@Base 3.2.1~
 _ZN8casacore13ArrayIteratorINS_10MDirectionEED1Ev@Base 3.2.1~
 _ZN8casacore13ArrayIteratorINS_10MDirectionEED2Ev@Base 3.2.1~
 _ZN8casacore13ArrayIteratorINS_10MFrequencyEE12apSetPointerEi@Base 3.2.1~
 _ZN8casacore13ArrayIteratorINS_10MFrequencyEE3setERKNS_9IPositionE@Base 3.2.1~
 _ZN8casacore13ArrayIteratorINS_10MFrequencyEE4initERKNS_5ArrayIS1_EE@Base 3.2.1~
 _ZN8casacore13ArrayIteratorINS_10MFrequencyEE4nextEv@Base 3.2.1~
 _ZN8casacore13ArrayIteratorINS_10MFrequencyEE5resetEv@Base 3.2.1~
 _ZN8casacore13ArrayIteratorINS_10MFrequencyEE8getArrayEv@Base 3.2.1~
 _ZN8casacore13ArrayIteratorINS_10MFrequencyEED0Ev@Base 3.2.1~
 _ZN8casacore13ArrayIteratorINS_10MFrequencyEED1Ev@Base 3.2.1~
 _ZN8casacore13ArrayIteratorINS_10MFrequencyEED2Ev@Base 3.2.1~
 _ZN8casacore13ArrayIteratorINS_11MVFrequencyEE12apSetPointerEi@Base 3.2.1~
 _ZN8casacore13ArrayIteratorINS_11MVFrequencyEE3setERKNS_9IPositionE@Base 3.2.1~
 _ZN8casacore13ArrayIteratorINS_11MVFrequencyEE4initERKNS_5ArrayIS1_EE@Base 3.2.1~
 _ZN8casacore13ArrayIteratorINS_11MVFrequencyEE4nextEv@Base 3.2.1~
 _ZN8casacore13ArrayIteratorINS_11MVFrequencyEE5resetEv@Base 3.2.1~
 _ZN8casacore13ArrayIteratorINS_11MVFrequencyEE8getArrayEv@Base 3.2.1~
 _ZN8casacore13ArrayIteratorINS_11MVFrequencyEED0Ev@Base 3.2.1~
 _ZN8casacore13ArrayIteratorINS_11MVFrequencyEED1Ev@Base 3.2.1~
 _ZN8casacore13ArrayIteratorINS_11MVFrequencyEED2Ev@Base 3.2.1~
 _ZN8casacore13ArrayIteratorINS_14MEarthMagneticEE12apSetPointerEi@Base 3.2.1~
 _ZN8casacore13ArrayIteratorINS_14MEarthMagneticEE3setERKNS_9IPositionE@Base 3.2.1~
 _ZN8casacore13ArrayIteratorINS_14MEarthMagneticEE4initERKNS_5ArrayIS1_EE@Base 3.2.1~
 _ZN8casacore13ArrayIteratorINS_14MEarthMagneticEE4nextEv@Base 3.2.1~
 _ZN8casacore13ArrayIteratorINS_14MEarthMagneticEE5resetEv@Base 3.2.1~
 _ZN8casacore13ArrayIteratorINS_14MEarthMagneticEE8getArrayEv@Base 3.2.1~
 _ZN8casacore13ArrayIteratorINS_14MEarthMagneticEED0Ev@Base 3.2.1~
 _ZN8casacore13ArrayIteratorINS_14MEarthMagneticEED1Ev@Base 3.2.1~
 _ZN8casacore13ArrayIteratorINS_14MEarthMagneticEED2Ev@Base 3.2.1~
 _ZN8casacore13ArrayIteratorINS_15MRadialVelocityEE12apSetPointerEi@Base 3.2.1~
 _ZN8casacore13ArrayIteratorINS_15MRadialVelocityEE3setERKNS_9IPositionE@Base 3.2.1~
 _ZN8casacore13ArrayIteratorINS_15MRadialVelocityEE4initERKNS_5ArrayIS1_EE@Base 3.2.1~
 _ZN8casacore13ArrayIteratorINS_15MRadialVelocityEE4nextEv@Base 3.2.1~
 _ZN8casacore13ArrayIteratorINS_15MRadialVelocityEE5resetEv@Base 3.2.1~
 _ZN8casacore13ArrayIteratorINS_15MRadialVelocityEE8getArrayEv@Base 3.2.1~
 _ZN8casacore13ArrayIteratorINS_15MRadialVelocityEED0Ev@Base 3.2.1~
 _ZN8casacore13ArrayIteratorINS_15MRadialVelocityEED1Ev@Base 3.2.1~
 _ZN8casacore13ArrayIteratorINS_15MRadialVelocityEED2Ev@Base 3.2.1~
 _ZN8casacore13ArrayIteratorINS_6MEpochEE12apSetPointerEi@Base 3.2.1~
 _ZN8casacore13ArrayIteratorINS_6MEpochEE3setERKNS_9IPositionE@Base 3.2.1~
 _ZN8casacore13ArrayIteratorINS_6MEpochEE4initERKNS_5ArrayIS1_EE@Base 3.2.1~
 _ZN8casacore13ArrayIteratorINS_6MEpochEE4nextEv@Base 3.2.1~
 _ZN8casacore13ArrayIteratorINS_6MEpochEE5resetEv@Base 3.2.1~
 _ZN8casacore13ArrayIteratorINS_6MEpochEE8getArrayEv@Base 3.2.1~
 _ZN8casacore13ArrayIteratorINS_6MEpochEED0Ev@Base 3.2.1~
 _ZN8casacore13ArrayIteratorINS_6MEpochEED1Ev@Base 3.2.1~
 _ZN8casacore13ArrayIteratorINS_6MEpochEED2Ev@Base 3.2.1~
 _ZN8casacore13ArrayIteratorINS_6MVTimeEE12apSetPointerEi@Base 3.2.1~
 _ZN8casacore13ArrayIteratorINS_6MVTimeEE3setERKNS_9IPositionE@Base 3.2.1~
 _ZN8casacore13ArrayIteratorINS_6MVTimeEE4initERKNS_5ArrayIS1_EE@Base 3.2.1~
 _ZN8casacore13ArrayIteratorINS_6MVTimeEE4nextEv@Base 3.2.1~
 _ZN8casacore13ArrayIteratorINS_6MVTimeEE5resetEv@Base 3.2.1~
 _ZN8casacore13ArrayIteratorINS_6MVTimeEE8getArrayEv@Base 3.2.1~
 _ZN8casacore13ArrayIteratorINS_6MVTimeEED0Ev@Base 3.2.1~
 _ZN8casacore13ArrayIteratorINS_6MVTimeEED1Ev@Base 3.2.1~
 _ZN8casacore13ArrayIteratorINS_6MVTimeEED2Ev@Base 3.2.1~
 _ZN8casacore13ArrayIteratorINS_7QuantumIdEEE12apSetPointerEi@Base 3.2.1~
 _ZN8casacore13ArrayIteratorINS_7QuantumIdEEE3setERKNS_9IPositionE@Base 3.2.1~
 _ZN8casacore13ArrayIteratorINS_7QuantumIdEEE4initERKNS_5ArrayIS2_EE@Base 3.2.1~
 _ZN8casacore13ArrayIteratorINS_7QuantumIdEEE4nextEv@Base 3.2.1~
 _ZN8casacore13ArrayIteratorINS_7QuantumIdEEE5resetEv@Base 3.2.1~
 _ZN8casacore13ArrayIteratorINS_7QuantumIdEEE8getArrayEv@Base 3.2.1~
 _ZN8casacore13ArrayIteratorINS_7QuantumIdEEED0Ev@Base 3.2.1~
 _ZN8casacore13ArrayIteratorINS_7QuantumIdEEED1Ev@Base 3.2.1~
 _ZN8casacore13ArrayIteratorINS_7QuantumIdEEED2Ev@Base 3.2.1~
 _ZN8casacore13ArrayIteratorINS_8MDopplerEE12apSetPointerEi@Base 3.2.1~
 _ZN8casacore13ArrayIteratorINS_8MDopplerEE3setERKNS_9IPositionE@Base 3.2.1~
 _ZN8casacore13ArrayIteratorINS_8MDopplerEE4initERKNS_5ArrayIS1_EE@Base 3.2.1~
 _ZN8casacore13ArrayIteratorINS_8MDopplerEE4nextEv@Base 3.2.1~
 _ZN8casacore13ArrayIteratorINS_8MDopplerEE5resetEv@Base 3.2.1~
 _ZN8casacore13ArrayIteratorINS_8MDopplerEE8getArrayEv@Base 3.2.1~
 _ZN8casacore13ArrayIteratorINS_8MDopplerEED0Ev@Base 3.2.1~
 _ZN8casacore13ArrayIteratorINS_8MDopplerEED1Ev@Base 3.2.1~
 _ZN8casacore13ArrayIteratorINS_8MDopplerEED2Ev@Base 3.2.1~
 _ZN8casacore13ArrayIteratorINS_9MPositionEE12apSetPointerEi@Base 3.2.1~
 _ZN8casacore13ArrayIteratorINS_9MPositionEE3setERKNS_9IPositionE@Base 3.2.1~
 _ZN8casacore13ArrayIteratorINS_9MPositionEE4initERKNS_5ArrayIS1_EE@Base 3.2.1~
 _ZN8casacore13ArrayIteratorINS_9MPositionEE4nextEv@Base 3.2.1~
 _ZN8casacore13ArrayIteratorINS_9MPositionEE5resetEv@Base 3.2.1~
 _ZN8casacore13ArrayIteratorINS_9MPositionEE8getArrayEv@Base 3.2.1~
 _ZN8casacore13ArrayIteratorINS_9MPositionEED0Ev@Base 3.2.1~
 _ZN8casacore13ArrayIteratorINS_9MPositionEED1Ev@Base 3.2.1~
 _ZN8casacore13ArrayIteratorINS_9MPositionEED2Ev@Base 3.2.1~
 _ZN8casacore13ArrayIteratorIdE12apSetPointerEi@Base 3.2.1~
 _ZN8casacore13ArrayIteratorIdE3setERKNS_9IPositionE@Base 3.2.1~
 _ZN8casacore13ArrayIteratorIdE4initERKNS_5ArrayIdEE@Base 3.2.1~
 _ZN8casacore13ArrayIteratorIdE4nextEv@Base 3.2.1~
 _ZN8casacore13ArrayIteratorIdE5resetEv@Base 3.2.1~
 _ZN8casacore13ArrayIteratorIdE8getArrayEv@Base 3.2.1~
 _ZN8casacore13ArrayIteratorIdED0Ev@Base 3.2.1~
 _ZN8casacore13ArrayIteratorIdED1Ev@Base 3.2.1~
 _ZN8casacore13ArrayIteratorIdED2Ev@Base 3.2.1~
 _ZN8casacore13DopplerEngine10handleLineERKNS_10CountedPtrINS_16TableExprNodeRepEEE@Base 3.2.1~
 _ZN8casacore13DopplerEngine11getDopplersERKNS_11TableExprIdE@Base 3.2.1~
 _ZN8casacore13DopplerEngine12getRestFreqsERKNS_11TableExprIdE@Base 3.2.1~
 _ZN8casacore13DopplerEngine12handleValuesERNS_13TableExprNodeERKNS_11TableExprIdERNS_5ArrayINS_8MDopplerEEE@Base 3.2.1~
 _ZN8casacore13DopplerEngine12setConverterENS_8MDoppler5TypesE@Base 3.2.1~
 _ZN8casacore13DopplerEngine13handleDopplerERSt6vectorINS_10CountedPtrINS_16TableExprNodeRepEEESaIS4_EERjbb@Base 3.2.1~
 _ZN8casacore13DopplerEngine14getArrayDoubleERKNS_11TableExprIdE@Base 3.2.1~
 _ZN8casacore13DopplerEngine14handleRestFreqERSt6vectorINS_10CountedPtrINS_16TableExprNodeRepEEESaIS4_EERj@Base 3.2.1~
 _ZN8casacore13DopplerEngineD0Ev@Base 3.2.1~
 _ZN8casacore13DopplerEngineD1Ev@Base 3.2.1~
 _ZN8casacore13DopplerEngineD2Ev@Base 3.2.1~
 _ZN8casacore14PositionEngine10deriveAttrERKNS_4UnitEi@Base 3.2.1~
 _ZN8casacore14PositionEngine12getPositionsERKNS_11TableExprIdE@Base 3.2.1~
 _ZN8casacore14PositionEngine12handleValuesERNS_13TableExprNodeERKNS_11TableExprIdERNS_5ArrayINS_9MPositionEEE@Base 3.2.1~
 _ZN8casacore14PositionEngine12setValueTypeEi@Base 3.2.1~
 _ZN8casacore14PositionEngine13handleScalarsERKNS_10CountedPtrINS_16TableExprNodeRepEEES5_S5_i@Base 3.2.1~
 _ZN8casacore14PositionEngine13stripMeasTypeERKNS_6StringE@Base 3.2.1~
 _ZN8casacore14PositionEngine14getArrayDoubleERKNS_11TableExprIdENS_9MPosition5TypesEi@Base 3.2.1~
 _ZN8casacore14PositionEngine14handlePosArrayERKNS_10CountedPtrINS_16TableExprNodeRepEEES5_@Base 3.2.1~
 _ZN8casacore14PositionEngine14handlePositionEiRKSt6vectorINS_10CountedPtrINS_16TableExprNodeRepEEESaIS4_EERj@Base 3.2.1~
 _ZN8casacore14PositionEngine17handleObservatoryERKNS_10CountedPtrINS_16TableExprNodeRepEEE@Base 3.2.1~
 _ZN8casacore14PositionEngineC1Ev@Base 3.2.1~
 _ZN8casacore14PositionEngineC2Ev@Base 3.2.1~
 _ZN8casacore14PositionEngineD0Ev@Base 3.2.1~
 _ZN8casacore14PositionEngineD1Ev@Base 3.2.1~
 _ZN8casacore14PositionEngineD2Ev@Base 3.2.1~
 _ZN8casacore14VectorIteratorIdEC1ERNS_5ArrayIdEEj@Base 3.2.1~
 _ZN8casacore14VectorIteratorIdEC2ERNS_5ArrayIdEEj@Base 3.2.1~
 _ZN8casacore14VectorIteratorIdED0Ev@Base 3.2.1~
 _ZN8casacore14VectorIteratorIdED1Ev@Base 3.2.1~
 _ZN8casacore14VectorIteratorIdED2Ev@Base 3.2.1~
 _ZN8casacore15ArrayMeasColumnINS_10MDirectionEE7cleanUpEv@Base 3.2.1~
 _ZN8casacore15ArrayMeasColumnINS_10MDirectionEE9referenceERKS2_@Base 3.2.1~
 _ZN8casacore15ArrayMeasColumnINS_10MDirectionEEC1ERKNS_5TableERKNS_6StringE@Base 3.2.1~
 _ZN8casacore15ArrayMeasColumnINS_10MDirectionEEC2ERKNS_5TableERKNS_6StringE@Base 3.2.1~
 _ZN8casacore15ArrayMeasColumnINS_10MDirectionEED0Ev@Base 3.2.1~
 _ZN8casacore15ArrayMeasColumnINS_10MDirectionEED1Ev@Base 3.2.1~
 _ZN8casacore15ArrayMeasColumnINS_10MDirectionEED2Ev@Base 3.2.1~
 _ZN8casacore15ArrayMeasColumnINS_10MFrequencyEE7cleanUpEv@Base 3.2.1~
 _ZN8casacore15ArrayMeasColumnINS_10MFrequencyEE9referenceERKS2_@Base 3.2.1~
 _ZN8casacore15ArrayMeasColumnINS_10MFrequencyEEC1ERKNS_5TableERKNS_6StringE@Base 3.2.1~
 _ZN8casacore15ArrayMeasColumnINS_10MFrequencyEEC2ERKNS_5TableERKNS_6StringE@Base 3.2.1~
 _ZN8casacore15ArrayMeasColumnINS_10MFrequencyEED0Ev@Base 3.2.1~
 _ZN8casacore15ArrayMeasColumnINS_10MFrequencyEED1Ev@Base 3.2.1~
 _ZN8casacore15ArrayMeasColumnINS_10MFrequencyEED2Ev@Base 3.2.1~
 _ZN8casacore15ArrayMeasColumnINS_14MEarthMagneticEE7cleanUpEv@Base 3.2.1~
 _ZN8casacore15ArrayMeasColumnINS_14MEarthMagneticEE9referenceERKS2_@Base 3.2.1~
 _ZN8casacore15ArrayMeasColumnINS_14MEarthMagneticEEC1ERKNS_5TableERKNS_6StringE@Base 3.2.1~
 _ZN8casacore15ArrayMeasColumnINS_14MEarthMagneticEEC2ERKNS_5TableERKNS_6StringE@Base 3.2.1~
 _ZN8casacore15ArrayMeasColumnINS_14MEarthMagneticEED0Ev@Base 3.2.1~
 _ZN8casacore15ArrayMeasColumnINS_14MEarthMagneticEED1Ev@Base 3.2.1~
 _ZN8casacore15ArrayMeasColumnINS_14MEarthMagneticEED2Ev@Base 3.2.1~
 _ZN8casacore15ArrayMeasColumnINS_15MRadialVelocityEE7cleanUpEv@Base 3.2.1~
 _ZN8casacore15ArrayMeasColumnINS_15MRadialVelocityEE9referenceERKS2_@Base 3.2.1~
 _ZN8casacore15ArrayMeasColumnINS_15MRadialVelocityEEC1ERKNS_5TableERKNS_6StringE@Base 3.2.1~
 _ZN8casacore15ArrayMeasColumnINS_15MRadialVelocityEEC2ERKNS_5TableERKNS_6StringE@Base 3.2.1~
 _ZN8casacore15ArrayMeasColumnINS_15MRadialVelocityEED0Ev@Base 3.2.1~
 _ZN8casacore15ArrayMeasColumnINS_15MRadialVelocityEED1Ev@Base 3.2.1~
 _ZN8casacore15ArrayMeasColumnINS_15MRadialVelocityEED2Ev@Base 3.2.1~
 _ZN8casacore15ArrayMeasColumnINS_6MEpochEE7cleanUpEv@Base 3.2.1~
 _ZN8casacore15ArrayMeasColumnINS_6MEpochEE9referenceERKS2_@Base 3.2.1~
 _ZN8casacore15ArrayMeasColumnINS_6MEpochEEC1ERKNS_5TableERKNS_6StringE@Base 3.2.1~
 _ZN8casacore15ArrayMeasColumnINS_6MEpochEEC2ERKNS_5TableERKNS_6StringE@Base 3.2.1~
 _ZN8casacore15ArrayMeasColumnINS_6MEpochEED0Ev@Base 3.2.1~
 _ZN8casacore15ArrayMeasColumnINS_6MEpochEED1Ev@Base 3.2.1~
 _ZN8casacore15ArrayMeasColumnINS_6MEpochEED2Ev@Base 3.2.1~
 _ZN8casacore15ArrayMeasColumnINS_8MDopplerEE7cleanUpEv@Base 3.2.1~
 _ZN8casacore15ArrayMeasColumnINS_8MDopplerEE9referenceERKS2_@Base 3.2.1~
 _ZN8casacore15ArrayMeasColumnINS_8MDopplerEEC1ERKNS_5TableERKNS_6StringE@Base 3.2.1~
 _ZN8casacore15ArrayMeasColumnINS_8MDopplerEEC2ERKNS_5TableERKNS_6StringE@Base 3.2.1~
 _ZN8casacore15ArrayMeasColumnINS_8MDopplerEED0Ev@Base 3.2.1~
 _ZN8casacore15ArrayMeasColumnINS_8MDopplerEED1Ev@Base 3.2.1~
 _ZN8casacore15ArrayMeasColumnINS_8MDopplerEED2Ev@Base 3.2.1~
 _ZN8casacore15ArrayMeasColumnINS_9MPositionEE7cleanUpEv@Base 3.2.1~
 _ZN8casacore15ArrayMeasColumnINS_9MPositionEE9referenceERKS2_@Base 3.2.1~
 _ZN8casacore15ArrayMeasColumnINS_9MPositionEEC1ERKNS_5TableERKNS_6StringE@Base 3.2.1~
 _ZN8casacore15ArrayMeasColumnINS_9MPositionEEC2ERKNS_5TableERKNS_6StringE@Base 3.2.1~
 _ZN8casacore15ArrayMeasColumnINS_9MPositionEED0Ev@Base 3.2.1~
 _ZN8casacore15ArrayMeasColumnINS_9MPositionEED1Ev@Base 3.2.1~
 _ZN8casacore15ArrayMeasColumnINS_9MPositionEED2Ev@Base 3.2.1~
 _ZN8casacore15DirectionEngine11calcRiseSetERKNS_10MDirectionERKNS_9MPositionERKNS_6MEpochEdRdSA_@Base 3.2.1~
 _ZN8casacore15DirectionEngine11fillRiseSetEdRKNS_10MDirectionEddRKNS_6MEpochEPdS7_@Base 3.2.1~
 _ZN8casacore15DirectionEngine11handleNamesERKNS_10CountedPtrINS_16TableExprNodeRepEEE@Base 3.2.1~
 _ZN8casacore15DirectionEngine12handleValuesERNS_13TableExprNodeERKNS_11TableExprIdERNS_5ArrayINS_10MDirectionEEE@Base 3.2.1~
 _ZN8casacore15DirectionEngine12setConverterENS_10MDirection5TypesE@Base 3.2.1~
 _ZN8casacore15DirectionEngine13getDirectionsERKNS_11TableExprIdE@Base 3.2.1~
 _ZN8casacore15DirectionEngine13handleScalarsERKNS_10CountedPtrINS_16TableExprNodeRepEEES5_S5_@Base 3.2.1~
 _ZN8casacore15DirectionEngine14getArrayDoubleERKNS_11TableExprIdEbb@Base 3.2.1~
 _ZN8casacore15DirectionEngine14setEpochEngineERNS_11EpochEngineE@Base 3.2.1~
 _ZN8casacore15DirectionEngine15handleDirectionERKSt6vectorINS_10CountedPtrINS_16TableExprNodeRepEEESaIS4_EERjbb@Base 3.2.1~
 _ZN8casacore15DirectionEngine17setPositionEngineERNS_14PositionEngineE@Base 3.2.1~
 _ZN8casacore15DirectionEngineC1Ev@Base 3.2.1~
 _ZN8casacore15DirectionEngineC2Ev@Base 3.2.1~
 _ZN8casacore15DirectionEngineD0Ev@Base 3.2.1~
 _ZN8casacore15DirectionEngineD1Ev@Base 3.2.1~
 _ZN8casacore15DirectionEngineD2Ev@Base 3.2.1~
 _ZN8casacore15FrequencyEngine12handleValuesERNS_13TableExprNodeERKNS_11TableExprIdERNS_5ArrayINS_10MFrequencyEEE@Base 3.2.1~
 _ZN8casacore15FrequencyEngine12setConverterENS_10MFrequency5TypesE@Base 3.2.1~
 _ZN8casacore15FrequencyEngine14getArrayDoubleERKNS_11TableExprIdEi@Base 3.2.1~
 _ZN8casacore15FrequencyEngine14getFrequenciesERKNS_11TableExprIdE@Base 3.2.1~
 _ZN8casacore15FrequencyEngine14setEpochEngineERNS_11EpochEngineE@Base 3.2.1~
 _ZN8casacore15FrequencyEngine15handleFrequencyERSt6vectorINS_10CountedPtrINS_16TableExprNodeRepEEESaIS4_EERj@Base 3.2.1~
 _ZN8casacore15FrequencyEngine15setRadVelEngineERNS_20RadialVelocityEngineE@Base 3.2.1~
 _ZN8casacore15FrequencyEngine16setDopplerEngineERNS_13DopplerEngineE@Base 3.2.1~
 _ZN8casacore15FrequencyEngine17setPositionEngineERNS_14PositionEngineE@Base 3.2.1~
 _ZN8casacore15FrequencyEngine18setDirectionEngineERNS_15DirectionEngineE@Base 3.2.1~
 _ZN8casacore15FrequencyEngineC1Ev@Base 3.2.1~
 _ZN8casacore15FrequencyEngineC2Ev@Base 3.2.1~
 _ZN8casacore15FrequencyEngineD0Ev@Base 3.2.1~
 _ZN8casacore15FrequencyEngineD1Ev@Base 3.2.1~
 _ZN8casacore15FrequencyEngineD2Ev@Base 3.2.1~
 _ZN8casacore15NewDelAllocatorINS_10MDirectionEE5valueE@Base 3.2.1~
 _ZN8casacore15NewDelAllocatorINS_10MDirectionEED0Ev@Base 3.2.1~
 _ZN8casacore15NewDelAllocatorINS_10MDirectionEED1Ev@Base 3.2.1~
 _ZN8casacore15NewDelAllocatorINS_10MDirectionEED2Ev@Base 3.2.1~
 _ZN8casacore15NewDelAllocatorINS_10MFrequencyEE5valueE@Base 3.2.1~
 _ZN8casacore15NewDelAllocatorINS_10MFrequencyEED0Ev@Base 3.2.1~
 _ZN8casacore15NewDelAllocatorINS_10MFrequencyEED1Ev@Base 3.2.1~
 _ZN8casacore15NewDelAllocatorINS_10MFrequencyEED2Ev@Base 3.2.1~
 _ZN8casacore15NewDelAllocatorINS_11MVFrequencyEE5valueE@Base 3.2.1~
 _ZN8casacore15NewDelAllocatorINS_11MVFrequencyEED0Ev@Base 3.2.1~
 _ZN8casacore15NewDelAllocatorINS_11MVFrequencyEED1Ev@Base 3.2.1~
 _ZN8casacore15NewDelAllocatorINS_11MVFrequencyEED2Ev@Base 3.2.1~
 _ZN8casacore15NewDelAllocatorINS_14MEarthMagneticEE5valueE@Base 3.2.1~
 _ZN8casacore15NewDelAllocatorINS_14MEarthMagneticEED0Ev@Base 3.2.1~
 _ZN8casacore15NewDelAllocatorINS_14MEarthMagneticEED1Ev@Base 3.2.1~
 _ZN8casacore15NewDelAllocatorINS_14MEarthMagneticEED2Ev@Base 3.2.1~
 _ZN8casacore15NewDelAllocatorINS_15MRadialVelocityEE5valueE@Base 3.2.1~
 _ZN8casacore15NewDelAllocatorINS_15MRadialVelocityEED0Ev@Base 3.2.1~
 _ZN8casacore15NewDelAllocatorINS_15MRadialVelocityEED1Ev@Base 3.2.1~
 _ZN8casacore15NewDelAllocatorINS_15MRadialVelocityEED2Ev@Base 3.2.1~
 _ZN8casacore15NewDelAllocatorINS_6MEpochEE5valueE@Base 3.2.1~
 _ZN8casacore15NewDelAllocatorINS_6MEpochEED0Ev@Base 3.2.1~
 _ZN8casacore15NewDelAllocatorINS_6MEpochEED1Ev@Base 3.2.1~
 _ZN8casacore15NewDelAllocatorINS_6MEpochEED2Ev@Base 3.2.1~
 _ZN8casacore15NewDelAllocatorINS_6MVTimeEE5valueE@Base 3.2.1~
 _ZN8casacore15NewDelAllocatorINS_6MVTimeEED0Ev@Base 3.2.1~
 _ZN8casacore15NewDelAllocatorINS_6MVTimeEED1Ev@Base 3.2.1~
 _ZN8casacore15NewDelAllocatorINS_6MVTimeEED2Ev@Base 3.2.1~
 _ZN8casacore15NewDelAllocatorINS_7QuantumIdEEE5valueE@Base 3.2.1~
 _ZN8casacore15NewDelAllocatorINS_7QuantumIdEEED0Ev@Base 3.2.1~
 _ZN8casacore15NewDelAllocatorINS_7QuantumIdEEED1Ev@Base 3.2.1~
 _ZN8casacore15NewDelAllocatorINS_7QuantumIdEEED2Ev@Base 3.2.1~
 _ZN8casacore15NewDelAllocatorINS_8MDopplerEE5valueE@Base 3.2.1~
 _ZN8casacore15NewDelAllocatorINS_8MDopplerEED0Ev@Base 3.2.1~
 _ZN8casacore15NewDelAllocatorINS_8MDopplerEED1Ev@Base 3.2.1~
 _ZN8casacore15NewDelAllocatorINS_8MDopplerEED2Ev@Base 3.2.1~
 _ZN8casacore15NewDelAllocatorINS_9MPositionEE5valueE@Base 3.2.1~
 _ZN8casacore15NewDelAllocatorINS_9MPositionEED0Ev@Base 3.2.1~
 _ZN8casacore15NewDelAllocatorINS_9MPositionEED1Ev@Base 3.2.1~
 _ZN8casacore15NewDelAllocatorINS_9MPositionEED2Ev@Base 3.2.1~
 _ZN8casacore15NewDelAllocatorIPNS_6SlicerEE5valueE@Base 3.2.1~
 _ZN8casacore15NewDelAllocatorIPNS_6SlicerEED0Ev@Base 3.2.1~
 _ZN8casacore15NewDelAllocatorIPNS_6SlicerEED1Ev@Base 3.2.1~
 _ZN8casacore15NewDelAllocatorIPNS_6SlicerEED2Ev@Base 3.2.1~
 _ZN8casacore16DefaultAllocatorINS_10MDirectionEE5valueE@Base 3.2.1~
 _ZN8casacore16DefaultAllocatorINS_10MDirectionEED0Ev@Base 3.2.1~
 _ZN8casacore16DefaultAllocatorINS_10MDirectionEED1Ev@Base 3.2.1~
 _ZN8casacore16DefaultAllocatorINS_10MDirectionEED2Ev@Base 3.2.1~
 _ZN8casacore16DefaultAllocatorINS_10MFrequencyEE5valueE@Base 3.2.1~
 _ZN8casacore16DefaultAllocatorINS_10MFrequencyEED0Ev@Base 3.2.1~
 _ZN8casacore16DefaultAllocatorINS_10MFrequencyEED1Ev@Base 3.2.1~
 _ZN8casacore16DefaultAllocatorINS_10MFrequencyEED2Ev@Base 3.2.1~
 _ZN8casacore16DefaultAllocatorINS_11MVFrequencyEE5valueE@Base 3.2.1~
 _ZN8casacore16DefaultAllocatorINS_11MVFrequencyEED0Ev@Base 3.2.1~
 _ZN8casacore16DefaultAllocatorINS_11MVFrequencyEED1Ev@Base 3.2.1~
 _ZN8casacore16DefaultAllocatorINS_11MVFrequencyEED2Ev@Base 3.2.1~
 _ZN8casacore16DefaultAllocatorINS_14MEarthMagneticEE5valueE@Base 3.2.1~
 _ZN8casacore16DefaultAllocatorINS_14MEarthMagneticEED0Ev@Base 3.2.1~
 _ZN8casacore16DefaultAllocatorINS_14MEarthMagneticEED1Ev@Base 3.2.1~
 _ZN8casacore16DefaultAllocatorINS_14MEarthMagneticEED2Ev@Base 3.2.1~
 _ZN8casacore16DefaultAllocatorINS_15MRadialVelocityEE5valueE@Base 3.2.1~
 _ZN8casacore16DefaultAllocatorINS_15MRadialVelocityEED0Ev@Base 3.2.1~
 _ZN8casacore16DefaultAllocatorINS_15MRadialVelocityEED1Ev@Base 3.2.1~
 _ZN8casacore16DefaultAllocatorINS_15MRadialVelocityEED2Ev@Base 3.2.1~
 _ZN8casacore16DefaultAllocatorINS_6MEpochEE5valueE@Base 3.2.1~
 _ZN8casacore16DefaultAllocatorINS_6MEpochEED0Ev@Base 3.2.1~
 _ZN8casacore16DefaultAllocatorINS_6MEpochEED1Ev@Base 3.2.1~
 _ZN8casacore16DefaultAllocatorINS_6MEpochEED2Ev@Base 3.2.1~
 _ZN8casacore16DefaultAllocatorINS_6MVTimeEE5valueE@Base 3.2.1~
 _ZN8casacore16DefaultAllocatorINS_6MVTimeEED0Ev@Base 3.2.1~
 _ZN8casacore16DefaultAllocatorINS_6MVTimeEED1Ev@Base 3.2.1~
 _ZN8casacore16DefaultAllocatorINS_6MVTimeEED2Ev@Base 3.2.1~
 _ZN8casacore16DefaultAllocatorINS_7QuantumIdEEE5valueE@Base 3.2.1~
 _ZN8casacore16DefaultAllocatorINS_7QuantumIdEEED0Ev@Base 3.2.1~
 _ZN8casacore16DefaultAllocatorINS_7QuantumIdEEED1Ev@Base 3.2.1~
 _ZN8casacore16DefaultAllocatorINS_7QuantumIdEEED2Ev@Base 3.2.1~
 _ZN8casacore16DefaultAllocatorINS_8MDopplerEE5valueE@Base 3.2.1~
 _ZN8casacore16DefaultAllocatorINS_8MDopplerEED0Ev@Base 3.2.1~
 _ZN8casacore16DefaultAllocatorINS_8MDopplerEED1Ev@Base 3.2.1~
 _ZN8casacore16DefaultAllocatorINS_8MDopplerEED2Ev@Base 3.2.1~
 _ZN8casacore16DefaultAllocatorINS_9MPositionEE5valueE@Base 3.2.1~
 _ZN8casacore16DefaultAllocatorINS_9MPositionEED0Ev@Base 3.2.1~
 _ZN8casacore16DefaultAllocatorINS_9MPositionEED1Ev@Base 3.2.1~
 _ZN8casacore16DefaultAllocatorINS_9MPositionEED2Ev@Base 3.2.1~
 _ZN8casacore16DefaultAllocatorIPNS_6SlicerEE5valueE@Base 3.2.1~
 _ZN8casacore16DefaultAllocatorIPNS_6SlicerEED0Ev@Base 3.2.1~
 _ZN8casacore16DefaultAllocatorIPNS_6SlicerEED1Ev@Base 3.2.1~
 _ZN8casacore16DefaultAllocatorIPNS_6SlicerEED2Ev@Base 3.2.1~
 _ZN8casacore16EarthMagneticUDF11makeIGRFANGERKNS_6StringE@Base 3.2.1~
 _ZN8casacore16EarthMagneticUDF11makeIGRFLENERKNS_6StringE@Base 3.2.1~
 _ZN8casacore16EarthMagneticUDF11makeIGRFLOSERKNS_6StringE@Base 3.2.1~
 _ZN8casacore16EarthMagneticUDF11makeIGRFXYZERKNS_6StringE@Base 3.2.1~
 _ZN8casacore16EarthMagneticUDF12makeIGRFLONGERKNS_6StringE@Base 3.2.1~
 _ZN8casacore16EarthMagneticUDF14getArrayDoubleERKNS_11TableExprIdE@Base 3.2.1~
 _ZN8casacore16EarthMagneticUDF5setupERKNS_5TableERKNS_9TaQLStyleE@Base 3.2.1~
 _ZN8casacore16EarthMagneticUDF9getDoubleERKNS_11TableExprIdE@Base 3.2.1~
 _ZN8casacore16EarthMagneticUDF9makeEMANGERKNS_6StringE@Base 3.2.1~
 _ZN8casacore16EarthMagneticUDF9makeEMLENERKNS_6StringE@Base 3.2.1~
 _ZN8casacore16EarthMagneticUDF9makeEMXYZERKNS_6StringE@Base 3.2.1~
 _ZN8casacore16EarthMagneticUDFC1ENS0_8FuncTypeE@Base 3.2.1~
 _ZN8casacore16EarthMagneticUDFC2ENS0_8FuncTypeE@Base 3.2.1~
 _ZN8casacore16EarthMagneticUDFD0Ev@Base 3.2.1~
 _ZN8casacore16EarthMagneticUDFD1Ev@Base 3.2.1~
 _ZN8casacore16EarthMagneticUDFD2Ev@Base 3.2.1~
 _ZN8casacore16ScalarMeasColumnINS_10MDirectionEE7cleanUpEv@Base 3.2.1~
 _ZN8casacore16ScalarMeasColumnINS_10MDirectionEE9referenceERKS2_@Base 3.2.1~
 _ZN8casacore16ScalarMeasColumnINS_10MDirectionEEC1ERKNS_5TableERKNS_6StringE@Base 3.2.1~
 _ZN8casacore16ScalarMeasColumnINS_10MDirectionEEC1ERKS2_@Base 3.2.1~
 _ZN8casacore16ScalarMeasColumnINS_10MDirectionEEC2ERKNS_5TableERKNS_6StringE@Base 3.2.1~
 _ZN8casacore16ScalarMeasColumnINS_10MDirectionEEC2ERKS2_@Base 3.2.1~
 _ZN8casacore16ScalarMeasColumnINS_10MDirectionEED0Ev@Base 3.2.1~
 _ZN8casacore16ScalarMeasColumnINS_10MDirectionEED1Ev@Base 3.2.1~
 _ZN8casacore16ScalarMeasColumnINS_10MDirectionEED2Ev@Base 3.2.1~
 _ZN8casacore16ScalarMeasColumnINS_10MFrequencyEE7cleanUpEv@Base 3.2.1~
 _ZN8casacore16ScalarMeasColumnINS_10MFrequencyEE9referenceERKS2_@Base 3.2.1~
 _ZN8casacore16ScalarMeasColumnINS_10MFrequencyEEC1ERKNS_5TableERKNS_6StringE@Base 3.2.1~
 _ZN8casacore16ScalarMeasColumnINS_10MFrequencyEEC1ERKS2_@Base 3.2.1~
 _ZN8casacore16ScalarMeasColumnINS_10MFrequencyEEC2ERKNS_5TableERKNS_6StringE@Base 3.2.1~
 _ZN8casacore16ScalarMeasColumnINS_10MFrequencyEEC2ERKS2_@Base 3.2.1~
 _ZN8casacore16ScalarMeasColumnINS_10MFrequencyEED0Ev@Base 3.2.1~
 _ZN8casacore16ScalarMeasColumnINS_10MFrequencyEED1Ev@Base 3.2.1~
 _ZN8casacore16ScalarMeasColumnINS_10MFrequencyEED2Ev@Base 3.2.1~
 _ZN8casacore16ScalarMeasColumnINS_14MEarthMagneticEE7cleanUpEv@Base 3.2.1~
 _ZN8casacore16ScalarMeasColumnINS_14MEarthMagneticEE9referenceERKS2_@Base 3.2.1~
 _ZN8casacore16ScalarMeasColumnINS_14MEarthMagneticEEC1ERKNS_5TableERKNS_6StringE@Base 3.2.1~
 _ZN8casacore16ScalarMeasColumnINS_14MEarthMagneticEEC1ERKS2_@Base 3.2.1~
 _ZN8casacore16ScalarMeasColumnINS_14MEarthMagneticEEC2ERKNS_5TableERKNS_6StringE@Base 3.2.1~
 _ZN8casacore16ScalarMeasColumnINS_14MEarthMagneticEEC2ERKS2_@Base 3.2.1~
 _ZN8casacore16ScalarMeasColumnINS_14MEarthMagneticEED0Ev@Base 3.2.1~
 _ZN8casacore16ScalarMeasColumnINS_14MEarthMagneticEED1Ev@Base 3.2.1~
 _ZN8casacore16ScalarMeasColumnINS_14MEarthMagneticEED2Ev@Base 3.2.1~
 _ZN8casacore16ScalarMeasColumnINS_15MRadialVelocityEE7cleanUpEv@Base 3.2.1~
 _ZN8casacore16ScalarMeasColumnINS_15MRadialVelocityEE9referenceERKS2_@Base 3.2.1~
 _ZN8casacore16ScalarMeasColumnINS_15MRadialVelocityEEC1ERKNS_5TableERKNS_6StringE@Base 3.2.1~
 _ZN8casacore16ScalarMeasColumnINS_15MRadialVelocityEEC1ERKS2_@Base 3.2.1~
 _ZN8casacore16ScalarMeasColumnINS_15MRadialVelocityEEC2ERKNS_5TableERKNS_6StringE@Base 3.2.1~
 _ZN8casacore16ScalarMeasColumnINS_15MRadialVelocityEEC2ERKS2_@Base 3.2.1~
 _ZN8casacore16ScalarMeasColumnINS_15MRadialVelocityEED0Ev@Base 3.2.1~
 _ZN8casacore16ScalarMeasColumnINS_15MRadialVelocityEED1Ev@Base 3.2.1~
 _ZN8casacore16ScalarMeasColumnINS_15MRadialVelocityEED2Ev@Base 3.2.1~
 _ZN8casacore16ScalarMeasColumnINS_6MEpochEE7cleanUpEv@Base 3.2.1~
 _ZN8casacore16ScalarMeasColumnINS_6MEpochEE9referenceERKS2_@Base 3.2.1~
 _ZN8casacore16ScalarMeasColumnINS_6MEpochEEC1ERKNS_5TableERKNS_6StringE@Base 3.2.1~
 _ZN8casacore16ScalarMeasColumnINS_6MEpochEEC1ERKS2_@Base 3.2.1~
 _ZN8casacore16ScalarMeasColumnINS_6MEpochEEC2ERKNS_5TableERKNS_6StringE@Base 3.2.1~
 _ZN8casacore16ScalarMeasColumnINS_6MEpochEEC2ERKS2_@Base 3.2.1~
 _ZN8casacore16ScalarMeasColumnINS_6MEpochEED0Ev@Base 3.2.1~
 _ZN8casacore16ScalarMeasColumnINS_6MEpochEED1Ev@Base 3.2.1~
 _ZN8casacore16ScalarMeasColumnINS_6MEpochEED2Ev@Base 3.2.1~
 _ZN8casacore16ScalarMeasColumnINS_8MDopplerEE7cleanUpEv@Base 3.2.1~
 _ZN8casacore16ScalarMeasColumnINS_8MDopplerEE9referenceERKS2_@Base 3.2.1~
 _ZN8casacore16ScalarMeasColumnINS_8MDopplerEEC1ERKNS_5TableERKNS_6StringE@Base 3.2.1~
 _ZN8casacore16ScalarMeasColumnINS_8MDopplerEEC1ERKS2_@Base 3.2.1~
 _ZN8casacore16ScalarMeasColumnINS_8MDopplerEEC2ERKNS_5TableERKNS_6StringE@Base 3.2.1~
 _ZN8casacore16ScalarMeasColumnINS_8MDopplerEEC2ERKS2_@Base 3.2.1~
 _ZN8casacore16ScalarMeasColumnINS_8MDopplerEED0Ev@Base 3.2.1~
 _ZN8casacore16ScalarMeasColumnINS_8MDopplerEED1Ev@Base 3.2.1~
 _ZN8casacore16ScalarMeasColumnINS_8MDopplerEED2Ev@Base 3.2.1~
 _ZN8casacore16ScalarMeasColumnINS_9MPositionEE7cleanUpEv@Base 3.2.1~
 _ZN8casacore16ScalarMeasColumnINS_9MPositionEE9referenceERKS2_@Base 3.2.1~
 _ZN8casacore16ScalarMeasColumnINS_9MPositionEEC1ERKNS_5TableERKNS_6StringE@Base 3.2.1~
 _ZN8casacore16ScalarMeasColumnINS_9MPositionEEC1ERKS2_@Base 3.2.1~
 _ZN8casacore16ScalarMeasColumnINS_9MPositionEEC2ERKNS_5TableERKNS_6StringE@Base 3.2.1~
 _ZN8casacore16ScalarMeasColumnINS_9MPositionEEC2ERKS2_@Base 3.2.1~
 _ZN8casacore16ScalarMeasColumnINS_9MPositionEED0Ev@Base 3.2.1~
 _ZN8casacore16ScalarMeasColumnINS_9MPositionEED1Ev@Base 3.2.1~
 _ZN8casacore16ScalarMeasColumnINS_9MPositionEED2Ev@Base 3.2.1~
 _ZN8casacore17Allocator_private17BulkAllocatorImplINS_17new_del_allocatorINS_10MDirectionEEEE10deallocateEPS3_m@Base 3.2.1~
 _ZN8casacore17Allocator_private17BulkAllocatorImplINS_17new_del_allocatorINS_10MDirectionEEEE7destroyEPS3_m@Base 3.2.1~
 _ZN8casacore17Allocator_private17BulkAllocatorImplINS_17new_del_allocatorINS_10MDirectionEEEE8allocateEmPKv@Base 3.2.1~
 _ZN8casacore17Allocator_private17BulkAllocatorImplINS_17new_del_allocatorINS_10MDirectionEEEE9allocatorE@Base 3.2.1~
 _ZN8casacore17Allocator_private17BulkAllocatorImplINS_17new_del_allocatorINS_10MDirectionEEEE9constructEPS3_m@Base 3.2.1~
 _ZN8casacore17Allocator_private17BulkAllocatorImplINS_17new_del_allocatorINS_10MDirectionEEEE9constructEPS3_mPKS3_@Base 3.2.1~
 _ZN8casacore17Allocator_private17BulkAllocatorImplINS_17new_del_allocatorINS_10MDirectionEEEE9constructEPS3_mRKS3_@Base 3.2.1~
 _ZN8casacore17Allocator_private17BulkAllocatorImplINS_17new_del_allocatorINS_10MDirectionEEEED0Ev@Base 3.2.1~
 _ZN8casacore17Allocator_private17BulkAllocatorImplINS_17new_del_allocatorINS_10MDirectionEEEED1Ev@Base 3.2.1~
 _ZN8casacore17Allocator_private17BulkAllocatorImplINS_17new_del_allocatorINS_10MDirectionEEEED2Ev@Base 3.2.1~
 _ZN8casacore17Allocator_private17BulkAllocatorImplINS_17new_del_allocatorINS_10MFrequencyEEEE10deallocateEPS3_m@Base 3.2.1~
 _ZN8casacore17Allocator_private17BulkAllocatorImplINS_17new_del_allocatorINS_10MFrequencyEEEE7destroyEPS3_m@Base 3.2.1~
 _ZN8casacore17Allocator_private17BulkAllocatorImplINS_17new_del_allocatorINS_10MFrequencyEEEE8allocateEmPKv@Base 3.2.1~
 _ZN8casacore17Allocator_private17BulkAllocatorImplINS_17new_del_allocatorINS_10MFrequencyEEEE9allocatorE@Base 3.2.1~
 _ZN8casacore17Allocator_private17BulkAllocatorImplINS_17new_del_allocatorINS_10MFrequencyEEEE9constructEPS3_m@Base 3.2.1~
 _ZN8casacore17Allocator_private17BulkAllocatorImplINS_17new_del_allocatorINS_10MFrequencyEEEE9constructEPS3_mPKS3_@Base 3.2.1~
 _ZN8casacore17Allocator_private17BulkAllocatorImplINS_17new_del_allocatorINS_10MFrequencyEEEE9constructEPS3_mRKS3_@Base 3.2.1~
 _ZN8casacore17Allocator_private17BulkAllocatorImplINS_17new_del_allocatorINS_10MFrequencyEEEED0Ev@Base 3.2.1~
 _ZN8casacore17Allocator_private17BulkAllocatorImplINS_17new_del_allocatorINS_10MFrequencyEEEED1Ev@Base 3.2.1~
 _ZN8casacore17Allocator_private17BulkAllocatorImplINS_17new_del_allocatorINS_10MFrequencyEEEED2Ev@Base 3.2.1~
 _ZN8casacore17Allocator_private17BulkAllocatorImplINS_17new_del_allocatorINS_11MVFrequencyEEEE10deallocateEPS3_m@Base 3.2.1~
 _ZN8casacore17Allocator_private17BulkAllocatorImplINS_17new_del_allocatorINS_11MVFrequencyEEEE7destroyEPS3_m@Base 3.2.1~
 _ZN8casacore17Allocator_private17BulkAllocatorImplINS_17new_del_allocatorINS_11MVFrequencyEEEE8allocateEmPKv@Base 3.2.1~
 _ZN8casacore17Allocator_private17BulkAllocatorImplINS_17new_del_allocatorINS_11MVFrequencyEEEE9allocatorE@Base 3.2.1~
 _ZN8casacore17Allocator_private17BulkAllocatorImplINS_17new_del_allocatorINS_11MVFrequencyEEEE9constructEPS3_m@Base 3.2.1~
 _ZN8casacore17Allocator_private17BulkAllocatorImplINS_17new_del_allocatorINS_11MVFrequencyEEEE9constructEPS3_mPKS3_@Base 3.2.1~
 _ZN8casacore17Allocator_private17BulkAllocatorImplINS_17new_del_allocatorINS_11MVFrequencyEEEE9constructEPS3_mRKS3_@Base 3.2.1~
 _ZN8casacore17Allocator_private17BulkAllocatorImplINS_17new_del_allocatorINS_11MVFrequencyEEEED0Ev@Base 3.2.1~
 _ZN8casacore17Allocator_private17BulkAllocatorImplINS_17new_del_allocatorINS_11MVFrequencyEEEED1Ev@Base 3.2.1~
 _ZN8casacore17Allocator_private17BulkAllocatorImplINS_17new_del_allocatorINS_11MVFrequencyEEEED2Ev@Base 3.2.1~
 _ZN8casacore17Allocator_private17BulkAllocatorImplINS_17new_del_allocatorINS_14MEarthMagneticEEEE10deallocateEPS3_m@Base 3.2.1~
 _ZN8casacore17Allocator_private17BulkAllocatorImplINS_17new_del_allocatorINS_14MEarthMagneticEEEE7destroyEPS3_m@Base 3.2.1~
 _ZN8casacore17Allocator_private17BulkAllocatorImplINS_17new_del_allocatorINS_14MEarthMagneticEEEE8allocateEmPKv@Base 3.2.1~
 _ZN8casacore17Allocator_private17BulkAllocatorImplINS_17new_del_allocatorINS_14MEarthMagneticEEEE9allocatorE@Base 3.2.1~
 _ZN8casacore17Allocator_private17BulkAllocatorImplINS_17new_del_allocatorINS_14MEarthMagneticEEEE9constructEPS3_m@Base 3.2.1~
 _ZN8casacore17Allocator_private17BulkAllocatorImplINS_17new_del_allocatorINS_14MEarthMagneticEEEE9constructEPS3_mPKS3_@Base 3.2.1~
 _ZN8casacore17Allocator_private17BulkAllocatorImplINS_17new_del_allocatorINS_14MEarthMagneticEEEE9constructEPS3_mRKS3_@Base 3.2.1~
 _ZN8casacore17Allocator_private17BulkAllocatorImplINS_17new_del_allocatorINS_14MEarthMagneticEEEED0Ev@Base 3.2.1~
 _ZN8casacore17Allocator_private17BulkAllocatorImplINS_17new_del_allocatorINS_14MEarthMagneticEEEED1Ev@Base 3.2.1~
 _ZN8casacore17Allocator_private17BulkAllocatorImplINS_17new_del_allocatorINS_14MEarthMagneticEEEED2Ev@Base 3.2.1~
 _ZN8casacore17Allocator_private17BulkAllocatorImplINS_17new_del_allocatorINS_15MRadialVelocityEEEE10deallocateEPS3_m@Base 3.2.1~
 _ZN8casacore17Allocator_private17BulkAllocatorImplINS_17new_del_allocatorINS_15MRadialVelocityEEEE7destroyEPS3_m@Base 3.2.1~
 _ZN8casacore17Allocator_private17BulkAllocatorImplINS_17new_del_allocatorINS_15MRadialVelocityEEEE8allocateEmPKv@Base 3.2.1~
 _ZN8casacore17Allocator_private17BulkAllocatorImplINS_17new_del_allocatorINS_15MRadialVelocityEEEE9allocatorE@Base 3.2.1~
 _ZN8casacore17Allocator_private17BulkAllocatorImplINS_17new_del_allocatorINS_15MRadialVelocityEEEE9constructEPS3_m@Base 3.2.1~
 _ZN8casacore17Allocator_private17BulkAllocatorImplINS_17new_del_allocatorINS_15MRadialVelocityEEEE9constructEPS3_mPKS3_@Base 3.2.1~
 _ZN8casacore17Allocator_private17BulkAllocatorImplINS_17new_del_allocatorINS_15MRadialVelocityEEEE9constructEPS3_mRKS3_@Base 3.2.1~
 _ZN8casacore17Allocator_private17BulkAllocatorImplINS_17new_del_allocatorINS_15MRadialVelocityEEEED0Ev@Base 3.2.1~
 _ZN8casacore17Allocator_private17BulkAllocatorImplINS_17new_del_allocatorINS_15MRadialVelocityEEEED1Ev@Base 3.2.1~
 _ZN8casacore17Allocator_private17BulkAllocatorImplINS_17new_del_allocatorINS_15MRadialVelocityEEEED2Ev@Base 3.2.1~
 _ZN8casacore17Allocator_private17BulkAllocatorImplINS_17new_del_allocatorINS_6MEpochEEEE10deallocateEPS3_m@Base 3.2.1~
 _ZN8casacore17Allocator_private17BulkAllocatorImplINS_17new_del_allocatorINS_6MEpochEEEE7destroyEPS3_m@Base 3.2.1~
 _ZN8casacore17Allocator_private17BulkAllocatorImplINS_17new_del_allocatorINS_6MEpochEEEE8allocateEmPKv@Base 3.2.1~
 _ZN8casacore17Allocator_private17BulkAllocatorImplINS_17new_del_allocatorINS_6MEpochEEEE9allocatorE@Base 3.2.1~
 _ZN8casacore17Allocator_private17BulkAllocatorImplINS_17new_del_allocatorINS_6MEpochEEEE9constructEPS3_m@Base 3.2.1~
 _ZN8casacore17Allocator_private17BulkAllocatorImplINS_17new_del_allocatorINS_6MEpochEEEE9constructEPS3_mPKS3_@Base 3.2.1~
 _ZN8casacore17Allocator_private17BulkAllocatorImplINS_17new_del_allocatorINS_6MEpochEEEE9constructEPS3_mRKS3_@Base 3.2.1~
 _ZN8casacore17Allocator_private17BulkAllocatorImplINS_17new_del_allocatorINS_6MEpochEEEED0Ev@Base 3.2.1~
 _ZN8casacore17Allocator_private17BulkAllocatorImplINS_17new_del_allocatorINS_6MEpochEEEED1Ev@Base 3.2.1~
 _ZN8casacore17Allocator_private17BulkAllocatorImplINS_17new_del_allocatorINS_6MEpochEEEED2Ev@Base 3.2.1~
 _ZN8casacore17Allocator_private17BulkAllocatorImplINS_17new_del_allocatorINS_6MVTimeEEEE10deallocateEPS3_m@Base 3.2.1~
 _ZN8casacore17Allocator_private17BulkAllocatorImplINS_17new_del_allocatorINS_6MVTimeEEEE7destroyEPS3_m@Base 3.2.1~
 _ZN8casacore17Allocator_private17BulkAllocatorImplINS_17new_del_allocatorINS_6MVTimeEEEE8allocateEmPKv@Base 3.2.1~
 _ZN8casacore17Allocator_private17BulkAllocatorImplINS_17new_del_allocatorINS_6MVTimeEEEE9allocatorE@Base 3.2.1~
 _ZN8casacore17Allocator_private17BulkAllocatorImplINS_17new_del_allocatorINS_6MVTimeEEEE9constructEPS3_m@Base 3.2.1~
 _ZN8casacore17Allocator_private17BulkAllocatorImplINS_17new_del_allocatorINS_6MVTimeEEEE9constructEPS3_mPKS3_@Base 3.2.1~
 _ZN8casacore17Allocator_private17BulkAllocatorImplINS_17new_del_allocatorINS_6MVTimeEEEE9constructEPS3_mRKS3_@Base 3.2.1~
 _ZN8casacore17Allocator_private17BulkAllocatorImplINS_17new_del_allocatorINS_6MVTimeEEEED0Ev@Base 3.2.1~
 _ZN8casacore17Allocator_private17BulkAllocatorImplINS_17new_del_allocatorINS_6MVTimeEEEED1Ev@Base 3.2.1~
 _ZN8casacore17Allocator_private17BulkAllocatorImplINS_17new_del_allocatorINS_6MVTimeEEEED2Ev@Base 3.2.1~
 _ZN8casacore17Allocator_private17BulkAllocatorImplINS_17new_del_allocatorINS_7QuantumIdEEEEE10deallocateEPS4_m@Base 3.2.1~
 _ZN8casacore17Allocator_private17BulkAllocatorImplINS_17new_del_allocatorINS_7QuantumIdEEEEE7destroyEPS4_m@Base 3.2.1~
 _ZN8casacore17Allocator_private17BulkAllocatorImplINS_17new_del_allocatorINS_7QuantumIdEEEEE8allocateEmPKv@Base 3.2.1~
 _ZN8casacore17Allocator_private17BulkAllocatorImplINS_17new_del_allocatorINS_7QuantumIdEEEEE9allocatorE@Base 3.2.1~
 _ZN8casacore17Allocator_private17BulkAllocatorImplINS_17new_del_allocatorINS_7QuantumIdEEEEE9constructEPS4_m@Base 3.2.1~
 _ZN8casacore17Allocator_private17BulkAllocatorImplINS_17new_del_allocatorINS_7QuantumIdEEEEE9constructEPS4_mPKS4_@Base 3.2.1~
 _ZN8casacore17Allocator_private17BulkAllocatorImplINS_17new_del_allocatorINS_7QuantumIdEEEEE9constructEPS4_mRKS4_@Base 3.2.1~
 _ZN8casacore17Allocator_private17BulkAllocatorImplINS_17new_del_allocatorINS_7QuantumIdEEEEED0Ev@Base 3.2.1~
 _ZN8casacore17Allocator_private17BulkAllocatorImplINS_17new_del_allocatorINS_7QuantumIdEEEEED1Ev@Base 3.2.1~
 _ZN8casacore17Allocator_private17BulkAllocatorImplINS_17new_del_allocatorINS_7QuantumIdEEEEED2Ev@Base 3.2.1~
 _ZN8casacore17Allocator_private17BulkAllocatorImplINS_17new_del_allocatorINS_8MDopplerEEEE10deallocateEPS3_m@Base 3.2.1~
 _ZN8casacore17Allocator_private17BulkAllocatorImplINS_17new_del_allocatorINS_8MDopplerEEEE7destroyEPS3_m@Base 3.2.1~
 _ZN8casacore17Allocator_private17BulkAllocatorImplINS_17new_del_allocatorINS_8MDopplerEEEE8allocateEmPKv@Base 3.2.1~
 _ZN8casacore17Allocator_private17BulkAllocatorImplINS_17new_del_allocatorINS_8MDopplerEEEE9allocatorE@Base 3.2.1~
 _ZN8casacore17Allocator_private17BulkAllocatorImplINS_17new_del_allocatorINS_8MDopplerEEEE9constructEPS3_m@Base 3.2.1~
 _ZN8casacore17Allocator_private17BulkAllocatorImplINS_17new_del_allocatorINS_8MDopplerEEEE9constructEPS3_mPKS3_@Base 3.2.1~
 _ZN8casacore17Allocator_private17BulkAllocatorImplINS_17new_del_allocatorINS_8MDopplerEEEE9constructEPS3_mRKS3_@Base 3.2.1~
 _ZN8casacore17Allocator_private17BulkAllocatorImplINS_17new_del_allocatorINS_8MDopplerEEEED0Ev@Base 3.2.1~
 _ZN8casacore17Allocator_private17BulkAllocatorImplINS_17new_del_allocatorINS_8MDopplerEEEED1Ev@Base 3.2.1~
 _ZN8casacore17Allocator_private17BulkAllocatorImplINS_17new_del_allocatorINS_8MDopplerEEEED2Ev@Base 3.2.1~
 _ZN8casacore17Allocator_private17BulkAllocatorImplINS_17new_del_allocatorINS_9MPositionEEEE10deallocateEPS3_m@Base 3.2.1~
 _ZN8casacore17Allocator_private17BulkAllocatorImplINS_17new_del_allocatorINS_9MPositionEEEE7destroyEPS3_m@Base 3.2.1~
 _ZN8casacore17Allocator_private17BulkAllocatorImplINS_17new_del_allocatorINS_9MPositionEEEE8allocateEmPKv@Base 3.2.1~
 _ZN8casacore17Allocator_private17BulkAllocatorImplINS_17new_del_allocatorINS_9MPositionEEEE9allocatorE@Base 3.2.1~
 _ZN8casacore17Allocator_private17BulkAllocatorImplINS_17new_del_allocatorINS_9MPositionEEEE9constructEPS3_m@Base 3.2.1~
 _ZN8casacore17Allocator_private17BulkAllocatorImplINS_17new_del_allocatorINS_9MPositionEEEE9constructEPS3_mPKS3_@Base 3.2.1~
 _ZN8casacore17Allocator_private17BulkAllocatorImplINS_17new_del_allocatorINS_9MPositionEEEE9constructEPS3_mRKS3_@Base 3.2.1~
 _ZN8casacore17Allocator_private17BulkAllocatorImplINS_17new_del_allocatorINS_9MPositionEEEED0Ev@Base 3.2.1~
 _ZN8casacore17Allocator_private17BulkAllocatorImplINS_17new_del_allocatorINS_9MPositionEEEED1Ev@Base 3.2.1~
 _ZN8casacore17Allocator_private17BulkAllocatorImplINS_17new_del_allocatorINS_9MPositionEEEED2Ev@Base 3.2.1~
 _ZN8casacore17Allocator_private17BulkAllocatorImplINS_17new_del_allocatorIPNS_6SlicerEEEE10deallocateEPS4_m@Base 3.2.1~
 _ZN8casacore17Allocator_private17BulkAllocatorImplINS_17new_del_allocatorIPNS_6SlicerEEEE7destroyEPS4_m@Base 3.2.1~
 _ZN8casacore17Allocator_private17BulkAllocatorImplINS_17new_del_allocatorIPNS_6SlicerEEEE8allocateEmPKv@Base 3.2.1~
 _ZN8casacore17Allocator_private17BulkAllocatorImplINS_17new_del_allocatorIPNS_6SlicerEEEE9allocatorE@Base 3.2.1~
 _ZN8casacore17Allocator_private17BulkAllocatorImplINS_17new_del_allocatorIPNS_6SlicerEEEE9constructEPS4_m@Base 3.2.1~
 _ZN8casacore17Allocator_private17BulkAllocatorImplINS_17new_del_allocatorIPNS_6SlicerEEEE9constructEPS4_mPKS4_@Base 3.2.1~
 _ZN8casacore17Allocator_private17BulkAllocatorImplINS_17new_del_allocatorIPNS_6SlicerEEEE9constructEPS4_mRKS4_@Base 3.2.1~
 _ZN8casacore17Allocator_private17BulkAllocatorImplINS_17new_del_allocatorIPNS_6SlicerEEEED0Ev@Base 3.2.1~
 _ZN8casacore17Allocator_private17BulkAllocatorImplINS_17new_del_allocatorIPNS_6SlicerEEEED1Ev@Base 3.2.1~
 _ZN8casacore17Allocator_private17BulkAllocatorImplINS_17new_del_allocatorIPNS_6SlicerEEEED2Ev@Base 3.2.1~
 _ZN8casacore17Allocator_private17BulkAllocatorImplINS_18casacore_allocatorINS_10MDirectionELm32EEEE10deallocateEPS3_m@Base 3.2.1~
 _ZN8casacore17Allocator_private17BulkAllocatorImplINS_18casacore_allocatorINS_10MDirectionELm32EEEE7destroyEPS3_m@Base 3.2.1~
 _ZN8casacore17Allocator_private17BulkAllocatorImplINS_18casacore_allocatorINS_10MDirectionELm32EEEE8allocateEmPKv@Base 3.2.1~
 _ZN8casacore17Allocator_private17BulkAllocatorImplINS_18casacore_allocatorINS_10MDirectionELm32EEEE9allocatorE@Base 3.2.1~
 _ZN8casacore17Allocator_private17BulkAllocatorImplINS_18casacore_allocatorINS_10MDirectionELm32EEEE9constructEPS3_m@Base 3.2.1~
 _ZN8casacore17Allocator_private17BulkAllocatorImplINS_18casacore_allocatorINS_10MDirectionELm32EEEE9constructEPS3_mPKS3_@Base 3.2.1~
 _ZN8casacore17Allocator_private17BulkAllocatorImplINS_18casacore_allocatorINS_10MDirectionELm32EEEE9constructEPS3_mRKS3_@Base 3.2.1~
 _ZN8casacore17Allocator_private17BulkAllocatorImplINS_18casacore_allocatorINS_10MDirectionELm32EEEED0Ev@Base 3.2.1~
 _ZN8casacore17Allocator_private17BulkAllocatorImplINS_18casacore_allocatorINS_10MDirectionELm32EEEED1Ev@Base 3.2.1~
 _ZN8casacore17Allocator_private17BulkAllocatorImplINS_18casacore_allocatorINS_10MDirectionELm32EEEED2Ev@Base 3.2.1~
 _ZN8casacore17Allocator_private17BulkAllocatorImplINS_18casacore_allocatorINS_10MFrequencyELm32EEEE10deallocateEPS3_m@Base 3.2.1~
 _ZN8casacore17Allocator_private17BulkAllocatorImplINS_18casacore_allocatorINS_10MFrequencyELm32EEEE7destroyEPS3_m@Base 3.2.1~
 _ZN8casacore17Allocator_private17BulkAllocatorImplINS_18casacore_allocatorINS_10MFrequencyELm32EEEE8allocateEmPKv@Base 3.2.1~
 _ZN8casacore17Allocator_private17BulkAllocatorImplINS_18casacore_allocatorINS_10MFrequencyELm32EEEE9allocatorE@Base 3.2.1~
 _ZN8casacore17Allocator_private17BulkAllocatorImplINS_18casacore_allocatorINS_10MFrequencyELm32EEEE9constructEPS3_m@Base 3.2.1~
 _ZN8casacore17Allocator_private17BulkAllocatorImplINS_18casacore_allocatorINS_10MFrequencyELm32EEEE9constructEPS3_mPKS3_@Base 3.2.1~
 _ZN8casacore17Allocator_private17BulkAllocatorImplINS_18casacore_allocatorINS_10MFrequencyELm32EEEE9constructEPS3_mRKS3_@Base 3.2.1~
 _ZN8casacore17Allocator_private17BulkAllocatorImplINS_18casacore_allocatorINS_10MFrequencyELm32EEEED0Ev@Base 3.2.1~
 _ZN8casacore17Allocator_private17BulkAllocatorImplINS_18casacore_allocatorINS_10MFrequencyELm32EEEED1Ev@Base 3.2.1~
 _ZN8casacore17Allocator_private17BulkAllocatorImplINS_18casacore_allocatorINS_10MFrequencyELm32EEEED2Ev@Base 3.2.1~
 _ZN8casacore17Allocator_private17BulkAllocatorImplINS_18casacore_allocatorINS_11MVFrequencyELm32EEEE10deallocateEPS3_m@Base 3.2.1~
 _ZN8casacore17Allocator_private17BulkAllocatorImplINS_18casacore_allocatorINS_11MVFrequencyELm32EEEE7destroyEPS3_m@Base 3.2.1~
 _ZN8casacore17Allocator_private17BulkAllocatorImplINS_18casacore_allocatorINS_11MVFrequencyELm32EEEE8allocateEmPKv@Base 3.2.1~
 _ZN8casacore17Allocator_private17BulkAllocatorImplINS_18casacore_allocatorINS_11MVFrequencyELm32EEEE9allocatorE@Base 3.2.1~
 _ZN8casacore17Allocator_private17BulkAllocatorImplINS_18casacore_allocatorINS_11MVFrequencyELm32EEEE9constructEPS3_m@Base 3.2.1~
 _ZN8casacore17Allocator_private17BulkAllocatorImplINS_18casacore_allocatorINS_11MVFrequencyELm32EEEE9constructEPS3_mPKS3_@Base 3.2.1~
 _ZN8casacore17Allocator_private17BulkAllocatorImplINS_18casacore_allocatorINS_11MVFrequencyELm32EEEE9constructEPS3_mRKS3_@Base 3.2.1~
 _ZN8casacore17Allocator_private17BulkAllocatorImplINS_18casacore_allocatorINS_11MVFrequencyELm32EEEED0Ev@Base 3.2.1~
 _ZN8casacore17Allocator_private17BulkAllocatorImplINS_18casacore_allocatorINS_11MVFrequencyELm32EEEED1Ev@Base 3.2.1~
 _ZN8casacore17Allocator_private17BulkAllocatorImplINS_18casacore_allocatorINS_11MVFrequencyELm32EEEED2Ev@Base 3.2.1~
 _ZN8casacore17Allocator_private17BulkAllocatorImplINS_18casacore_allocatorINS_14MEarthMagneticELm32EEEE10deallocateEPS3_m@Base 3.2.1~
 _ZN8casacore17Allocator_private17BulkAllocatorImplINS_18casacore_allocatorINS_14MEarthMagneticELm32EEEE7destroyEPS3_m@Base 3.2.1~
 _ZN8casacore17Allocator_private17BulkAllocatorImplINS_18casacore_allocatorINS_14MEarthMagneticELm32EEEE8allocateEmPKv@Base 3.2.1~
 _ZN8casacore17Allocator_private17BulkAllocatorImplINS_18casacore_allocatorINS_14MEarthMagneticELm32EEEE9allocatorE@Base 3.2.1~
 _ZN8casacore17Allocator_private17BulkAllocatorImplINS_18casacore_allocatorINS_14MEarthMagneticELm32EEEE9constructEPS3_m@Base 3.2.1~
 _ZN8casacore17Allocator_private17BulkAllocatorImplINS_18casacore_allocatorINS_14MEarthMagneticELm32EEEE9constructEPS3_mPKS3_@Base 3.2.1~
 _ZN8casacore17Allocator_private17BulkAllocatorImplINS_18casacore_allocatorINS_14MEarthMagneticELm32EEEE9constructEPS3_mRKS3_@Base 3.2.1~
 _ZN8casacore17Allocator_private17BulkAllocatorImplINS_18casacore_allocatorINS_14MEarthMagneticELm32EEEED0Ev@Base 3.2.1~
 _ZN8casacore17Allocator_private17BulkAllocatorImplINS_18casacore_allocatorINS_14MEarthMagneticELm32EEEED1Ev@Base 3.2.1~
 _ZN8casacore17Allocator_private17BulkAllocatorImplINS_18casacore_allocatorINS_14MEarthMagneticELm32EEEED2Ev@Base 3.2.1~
 _ZN8casacore17Allocator_private17BulkAllocatorImplINS_18casacore_allocatorINS_15MRadialVelocityELm32EEEE10deallocateEPS3_m@Base 3.2.1~
 _ZN8casacore17Allocator_private17BulkAllocatorImplINS_18casacore_allocatorINS_15MRadialVelocityELm32EEEE7destroyEPS3_m@Base 3.2.1~
 _ZN8casacore17Allocator_private17BulkAllocatorImplINS_18casacore_allocatorINS_15MRadialVelocityELm32EEEE8allocateEmPKv@Base 3.2.1~
 _ZN8casacore17Allocator_private17BulkAllocatorImplINS_18casacore_allocatorINS_15MRadialVelocityELm32EEEE9allocatorE@Base 3.2.1~
 _ZN8casacore17Allocator_private17BulkAllocatorImplINS_18casacore_allocatorINS_15MRadialVelocityELm32EEEE9constructEPS3_m@Base 3.2.1~
 _ZN8casacore17Allocator_private17BulkAllocatorImplINS_18casacore_allocatorINS_15MRadialVelocityELm32EEEE9constructEPS3_mPKS3_@Base 3.2.1~
 _ZN8casacore17Allocator_private17BulkAllocatorImplINS_18casacore_allocatorINS_15MRadialVelocityELm32EEEE9constructEPS3_mRKS3_@Base 3.2.1~
 _ZN8casacore17Allocator_private17BulkAllocatorImplINS_18casacore_allocatorINS_15MRadialVelocityELm32EEEED0Ev@Base 3.2.1~
 _ZN8casacore17Allocator_private17BulkAllocatorImplINS_18casacore_allocatorINS_15MRadialVelocityELm32EEEED1Ev@Base 3.2.1~
 _ZN8casacore17Allocator_private17BulkAllocatorImplINS_18casacore_allocatorINS_15MRadialVelocityELm32EEEED2Ev@Base 3.2.1~
 _ZN8casacore17Allocator_private17BulkAllocatorImplINS_18casacore_allocatorINS_6MEpochELm32EEEE10deallocateEPS3_m@Base 3.2.1~
 _ZN8casacore17Allocator_private17BulkAllocatorImplINS_18casacore_allocatorINS_6MEpochELm32EEEE7destroyEPS3_m@Base 3.2.1~
 _ZN8casacore17Allocator_private17BulkAllocatorImplINS_18casacore_allocatorINS_6MEpochELm32EEEE8allocateEmPKv@Base 3.2.1~
 _ZN8casacore17Allocator_private17BulkAllocatorImplINS_18casacore_allocatorINS_6MEpochELm32EEEE9allocatorE@Base 3.2.1~
 _ZN8casacore17Allocator_private17BulkAllocatorImplINS_18casacore_allocatorINS_6MEpochELm32EEEE9constructEPS3_m@Base 3.2.1~
 _ZN8casacore17Allocator_private17BulkAllocatorImplINS_18casacore_allocatorINS_6MEpochELm32EEEE9constructEPS3_mPKS3_@Base 3.2.1~
 _ZN8casacore17Allocator_private17BulkAllocatorImplINS_18casacore_allocatorINS_6MEpochELm32EEEE9constructEPS3_mRKS3_@Base 3.2.1~
 _ZN8casacore17Allocator_private17BulkAllocatorImplINS_18casacore_allocatorINS_6MEpochELm32EEEED0Ev@Base 3.2.1~
 _ZN8casacore17Allocator_private17BulkAllocatorImplINS_18casacore_allocatorINS_6MEpochELm32EEEED1Ev@Base 3.2.1~
 _ZN8casacore17Allocator_private17BulkAllocatorImplINS_18casacore_allocatorINS_6MEpochELm32EEEED2Ev@Base 3.2.1~
 _ZN8casacore17Allocator_private17BulkAllocatorImplINS_18casacore_allocatorINS_6MVTimeELm32EEEE10deallocateEPS3_m@Base 3.2.1~
 _ZN8casacore17Allocator_private17BulkAllocatorImplINS_18casacore_allocatorINS_6MVTimeELm32EEEE7destroyEPS3_m@Base 3.2.1~
 _ZN8casacore17Allocator_private17BulkAllocatorImplINS_18casacore_allocatorINS_6MVTimeELm32EEEE8allocateEmPKv@Base 3.2.1~
 _ZN8casacore17Allocator_private17BulkAllocatorImplINS_18casacore_allocatorINS_6MVTimeELm32EEEE9allocatorE@Base 3.2.1~
 _ZN8casacore17Allocator_private17BulkAllocatorImplINS_18casacore_allocatorINS_6MVTimeELm32EEEE9constructEPS3_m@Base 3.2.1~
 _ZN8casacore17Allocator_private17BulkAllocatorImplINS_18casacore_allocatorINS_6MVTimeELm32EEEE9constructEPS3_mPKS3_@Base 3.2.1~
 _ZN8casacore17Allocator_private17BulkAllocatorImplINS_18casacore_allocatorINS_6MVTimeELm32EEEE9constructEPS3_mRKS3_@Base 3.2.1~
 _ZN8casacore17Allocator_private17BulkAllocatorImplINS_18casacore_allocatorINS_6MVTimeELm32EEEED0Ev@Base 3.2.1~
 _ZN8casacore17Allocator_private17BulkAllocatorImplINS_18casacore_allocatorINS_6MVTimeELm32EEEED1Ev@Base 3.2.1~
 _ZN8casacore17Allocator_private17BulkAllocatorImplINS_18casacore_allocatorINS_6MVTimeELm32EEEED2Ev@Base 3.2.1~
 _ZN8casacore17Allocator_private17BulkAllocatorImplINS_18casacore_allocatorINS_6StringELm32EEEE10deallocateEPS3_m@Base 3.2.1~
 _ZN8casacore17Allocator_private17BulkAllocatorImplINS_18casacore_allocatorINS_6StringELm32EEEE7destroyEPS3_m@Base 3.2.1~
 _ZN8casacore17Allocator_private17BulkAllocatorImplINS_18casacore_allocatorINS_6StringELm32EEEE8allocateEmPKv@Base 3.2.1~
 _ZN8casacore17Allocator_private17BulkAllocatorImplINS_18casacore_allocatorINS_6StringELm32EEEE9allocatorE@Base 3.2.1~
 _ZN8casacore17Allocator_private17BulkAllocatorImplINS_18casacore_allocatorINS_6StringELm32EEEE9constructEPS3_m@Base 3.2.1~
 _ZN8casacore17Allocator_private17BulkAllocatorImplINS_18casacore_allocatorINS_6StringELm32EEEE9constructEPS3_mPKS3_@Base 3.2.1~
 _ZN8casacore17Allocator_private17BulkAllocatorImplINS_18casacore_allocatorINS_6StringELm32EEEE9constructEPS3_mRKS3_@Base 3.2.1~
 _ZN8casacore17Allocator_private17BulkAllocatorImplINS_18casacore_allocatorINS_6StringELm32EEEED0Ev@Base 3.2.1~
 _ZN8casacore17Allocator_private17BulkAllocatorImplINS_18casacore_allocatorINS_6StringELm32EEEED1Ev@Base 3.2.1~
 _ZN8casacore17Allocator_private17BulkAllocatorImplINS_18casacore_allocatorINS_6StringELm32EEEED2Ev@Base 3.2.1~
 _ZN8casacore17Allocator_private17BulkAllocatorImplINS_18casacore_allocatorINS_7QuantumIdEELm32EEEE10deallocateEPS4_m@Base 3.2.1~
 _ZN8casacore17Allocator_private17BulkAllocatorImplINS_18casacore_allocatorINS_7QuantumIdEELm32EEEE7destroyEPS4_m@Base 3.2.1~
 _ZN8casacore17Allocator_private17BulkAllocatorImplINS_18casacore_allocatorINS_7QuantumIdEELm32EEEE8allocateEmPKv@Base 3.2.1~
 _ZN8casacore17Allocator_private17BulkAllocatorImplINS_18casacore_allocatorINS_7QuantumIdEELm32EEEE9allocatorE@Base 3.2.1~
 _ZN8casacore17Allocator_private17BulkAllocatorImplINS_18casacore_allocatorINS_7QuantumIdEELm32EEEE9constructEPS4_m@Base 3.2.1~
 _ZN8casacore17Allocator_private17BulkAllocatorImplINS_18casacore_allocatorINS_7QuantumIdEELm32EEEE9constructEPS4_mPKS4_@Base 3.2.1~
 _ZN8casacore17Allocator_private17BulkAllocatorImplINS_18casacore_allocatorINS_7QuantumIdEELm32EEEE9constructEPS4_mRKS4_@Base 3.2.1~
 _ZN8casacore17Allocator_private17BulkAllocatorImplINS_18casacore_allocatorINS_7QuantumIdEELm32EEEED0Ev@Base 3.2.1~
 _ZN8casacore17Allocator_private17BulkAllocatorImplINS_18casacore_allocatorINS_7QuantumIdEELm32EEEED1Ev@Base 3.2.1~
 _ZN8casacore17Allocator_private17BulkAllocatorImplINS_18casacore_allocatorINS_7QuantumIdEELm32EEEED2Ev@Base 3.2.1~
 _ZN8casacore17Allocator_private17BulkAllocatorImplINS_18casacore_allocatorINS_8MDopplerELm32EEEE10deallocateEPS3_m@Base 3.2.1~
 _ZN8casacore17Allocator_private17BulkAllocatorImplINS_18casacore_allocatorINS_8MDopplerELm32EEEE7destroyEPS3_m@Base 3.2.1~
 _ZN8casacore17Allocator_private17BulkAllocatorImplINS_18casacore_allocatorINS_8MDopplerELm32EEEE8allocateEmPKv@Base 3.2.1~
 _ZN8casacore17Allocator_private17BulkAllocatorImplINS_18casacore_allocatorINS_8MDopplerELm32EEEE9allocatorE@Base 3.2.1~
 _ZN8casacore17Allocator_private17BulkAllocatorImplINS_18casacore_allocatorINS_8MDopplerELm32EEEE9constructEPS3_m@Base 3.2.1~
 _ZN8casacore17Allocator_private17BulkAllocatorImplINS_18casacore_allocatorINS_8MDopplerELm32EEEE9constructEPS3_mPKS3_@Base 3.2.1~
 _ZN8casacore17Allocator_private17BulkAllocatorImplINS_18casacore_allocatorINS_8MDopplerELm32EEEE9constructEPS3_mRKS3_@Base 3.2.1~
 _ZN8casacore17Allocator_private17BulkAllocatorImplINS_18casacore_allocatorINS_8MDopplerELm32EEEED0Ev@Base 3.2.1~
 _ZN8casacore17Allocator_private17BulkAllocatorImplINS_18casacore_allocatorINS_8MDopplerELm32EEEED1Ev@Base 3.2.1~
 _ZN8casacore17Allocator_private17BulkAllocatorImplINS_18casacore_allocatorINS_8MDopplerELm32EEEED2Ev@Base 3.2.1~
 _ZN8casacore17Allocator_private17BulkAllocatorImplINS_18casacore_allocatorINS_9MPositionELm32EEEE10deallocateEPS3_m@Base 3.2.1~
 _ZN8casacore17Allocator_private17BulkAllocatorImplINS_18casacore_allocatorINS_9MPositionELm32EEEE7destroyEPS3_m@Base 3.2.1~
 _ZN8casacore17Allocator_private17BulkAllocatorImplINS_18casacore_allocatorINS_9MPositionELm32EEEE8allocateEmPKv@Base 3.2.1~
 _ZN8casacore17Allocator_private17BulkAllocatorImplINS_18casacore_allocatorINS_9MPositionELm32EEEE9allocatorE@Base 3.2.1~
 _ZN8casacore17Allocator_private17BulkAllocatorImplINS_18casacore_allocatorINS_9MPositionELm32EEEE9constructEPS3_m@Base 3.2.1~
 _ZN8casacore17Allocator_private17BulkAllocatorImplINS_18casacore_allocatorINS_9MPositionELm32EEEE9constructEPS3_mPKS3_@Base 3.2.1~
 _ZN8casacore17Allocator_private17BulkAllocatorImplINS_18casacore_allocatorINS_9MPositionELm32EEEE9constructEPS3_mRKS3_@Base 3.2.1~
 _ZN8casacore17Allocator_private17BulkAllocatorImplINS_18casacore_allocatorINS_9MPositionELm32EEEED0Ev@Base 3.2.1~
 _ZN8casacore17Allocator_private17BulkAllocatorImplINS_18casacore_allocatorINS_9MPositionELm32EEEED1Ev@Base 3.2.1~
 _ZN8casacore17Allocator_private17BulkAllocatorImplINS_18casacore_allocatorINS_9MPositionELm32EEEED2Ev@Base 3.2.1~
 _ZN8casacore17Allocator_private17BulkAllocatorImplINS_18casacore_allocatorIPNS_6SlicerELm32EEEE10deallocateEPS4_m@Base 3.2.1~
 _ZN8casacore17Allocator_private17BulkAllocatorImplINS_18casacore_allocatorIPNS_6SlicerELm32EEEE7destroyEPS4_m@Base 3.2.1~
 _ZN8casacore17Allocator_private17BulkAllocatorImplINS_18casacore_allocatorIPNS_6SlicerELm32EEEE8allocateEmPKv@Base 3.2.1~
 _ZN8casacore17Allocator_private17BulkAllocatorImplINS_18casacore_allocatorIPNS_6SlicerELm32EEEE9allocatorE@Base 3.2.1~
 _ZN8casacore17Allocator_private17BulkAllocatorImplINS_18casacore_allocatorIPNS_6SlicerELm32EEEE9constructEPS4_m@Base 3.2.1~
 _ZN8casacore17Allocator_private17BulkAllocatorImplINS_18casacore_allocatorIPNS_6SlicerELm32EEEE9constructEPS4_mPKS4_@Base 3.2.1~
 _ZN8casacore17Allocator_private17BulkAllocatorImplINS_18casacore_allocatorIPNS_6SlicerELm32EEEE9constructEPS4_mRKS4_@Base 3.2.1~
 _ZN8casacore17Allocator_private17BulkAllocatorImplINS_18casacore_allocatorIPNS_6SlicerELm32EEEED0Ev@Base 3.2.1~
 _ZN8casacore17Allocator_private17BulkAllocatorImplINS_18casacore_allocatorIPNS_6SlicerELm32EEEED1Ev@Base 3.2.1~
 _ZN8casacore17Allocator_private17BulkAllocatorImplINS_18casacore_allocatorIPNS_6SlicerELm32EEEED2Ev@Base 3.2.1~
 _ZN8casacore17Allocator_private17BulkAllocatorImplINS_18casacore_allocatorIjLm32EEEE10deallocateEPjm@Base 3.2.1~
 _ZN8casacore17Allocator_private17BulkAllocatorImplINS_18casacore_allocatorIjLm32EEEE7destroyEPjm@Base 3.2.1~
 _ZN8casacore17Allocator_private17BulkAllocatorImplINS_18casacore_allocatorIjLm32EEEE8allocateEmPKv@Base 3.2.1~
 _ZN8casacore17Allocator_private17BulkAllocatorImplINS_18casacore_allocatorIjLm32EEEE9allocatorE@Base 3.2.1~
 _ZN8casacore17Allocator_private17BulkAllocatorImplINS_18casacore_allocatorIjLm32EEEE9constructEPjm@Base 3.2.1~
 _ZN8casacore17Allocator_private17BulkAllocatorImplINS_18casacore_allocatorIjLm32EEEE9constructEPjmPKj@Base 3.2.1~
 _ZN8casacore17Allocator_private17BulkAllocatorImplINS_18casacore_allocatorIjLm32EEEE9constructEPjmRKj@Base 3.2.1~
 _ZN8casacore17Allocator_private17BulkAllocatorImplINS_18casacore_allocatorIjLm32EEEED0Ev@Base 3.2.1~
 _ZN8casacore17Allocator_private17BulkAllocatorImplINS_18casacore_allocatorIjLm32EEEED1Ev@Base 3.2.1~
 _ZN8casacore17Allocator_private17BulkAllocatorImplINS_18casacore_allocatorIjLm32EEEED2Ev@Base 3.2.1~
 _ZN8casacore17RadialVelocityUDF10makeRADVELERKNS_6StringE@Base 3.2.1~
 _ZN8casacore17RadialVelocityUDF10tryDopplerERj@Base 3.2.1~
 _ZN8casacore17RadialVelocityUDF14getArrayDoubleERKNS_11TableExprIdE@Base 3.2.1~
 _ZN8casacore17RadialVelocityUDF5setupERKNS_5TableERKNS_9TaQLStyleE@Base 3.2.1~
 _ZN8casacore17RadialVelocityUDF9getDoubleERKNS_11TableExprIdE@Base 3.2.1~
 _ZN8casacore17RadialVelocityUDFC1Ev@Base 3.2.1~
 _ZN8casacore17RadialVelocityUDFC2Ev@Base 3.2.1~
 _ZN8casacore17RadialVelocityUDFD0Ev@Base 3.2.1~
 _ZN8casacore17RadialVelocityUDFD1Ev@Base 3.2.1~
 _ZN8casacore17RadialVelocityUDFD2Ev@Base 3.2.1~
 _ZN8casacore17new_del_allocatorINS_10MDirectionEED1Ev@Base 3.2.1~
 _ZN8casacore17new_del_allocatorINS_10MDirectionEED2Ev@Base 3.2.1~
 _ZN8casacore17new_del_allocatorINS_10MFrequencyEED1Ev@Base 3.2.1~
 _ZN8casacore17new_del_allocatorINS_10MFrequencyEED2Ev@Base 3.2.1~
 _ZN8casacore17new_del_allocatorINS_11MVFrequencyEED1Ev@Base 3.2.1~
 _ZN8casacore17new_del_allocatorINS_11MVFrequencyEED2Ev@Base 3.2.1~
 _ZN8casacore17new_del_allocatorINS_14MEarthMagneticEED1Ev@Base 3.2.1~
 _ZN8casacore17new_del_allocatorINS_14MEarthMagneticEED2Ev@Base 3.2.1~
 _ZN8casacore17new_del_allocatorINS_15MRadialVelocityEED1Ev@Base 3.2.1~
 _ZN8casacore17new_del_allocatorINS_15MRadialVelocityEED2Ev@Base 3.2.1~
 _ZN8casacore17new_del_allocatorINS_6MEpochEED1Ev@Base 3.2.1~
 _ZN8casacore17new_del_allocatorINS_6MEpochEED2Ev@Base 3.2.1~
 _ZN8casacore17new_del_allocatorINS_6MVTimeEED1Ev@Base 3.2.1~
 _ZN8casacore17new_del_allocatorINS_6MVTimeEED2Ev@Base 3.2.1~
 _ZN8casacore17new_del_allocatorINS_7QuantumIdEEED1Ev@Base 3.2.1~
 _ZN8casacore17new_del_allocatorINS_7QuantumIdEEED2Ev@Base 3.2.1~
 _ZN8casacore17new_del_allocatorINS_8MDopplerEED1Ev@Base 3.2.1~
 _ZN8casacore17new_del_allocatorINS_8MDopplerEED2Ev@Base 3.2.1~
 _ZN8casacore17new_del_allocatorINS_9MPositionEED1Ev@Base 3.2.1~
 _ZN8casacore17new_del_allocatorINS_9MPositionEED2Ev@Base 3.2.1~
 _ZN8casacore17new_del_allocatorIPNS_6SlicerEED1Ev@Base 3.2.1~
 _ZN8casacore17new_del_allocatorIPNS_6SlicerEED2Ev@Base 3.2.1~
 _ZN8casacore18casacore_allocatorINS_10MDirectionELm32EED1Ev@Base 3.2.1~
 _ZN8casacore18casacore_allocatorINS_10MDirectionELm32EED2Ev@Base 3.2.1~
 _ZN8casacore18casacore_allocatorINS_10MFrequencyELm32EED1Ev@Base 3.2.1~
 _ZN8casacore18casacore_allocatorINS_10MFrequencyELm32EED2Ev@Base 3.2.1~
 _ZN8casacore18casacore_allocatorINS_11MVFrequencyELm32EED1Ev@Base 3.2.1~
 _ZN8casacore18casacore_allocatorINS_11MVFrequencyELm32EED2Ev@Base 3.2.1~
 _ZN8casacore18casacore_allocatorINS_14MEarthMagneticELm32EED1Ev@Base 3.2.1~
 _ZN8casacore18casacore_allocatorINS_14MEarthMagneticELm32EED2Ev@Base 3.2.1~
 _ZN8casacore18casacore_allocatorINS_15MRadialVelocityELm32EED1Ev@Base 3.2.1~
 _ZN8casacore18casacore_allocatorINS_15MRadialVelocityELm32EED2Ev@Base 3.2.1~
 _ZN8casacore18casacore_allocatorINS_6MEpochELm32EED1Ev@Base 3.2.1~
 _ZN8casacore18casacore_allocatorINS_6MEpochELm32EED2Ev@Base 3.2.1~
 _ZN8casacore18casacore_allocatorINS_6MVTimeELm32EED1Ev@Base 3.2.1~
 _ZN8casacore18casacore_allocatorINS_6MVTimeELm32EED2Ev@Base 3.2.1~
 _ZN8casacore18casacore_allocatorINS_6StringELm32EED1Ev@Base 3.2.1~
 _ZN8casacore18casacore_allocatorINS_6StringELm32EED2Ev@Base 3.2.1~
 _ZN8casacore18casacore_allocatorINS_7QuantumIdEELm32EED1Ev@Base 3.2.1~
 _ZN8casacore18casacore_allocatorINS_7QuantumIdEELm32EED2Ev@Base 3.2.1~
 _ZN8casacore18casacore_allocatorINS_8MDopplerELm32EED1Ev@Base 3.2.1~
 _ZN8casacore18casacore_allocatorINS_8MDopplerELm32EED2Ev@Base 3.2.1~
 _ZN8casacore18casacore_allocatorINS_9MPositionELm32EED1Ev@Base 3.2.1~
 _ZN8casacore18casacore_allocatorINS_9MPositionELm32EED2Ev@Base 3.2.1~
 _ZN8casacore18casacore_allocatorIPNS_6SlicerELm32EED1Ev@Base 3.2.1~
 _ZN8casacore18casacore_allocatorIPNS_6SlicerELm32EED2Ev@Base 3.2.1~
 _ZN8casacore18casacore_allocatorIjLm32EED1Ev@Base 3.2.1~
 _ZN8casacore18casacore_allocatorIjLm32EED2Ev@Base 3.2.1~
 _ZN8casacore19EarthMagneticEngine10deriveAttrERKNS_4UnitEi@Base 3.2.1~
 _ZN8casacore19EarthMagneticEngine10getHeightsERKNS_11TableExprIdE@Base 3.2.1~
 _ZN8casacore19EarthMagneticEngine12handleHeightERNS_10CountedPtrINS_16TableExprNodeRepEEE@Base 3.2.1~
 _ZN8casacore19EarthMagneticEngine12handleValuesERNS_13TableExprNodeERKNS_11TableExprIdERNS_5ArrayINS_14MEarthMagneticEEE@Base 3.2.1~
 _ZN8casacore19EarthMagneticEngine12setValueTypeEi@Base 3.2.1~
 _ZN8casacore19EarthMagneticEngine13handleScalarsERKNS_10CountedPtrINS_16TableExprNodeRepEEES5_S5_@Base 3.2.1~
 _ZN8casacore19EarthMagneticEngine13stripMeasTypeERKNS_6StringE@Base 3.2.1~
 _ZN8casacore19EarthMagneticEngine14getArrayDoubleERKNS_11TableExprIdE@Base 3.2.1~
 _ZN8casacore19EarthMagneticEngine14setEpochEngineERNS_11EpochEngineE@Base 3.2.1~
 _ZN8casacore19EarthMagneticEngine17getEarthMagneticsERKNS_11TableExprIdE@Base 3.2.1~
 _ZN8casacore19EarthMagneticEngine17setPositionEngineERNS_14PositionEngineE@Base 3.2.1~
 _ZN8casacore19EarthMagneticEngine18setDirectionEngineERNS_15DirectionEngineE@Base 3.2.1~
 _ZN8casacore19EarthMagneticEngine19handleEarthMagneticERSt6vectorINS_10CountedPtrINS_16TableExprNodeRepEEESaIS4_EERj@Base 3.2.1~
 _ZN8casacore19EarthMagneticEngine3setENS_14MEarthMagnetic5TypesEibbb@Base 3.2.1~
 _ZN8casacore19EarthMagneticEngine6copyEMERKNS_15MVEarthMagneticERPd@Base 3.2.1~
 _ZN8casacore19EarthMagneticEngine8copyLLEMERNS_20EarthMagneticMachineERPd@Base 3.2.1~
 _ZN8casacore19EarthMagneticEngineC1Ev@Base 3.2.1~
 _ZN8casacore19EarthMagneticEngineC2Ev@Base 3.2.1~
 _ZN8casacore19EarthMagneticEngineD0Ev@Base 3.2.1~
 _ZN8casacore19EarthMagneticEngineD1Ev@Base 3.2.1~
 _ZN8casacore19EarthMagneticEngineD2Ev@Base 3.2.1~
 _ZN8casacore20RadialVelocityEngine12handleValuesERNS_13TableExprNodeERKNS_11TableExprIdERNS_5ArrayINS_15MRadialVelocityEEE@Base 3.2.1~
 _ZN8casacore20RadialVelocityEngine12setConverterENS_15MRadialVelocity5TypesE@Base 3.2.1~
 _ZN8casacore20RadialVelocityEngine14getArrayDoubleERKNS_11TableExprIdE@Base 3.2.1~
 _ZN8casacore20RadialVelocityEngine14setEpochEngineERNS_11EpochEngineE@Base 3.2.1~
 _ZN8casacore20RadialVelocityEngine16setDopplerEngineERNS_13DopplerEngineE@Base 3.2.1~
 _ZN8casacore20RadialVelocityEngine17setPositionEngineERNS_14PositionEngineE@Base 3.2.1~
 _ZN8casacore20RadialVelocityEngine18setDirectionEngineERNS_15DirectionEngineE@Base 3.2.1~
 _ZN8casacore20RadialVelocityEngine19getRadialVelocitiesERKNS_11TableExprIdE@Base 3.2.1~
 _ZN8casacore20RadialVelocityEngine20handleRadialVelocityERSt6vectorINS_10CountedPtrINS_16TableExprNodeRepEEESaIS4_EERj@Base 3.2.1~
 _ZN8casacore20RadialVelocityEngineC1Ev@Base 3.2.1~
 _ZN8casacore20RadialVelocityEngineC2Ev@Base 3.2.1~
 _ZN8casacore20RadialVelocityEngineD0Ev@Base 3.2.1~
 _ZN8casacore20RadialVelocityEngineD1Ev@Base 3.2.1~
 _ZN8casacore20RadialVelocityEngineD2Ev@Base 3.2.1~
 _ZN8casacore21ArrayPositionIteratorD0Ev@Base 3.2.1~
 _ZN8casacore21ArrayPositionIteratorD1Ev@Base 3.2.1~
 _ZN8casacore21ArrayPositionIteratorD2Ev@Base 3.2.1~
 _ZN8casacore26UnitVal_static_initializerC1Ev@Base 3.2.1~
 _ZN8casacore26UnitVal_static_initializerC2Ev@Base 3.2.1~
 _ZN8casacore5ArrayINS_10MDirectionEE10assignBaseERKNS_9ArrayBaseEb@Base 3.2.1~
 _ZN8casacore5ArrayINS_10MDirectionEE10getStorageERb@Base 3.2.1~
 _ZN8casacore5ArrayINS_10MDirectionEE10putStorageERPS1_b@Base 3.2.1~
 _ZN8casacore5ArrayINS_10MDirectionEE11getVStorageERb@Base 3.2.1~
 _ZN8casacore5ArrayINS_10MDirectionEE11putVStorageERPvb@Base 3.2.1~
 _ZN8casacore5ArrayINS_10MDirectionEE11takeStorageERKNS_9IPositionEPKS1_@Base 3.2.1~
 _ZN8casacore5ArrayINS_10MDirectionEE11takeStorageERKNS_9IPositionEPKS1_RKNS_17AbstractAllocatorIS1_EE@Base 3.2.1~
 _ZN8casacore5ArrayINS_10MDirectionEE11takeStorageERKNS_9IPositionEPS1_NS_17StorageInitPolicyE@Base 3.2.1~
 _ZN8casacore5ArrayINS_10MDirectionEE11takeStorageERKNS_9IPositionEPS1_NS_17StorageInitPolicyERKNS_17AbstractAllocatorIS1_EE@Base 3.2.1~
 _ZN8casacore5ArrayINS_10MDirectionEE14preTakeStorageERKNS_9IPositionE@Base 3.2.1~
 _ZN8casacore5ArrayINS_10MDirectionEE15BaseIteratorSTL9incrementEv@Base 3.2.1~
 _ZN8casacore5ArrayINS_10MDirectionEE15BaseIteratorSTLC1ERKS2_@Base 3.2.1~
 _ZN8casacore5ArrayINS_10MDirectionEE15BaseIteratorSTLC2ERKS2_@Base 3.2.1~
 _ZN8casacore5ArrayINS_10MDirectionEE15doNonDegenerateERKS2_RKNS_9IPositionE@Base 3.2.1~
 _ZN8casacore5ArrayINS_10MDirectionEE15postTakeStorageEv@Base 3.2.1~
 _ZN8casacore5ArrayINS_10MDirectionEE16copyMatchingPartERKS2_@Base 3.2.1~
 _ZN8casacore5ArrayINS_10MDirectionEE23copyToContiguousStorageEPS1_RKS2_NS_15ArrayInitPolicyE@Base 3.2.1~
 _ZN8casacore5ArrayINS_10MDirectionEE6assignERKS2_@Base 3.2.1~
 _ZN8casacore5ArrayINS_10MDirectionEE6resizeERKNS_9IPositionEb@Base 3.2.1~
 _ZN8casacore5ArrayINS_10MDirectionEE6resizeERKNS_9IPositionEbNS_15ArrayInitPolicyE@Base 3.2.1~
 _ZN8casacore5ArrayINS_10MDirectionEE6resizeEv@Base 3.2.1~
 _ZN8casacore5ArrayINS_10MDirectionEE9referenceERKS2_@Base 3.2.1~
 _ZN8casacore5ArrayINS_10MDirectionEEC1ERKNS_9IPositionENS_15ArrayInitPolicyEPNS_17Allocator_private13BulkAllocatorIS1_EE@Base 3.2.1~
 _ZN8casacore5ArrayINS_10MDirectionEEC1ERKS2_@Base 3.2.1~
 _ZN8casacore5ArrayINS_10MDirectionEEC1Ev@Base 3.2.1~
 _ZN8casacore5ArrayINS_10MDirectionEEC2ERKNS_9IPositionENS_15ArrayInitPolicyEPNS_17Allocator_private13BulkAllocatorIS1_EE@Base 3.2.1~
 _ZN8casacore5ArrayINS_10MDirectionEEC2ERKS2_@Base 3.2.1~
 _ZN8casacore5ArrayINS_10MDirectionEEC2Ev@Base 3.2.1~
 _ZN8casacore5ArrayINS_10MDirectionEED0Ev@Base 3.2.1~
 _ZN8casacore5ArrayINS_10MDirectionEED1Ev@Base 3.2.1~
 _ZN8casacore5ArrayINS_10MDirectionEED2Ev@Base 3.2.1~
 _ZN8casacore5ArrayINS_10MDirectionEEaSERKS2_@Base 3.2.1~
 _ZN8casacore5ArrayINS_10MDirectionEEclERKNS_6SlicerE@Base 3.2.1~
 _ZN8casacore5ArrayINS_10MDirectionEEclERKNS_9IPositionES5_@Base 3.2.1~
 _ZN8casacore5ArrayINS_10MDirectionEEclERKNS_9IPositionES5_S5_@Base 3.2.1~
 _ZN8casacore5ArrayINS_10MFrequencyEE10assignBaseERKNS_9ArrayBaseEb@Base 3.2.1~
 _ZN8casacore5ArrayINS_10MFrequencyEE10getStorageERb@Base 3.2.1~
 _ZN8casacore5ArrayINS_10MFrequencyEE10putStorageERPS1_b@Base 3.2.1~
 _ZN8casacore5ArrayINS_10MFrequencyEE11getVStorageERb@Base 3.2.1~
 _ZN8casacore5ArrayINS_10MFrequencyEE11putVStorageERPvb@Base 3.2.1~
 _ZN8casacore5ArrayINS_10MFrequencyEE11takeStorageERKNS_9IPositionEPKS1_@Base 3.2.1~
 _ZN8casacore5ArrayINS_10MFrequencyEE11takeStorageERKNS_9IPositionEPKS1_RKNS_17AbstractAllocatorIS1_EE@Base 3.2.1~
 _ZN8casacore5ArrayINS_10MFrequencyEE11takeStorageERKNS_9IPositionEPS1_NS_17StorageInitPolicyE@Base 3.2.1~
 _ZN8casacore5ArrayINS_10MFrequencyEE11takeStorageERKNS_9IPositionEPS1_NS_17StorageInitPolicyERKNS_17AbstractAllocatorIS1_EE@Base 3.2.1~
 _ZN8casacore5ArrayINS_10MFrequencyEE14preTakeStorageERKNS_9IPositionE@Base 3.2.1~
 _ZN8casacore5ArrayINS_10MFrequencyEE15BaseIteratorSTL9incrementEv@Base 3.2.1~
 _ZN8casacore5ArrayINS_10MFrequencyEE15BaseIteratorSTLC1ERKS2_@Base 3.2.1~
 _ZN8casacore5ArrayINS_10MFrequencyEE15BaseIteratorSTLC2ERKS2_@Base 3.2.1~
 _ZN8casacore5ArrayINS_10MFrequencyEE15doNonDegenerateERKS2_RKNS_9IPositionE@Base 3.2.1~
 _ZN8casacore5ArrayINS_10MFrequencyEE15postTakeStorageEv@Base 3.2.1~
 _ZN8casacore5ArrayINS_10MFrequencyEE16copyMatchingPartERKS2_@Base 3.2.1~
 _ZN8casacore5ArrayINS_10MFrequencyEE23copyToContiguousStorageEPS1_RKS2_NS_15ArrayInitPolicyE@Base 3.2.1~
 _ZN8casacore5ArrayINS_10MFrequencyEE6assignERKS2_@Base 3.2.1~
 _ZN8casacore5ArrayINS_10MFrequencyEE6resizeERKNS_9IPositionEb@Base 3.2.1~
 _ZN8casacore5ArrayINS_10MFrequencyEE6resizeERKNS_9IPositionEbNS_15ArrayInitPolicyE@Base 3.2.1~
 _ZN8casacore5ArrayINS_10MFrequencyEE6resizeEv@Base 3.2.1~
 _ZN8casacore5ArrayINS_10MFrequencyEE9referenceERKS2_@Base 3.2.1~
 _ZN8casacore5ArrayINS_10MFrequencyEEC1ERKNS_9IPositionENS_15ArrayInitPolicyEPNS_17Allocator_private13BulkAllocatorIS1_EE@Base 3.2.1~
 _ZN8casacore5ArrayINS_10MFrequencyEEC1ERKNS_9IPositionERKS1_@Base 3.2.1~
 _ZN8casacore5ArrayINS_10MFrequencyEEC1ERKS2_@Base 3.2.1~
 _ZN8casacore5ArrayINS_10MFrequencyEEC1Ev@Base 3.2.1~
 _ZN8casacore5ArrayINS_10MFrequencyEEC2ERKNS_9IPositionENS_15ArrayInitPolicyEPNS_17Allocator_private13BulkAllocatorIS1_EE@Base 3.2.1~
 _ZN8casacore5ArrayINS_10MFrequencyEEC2ERKNS_9IPositionERKS1_@Base 3.2.1~
 _ZN8casacore5ArrayINS_10MFrequencyEEC2ERKS2_@Base 3.2.1~
 _ZN8casacore5ArrayINS_10MFrequencyEEC2Ev@Base 3.2.1~
 _ZN8casacore5ArrayINS_10MFrequencyEED0Ev@Base 3.2.1~
 _ZN8casacore5ArrayINS_10MFrequencyEED1Ev@Base 3.2.1~
 _ZN8casacore5ArrayINS_10MFrequencyEED2Ev@Base 3.2.1~
 _ZN8casacore5ArrayINS_10MFrequencyEEaSERKS2_@Base 3.2.1~
 _ZN8casacore5ArrayINS_10MFrequencyEEclERKNS_6SlicerE@Base 3.2.1~
 _ZN8casacore5ArrayINS_10MFrequencyEEclERKNS_9IPositionES5_@Base 3.2.1~
 _ZN8casacore5ArrayINS_10MFrequencyEEclERKNS_9IPositionES5_S5_@Base 3.2.1~
 _ZN8casacore5ArrayINS_11MVFrequencyEE10assignBaseERKNS_9ArrayBaseEb@Base 3.2.1~
 _ZN8casacore5ArrayINS_11MVFrequencyEE10getStorageERb@Base 3.2.1~
 _ZN8casacore5ArrayINS_11MVFrequencyEE10putStorageERPS1_b@Base 3.2.1~
 _ZN8casacore5ArrayINS_11MVFrequencyEE11getVStorageERb@Base 3.2.1~
 _ZN8casacore5ArrayINS_11MVFrequencyEE11putVStorageERPvb@Base 3.2.1~
 _ZN8casacore5ArrayINS_11MVFrequencyEE11takeStorageERKNS_9IPositionEPKS1_@Base 3.2.1~
 _ZN8casacore5ArrayINS_11MVFrequencyEE11takeStorageERKNS_9IPositionEPKS1_RKNS_17AbstractAllocatorIS1_EE@Base 3.2.1~
 _ZN8casacore5ArrayINS_11MVFrequencyEE11takeStorageERKNS_9IPositionEPS1_NS_17StorageInitPolicyE@Base 3.2.1~
 _ZN8casacore5ArrayINS_11MVFrequencyEE11takeStorageERKNS_9IPositionEPS1_NS_17StorageInitPolicyERKNS_17AbstractAllocatorIS1_EE@Base 3.2.1~
 _ZN8casacore5ArrayINS_11MVFrequencyEE14preTakeStorageERKNS_9IPositionE@Base 3.2.1~
 _ZN8casacore5ArrayINS_11MVFrequencyEE15BaseIteratorSTL9incrementEv@Base 3.2.1~
 _ZN8casacore5ArrayINS_11MVFrequencyEE15BaseIteratorSTLC1ERKS2_@Base 3.2.1~
 _ZN8casacore5ArrayINS_11MVFrequencyEE15BaseIteratorSTLC2ERKS2_@Base 3.2.1~
 _ZN8casacore5ArrayINS_11MVFrequencyEE15doNonDegenerateERKS2_RKNS_9IPositionE@Base 3.2.1~
 _ZN8casacore5ArrayINS_11MVFrequencyEE15postTakeStorageEv@Base 3.2.1~
 _ZN8casacore5ArrayINS_11MVFrequencyEE16copyMatchingPartERKS2_@Base 3.2.1~
 _ZN8casacore5ArrayINS_11MVFrequencyEE23copyToContiguousStorageEPS1_RKS2_NS_15ArrayInitPolicyE@Base 3.2.1~
 _ZN8casacore5ArrayINS_11MVFrequencyEE6assignERKS2_@Base 3.2.1~
 _ZN8casacore5ArrayINS_11MVFrequencyEE6resizeERKNS_9IPositionEb@Base 3.2.1~
 _ZN8casacore5ArrayINS_11MVFrequencyEE6resizeERKNS_9IPositionEbNS_15ArrayInitPolicyE@Base 3.2.1~
 _ZN8casacore5ArrayINS_11MVFrequencyEE6resizeEv@Base 3.2.1~
 _ZN8casacore5ArrayINS_11MVFrequencyEE9referenceERKS2_@Base 3.2.1~
 _ZN8casacore5ArrayINS_11MVFrequencyEEC1ERKNS_9IPositionENS_15ArrayInitPolicyEPNS_17Allocator_private13BulkAllocatorIS1_EE@Base 3.2.1~
 _ZN8casacore5ArrayINS_11MVFrequencyEEC1ERKS2_@Base 3.2.1~
 _ZN8casacore5ArrayINS_11MVFrequencyEEC1Ev@Base 3.2.1~
 _ZN8casacore5ArrayINS_11MVFrequencyEEC2ERKNS_9IPositionENS_15ArrayInitPolicyEPNS_17Allocator_private13BulkAllocatorIS1_EE@Base 3.2.1~
 _ZN8casacore5ArrayINS_11MVFrequencyEEC2ERKS2_@Base 3.2.1~
 _ZN8casacore5ArrayINS_11MVFrequencyEEC2Ev@Base 3.2.1~
 _ZN8casacore5ArrayINS_11MVFrequencyEED0Ev@Base 3.2.1~
 _ZN8casacore5ArrayINS_11MVFrequencyEED1Ev@Base 3.2.1~
 _ZN8casacore5ArrayINS_11MVFrequencyEED2Ev@Base 3.2.1~
 _ZN8casacore5ArrayINS_11MVFrequencyEEaSERKS2_@Base 3.2.1~
 _ZN8casacore5ArrayINS_11MVFrequencyEEclERKNS_6SlicerE@Base 3.2.1~
 _ZN8casacore5ArrayINS_11MVFrequencyEEclERKNS_9IPositionES5_@Base 3.2.1~
 _ZN8casacore5ArrayINS_11MVFrequencyEEclERKNS_9IPositionES5_S5_@Base 3.2.1~
 _ZN8casacore5ArrayINS_14MEarthMagneticEE10assignBaseERKNS_9ArrayBaseEb@Base 3.2.1~
 _ZN8casacore5ArrayINS_14MEarthMagneticEE10getStorageERb@Base 3.2.1~
 _ZN8casacore5ArrayINS_14MEarthMagneticEE10putStorageERPS1_b@Base 3.2.1~
 _ZN8casacore5ArrayINS_14MEarthMagneticEE11getVStorageERb@Base 3.2.1~
 _ZN8casacore5ArrayINS_14MEarthMagneticEE11putVStorageERPvb@Base 3.2.1~
 _ZN8casacore5ArrayINS_14MEarthMagneticEE11takeStorageERKNS_9IPositionEPKS1_@Base 3.2.1~
 _ZN8casacore5ArrayINS_14MEarthMagneticEE11takeStorageERKNS_9IPositionEPKS1_RKNS_17AbstractAllocatorIS1_EE@Base 3.2.1~
 _ZN8casacore5ArrayINS_14MEarthMagneticEE11takeStorageERKNS_9IPositionEPS1_NS_17StorageInitPolicyE@Base 3.2.1~
 _ZN8casacore5ArrayINS_14MEarthMagneticEE11takeStorageERKNS_9IPositionEPS1_NS_17StorageInitPolicyERKNS_17AbstractAllocatorIS1_EE@Base 3.2.1~
 _ZN8casacore5ArrayINS_14MEarthMagneticEE14preTakeStorageERKNS_9IPositionE@Base 3.2.1~
 _ZN8casacore5ArrayINS_14MEarthMagneticEE15BaseIteratorSTL9incrementEv@Base 3.2.1~
 _ZN8casacore5ArrayINS_14MEarthMagneticEE15BaseIteratorSTLC1ERKS2_@Base 3.2.1~
 _ZN8casacore5ArrayINS_14MEarthMagneticEE15BaseIteratorSTLC2ERKS2_@Base 3.2.1~
 _ZN8casacore5ArrayINS_14MEarthMagneticEE15doNonDegenerateERKS2_RKNS_9IPositionE@Base 3.2.1~
 _ZN8casacore5ArrayINS_14MEarthMagneticEE15postTakeStorageEv@Base 3.2.1~
 _ZN8casacore5ArrayINS_14MEarthMagneticEE16copyMatchingPartERKS2_@Base 3.2.1~
 _ZN8casacore5ArrayINS_14MEarthMagneticEE23copyToContiguousStorageEPS1_RKS2_NS_15ArrayInitPolicyE@Base 3.2.1~
 _ZN8casacore5ArrayINS_14MEarthMagneticEE6assignERKS2_@Base 3.2.1~
 _ZN8casacore5ArrayINS_14MEarthMagneticEE6resizeERKNS_9IPositionEb@Base 3.2.1~
 _ZN8casacore5ArrayINS_14MEarthMagneticEE6resizeERKNS_9IPositionEbNS_15ArrayInitPolicyE@Base 3.2.1~
 _ZN8casacore5ArrayINS_14MEarthMagneticEE6resizeEv@Base 3.2.1~
 _ZN8casacore5ArrayINS_14MEarthMagneticEE9referenceERKS2_@Base 3.2.1~
 _ZN8casacore5ArrayINS_14MEarthMagneticEEC1ERKNS_9IPositionENS_15ArrayInitPolicyEPNS_17Allocator_private13BulkAllocatorIS1_EE@Base 3.2.1~
 _ZN8casacore5ArrayINS_14MEarthMagneticEEC1ERKS2_@Base 3.2.1~
 _ZN8casacore5ArrayINS_14MEarthMagneticEEC1Ev@Base 3.2.1~
 _ZN8casacore5ArrayINS_14MEarthMagneticEEC2ERKNS_9IPositionENS_15ArrayInitPolicyEPNS_17Allocator_private13BulkAllocatorIS1_EE@Base 3.2.1~
 _ZN8casacore5ArrayINS_14MEarthMagneticEEC2ERKS2_@Base 3.2.1~
 _ZN8casacore5ArrayINS_14MEarthMagneticEEC2Ev@Base 3.2.1~
 _ZN8casacore5ArrayINS_14MEarthMagneticEED0Ev@Base 3.2.1~
 _ZN8casacore5ArrayINS_14MEarthMagneticEED1Ev@Base 3.2.1~
 _ZN8casacore5ArrayINS_14MEarthMagneticEED2Ev@Base 3.2.1~
 _ZN8casacore5ArrayINS_14MEarthMagneticEEaSERKS2_@Base 3.2.1~
 _ZN8casacore5ArrayINS_14MEarthMagneticEEclERKNS_6SlicerE@Base 3.2.1~
 _ZN8casacore5ArrayINS_14MEarthMagneticEEclERKNS_9IPositionES5_@Base 3.2.1~
 _ZN8casacore5ArrayINS_14MEarthMagneticEEclERKNS_9IPositionES5_S5_@Base 3.2.1~
 _ZN8casacore5ArrayINS_15MRadialVelocityEE10assignBaseERKNS_9ArrayBaseEb@Base 3.2.1~
 _ZN8casacore5ArrayINS_15MRadialVelocityEE10getStorageERb@Base 3.2.1~
 _ZN8casacore5ArrayINS_15MRadialVelocityEE10putStorageERPS1_b@Base 3.2.1~
 _ZN8casacore5ArrayINS_15MRadialVelocityEE11getVStorageERb@Base 3.2.1~
 _ZN8casacore5ArrayINS_15MRadialVelocityEE11putVStorageERPvb@Base 3.2.1~
 _ZN8casacore5ArrayINS_15MRadialVelocityEE11takeStorageERKNS_9IPositionEPKS1_@Base 3.2.1~
 _ZN8casacore5ArrayINS_15MRadialVelocityEE11takeStorageERKNS_9IPositionEPKS1_RKNS_17AbstractAllocatorIS1_EE@Base 3.2.1~
 _ZN8casacore5ArrayINS_15MRadialVelocityEE11takeStorageERKNS_9IPositionEPS1_NS_17StorageInitPolicyE@Base 3.2.1~
 _ZN8casacore5ArrayINS_15MRadialVelocityEE11takeStorageERKNS_9IPositionEPS1_NS_17StorageInitPolicyERKNS_17AbstractAllocatorIS1_EE@Base 3.2.1~
 _ZN8casacore5ArrayINS_15MRadialVelocityEE14preTakeStorageERKNS_9IPositionE@Base 3.2.1~
 _ZN8casacore5ArrayINS_15MRadialVelocityEE15BaseIteratorSTL9incrementEv@Base 3.2.1~
 _ZN8casacore5ArrayINS_15MRadialVelocityEE15BaseIteratorSTLC1ERKS2_@Base 3.2.1~
 _ZN8casacore5ArrayINS_15MRadialVelocityEE15BaseIteratorSTLC2ERKS2_@Base 3.2.1~
 _ZN8casacore5ArrayINS_15MRadialVelocityEE15doNonDegenerateERKS2_RKNS_9IPositionE@Base 3.2.1~
 _ZN8casacore5ArrayINS_15MRadialVelocityEE15postTakeStorageEv@Base 3.2.1~
 _ZN8casacore5ArrayINS_15MRadialVelocityEE16copyMatchingPartERKS2_@Base 3.2.1~
 _ZN8casacore5ArrayINS_15MRadialVelocityEE23copyToContiguousStorageEPS1_RKS2_NS_15ArrayInitPolicyE@Base 3.2.1~
 _ZN8casacore5ArrayINS_15MRadialVelocityEE6assignERKS2_@Base 3.2.1~
 _ZN8casacore5ArrayINS_15MRadialVelocityEE6resizeERKNS_9IPositionEb@Base 3.2.1~
 _ZN8casacore5ArrayINS_15MRadialVelocityEE6resizeERKNS_9IPositionEbNS_15ArrayInitPolicyE@Base 3.2.1~
 _ZN8casacore5ArrayINS_15MRadialVelocityEE6resizeEv@Base 3.2.1~
 _ZN8casacore5ArrayINS_15MRadialVelocityEE9referenceERKS2_@Base 3.2.1~
 _ZN8casacore5ArrayINS_15MRadialVelocityEEC1ERKNS_9IPositionENS_15ArrayInitPolicyEPNS_17Allocator_private13BulkAllocatorIS1_EE@Base 3.2.1~
 _ZN8casacore5ArrayINS_15MRadialVelocityEEC1ERKNS_9IPositionERKS1_@Base 3.2.1~
 _ZN8casacore5ArrayINS_15MRadialVelocityEEC1ERKS2_@Base 3.2.1~
 _ZN8casacore5ArrayINS_15MRadialVelocityEEC1Ev@Base 3.2.1~
 _ZN8casacore5ArrayINS_15MRadialVelocityEEC2ERKNS_9IPositionENS_15ArrayInitPolicyEPNS_17Allocator_private13BulkAllocatorIS1_EE@Base 3.2.1~
 _ZN8casacore5ArrayINS_15MRadialVelocityEEC2ERKNS_9IPositionERKS1_@Base 3.2.1~
 _ZN8casacore5ArrayINS_15MRadialVelocityEEC2ERKS2_@Base 3.2.1~
 _ZN8casacore5ArrayINS_15MRadialVelocityEEC2Ev@Base 3.2.1~
 _ZN8casacore5ArrayINS_15MRadialVelocityEED0Ev@Base 3.2.1~
 _ZN8casacore5ArrayINS_15MRadialVelocityEED1Ev@Base 3.2.1~
 _ZN8casacore5ArrayINS_15MRadialVelocityEED2Ev@Base 3.2.1~
 _ZN8casacore5ArrayINS_15MRadialVelocityEEaSERKS2_@Base 3.2.1~
 _ZN8casacore5ArrayINS_15MRadialVelocityEEclERKNS_6SlicerE@Base 3.2.1~
 _ZN8casacore5ArrayINS_15MRadialVelocityEEclERKNS_9IPositionES5_@Base 3.2.1~
 _ZN8casacore5ArrayINS_15MRadialVelocityEEclERKNS_9IPositionES5_S5_@Base 3.2.1~
 _ZN8casacore5ArrayINS_6MEpochEE10assignBaseERKNS_9ArrayBaseEb@Base 3.2.1~
 _ZN8casacore5ArrayINS_6MEpochEE10getStorageERb@Base 3.2.1~
 _ZN8casacore5ArrayINS_6MEpochEE10putStorageERPS1_b@Base 3.2.1~
 _ZN8casacore5ArrayINS_6MEpochEE11getVStorageERb@Base 3.2.1~
 _ZN8casacore5ArrayINS_6MEpochEE11putVStorageERPvb@Base 3.2.1~
 _ZN8casacore5ArrayINS_6MEpochEE11takeStorageERKNS_9IPositionEPKS1_@Base 3.2.1~
 _ZN8casacore5ArrayINS_6MEpochEE11takeStorageERKNS_9IPositionEPKS1_RKNS_17AbstractAllocatorIS1_EE@Base 3.2.1~
 _ZN8casacore5ArrayINS_6MEpochEE11takeStorageERKNS_9IPositionEPS1_NS_17StorageInitPolicyE@Base 3.2.1~
 _ZN8casacore5ArrayINS_6MEpochEE11takeStorageERKNS_9IPositionEPS1_NS_17StorageInitPolicyERKNS_17AbstractAllocatorIS1_EE@Base 3.2.1~
 _ZN8casacore5ArrayINS_6MEpochEE14preTakeStorageERKNS_9IPositionE@Base 3.2.1~
 _ZN8casacore5ArrayINS_6MEpochEE15BaseIteratorSTL9incrementEv@Base 3.2.1~
 _ZN8casacore5ArrayINS_6MEpochEE15BaseIteratorSTLC1ERKS2_@Base 3.2.1~
 _ZN8casacore5ArrayINS_6MEpochEE15BaseIteratorSTLC2ERKS2_@Base 3.2.1~
 _ZN8casacore5ArrayINS_6MEpochEE15doNonDegenerateERKS2_RKNS_9IPositionE@Base 3.2.1~
 _ZN8casacore5ArrayINS_6MEpochEE15postTakeStorageEv@Base 3.2.1~
 _ZN8casacore5ArrayINS_6MEpochEE16copyMatchingPartERKS2_@Base 3.2.1~
 _ZN8casacore5ArrayINS_6MEpochEE23copyToContiguousStorageEPS1_RKS2_NS_15ArrayInitPolicyE@Base 3.2.1~
 _ZN8casacore5ArrayINS_6MEpochEE6assignERKS2_@Base 3.2.1~
 _ZN8casacore5ArrayINS_6MEpochEE6resizeERKNS_9IPositionEb@Base 3.2.1~
 _ZN8casacore5ArrayINS_6MEpochEE6resizeERKNS_9IPositionEbNS_15ArrayInitPolicyE@Base 3.2.1~
 _ZN8casacore5ArrayINS_6MEpochEE6resizeEv@Base 3.2.1~
 _ZN8casacore5ArrayINS_6MEpochEE9referenceERKS2_@Base 3.2.1~
 _ZN8casacore5ArrayINS_6MEpochEEC1ERKNS_9IPositionENS_15ArrayInitPolicyEPNS_17Allocator_private13BulkAllocatorIS1_EE@Base 3.2.1~
 _ZN8casacore5ArrayINS_6MEpochEEC1ERKNS_9IPositionERKS1_@Base 3.2.1~
 _ZN8casacore5ArrayINS_6MEpochEEC1ERKS2_@Base 3.2.1~
 _ZN8casacore5ArrayINS_6MEpochEEC1Ev@Base 3.2.1~
 _ZN8casacore5ArrayINS_6MEpochEEC2ERKNS_9IPositionENS_15ArrayInitPolicyEPNS_17Allocator_private13BulkAllocatorIS1_EE@Base 3.2.1~
 _ZN8casacore5ArrayINS_6MEpochEEC2ERKNS_9IPositionERKS1_@Base 3.2.1~
 _ZN8casacore5ArrayINS_6MEpochEEC2ERKS2_@Base 3.2.1~
 _ZN8casacore5ArrayINS_6MEpochEEC2Ev@Base 3.2.1~
 _ZN8casacore5ArrayINS_6MEpochEED0Ev@Base 3.2.1~
 _ZN8casacore5ArrayINS_6MEpochEED1Ev@Base 3.2.1~
 _ZN8casacore5ArrayINS_6MEpochEED2Ev@Base 3.2.1~
 _ZN8casacore5ArrayINS_6MEpochEEaSERKS2_@Base 3.2.1~
 _ZN8casacore5ArrayINS_6MEpochEEclERKNS_6SlicerE@Base 3.2.1~
 _ZN8casacore5ArrayINS_6MEpochEEclERKNS_9IPositionES5_@Base 3.2.1~
 _ZN8casacore5ArrayINS_6MEpochEEclERKNS_9IPositionES5_S5_@Base 3.2.1~
 _ZN8casacore5ArrayINS_6MVTimeEE10assignBaseERKNS_9ArrayBaseEb@Base 3.2.1~
 _ZN8casacore5ArrayINS_6MVTimeEE10getStorageERb@Base 3.2.1~
 _ZN8casacore5ArrayINS_6MVTimeEE10putStorageERPS1_b@Base 3.2.1~
 _ZN8casacore5ArrayINS_6MVTimeEE11getVStorageERb@Base 3.2.1~
 _ZN8casacore5ArrayINS_6MVTimeEE11putVStorageERPvb@Base 3.2.1~
 _ZN8casacore5ArrayINS_6MVTimeEE11takeStorageERKNS_9IPositionEPKS1_@Base 3.2.1~
 _ZN8casacore5ArrayINS_6MVTimeEE11takeStorageERKNS_9IPositionEPKS1_RKNS_17AbstractAllocatorIS1_EE@Base 3.2.1~
 _ZN8casacore5ArrayINS_6MVTimeEE11takeStorageERKNS_9IPositionEPS1_NS_17StorageInitPolicyE@Base 3.2.1~
 _ZN8casacore5ArrayINS_6MVTimeEE11takeStorageERKNS_9IPositionEPS1_NS_17StorageInitPolicyERKNS_17AbstractAllocatorIS1_EE@Base 3.2.1~
 _ZN8casacore5ArrayINS_6MVTimeEE14preTakeStorageERKNS_9IPositionE@Base 3.2.1~
 _ZN8casacore5ArrayINS_6MVTimeEE15BaseIteratorSTL9incrementEv@Base 3.2.1~
 _ZN8casacore5ArrayINS_6MVTimeEE15BaseIteratorSTLC1ERKS2_@Base 3.2.1~
 _ZN8casacore5ArrayINS_6MVTimeEE15BaseIteratorSTLC2ERKS2_@Base 3.2.1~
 _ZN8casacore5ArrayINS_6MVTimeEE15doNonDegenerateERKS2_RKNS_9IPositionE@Base 3.2.1~
 _ZN8casacore5ArrayINS_6MVTimeEE15postTakeStorageEv@Base 3.2.1~
 _ZN8casacore5ArrayINS_6MVTimeEE16copyMatchingPartERKS2_@Base 3.2.1~
 _ZN8casacore5ArrayINS_6MVTimeEE23copyToContiguousStorageEPS1_RKS2_NS_15ArrayInitPolicyE@Base 3.2.1~
 _ZN8casacore5ArrayINS_6MVTimeEE6assignERKS2_@Base 3.2.1~
 _ZN8casacore5ArrayINS_6MVTimeEE6resizeERKNS_9IPositionEb@Base 3.2.1~
 _ZN8casacore5ArrayINS_6MVTimeEE6resizeERKNS_9IPositionEbNS_15ArrayInitPolicyE@Base 3.2.1~
 _ZN8casacore5ArrayINS_6MVTimeEE6resizeEv@Base 3.2.1~
 _ZN8casacore5ArrayINS_6MVTimeEE9referenceERKS2_@Base 3.2.1~
 _ZN8casacore5ArrayINS_6MVTimeEEC1ERKNS_9IPositionENS_15ArrayInitPolicyEPNS_17Allocator_private13BulkAllocatorIS1_EE@Base 3.2.1~
 _ZN8casacore5ArrayINS_6MVTimeEEC1ERKS2_@Base 3.2.1~
 _ZN8casacore5ArrayINS_6MVTimeEEC1Ev@Base 3.2.1~
 _ZN8casacore5ArrayINS_6MVTimeEEC2ERKNS_9IPositionENS_15ArrayInitPolicyEPNS_17Allocator_private13BulkAllocatorIS1_EE@Base 3.2.1~
 _ZN8casacore5ArrayINS_6MVTimeEEC2ERKS2_@Base 3.2.1~
 _ZN8casacore5ArrayINS_6MVTimeEEC2Ev@Base 3.2.1~
 _ZN8casacore5ArrayINS_6MVTimeEED0Ev@Base 3.2.1~
 _ZN8casacore5ArrayINS_6MVTimeEED1Ev@Base 3.2.1~
 _ZN8casacore5ArrayINS_6MVTimeEED2Ev@Base 3.2.1~
 _ZN8casacore5ArrayINS_6MVTimeEEaSERKS2_@Base 3.2.1~
 _ZN8casacore5ArrayINS_6MVTimeEEclERKNS_6SlicerE@Base 3.2.1~
 _ZN8casacore5ArrayINS_6MVTimeEEclERKNS_9IPositionES5_@Base 3.2.1~
 _ZN8casacore5ArrayINS_6MVTimeEEclERKNS_9IPositionES5_S5_@Base 3.2.1~
 _ZN8casacore5ArrayINS_7QuantumIdEEE10assignBaseERKNS_9ArrayBaseEb@Base 3.2.1~
 _ZN8casacore5ArrayINS_7QuantumIdEEE10getStorageERb@Base 3.2.1~
 _ZN8casacore5ArrayINS_7QuantumIdEEE10putStorageERPS2_b@Base 3.2.1~
 _ZN8casacore5ArrayINS_7QuantumIdEEE11getVStorageERb@Base 3.2.1~
 _ZN8casacore5ArrayINS_7QuantumIdEEE11putVStorageERPvb@Base 3.2.1~
 _ZN8casacore5ArrayINS_7QuantumIdEEE11takeStorageERKNS_9IPositionEPKS2_@Base 3.2.1~
 _ZN8casacore5ArrayINS_7QuantumIdEEE11takeStorageERKNS_9IPositionEPKS2_RKNS_17AbstractAllocatorIS2_EE@Base 3.2.1~
 _ZN8casacore5ArrayINS_7QuantumIdEEE11takeStorageERKNS_9IPositionEPS2_NS_17StorageInitPolicyE@Base 3.2.1~
 _ZN8casacore5ArrayINS_7QuantumIdEEE11takeStorageERKNS_9IPositionEPS2_NS_17StorageInitPolicyERKNS_17AbstractAllocatorIS2_EE@Base 3.2.1~
 _ZN8casacore5ArrayINS_7QuantumIdEEE14preTakeStorageERKNS_9IPositionE@Base 3.2.1~
 _ZN8casacore5ArrayINS_7QuantumIdEEE15BaseIteratorSTL9incrementEv@Base 3.2.1~
 _ZN8casacore5ArrayINS_7QuantumIdEEE15BaseIteratorSTLC1ERKS3_@Base 3.2.1~
 _ZN8casacore5ArrayINS_7QuantumIdEEE15BaseIteratorSTLC2ERKS3_@Base 3.2.1~
 _ZN8casacore5ArrayINS_7QuantumIdEEE15doNonDegenerateERKS3_RKNS_9IPositionE@Base 3.2.1~
 _ZN8casacore5ArrayINS_7QuantumIdEEE15postTakeStorageEv@Base 3.2.1~
 _ZN8casacore5ArrayINS_7QuantumIdEEE16copyMatchingPartERKS3_@Base 3.2.1~
 _ZN8casacore5ArrayINS_7QuantumIdEEE23copyToContiguousStorageEPS2_RKS3_NS_15ArrayInitPolicyE@Base 3.2.1~
 _ZN8casacore5ArrayINS_7QuantumIdEEE6assignERKS3_@Base 3.2.1~
 _ZN8casacore5ArrayINS_7QuantumIdEEE6resizeERKNS_9IPositionEb@Base 3.2.1~
 _ZN8casacore5ArrayINS_7QuantumIdEEE6resizeERKNS_9IPositionEbNS_15ArrayInitPolicyE@Base 3.2.1~
 _ZN8casacore5ArrayINS_7QuantumIdEEE6resizeEv@Base 3.2.1~
 _ZN8casacore5ArrayINS_7QuantumIdEEE9referenceERKS3_@Base 3.2.1~
 _ZN8casacore5ArrayINS_7QuantumIdEEEC1ERKNS_9IPositionENS_15ArrayInitPolicyEPNS_17Allocator_private13BulkAllocatorIS2_EE@Base 3.2.1~
 _ZN8casacore5ArrayINS_7QuantumIdEEEC1ERKS3_@Base 3.2.1~
 _ZN8casacore5ArrayINS_7QuantumIdEEEC1Ev@Base 3.2.1~
 _ZN8casacore5ArrayINS_7QuantumIdEEEC2ERKNS_9IPositionENS_15ArrayInitPolicyEPNS_17Allocator_private13BulkAllocatorIS2_EE@Base 3.2.1~
 _ZN8casacore5ArrayINS_7QuantumIdEEEC2ERKS3_@Base 3.2.1~
 _ZN8casacore5ArrayINS_7QuantumIdEEEC2Ev@Base 3.2.1~
 _ZN8casacore5ArrayINS_7QuantumIdEEED0Ev@Base 3.2.1~
 _ZN8casacore5ArrayINS_7QuantumIdEEED1Ev@Base 3.2.1~
 _ZN8casacore5ArrayINS_7QuantumIdEEED2Ev@Base 3.2.1~
 _ZN8casacore5ArrayINS_7QuantumIdEEEaSERKS3_@Base 3.2.1~
 _ZN8casacore5ArrayINS_7QuantumIdEEEclERKNS_6SlicerE@Base 3.2.1~
 _ZN8casacore5ArrayINS_7QuantumIdEEEclERKNS_9IPositionES6_@Base 3.2.1~
 _ZN8casacore5ArrayINS_7QuantumIdEEEclERKNS_9IPositionES6_S6_@Base 3.2.1~
 _ZN8casacore5ArrayINS_8MDopplerEE10assignBaseERKNS_9ArrayBaseEb@Base 3.2.1~
 _ZN8casacore5ArrayINS_8MDopplerEE10getStorageERb@Base 3.2.1~
 _ZN8casacore5ArrayINS_8MDopplerEE10putStorageERPS1_b@Base 3.2.1~
 _ZN8casacore5ArrayINS_8MDopplerEE11getVStorageERb@Base 3.2.1~
 _ZN8casacore5ArrayINS_8MDopplerEE11putVStorageERPvb@Base 3.2.1~
 _ZN8casacore5ArrayINS_8MDopplerEE11takeStorageERKNS_9IPositionEPKS1_@Base 3.2.1~
 _ZN8casacore5ArrayINS_8MDopplerEE11takeStorageERKNS_9IPositionEPKS1_RKNS_17AbstractAllocatorIS1_EE@Base 3.2.1~
 _ZN8casacore5ArrayINS_8MDopplerEE11takeStorageERKNS_9IPositionEPS1_NS_17StorageInitPolicyE@Base 3.2.1~
 _ZN8casacore5ArrayINS_8MDopplerEE11takeStorageERKNS_9IPositionEPS1_NS_17StorageInitPolicyERKNS_17AbstractAllocatorIS1_EE@Base 3.2.1~
 _ZN8casacore5ArrayINS_8MDopplerEE14preTakeStorageERKNS_9IPositionE@Base 3.2.1~
 _ZN8casacore5ArrayINS_8MDopplerEE15BaseIteratorSTL9incrementEv@Base 3.2.1~
 _ZN8casacore5ArrayINS_8MDopplerEE15BaseIteratorSTLC1ERKS2_@Base 3.2.1~
 _ZN8casacore5ArrayINS_8MDopplerEE15BaseIteratorSTLC2ERKS2_@Base 3.2.1~
 _ZN8casacore5ArrayINS_8MDopplerEE15doNonDegenerateERKS2_RKNS_9IPositionE@Base 3.2.1~
 _ZN8casacore5ArrayINS_8MDopplerEE15postTakeStorageEv@Base 3.2.1~
 _ZN8casacore5ArrayINS_8MDopplerEE16copyMatchingPartERKS2_@Base 3.2.1~
 _ZN8casacore5ArrayINS_8MDopplerEE23copyToContiguousStorageEPS1_RKS2_NS_15ArrayInitPolicyE@Base 3.2.1~
 _ZN8casacore5ArrayINS_8MDopplerEE6assignERKS2_@Base 3.2.1~
 _ZN8casacore5ArrayINS_8MDopplerEE6resizeERKNS_9IPositionEb@Base 3.2.1~
 _ZN8casacore5ArrayINS_8MDopplerEE6resizeERKNS_9IPositionEbNS_15ArrayInitPolicyE@Base 3.2.1~
 _ZN8casacore5ArrayINS_8MDopplerEE6resizeEv@Base 3.2.1~
 _ZN8casacore5ArrayINS_8MDopplerEE9referenceERKS2_@Base 3.2.1~
 _ZN8casacore5ArrayINS_8MDopplerEEC1ERKNS_9IPositionENS_15ArrayInitPolicyEPNS_17Allocator_private13BulkAllocatorIS1_EE@Base 3.2.1~
 _ZN8casacore5ArrayINS_8MDopplerEEC1ERKNS_9IPositionERKS1_@Base 3.2.1~
 _ZN8casacore5ArrayINS_8MDopplerEEC1ERKS2_@Base 3.2.1~
 _ZN8casacore5ArrayINS_8MDopplerEEC1Ev@Base 3.2.1~
 _ZN8casacore5ArrayINS_8MDopplerEEC2ERKNS_9IPositionENS_15ArrayInitPolicyEPNS_17Allocator_private13BulkAllocatorIS1_EE@Base 3.2.1~
 _ZN8casacore5ArrayINS_8MDopplerEEC2ERKNS_9IPositionERKS1_@Base 3.2.1~
 _ZN8casacore5ArrayINS_8MDopplerEEC2ERKS2_@Base 3.2.1~
 _ZN8casacore5ArrayINS_8MDopplerEEC2Ev@Base 3.2.1~
 _ZN8casacore5ArrayINS_8MDopplerEED0Ev@Base 3.2.1~
 _ZN8casacore5ArrayINS_8MDopplerEED1Ev@Base 3.2.1~
 _ZN8casacore5ArrayINS_8MDopplerEED2Ev@Base 3.2.1~
 _ZN8casacore5ArrayINS_8MDopplerEEaSERKS2_@Base 3.2.1~
 _ZN8casacore5ArrayINS_8MDopplerEEclERKNS_6SlicerE@Base 3.2.1~
 _ZN8casacore5ArrayINS_8MDopplerEEclERKNS_9IPositionES5_@Base 3.2.1~
 _ZN8casacore5ArrayINS_8MDopplerEEclERKNS_9IPositionES5_S5_@Base 3.2.1~
 _ZN8casacore5ArrayINS_9MPositionEE10assignBaseERKNS_9ArrayBaseEb@Base 3.2.1~
 _ZN8casacore5ArrayINS_9MPositionEE10getStorageERb@Base 3.2.1~
 _ZN8casacore5ArrayINS_9MPositionEE10putStorageERPS1_b@Base 3.2.1~
 _ZN8casacore5ArrayINS_9MPositionEE11getVStorageERb@Base 3.2.1~
 _ZN8casacore5ArrayINS_9MPositionEE11putVStorageERPvb@Base 3.2.1~
 _ZN8casacore5ArrayINS_9MPositionEE11takeStorageERKNS_9IPositionEPKS1_@Base 3.2.1~
 _ZN8casacore5ArrayINS_9MPositionEE11takeStorageERKNS_9IPositionEPKS1_RKNS_17AbstractAllocatorIS1_EE@Base 3.2.1~
 _ZN8casacore5ArrayINS_9MPositionEE11takeStorageERKNS_9IPositionEPS1_NS_17StorageInitPolicyE@Base 3.2.1~
 _ZN8casacore5ArrayINS_9MPositionEE11takeStorageERKNS_9IPositionEPS1_NS_17StorageInitPolicyERKNS_17AbstractAllocatorIS1_EE@Base 3.2.1~
 _ZN8casacore5ArrayINS_9MPositionEE14preTakeStorageERKNS_9IPositionE@Base 3.2.1~
 _ZN8casacore5ArrayINS_9MPositionEE15BaseIteratorSTL9incrementEv@Base 3.2.1~
 _ZN8casacore5ArrayINS_9MPositionEE15BaseIteratorSTLC1ERKS2_@Base 3.2.1~
 _ZN8casacore5ArrayINS_9MPositionEE15BaseIteratorSTLC2ERKS2_@Base 3.2.1~
 _ZN8casacore5ArrayINS_9MPositionEE15doNonDegenerateERKS2_RKNS_9IPositionE@Base 3.2.1~
 _ZN8casacore5ArrayINS_9MPositionEE15postTakeStorageEv@Base 3.2.1~
 _ZN8casacore5ArrayINS_9MPositionEE16copyMatchingPartERKS2_@Base 3.2.1~
 _ZN8casacore5ArrayINS_9MPositionEE23copyToContiguousStorageEPS1_RKS2_NS_15ArrayInitPolicyE@Base 3.2.1~
 _ZN8casacore5ArrayINS_9MPositionEE6assignERKS2_@Base 3.2.1~
 _ZN8casacore5ArrayINS_9MPositionEE6resizeERKNS_9IPositionEb@Base 3.2.1~
 _ZN8casacore5ArrayINS_9MPositionEE6resizeERKNS_9IPositionEbNS_15ArrayInitPolicyE@Base 3.2.1~
 _ZN8casacore5ArrayINS_9MPositionEE6resizeEv@Base 3.2.1~
 _ZN8casacore5ArrayINS_9MPositionEE9referenceERKS2_@Base 3.2.1~
 _ZN8casacore5ArrayINS_9MPositionEEC1ERKNS_9IPositionENS_15ArrayInitPolicyEPNS_17Allocator_private13BulkAllocatorIS1_EE@Base 3.2.1~
 _ZN8casacore5ArrayINS_9MPositionEEC1ERKS2_@Base 3.2.1~
 _ZN8casacore5ArrayINS_9MPositionEEC1Ev@Base 3.2.1~
 _ZN8casacore5ArrayINS_9MPositionEEC2ERKNS_9IPositionENS_15ArrayInitPolicyEPNS_17Allocator_private13BulkAllocatorIS1_EE@Base 3.2.1~
 _ZN8casacore5ArrayINS_9MPositionEEC2ERKS2_@Base 3.2.1~
 _ZN8casacore5ArrayINS_9MPositionEEC2Ev@Base 3.2.1~
 _ZN8casacore5ArrayINS_9MPositionEED0Ev@Base 3.2.1~
 _ZN8casacore5ArrayINS_9MPositionEED1Ev@Base 3.2.1~
 _ZN8casacore5ArrayINS_9MPositionEED2Ev@Base 3.2.1~
 _ZN8casacore5ArrayINS_9MPositionEEaSERKS2_@Base 3.2.1~
 _ZN8casacore5ArrayINS_9MPositionEEclERKNS_6SlicerE@Base 3.2.1~
 _ZN8casacore5ArrayINS_9MPositionEEclERKNS_9IPositionES5_@Base 3.2.1~
 _ZN8casacore5ArrayINS_9MPositionEEclERKNS_9IPositionES5_S5_@Base 3.2.1~
 _ZN8casacore5BlockINS_10MDirectionEE4initENS_15ArrayInitPolicyE@Base 3.2.1~
 _ZN8casacore5BlockINS_10MDirectionEE6deinitEv@Base 3.2.1~
 _ZN8casacore5BlockINS_10MDirectionEE7deallocEv@Base 3.2.1~
 _ZN8casacore5BlockINS_10MFrequencyEE4initENS_15ArrayInitPolicyE@Base 3.2.1~
 _ZN8casacore5BlockINS_10MFrequencyEE6deinitEv@Base 3.2.1~
 _ZN8casacore5BlockINS_10MFrequencyEE7deallocEv@Base 3.2.1~
 _ZN8casacore5BlockINS_11MVFrequencyEE4initENS_15ArrayInitPolicyE@Base 3.2.1~
 _ZN8casacore5BlockINS_11MVFrequencyEE6deinitEv@Base 3.2.1~
 _ZN8casacore5BlockINS_11MVFrequencyEE7deallocEv@Base 3.2.1~
 _ZN8casacore5BlockINS_14MEarthMagneticEE6deinitEv@Base 3.2.1~
 _ZN8casacore5BlockINS_14MEarthMagneticEE7deallocEv@Base 3.2.1~
 _ZN8casacore5BlockINS_15MRadialVelocityEE4initENS_15ArrayInitPolicyE@Base 3.2.1~
 _ZN8casacore5BlockINS_15MRadialVelocityEE6deinitEv@Base 3.2.1~
 _ZN8casacore5BlockINS_15MRadialVelocityEE7deallocEv@Base 3.2.1~
 _ZN8casacore5BlockINS_6MEpochEE4initENS_15ArrayInitPolicyE@Base 3.2.1~
 _ZN8casacore5BlockINS_6MEpochEE6deinitEv@Base 3.2.1~
 _ZN8casacore5BlockINS_6MEpochEE7deallocEv@Base 3.2.1~
 _ZN8casacore5BlockINS_6MVTimeEE4initENS_15ArrayInitPolicyE@Base 3.2.1~
 _ZN8casacore5BlockINS_6MVTimeEE6deinitEv@Base 3.2.1~
 _ZN8casacore5BlockINS_6MVTimeEE7deallocEv@Base 3.2.1~
 _ZN8casacore5BlockINS_7QuantumIdEEE4initENS_15ArrayInitPolicyE@Base 3.2.1~
 _ZN8casacore5BlockINS_7QuantumIdEEE6deinitEv@Base 3.2.1~
 _ZN8casacore5BlockINS_8MDopplerEE4initENS_15ArrayInitPolicyE@Base 3.2.1~
 _ZN8casacore5BlockINS_8MDopplerEE6deinitEv@Base 3.2.1~
 _ZN8casacore5BlockINS_8MDopplerEE7deallocEv@Base 3.2.1~
 _ZN8casacore5BlockINS_9MPositionEE4initENS_15ArrayInitPolicyE@Base 3.2.1~
 _ZN8casacore5BlockINS_9MPositionEE6deinitEv@Base 3.2.1~
 _ZN8casacore5BlockINS_9MPositionEE7deallocEv@Base 3.2.1~
 _ZN8casacore6MArrayIdED1Ev@Base 3.2.1~
 _ZN8casacore6MArrayIdED2Ev@Base 3.2.1~
 _ZN8casacore6String8toStringINS_10MDirection5TypesEEES0_RKT_@Base 3.2.1~
 _ZN8casacore6String8toStringINS_10MFrequency5TypesEEES0_RKT_@Base 3.2.1~
 _ZN8casacore6String8toStringINS_14MEarthMagnetic5TypesEEES0_RKT_@Base 3.2.1~
 _ZN8casacore6String8toStringINS_15MRadialVelocity5TypesEEES0_RKT_@Base 3.2.1~
 _ZN8casacore6String8toStringINS_6MEpoch5TypesEEES0_RKT_@Base 3.2.1~
 _ZN8casacore6String8toStringINS_8MDoppler5TypesEEES0_RKT_@Base 3.2.1~
 _ZN8casacore6String8toStringINS_9MPosition5TypesEEES0_RKT_@Base 3.2.1~
 _ZN8casacore6String8toStringIjEES0_RKT_@Base 3.2.1~
 _ZN8casacore6VectorINS_10MFrequencyEE14preTakeStorageERKNS_9IPositionE@Base 3.2.1~
 _ZN8casacore6VectorINS_10MFrequencyEE15doNonDegenerateERKNS_5ArrayIS1_EERKNS_9IPositionE@Base 3.2.1~
 _ZN8casacore6VectorINS_10MFrequencyEE6assignERKNS_5ArrayIS1_EE@Base 3.2.1~
 _ZN8casacore6VectorINS_10MFrequencyEE6resizeERKNS_9IPositionEbNS_15ArrayInitPolicyE@Base 3.2.1~
 _ZN8casacore6VectorINS_10MFrequencyEE6resizeEv@Base 3.2.1~
 _ZN8casacore6VectorINS_10MFrequencyEE9referenceERKNS_5ArrayIS1_EE@Base 3.2.1~
 _ZN8casacore6VectorINS_10MFrequencyEED0Ev@Base 3.2.1~
 _ZN8casacore6VectorINS_10MFrequencyEED1Ev@Base 3.2.1~
 _ZN8casacore6VectorINS_10MFrequencyEED2Ev@Base 3.2.1~
 _ZN8casacore6VectorINS_10MFrequencyEEaSERKNS_5ArrayIS1_EE@Base 3.2.1~
 _ZN8casacore6VectorINS_10MFrequencyEEaSERKS2_@Base 3.2.1~
 _ZN8casacore6VectorINS_15MRadialVelocityEE14preTakeStorageERKNS_9IPositionE@Base 3.2.1~
 _ZN8casacore6VectorINS_15MRadialVelocityEE15doNonDegenerateERKNS_5ArrayIS1_EERKNS_9IPositionE@Base 3.2.1~
 _ZN8casacore6VectorINS_15MRadialVelocityEE6assignERKNS_5ArrayIS1_EE@Base 3.2.1~
 _ZN8casacore6VectorINS_15MRadialVelocityEE6resizeERKNS_9IPositionEbNS_15ArrayInitPolicyE@Base 3.2.1~
 _ZN8casacore6VectorINS_15MRadialVelocityEE6resizeEv@Base 3.2.1~
 _ZN8casacore6VectorINS_15MRadialVelocityEE9referenceERKNS_5ArrayIS1_EE@Base 3.2.1~
 _ZN8casacore6VectorINS_15MRadialVelocityEED0Ev@Base 3.2.1~
 _ZN8casacore6VectorINS_15MRadialVelocityEED1Ev@Base 3.2.1~
 _ZN8casacore6VectorINS_15MRadialVelocityEED2Ev@Base 3.2.1~
 _ZN8casacore6VectorINS_15MRadialVelocityEEaSERKNS_5ArrayIS1_EE@Base 3.2.1~
 _ZN8casacore6VectorINS_15MRadialVelocityEEaSERKS2_@Base 3.2.1~
 _ZN8casacore6VectorINS_6MEpochEE14preTakeStorageERKNS_9IPositionE@Base 3.2.1~
 _ZN8casacore6VectorINS_6MEpochEE15doNonDegenerateERKNS_5ArrayIS1_EERKNS_9IPositionE@Base 3.2.1~
 _ZN8casacore6VectorINS_6MEpochEE6assignERKNS_5ArrayIS1_EE@Base 3.2.1~
 _ZN8casacore6VectorINS_6MEpochEE6resizeERKNS_9IPositionEbNS_15ArrayInitPolicyE@Base 3.2.1~
 _ZN8casacore6VectorINS_6MEpochEE6resizeEv@Base 3.2.1~
 _ZN8casacore6VectorINS_6MEpochEE9referenceERKNS_5ArrayIS1_EE@Base 3.2.1~
 _ZN8casacore6VectorINS_6MEpochEED0Ev@Base 3.2.1~
 _ZN8casacore6VectorINS_6MEpochEED1Ev@Base 3.2.1~
 _ZN8casacore6VectorINS_6MEpochEED2Ev@Base 3.2.1~
 _ZN8casacore6VectorINS_6MEpochEEaSERKNS_5ArrayIS1_EE@Base 3.2.1~
 _ZN8casacore6VectorINS_6MEpochEEaSERKS2_@Base 3.2.1~
 _ZN8casacore6VectorINS_7QuantumIdEEE14preTakeStorageERKNS_9IPositionE@Base 3.2.1~
 _ZN8casacore6VectorINS_7QuantumIdEEE15doNonDegenerateERKNS_5ArrayIS2_EERKNS_9IPositionE@Base 3.2.1~
 _ZN8casacore6VectorINS_7QuantumIdEEE6assignERKNS_5ArrayIS2_EE@Base 3.2.1~
 _ZN8casacore6VectorINS_7QuantumIdEEE6resizeERKNS_9IPositionEbNS_15ArrayInitPolicyE@Base 3.2.1~
 _ZN8casacore6VectorINS_7QuantumIdEEE6resizeEv@Base 3.2.1~
 _ZN8casacore6VectorINS_7QuantumIdEEE9referenceERKNS_5ArrayIS2_EE@Base 3.2.1~
 _ZN8casacore6VectorINS_7QuantumIdEEEC1Em@Base 3.2.1~
 _ZN8casacore6VectorINS_7QuantumIdEEEC2Em@Base 3.2.1~
 _ZN8casacore6VectorINS_7QuantumIdEEED0Ev@Base 3.2.1~
 _ZN8casacore6VectorINS_7QuantumIdEEED1Ev@Base 3.2.1~
 _ZN8casacore6VectorINS_7QuantumIdEEED2Ev@Base 3.2.1~
 _ZN8casacore6VectorINS_7QuantumIdEEEaSERKNS_5ArrayIS2_EE@Base 3.2.1~
 _ZN8casacore6VectorINS_7QuantumIdEEEaSERKS3_@Base 3.2.1~
 _ZN8casacore6VectorINS_8MDopplerEE14preTakeStorageERKNS_9IPositionE@Base 3.2.1~
 _ZN8casacore6VectorINS_8MDopplerEE15doNonDegenerateERKNS_5ArrayIS1_EERKNS_9IPositionE@Base 3.2.1~
 _ZN8casacore6VectorINS_8MDopplerEE6assignERKNS_5ArrayIS1_EE@Base 3.2.1~
 _ZN8casacore6VectorINS_8MDopplerEE6resizeERKNS_9IPositionEbNS_15ArrayInitPolicyE@Base 3.2.1~
 _ZN8casacore6VectorINS_8MDopplerEE6resizeEv@Base 3.2.1~
 _ZN8casacore6VectorINS_8MDopplerEE9referenceERKNS_5ArrayIS1_EE@Base 3.2.1~
 _ZN8casacore6VectorINS_8MDopplerEED0Ev@Base 3.2.1~
 _ZN8casacore6VectorINS_8MDopplerEED1Ev@Base 3.2.1~
 _ZN8casacore6VectorINS_8MDopplerEED2Ev@Base 3.2.1~
 _ZN8casacore6VectorINS_8MDopplerEEaSERKNS_5ArrayIS1_EE@Base 3.2.1~
 _ZN8casacore6VectorINS_8MDopplerEEaSERKS2_@Base 3.2.1~
 _ZN8casacore7GenSortINS_6StringEE10insSortAscEPS1_ii@Base 3.2.1~
 _ZN8casacore7GenSortINS_6StringEE11heapSortAscEPS1_i@Base 3.2.1~
 _ZN8casacore7GenSortINS_6StringEE12quickSortAscEPS1_ibi@Base 3.2.1~
 _ZN8casacore7GenSortINS_6StringEE13insSortAscDupEPS1_i@Base 3.2.1~
 _ZN8casacore7GenSortINS_6StringEE15heapAscSiftDownEiiPS1_@Base 3.2.1~
 _ZN8casacore7GenSortINS_6StringEE15insSortAscNoDupEPS1_i@Base 3.2.1~
 _ZN8casacore7GenSortINS_6StringEE4swapERS1_S3_@Base 3.2.1~
 _ZN8casacore7GenSortINS_6StringEE5mergeEPS1_S3_jPjj@Base 3.2.1~
 _ZN8casacore7GenSortINS_6StringEE7parSortEPS1_jNS_4Sort5OrderEii@Base 3.2.1~
 _ZN8casacore7GenSortINS_6StringEE7reverseEPS1_PKS1_j@Base 3.2.1~
 _ZN8casacore7MeasRefINS_10MDirectionEE3setERKNS_7MeasureE@Base 3.2.1~
 _ZN8casacore7MeasRefINS_10MDirectionEE3setERKNS_9MeasFrameE@Base 3.2.1~
 _ZN8casacore7MeasRefINS_10MDirectionEE3setERKS1_@Base 3.2.1~
 _ZN8casacore7MeasRefINS_10MDirectionEE3setEj@Base 3.2.1~
 _ZN8casacore7MeasRefINS_10MDirectionEE6createEv@Base 3.2.1~
 _ZN8casacore7MeasRefINS_10MDirectionEE7setTypeEj@Base 3.2.1~
 _ZN8casacore7MeasRefINS_10MDirectionEE8getFrameEv@Base 3.2.1~
 _ZN8casacore7MeasRefINS_10MDirectionEEC1Ej@Base 3.2.1~
 _ZN8casacore7MeasRefINS_10MDirectionEEC1EjRKNS_9MeasFrameE@Base 3.2.1~
 _ZN8casacore7MeasRefINS_10MDirectionEEC2Ej@Base 3.2.1~
 _ZN8casacore7MeasRefINS_10MDirectionEEC2EjRKNS_9MeasFrameE@Base 3.2.1~
 _ZN8casacore7MeasRefINS_10MDirectionEED0Ev@Base 3.2.1~
 _ZN8casacore7MeasRefINS_10MDirectionEED1Ev@Base 3.2.1~
 _ZN8casacore7MeasRefINS_10MDirectionEED2Ev@Base 3.2.1~
 _ZN8casacore7MeasRefINS_10MFrequencyEE3setERKNS_7MeasureE@Base 3.2.1~
 _ZN8casacore7MeasRefINS_10MFrequencyEE3setERKNS_9MeasFrameE@Base 3.2.1~
 _ZN8casacore7MeasRefINS_10MFrequencyEE3setERKS1_@Base 3.2.1~
 _ZN8casacore7MeasRefINS_10MFrequencyEE3setEj@Base 3.2.1~
 _ZN8casacore7MeasRefINS_10MFrequencyEE6createEv@Base 3.2.1~
 _ZN8casacore7MeasRefINS_10MFrequencyEE7setTypeEj@Base 3.2.1~
 _ZN8casacore7MeasRefINS_10MFrequencyEE8getFrameEv@Base 3.2.1~
 _ZN8casacore7MeasRefINS_10MFrequencyEEC1Ej@Base 3.2.1~
 _ZN8casacore7MeasRefINS_10MFrequencyEEC1EjRKNS_9MeasFrameE@Base 3.2.1~
 _ZN8casacore7MeasRefINS_10MFrequencyEEC2Ej@Base 3.2.1~
 _ZN8casacore7MeasRefINS_10MFrequencyEEC2EjRKNS_9MeasFrameE@Base 3.2.1~
 _ZN8casacore7MeasRefINS_10MFrequencyEED0Ev@Base 3.2.1~
 _ZN8casacore7MeasRefINS_10MFrequencyEED1Ev@Base 3.2.1~
 _ZN8casacore7MeasRefINS_10MFrequencyEED2Ev@Base 3.2.1~
 _ZN8casacore7MeasRefINS_14MEarthMagneticEE3setERKNS_7MeasureE@Base 3.2.1~
 _ZN8casacore7MeasRefINS_14MEarthMagneticEE3setERKNS_9MeasFrameE@Base 3.2.1~
 _ZN8casacore7MeasRefINS_14MEarthMagneticEE3setERKS1_@Base 3.2.1~
 _ZN8casacore7MeasRefINS_14MEarthMagneticEE3setEj@Base 3.2.1~
 _ZN8casacore7MeasRefINS_14MEarthMagneticEE6createEv@Base 3.2.1~
 _ZN8casacore7MeasRefINS_14MEarthMagneticEE7setTypeEj@Base 3.2.1~
 _ZN8casacore7MeasRefINS_14MEarthMagneticEE8getFrameEv@Base 3.2.1~
 _ZN8casacore7MeasRefINS_14MEarthMagneticEEC1Ej@Base 3.2.1~
 _ZN8casacore7MeasRefINS_14MEarthMagneticEEC1EjRKNS_9MeasFrameE@Base 3.2.1~
 _ZN8casacore7MeasRefINS_14MEarthMagneticEEC2Ej@Base 3.2.1~
 _ZN8casacore7MeasRefINS_14MEarthMagneticEEC2EjRKNS_9MeasFrameE@Base 3.2.1~
 _ZN8casacore7MeasRefINS_14MEarthMagneticEED0Ev@Base 3.2.1~
 _ZN8casacore7MeasRefINS_14MEarthMagneticEED1Ev@Base 3.2.1~
 _ZN8casacore7MeasRefINS_14MEarthMagneticEED2Ev@Base 3.2.1~
 _ZN8casacore7MeasRefINS_15MRadialVelocityEE3setERKNS_7MeasureE@Base 3.2.1~
 _ZN8casacore7MeasRefINS_15MRadialVelocityEE3setERKNS_9MeasFrameE@Base 3.2.1~
 _ZN8casacore7MeasRefINS_15MRadialVelocityEE3setERKS1_@Base 3.2.1~
 _ZN8casacore7MeasRefINS_15MRadialVelocityEE3setEj@Base 3.2.1~
 _ZN8casacore7MeasRefINS_15MRadialVelocityEE6createEv@Base 3.2.1~
 _ZN8casacore7MeasRefINS_15MRadialVelocityEE7setTypeEj@Base 3.2.1~
 _ZN8casacore7MeasRefINS_15MRadialVelocityEE8getFrameEv@Base 3.2.1~
 _ZN8casacore7MeasRefINS_15MRadialVelocityEEC1Ej@Base 3.2.1~
 _ZN8casacore7MeasRefINS_15MRadialVelocityEEC1EjRKNS_9MeasFrameE@Base 3.2.1~
 _ZN8casacore7MeasRefINS_15MRadialVelocityEEC2Ej@Base 3.2.1~
 _ZN8casacore7MeasRefINS_15MRadialVelocityEEC2EjRKNS_9MeasFrameE@Base 3.2.1~
 _ZN8casacore7MeasRefINS_15MRadialVelocityEED0Ev@Base 3.2.1~
 _ZN8casacore7MeasRefINS_15MRadialVelocityEED1Ev@Base 3.2.1~
 _ZN8casacore7MeasRefINS_15MRadialVelocityEED2Ev@Base 3.2.1~
 _ZN8casacore7MeasRefINS_6MEpochEE3setERKNS_7MeasureE@Base 3.2.1~
 _ZN8casacore7MeasRefINS_6MEpochEE3setERKNS_9MeasFrameE@Base 3.2.1~
 _ZN8casacore7MeasRefINS_6MEpochEE3setERKS1_@Base 3.2.1~
 _ZN8casacore7MeasRefINS_6MEpochEE3setEj@Base 3.2.1~
 _ZN8casacore7MeasRefINS_6MEpochEE6createEv@Base 3.2.1~
 _ZN8casacore7MeasRefINS_6MEpochEE7setTypeEj@Base 3.2.1~
 _ZN8casacore7MeasRefINS_6MEpochEE8getFrameEv@Base 3.2.1~
 _ZN8casacore7MeasRefINS_6MEpochEEC1Ej@Base 3.2.1~
 _ZN8casacore7MeasRefINS_6MEpochEEC1EjRKNS_9MeasFrameE@Base 3.2.1~
 _ZN8casacore7MeasRefINS_6MEpochEEC2Ej@Base 3.2.1~
 _ZN8casacore7MeasRefINS_6MEpochEEC2EjRKNS_9MeasFrameE@Base 3.2.1~
 _ZN8casacore7MeasRefINS_6MEpochEED0Ev@Base 3.2.1~
 _ZN8casacore7MeasRefINS_6MEpochEED1Ev@Base 3.2.1~
 _ZN8casacore7MeasRefINS_6MEpochEED2Ev@Base 3.2.1~
 _ZN8casacore7MeasRefINS_8MDopplerEE3setERKNS_7MeasureE@Base 3.2.1~
 _ZN8casacore7MeasRefINS_8MDopplerEE3setERKNS_9MeasFrameE@Base 3.2.1~
 _ZN8casacore7MeasRefINS_8MDopplerEE3setERKS1_@Base 3.2.1~
 _ZN8casacore7MeasRefINS_8MDopplerEE3setEj@Base 3.2.1~
 _ZN8casacore7MeasRefINS_8MDopplerEE6createEv@Base 3.2.1~
 _ZN8casacore7MeasRefINS_8MDopplerEE7setTypeEj@Base 3.2.1~
 _ZN8casacore7MeasRefINS_8MDopplerEE8getFrameEv@Base 3.2.1~
 _ZN8casacore7MeasRefINS_8MDopplerEEC1Ej@Base 3.2.1~
 _ZN8casacore7MeasRefINS_8MDopplerEEC1EjRKNS_9MeasFrameE@Base 3.2.1~
 _ZN8casacore7MeasRefINS_8MDopplerEEC2Ej@Base 3.2.1~
 _ZN8casacore7MeasRefINS_8MDopplerEEC2EjRKNS_9MeasFrameE@Base 3.2.1~
 _ZN8casacore7MeasRefINS_8MDopplerEED0Ev@Base 3.2.1~
 _ZN8casacore7MeasRefINS_8MDopplerEED1Ev@Base 3.2.1~
 _ZN8casacore7MeasRefINS_8MDopplerEED2Ev@Base 3.2.1~
 _ZN8casacore7MeasRefINS_9MPositionEE3setERKNS_7MeasureE@Base 3.2.1~
 _ZN8casacore7MeasRefINS_9MPositionEE3setERKNS_9MeasFrameE@Base 3.2.1~
 _ZN8casacore7MeasRefINS_9MPositionEE3setERKS1_@Base 3.2.1~
 _ZN8casacore7MeasRefINS_9MPositionEE3setEj@Base 3.2.1~
 _ZN8casacore7MeasRefINS_9MPositionEE6createEv@Base 3.2.1~
 _ZN8casacore7MeasRefINS_9MPositionEE7setTypeEj@Base 3.2.1~
 _ZN8casacore7MeasRefINS_9MPositionEE8getFrameEv@Base 3.2.1~
 _ZN8casacore7MeasRefINS_9MPositionEEC1Ej@Base 3.2.1~
 _ZN8casacore7MeasRefINS_9MPositionEEC1EjRKNS_9MeasFrameE@Base 3.2.1~
 _ZN8casacore7MeasRefINS_9MPositionEEC2Ej@Base 3.2.1~
 _ZN8casacore7MeasRefINS_9MPositionEEC2EjRKNS_9MeasFrameE@Base 3.2.1~
 _ZN8casacore7MeasRefINS_9MPositionEED0Ev@Base 3.2.1~
 _ZN8casacore7MeasRefINS_9MPositionEED1Ev@Base 3.2.1~
 _ZN8casacore7MeasRefINS_9MPositionEED2Ev@Base 3.2.1~
 _ZN8casacore7QuantumINS_6VectorIdEEED0Ev@Base 3.2.1~
 _ZN8casacore7QuantumINS_6VectorIdEEED1Ev@Base 3.2.1~
 _ZN8casacore7QuantumINS_6VectorIdEEED2Ev@Base 3.2.1~
 _ZN8casacore7assert_INS_9AipsErrorEEC1EiPKcS4_i@Base 3.2.1~
 _ZN8casacore7assert_INS_9AipsErrorEEC2EiPKcS4_i@Base 3.2.1~
 _ZN8casacore7objcopyINS_10MDirectionEEEvPT_PKS2_m@Base 3.2.1~
 _ZN8casacore7objcopyINS_10MDirectionEEEvPT_PKS2_mmm@Base 3.2.1~
 _ZN8casacore7objcopyINS_10MFrequencyEEEvPT_PKS2_m@Base 3.2.1~
 _ZN8casacore7objcopyINS_10MFrequencyEEEvPT_PKS2_mmm@Base 3.2.1~
 _ZN8casacore7objcopyINS_11MVFrequencyEEEvPT_PKS2_m@Base 3.2.1~
 _ZN8casacore7objcopyINS_11MVFrequencyEEEvPT_PKS2_mmm@Base 3.2.1~
 _ZN8casacore7objcopyINS_14MEarthMagneticEEEvPT_PKS2_m@Base 3.2.1~
 _ZN8casacore7objcopyINS_14MEarthMagneticEEEvPT_PKS2_mmm@Base 3.2.1~
 _ZN8casacore7objcopyINS_15MRadialVelocityEEEvPT_PKS2_m@Base 3.2.1~
 _ZN8casacore7objcopyINS_15MRadialVelocityEEEvPT_PKS2_mmm@Base 3.2.1~
 _ZN8casacore7objcopyINS_6MEpochEEEvPT_PKS2_m@Base 3.2.1~
 _ZN8casacore7objcopyINS_6MEpochEEEvPT_PKS2_mmm@Base 3.2.1~
 _ZN8casacore7objcopyINS_6MVTimeEEEvPT_PKS2_m@Base 3.2.1~
 _ZN8casacore7objcopyINS_6MVTimeEEEvPT_PKS2_mmm@Base 3.2.1~
 _ZN8casacore7objcopyINS_7QuantumIdEEEEvPT_PKS3_m@Base 3.2.1~
 _ZN8casacore7objcopyINS_7QuantumIdEEEEvPT_PKS3_mmm@Base 3.2.1~
 _ZN8casacore7objcopyINS_8MDopplerEEEvPT_PKS2_m@Base 3.2.1~
 _ZN8casacore7objcopyINS_8MDopplerEEEvPT_PKS2_mmm@Base 3.2.1~
 _ZN8casacore7objcopyINS_9MPositionEEEvPT_PKS2_m@Base 3.2.1~
 _ZN8casacore7objcopyINS_9MPositionEEEvPT_PKS2_mmm@Base 3.2.1~
 _ZN8casacore8EpochUDF14getArrayDoubleERKNS_11TableExprIdE@Base 3.2.1~
 _ZN8casacore8EpochUDF5setupERKNS_5TableERKNS_9TaQLStyleE@Base 3.2.1~
 _ZN8casacore8EpochUDF8makeLASTERKNS_6StringE@Base 3.2.1~
 _ZN8casacore8EpochUDF9getDoubleERKNS_11TableExprIdE@Base 3.2.1~
 _ZN8casacore8EpochUDF9makeEPOCHERKNS_6StringE@Base 3.2.1~
 _ZN8casacore8EpochUDFC1ENS0_8FuncTypeE@Base 3.2.1~
 _ZN8casacore8EpochUDFC2ENS0_8FuncTypeE@Base 3.2.1~
 _ZN8casacore8EpochUDFD0Ev@Base 3.2.1~
 _ZN8casacore8EpochUDFD1Ev@Base 3.2.1~
 _ZN8casacore8EpochUDFD2Ev@Base 3.2.1~
 _ZN8casacore8MeasBaseINS_10MVPositionENS_7MeasRefINS_9MPositionEEEE3setERKS1_RKS4_@Base 3.2.1~
 _ZN8casacore8MeasBaseINS_11MVDirectionENS_7MeasRefINS_10MDirectionEEEE3setERKNS_9MeasValueE@Base 3.2.1~
 _ZN8casacore8MeasBaseINS_11MVDirectionENS_7MeasRefINS_10MDirectionEEEE3setERKS1_RKS4_@Base 3.2.1~
 _ZN8casacore8MeasBaseINS_11MVDirectionENS_7MeasRefINS_10MDirectionEEEE5clearEv@Base 3.2.1~
 _ZN8casacore8MeasBaseINS_11MVDirectionENS_7MeasRefINS_10MDirectionEEEE8putValueERKNS_6VectorINS_7QuantumIdEEEE@Base 3.2.1~
 _ZN8casacore8MeasBaseINS_11MVDirectionENS_7MeasRefINS_10MDirectionEEEEC1ERKS5_@Base 3.2.1~
 _ZN8casacore8MeasBaseINS_11MVDirectionENS_7MeasRefINS_10MDirectionEEEEC2ERKS5_@Base 3.2.1~
 _ZN8casacore8MeasBaseINS_11MVFrequencyENS_7MeasRefINS_10MFrequencyEEEE3setERKNS_9MeasValueE@Base 3.2.1~
 _ZN8casacore8MeasBaseINS_11MVFrequencyENS_7MeasRefINS_10MFrequencyEEEE3setERKS1_RKS4_@Base 3.2.1~
 _ZN8casacore8MeasBaseINS_11MVFrequencyENS_7MeasRefINS_10MFrequencyEEEE5clearEv@Base 3.2.1~
 _ZN8casacore8MeasBaseINS_11MVFrequencyENS_7MeasRefINS_10MFrequencyEEEE8putValueERKNS_6VectorINS_7QuantumIdEEEE@Base 3.2.1~
 _ZN8casacore8MeasBaseINS_11MVFrequencyENS_7MeasRefINS_10MFrequencyEEEEC1ERKS5_@Base 3.2.1~
 _ZN8casacore8MeasBaseINS_11MVFrequencyENS_7MeasRefINS_10MFrequencyEEEEC2ERKS5_@Base 3.2.1~
 _ZN8casacore8MeasBaseINS_15MVEarthMagneticENS_7MeasRefINS_14MEarthMagneticEEEE3setERKS1_RKS4_@Base 3.2.1~
 _ZN8casacore8MeasBaseINS_16MVRadialVelocityENS_7MeasRefINS_15MRadialVelocityEEEE3setERKNS_9MeasValueE@Base 3.2.1~
 _ZN8casacore8MeasBaseINS_16MVRadialVelocityENS_7MeasRefINS_15MRadialVelocityEEEE3setERKS1_RKS4_@Base 3.2.1~
 _ZN8casacore8MeasBaseINS_16MVRadialVelocityENS_7MeasRefINS_15MRadialVelocityEEEE5clearEv@Base 3.2.1~
 _ZN8casacore8MeasBaseINS_16MVRadialVelocityENS_7MeasRefINS_15MRadialVelocityEEEE8putValueERKNS_6VectorINS_7QuantumIdEEEE@Base 3.2.1~
 _ZN8casacore8MeasBaseINS_16MVRadialVelocityENS_7MeasRefINS_15MRadialVelocityEEEEC1ERKS5_@Base 3.2.1~
 _ZN8casacore8MeasBaseINS_16MVRadialVelocityENS_7MeasRefINS_15MRadialVelocityEEEEC2ERKS5_@Base 3.2.1~
 _ZN8casacore8MeasBaseINS_7MVEpochENS_7MeasRefINS_6MEpochEEEE3setERKNS_9MeasValueE@Base 3.2.1~
 _ZN8casacore8MeasBaseINS_7MVEpochENS_7MeasRefINS_6MEpochEEEE3setERKS1_RKS4_@Base 3.2.1~
 _ZN8casacore8MeasBaseINS_7MVEpochENS_7MeasRefINS_6MEpochEEEE5clearEv@Base 3.2.1~
 _ZN8casacore8MeasBaseINS_7MVEpochENS_7MeasRefINS_6MEpochEEEE8putValueERKNS_6VectorINS_7QuantumIdEEEE@Base 3.2.1~
 _ZN8casacore8MeasBaseINS_7MVEpochENS_7MeasRefINS_6MEpochEEEEC1ERKS5_@Base 3.2.1~
 _ZN8casacore8MeasBaseINS_7MVEpochENS_7MeasRefINS_6MEpochEEEEC2ERKS5_@Base 3.2.1~
 _ZN8casacore8MeasBaseINS_9MVDopplerENS_7MeasRefINS_8MDopplerEEEE3setERKNS_9MeasValueE@Base 3.2.1~
 _ZN8casacore8MeasBaseINS_9MVDopplerENS_7MeasRefINS_8MDopplerEEEE3setERKS1_RKS4_@Base 3.2.1~
 _ZN8casacore8MeasBaseINS_9MVDopplerENS_7MeasRefINS_8MDopplerEEEE5clearEv@Base 3.2.1~
 _ZN8casacore8MeasBaseINS_9MVDopplerENS_7MeasRefINS_8MDopplerEEEE8putValueERKNS_6VectorINS_7QuantumIdEEEE@Base 3.2.1~
 _ZN8casacore8MeasBaseINS_9MVDopplerENS_7MeasRefINS_8MDopplerEEEEC1ERKS5_@Base 3.2.1~
 _ZN8casacore8MeasBaseINS_9MVDopplerENS_7MeasRefINS_8MDopplerEEEEC2ERKS5_@Base 3.2.1~
 _ZN8casacorelsINS_14MEarthMagneticEEERSoS2_RKNS_5ArrayIT_EE@Base 3.2.1~
 _ZN8casacorelsIdEERSoS1_RKNS_5ArrayIT_EE@Base 3.2.1~
 _ZN8casacoreplEPKcRKNS_6StringE@Base 3.2.1~
 _ZN8casacoreplERKNS_6StringEPKc@Base 3.2.1~
 _ZN8casacoreplERKNS_6StringES2_@Base 3.2.1~
 _ZNK8casacore10CountedPtrINS_5BlockINS_10MDirectionEEEE7DeleterIS3_EclEPS3_@Base 3.2.1~
 _ZNK8casacore10CountedPtrINS_5BlockINS_10MFrequencyEEEE7DeleterIS3_EclEPS3_@Base 3.2.1~
 _ZNK8casacore10CountedPtrINS_5BlockINS_11MVFrequencyEEEE7DeleterIS3_EclEPS3_@Base 3.2.1~
 _ZNK8casacore10CountedPtrINS_5BlockINS_14MEarthMagneticEEEE7DeleterIS3_EclEPS3_@Base 3.2.1~
 _ZNK8casacore10CountedPtrINS_5BlockINS_15MRadialVelocityEEEE7DeleterIS3_EclEPS3_@Base 3.2.1~
 _ZNK8casacore10CountedPtrINS_5BlockINS_6MEpochEEEE7DeleterIS3_EclEPS3_@Base 3.2.1~
 _ZNK8casacore10CountedPtrINS_5BlockINS_6MVTimeEEEE7DeleterIS3_EclEPS3_@Base 3.2.1~
 _ZNK8casacore10CountedPtrINS_5BlockINS_7QuantumIdEEEEE7DeleterIS4_EclEPS4_@Base 3.2.1~
 _ZNK8casacore10CountedPtrINS_5BlockINS_8MDopplerEEEE7DeleterIS3_EclEPS3_@Base 3.2.1~
 _ZNK8casacore10CountedPtrINS_5BlockINS_9MPositionEEEE7DeleterIS3_EclEPS3_@Base 3.2.1~
 _ZNK8casacore10MeasEngineINS_10MDirectionEE14makeAttributesENS1_5TypesEi@Base 3.2.1~
 _ZNK8casacore10MeasEngineINS_10MFrequencyEE14makeAttributesENS1_5TypesEi@Base 3.2.1~
 _ZNK8casacore10MeasEngineINS_14MEarthMagneticEE14makeAttributesENS1_5TypesEi@Base 3.2.1~
 _ZNK8casacore10MeasEngineINS_15MRadialVelocityEE14makeAttributesENS1_5TypesEi@Base 3.2.1~
 _ZNK8casacore10MeasEngineINS_6MEpochEE14makeAttributesENS1_5TypesEi@Base 3.2.1~
 _ZNK8casacore10MeasEngineINS_8MDopplerEE14makeAttributesENS1_5TypesEi@Base 3.2.1~
 _ZNK8casacore10MeasEngineINS_9MPositionEE14makeAttributesENS1_5TypesEi@Base 3.2.1~
 _ZNK8casacore11MeasConvertINS_10MDirectionEE5printERSo@Base 3.2.1~
 _ZNK8casacore11MeasConvertINS_10MDirectionEE7nMethodEv@Base 3.2.1~
 _ZNK8casacore11MeasConvertINS_10MDirectionEE9getMethodEj@Base 3.2.1~
 _ZNK8casacore11MeasConvertINS_10MFrequencyEE5printERSo@Base 3.2.1~
 _ZNK8casacore11MeasConvertINS_10MFrequencyEE7nMethodEv@Base 3.2.1~
 _ZNK8casacore11MeasConvertINS_10MFrequencyEE9getMethodEj@Base 3.2.1~
 _ZNK8casacore11MeasConvertINS_14MEarthMagneticEE5printERSo@Base 3.2.1~
 _ZNK8casacore11MeasConvertINS_14MEarthMagneticEE7nMethodEv@Base 3.2.1~
 _ZNK8casacore11MeasConvertINS_14MEarthMagneticEE9getMethodEj@Base 3.2.1~
 _ZNK8casacore11MeasConvertINS_15MRadialVelocityEE5printERSo@Base 3.2.1~
 _ZNK8casacore11MeasConvertINS_15MRadialVelocityEE7nMethodEv@Base 3.2.1~
 _ZNK8casacore11MeasConvertINS_15MRadialVelocityEE9getMethodEj@Base 3.2.1~
 _ZNK8casacore11MeasConvertINS_6MEpochEE5printERSo@Base 3.2.1~
 _ZNK8casacore11MeasConvertINS_6MEpochEE7nMethodEv@Base 3.2.1~
 _ZNK8casacore11MeasConvertINS_6MEpochEE9getMethodEj@Base 3.2.1~
 _ZNK8casacore11MeasConvertINS_8MDopplerEE5printERSo@Base 3.2.1~
 _ZNK8casacore11MeasConvertINS_8MDopplerEE7nMethodEv@Base 3.2.1~
 _ZNK8casacore11MeasConvertINS_8MDopplerEE9getMethodEj@Base 3.2.1~
 _ZNK8casacore11MeasConvertINS_9MPositionEE5printERSo@Base 3.2.1~
 _ZNK8casacore11MeasConvertINS_9MPositionEE7nMethodEv@Base 3.2.1~
 _ZNK8casacore11MeasConvertINS_9MPositionEE9getMethodEj@Base 3.2.1~
 _ZNK8casacore13BaseAllocatorINS_10MDirectionENS_15NewDelAllocatorIS1_EEE12getAllocatorEv@Base 3.2.1~
 _ZNK8casacore13BaseAllocatorINS_10MDirectionENS_16AlignedAllocatorIS1_Lm32EEEE12getAllocatorEv@Base 3.2.1~
 _ZNK8casacore13BaseAllocatorINS_10MFrequencyENS_15NewDelAllocatorIS1_EEE12getAllocatorEv@Base 3.2.1~
 _ZNK8casacore13BaseAllocatorINS_10MFrequencyENS_16AlignedAllocatorIS1_Lm32EEEE12getAllocatorEv@Base 3.2.1~
 _ZNK8casacore13BaseAllocatorINS_11MVFrequencyENS_15NewDelAllocatorIS1_EEE12getAllocatorEv@Base 3.2.1~
 _ZNK8casacore13BaseAllocatorINS_11MVFrequencyENS_16AlignedAllocatorIS1_Lm32EEEE12getAllocatorEv@Base 3.2.1~
 _ZNK8casacore13BaseAllocatorINS_14MEarthMagneticENS_15NewDelAllocatorIS1_EEE12getAllocatorEv@Base 3.2.1~
 _ZNK8casacore13BaseAllocatorINS_14MEarthMagneticENS_16AlignedAllocatorIS1_Lm32EEEE12getAllocatorEv@Base 3.2.1~
 _ZNK8casacore13BaseAllocatorINS_15MRadialVelocityENS_15NewDelAllocatorIS1_EEE12getAllocatorEv@Base 3.2.1~
 _ZNK8casacore13BaseAllocatorINS_15MRadialVelocityENS_16AlignedAllocatorIS1_Lm32EEEE12getAllocatorEv@Base 3.2.1~
 _ZNK8casacore13BaseAllocatorINS_6MEpochENS_15NewDelAllocatorIS1_EEE12getAllocatorEv@Base 3.2.1~
 _ZNK8casacore13BaseAllocatorINS_6MEpochENS_16AlignedAllocatorIS1_Lm32EEEE12getAllocatorEv@Base 3.2.1~
 _ZNK8casacore13BaseAllocatorINS_6MVTimeENS_15NewDelAllocatorIS1_EEE12getAllocatorEv@Base 3.2.1~
 _ZNK8casacore13BaseAllocatorINS_6MVTimeENS_16AlignedAllocatorIS1_Lm32EEEE12getAllocatorEv@Base 3.2.1~
 _ZNK8casacore13BaseAllocatorINS_7QuantumIdEENS_15NewDelAllocatorIS2_EEE12getAllocatorEv@Base 3.2.1~
 _ZNK8casacore13BaseAllocatorINS_7QuantumIdEENS_16AlignedAllocatorIS2_Lm32EEEE12getAllocatorEv@Base 3.2.1~
 _ZNK8casacore13BaseAllocatorINS_8MDopplerENS_15NewDelAllocatorIS1_EEE12getAllocatorEv@Base 3.2.1~
 _ZNK8casacore13BaseAllocatorINS_8MDopplerENS_16AlignedAllocatorIS1_Lm32EEEE12getAllocatorEv@Base 3.2.1~
 _ZNK8casacore13BaseAllocatorINS_9MPositionENS_15NewDelAllocatorIS1_EEE12getAllocatorEv@Base 3.2.1~
 _ZNK8casacore13BaseAllocatorINS_9MPositionENS_16AlignedAllocatorIS1_Lm32EEEE12getAllocatorEv@Base 3.2.1~
 _ZNK8casacore13BaseAllocatorIPNS_6SlicerENS_15NewDelAllocatorIS2_EEE12getAllocatorEv@Base 3.2.1~
 _ZNK8casacore13BaseAllocatorIPNS_6SlicerENS_16AlignedAllocatorIS2_Lm32EEEE12getAllocatorEv@Base 3.2.1~
 _ZNK8casacore14PositionEngine12makePositionERKNS_7QuantumIdEES4_S4_@Base 3.2.1~
 _ZNK8casacore15ArrayMeasColumnINS_10MDirectionEE3getEjRNS_5ArrayIS1_EEb@Base 3.2.1~
 _ZNK8casacore15ArrayMeasColumnINS_10MFrequencyEE3getEjRNS_5ArrayIS1_EEb@Base 3.2.1~
 _ZNK8casacore15ArrayMeasColumnINS_14MEarthMagneticEE3getEjRNS_5ArrayIS1_EEb@Base 3.2.1~
 _ZNK8casacore15ArrayMeasColumnINS_15MRadialVelocityEE3getEjRNS_5ArrayIS1_EEb@Base 3.2.1~
 _ZNK8casacore15ArrayMeasColumnINS_6MEpochEE3getEjRNS_5ArrayIS1_EEb@Base 3.2.1~
 _ZNK8casacore15ArrayMeasColumnINS_8MDopplerEE3getEjRNS_5ArrayIS1_EEb@Base 3.2.1~
 _ZNK8casacore15ArrayMeasColumnINS_9MPositionEE3getEjRNS_5ArrayIS1_EEb@Base 3.2.1~
 _ZNK8casacore16ScalarMeasColumnINS_10MDirectionEE11makeMeasRefEj@Base 3.2.1~
 _ZNK8casacore16ScalarMeasColumnINS_10MDirectionEE3getEjRS1_@Base 3.2.1~
 _ZNK8casacore16ScalarMeasColumnINS_10MFrequencyEE11makeMeasRefEj@Base 3.2.1~
 _ZNK8casacore16ScalarMeasColumnINS_10MFrequencyEE3getEjRS1_@Base 3.2.1~
 _ZNK8casacore16ScalarMeasColumnINS_14MEarthMagneticEE11makeMeasRefEj@Base 3.2.1~
 _ZNK8casacore16ScalarMeasColumnINS_14MEarthMagneticEE3getEjRS1_@Base 3.2.1~
 _ZNK8casacore16ScalarMeasColumnINS_15MRadialVelocityEE11makeMeasRefEj@Base 3.2.1~
 _ZNK8casacore16ScalarMeasColumnINS_15MRadialVelocityEE3getEjRS1_@Base 3.2.1~
 _ZNK8casacore16ScalarMeasColumnINS_6MEpochEE11makeMeasRefEj@Base 3.2.1~
 _ZNK8casacore16ScalarMeasColumnINS_6MEpochEE3getEjRS1_@Base 3.2.1~
 _ZNK8casacore16ScalarMeasColumnINS_8MDopplerEE11makeMeasRefEj@Base 3.2.1~
 _ZNK8casacore16ScalarMeasColumnINS_8MDopplerEE3getEjRS1_@Base 3.2.1~
 _ZNK8casacore16ScalarMeasColumnINS_9MPositionEE11makeMeasRefEj@Base 3.2.1~
 _ZNK8casacore16ScalarMeasColumnINS_9MPositionEE3getEjRS1_@Base 3.2.1~
 _ZNK8casacore17Allocator_private17BulkAllocatorImplINS_17new_del_allocatorINS_10MDirectionEEEE16allocator_typeidEv@Base 3.2.1~
 _ZNK8casacore17Allocator_private17BulkAllocatorImplINS_17new_del_allocatorINS_10MFrequencyEEEE16allocator_typeidEv@Base 3.2.1~
 _ZNK8casacore17Allocator_private17BulkAllocatorImplINS_17new_del_allocatorINS_11MVFrequencyEEEE16allocator_typeidEv@Base 3.2.1~
 _ZNK8casacore17Allocator_private17BulkAllocatorImplINS_17new_del_allocatorINS_14MEarthMagneticEEEE16allocator_typeidEv@Base 3.2.1~
 _ZNK8casacore17Allocator_private17BulkAllocatorImplINS_17new_del_allocatorINS_15MRadialVelocityEEEE16allocator_typeidEv@Base 3.2.1~
 _ZNK8casacore17Allocator_private17BulkAllocatorImplINS_17new_del_allocatorINS_6MEpochEEEE16allocator_typeidEv@Base 3.2.1~
 _ZNK8casacore17Allocator_private17BulkAllocatorImplINS_17new_del_allocatorINS_6MVTimeEEEE16allocator_typeidEv@Base 3.2.1~
 _ZNK8casacore17Allocator_private17BulkAllocatorImplINS_17new_del_allocatorINS_7QuantumIdEEEEE16allocator_typeidEv@Base 3.2.1~
 _ZNK8casacore17Allocator_private17BulkAllocatorImplINS_17new_del_allocatorINS_8MDopplerEEEE16allocator_typeidEv@Base 3.2.1~
 _ZNK8casacore17Allocator_private17BulkAllocatorImplINS_17new_del_allocatorINS_9MPositionEEEE16allocator_typeidEv@Base 3.2.1~
 _ZNK8casacore17Allocator_private17BulkAllocatorImplINS_17new_del_allocatorIPNS_6SlicerEEEE16allocator_typeidEv@Base 3.2.1~
 _ZNK8casacore17Allocator_private17BulkAllocatorImplINS_18casacore_allocatorINS_10MDirectionELm32EEEE16allocator_typeidEv@Base 3.2.1~
 _ZNK8casacore17Allocator_private17BulkAllocatorImplINS_18casacore_allocatorINS_10MFrequencyELm32EEEE16allocator_typeidEv@Base 3.2.1~
 _ZNK8casacore17Allocator_private17BulkAllocatorImplINS_18casacore_allocatorINS_11MVFrequencyELm32EEEE16allocator_typeidEv@Base 3.2.1~
 _ZNK8casacore17Allocator_private17BulkAllocatorImplINS_18casacore_allocatorINS_14MEarthMagneticELm32EEEE16allocator_typeidEv@Base 3.2.1~
 _ZNK8casacore17Allocator_private17BulkAllocatorImplINS_18casacore_allocatorINS_15MRadialVelocityELm32EEEE16allocator_typeidEv@Base 3.2.1~
 _ZNK8casacore17Allocator_private17BulkAllocatorImplINS_18casacore_allocatorINS_6MEpochELm32EEEE16allocator_typeidEv@Base 3.2.1~
 _ZNK8casacore17Allocator_private17BulkAllocatorImplINS_18casacore_allocatorINS_6MVTimeELm32EEEE16allocator_typeidEv@Base 3.2.1~
 _ZNK8casacore17Allocator_private17BulkAllocatorImplINS_18casacore_allocatorINS_6StringELm32EEEE16allocator_typeidEv@Base 3.2.1~
 _ZNK8casacore17Allocator_private17BulkAllocatorImplINS_18casacore_allocatorINS_7QuantumIdEELm32EEEE16allocator_typeidEv@Base 3.2.1~
 _ZNK8casacore17Allocator_private17BulkAllocatorImplINS_18casacore_allocatorINS_8MDopplerELm32EEEE16allocator_typeidEv@Base 3.2.1~
 _ZNK8casacore17Allocator_private17BulkAllocatorImplINS_18casacore_allocatorINS_9MPositionELm32EEEE16allocator_typeidEv@Base 3.2.1~
 _ZNK8casacore17Allocator_private17BulkAllocatorImplINS_18casacore_allocatorIPNS_6SlicerELm32EEEE16allocator_typeidEv@Base 3.2.1~
 _ZNK8casacore17Allocator_private17BulkAllocatorImplINS_18casacore_allocatorIjLm32EEEE16allocator_typeidEv@Base 3.2.1~
 _ZNK8casacore19EarthMagneticEngine17makeEarthMagneticERKNS_7QuantumIdEES4_S4_@Base 3.2.1~
 _ZNK8casacore5ArrayINS_10MDirectionEE10getSectionERKNS_6SlicerE@Base 3.2.1~
 _ZNK8casacore5ArrayINS_10MDirectionEE11freeStorageERPKS1_b@Base 3.2.1~
 _ZNK8casacore5ArrayINS_10MDirectionEE11getVStorageERb@Base 3.2.1~
 _ZNK8casacore5ArrayINS_10MDirectionEE12freeVStorageERPKvb@Base 3.2.1~
 _ZNK8casacore5ArrayINS_10MDirectionEE12makeIteratorEj@Base 3.2.1~
 _ZNK8casacore5ArrayINS_10MDirectionEE18nonNewDelAllocatorEv@Base 3.2.1~
 _ZNK8casacore5ArrayINS_10MDirectionEE2okEv@Base 3.2.1~
 _ZNK8casacore5ArrayINS_10MDirectionEE4copyENS_15ArrayInitPolicyEPNS_17Allocator_private13BulkAllocatorIS1_EE@Base 3.2.1~
 _ZNK8casacore5ArrayINS_10MDirectionEE9makeArrayEv@Base 3.2.1~
 _ZNK8casacore5ArrayINS_10MFrequencyEE10getSectionERKNS_6SlicerE@Base 3.2.1~
 _ZNK8casacore5ArrayINS_10MFrequencyEE11freeStorageERPKS1_b@Base 3.2.1~
 _ZNK8casacore5ArrayINS_10MFrequencyEE11getVStorageERb@Base 3.2.1~
 _ZNK8casacore5ArrayINS_10MFrequencyEE12freeVStorageERPKvb@Base 3.2.1~
 _ZNK8casacore5ArrayINS_10MFrequencyEE12makeIteratorEj@Base 3.2.1~
 _ZNK8casacore5ArrayINS_10MFrequencyEE18nonNewDelAllocatorEv@Base 3.2.1~
 _ZNK8casacore5ArrayINS_10MFrequencyEE2okEv@Base 3.2.1~
 _ZNK8casacore5ArrayINS_10MFrequencyEE9makeArrayEv@Base 3.2.1~
 _ZNK8casacore5ArrayINS_11MVFrequencyEE10getSectionERKNS_6SlicerE@Base 3.2.1~
 _ZNK8casacore5ArrayINS_11MVFrequencyEE11freeStorageERPKS1_b@Base 3.2.1~
 _ZNK8casacore5ArrayINS_11MVFrequencyEE11getVStorageERb@Base 3.2.1~
 _ZNK8casacore5ArrayINS_11MVFrequencyEE12freeVStorageERPKvb@Base 3.2.1~
 _ZNK8casacore5ArrayINS_11MVFrequencyEE12makeIteratorEj@Base 3.2.1~
 _ZNK8casacore5ArrayINS_11MVFrequencyEE18nonNewDelAllocatorEv@Base 3.2.1~
 _ZNK8casacore5ArrayINS_11MVFrequencyEE2okEv@Base 3.2.1~
 _ZNK8casacore5ArrayINS_11MVFrequencyEE9makeArrayEv@Base 3.2.1~
 _ZNK8casacore5ArrayINS_14MEarthMagneticEE10getSectionERKNS_6SlicerE@Base 3.2.1~
 _ZNK8casacore5ArrayINS_14MEarthMagneticEE11freeStorageERPKS1_b@Base 3.2.1~
 _ZNK8casacore5ArrayINS_14MEarthMagneticEE11getVStorageERb@Base 3.2.1~
 _ZNK8casacore5ArrayINS_14MEarthMagneticEE12freeVStorageERPKvb@Base 3.2.1~
 _ZNK8casacore5ArrayINS_14MEarthMagneticEE12makeIteratorEj@Base 3.2.1~
 _ZNK8casacore5ArrayINS_14MEarthMagneticEE18nonNewDelAllocatorEv@Base 3.2.1~
 _ZNK8casacore5ArrayINS_14MEarthMagneticEE2okEv@Base 3.2.1~
 _ZNK8casacore5ArrayINS_14MEarthMagneticEE4copyENS_15ArrayInitPolicyEPNS_17Allocator_private13BulkAllocatorIS1_EE@Base 3.2.1~
 _ZNK8casacore5ArrayINS_14MEarthMagneticEE9makeArrayEv@Base 3.2.1~
 _ZNK8casacore5ArrayINS_15MRadialVelocityEE10getSectionERKNS_6SlicerE@Base 3.2.1~
 _ZNK8casacore5ArrayINS_15MRadialVelocityEE11freeStorageERPKS1_b@Base 3.2.1~
 _ZNK8casacore5ArrayINS_15MRadialVelocityEE11getVStorageERb@Base 3.2.1~
 _ZNK8casacore5ArrayINS_15MRadialVelocityEE12freeVStorageERPKvb@Base 3.2.1~
 _ZNK8casacore5ArrayINS_15MRadialVelocityEE12makeIteratorEj@Base 3.2.1~
 _ZNK8casacore5ArrayINS_15MRadialVelocityEE18nonNewDelAllocatorEv@Base 3.2.1~
 _ZNK8casacore5ArrayINS_15MRadialVelocityEE2okEv@Base 3.2.1~
 _ZNK8casacore5ArrayINS_15MRadialVelocityEE9makeArrayEv@Base 3.2.1~
 _ZNK8casacore5ArrayINS_6MEpochEE10getSectionERKNS_6SlicerE@Base 3.2.1~
 _ZNK8casacore5ArrayINS_6MEpochEE11freeStorageERPKS1_b@Base 3.2.1~
 _ZNK8casacore5ArrayINS_6MEpochEE11getVStorageERb@Base 3.2.1~
 _ZNK8casacore5ArrayINS_6MEpochEE12freeVStorageERPKvb@Base 3.2.1~
 _ZNK8casacore5ArrayINS_6MEpochEE12makeIteratorEj@Base 3.2.1~
 _ZNK8casacore5ArrayINS_6MEpochEE18nonNewDelAllocatorEv@Base 3.2.1~
 _ZNK8casacore5ArrayINS_6MEpochEE2okEv@Base 3.2.1~
 _ZNK8casacore5ArrayINS_6MEpochEE9makeArrayEv@Base 3.2.1~
 _ZNK8casacore5ArrayINS_6MVTimeEE10getSectionERKNS_6SlicerE@Base 3.2.1~
 _ZNK8casacore5ArrayINS_6MVTimeEE11freeStorageERPKS1_b@Base 3.2.1~
 _ZNK8casacore5ArrayINS_6MVTimeEE11getVStorageERb@Base 3.2.1~
 _ZNK8casacore5ArrayINS_6MVTimeEE12freeVStorageERPKvb@Base 3.2.1~
 _ZNK8casacore5ArrayINS_6MVTimeEE12makeIteratorEj@Base 3.2.1~
 _ZNK8casacore5ArrayINS_6MVTimeEE18nonNewDelAllocatorEv@Base 3.2.1~
 _ZNK8casacore5ArrayINS_6MVTimeEE2okEv@Base 3.2.1~
 _ZNK8casacore5ArrayINS_6MVTimeEE9makeArrayEv@Base 3.2.1~
 _ZNK8casacore5ArrayINS_7QuantumIdEEE10getSectionERKNS_6SlicerE@Base 3.2.1~
 _ZNK8casacore5ArrayINS_7QuantumIdEEE11freeStorageERPKS2_b@Base 3.2.1~
 _ZNK8casacore5ArrayINS_7QuantumIdEEE11getVStorageERb@Base 3.2.1~
 _ZNK8casacore5ArrayINS_7QuantumIdEEE12freeVStorageERPKvb@Base 3.2.1~
 _ZNK8casacore5ArrayINS_7QuantumIdEEE12makeIteratorEj@Base 3.2.1~
 _ZNK8casacore5ArrayINS_7QuantumIdEEE18nonNewDelAllocatorEv@Base 3.2.1~
 _ZNK8casacore5ArrayINS_7QuantumIdEEE2okEv@Base 3.2.1~
 _ZNK8casacore5ArrayINS_7QuantumIdEEE9makeArrayEv@Base 3.2.1~
 _ZNK8casacore5ArrayINS_8MDopplerEE10getSectionERKNS_6SlicerE@Base 3.2.1~
 _ZNK8casacore5ArrayINS_8MDopplerEE11freeStorageERPKS1_b@Base 3.2.1~
 _ZNK8casacore5ArrayINS_8MDopplerEE11getVStorageERb@Base 3.2.1~
 _ZNK8casacore5ArrayINS_8MDopplerEE12freeVStorageERPKvb@Base 3.2.1~
 _ZNK8casacore5ArrayINS_8MDopplerEE12makeIteratorEj@Base 3.2.1~
 _ZNK8casacore5ArrayINS_8MDopplerEE18nonNewDelAllocatorEv@Base 3.2.1~
 _ZNK8casacore5ArrayINS_8MDopplerEE2okEv@Base 3.2.1~
 _ZNK8casacore5ArrayINS_8MDopplerEE9makeArrayEv@Base 3.2.1~
 _ZNK8casacore5ArrayINS_9MPositionEE10getSectionERKNS_6SlicerE@Base 3.2.1~
 _ZNK8casacore5ArrayINS_9MPositionEE11freeStorageERPKS1_b@Base 3.2.1~
 _ZNK8casacore5ArrayINS_9MPositionEE11getVStorageERb@Base 3.2.1~
 _ZNK8casacore5ArrayINS_9MPositionEE12freeVStorageERPKvb@Base 3.2.1~
 _ZNK8casacore5ArrayINS_9MPositionEE12makeIteratorEj@Base 3.2.1~
 _ZNK8casacore5ArrayINS_9MPositionEE18nonNewDelAllocatorEv@Base 3.2.1~
 _ZNK8casacore5ArrayINS_9MPositionEE2okEv@Base 3.2.1~
 _ZNK8casacore5ArrayINS_9MPositionEE9makeArrayEv@Base 3.2.1~
 _ZNK8casacore6VectorINS_10MFrequencyEE2okEv@Base 3.2.1~
 _ZNK8casacore6VectorINS_15MRadialVelocityEE2okEv@Base 3.2.1~
 _ZNK8casacore6VectorINS_6MEpochEE2okEv@Base 3.2.1~
 _ZNK8casacore6VectorINS_7QuantumIdEEE2okEv@Base 3.2.1~
 _ZNK8casacore6VectorINS_8MDopplerEE2okEv@Base 3.2.1~
 _ZNK8casacore7MeasRefINS_10MDirectionEE5emptyEv@Base 3.2.1~
 _ZNK8casacore7MeasRefINS_10MDirectionEE5printERSo@Base 3.2.1~
 _ZNK8casacore7MeasRefINS_10MDirectionEE6offsetEv@Base 3.2.1~
 _ZNK8casacore7MeasRefINS_10MDirectionEE7getTypeEv@Base 3.2.1~
 _ZNK8casacore7MeasRefINS_10MFrequencyEE5emptyEv@Base 3.2.1~
 _ZNK8casacore7MeasRefINS_10MFrequencyEE5printERSo@Base 3.2.1~
 _ZNK8casacore7MeasRefINS_10MFrequencyEE6offsetEv@Base 3.2.1~
 _ZNK8casacore7MeasRefINS_10MFrequencyEE7getTypeEv@Base 3.2.1~
 _ZNK8casacore7MeasRefINS_14MEarthMagneticEE5emptyEv@Base 3.2.1~
 _ZNK8casacore7MeasRefINS_14MEarthMagneticEE5printERSo@Base 3.2.1~
 _ZNK8casacore7MeasRefINS_14MEarthMagneticEE6offsetEv@Base 3.2.1~
 _ZNK8casacore7MeasRefINS_14MEarthMagneticEE7getTypeEv@Base 3.2.1~
 _ZNK8casacore7MeasRefINS_15MRadialVelocityEE5emptyEv@Base 3.2.1~
 _ZNK8casacore7MeasRefINS_15MRadialVelocityEE5printERSo@Base 3.2.1~
 _ZNK8casacore7MeasRefINS_15MRadialVelocityEE6offsetEv@Base 3.2.1~
 _ZNK8casacore7MeasRefINS_15MRadialVelocityEE7getTypeEv@Base 3.2.1~
 _ZNK8casacore7MeasRefINS_6MEpochEE5emptyEv@Base 3.2.1~
 _ZNK8casacore7MeasRefINS_6MEpochEE5printERSo@Base 3.2.1~
 _ZNK8casacore7MeasRefINS_6MEpochEE6offsetEv@Base 3.2.1~
 _ZNK8casacore7MeasRefINS_6MEpochEE7getTypeEv@Base 3.2.1~
 _ZNK8casacore7MeasRefINS_8MDopplerEE5emptyEv@Base 3.2.1~
 _ZNK8casacore7MeasRefINS_8MDopplerEE5printERSo@Base 3.2.1~
 _ZNK8casacore7MeasRefINS_8MDopplerEE6offsetEv@Base 3.2.1~
 _ZNK8casacore7MeasRefINS_8MDopplerEE7getTypeEv@Base 3.2.1~
 _ZNK8casacore7MeasRefINS_9MPositionEE5emptyEv@Base 3.2.1~
 _ZNK8casacore7MeasRefINS_9MPositionEE5printERSo@Base 3.2.1~
 _ZNK8casacore7MeasRefINS_9MPositionEE6offsetEv@Base 3.2.1~
 _ZNK8casacore7MeasRefINS_9MPositionEE7getTypeEv@Base 3.2.1~
 _ZNK8casacore7QuantumINS_6VectorIdEEE11getFullUnitEv@Base 3.2.1~
 _ZNK8casacore7QuantumINS_6VectorIdEEE4typeEv@Base 3.2.1~
 _ZNK8casacore7QuantumINS_6VectorIdEEE5cloneEv@Base 3.2.1~
 _ZNK8casacore7QuantumINS_6VectorIdEEE5printERSo@Base 3.2.1~
 _ZNK8casacore8MeasBaseINS_11MVDirectionENS_7MeasRefINS_10MDirectionEEEE5printERSo@Base 3.2.1~
 _ZNK8casacore8MeasBaseINS_11MVDirectionENS_7MeasRefINS_10MDirectionEEEE6areYouERKNS_6StringE@Base 3.2.1~
 _ZNK8casacore8MeasBaseINS_11MVDirectionENS_7MeasRefINS_10MDirectionEEEE7assuredERKNS_6StringE@Base 3.2.1~
 _ZNK8casacore8MeasBaseINS_11MVDirectionENS_7MeasRefINS_10MDirectionEEEE7getDataEv@Base 3.2.1~
 _ZNK8casacore8MeasBaseINS_11MVDirectionENS_7MeasRefINS_10MDirectionEEEE7getUnitEv@Base 3.2.1~
 _ZNK8casacore8MeasBaseINS_11MVDirectionENS_7MeasRefINS_10MDirectionEEEE9getRefPtrEv@Base 3.2.1~
 _ZNK8casacore8MeasBaseINS_11MVFrequencyENS_7MeasRefINS_10MFrequencyEEEE5printERSo@Base 3.2.1~
 _ZNK8casacore8MeasBaseINS_11MVFrequencyENS_7MeasRefINS_10MFrequencyEEEE6areYouERKNS_6StringE@Base 3.2.1~
 _ZNK8casacore8MeasBaseINS_11MVFrequencyENS_7MeasRefINS_10MFrequencyEEEE7assuredERKNS_6StringE@Base 3.2.1~
 _ZNK8casacore8MeasBaseINS_11MVFrequencyENS_7MeasRefINS_10MFrequencyEEEE7getDataEv@Base 3.2.1~
 _ZNK8casacore8MeasBaseINS_11MVFrequencyENS_7MeasRefINS_10MFrequencyEEEE7getUnitEv@Base 3.2.1~
 _ZNK8casacore8MeasBaseINS_11MVFrequencyENS_7MeasRefINS_10MFrequencyEEEE9getRefPtrEv@Base 3.2.1~
 _ZNK8casacore8MeasBaseINS_16MVRadialVelocityENS_7MeasRefINS_15MRadialVelocityEEEE5printERSo@Base 3.2.1~
 _ZNK8casacore8MeasBaseINS_16MVRadialVelocityENS_7MeasRefINS_15MRadialVelocityEEEE6areYouERKNS_6StringE@Base 3.2.1~
 _ZNK8casacore8MeasBaseINS_16MVRadialVelocityENS_7MeasRefINS_15MRadialVelocityEEEE7assuredERKNS_6StringE@Base 3.2.1~
 _ZNK8casacore8MeasBaseINS_16MVRadialVelocityENS_7MeasRefINS_15MRadialVelocityEEEE7getDataEv@Base 3.2.1~
 _ZNK8casacore8MeasBaseINS_16MVRadialVelocityENS_7MeasRefINS_15MRadialVelocityEEEE7getUnitEv@Base 3.2.1~
 _ZNK8casacore8MeasBaseINS_16MVRadialVelocityENS_7MeasRefINS_15MRadialVelocityEEEE9getRefPtrEv@Base 3.2.1~
 _ZNK8casacore8MeasBaseINS_7MVEpochENS_7MeasRefINS_6MEpochEEEE5printERSo@Base 3.2.1~
 _ZNK8casacore8MeasBaseINS_7MVEpochENS_7MeasRefINS_6MEpochEEEE6areYouERKNS_6StringE@Base 3.2.1~
 _ZNK8casacore8MeasBaseINS_7MVEpochENS_7MeasRefINS_6MEpochEEEE7assuredERKNS_6StringE@Base 3.2.1~
 _ZNK8casacore8MeasBaseINS_7MVEpochENS_7MeasRefINS_6MEpochEEEE7getDataEv@Base 3.2.1~
 _ZNK8casacore8MeasBaseINS_7MVEpochENS_7MeasRefINS_6MEpochEEEE7getUnitEv@Base 3.2.1~
 _ZNK8casacore8MeasBaseINS_7MVEpochENS_7MeasRefINS_6MEpochEEEE9getRefPtrEv@Base 3.2.1~
 _ZNK8casacore8MeasBaseINS_9MVDopplerENS_7MeasRefINS_8MDopplerEEEE5printERSo@Base 3.2.1~
 _ZNK8casacore8MeasBaseINS_9MVDopplerENS_7MeasRefINS_8MDopplerEEEE6areYouERKNS_6StringE@Base 3.2.1~
 _ZNK8casacore8MeasBaseINS_9MVDopplerENS_7MeasRefINS_8MDopplerEEEE7assuredERKNS_6StringE@Base 3.2.1~
 _ZNK8casacore8MeasBaseINS_9MVDopplerENS_7MeasRefINS_8MDopplerEEEE7getDataEv@Base 3.2.1~
 _ZNK8casacore8MeasBaseINS_9MVDopplerENS_7MeasRefINS_8MDopplerEEEE7getUnitEv@Base 3.2.1~
 _ZNK8casacore8MeasBaseINS_9MVDopplerENS_7MeasRefINS_8MDopplerEEEE9getRefPtrEv@Base 3.2.1~
 _ZNKSt5ctypeIcE8do_widenEc@Base 3.2.1~
 _ZNSt14__shared_countILN9__gnu_cxx12_Lock_policyE2EEaSERKS2_@Base 3.2.1~
 _ZNSt15_Sp_counted_ptrIPN8casacore15FrequencyEngineELN9__gnu_cxx12_Lock_policyE2EE10_M_destroyEv@Base 3.2.1~
 _ZNSt15_Sp_counted_ptrIPN8casacore15FrequencyEngineELN9__gnu_cxx12_Lock_policyE2EE10_M_disposeEv@Base 3.2.1~
 _ZNSt15_Sp_counted_ptrIPN8casacore15FrequencyEngineELN9__gnu_cxx12_Lock_policyE2EE14_M_get_deleterERKSt9type_info@Base 3.2.1~
 _ZNSt15_Sp_counted_ptrIPN8casacore15FrequencyEngineELN9__gnu_cxx12_Lock_policyE2EED0Ev@Base 3.2.1~
 _ZNSt15_Sp_counted_ptrIPN8casacore15FrequencyEngineELN9__gnu_cxx12_Lock_policyE2EED1Ev@Base 3.2.1~
 _ZNSt15_Sp_counted_ptrIPN8casacore15FrequencyEngineELN9__gnu_cxx12_Lock_policyE2EED2Ev@Base 3.2.1~
 _ZNSt15_Sp_counted_ptrIPN8casacore20RadialVelocityEngineELN9__gnu_cxx12_Lock_policyE2EE10_M_destroyEv@Base 3.2.1~
 _ZNSt15_Sp_counted_ptrIPN8casacore20RadialVelocityEngineELN9__gnu_cxx12_Lock_policyE2EE10_M_disposeEv@Base 3.2.1~
 _ZNSt15_Sp_counted_ptrIPN8casacore20RadialVelocityEngineELN9__gnu_cxx12_Lock_policyE2EE14_M_get_deleterERKSt9type_info@Base 3.2.1~
 _ZNSt15_Sp_counted_ptrIPN8casacore20RadialVelocityEngineELN9__gnu_cxx12_Lock_policyE2EED0Ev@Base 3.2.1~
 _ZNSt15_Sp_counted_ptrIPN8casacore20RadialVelocityEngineELN9__gnu_cxx12_Lock_policyE2EED1Ev@Base 3.2.1~
 _ZNSt15_Sp_counted_ptrIPN8casacore20RadialVelocityEngineELN9__gnu_cxx12_Lock_policyE2EED2Ev@Base 3.2.1~
 _ZNSt15_Sp_counted_ptrIPN8casacore5BlockINS0_10MDirectionEEELN9__gnu_cxx12_Lock_policyE2EE10_M_destroyEv@Base 3.2.1~
 _ZNSt15_Sp_counted_ptrIPN8casacore5BlockINS0_10MDirectionEEELN9__gnu_cxx12_Lock_policyE2EE10_M_disposeEv@Base 3.2.1~
 _ZNSt15_Sp_counted_ptrIPN8casacore5BlockINS0_10MDirectionEEELN9__gnu_cxx12_Lock_policyE2EE14_M_get_deleterERKSt9type_info@Base 3.2.1~
 _ZNSt15_Sp_counted_ptrIPN8casacore5BlockINS0_10MDirectionEEELN9__gnu_cxx12_Lock_policyE2EED0Ev@Base 3.2.1~
 _ZNSt15_Sp_counted_ptrIPN8casacore5BlockINS0_10MDirectionEEELN9__gnu_cxx12_Lock_policyE2EED1Ev@Base 3.2.1~
 _ZNSt15_Sp_counted_ptrIPN8casacore5BlockINS0_10MDirectionEEELN9__gnu_cxx12_Lock_policyE2EED2Ev@Base 3.2.1~
 _ZNSt15_Sp_counted_ptrIPN8casacore5BlockINS0_10MFrequencyEEELN9__gnu_cxx12_Lock_policyE2EE10_M_destroyEv@Base 3.2.1~
 _ZNSt15_Sp_counted_ptrIPN8casacore5BlockINS0_10MFrequencyEEELN9__gnu_cxx12_Lock_policyE2EE10_M_disposeEv@Base 3.2.1~
 _ZNSt15_Sp_counted_ptrIPN8casacore5BlockINS0_10MFrequencyEEELN9__gnu_cxx12_Lock_policyE2EE14_M_get_deleterERKSt9type_info@Base 3.2.1~
 _ZNSt15_Sp_counted_ptrIPN8casacore5BlockINS0_10MFrequencyEEELN9__gnu_cxx12_Lock_policyE2EED0Ev@Base 3.2.1~
 _ZNSt15_Sp_counted_ptrIPN8casacore5BlockINS0_10MFrequencyEEELN9__gnu_cxx12_Lock_policyE2EED1Ev@Base 3.2.1~
 _ZNSt15_Sp_counted_ptrIPN8casacore5BlockINS0_10MFrequencyEEELN9__gnu_cxx12_Lock_policyE2EED2Ev@Base 3.2.1~
 _ZNSt15_Sp_counted_ptrIPN8casacore5BlockINS0_11MVFrequencyEEELN9__gnu_cxx12_Lock_policyE2EE10_M_destroyEv@Base 3.2.1~
 _ZNSt15_Sp_counted_ptrIPN8casacore5BlockINS0_11MVFrequencyEEELN9__gnu_cxx12_Lock_policyE2EE10_M_disposeEv@Base 3.2.1~
 _ZNSt15_Sp_counted_ptrIPN8casacore5BlockINS0_11MVFrequencyEEELN9__gnu_cxx12_Lock_policyE2EE14_M_get_deleterERKSt9type_info@Base 3.2.1~
 _ZNSt15_Sp_counted_ptrIPN8casacore5BlockINS0_11MVFrequencyEEELN9__gnu_cxx12_Lock_policyE2EED0Ev@Base 3.2.1~
 _ZNSt15_Sp_counted_ptrIPN8casacore5BlockINS0_11MVFrequencyEEELN9__gnu_cxx12_Lock_policyE2EED1Ev@Base 3.2.1~
 _ZNSt15_Sp_counted_ptrIPN8casacore5BlockINS0_11MVFrequencyEEELN9__gnu_cxx12_Lock_policyE2EED2Ev@Base 3.2.1~
 _ZNSt15_Sp_counted_ptrIPN8casacore5BlockINS0_14MEarthMagneticEEELN9__gnu_cxx12_Lock_policyE2EE10_M_destroyEv@Base 3.2.1~
 _ZNSt15_Sp_counted_ptrIPN8casacore5BlockINS0_14MEarthMagneticEEELN9__gnu_cxx12_Lock_policyE2EE10_M_disposeEv@Base 3.2.1~
 _ZNSt15_Sp_counted_ptrIPN8casacore5BlockINS0_14MEarthMagneticEEELN9__gnu_cxx12_Lock_policyE2EE14_M_get_deleterERKSt9type_info@Base 3.2.1~
 _ZNSt15_Sp_counted_ptrIPN8casacore5BlockINS0_14MEarthMagneticEEELN9__gnu_cxx12_Lock_policyE2EED0Ev@Base 3.2.1~
 _ZNSt15_Sp_counted_ptrIPN8casacore5BlockINS0_14MEarthMagneticEEELN9__gnu_cxx12_Lock_policyE2EED1Ev@Base 3.2.1~
 _ZNSt15_Sp_counted_ptrIPN8casacore5BlockINS0_14MEarthMagneticEEELN9__gnu_cxx12_Lock_policyE2EED2Ev@Base 3.2.1~
 _ZNSt15_Sp_counted_ptrIPN8casacore5BlockINS0_15MRadialVelocityEEELN9__gnu_cxx12_Lock_policyE2EE10_M_destroyEv@Base 3.2.1~
 _ZNSt15_Sp_counted_ptrIPN8casacore5BlockINS0_15MRadialVelocityEEELN9__gnu_cxx12_Lock_policyE2EE10_M_disposeEv@Base 3.2.1~
 _ZNSt15_Sp_counted_ptrIPN8casacore5BlockINS0_15MRadialVelocityEEELN9__gnu_cxx12_Lock_policyE2EE14_M_get_deleterERKSt9type_info@Base 3.2.1~
 _ZNSt15_Sp_counted_ptrIPN8casacore5BlockINS0_15MRadialVelocityEEELN9__gnu_cxx12_Lock_policyE2EED0Ev@Base 3.2.1~
 _ZNSt15_Sp_counted_ptrIPN8casacore5BlockINS0_15MRadialVelocityEEELN9__gnu_cxx12_Lock_policyE2EED1Ev@Base 3.2.1~
 _ZNSt15_Sp_counted_ptrIPN8casacore5BlockINS0_15MRadialVelocityEEELN9__gnu_cxx12_Lock_policyE2EED2Ev@Base 3.2.1~
 _ZNSt15_Sp_counted_ptrIPN8casacore5BlockINS0_6MEpochEEELN9__gnu_cxx12_Lock_policyE2EE10_M_destroyEv@Base 3.2.1~
 _ZNSt15_Sp_counted_ptrIPN8casacore5BlockINS0_6MEpochEEELN9__gnu_cxx12_Lock_policyE2EE10_M_disposeEv@Base 3.2.1~
 _ZNSt15_Sp_counted_ptrIPN8casacore5BlockINS0_6MEpochEEELN9__gnu_cxx12_Lock_policyE2EE14_M_get_deleterERKSt9type_info@Base 3.2.1~
 _ZNSt15_Sp_counted_ptrIPN8casacore5BlockINS0_6MEpochEEELN9__gnu_cxx12_Lock_policyE2EED0Ev@Base 3.2.1~
 _ZNSt15_Sp_counted_ptrIPN8casacore5BlockINS0_6MEpochEEELN9__gnu_cxx12_Lock_policyE2EED1Ev@Base 3.2.1~
 _ZNSt15_Sp_counted_ptrIPN8casacore5BlockINS0_6MEpochEEELN9__gnu_cxx12_Lock_policyE2EED2Ev@Base 3.2.1~
 _ZNSt15_Sp_counted_ptrIPN8casacore5BlockINS0_6MVTimeEEELN9__gnu_cxx12_Lock_policyE2EE10_M_destroyEv@Base 3.2.1~
 _ZNSt15_Sp_counted_ptrIPN8casacore5BlockINS0_6MVTimeEEELN9__gnu_cxx12_Lock_policyE2EE10_M_disposeEv@Base 3.2.1~
 _ZNSt15_Sp_counted_ptrIPN8casacore5BlockINS0_6MVTimeEEELN9__gnu_cxx12_Lock_policyE2EE14_M_get_deleterERKSt9type_info@Base 3.2.1~
 _ZNSt15_Sp_counted_ptrIPN8casacore5BlockINS0_6MVTimeEEELN9__gnu_cxx12_Lock_policyE2EED0Ev@Base 3.2.1~
 _ZNSt15_Sp_counted_ptrIPN8casacore5BlockINS0_6MVTimeEEELN9__gnu_cxx12_Lock_policyE2EED1Ev@Base 3.2.1~
 _ZNSt15_Sp_counted_ptrIPN8casacore5BlockINS0_6MVTimeEEELN9__gnu_cxx12_Lock_policyE2EED2Ev@Base 3.2.1~
 _ZNSt15_Sp_counted_ptrIPN8casacore5BlockINS0_7QuantumIdEEEELN9__gnu_cxx12_Lock_policyE2EE10_M_destroyEv@Base 3.2.1~
 _ZNSt15_Sp_counted_ptrIPN8casacore5BlockINS0_7QuantumIdEEEELN9__gnu_cxx12_Lock_policyE2EE10_M_disposeEv@Base 3.2.1~
 _ZNSt15_Sp_counted_ptrIPN8casacore5BlockINS0_7QuantumIdEEEELN9__gnu_cxx12_Lock_policyE2EE14_M_get_deleterERKSt9type_info@Base 3.2.1~
 _ZNSt15_Sp_counted_ptrIPN8casacore5BlockINS0_7QuantumIdEEEELN9__gnu_cxx12_Lock_policyE2EED0Ev@Base 3.2.1~
 _ZNSt15_Sp_counted_ptrIPN8casacore5BlockINS0_7QuantumIdEEEELN9__gnu_cxx12_Lock_policyE2EED1Ev@Base 3.2.1~
 _ZNSt15_Sp_counted_ptrIPN8casacore5BlockINS0_7QuantumIdEEEELN9__gnu_cxx12_Lock_policyE2EED2Ev@Base 3.2.1~
 _ZNSt15_Sp_counted_ptrIPN8casacore5BlockINS0_8MDopplerEEELN9__gnu_cxx12_Lock_policyE2EE10_M_destroyEv@Base 3.2.1~
 _ZNSt15_Sp_counted_ptrIPN8casacore5BlockINS0_8MDopplerEEELN9__gnu_cxx12_Lock_policyE2EE10_M_disposeEv@Base 3.2.1~
 _ZNSt15_Sp_counted_ptrIPN8casacore5BlockINS0_8MDopplerEEELN9__gnu_cxx12_Lock_policyE2EE14_M_get_deleterERKSt9type_info@Base 3.2.1~
 _ZNSt15_Sp_counted_ptrIPN8casacore5BlockINS0_8MDopplerEEELN9__gnu_cxx12_Lock_policyE2EED0Ev@Base 3.2.1~
 _ZNSt15_Sp_counted_ptrIPN8casacore5BlockINS0_8MDopplerEEELN9__gnu_cxx12_Lock_policyE2EED1Ev@Base 3.2.1~
 _ZNSt15_Sp_counted_ptrIPN8casacore5BlockINS0_8MDopplerEEELN9__gnu_cxx12_Lock_policyE2EED2Ev@Base 3.2.1~
 _ZNSt15_Sp_counted_ptrIPN8casacore5BlockINS0_9MPositionEEELN9__gnu_cxx12_Lock_policyE2EE10_M_destroyEv@Base 3.2.1~
 _ZNSt15_Sp_counted_ptrIPN8casacore5BlockINS0_9MPositionEEELN9__gnu_cxx12_Lock_policyE2EE10_M_disposeEv@Base 3.2.1~
 _ZNSt15_Sp_counted_ptrIPN8casacore5BlockINS0_9MPositionEEELN9__gnu_cxx12_Lock_policyE2EE14_M_get_deleterERKSt9type_info@Base 3.2.1~
 _ZNSt15_Sp_counted_ptrIPN8casacore5BlockINS0_9MPositionEEELN9__gnu_cxx12_Lock_policyE2EED0Ev@Base 3.2.1~
 _ZNSt15_Sp_counted_ptrIPN8casacore5BlockINS0_9MPositionEEELN9__gnu_cxx12_Lock_policyE2EED1Ev@Base 3.2.1~
 _ZNSt15_Sp_counted_ptrIPN8casacore5BlockINS0_9MPositionEEELN9__gnu_cxx12_Lock_policyE2EED2Ev@Base 3.2.1~
 _ZNSt15_Sp_counted_ptrIPN8casacore7MeasRefINS0_10MDirectionEE6RefRepELN9__gnu_cxx12_Lock_policyE2EE10_M_destroyEv@Base 3.2.1~
 _ZNSt15_Sp_counted_ptrIPN8casacore7MeasRefINS0_10MDirectionEE6RefRepELN9__gnu_cxx12_Lock_policyE2EE10_M_disposeEv@Base 3.2.1~
 _ZNSt15_Sp_counted_ptrIPN8casacore7MeasRefINS0_10MDirectionEE6RefRepELN9__gnu_cxx12_Lock_policyE2EE14_M_get_deleterERKSt9type_info@Base 3.2.1~
 _ZNSt15_Sp_counted_ptrIPN8casacore7MeasRefINS0_10MDirectionEE6RefRepELN9__gnu_cxx12_Lock_policyE2EED0Ev@Base 3.2.1~
 _ZNSt15_Sp_counted_ptrIPN8casacore7MeasRefINS0_10MDirectionEE6RefRepELN9__gnu_cxx12_Lock_policyE2EED1Ev@Base 3.2.1~
 _ZNSt15_Sp_counted_ptrIPN8casacore7MeasRefINS0_10MDirectionEE6RefRepELN9__gnu_cxx12_Lock_policyE2EED2Ev@Base 3.2.1~
 _ZNSt15_Sp_counted_ptrIPN8casacore7MeasRefINS0_10MFrequencyEE6RefRepELN9__gnu_cxx12_Lock_policyE2EE10_M_destroyEv@Base 3.2.1~
 _ZNSt15_Sp_counted_ptrIPN8casacore7MeasRefINS0_10MFrequencyEE6RefRepELN9__gnu_cxx12_Lock_policyE2EE10_M_disposeEv@Base 3.2.1~
 _ZNSt15_Sp_counted_ptrIPN8casacore7MeasRefINS0_10MFrequencyEE6RefRepELN9__gnu_cxx12_Lock_policyE2EE14_M_get_deleterERKSt9type_info@Base 3.2.1~
 _ZNSt15_Sp_counted_ptrIPN8casacore7MeasRefINS0_10MFrequencyEE6RefRepELN9__gnu_cxx12_Lock_policyE2EED0Ev@Base 3.2.1~
 _ZNSt15_Sp_counted_ptrIPN8casacore7MeasRefINS0_10MFrequencyEE6RefRepELN9__gnu_cxx12_Lock_policyE2EED1Ev@Base 3.2.1~
 _ZNSt15_Sp_counted_ptrIPN8casacore7MeasRefINS0_10MFrequencyEE6RefRepELN9__gnu_cxx12_Lock_policyE2EED2Ev@Base 3.2.1~
 _ZNSt15_Sp_counted_ptrIPN8casacore7MeasRefINS0_14MEarthMagneticEE6RefRepELN9__gnu_cxx12_Lock_policyE2EE10_M_destroyEv@Base 3.2.1~
 _ZNSt15_Sp_counted_ptrIPN8casacore7MeasRefINS0_14MEarthMagneticEE6RefRepELN9__gnu_cxx12_Lock_policyE2EE10_M_disposeEv@Base 3.2.1~
 _ZNSt15_Sp_counted_ptrIPN8casacore7MeasRefINS0_14MEarthMagneticEE6RefRepELN9__gnu_cxx12_Lock_policyE2EE14_M_get_deleterERKSt9type_info@Base 3.2.1~
 _ZNSt15_Sp_counted_ptrIPN8casacore7MeasRefINS0_14MEarthMagneticEE6RefRepELN9__gnu_cxx12_Lock_policyE2EED0Ev@Base 3.2.1~
 _ZNSt15_Sp_counted_ptrIPN8casacore7MeasRefINS0_14MEarthMagneticEE6RefRepELN9__gnu_cxx12_Lock_policyE2EED1Ev@Base 3.2.1~
 _ZNSt15_Sp_counted_ptrIPN8casacore7MeasRefINS0_14MEarthMagneticEE6RefRepELN9__gnu_cxx12_Lock_policyE2EED2Ev@Base 3.2.1~
 _ZNSt15_Sp_counted_ptrIPN8casacore7MeasRefINS0_15MRadialVelocityEE6RefRepELN9__gnu_cxx12_Lock_policyE2EE10_M_destroyEv@Base 3.2.1~
 _ZNSt15_Sp_counted_ptrIPN8casacore7MeasRefINS0_15MRadialVelocityEE6RefRepELN9__gnu_cxx12_Lock_policyE2EE10_M_disposeEv@Base 3.2.1~
 _ZNSt15_Sp_counted_ptrIPN8casacore7MeasRefINS0_15MRadialVelocityEE6RefRepELN9__gnu_cxx12_Lock_policyE2EE14_M_get_deleterERKSt9type_info@Base 3.2.1~
 _ZNSt15_Sp_counted_ptrIPN8casacore7MeasRefINS0_15MRadialVelocityEE6RefRepELN9__gnu_cxx12_Lock_policyE2EED0Ev@Base 3.2.1~
 _ZNSt15_Sp_counted_ptrIPN8casacore7MeasRefINS0_15MRadialVelocityEE6RefRepELN9__gnu_cxx12_Lock_policyE2EED1Ev@Base 3.2.1~
 _ZNSt15_Sp_counted_ptrIPN8casacore7MeasRefINS0_15MRadialVelocityEE6RefRepELN9__gnu_cxx12_Lock_policyE2EED2Ev@Base 3.2.1~
 _ZNSt15_Sp_counted_ptrIPN8casacore7MeasRefINS0_6MEpochEE6RefRepELN9__gnu_cxx12_Lock_policyE2EE10_M_destroyEv@Base 3.2.1~
 _ZNSt15_Sp_counted_ptrIPN8casacore7MeasRefINS0_6MEpochEE6RefRepELN9__gnu_cxx12_Lock_policyE2EE10_M_disposeEv@Base 3.2.1~
 _ZNSt15_Sp_counted_ptrIPN8casacore7MeasRefINS0_6MEpochEE6RefRepELN9__gnu_cxx12_Lock_policyE2EE14_M_get_deleterERKSt9type_info@Base 3.2.1~
 _ZNSt15_Sp_counted_ptrIPN8casacore7MeasRefINS0_6MEpochEE6RefRepELN9__gnu_cxx12_Lock_policyE2EED0Ev@Base 3.2.1~
 _ZNSt15_Sp_counted_ptrIPN8casacore7MeasRefINS0_6MEpochEE6RefRepELN9__gnu_cxx12_Lock_policyE2EED1Ev@Base 3.2.1~
 _ZNSt15_Sp_counted_ptrIPN8casacore7MeasRefINS0_6MEpochEE6RefRepELN9__gnu_cxx12_Lock_policyE2EED2Ev@Base 3.2.1~
 _ZNSt15_Sp_counted_ptrIPN8casacore7MeasRefINS0_8MDopplerEE6RefRepELN9__gnu_cxx12_Lock_policyE2EE10_M_destroyEv@Base 3.2.1~
 _ZNSt15_Sp_counted_ptrIPN8casacore7MeasRefINS0_8MDopplerEE6RefRepELN9__gnu_cxx12_Lock_policyE2EE10_M_disposeEv@Base 3.2.1~
 _ZNSt15_Sp_counted_ptrIPN8casacore7MeasRefINS0_8MDopplerEE6RefRepELN9__gnu_cxx12_Lock_policyE2EE14_M_get_deleterERKSt9type_info@Base 3.2.1~
 _ZNSt15_Sp_counted_ptrIPN8casacore7MeasRefINS0_8MDopplerEE6RefRepELN9__gnu_cxx12_Lock_policyE2EED0Ev@Base 3.2.1~
 _ZNSt15_Sp_counted_ptrIPN8casacore7MeasRefINS0_8MDopplerEE6RefRepELN9__gnu_cxx12_Lock_policyE2EED1Ev@Base 3.2.1~
 _ZNSt15_Sp_counted_ptrIPN8casacore7MeasRefINS0_8MDopplerEE6RefRepELN9__gnu_cxx12_Lock_policyE2EED2Ev@Base 3.2.1~
 _ZNSt15_Sp_counted_ptrIPN8casacore7MeasRefINS0_9MPositionEE6RefRepELN9__gnu_cxx12_Lock_policyE2EE10_M_destroyEv@Base 3.2.1~
 _ZNSt15_Sp_counted_ptrIPN8casacore7MeasRefINS0_9MPositionEE6RefRepELN9__gnu_cxx12_Lock_policyE2EE10_M_disposeEv@Base 3.2.1~
 _ZNSt15_Sp_counted_ptrIPN8casacore7MeasRefINS0_9MPositionEE6RefRepELN9__gnu_cxx12_Lock_policyE2EE14_M_get_deleterERKSt9type_info@Base 3.2.1~
 _ZNSt15_Sp_counted_ptrIPN8casacore7MeasRefINS0_9MPositionEE6RefRepELN9__gnu_cxx12_Lock_policyE2EED0Ev@Base 3.2.1~
 _ZNSt15_Sp_counted_ptrIPN8casacore7MeasRefINS0_9MPositionEE6RefRepELN9__gnu_cxx12_Lock_policyE2EED1Ev@Base 3.2.1~
 _ZNSt15_Sp_counted_ptrIPN8casacore7MeasRefINS0_9MPositionEE6RefRepELN9__gnu_cxx12_Lock_policyE2EED2Ev@Base 3.2.1~
 _ZNSt16_Sp_counted_baseILN9__gnu_cxx12_Lock_policyE2EE10_M_releaseEv@Base 3.2.1~
 _ZNSt19_Sp_counted_deleterIPN8casacore21ArrayPositionIteratorENS0_10CountedPtrIS1_E7DeleterIS1_EESaIvELN9__gnu_cxx12_Lock_policyE2EE10_M_destroyEv@Base 3.2.1~
 _ZNSt19_Sp_counted_deleterIPN8casacore21ArrayPositionIteratorENS0_10CountedPtrIS1_E7DeleterIS1_EESaIvELN9__gnu_cxx12_Lock_policyE2EE10_M_disposeEv@Base 3.2.1~
 _ZNSt19_Sp_counted_deleterIPN8casacore21ArrayPositionIteratorENS0_10CountedPtrIS1_E7DeleterIS1_EESaIvELN9__gnu_cxx12_Lock_policyE2EE14_M_get_deleterERKSt9type_info@Base 3.2.1~
 _ZNSt19_Sp_counted_deleterIPN8casacore21ArrayPositionIteratorENS0_10CountedPtrIS1_E7DeleterIS1_EESaIvELN9__gnu_cxx12_Lock_policyE2EED0Ev@Base 3.2.1~
 _ZNSt19_Sp_counted_deleterIPN8casacore21ArrayPositionIteratorENS0_10CountedPtrIS1_E7DeleterIS1_EESaIvELN9__gnu_cxx12_Lock_policyE2EED1Ev@Base 3.2.1~
 _ZNSt19_Sp_counted_deleterIPN8casacore21ArrayPositionIteratorENS0_10CountedPtrIS1_E7DeleterIS1_EESaIvELN9__gnu_cxx12_Lock_policyE2EED2Ev@Base 3.2.1~
 _ZNSt19_Sp_counted_deleterIPN8casacore5BlockINS0_10MDirectionEEENS0_10CountedPtrIS3_E7DeleterIS3_EESaIvELN9__gnu_cxx12_Lock_policyE2EE10_M_destroyEv@Base 3.2.1~
 _ZNSt19_Sp_counted_deleterIPN8casacore5BlockINS0_10MDirectionEEENS0_10CountedPtrIS3_E7DeleterIS3_EESaIvELN9__gnu_cxx12_Lock_policyE2EE10_M_disposeEv@Base 3.2.1~
 _ZNSt19_Sp_counted_deleterIPN8casacore5BlockINS0_10MDirectionEEENS0_10CountedPtrIS3_E7DeleterIS3_EESaIvELN9__gnu_cxx12_Lock_policyE2EE14_M_get_deleterERKSt9type_info@Base 3.2.1~
 _ZNSt19_Sp_counted_deleterIPN8casacore5BlockINS0_10MDirectionEEENS0_10CountedPtrIS3_E7DeleterIS3_EESaIvELN9__gnu_cxx12_Lock_policyE2EED0Ev@Base 3.2.1~
 _ZNSt19_Sp_counted_deleterIPN8casacore5BlockINS0_10MDirectionEEENS0_10CountedPtrIS3_E7DeleterIS3_EESaIvELN9__gnu_cxx12_Lock_policyE2EED1Ev@Base 3.2.1~
 _ZNSt19_Sp_counted_deleterIPN8casacore5BlockINS0_10MDirectionEEENS0_10CountedPtrIS3_E7DeleterIS3_EESaIvELN9__gnu_cxx12_Lock_policyE2EED2Ev@Base 3.2.1~
 _ZNSt19_Sp_counted_deleterIPN8casacore5BlockINS0_10MFrequencyEEENS0_10CountedPtrIS3_E7DeleterIS3_EESaIvELN9__gnu_cxx12_Lock_policyE2EE10_M_destroyEv@Base 3.2.1~
 _ZNSt19_Sp_counted_deleterIPN8casacore5BlockINS0_10MFrequencyEEENS0_10CountedPtrIS3_E7DeleterIS3_EESaIvELN9__gnu_cxx12_Lock_policyE2EE10_M_disposeEv@Base 3.2.1~
 _ZNSt19_Sp_counted_deleterIPN8casacore5BlockINS0_10MFrequencyEEENS0_10CountedPtrIS3_E7DeleterIS3_EESaIvELN9__gnu_cxx12_Lock_policyE2EE14_M_get_deleterERKSt9type_info@Base 3.2.1~
 _ZNSt19_Sp_counted_deleterIPN8casacore5BlockINS0_10MFrequencyEEENS0_10CountedPtrIS3_E7DeleterIS3_EESaIvELN9__gnu_cxx12_Lock_policyE2EED0Ev@Base 3.2.1~
 _ZNSt19_Sp_counted_deleterIPN8casacore5BlockINS0_10MFrequencyEEENS0_10CountedPtrIS3_E7DeleterIS3_EESaIvELN9__gnu_cxx12_Lock_policyE2EED1Ev@Base 3.2.1~
 _ZNSt19_Sp_counted_deleterIPN8casacore5BlockINS0_10MFrequencyEEENS0_10CountedPtrIS3_E7DeleterIS3_EESaIvELN9__gnu_cxx12_Lock_policyE2EED2Ev@Base 3.2.1~
 _ZNSt19_Sp_counted_deleterIPN8casacore5BlockINS0_11MVFrequencyEEENS0_10CountedPtrIS3_E7DeleterIS3_EESaIvELN9__gnu_cxx12_Lock_policyE2EE10_M_destroyEv@Base 3.2.1~
 _ZNSt19_Sp_counted_deleterIPN8casacore5BlockINS0_11MVFrequencyEEENS0_10CountedPtrIS3_E7DeleterIS3_EESaIvELN9__gnu_cxx12_Lock_policyE2EE10_M_disposeEv@Base 3.2.1~
 _ZNSt19_Sp_counted_deleterIPN8casacore5BlockINS0_11MVFrequencyEEENS0_10CountedPtrIS3_E7DeleterIS3_EESaIvELN9__gnu_cxx12_Lock_policyE2EE14_M_get_deleterERKSt9type_info@Base 3.2.1~
 _ZNSt19_Sp_counted_deleterIPN8casacore5BlockINS0_11MVFrequencyEEENS0_10CountedPtrIS3_E7DeleterIS3_EESaIvELN9__gnu_cxx12_Lock_policyE2EED0Ev@Base 3.2.1~
 _ZNSt19_Sp_counted_deleterIPN8casacore5BlockINS0_11MVFrequencyEEENS0_10CountedPtrIS3_E7DeleterIS3_EESaIvELN9__gnu_cxx12_Lock_policyE2EED1Ev@Base 3.2.1~
 _ZNSt19_Sp_counted_deleterIPN8casacore5BlockINS0_11MVFrequencyEEENS0_10CountedPtrIS3_E7DeleterIS3_EESaIvELN9__gnu_cxx12_Lock_policyE2EED2Ev@Base 3.2.1~
 _ZNSt19_Sp_counted_deleterIPN8casacore5BlockINS0_14MEarthMagneticEEENS0_10CountedPtrIS3_E7DeleterIS3_EESaIvELN9__gnu_cxx12_Lock_policyE2EE10_M_destroyEv@Base 3.2.1~
 _ZNSt19_Sp_counted_deleterIPN8casacore5BlockINS0_14MEarthMagneticEEENS0_10CountedPtrIS3_E7DeleterIS3_EESaIvELN9__gnu_cxx12_Lock_policyE2EE10_M_disposeEv@Base 3.2.1~
 _ZNSt19_Sp_counted_deleterIPN8casacore5BlockINS0_14MEarthMagneticEEENS0_10CountedPtrIS3_E7DeleterIS3_EESaIvELN9__gnu_cxx12_Lock_policyE2EE14_M_get_deleterERKSt9type_info@Base 3.2.1~
 _ZNSt19_Sp_counted_deleterIPN8casacore5BlockINS0_14MEarthMagneticEEENS0_10CountedPtrIS3_E7DeleterIS3_EESaIvELN9__gnu_cxx12_Lock_policyE2EED0Ev@Base 3.2.1~
 _ZNSt19_Sp_counted_deleterIPN8casacore5BlockINS0_14MEarthMagneticEEENS0_10CountedPtrIS3_E7DeleterIS3_EESaIvELN9__gnu_cxx12_Lock_policyE2EED1Ev@Base 3.2.1~
 _ZNSt19_Sp_counted_deleterIPN8casacore5BlockINS0_14MEarthMagneticEEENS0_10CountedPtrIS3_E7DeleterIS3_EESaIvELN9__gnu_cxx12_Lock_policyE2EED2Ev@Base 3.2.1~
 _ZNSt19_Sp_counted_deleterIPN8casacore5BlockINS0_15MRadialVelocityEEENS0_10CountedPtrIS3_E7DeleterIS3_EESaIvELN9__gnu_cxx12_Lock_policyE2EE10_M_destroyEv@Base 3.2.1~
 _ZNSt19_Sp_counted_deleterIPN8casacore5BlockINS0_15MRadialVelocityEEENS0_10CountedPtrIS3_E7DeleterIS3_EESaIvELN9__gnu_cxx12_Lock_policyE2EE10_M_disposeEv@Base 3.2.1~
 _ZNSt19_Sp_counted_deleterIPN8casacore5BlockINS0_15MRadialVelocityEEENS0_10CountedPtrIS3_E7DeleterIS3_EESaIvELN9__gnu_cxx12_Lock_policyE2EE14_M_get_deleterERKSt9type_info@Base 3.2.1~
 _ZNSt19_Sp_counted_deleterIPN8casacore5BlockINS0_15MRadialVelocityEEENS0_10CountedPtrIS3_E7DeleterIS3_EESaIvELN9__gnu_cxx12_Lock_policyE2EED0Ev@Base 3.2.1~
 _ZNSt19_Sp_counted_deleterIPN8casacore5BlockINS0_15MRadialVelocityEEENS0_10CountedPtrIS3_E7DeleterIS3_EESaIvELN9__gnu_cxx12_Lock_policyE2EED1Ev@Base 3.2.1~
 _ZNSt19_Sp_counted_deleterIPN8casacore5BlockINS0_15MRadialVelocityEEENS0_10CountedPtrIS3_E7DeleterIS3_EESaIvELN9__gnu_cxx12_Lock_policyE2EED2Ev@Base 3.2.1~
 _ZNSt19_Sp_counted_deleterIPN8casacore5BlockINS0_6MEpochEEENS0_10CountedPtrIS3_E7DeleterIS3_EESaIvELN9__gnu_cxx12_Lock_policyE2EE10_M_destroyEv@Base 3.2.1~
 _ZNSt19_Sp_counted_deleterIPN8casacore5BlockINS0_6MEpochEEENS0_10CountedPtrIS3_E7DeleterIS3_EESaIvELN9__gnu_cxx12_Lock_policyE2EE10_M_disposeEv@Base 3.2.1~
 _ZNSt19_Sp_counted_deleterIPN8casacore5BlockINS0_6MEpochEEENS0_10CountedPtrIS3_E7DeleterIS3_EESaIvELN9__gnu_cxx12_Lock_policyE2EE14_M_get_deleterERKSt9type_info@Base 3.2.1~
 _ZNSt19_Sp_counted_deleterIPN8casacore5BlockINS0_6MEpochEEENS0_10CountedPtrIS3_E7DeleterIS3_EESaIvELN9__gnu_cxx12_Lock_policyE2EED0Ev@Base 3.2.1~
 _ZNSt19_Sp_counted_deleterIPN8casacore5BlockINS0_6MEpochEEENS0_10CountedPtrIS3_E7DeleterIS3_EESaIvELN9__gnu_cxx12_Lock_policyE2EED1Ev@Base 3.2.1~
 _ZNSt19_Sp_counted_deleterIPN8casacore5BlockINS0_6MEpochEEENS0_10CountedPtrIS3_E7DeleterIS3_EESaIvELN9__gnu_cxx12_Lock_policyE2EED2Ev@Base 3.2.1~
 _ZNSt19_Sp_counted_deleterIPN8casacore5BlockINS0_6MVTimeEEENS0_10CountedPtrIS3_E7DeleterIS3_EESaIvELN9__gnu_cxx12_Lock_policyE2EE10_M_destroyEv@Base 3.2.1~
 _ZNSt19_Sp_counted_deleterIPN8casacore5BlockINS0_6MVTimeEEENS0_10CountedPtrIS3_E7DeleterIS3_EESaIvELN9__gnu_cxx12_Lock_policyE2EE10_M_disposeEv@Base 3.2.1~
 _ZNSt19_Sp_counted_deleterIPN8casacore5BlockINS0_6MVTimeEEENS0_10CountedPtrIS3_E7DeleterIS3_EESaIvELN9__gnu_cxx12_Lock_policyE2EE14_M_get_deleterERKSt9type_info@Base 3.2.1~
 _ZNSt19_Sp_counted_deleterIPN8casacore5BlockINS0_6MVTimeEEENS0_10CountedPtrIS3_E7DeleterIS3_EESaIvELN9__gnu_cxx12_Lock_policyE2EED0Ev@Base 3.2.1~
 _ZNSt19_Sp_counted_deleterIPN8casacore5BlockINS0_6MVTimeEEENS0_10CountedPtrIS3_E7DeleterIS3_EESaIvELN9__gnu_cxx12_Lock_policyE2EED1Ev@Base 3.2.1~
 _ZNSt19_Sp_counted_deleterIPN8casacore5BlockINS0_6MVTimeEEENS0_10CountedPtrIS3_E7DeleterIS3_EESaIvELN9__gnu_cxx12_Lock_policyE2EED2Ev@Base 3.2.1~
 _ZNSt19_Sp_counted_deleterIPN8casacore5BlockINS0_7QuantumIdEEEENS0_10CountedPtrIS4_E7DeleterIS4_EESaIvELN9__gnu_cxx12_Lock_policyE2EE10_M_destroyEv@Base 3.2.1~
 _ZNSt19_Sp_counted_deleterIPN8casacore5BlockINS0_7QuantumIdEEEENS0_10CountedPtrIS4_E7DeleterIS4_EESaIvELN9__gnu_cxx12_Lock_policyE2EE10_M_disposeEv@Base 3.2.1~
 _ZNSt19_Sp_counted_deleterIPN8casacore5BlockINS0_7QuantumIdEEEENS0_10CountedPtrIS4_E7DeleterIS4_EESaIvELN9__gnu_cxx12_Lock_policyE2EE14_M_get_deleterERKSt9type_info@Base 3.2.1~
 _ZNSt19_Sp_counted_deleterIPN8casacore5BlockINS0_7QuantumIdEEEENS0_10CountedPtrIS4_E7DeleterIS4_EESaIvELN9__gnu_cxx12_Lock_policyE2EED0Ev@Base 3.2.1~
 _ZNSt19_Sp_counted_deleterIPN8casacore5BlockINS0_7QuantumIdEEEENS0_10CountedPtrIS4_E7DeleterIS4_EESaIvELN9__gnu_cxx12_Lock_policyE2EED1Ev@Base 3.2.1~
 _ZNSt19_Sp_counted_deleterIPN8casacore5BlockINS0_7QuantumIdEEEENS0_10CountedPtrIS4_E7DeleterIS4_EESaIvELN9__gnu_cxx12_Lock_policyE2EED2Ev@Base 3.2.1~
 _ZNSt19_Sp_counted_deleterIPN8casacore5BlockINS0_8MDopplerEEENS0_10CountedPtrIS3_E7DeleterIS3_EESaIvELN9__gnu_cxx12_Lock_policyE2EE10_M_destroyEv@Base 3.2.1~
 _ZNSt19_Sp_counted_deleterIPN8casacore5BlockINS0_8MDopplerEEENS0_10CountedPtrIS3_E7DeleterIS3_EESaIvELN9__gnu_cxx12_Lock_policyE2EE10_M_disposeEv@Base 3.2.1~
 _ZNSt19_Sp_counted_deleterIPN8casacore5BlockINS0_8MDopplerEEENS0_10CountedPtrIS3_E7DeleterIS3_EESaIvELN9__gnu_cxx12_Lock_policyE2EE14_M_get_deleterERKSt9type_info@Base 3.2.1~
 _ZNSt19_Sp_counted_deleterIPN8casacore5BlockINS0_8MDopplerEEENS0_10CountedPtrIS3_E7DeleterIS3_EESaIvELN9__gnu_cxx12_Lock_policyE2EED0Ev@Base 3.2.1~
 _ZNSt19_Sp_counted_deleterIPN8casacore5BlockINS0_8MDopplerEEENS0_10CountedPtrIS3_E7DeleterIS3_EESaIvELN9__gnu_cxx12_Lock_policyE2EED1Ev@Base 3.2.1~
 _ZNSt19_Sp_counted_deleterIPN8casacore5BlockINS0_8MDopplerEEENS0_10CountedPtrIS3_E7DeleterIS3_EESaIvELN9__gnu_cxx12_Lock_policyE2EED2Ev@Base 3.2.1~
 _ZNSt19_Sp_counted_deleterIPN8casacore5BlockINS0_9MPositionEEENS0_10CountedPtrIS3_E7DeleterIS3_EESaIvELN9__gnu_cxx12_Lock_policyE2EE10_M_destroyEv@Base 3.2.1~
 _ZNSt19_Sp_counted_deleterIPN8casacore5BlockINS0_9MPositionEEENS0_10CountedPtrIS3_E7DeleterIS3_EESaIvELN9__gnu_cxx12_Lock_policyE2EE10_M_disposeEv@Base 3.2.1~
 _ZNSt19_Sp_counted_deleterIPN8casacore5BlockINS0_9MPositionEEENS0_10CountedPtrIS3_E7DeleterIS3_EESaIvELN9__gnu_cxx12_Lock_policyE2EE14_M_get_deleterERKSt9type_info@Base 3.2.1~
 _ZNSt19_Sp_counted_deleterIPN8casacore5BlockINS0_9MPositionEEENS0_10CountedPtrIS3_E7DeleterIS3_EESaIvELN9__gnu_cxx12_Lock_policyE2EED0Ev@Base 3.2.1~
 _ZNSt19_Sp_counted_deleterIPN8casacore5BlockINS0_9MPositionEEENS0_10CountedPtrIS3_E7DeleterIS3_EESaIvELN9__gnu_cxx12_Lock_policyE2EED1Ev@Base 3.2.1~
 _ZNSt19_Sp_counted_deleterIPN8casacore5BlockINS0_9MPositionEEENS0_10CountedPtrIS3_E7DeleterIS3_EESaIvELN9__gnu_cxx12_Lock_policyE2EED2Ev@Base 3.2.1~
 _ZNSt19_Sp_counted_deleterIPN8casacore9ArrayBaseENS0_10CountedPtrIS1_E7DeleterIS1_EESaIvELN9__gnu_cxx12_Lock_policyE2EE10_M_destroyEv@Base 3.2.1~
 _ZNSt19_Sp_counted_deleterIPN8casacore9ArrayBaseENS0_10CountedPtrIS1_E7DeleterIS1_EESaIvELN9__gnu_cxx12_Lock_policyE2EE10_M_disposeEv@Base 3.2.1~
 _ZNSt19_Sp_counted_deleterIPN8casacore9ArrayBaseENS0_10CountedPtrIS1_E7DeleterIS1_EESaIvELN9__gnu_cxx12_Lock_policyE2EE14_M_get_deleterERKSt9type_info@Base 3.2.1~
 _ZNSt19_Sp_counted_deleterIPN8casacore9ArrayBaseENS0_10CountedPtrIS1_E7DeleterIS1_EESaIvELN9__gnu_cxx12_Lock_policyE2EED0Ev@Base 3.2.1~
 _ZNSt19_Sp_counted_deleterIPN8casacore9ArrayBaseENS0_10CountedPtrIS1_E7DeleterIS1_EESaIvELN9__gnu_cxx12_Lock_policyE2EED1Ev@Base 3.2.1~
 _ZNSt19_Sp_counted_deleterIPN8casacore9ArrayBaseENS0_10CountedPtrIS1_E7DeleterIS1_EESaIvELN9__gnu_cxx12_Lock_policyE2EED2Ev@Base 3.2.1~
 _ZNSt7__cxx1115basic_stringbufIcSt11char_traitsIcESaIcEED0Ev@Base 3.2.1~
 _ZNSt7__cxx1115basic_stringbufIcSt11char_traitsIcESaIcEED1Ev@Base 3.2.1~
 _ZNSt7__cxx1115basic_stringbufIcSt11char_traitsIcESaIcEED2Ev@Base 3.2.1~
 _ZTIN8casacore10BaseEngineE@Base 3.2.1~
 _ZTIN8casacore10DopplerUDFE@Base 3.2.1~
 _ZTIN8casacore10MeasEngineINS_10MDirectionEEE@Base 3.2.1~
 _ZTIN8casacore10MeasEngineINS_10MFrequencyEEE@Base 3.2.1~
 _ZTIN8casacore10MeasEngineINS_14MEarthMagneticEEE@Base 3.2.1~
 _ZTIN8casacore10MeasEngineINS_15MRadialVelocityEEE@Base 3.2.1~
 _ZTIN8casacore10MeasEngineINS_6MEpochEEE@Base 3.2.1~
 _ZTIN8casacore10MeasEngineINS_8MDopplerEEE@Base 3.2.1~
 _ZTIN8casacore10MeasEngineINS_9MPositionEEE@Base 3.2.1~
 _ZTIN8casacore11EpochEngineE@Base 3.2.1~
 _ZTIN8casacore11HelpMeasUDFE@Base 3.2.1~
 _ZTIN8casacore11MeasConvertINS_10MDirectionEEE@Base 3.2.1~
 _ZTIN8casacore11MeasConvertINS_10MFrequencyEEE@Base 3.2.1~
 _ZTIN8casacore11MeasConvertINS_14MEarthMagneticEEE@Base 3.2.1~
 _ZTIN8casacore11MeasConvertINS_15MRadialVelocityEEE@Base 3.2.1~
 _ZTIN8casacore11MeasConvertINS_6MEpochEEE@Base 3.2.1~
 _ZTIN8casacore11MeasConvertINS_8MDopplerEEE@Base 3.2.1~
 _ZTIN8casacore11MeasConvertINS_9MPositionEEE@Base 3.2.1~
 _ZTIN8casacore11PositionUDFE@Base 3.2.1~
 _ZTIN8casacore12DirectionUDFE@Base 3.2.1~
 _ZTIN8casacore12FrequencyUDFE@Base 3.2.1~
 _ZTIN8casacore13ArrayIteratorINS_10MDirectionEEE@Base 3.2.1~
 _ZTIN8casacore13ArrayIteratorINS_10MFrequencyEEE@Base 3.2.1~
 _ZTIN8casacore13ArrayIteratorINS_11MVFrequencyEEE@Base 3.2.1~
 _ZTIN8casacore13ArrayIteratorINS_14MEarthMagneticEEE@Base 3.2.1~
 _ZTIN8casacore13ArrayIteratorINS_15MRadialVelocityEEE@Base 3.2.1~
 _ZTIN8casacore13ArrayIteratorINS_6MEpochEEE@Base 3.2.1~
 _ZTIN8casacore13ArrayIteratorINS_6MVTimeEEE@Base 3.2.1~
 _ZTIN8casacore13ArrayIteratorINS_7QuantumIdEEEE@Base 3.2.1~
 _ZTIN8casacore13ArrayIteratorINS_8MDopplerEEE@Base 3.2.1~
 _ZTIN8casacore13ArrayIteratorINS_9MPositionEEE@Base 3.2.1~
 _ZTIN8casacore13ArrayIteratorIdEE@Base 3.2.1~
 _ZTIN8casacore13BaseAllocatorINS_10MDirectionENS_15NewDelAllocatorIS1_EEEE@Base 3.2.1~
 _ZTIN8casacore13BaseAllocatorINS_10MDirectionENS_16AlignedAllocatorIS1_Lm32EEEEE@Base 3.2.1~
 _ZTIN8casacore13BaseAllocatorINS_10MFrequencyENS_15NewDelAllocatorIS1_EEEE@Base 3.2.1~
 _ZTIN8casacore13BaseAllocatorINS_10MFrequencyENS_16AlignedAllocatorIS1_Lm32EEEEE@Base 3.2.1~
 _ZTIN8casacore13BaseAllocatorINS_11MVFrequencyENS_15NewDelAllocatorIS1_EEEE@Base 3.2.1~
 _ZTIN8casacore13BaseAllocatorINS_11MVFrequencyENS_16AlignedAllocatorIS1_Lm32EEEEE@Base 3.2.1~
 _ZTIN8casacore13BaseAllocatorINS_14MEarthMagneticENS_15NewDelAllocatorIS1_EEEE@Base 3.2.1~
 _ZTIN8casacore13BaseAllocatorINS_14MEarthMagneticENS_16AlignedAllocatorIS1_Lm32EEEEE@Base 3.2.1~
 _ZTIN8casacore13BaseAllocatorINS_15MRadialVelocityENS_15NewDelAllocatorIS1_EEEE@Base 3.2.1~
 _ZTIN8casacore13BaseAllocatorINS_15MRadialVelocityENS_16AlignedAllocatorIS1_Lm32EEEEE@Base 3.2.1~
 _ZTIN8casacore13BaseAllocatorINS_6MEpochENS_15NewDelAllocatorIS1_EEEE@Base 3.2.1~
 _ZTIN8casacore13BaseAllocatorINS_6MEpochENS_16AlignedAllocatorIS1_Lm32EEEEE@Base 3.2.1~
 _ZTIN8casacore13BaseAllocatorINS_6MVTimeENS_15NewDelAllocatorIS1_EEEE@Base 3.2.1~
 _ZTIN8casacore13BaseAllocatorINS_6MVTimeENS_16AlignedAllocatorIS1_Lm32EEEEE@Base 3.2.1~
 _ZTIN8casacore13BaseAllocatorINS_7QuantumIdEENS_15NewDelAllocatorIS2_EEEE@Base 3.2.1~
 _ZTIN8casacore13BaseAllocatorINS_7QuantumIdEENS_16AlignedAllocatorIS2_Lm32EEEEE@Base 3.2.1~
 _ZTIN8casacore13BaseAllocatorINS_8MDopplerENS_15NewDelAllocatorIS1_EEEE@Base 3.2.1~
 _ZTIN8casacore13BaseAllocatorINS_8MDopplerENS_16AlignedAllocatorIS1_Lm32EEEEE@Base 3.2.1~
 _ZTIN8casacore13BaseAllocatorINS_9MPositionENS_15NewDelAllocatorIS1_EEEE@Base 3.2.1~
 _ZTIN8casacore13BaseAllocatorINS_9MPositionENS_16AlignedAllocatorIS1_Lm32EEEEE@Base 3.2.1~
 _ZTIN8casacore13BaseAllocatorIPNS_6SlicerENS_15NewDelAllocatorIS2_EEEE@Base 3.2.1~
 _ZTIN8casacore13BaseAllocatorIPNS_6SlicerENS_16AlignedAllocatorIS2_Lm32EEEEE@Base 3.2.1~
 _ZTIN8casacore13DopplerEngineE@Base 3.2.1~
 _ZTIN8casacore14PositionEngineE@Base 3.2.1~
 _ZTIN8casacore14VectorIteratorIdEE@Base 3.2.1~
 _ZTIN8casacore15ArrayMeasColumnINS_10MDirectionEEE@Base 3.2.1~
 _ZTIN8casacore15ArrayMeasColumnINS_10MFrequencyEEE@Base 3.2.1~
 _ZTIN8casacore15ArrayMeasColumnINS_14MEarthMagneticEEE@Base 3.2.1~
 _ZTIN8casacore15ArrayMeasColumnINS_15MRadialVelocityEEE@Base 3.2.1~
 _ZTIN8casacore15ArrayMeasColumnINS_6MEpochEEE@Base 3.2.1~
 _ZTIN8casacore15ArrayMeasColumnINS_8MDopplerEEE@Base 3.2.1~
 _ZTIN8casacore15ArrayMeasColumnINS_9MPositionEEE@Base 3.2.1~
 _ZTIN8casacore15DirectionEngineE@Base 3.2.1~
 _ZTIN8casacore15FrequencyEngineE@Base 3.2.1~
 _ZTIN8casacore15NewDelAllocatorINS_10MDirectionEEE@Base 3.2.1~
 _ZTIN8casacore15NewDelAllocatorINS_10MFrequencyEEE@Base 3.2.1~
 _ZTIN8casacore15NewDelAllocatorINS_11MVFrequencyEEE@Base 3.2.1~
 _ZTIN8casacore15NewDelAllocatorINS_14MEarthMagneticEEE@Base 3.2.1~
 _ZTIN8casacore15NewDelAllocatorINS_15MRadialVelocityEEE@Base 3.2.1~
 _ZTIN8casacore15NewDelAllocatorINS_6MEpochEEE@Base 3.2.1~
 _ZTIN8casacore15NewDelAllocatorINS_6MVTimeEEE@Base 3.2.1~
 _ZTIN8casacore15NewDelAllocatorINS_7QuantumIdEEEE@Base 3.2.1~
 _ZTIN8casacore15NewDelAllocatorINS_8MDopplerEEE@Base 3.2.1~
 _ZTIN8casacore15NewDelAllocatorINS_9MPositionEEE@Base 3.2.1~
 _ZTIN8casacore15NewDelAllocatorIPNS_6SlicerEEE@Base 3.2.1~
 _ZTIN8casacore16AlignedAllocatorINS_10MDirectionELm32EEE@Base 3.2.1~
 _ZTIN8casacore16AlignedAllocatorINS_10MFrequencyELm32EEE@Base 3.2.1~
 _ZTIN8casacore16AlignedAllocatorINS_11MVFrequencyELm32EEE@Base 3.2.1~
 _ZTIN8casacore16AlignedAllocatorINS_14MEarthMagneticELm32EEE@Base 3.2.1~
 _ZTIN8casacore16AlignedAllocatorINS_15MRadialVelocityELm32EEE@Base 3.2.1~
 _ZTIN8casacore16AlignedAllocatorINS_6MEpochELm32EEE@Base 3.2.1~
 _ZTIN8casacore16AlignedAllocatorINS_6MVTimeELm32EEE@Base 3.2.1~
 _ZTIN8casacore16AlignedAllocatorINS_7QuantumIdEELm32EEE@Base 3.2.1~
 _ZTIN8casacore16AlignedAllocatorINS_8MDopplerELm32EEE@Base 3.2.1~
 _ZTIN8casacore16AlignedAllocatorINS_9MPositionELm32EEE@Base 3.2.1~
 _ZTIN8casacore16AlignedAllocatorIPNS_6SlicerELm32EEE@Base 3.2.1~
 _ZTIN8casacore16DefaultAllocatorINS_10MDirectionEEE@Base 3.2.1~
 _ZTIN8casacore16DefaultAllocatorINS_10MFrequencyEEE@Base 3.2.1~
 _ZTIN8casacore16DefaultAllocatorINS_11MVFrequencyEEE@Base 3.2.1~
 _ZTIN8casacore16DefaultAllocatorINS_14MEarthMagneticEEE@Base 3.2.1~
 _ZTIN8casacore16DefaultAllocatorINS_15MRadialVelocityEEE@Base 3.2.1~
 _ZTIN8casacore16DefaultAllocatorINS_6MEpochEEE@Base 3.2.1~
 _ZTIN8casacore16DefaultAllocatorINS_6MVTimeEEE@Base 3.2.1~
 _ZTIN8casacore16DefaultAllocatorINS_7QuantumIdEEEE@Base 3.2.1~
 _ZTIN8casacore16DefaultAllocatorINS_8MDopplerEEE@Base 3.2.1~
 _ZTIN8casacore16DefaultAllocatorINS_9MPositionEEE@Base 3.2.1~
 _ZTIN8casacore16DefaultAllocatorIPNS_6SlicerEEE@Base 3.2.1~
 _ZTIN8casacore16EarthMagneticUDFE@Base 3.2.1~
 _ZTIN8casacore16ScalarMeasColumnINS_10MDirectionEEE@Base 3.2.1~
 _ZTIN8casacore16ScalarMeasColumnINS_10MFrequencyEEE@Base 3.2.1~
 _ZTIN8casacore16ScalarMeasColumnINS_14MEarthMagneticEEE@Base 3.2.1~
 _ZTIN8casacore16ScalarMeasColumnINS_15MRadialVelocityEEE@Base 3.2.1~
 _ZTIN8casacore16ScalarMeasColumnINS_6MEpochEEE@Base 3.2.1~
 _ZTIN8casacore16ScalarMeasColumnINS_8MDopplerEEE@Base 3.2.1~
 _ZTIN8casacore16ScalarMeasColumnINS_9MPositionEEE@Base 3.2.1~
 _ZTIN8casacore17AbstractAllocatorINS_10MDirectionEEE@Base 3.2.1~
 _ZTIN8casacore17AbstractAllocatorINS_10MFrequencyEEE@Base 3.2.1~
 _ZTIN8casacore17AbstractAllocatorINS_11MVFrequencyEEE@Base 3.2.1~
 _ZTIN8casacore17AbstractAllocatorINS_14MEarthMagneticEEE@Base 3.2.1~
 _ZTIN8casacore17AbstractAllocatorINS_15MRadialVelocityEEE@Base 3.2.1~
 _ZTIN8casacore17AbstractAllocatorINS_6MEpochEEE@Base 3.2.1~
 _ZTIN8casacore17AbstractAllocatorINS_6MVTimeEEE@Base 3.2.1~
 _ZTIN8casacore17AbstractAllocatorINS_7QuantumIdEEEE@Base 3.2.1~
 _ZTIN8casacore17AbstractAllocatorINS_8MDopplerEEE@Base 3.2.1~
 _ZTIN8casacore17AbstractAllocatorINS_9MPositionEEE@Base 3.2.1~
 _ZTIN8casacore17AbstractAllocatorIPNS_6SlicerEEE@Base 3.2.1~
 _ZTIN8casacore17Allocator_private13BulkAllocatorINS_10MDirectionEEE@Base 3.2.1~
 _ZTIN8casacore17Allocator_private13BulkAllocatorINS_10MFrequencyEEE@Base 3.2.1~
 _ZTIN8casacore17Allocator_private13BulkAllocatorINS_11MVFrequencyEEE@Base 3.2.1~
 _ZTIN8casacore17Allocator_private13BulkAllocatorINS_14MEarthMagneticEEE@Base 3.2.1~
 _ZTIN8casacore17Allocator_private13BulkAllocatorINS_15MRadialVelocityEEE@Base 3.2.1~
 _ZTIN8casacore17Allocator_private13BulkAllocatorINS_6MEpochEEE@Base 3.2.1~
 _ZTIN8casacore17Allocator_private13BulkAllocatorINS_6MVTimeEEE@Base 3.2.1~
 _ZTIN8casacore17Allocator_private13BulkAllocatorINS_6StringEEE@Base 3.2.1~
 _ZTIN8casacore17Allocator_private13BulkAllocatorINS_7QuantumIdEEEE@Base 3.2.1~
 _ZTIN8casacore17Allocator_private13BulkAllocatorINS_8MDopplerEEE@Base 3.2.1~
 _ZTIN8casacore17Allocator_private13BulkAllocatorINS_9MPositionEEE@Base 3.2.1~
 _ZTIN8casacore17Allocator_private13BulkAllocatorIPNS_6SlicerEEE@Base 3.2.1~
 _ZTIN8casacore17Allocator_private13BulkAllocatorIjEE@Base 3.2.1~
 _ZTIN8casacore17Allocator_private17BulkAllocatorImplINS_17new_del_allocatorINS_10MDirectionEEEEE@Base 3.2.1~
 _ZTIN8casacore17Allocator_private17BulkAllocatorImplINS_17new_del_allocatorINS_10MFrequencyEEEEE@Base 3.2.1~
 _ZTIN8casacore17Allocator_private17BulkAllocatorImplINS_17new_del_allocatorINS_11MVFrequencyEEEEE@Base 3.2.1~
 _ZTIN8casacore17Allocator_private17BulkAllocatorImplINS_17new_del_allocatorINS_14MEarthMagneticEEEEE@Base 3.2.1~
 _ZTIN8casacore17Allocator_private17BulkAllocatorImplINS_17new_del_allocatorINS_15MRadialVelocityEEEEE@Base 3.2.1~
 _ZTIN8casacore17Allocator_private17BulkAllocatorImplINS_17new_del_allocatorINS_6MEpochEEEEE@Base 3.2.1~
 _ZTIN8casacore17Allocator_private17BulkAllocatorImplINS_17new_del_allocatorINS_6MVTimeEEEEE@Base 3.2.1~
 _ZTIN8casacore17Allocator_private17BulkAllocatorImplINS_17new_del_allocatorINS_7QuantumIdEEEEEE@Base 3.2.1~
 _ZTIN8casacore17Allocator_private17BulkAllocatorImplINS_17new_del_allocatorINS_8MDopplerEEEEE@Base 3.2.1~
 _ZTIN8casacore17Allocator_private17BulkAllocatorImplINS_17new_del_allocatorINS_9MPositionEEEEE@Base 3.2.1~
 _ZTIN8casacore17Allocator_private17BulkAllocatorImplINS_17new_del_allocatorIPNS_6SlicerEEEEE@Base 3.2.1~
 _ZTIN8casacore17Allocator_private17BulkAllocatorImplINS_18casacore_allocatorINS_10MDirectionELm32EEEEE@Base 3.2.1~
 _ZTIN8casacore17Allocator_private17BulkAllocatorImplINS_18casacore_allocatorINS_10MFrequencyELm32EEEEE@Base 3.2.1~
 _ZTIN8casacore17Allocator_private17BulkAllocatorImplINS_18casacore_allocatorINS_11MVFrequencyELm32EEEEE@Base 3.2.1~
 _ZTIN8casacore17Allocator_private17BulkAllocatorImplINS_18casacore_allocatorINS_14MEarthMagneticELm32EEEEE@Base 3.2.1~
 _ZTIN8casacore17Allocator_private17BulkAllocatorImplINS_18casacore_allocatorINS_15MRadialVelocityELm32EEEEE@Base 3.2.1~
 _ZTIN8casacore17Allocator_private17BulkAllocatorImplINS_18casacore_allocatorINS_6MEpochELm32EEEEE@Base 3.2.1~
 _ZTIN8casacore17Allocator_private17BulkAllocatorImplINS_18casacore_allocatorINS_6MVTimeELm32EEEEE@Base 3.2.1~
 _ZTIN8casacore17Allocator_private17BulkAllocatorImplINS_18casacore_allocatorINS_6StringELm32EEEEE@Base 3.2.1~
 _ZTIN8casacore17Allocator_private17BulkAllocatorImplINS_18casacore_allocatorINS_7QuantumIdEELm32EEEEE@Base 3.2.1~
 _ZTIN8casacore17Allocator_private17BulkAllocatorImplINS_18casacore_allocatorINS_8MDopplerELm32EEEEE@Base 3.2.1~
 _ZTIN8casacore17Allocator_private17BulkAllocatorImplINS_18casacore_allocatorINS_9MPositionELm32EEEEE@Base 3.2.1~
 _ZTIN8casacore17Allocator_private17BulkAllocatorImplINS_18casacore_allocatorIPNS_6SlicerELm32EEEEE@Base 3.2.1~
 _ZTIN8casacore17Allocator_private17BulkAllocatorImplINS_18casacore_allocatorIjLm32EEEEE@Base 3.2.1~
 _ZTIN8casacore17RadialVelocityUDFE@Base 3.2.1~
 _ZTIN8casacore17new_del_allocatorINS_10MDirectionEEE@Base 3.2.1~
 _ZTIN8casacore17new_del_allocatorINS_10MFrequencyEEE@Base 3.2.1~
 _ZTIN8casacore17new_del_allocatorINS_11MVFrequencyEEE@Base 3.2.1~
 _ZTIN8casacore17new_del_allocatorINS_14MEarthMagneticEEE@Base 3.2.1~
 _ZTIN8casacore17new_del_allocatorINS_15MRadialVelocityEEE@Base 3.2.1~
 _ZTIN8casacore17new_del_allocatorINS_6MEpochEEE@Base 3.2.1~
 _ZTIN8casacore17new_del_allocatorINS_6MVTimeEEE@Base 3.2.1~
 _ZTIN8casacore17new_del_allocatorINS_7QuantumIdEEEE@Base 3.2.1~
 _ZTIN8casacore17new_del_allocatorINS_8MDopplerEEE@Base 3.2.1~
 _ZTIN8casacore17new_del_allocatorINS_9MPositionEEE@Base 3.2.1~
 _ZTIN8casacore17new_del_allocatorIPNS_6SlicerEEE@Base 3.2.1~
 _ZTIN8casacore18casacore_allocatorINS_10MDirectionELm32EEE@Base 3.2.1~
 _ZTIN8casacore18casacore_allocatorINS_10MFrequencyELm32EEE@Base 3.2.1~
 _ZTIN8casacore18casacore_allocatorINS_11MVFrequencyELm32EEE@Base 3.2.1~
 _ZTIN8casacore18casacore_allocatorINS_14MEarthMagneticELm32EEE@Base 3.2.1~
 _ZTIN8casacore18casacore_allocatorINS_15MRadialVelocityELm32EEE@Base 3.2.1~
 _ZTIN8casacore18casacore_allocatorINS_6MEpochELm32EEE@Base 3.2.1~
 _ZTIN8casacore18casacore_allocatorINS_6MVTimeELm32EEE@Base 3.2.1~
 _ZTIN8casacore18casacore_allocatorINS_6StringELm32EEE@Base 3.2.1~
 _ZTIN8casacore18casacore_allocatorINS_7QuantumIdEELm32EEE@Base 3.2.1~
 _ZTIN8casacore18casacore_allocatorINS_8MDopplerELm32EEE@Base 3.2.1~
 _ZTIN8casacore18casacore_allocatorINS_9MPositionELm32EEE@Base 3.2.1~
 _ZTIN8casacore18casacore_allocatorIPNS_6SlicerELm32EEE@Base 3.2.1~
 _ZTIN8casacore18casacore_allocatorIjLm32EEE@Base 3.2.1~
 _ZTIN8casacore19EarthMagneticEngineE@Base 3.2.1~
 _ZTIN8casacore20RadialVelocityEngineE@Base 3.2.1~
 _ZTIN8casacore5ArrayINS_10MDirectionEEE@Base 3.2.1~
 _ZTIN8casacore5ArrayINS_10MFrequencyEEE@Base 3.2.1~
 _ZTIN8casacore5ArrayINS_11MVFrequencyEEE@Base 3.2.1~
 _ZTIN8casacore5ArrayINS_14MEarthMagneticEEE@Base 3.2.1~
 _ZTIN8casacore5ArrayINS_15MRadialVelocityEEE@Base 3.2.1~
 _ZTIN8casacore5ArrayINS_6MEpochEEE@Base 3.2.1~
 _ZTIN8casacore5ArrayINS_6MVTimeEEE@Base 3.2.1~
 _ZTIN8casacore5ArrayINS_7QuantumIdEEEE@Base 3.2.1~
 _ZTIN8casacore5ArrayINS_8MDopplerEEE@Base 3.2.1~
 _ZTIN8casacore5ArrayINS_9MPositionEEE@Base 3.2.1~
 _ZTIN8casacore6VectorINS_10MFrequencyEEE@Base 3.2.1~
 _ZTIN8casacore6VectorINS_15MRadialVelocityEEE@Base 3.2.1~
 _ZTIN8casacore6VectorINS_6MEpochEEE@Base 3.2.1~
 _ZTIN8casacore6VectorINS_7QuantumIdEEEE@Base 3.2.1~
 _ZTIN8casacore6VectorINS_8MDopplerEEE@Base 3.2.1~
 _ZTIN8casacore7MeasRefINS_10MDirectionEEE@Base 3.2.1~
 _ZTIN8casacore7MeasRefINS_10MFrequencyEEE@Base 3.2.1~
 _ZTIN8casacore7MeasRefINS_14MEarthMagneticEEE@Base 3.2.1~
 _ZTIN8casacore7MeasRefINS_15MRadialVelocityEEE@Base 3.2.1~
 _ZTIN8casacore7MeasRefINS_6MEpochEEE@Base 3.2.1~
 _ZTIN8casacore7MeasRefINS_8MDopplerEEE@Base 3.2.1~
 _ZTIN8casacore7MeasRefINS_9MPositionEEE@Base 3.2.1~
 _ZTIN8casacore7QuantumINS_6VectorIdEEEE@Base 3.2.1~
 _ZTIN8casacore8EpochUDFE@Base 3.2.1~
 _ZTIN8casacore8MeasBaseINS_11MVDirectionENS_7MeasRefINS_10MDirectionEEEEE@Base 3.2.1~
 _ZTIN8casacore8MeasBaseINS_11MVFrequencyENS_7MeasRefINS_10MFrequencyEEEEE@Base 3.2.1~
 _ZTIN8casacore8MeasBaseINS_16MVRadialVelocityENS_7MeasRefINS_15MRadialVelocityEEEEE@Base 3.2.1~
 _ZTIN8casacore8MeasBaseINS_7MVEpochENS_7MeasRefINS_6MEpochEEEEE@Base 3.2.1~
 _ZTIN8casacore8MeasBaseINS_9MVDopplerENS_7MeasRefINS_8MDopplerEEEEE@Base 3.2.1~
 _ZTIN9__gnu_cxx13new_allocatorIN8casacore10MDirectionEEE@Base 3.2.1~
 _ZTIN9__gnu_cxx13new_allocatorIN8casacore10MFrequencyEEE@Base 3.2.1~
 _ZTIN9__gnu_cxx13new_allocatorIN8casacore11MVFrequencyEEE@Base 3.2.1~
 _ZTIN9__gnu_cxx13new_allocatorIN8casacore14MEarthMagneticEEE@Base 3.2.1~
 _ZTIN9__gnu_cxx13new_allocatorIN8casacore15MRadialVelocityEEE@Base 3.2.1~
 _ZTIN9__gnu_cxx13new_allocatorIN8casacore6MEpochEEE@Base 3.2.1~
 _ZTIN9__gnu_cxx13new_allocatorIN8casacore6MVTimeEEE@Base 3.2.1~
 _ZTIN9__gnu_cxx13new_allocatorIN8casacore6StringEEE@Base 3.2.1~
 _ZTIN9__gnu_cxx13new_allocatorIN8casacore7QuantumIdEEEE@Base 3.2.1~
 _ZTIN9__gnu_cxx13new_allocatorIN8casacore8MDopplerEEE@Base 3.2.1~
 _ZTIN9__gnu_cxx13new_allocatorIN8casacore9MPositionEEE@Base 3.2.1~
 _ZTIN9__gnu_cxx13new_allocatorIPN8casacore6SlicerEEE@Base 3.2.1~
 _ZTIN9__gnu_cxx13new_allocatorIjEE@Base 3.2.1~
 _ZTISaIN8casacore10MDirectionEE@Base 3.2.1~
 _ZTISaIN8casacore10MFrequencyEE@Base 3.2.1~
 _ZTISaIN8casacore11MVFrequencyEE@Base 3.2.1~
 _ZTISaIN8casacore14MEarthMagneticEE@Base 3.2.1~
 _ZTISaIN8casacore15MRadialVelocityEE@Base 3.2.1~
 _ZTISaIN8casacore6MEpochEE@Base 3.2.1~
 _ZTISaIN8casacore6MVTimeEE@Base 3.2.1~
 _ZTISaIN8casacore6StringEE@Base 3.2.1~
 _ZTISaIN8casacore7QuantumIdEEE@Base 3.2.1~
 _ZTISaIN8casacore8MDopplerEE@Base 3.2.1~
 _ZTISaIN8casacore9MPositionEE@Base 3.2.1~
 _ZTISaIPN8casacore6SlicerEE@Base 3.2.1~
 _ZTISaIjE@Base 3.2.1~
 _ZTISt11_Mutex_baseILN9__gnu_cxx12_Lock_policyE2EE@Base 3.2.1~
 _ZTISt15_Sp_counted_ptrIPN8casacore15FrequencyEngineELN9__gnu_cxx12_Lock_policyE2EE@Base 3.2.1~
 _ZTISt15_Sp_counted_ptrIPN8casacore20RadialVelocityEngineELN9__gnu_cxx12_Lock_policyE2EE@Base 3.2.1~
 _ZTISt15_Sp_counted_ptrIPN8casacore5BlockINS0_10MDirectionEEELN9__gnu_cxx12_Lock_policyE2EE@Base 3.2.1~
 _ZTISt15_Sp_counted_ptrIPN8casacore5BlockINS0_10MFrequencyEEELN9__gnu_cxx12_Lock_policyE2EE@Base 3.2.1~
 _ZTISt15_Sp_counted_ptrIPN8casacore5BlockINS0_11MVFrequencyEEELN9__gnu_cxx12_Lock_policyE2EE@Base 3.2.1~
 _ZTISt15_Sp_counted_ptrIPN8casacore5BlockINS0_14MEarthMagneticEEELN9__gnu_cxx12_Lock_policyE2EE@Base 3.2.1~
 _ZTISt15_Sp_counted_ptrIPN8casacore5BlockINS0_15MRadialVelocityEEELN9__gnu_cxx12_Lock_policyE2EE@Base 3.2.1~
 _ZTISt15_Sp_counted_ptrIPN8casacore5BlockINS0_6MEpochEEELN9__gnu_cxx12_Lock_policyE2EE@Base 3.2.1~
 _ZTISt15_Sp_counted_ptrIPN8casacore5BlockINS0_6MVTimeEEELN9__gnu_cxx12_Lock_policyE2EE@Base 3.2.1~
 _ZTISt15_Sp_counted_ptrIPN8casacore5BlockINS0_7QuantumIdEEEELN9__gnu_cxx12_Lock_policyE2EE@Base 3.2.1~
 _ZTISt15_Sp_counted_ptrIPN8casacore5BlockINS0_8MDopplerEEELN9__gnu_cxx12_Lock_policyE2EE@Base 3.2.1~
 _ZTISt15_Sp_counted_ptrIPN8casacore5BlockINS0_9MPositionEEELN9__gnu_cxx12_Lock_policyE2EE@Base 3.2.1~
 _ZTISt15_Sp_counted_ptrIPN8casacore7MeasRefINS0_10MDirectionEE6RefRepELN9__gnu_cxx12_Lock_policyE2EE@Base 3.2.1~
 _ZTISt15_Sp_counted_ptrIPN8casacore7MeasRefINS0_10MFrequencyEE6RefRepELN9__gnu_cxx12_Lock_policyE2EE@Base 3.2.1~
 _ZTISt15_Sp_counted_ptrIPN8casacore7MeasRefINS0_14MEarthMagneticEE6RefRepELN9__gnu_cxx12_Lock_policyE2EE@Base 3.2.1~
 _ZTISt15_Sp_counted_ptrIPN8casacore7MeasRefINS0_15MRadialVelocityEE6RefRepELN9__gnu_cxx12_Lock_policyE2EE@Base 3.2.1~
 _ZTISt15_Sp_counted_ptrIPN8casacore7MeasRefINS0_6MEpochEE6RefRepELN9__gnu_cxx12_Lock_policyE2EE@Base 3.2.1~
 _ZTISt15_Sp_counted_ptrIPN8casacore7MeasRefINS0_8MDopplerEE6RefRepELN9__gnu_cxx12_Lock_policyE2EE@Base 3.2.1~
 _ZTISt15_Sp_counted_ptrIPN8casacore7MeasRefINS0_9MPositionEE6RefRepELN9__gnu_cxx12_Lock_policyE2EE@Base 3.2.1~
 _ZTISt16_Sp_counted_baseILN9__gnu_cxx12_Lock_policyE2EE@Base 3.2.1~
 _ZTISt19_Sp_counted_deleterIPN8casacore21ArrayPositionIteratorENS0_10CountedPtrIS1_E7DeleterIS1_EESaIvELN9__gnu_cxx12_Lock_policyE2EE@Base 3.2.1~
 _ZTISt19_Sp_counted_deleterIPN8casacore5BlockINS0_10MDirectionEEENS0_10CountedPtrIS3_E7DeleterIS3_EESaIvELN9__gnu_cxx12_Lock_policyE2EE@Base 3.2.1~
 _ZTISt19_Sp_counted_deleterIPN8casacore5BlockINS0_10MFrequencyEEENS0_10CountedPtrIS3_E7DeleterIS3_EESaIvELN9__gnu_cxx12_Lock_policyE2EE@Base 3.2.1~
 _ZTISt19_Sp_counted_deleterIPN8casacore5BlockINS0_11MVFrequencyEEENS0_10CountedPtrIS3_E7DeleterIS3_EESaIvELN9__gnu_cxx12_Lock_policyE2EE@Base 3.2.1~
 _ZTISt19_Sp_counted_deleterIPN8casacore5BlockINS0_14MEarthMagneticEEENS0_10CountedPtrIS3_E7DeleterIS3_EESaIvELN9__gnu_cxx12_Lock_policyE2EE@Base 3.2.1~
 _ZTISt19_Sp_counted_deleterIPN8casacore5BlockINS0_15MRadialVelocityEEENS0_10CountedPtrIS3_E7DeleterIS3_EESaIvELN9__gnu_cxx12_Lock_policyE2EE@Base 3.2.1~
 _ZTISt19_Sp_counted_deleterIPN8casacore5BlockINS0_6MEpochEEENS0_10CountedPtrIS3_E7DeleterIS3_EESaIvELN9__gnu_cxx12_Lock_policyE2EE@Base 3.2.1~
 _ZTISt19_Sp_counted_deleterIPN8casacore5BlockINS0_6MVTimeEEENS0_10CountedPtrIS3_E7DeleterIS3_EESaIvELN9__gnu_cxx12_Lock_policyE2EE@Base 3.2.1~
 _ZTISt19_Sp_counted_deleterIPN8casacore5BlockINS0_7QuantumIdEEEENS0_10CountedPtrIS4_E7DeleterIS4_EESaIvELN9__gnu_cxx12_Lock_policyE2EE@Base 3.2.1~
 _ZTISt19_Sp_counted_deleterIPN8casacore5BlockINS0_8MDopplerEEENS0_10CountedPtrIS3_E7DeleterIS3_EESaIvELN9__gnu_cxx12_Lock_policyE2EE@Base 3.2.1~
 _ZTISt19_Sp_counted_deleterIPN8casacore5BlockINS0_9MPositionEEENS0_10CountedPtrIS3_E7DeleterIS3_EESaIvELN9__gnu_cxx12_Lock_policyE2EE@Base 3.2.1~
 _ZTISt19_Sp_counted_deleterIPN8casacore9ArrayBaseENS0_10CountedPtrIS1_E7DeleterIS1_EESaIvELN9__gnu_cxx12_Lock_policyE2EE@Base 3.2.1~
 _ZTSN8casacore10BaseEngineE@Base 3.2.1~
 _ZTSN8casacore10CountedPtrINS_21ArrayPositionIteratorEE7DeleterIS1_EE@Base 3.2.1~
 _ZTSN8casacore10CountedPtrINS_5BlockINS_10MDirectionEEEE7DeleterIS3_EE@Base 3.2.1~
 _ZTSN8casacore10CountedPtrINS_5BlockINS_10MFrequencyEEEE7DeleterIS3_EE@Base 3.2.1~
 _ZTSN8casacore10CountedPtrINS_5BlockINS_11MVFrequencyEEEE7DeleterIS3_EE@Base 3.2.1~
 _ZTSN8casacore10CountedPtrINS_5BlockINS_14MEarthMagneticEEEE7DeleterIS3_EE@Base 3.2.1~
 _ZTSN8casacore10CountedPtrINS_5BlockINS_15MRadialVelocityEEEE7DeleterIS3_EE@Base 3.2.1~
 _ZTSN8casacore10CountedPtrINS_5BlockINS_6MEpochEEEE7DeleterIS3_EE@Base 3.2.1~
 _ZTSN8casacore10CountedPtrINS_5BlockINS_6MVTimeEEEE7DeleterIS3_EE@Base 3.2.1~
 _ZTSN8casacore10CountedPtrINS_5BlockINS_7QuantumIdEEEEE7DeleterIS4_EE@Base 3.2.1~
 _ZTSN8casacore10CountedPtrINS_5BlockINS_8MDopplerEEEE7DeleterIS3_EE@Base 3.2.1~
 _ZTSN8casacore10CountedPtrINS_5BlockINS_9MPositionEEEE7DeleterIS3_EE@Base 3.2.1~
 _ZTSN8casacore10CountedPtrINS_9ArrayBaseEE7DeleterIS1_EE@Base 3.2.1~
 _ZTSN8casacore10DopplerUDFE@Base 3.2.1~
 _ZTSN8casacore10MeasEngineINS_10MDirectionEEE@Base 3.2.1~
 _ZTSN8casacore10MeasEngineINS_10MFrequencyEEE@Base 3.2.1~
 _ZTSN8casacore10MeasEngineINS_14MEarthMagneticEEE@Base 3.2.1~
 _ZTSN8casacore10MeasEngineINS_15MRadialVelocityEEE@Base 3.2.1~
 _ZTSN8casacore10MeasEngineINS_6MEpochEEE@Base 3.2.1~
 _ZTSN8casacore10MeasEngineINS_8MDopplerEEE@Base 3.2.1~
 _ZTSN8casacore10MeasEngineINS_9MPositionEEE@Base 3.2.1~
 _ZTSN8casacore11EpochEngineE@Base 3.2.1~
 _ZTSN8casacore11HelpMeasUDFE@Base 3.2.1~
 _ZTSN8casacore11MeasConvertINS_10MDirectionEEE@Base 3.2.1~
 _ZTSN8casacore11MeasConvertINS_10MFrequencyEEE@Base 3.2.1~
 _ZTSN8casacore11MeasConvertINS_14MEarthMagneticEEE@Base 3.2.1~
 _ZTSN8casacore11MeasConvertINS_15MRadialVelocityEEE@Base 3.2.1~
 _ZTSN8casacore11MeasConvertINS_6MEpochEEE@Base 3.2.1~
 _ZTSN8casacore11MeasConvertINS_8MDopplerEEE@Base 3.2.1~
 _ZTSN8casacore11MeasConvertINS_9MPositionEEE@Base 3.2.1~
 _ZTSN8casacore11PositionUDFE@Base 3.2.1~
 _ZTSN8casacore12DirectionUDFE@Base 3.2.1~
 _ZTSN8casacore12FrequencyUDFE@Base 3.2.1~
 _ZTSN8casacore13ArrayIteratorINS_10MDirectionEEE@Base 3.2.1~
 _ZTSN8casacore13ArrayIteratorINS_10MFrequencyEEE@Base 3.2.1~
 _ZTSN8casacore13ArrayIteratorINS_11MVFrequencyEEE@Base 3.2.1~
 _ZTSN8casacore13ArrayIteratorINS_14MEarthMagneticEEE@Base 3.2.1~
 _ZTSN8casacore13ArrayIteratorINS_15MRadialVelocityEEE@Base 3.2.1~
 _ZTSN8casacore13ArrayIteratorINS_6MEpochEEE@Base 3.2.1~
 _ZTSN8casacore13ArrayIteratorINS_6MVTimeEEE@Base 3.2.1~
 _ZTSN8casacore13ArrayIteratorINS_7QuantumIdEEEE@Base 3.2.1~
 _ZTSN8casacore13ArrayIteratorINS_8MDopplerEEE@Base 3.2.1~
 _ZTSN8casacore13ArrayIteratorINS_9MPositionEEE@Base 3.2.1~
 _ZTSN8casacore13ArrayIteratorIdEE@Base 3.2.1~
 _ZTSN8casacore13BaseAllocatorINS_10MDirectionENS_15NewDelAllocatorIS1_EEEE@Base 3.2.1~
 _ZTSN8casacore13BaseAllocatorINS_10MDirectionENS_16AlignedAllocatorIS1_Lm32EEEEE@Base 3.2.1~
 _ZTSN8casacore13BaseAllocatorINS_10MFrequencyENS_15NewDelAllocatorIS1_EEEE@Base 3.2.1~
 _ZTSN8casacore13BaseAllocatorINS_10MFrequencyENS_16AlignedAllocatorIS1_Lm32EEEEE@Base 3.2.1~
 _ZTSN8casacore13BaseAllocatorINS_11MVFrequencyENS_15NewDelAllocatorIS1_EEEE@Base 3.2.1~
 _ZTSN8casacore13BaseAllocatorINS_11MVFrequencyENS_16AlignedAllocatorIS1_Lm32EEEEE@Base 3.2.1~
 _ZTSN8casacore13BaseAllocatorINS_14MEarthMagneticENS_15NewDelAllocatorIS1_EEEE@Base 3.2.1~
 _ZTSN8casacore13BaseAllocatorINS_14MEarthMagneticENS_16AlignedAllocatorIS1_Lm32EEEEE@Base 3.2.1~
 _ZTSN8casacore13BaseAllocatorINS_15MRadialVelocityENS_15NewDelAllocatorIS1_EEEE@Base 3.2.1~
 _ZTSN8casacore13BaseAllocatorINS_15MRadialVelocityENS_16AlignedAllocatorIS1_Lm32EEEEE@Base 3.2.1~
 _ZTSN8casacore13BaseAllocatorINS_6MEpochENS_15NewDelAllocatorIS1_EEEE@Base 3.2.1~
 _ZTSN8casacore13BaseAllocatorINS_6MEpochENS_16AlignedAllocatorIS1_Lm32EEEEE@Base 3.2.1~
 _ZTSN8casacore13BaseAllocatorINS_6MVTimeENS_15NewDelAllocatorIS1_EEEE@Base 3.2.1~
 _ZTSN8casacore13BaseAllocatorINS_6MVTimeENS_16AlignedAllocatorIS1_Lm32EEEEE@Base 3.2.1~
 _ZTSN8casacore13BaseAllocatorINS_7QuantumIdEENS_15NewDelAllocatorIS2_EEEE@Base 3.2.1~
 _ZTSN8casacore13BaseAllocatorINS_7QuantumIdEENS_16AlignedAllocatorIS2_Lm32EEEEE@Base 3.2.1~
 _ZTSN8casacore13BaseAllocatorINS_8MDopplerENS_15NewDelAllocatorIS1_EEEE@Base 3.2.1~
 _ZTSN8casacore13BaseAllocatorINS_8MDopplerENS_16AlignedAllocatorIS1_Lm32EEEEE@Base 3.2.1~
 _ZTSN8casacore13BaseAllocatorINS_9MPositionENS_15NewDelAllocatorIS1_EEEE@Base 3.2.1~
 _ZTSN8casacore13BaseAllocatorINS_9MPositionENS_16AlignedAllocatorIS1_Lm32EEEEE@Base 3.2.1~
 _ZTSN8casacore13BaseAllocatorIPNS_6SlicerENS_15NewDelAllocatorIS2_EEEE@Base 3.2.1~
 _ZTSN8casacore13BaseAllocatorIPNS_6SlicerENS_16AlignedAllocatorIS2_Lm32EEEEE@Base 3.2.1~
 _ZTSN8casacore13DopplerEngineE@Base 3.2.1~
 _ZTSN8casacore14PositionEngineE@Base 3.2.1~
 _ZTSN8casacore14VectorIteratorIdEE@Base 3.2.1~
 _ZTSN8casacore15ArrayMeasColumnINS_10MDirectionEEE@Base 3.2.1~
 _ZTSN8casacore15ArrayMeasColumnINS_10MFrequencyEEE@Base 3.2.1~
 _ZTSN8casacore15ArrayMeasColumnINS_14MEarthMagneticEEE@Base 3.2.1~
 _ZTSN8casacore15ArrayMeasColumnINS_15MRadialVelocityEEE@Base 3.2.1~
 _ZTSN8casacore15ArrayMeasColumnINS_6MEpochEEE@Base 3.2.1~
 _ZTSN8casacore15ArrayMeasColumnINS_8MDopplerEEE@Base 3.2.1~
 _ZTSN8casacore15ArrayMeasColumnINS_9MPositionEEE@Base 3.2.1~
 _ZTSN8casacore15DirectionEngineE@Base 3.2.1~
 _ZTSN8casacore15FrequencyEngineE@Base 3.2.1~
 _ZTSN8casacore15NewDelAllocatorINS_10MDirectionEEE@Base 3.2.1~
 _ZTSN8casacore15NewDelAllocatorINS_10MFrequencyEEE@Base 3.2.1~
 _ZTSN8casacore15NewDelAllocatorINS_11MVFrequencyEEE@Base 3.2.1~
 _ZTSN8casacore15NewDelAllocatorINS_14MEarthMagneticEEE@Base 3.2.1~
 _ZTSN8casacore15NewDelAllocatorINS_15MRadialVelocityEEE@Base 3.2.1~
 _ZTSN8casacore15NewDelAllocatorINS_6MEpochEEE@Base 3.2.1~
 _ZTSN8casacore15NewDelAllocatorINS_6MVTimeEEE@Base 3.2.1~
 _ZTSN8casacore15NewDelAllocatorINS_7QuantumIdEEEE@Base 3.2.1~
 _ZTSN8casacore15NewDelAllocatorINS_8MDopplerEEE@Base 3.2.1~
 _ZTSN8casacore15NewDelAllocatorINS_9MPositionEEE@Base 3.2.1~
 _ZTSN8casacore15NewDelAllocatorIPNS_6SlicerEEE@Base 3.2.1~
 _ZTSN8casacore16AlignedAllocatorINS_10MDirectionELm32EEE@Base 3.2.1~
 _ZTSN8casacore16AlignedAllocatorINS_10MFrequencyELm32EEE@Base 3.2.1~
 _ZTSN8casacore16AlignedAllocatorINS_11MVFrequencyELm32EEE@Base 3.2.1~
 _ZTSN8casacore16AlignedAllocatorINS_14MEarthMagneticELm32EEE@Base 3.2.1~
 _ZTSN8casacore16AlignedAllocatorINS_15MRadialVelocityELm32EEE@Base 3.2.1~
 _ZTSN8casacore16AlignedAllocatorINS_6MEpochELm32EEE@Base 3.2.1~
 _ZTSN8casacore16AlignedAllocatorINS_6MVTimeELm32EEE@Base 3.2.1~
 _ZTSN8casacore16AlignedAllocatorINS_7QuantumIdEELm32EEE@Base 3.2.1~
 _ZTSN8casacore16AlignedAllocatorINS_8MDopplerELm32EEE@Base 3.2.1~
 _ZTSN8casacore16AlignedAllocatorINS_9MPositionELm32EEE@Base 3.2.1~
 _ZTSN8casacore16AlignedAllocatorIPNS_6SlicerELm32EEE@Base 3.2.1~
 _ZTSN8casacore16DefaultAllocatorINS_10MDirectionEEE@Base 3.2.1~
 _ZTSN8casacore16DefaultAllocatorINS_10MFrequencyEEE@Base 3.2.1~
 _ZTSN8casacore16DefaultAllocatorINS_11MVFrequencyEEE@Base 3.2.1~
 _ZTSN8casacore16DefaultAllocatorINS_14MEarthMagneticEEE@Base 3.2.1~
 _ZTSN8casacore16DefaultAllocatorINS_15MRadialVelocityEEE@Base 3.2.1~
 _ZTSN8casacore16DefaultAllocatorINS_6MEpochEEE@Base 3.2.1~
 _ZTSN8casacore16DefaultAllocatorINS_6MVTimeEEE@Base 3.2.1~
 _ZTSN8casacore16DefaultAllocatorINS_7QuantumIdEEEE@Base 3.2.1~
 _ZTSN8casacore16DefaultAllocatorINS_8MDopplerEEE@Base 3.2.1~
 _ZTSN8casacore16DefaultAllocatorINS_9MPositionEEE@Base 3.2.1~
 _ZTSN8casacore16DefaultAllocatorIPNS_6SlicerEEE@Base 3.2.1~
 _ZTSN8casacore16EarthMagneticUDFE@Base 3.2.1~
 _ZTSN8casacore16ScalarMeasColumnINS_10MDirectionEEE@Base 3.2.1~
 _ZTSN8casacore16ScalarMeasColumnINS_10MFrequencyEEE@Base 3.2.1~
 _ZTSN8casacore16ScalarMeasColumnINS_14MEarthMagneticEEE@Base 3.2.1~
 _ZTSN8casacore16ScalarMeasColumnINS_15MRadialVelocityEEE@Base 3.2.1~
 _ZTSN8casacore16ScalarMeasColumnINS_6MEpochEEE@Base 3.2.1~
 _ZTSN8casacore16ScalarMeasColumnINS_8MDopplerEEE@Base 3.2.1~
 _ZTSN8casacore16ScalarMeasColumnINS_9MPositionEEE@Base 3.2.1~
 _ZTSN8casacore17AbstractAllocatorINS_10MDirectionEEE@Base 3.2.1~
 _ZTSN8casacore17AbstractAllocatorINS_10MFrequencyEEE@Base 3.2.1~
 _ZTSN8casacore17AbstractAllocatorINS_11MVFrequencyEEE@Base 3.2.1~
 _ZTSN8casacore17AbstractAllocatorINS_14MEarthMagneticEEE@Base 3.2.1~
 _ZTSN8casacore17AbstractAllocatorINS_15MRadialVelocityEEE@Base 3.2.1~
 _ZTSN8casacore17AbstractAllocatorINS_6MEpochEEE@Base 3.2.1~
 _ZTSN8casacore17AbstractAllocatorINS_6MVTimeEEE@Base 3.2.1~
 _ZTSN8casacore17AbstractAllocatorINS_7QuantumIdEEEE@Base 3.2.1~
 _ZTSN8casacore17AbstractAllocatorINS_8MDopplerEEE@Base 3.2.1~
 _ZTSN8casacore17AbstractAllocatorINS_9MPositionEEE@Base 3.2.1~
 _ZTSN8casacore17AbstractAllocatorIPNS_6SlicerEEE@Base 3.2.1~
 _ZTSN8casacore17Allocator_private13BulkAllocatorINS_10MDirectionEEE@Base 3.2.1~
 _ZTSN8casacore17Allocator_private13BulkAllocatorINS_10MFrequencyEEE@Base 3.2.1~
 _ZTSN8casacore17Allocator_private13BulkAllocatorINS_11MVFrequencyEEE@Base 3.2.1~
 _ZTSN8casacore17Allocator_private13BulkAllocatorINS_14MEarthMagneticEEE@Base 3.2.1~
 _ZTSN8casacore17Allocator_private13BulkAllocatorINS_15MRadialVelocityEEE@Base 3.2.1~
 _ZTSN8casacore17Allocator_private13BulkAllocatorINS_6MEpochEEE@Base 3.2.1~
 _ZTSN8casacore17Allocator_private13BulkAllocatorINS_6MVTimeEEE@Base 3.2.1~
 _ZTSN8casacore17Allocator_private13BulkAllocatorINS_6StringEEE@Base 3.2.1~
 _ZTSN8casacore17Allocator_private13BulkAllocatorINS_7QuantumIdEEEE@Base 3.2.1~
 _ZTSN8casacore17Allocator_private13BulkAllocatorINS_8MDopplerEEE@Base 3.2.1~
 _ZTSN8casacore17Allocator_private13BulkAllocatorINS_9MPositionEEE@Base 3.2.1~
 _ZTSN8casacore17Allocator_private13BulkAllocatorIPNS_6SlicerEEE@Base 3.2.1~
 _ZTSN8casacore17Allocator_private13BulkAllocatorIjEE@Base 3.2.1~
 _ZTSN8casacore17Allocator_private17BulkAllocatorImplINS_17new_del_allocatorINS_10MDirectionEEEEE@Base 3.2.1~
 _ZTSN8casacore17Allocator_private17BulkAllocatorImplINS_17new_del_allocatorINS_10MFrequencyEEEEE@Base 3.2.1~
 _ZTSN8casacore17Allocator_private17BulkAllocatorImplINS_17new_del_allocatorINS_11MVFrequencyEEEEE@Base 3.2.1~
 _ZTSN8casacore17Allocator_private17BulkAllocatorImplINS_17new_del_allocatorINS_14MEarthMagneticEEEEE@Base 3.2.1~
 _ZTSN8casacore17Allocator_private17BulkAllocatorImplINS_17new_del_allocatorINS_15MRadialVelocityEEEEE@Base 3.2.1~
 _ZTSN8casacore17Allocator_private17BulkAllocatorImplINS_17new_del_allocatorINS_6MEpochEEEEE@Base 3.2.1~
 _ZTSN8casacore17Allocator_private17BulkAllocatorImplINS_17new_del_allocatorINS_6MVTimeEEEEE@Base 3.2.1~
 _ZTSN8casacore17Allocator_private17BulkAllocatorImplINS_17new_del_allocatorINS_7QuantumIdEEEEEE@Base 3.2.1~
 _ZTSN8casacore17Allocator_private17BulkAllocatorImplINS_17new_del_allocatorINS_8MDopplerEEEEE@Base 3.2.1~
 _ZTSN8casacore17Allocator_private17BulkAllocatorImplINS_17new_del_allocatorINS_9MPositionEEEEE@Base 3.2.1~
 _ZTSN8casacore17Allocator_private17BulkAllocatorImplINS_17new_del_allocatorIPNS_6SlicerEEEEE@Base 3.2.1~
 _ZTSN8casacore17Allocator_private17BulkAllocatorImplINS_18casacore_allocatorINS_10MDirectionELm32EEEEE@Base 3.2.1~
 _ZTSN8casacore17Allocator_private17BulkAllocatorImplINS_18casacore_allocatorINS_10MFrequencyELm32EEEEE@Base 3.2.1~
 _ZTSN8casacore17Allocator_private17BulkAllocatorImplINS_18casacore_allocatorINS_11MVFrequencyELm32EEEEE@Base 3.2.1~
 _ZTSN8casacore17Allocator_private17BulkAllocatorImplINS_18casacore_allocatorINS_14MEarthMagneticELm32EEEEE@Base 3.2.1~
 _ZTSN8casacore17Allocator_private17BulkAllocatorImplINS_18casacore_allocatorINS_15MRadialVelocityELm32EEEEE@Base 3.2.1~
 _ZTSN8casacore17Allocator_private17BulkAllocatorImplINS_18casacore_allocatorINS_6MEpochELm32EEEEE@Base 3.2.1~
 _ZTSN8casacore17Allocator_private17BulkAllocatorImplINS_18casacore_allocatorINS_6MVTimeELm32EEEEE@Base 3.2.1~
 _ZTSN8casacore17Allocator_private17BulkAllocatorImplINS_18casacore_allocatorINS_6StringELm32EEEEE@Base 3.2.1~
 _ZTSN8casacore17Allocator_private17BulkAllocatorImplINS_18casacore_allocatorINS_7QuantumIdEELm32EEEEE@Base 3.2.1~
 _ZTSN8casacore17Allocator_private17BulkAllocatorImplINS_18casacore_allocatorINS_8MDopplerELm32EEEEE@Base 3.2.1~
 _ZTSN8casacore17Allocator_private17BulkAllocatorImplINS_18casacore_allocatorINS_9MPositionELm32EEEEE@Base 3.2.1~
 _ZTSN8casacore17Allocator_private17BulkAllocatorImplINS_18casacore_allocatorIPNS_6SlicerELm32EEEEE@Base 3.2.1~
 _ZTSN8casacore17Allocator_private17BulkAllocatorImplINS_18casacore_allocatorIjLm32EEEEE@Base 3.2.1~
 _ZTSN8casacore17RadialVelocityUDFE@Base 3.2.1~
 _ZTSN8casacore17new_del_allocatorINS_10MDirectionEEE@Base 3.2.1~
 _ZTSN8casacore17new_del_allocatorINS_10MFrequencyEEE@Base 3.2.1~
 _ZTSN8casacore17new_del_allocatorINS_11MVFrequencyEEE@Base 3.2.1~
 _ZTSN8casacore17new_del_allocatorINS_14MEarthMagneticEEE@Base 3.2.1~
 _ZTSN8casacore17new_del_allocatorINS_15MRadialVelocityEEE@Base 3.2.1~
 _ZTSN8casacore17new_del_allocatorINS_6MEpochEEE@Base 3.2.1~
 _ZTSN8casacore17new_del_allocatorINS_6MVTimeEEE@Base 3.2.1~
 _ZTSN8casacore17new_del_allocatorINS_7QuantumIdEEEE@Base 3.2.1~
 _ZTSN8casacore17new_del_allocatorINS_8MDopplerEEE@Base 3.2.1~
 _ZTSN8casacore17new_del_allocatorINS_9MPositionEEE@Base 3.2.1~
 _ZTSN8casacore17new_del_allocatorIPNS_6SlicerEEE@Base 3.2.1~
 _ZTSN8casacore18casacore_allocatorINS_10MDirectionELm32EEE@Base 3.2.1~
 _ZTSN8casacore18casacore_allocatorINS_10MFrequencyELm32EEE@Base 3.2.1~
 _ZTSN8casacore18casacore_allocatorINS_11MVFrequencyELm32EEE@Base 3.2.1~
 _ZTSN8casacore18casacore_allocatorINS_14MEarthMagneticELm32EEE@Base 3.2.1~
 _ZTSN8casacore18casacore_allocatorINS_15MRadialVelocityELm32EEE@Base 3.2.1~
 _ZTSN8casacore18casacore_allocatorINS_6MEpochELm32EEE@Base 3.2.1~
 _ZTSN8casacore18casacore_allocatorINS_6MVTimeELm32EEE@Base 3.2.1~
 _ZTSN8casacore18casacore_allocatorINS_6StringELm32EEE@Base 3.2.1~
 _ZTSN8casacore18casacore_allocatorINS_7QuantumIdEELm32EEE@Base 3.2.1~
 _ZTSN8casacore18casacore_allocatorINS_8MDopplerELm32EEE@Base 3.2.1~
 _ZTSN8casacore18casacore_allocatorINS_9MPositionELm32EEE@Base 3.2.1~
 _ZTSN8casacore18casacore_allocatorIPNS_6SlicerELm32EEE@Base 3.2.1~
 _ZTSN8casacore18casacore_allocatorIjLm32EEE@Base 3.2.1~
 _ZTSN8casacore19EarthMagneticEngineE@Base 3.2.1~
 _ZTSN8casacore20RadialVelocityEngineE@Base 3.2.1~
 _ZTSN8casacore5ArrayINS_10MDirectionEEE@Base 3.2.1~
 _ZTSN8casacore5ArrayINS_10MFrequencyEEE@Base 3.2.1~
 _ZTSN8casacore5ArrayINS_11MVFrequencyEEE@Base 3.2.1~
 _ZTSN8casacore5ArrayINS_14MEarthMagneticEEE@Base 3.2.1~
 _ZTSN8casacore5ArrayINS_15MRadialVelocityEEE@Base 3.2.1~
 _ZTSN8casacore5ArrayINS_6MEpochEEE@Base 3.2.1~
 _ZTSN8casacore5ArrayINS_6MVTimeEEE@Base 3.2.1~
 _ZTSN8casacore5ArrayINS_7QuantumIdEEEE@Base 3.2.1~
 _ZTSN8casacore5ArrayINS_8MDopplerEEE@Base 3.2.1~
 _ZTSN8casacore5ArrayINS_9MPositionEEE@Base 3.2.1~
 _ZTSN8casacore6VectorINS_10MFrequencyEEE@Base 3.2.1~
 _ZTSN8casacore6VectorINS_15MRadialVelocityEEE@Base 3.2.1~
 _ZTSN8casacore6VectorINS_6MEpochEEE@Base 3.2.1~
 _ZTSN8casacore6VectorINS_7QuantumIdEEEE@Base 3.2.1~
 _ZTSN8casacore6VectorINS_8MDopplerEEE@Base 3.2.1~
 _ZTSN8casacore7MeasRefINS_10MDirectionEEE@Base 3.2.1~
 _ZTSN8casacore7MeasRefINS_10MFrequencyEEE@Base 3.2.1~
 _ZTSN8casacore7MeasRefINS_14MEarthMagneticEEE@Base 3.2.1~
 _ZTSN8casacore7MeasRefINS_15MRadialVelocityEEE@Base 3.2.1~
 _ZTSN8casacore7MeasRefINS_6MEpochEEE@Base 3.2.1~
 _ZTSN8casacore7MeasRefINS_8MDopplerEEE@Base 3.2.1~
 _ZTSN8casacore7MeasRefINS_9MPositionEEE@Base 3.2.1~
 _ZTSN8casacore7QuantumINS_6VectorIdEEEE@Base 3.2.1~
 _ZTSN8casacore8EpochUDFE@Base 3.2.1~
 _ZTSN8casacore8MeasBaseINS_11MVDirectionENS_7MeasRefINS_10MDirectionEEEEE@Base 3.2.1~
 _ZTSN8casacore8MeasBaseINS_11MVFrequencyENS_7MeasRefINS_10MFrequencyEEEEE@Base 3.2.1~
 _ZTSN8casacore8MeasBaseINS_16MVRadialVelocityENS_7MeasRefINS_15MRadialVelocityEEEEE@Base 3.2.1~
 _ZTSN8casacore8MeasBaseINS_7MVEpochENS_7MeasRefINS_6MEpochEEEEE@Base 3.2.1~
 _ZTSN8casacore8MeasBaseINS_9MVDopplerENS_7MeasRefINS_8MDopplerEEEEE@Base 3.2.1~
 _ZTSN9__gnu_cxx13new_allocatorIN8casacore10MDirectionEEE@Base 3.2.1~
 _ZTSN9__gnu_cxx13new_allocatorIN8casacore10MFrequencyEEE@Base 3.2.1~
 _ZTSN9__gnu_cxx13new_allocatorIN8casacore11MVFrequencyEEE@Base 3.2.1~
 _ZTSN9__gnu_cxx13new_allocatorIN8casacore14MEarthMagneticEEE@Base 3.2.1~
 _ZTSN9__gnu_cxx13new_allocatorIN8casacore15MRadialVelocityEEE@Base 3.2.1~
 _ZTSN9__gnu_cxx13new_allocatorIN8casacore6MEpochEEE@Base 3.2.1~
 _ZTSN9__gnu_cxx13new_allocatorIN8casacore6MVTimeEEE@Base 3.2.1~
 _ZTSN9__gnu_cxx13new_allocatorIN8casacore6StringEEE@Base 3.2.1~
 _ZTSN9__gnu_cxx13new_allocatorIN8casacore7QuantumIdEEEE@Base 3.2.1~
 _ZTSN9__gnu_cxx13new_allocatorIN8casacore8MDopplerEEE@Base 3.2.1~
 _ZTSN9__gnu_cxx13new_allocatorIN8casacore9MPositionEEE@Base 3.2.1~
 _ZTSN9__gnu_cxx13new_allocatorIPN8casacore6SlicerEEE@Base 3.2.1~
 _ZTSN9__gnu_cxx13new_allocatorIjEE@Base 3.2.1~
 _ZTSSaIN8casacore10MDirectionEE@Base 3.2.1~
 _ZTSSaIN8casacore10MFrequencyEE@Base 3.2.1~
 _ZTSSaIN8casacore11MVFrequencyEE@Base 3.2.1~
 _ZTSSaIN8casacore14MEarthMagneticEE@Base 3.2.1~
 _ZTSSaIN8casacore15MRadialVelocityEE@Base 3.2.1~
 _ZTSSaIN8casacore6MEpochEE@Base 3.2.1~
 _ZTSSaIN8casacore6MVTimeEE@Base 3.2.1~
 _ZTSSaIN8casacore6StringEE@Base 3.2.1~
 _ZTSSaIN8casacore7QuantumIdEEE@Base 3.2.1~
 _ZTSSaIN8casacore8MDopplerEE@Base 3.2.1~
 _ZTSSaIN8casacore9MPositionEE@Base 3.2.1~
 _ZTSSaIPN8casacore6SlicerEE@Base 3.2.1~
 _ZTSSaIjE@Base 3.2.1~
 _ZTSSt11_Mutex_baseILN9__gnu_cxx12_Lock_policyE2EE@Base 3.2.1~
 _ZTSSt15_Sp_counted_ptrIPN8casacore15FrequencyEngineELN9__gnu_cxx12_Lock_policyE2EE@Base 3.2.1~
 _ZTSSt15_Sp_counted_ptrIPN8casacore20RadialVelocityEngineELN9__gnu_cxx12_Lock_policyE2EE@Base 3.2.1~
 _ZTSSt15_Sp_counted_ptrIPN8casacore5BlockINS0_10MDirectionEEELN9__gnu_cxx12_Lock_policyE2EE@Base 3.2.1~
 _ZTSSt15_Sp_counted_ptrIPN8casacore5BlockINS0_10MFrequencyEEELN9__gnu_cxx12_Lock_policyE2EE@Base 3.2.1~
 _ZTSSt15_Sp_counted_ptrIPN8casacore5BlockINS0_11MVFrequencyEEELN9__gnu_cxx12_Lock_policyE2EE@Base 3.2.1~
 _ZTSSt15_Sp_counted_ptrIPN8casacore5BlockINS0_14MEarthMagneticEEELN9__gnu_cxx12_Lock_policyE2EE@Base 3.2.1~
 _ZTSSt15_Sp_counted_ptrIPN8casacore5BlockINS0_15MRadialVelocityEEELN9__gnu_cxx12_Lock_policyE2EE@Base 3.2.1~
 _ZTSSt15_Sp_counted_ptrIPN8casacore5BlockINS0_6MEpochEEELN9__gnu_cxx12_Lock_policyE2EE@Base 3.2.1~
 _ZTSSt15_Sp_counted_ptrIPN8casacore5BlockINS0_6MVTimeEEELN9__gnu_cxx12_Lock_policyE2EE@Base 3.2.1~
 _ZTSSt15_Sp_counted_ptrIPN8casacore5BlockINS0_7QuantumIdEEEELN9__gnu_cxx12_Lock_policyE2EE@Base 3.2.1~
 _ZTSSt15_Sp_counted_ptrIPN8casacore5BlockINS0_8MDopplerEEELN9__gnu_cxx12_Lock_policyE2EE@Base 3.2.1~
 _ZTSSt15_Sp_counted_ptrIPN8casacore5BlockINS0_9MPositionEEELN9__gnu_cxx12_Lock_policyE2EE@Base 3.2.1~
 _ZTSSt15_Sp_counted_ptrIPN8casacore7MeasRefINS0_10MDirectionEE6RefRepELN9__gnu_cxx12_Lock_policyE2EE@Base 3.2.1~
 _ZTSSt15_Sp_counted_ptrIPN8casacore7MeasRefINS0_10MFrequencyEE6RefRepELN9__gnu_cxx12_Lock_policyE2EE@Base 3.2.1~
 _ZTSSt15_Sp_counted_ptrIPN8casacore7MeasRefINS0_14MEarthMagneticEE6RefRepELN9__gnu_cxx12_Lock_policyE2EE@Base 3.2.1~
 _ZTSSt15_Sp_counted_ptrIPN8casacore7MeasRefINS0_15MRadialVelocityEE6RefRepELN9__gnu_cxx12_Lock_policyE2EE@Base 3.2.1~
 _ZTSSt15_Sp_counted_ptrIPN8casacore7MeasRefINS0_6MEpochEE6RefRepELN9__gnu_cxx12_Lock_policyE2EE@Base 3.2.1~
 _ZTSSt15_Sp_counted_ptrIPN8casacore7MeasRefINS0_8MDopplerEE6RefRepELN9__gnu_cxx12_Lock_policyE2EE@Base 3.2.1~
 _ZTSSt15_Sp_counted_ptrIPN8casacore7MeasRefINS0_9MPositionEE6RefRepELN9__gnu_cxx12_Lock_policyE2EE@Base 3.2.1~
 _ZTSSt16_Sp_counted_baseILN9__gnu_cxx12_Lock_policyE2EE@Base 3.2.1~
 _ZTSSt19_Sp_counted_deleterIPN8casacore21ArrayPositionIteratorENS0_10CountedPtrIS1_E7DeleterIS1_EESaIvELN9__gnu_cxx12_Lock_policyE2EE@Base 3.2.1~
 _ZTSSt19_Sp_counted_deleterIPN8casacore5BlockINS0_10MDirectionEEENS0_10CountedPtrIS3_E7DeleterIS3_EESaIvELN9__gnu_cxx12_Lock_policyE2EE@Base 3.2.1~
 _ZTSSt19_Sp_counted_deleterIPN8casacore5BlockINS0_10MFrequencyEEENS0_10CountedPtrIS3_E7DeleterIS3_EESaIvELN9__gnu_cxx12_Lock_policyE2EE@Base 3.2.1~
 _ZTSSt19_Sp_counted_deleterIPN8casacore5BlockINS0_11MVFrequencyEEENS0_10CountedPtrIS3_E7DeleterIS3_EESaIvELN9__gnu_cxx12_Lock_policyE2EE@Base 3.2.1~
 _ZTSSt19_Sp_counted_deleterIPN8casacore5BlockINS0_14MEarthMagneticEEENS0_10CountedPtrIS3_E7DeleterIS3_EESaIvELN9__gnu_cxx12_Lock_policyE2EE@Base 3.2.1~
 _ZTSSt19_Sp_counted_deleterIPN8casacore5BlockINS0_15MRadialVelocityEEENS0_10CountedPtrIS3_E7DeleterIS3_EESaIvELN9__gnu_cxx12_Lock_policyE2EE@Base 3.2.1~
 _ZTSSt19_Sp_counted_deleterIPN8casacore5BlockINS0_6MEpochEEENS0_10CountedPtrIS3_E7DeleterIS3_EESaIvELN9__gnu_cxx12_Lock_policyE2EE@Base 3.2.1~
 _ZTSSt19_Sp_counted_deleterIPN8casacore5BlockINS0_6MVTimeEEENS0_10CountedPtrIS3_E7DeleterIS3_EESaIvELN9__gnu_cxx12_Lock_policyE2EE@Base 3.2.1~
 _ZTSSt19_Sp_counted_deleterIPN8casacore5BlockINS0_7QuantumIdEEEENS0_10CountedPtrIS4_E7DeleterIS4_EESaIvELN9__gnu_cxx12_Lock_policyE2EE@Base 3.2.1~
 _ZTSSt19_Sp_counted_deleterIPN8casacore5BlockINS0_8MDopplerEEENS0_10CountedPtrIS3_E7DeleterIS3_EESaIvELN9__gnu_cxx12_Lock_policyE2EE@Base 3.2.1~
 _ZTSSt19_Sp_counted_deleterIPN8casacore5BlockINS0_9MPositionEEENS0_10CountedPtrIS3_E7DeleterIS3_EESaIvELN9__gnu_cxx12_Lock_policyE2EE@Base 3.2.1~
 _ZTSSt19_Sp_counted_deleterIPN8casacore9ArrayBaseENS0_10CountedPtrIS1_E7DeleterIS1_EESaIvELN9__gnu_cxx12_Lock_policyE2EE@Base 3.2.1~
 _ZTVN8casacore10BaseEngineE@Base 3.2.1~
 _ZTVN8casacore10DopplerUDFE@Base 3.2.1~
 _ZTVN8casacore10MeasEngineINS_10MDirectionEEE@Base 3.2.1~
 _ZTVN8casacore10MeasEngineINS_10MFrequencyEEE@Base 3.2.1~
 _ZTVN8casacore10MeasEngineINS_14MEarthMagneticEEE@Base 3.2.1~
 _ZTVN8casacore10MeasEngineINS_15MRadialVelocityEEE@Base 3.2.1~
 _ZTVN8casacore10MeasEngineINS_6MEpochEEE@Base 3.2.1~
 _ZTVN8casacore10MeasEngineINS_8MDopplerEEE@Base 3.2.1~
 _ZTVN8casacore10MeasEngineINS_9MPositionEEE@Base 3.2.1~
 _ZTVN8casacore11EpochEngineE@Base 3.2.1~
 _ZTVN8casacore11HelpMeasUDFE@Base 3.2.1~
 _ZTVN8casacore11MeasConvertINS_10MDirectionEEE@Base 3.2.1~
 _ZTVN8casacore11MeasConvertINS_10MFrequencyEEE@Base 3.2.1~
 _ZTVN8casacore11MeasConvertINS_14MEarthMagneticEEE@Base 3.2.1~
 _ZTVN8casacore11MeasConvertINS_15MRadialVelocityEEE@Base 3.2.1~
 _ZTVN8casacore11MeasConvertINS_6MEpochEEE@Base 3.2.1~
 _ZTVN8casacore11MeasConvertINS_8MDopplerEEE@Base 3.2.1~
 _ZTVN8casacore11MeasConvertINS_9MPositionEEE@Base 3.2.1~
 _ZTVN8casacore11PositionUDFE@Base 3.2.1~
 _ZTVN8casacore12DirectionUDFE@Base 3.2.1~
 _ZTVN8casacore12FrequencyUDFE@Base 3.2.1~
 _ZTVN8casacore13ArrayIteratorINS_10MDirectionEEE@Base 3.2.1~
 _ZTVN8casacore13ArrayIteratorINS_10MFrequencyEEE@Base 3.2.1~
 _ZTVN8casacore13ArrayIteratorINS_11MVFrequencyEEE@Base 3.2.1~
 _ZTVN8casacore13ArrayIteratorINS_14MEarthMagneticEEE@Base 3.2.1~
 _ZTVN8casacore13ArrayIteratorINS_15MRadialVelocityEEE@Base 3.2.1~
 _ZTVN8casacore13ArrayIteratorINS_6MEpochEEE@Base 3.2.1~
 _ZTVN8casacore13ArrayIteratorINS_6MVTimeEEE@Base 3.2.1~
 _ZTVN8casacore13ArrayIteratorINS_7QuantumIdEEEE@Base 3.2.1~
 _ZTVN8casacore13ArrayIteratorINS_8MDopplerEEE@Base 3.2.1~
 _ZTVN8casacore13ArrayIteratorINS_9MPositionEEE@Base 3.2.1~
 _ZTVN8casacore13ArrayIteratorIdEE@Base 3.2.1~
 _ZTVN8casacore13DopplerEngineE@Base 3.2.1~
 _ZTVN8casacore14PositionEngineE@Base 3.2.1~
 _ZTVN8casacore14VectorIteratorIdEE@Base 3.2.1~
 _ZTVN8casacore15ArrayMeasColumnINS_10MDirectionEEE@Base 3.2.1~
 _ZTVN8casacore15ArrayMeasColumnINS_10MFrequencyEEE@Base 3.2.1~
 _ZTVN8casacore15ArrayMeasColumnINS_14MEarthMagneticEEE@Base 3.2.1~
 _ZTVN8casacore15ArrayMeasColumnINS_15MRadialVelocityEEE@Base 3.2.1~
 _ZTVN8casacore15ArrayMeasColumnINS_6MEpochEEE@Base 3.2.1~
 _ZTVN8casacore15ArrayMeasColumnINS_8MDopplerEEE@Base 3.2.1~
 _ZTVN8casacore15ArrayMeasColumnINS_9MPositionEEE@Base 3.2.1~
 _ZTVN8casacore15DirectionEngineE@Base 3.2.1~
 _ZTVN8casacore15FrequencyEngineE@Base 3.2.1~
 _ZTVN8casacore15NewDelAllocatorINS_10MDirectionEEE@Base 3.2.1~
 _ZTVN8casacore15NewDelAllocatorINS_10MFrequencyEEE@Base 3.2.1~
 _ZTVN8casacore15NewDelAllocatorINS_11MVFrequencyEEE@Base 3.2.1~
 _ZTVN8casacore15NewDelAllocatorINS_14MEarthMagneticEEE@Base 3.2.1~
 _ZTVN8casacore15NewDelAllocatorINS_15MRadialVelocityEEE@Base 3.2.1~
 _ZTVN8casacore15NewDelAllocatorINS_6MEpochEEE@Base 3.2.1~
 _ZTVN8casacore15NewDelAllocatorINS_6MVTimeEEE@Base 3.2.1~
 _ZTVN8casacore15NewDelAllocatorINS_7QuantumIdEEEE@Base 3.2.1~
 _ZTVN8casacore15NewDelAllocatorINS_8MDopplerEEE@Base 3.2.1~
 _ZTVN8casacore15NewDelAllocatorINS_9MPositionEEE@Base 3.2.1~
 _ZTVN8casacore15NewDelAllocatorIPNS_6SlicerEEE@Base 3.2.1~
 _ZTVN8casacore16DefaultAllocatorINS_10MDirectionEEE@Base 3.2.1~
 _ZTVN8casacore16DefaultAllocatorINS_10MFrequencyEEE@Base 3.2.1~
 _ZTVN8casacore16DefaultAllocatorINS_11MVFrequencyEEE@Base 3.2.1~
 _ZTVN8casacore16DefaultAllocatorINS_14MEarthMagneticEEE@Base 3.2.1~
 _ZTVN8casacore16DefaultAllocatorINS_15MRadialVelocityEEE@Base 3.2.1~
 _ZTVN8casacore16DefaultAllocatorINS_6MEpochEEE@Base 3.2.1~
 _ZTVN8casacore16DefaultAllocatorINS_6MVTimeEEE@Base 3.2.1~
 _ZTVN8casacore16DefaultAllocatorINS_7QuantumIdEEEE@Base 3.2.1~
 _ZTVN8casacore16DefaultAllocatorINS_8MDopplerEEE@Base 3.2.1~
 _ZTVN8casacore16DefaultAllocatorINS_9MPositionEEE@Base 3.2.1~
 _ZTVN8casacore16DefaultAllocatorIPNS_6SlicerEEE@Base 3.2.1~
 _ZTVN8casacore16EarthMagneticUDFE@Base 3.2.1~
 _ZTVN8casacore16ScalarMeasColumnINS_10MDirectionEEE@Base 3.2.1~
 _ZTVN8casacore16ScalarMeasColumnINS_10MFrequencyEEE@Base 3.2.1~
 _ZTVN8casacore16ScalarMeasColumnINS_14MEarthMagneticEEE@Base 3.2.1~
 _ZTVN8casacore16ScalarMeasColumnINS_15MRadialVelocityEEE@Base 3.2.1~
 _ZTVN8casacore16ScalarMeasColumnINS_6MEpochEEE@Base 3.2.1~
 _ZTVN8casacore16ScalarMeasColumnINS_8MDopplerEEE@Base 3.2.1~
 _ZTVN8casacore16ScalarMeasColumnINS_9MPositionEEE@Base 3.2.1~
 _ZTVN8casacore17Allocator_private17BulkAllocatorImplINS_17new_del_allocatorINS_10MDirectionEEEEE@Base 3.2.1~
 _ZTVN8casacore17Allocator_private17BulkAllocatorImplINS_17new_del_allocatorINS_10MFrequencyEEEEE@Base 3.2.1~
 _ZTVN8casacore17Allocator_private17BulkAllocatorImplINS_17new_del_allocatorINS_11MVFrequencyEEEEE@Base 3.2.1~
 _ZTVN8casacore17Allocator_private17BulkAllocatorImplINS_17new_del_allocatorINS_14MEarthMagneticEEEEE@Base 3.2.1~
 _ZTVN8casacore17Allocator_private17BulkAllocatorImplINS_17new_del_allocatorINS_15MRadialVelocityEEEEE@Base 3.2.1~
 _ZTVN8casacore17Allocator_private17BulkAllocatorImplINS_17new_del_allocatorINS_6MEpochEEEEE@Base 3.2.1~
 _ZTVN8casacore17Allocator_private17BulkAllocatorImplINS_17new_del_allocatorINS_6MVTimeEEEEE@Base 3.2.1~
 _ZTVN8casacore17Allocator_private17BulkAllocatorImplINS_17new_del_allocatorINS_7QuantumIdEEEEEE@Base 3.2.1~
 _ZTVN8casacore17Allocator_private17BulkAllocatorImplINS_17new_del_allocatorINS_8MDopplerEEEEE@Base 3.2.1~
 _ZTVN8casacore17Allocator_private17BulkAllocatorImplINS_17new_del_allocatorINS_9MPositionEEEEE@Base 3.2.1~
 _ZTVN8casacore17Allocator_private17BulkAllocatorImplINS_17new_del_allocatorIPNS_6SlicerEEEEE@Base 3.2.1~
 _ZTVN8casacore17Allocator_private17BulkAllocatorImplINS_18casacore_allocatorINS_10MDirectionELm32EEEEE@Base 3.2.1~
 _ZTVN8casacore17Allocator_private17BulkAllocatorImplINS_18casacore_allocatorINS_10MFrequencyELm32EEEEE@Base 3.2.1~
 _ZTVN8casacore17Allocator_private17BulkAllocatorImplINS_18casacore_allocatorINS_11MVFrequencyELm32EEEEE@Base 3.2.1~
 _ZTVN8casacore17Allocator_private17BulkAllocatorImplINS_18casacore_allocatorINS_14MEarthMagneticELm32EEEEE@Base 3.2.1~
 _ZTVN8casacore17Allocator_private17BulkAllocatorImplINS_18casacore_allocatorINS_15MRadialVelocityELm32EEEEE@Base 3.2.1~
 _ZTVN8casacore17Allocator_private17BulkAllocatorImplINS_18casacore_allocatorINS_6MEpochELm32EEEEE@Base 3.2.1~
 _ZTVN8casacore17Allocator_private17BulkAllocatorImplINS_18casacore_allocatorINS_6MVTimeELm32EEEEE@Base 3.2.1~
 _ZTVN8casacore17Allocator_private17BulkAllocatorImplINS_18casacore_allocatorINS_6StringELm32EEEEE@Base 3.2.1~
 _ZTVN8casacore17Allocator_private17BulkAllocatorImplINS_18casacore_allocatorINS_7QuantumIdEELm32EEEEE@Base 3.2.1~
 _ZTVN8casacore17Allocator_private17BulkAllocatorImplINS_18casacore_allocatorINS_8MDopplerELm32EEEEE@Base 3.2.1~
 _ZTVN8casacore17Allocator_private17BulkAllocatorImplINS_18casacore_allocatorINS_9MPositionELm32EEEEE@Base 3.2.1~
 _ZTVN8casacore17Allocator_private17BulkAllocatorImplINS_18casacore_allocatorIPNS_6SlicerELm32EEEEE@Base 3.2.1~
 _ZTVN8casacore17Allocator_private17BulkAllocatorImplINS_18casacore_allocatorIjLm32EEEEE@Base 3.2.1~
 _ZTVN8casacore17RadialVelocityUDFE@Base 3.2.1~
 _ZTVN8casacore19EarthMagneticEngineE@Base 3.2.1~
 _ZTVN8casacore20RadialVelocityEngineE@Base 3.2.1~
 _ZTVN8casacore5ArrayINS_10MDirectionEEE@Base 3.2.1~
 _ZTVN8casacore5ArrayINS_10MFrequencyEEE@Base 3.2.1~
 _ZTVN8casacore5ArrayINS_11MVFrequencyEEE@Base 3.2.1~
 _ZTVN8casacore5ArrayINS_14MEarthMagneticEEE@Base 3.2.1~
 _ZTVN8casacore5ArrayINS_15MRadialVelocityEEE@Base 3.2.1~
 _ZTVN8casacore5ArrayINS_6MEpochEEE@Base 3.2.1~
 _ZTVN8casacore5ArrayINS_6MVTimeEEE@Base 3.2.1~
 _ZTVN8casacore5ArrayINS_7QuantumIdEEEE@Base 3.2.1~
 _ZTVN8casacore5ArrayINS_8MDopplerEEE@Base 3.2.1~
 _ZTVN8casacore5ArrayINS_9MPositionEEE@Base 3.2.1~
 _ZTVN8casacore6VectorINS_10MFrequencyEEE@Base 3.2.1~
 _ZTVN8casacore6VectorINS_15MRadialVelocityEEE@Base 3.2.1~
 _ZTVN8casacore6VectorINS_6MEpochEEE@Base 3.2.1~
 _ZTVN8casacore6VectorINS_7QuantumIdEEEE@Base 3.2.1~
 _ZTVN8casacore6VectorINS_8MDopplerEEE@Base 3.2.1~
 _ZTVN8casacore7MeasRefINS_10MDirectionEEE@Base 3.2.1~
 _ZTVN8casacore7MeasRefINS_10MFrequencyEEE@Base 3.2.1~
 _ZTVN8casacore7MeasRefINS_14MEarthMagneticEEE@Base 3.2.1~
 _ZTVN8casacore7MeasRefINS_15MRadialVelocityEEE@Base 3.2.1~
 _ZTVN8casacore7MeasRefINS_6MEpochEEE@Base 3.2.1~
 _ZTVN8casacore7MeasRefINS_8MDopplerEEE@Base 3.2.1~
 _ZTVN8casacore7MeasRefINS_9MPositionEEE@Base 3.2.1~
 _ZTVN8casacore7QuantumINS_6VectorIdEEEE@Base 3.2.1~
 _ZTVN8casacore8EpochUDFE@Base 3.2.1~
 _ZTVN8casacore8MeasBaseINS_11MVDirectionENS_7MeasRefINS_10MDirectionEEEEE@Base 3.2.1~
 _ZTVN8casacore8MeasBaseINS_11MVFrequencyENS_7MeasRefINS_10MFrequencyEEEEE@Base 3.2.1~
 _ZTVN8casacore8MeasBaseINS_16MVRadialVelocityENS_7MeasRefINS_15MRadialVelocityEEEEE@Base 3.2.1~
 _ZTVN8casacore8MeasBaseINS_7MVEpochENS_7MeasRefINS_6MEpochEEEEE@Base 3.2.1~
 _ZTVN8casacore8MeasBaseINS_9MVDopplerENS_7MeasRefINS_8MDopplerEEEEE@Base 3.2.1~
 _ZTVSt15_Sp_counted_ptrIPN8casacore15FrequencyEngineELN9__gnu_cxx12_Lock_policyE2EE@Base 3.2.1~
 _ZTVSt15_Sp_counted_ptrIPN8casacore20RadialVelocityEngineELN9__gnu_cxx12_Lock_policyE2EE@Base 3.2.1~
 _ZTVSt15_Sp_counted_ptrIPN8casacore5BlockINS0_10MDirectionEEELN9__gnu_cxx12_Lock_policyE2EE@Base 3.2.1~
 _ZTVSt15_Sp_counted_ptrIPN8casacore5BlockINS0_10MFrequencyEEELN9__gnu_cxx12_Lock_policyE2EE@Base 3.2.1~
 _ZTVSt15_Sp_counted_ptrIPN8casacore5BlockINS0_11MVFrequencyEEELN9__gnu_cxx12_Lock_policyE2EE@Base 3.2.1~
 _ZTVSt15_Sp_counted_ptrIPN8casacore5BlockINS0_14MEarthMagneticEEELN9__gnu_cxx12_Lock_policyE2EE@Base 3.2.1~
 _ZTVSt15_Sp_counted_ptrIPN8casacore5BlockINS0_15MRadialVelocityEEELN9__gnu_cxx12_Lock_policyE2EE@Base 3.2.1~
 _ZTVSt15_Sp_counted_ptrIPN8casacore5BlockINS0_6MEpochEEELN9__gnu_cxx12_Lock_policyE2EE@Base 3.2.1~
 _ZTVSt15_Sp_counted_ptrIPN8casacore5BlockINS0_6MVTimeEEELN9__gnu_cxx12_Lock_policyE2EE@Base 3.2.1~
 _ZTVSt15_Sp_counted_ptrIPN8casacore5BlockINS0_7QuantumIdEEEELN9__gnu_cxx12_Lock_policyE2EE@Base 3.2.1~
 _ZTVSt15_Sp_counted_ptrIPN8casacore5BlockINS0_8MDopplerEEELN9__gnu_cxx12_Lock_policyE2EE@Base 3.2.1~
 _ZTVSt15_Sp_counted_ptrIPN8casacore5BlockINS0_9MPositionEEELN9__gnu_cxx12_Lock_policyE2EE@Base 3.2.1~
 _ZTVSt15_Sp_counted_ptrIPN8casacore7MeasRefINS0_10MDirectionEE6RefRepELN9__gnu_cxx12_Lock_policyE2EE@Base 3.2.1~
 _ZTVSt15_Sp_counted_ptrIPN8casacore7MeasRefINS0_10MFrequencyEE6RefRepELN9__gnu_cxx12_Lock_policyE2EE@Base 3.2.1~
 _ZTVSt15_Sp_counted_ptrIPN8casacore7MeasRefINS0_14MEarthMagneticEE6RefRepELN9__gnu_cxx12_Lock_policyE2EE@Base 3.2.1~
 _ZTVSt15_Sp_counted_ptrIPN8casacore7MeasRefINS0_15MRadialVelocityEE6RefRepELN9__gnu_cxx12_Lock_policyE2EE@Base 3.2.1~
 _ZTVSt15_Sp_counted_ptrIPN8casacore7MeasRefINS0_6MEpochEE6RefRepELN9__gnu_cxx12_Lock_policyE2EE@Base 3.2.1~
 _ZTVSt15_Sp_counted_ptrIPN8casacore7MeasRefINS0_8MDopplerEE6RefRepELN9__gnu_cxx12_Lock_policyE2EE@Base 3.2.1~
 _ZTVSt15_Sp_counted_ptrIPN8casacore7MeasRefINS0_9MPositionEE6RefRepELN9__gnu_cxx12_Lock_policyE2EE@Base 3.2.1~
 _ZTVSt19_Sp_counted_deleterIPN8casacore21ArrayPositionIteratorENS0_10CountedPtrIS1_E7DeleterIS1_EESaIvELN9__gnu_cxx12_Lock_policyE2EE@Base 3.2.1~
 _ZTVSt19_Sp_counted_deleterIPN8casacore5BlockINS0_10MDirectionEEENS0_10CountedPtrIS3_E7DeleterIS3_EESaIvELN9__gnu_cxx12_Lock_policyE2EE@Base 3.2.1~
 _ZTVSt19_Sp_counted_deleterIPN8casacore5BlockINS0_10MFrequencyEEENS0_10CountedPtrIS3_E7DeleterIS3_EESaIvELN9__gnu_cxx12_Lock_policyE2EE@Base 3.2.1~
 _ZTVSt19_Sp_counted_deleterIPN8casacore5BlockINS0_11MVFrequencyEEENS0_10CountedPtrIS3_E7DeleterIS3_EESaIvELN9__gnu_cxx12_Lock_policyE2EE@Base 3.2.1~
 _ZTVSt19_Sp_counted_deleterIPN8casacore5BlockINS0_14MEarthMagneticEEENS0_10CountedPtrIS3_E7DeleterIS3_EESaIvELN9__gnu_cxx12_Lock_policyE2EE@Base 3.2.1~
 _ZTVSt19_Sp_counted_deleterIPN8casacore5BlockINS0_15MRadialVelocityEEENS0_10CountedPtrIS3_E7DeleterIS3_EESaIvELN9__gnu_cxx12_Lock_policyE2EE@Base 3.2.1~
 _ZTVSt19_Sp_counted_deleterIPN8casacore5BlockINS0_6MEpochEEENS0_10CountedPtrIS3_E7DeleterIS3_EESaIvELN9__gnu_cxx12_Lock_policyE2EE@Base 3.2.1~
 _ZTVSt19_Sp_counted_deleterIPN8casacore5BlockINS0_6MVTimeEEENS0_10CountedPtrIS3_E7DeleterIS3_EESaIvELN9__gnu_cxx12_Lock_policyE2EE@Base 3.2.1~
 _ZTVSt19_Sp_counted_deleterIPN8casacore5BlockINS0_7QuantumIdEEEENS0_10CountedPtrIS4_E7DeleterIS4_EESaIvELN9__gnu_cxx12_Lock_policyE2EE@Base 3.2.1~
 _ZTVSt19_Sp_counted_deleterIPN8casacore5BlockINS0_8MDopplerEEENS0_10CountedPtrIS3_E7DeleterIS3_EESaIvELN9__gnu_cxx12_Lock_policyE2EE@Base 3.2.1~
 _ZTVSt19_Sp_counted_deleterIPN8casacore5BlockINS0_9MPositionEEENS0_10CountedPtrIS3_E7DeleterIS3_EESaIvELN9__gnu_cxx12_Lock_policyE2EE@Base 3.2.1~
 _ZTVSt19_Sp_counted_deleterIPN8casacore9ArrayBaseENS0_10CountedPtrIS1_E7DeleterIS1_EESaIvELN9__gnu_cxx12_Lock_policyE2EE@Base 3.2.1~
 _ZZN8casacore17Allocator_private17get_allocator_rawINS_17new_del_allocatorINS_10MDirectionEEEEEPNS0_17BulkAllocatorImplIT_EEvE3ptr@Base 3.2.1~
 _ZZN8casacore17Allocator_private17get_allocator_rawINS_17new_del_allocatorINS_10MDirectionEEEEEPNS0_17BulkAllocatorImplIT_EEvE7storage@Base 3.2.1~
 _ZZN8casacore17Allocator_private17get_allocator_rawINS_17new_del_allocatorINS_10MFrequencyEEEEEPNS0_17BulkAllocatorImplIT_EEvE3ptr@Base 3.2.1~
 _ZZN8casacore17Allocator_private17get_allocator_rawINS_17new_del_allocatorINS_10MFrequencyEEEEEPNS0_17BulkAllocatorImplIT_EEvE7storage@Base 3.2.1~
 _ZZN8casacore17Allocator_private17get_allocator_rawINS_17new_del_allocatorINS_11MVFrequencyEEEEEPNS0_17BulkAllocatorImplIT_EEvE3ptr@Base 3.2.1~
 _ZZN8casacore17Allocator_private17get_allocator_rawINS_17new_del_allocatorINS_11MVFrequencyEEEEEPNS0_17BulkAllocatorImplIT_EEvE7storage@Base 3.2.1~
 _ZZN8casacore17Allocator_private17get_allocator_rawINS_17new_del_allocatorINS_14MEarthMagneticEEEEEPNS0_17BulkAllocatorImplIT_EEvE3ptr@Base 3.2.1~
 _ZZN8casacore17Allocator_private17get_allocator_rawINS_17new_del_allocatorINS_14MEarthMagneticEEEEEPNS0_17BulkAllocatorImplIT_EEvE7storage@Base 3.2.1~
 _ZZN8casacore17Allocator_private17get_allocator_rawINS_17new_del_allocatorINS_15MRadialVelocityEEEEEPNS0_17BulkAllocatorImplIT_EEvE3ptr@Base 3.2.1~
 _ZZN8casacore17Allocator_private17get_allocator_rawINS_17new_del_allocatorINS_15MRadialVelocityEEEEEPNS0_17BulkAllocatorImplIT_EEvE7storage@Base 3.2.1~
 _ZZN8casacore17Allocator_private17get_allocator_rawINS_17new_del_allocatorINS_6MEpochEEEEEPNS0_17BulkAllocatorImplIT_EEvE3ptr@Base 3.2.1~
 _ZZN8casacore17Allocator_private17get_allocator_rawINS_17new_del_allocatorINS_6MEpochEEEEEPNS0_17BulkAllocatorImplIT_EEvE7storage@Base 3.2.1~
 _ZZN8casacore17Allocator_private17get_allocator_rawINS_17new_del_allocatorINS_6MVTimeEEEEEPNS0_17BulkAllocatorImplIT_EEvE3ptr@Base 3.2.1~
 _ZZN8casacore17Allocator_private17get_allocator_rawINS_17new_del_allocatorINS_6MVTimeEEEEEPNS0_17BulkAllocatorImplIT_EEvE7storage@Base 3.2.1~
 _ZZN8casacore17Allocator_private17get_allocator_rawINS_17new_del_allocatorINS_7QuantumIdEEEEEEPNS0_17BulkAllocatorImplIT_EEvE3ptr@Base 3.2.1~
 _ZZN8casacore17Allocator_private17get_allocator_rawINS_17new_del_allocatorINS_7QuantumIdEEEEEEPNS0_17BulkAllocatorImplIT_EEvE7storage@Base 3.2.1~
 _ZZN8casacore17Allocator_private17get_allocator_rawINS_17new_del_allocatorINS_8MDopplerEEEEEPNS0_17BulkAllocatorImplIT_EEvE3ptr@Base 3.2.1~
 _ZZN8casacore17Allocator_private17get_allocator_rawINS_17new_del_allocatorINS_8MDopplerEEEEEPNS0_17BulkAllocatorImplIT_EEvE7storage@Base 3.2.1~
 _ZZN8casacore17Allocator_private17get_allocator_rawINS_17new_del_allocatorINS_9MPositionEEEEEPNS0_17BulkAllocatorImplIT_EEvE3ptr@Base 3.2.1~
 _ZZN8casacore17Allocator_private17get_allocator_rawINS_17new_del_allocatorINS_9MPositionEEEEEPNS0_17BulkAllocatorImplIT_EEvE7storage@Base 3.2.1~
 _ZZN8casacore17Allocator_private17get_allocator_rawINS_17new_del_allocatorIPNS_6SlicerEEEEEPNS0_17BulkAllocatorImplIT_EEvE3ptr@Base 3.2.1~
 _ZZN8casacore17Allocator_private17get_allocator_rawINS_17new_del_allocatorIPNS_6SlicerEEEEEPNS0_17BulkAllocatorImplIT_EEvE7storage@Base 3.2.1~
 _ZZN8casacore17Allocator_private17get_allocator_rawINS_18casacore_allocatorINS_10MDirectionELm32EEEEEPNS0_17BulkAllocatorImplIT_EEvE3ptr@Base 3.2.1~
 _ZZN8casacore17Allocator_private17get_allocator_rawINS_18casacore_allocatorINS_10MDirectionELm32EEEEEPNS0_17BulkAllocatorImplIT_EEvE7storage@Base 3.2.1~
 _ZZN8casacore17Allocator_private17get_allocator_rawINS_18casacore_allocatorINS_10MFrequencyELm32EEEEEPNS0_17BulkAllocatorImplIT_EEvE3ptr@Base 3.2.1~
 _ZZN8casacore17Allocator_private17get_allocator_rawINS_18casacore_allocatorINS_10MFrequencyELm32EEEEEPNS0_17BulkAllocatorImplIT_EEvE7storage@Base 3.2.1~
 _ZZN8casacore17Allocator_private17get_allocator_rawINS_18casacore_allocatorINS_11MVFrequencyELm32EEEEEPNS0_17BulkAllocatorImplIT_EEvE3ptr@Base 3.2.1~
 _ZZN8casacore17Allocator_private17get_allocator_rawINS_18casacore_allocatorINS_11MVFrequencyELm32EEEEEPNS0_17BulkAllocatorImplIT_EEvE7storage@Base 3.2.1~
 _ZZN8casacore17Allocator_private17get_allocator_rawINS_18casacore_allocatorINS_14MEarthMagneticELm32EEEEEPNS0_17BulkAllocatorImplIT_EEvE3ptr@Base 3.2.1~
 _ZZN8casacore17Allocator_private17get_allocator_rawINS_18casacore_allocatorINS_14MEarthMagneticELm32EEEEEPNS0_17BulkAllocatorImplIT_EEvE7storage@Base 3.2.1~
 _ZZN8casacore17Allocator_private17get_allocator_rawINS_18casacore_allocatorINS_15MRadialVelocityELm32EEEEEPNS0_17BulkAllocatorImplIT_EEvE3ptr@Base 3.2.1~
 _ZZN8casacore17Allocator_private17get_allocator_rawINS_18casacore_allocatorINS_15MRadialVelocityELm32EEEEEPNS0_17BulkAllocatorImplIT_EEvE7storage@Base 3.2.1~
 _ZZN8casacore17Allocator_private17get_allocator_rawINS_18casacore_allocatorINS_6MEpochELm32EEEEEPNS0_17BulkAllocatorImplIT_EEvE3ptr@Base 3.2.1~
 _ZZN8casacore17Allocator_private17get_allocator_rawINS_18casacore_allocatorINS_6MEpochELm32EEEEEPNS0_17BulkAllocatorImplIT_EEvE7storage@Base 3.2.1~
 _ZZN8casacore17Allocator_private17get_allocator_rawINS_18casacore_allocatorINS_6MVTimeELm32EEEEEPNS0_17BulkAllocatorImplIT_EEvE3ptr@Base 3.2.1~
 _ZZN8casacore17Allocator_private17get_allocator_rawINS_18casacore_allocatorINS_6MVTimeELm32EEEEEPNS0_17BulkAllocatorImplIT_EEvE7storage@Base 3.2.1~
 _ZZN8casacore17Allocator_private17get_allocator_rawINS_18casacore_allocatorINS_6StringELm32EEEEEPNS0_17BulkAllocatorImplIT_EEvE3ptr@Base 3.2.1~
 _ZZN8casacore17Allocator_private17get_allocator_rawINS_18casacore_allocatorINS_6StringELm32EEEEEPNS0_17BulkAllocatorImplIT_EEvE7storage@Base 3.2.1~
 _ZZN8casacore17Allocator_private17get_allocator_rawINS_18casacore_allocatorINS_7QuantumIdEELm32EEEEEPNS0_17BulkAllocatorImplIT_EEvE3ptr@Base 3.2.1~
 _ZZN8casacore17Allocator_private17get_allocator_rawINS_18casacore_allocatorINS_7QuantumIdEELm32EEEEEPNS0_17BulkAllocatorImplIT_EEvE7storage@Base 3.2.1~
 _ZZN8casacore17Allocator_private17get_allocator_rawINS_18casacore_allocatorINS_8MDopplerELm32EEEEEPNS0_17BulkAllocatorImplIT_EEvE3ptr@Base 3.2.1~
 _ZZN8casacore17Allocator_private17get_allocator_rawINS_18casacore_allocatorINS_8MDopplerELm32EEEEEPNS0_17BulkAllocatorImplIT_EEvE7storage@Base 3.2.1~
 _ZZN8casacore17Allocator_private17get_allocator_rawINS_18casacore_allocatorINS_9MPositionELm32EEEEEPNS0_17BulkAllocatorImplIT_EEvE3ptr@Base 3.2.1~
 _ZZN8casacore17Allocator_private17get_allocator_rawINS_18casacore_allocatorINS_9MPositionELm32EEEEEPNS0_17BulkAllocatorImplIT_EEvE7storage@Base 3.2.1~
 _ZZN8casacore17Allocator_private17get_allocator_rawINS_18casacore_allocatorIPNS_6SlicerELm32EEEEEPNS0_17BulkAllocatorImplIT_EEvE3ptr@Base 3.2.1~
 _ZZN8casacore17Allocator_private17get_allocator_rawINS_18casacore_allocatorIPNS_6SlicerELm32EEEEEPNS0_17BulkAllocatorImplIT_EEvE7storage@Base 3.2.1~
 _ZZN8casacore17Allocator_private17get_allocator_rawINS_18casacore_allocatorIjLm32EEEEEPNS0_17BulkAllocatorImplIT_EEvE3ptr@Base 3.2.1~
 _ZZN8casacore17Allocator_private17get_allocator_rawINS_18casacore_allocatorIjLm32EEEEEPNS0_17BulkAllocatorImplIT_EEvE7storage@Base 3.2.1~
 _ZZN8casacore7assert_INS_9AipsErrorEEC4EiPKcS4_iE7message@Base 3.2.1~
 register_meas@Base 3.2.1~
