libcasa_measures.so.4 libcasa-measures4 #MINVER#
 _ZGVN8casacore15NewDelAllocatorINS_10MDirectionEE5valueE@Base 3.2.1
 _ZGVN8casacore15NewDelAllocatorINS_10MFrequencyEE5valueE@Base 3.2.1
 _ZGVN8casacore15NewDelAllocatorINS_10MVPositionEE5valueE@Base 3.2.1
 _ZGVN8casacore15NewDelAllocatorINS_16RORecordFieldPtrIdEEE5valueE@Base 3.2.1
 _ZGVN8casacore15NewDelAllocatorINS_4UnitEE5valueE@Base 3.2.1
 _ZGVN8casacore15NewDelAllocatorINS_6VectorIdEEE5valueE@Base 3.2.1
 _ZGVN8casacore15NewDelAllocatorINS_7QuantumIdEEE5valueE@Base 3.2.1
 _ZGVN8casacore15NewDelAllocatorINS_8AutoDiffIdEEE5valueE@Base 3.2.1
 _ZGVN8casacore15NewDelAllocatorINS_9MPositionEE5valueE@Base 3.2.1
 _ZGVN8casacore15NewDelAllocatorIPNS_6SlicerEE5valueE@Base 3.2.1
 _ZGVN8casacore16DefaultAllocatorINS_10MDirectionEE5valueE@Base 3.2.1
 _ZGVN8casacore16DefaultAllocatorINS_10MFrequencyEE5valueE@Base 3.2.1
 _ZGVN8casacore16DefaultAllocatorINS_10MVPositionEE5valueE@Base 3.2.1
 _ZGVN8casacore16DefaultAllocatorINS_16RORecordFieldPtrIdEEE5valueE@Base 3.2.1
 _ZGVN8casacore16DefaultAllocatorINS_4UnitEE5valueE@Base 3.2.1
 _ZGVN8casacore16DefaultAllocatorINS_6VectorIdEEE5valueE@Base 3.2.1
 _ZGVN8casacore16DefaultAllocatorINS_7QuantumIdEEE5valueE@Base 3.2.1
 _ZGVN8casacore16DefaultAllocatorINS_8AutoDiffIdEEE5valueE@Base 3.2.1
 _ZGVN8casacore16DefaultAllocatorINS_9MPositionEE5valueE@Base 3.2.1
 _ZGVN8casacore16DefaultAllocatorIPNS_6SlicerEE5valueE@Base 3.2.1
 _ZGVN8casacore17Allocator_private17BulkAllocatorImplINS_17new_del_allocatorINS_10MDirectionEEEE9allocatorE@Base 3.2.1
 _ZGVN8casacore17Allocator_private17BulkAllocatorImplINS_17new_del_allocatorINS_10MFrequencyEEEE9allocatorE@Base 3.2.1
 _ZGVN8casacore17Allocator_private17BulkAllocatorImplINS_17new_del_allocatorINS_10MVPositionEEEE9allocatorE@Base 3.2.1
 _ZGVN8casacore17Allocator_private17BulkAllocatorImplINS_17new_del_allocatorINS_16RORecordFieldPtrIdEEEEE9allocatorE@Base 3.2.1
 _ZGVN8casacore17Allocator_private17BulkAllocatorImplINS_17new_del_allocatorINS_4UnitEEEE9allocatorE@Base 3.2.1
 _ZGVN8casacore17Allocator_private17BulkAllocatorImplINS_17new_del_allocatorINS_6VectorIdEEEEE9allocatorE@Base 3.2.1
 _ZGVN8casacore17Allocator_private17BulkAllocatorImplINS_17new_del_allocatorINS_7QuantumIdEEEEE9allocatorE@Base 3.2.1
 _ZGVN8casacore17Allocator_private17BulkAllocatorImplINS_17new_del_allocatorINS_8AutoDiffIdEEEEE9allocatorE@Base 3.2.1
 _ZGVN8casacore17Allocator_private17BulkAllocatorImplINS_17new_del_allocatorINS_9MPositionEEEE9allocatorE@Base 3.2.1
 _ZGVN8casacore17Allocator_private17BulkAllocatorImplINS_17new_del_allocatorIPNS_6SlicerEEEE9allocatorE@Base 3.2.1
 _ZGVN8casacore17Allocator_private17BulkAllocatorImplINS_18casacore_allocatorINS_10MDirectionELm32EEEE9allocatorE@Base 3.2.1
 _ZGVN8casacore17Allocator_private17BulkAllocatorImplINS_18casacore_allocatorINS_10MFrequencyELm32EEEE9allocatorE@Base 3.2.1
 _ZGVN8casacore17Allocator_private17BulkAllocatorImplINS_18casacore_allocatorINS_10MVPositionELm32EEEE9allocatorE@Base 3.2.1
 _ZGVN8casacore17Allocator_private17BulkAllocatorImplINS_18casacore_allocatorINS_16RORecordFieldPtrIdEELm32EEEE9allocatorE@Base 3.2.1
 _ZGVN8casacore17Allocator_private17BulkAllocatorImplINS_18casacore_allocatorINS_4UnitELm32EEEE9allocatorE@Base 3.2.1
 _ZGVN8casacore17Allocator_private17BulkAllocatorImplINS_18casacore_allocatorINS_6StringELm32EEEE9allocatorE@Base 3.2.1
 _ZGVN8casacore17Allocator_private17BulkAllocatorImplINS_18casacore_allocatorINS_6VectorIdEELm32EEEE9allocatorE@Base 3.2.1
 _ZGVN8casacore17Allocator_private17BulkAllocatorImplINS_18casacore_allocatorINS_7QuantumIdEELm32EEEE9allocatorE@Base 3.2.1
 _ZGVN8casacore17Allocator_private17BulkAllocatorImplINS_18casacore_allocatorINS_8AutoDiffIdEELm32EEEE9allocatorE@Base 3.2.1
 _ZGVN8casacore17Allocator_private17BulkAllocatorImplINS_18casacore_allocatorINS_9MPositionELm32EEEE9allocatorE@Base 3.2.1
 _ZGVN8casacore17Allocator_private17BulkAllocatorImplINS_18casacore_allocatorIPNS_6SlicerELm32EEEE9allocatorE@Base 3.2.1
 _ZGVN8casacore17Allocator_private17BulkAllocatorImplINS_18casacore_allocatorIPNS_9MeasValueELm32EEEE9allocatorE@Base 3.2.1
 _ZGVN8casacore17Allocator_private17BulkAllocatorImplINS_18casacore_allocatorIiLm32EEEE9allocatorE@Base 3.2.1
 _ZGVN8casacore17Allocator_private17BulkAllocatorImplINS_18casacore_allocatorIjLm32EEEE9allocatorE@Base 3.2.1
 _ZGVZN8casacore14AppStateSource5fetchEvE14default_result@Base 3.2.1
 _ZGVZN8casacore17Allocator_private17get_allocator_rawINS_17new_del_allocatorINS_10MDirectionEEEEEPNS0_17BulkAllocatorImplIT_EEvE3ptr@Base 3.2.1
 _ZGVZN8casacore17Allocator_private17get_allocator_rawINS_17new_del_allocatorINS_10MFrequencyEEEEEPNS0_17BulkAllocatorImplIT_EEvE3ptr@Base 3.2.1
 _ZGVZN8casacore17Allocator_private17get_allocator_rawINS_17new_del_allocatorINS_10MVPositionEEEEEPNS0_17BulkAllocatorImplIT_EEvE3ptr@Base 3.2.1
 _ZGVZN8casacore17Allocator_private17get_allocator_rawINS_17new_del_allocatorINS_16RORecordFieldPtrIdEEEEEEPNS0_17BulkAllocatorImplIT_EEvE3ptr@Base 3.2.1
 _ZGVZN8casacore17Allocator_private17get_allocator_rawINS_17new_del_allocatorINS_4UnitEEEEEPNS0_17BulkAllocatorImplIT_EEvE3ptr@Base 3.2.1
 _ZGVZN8casacore17Allocator_private17get_allocator_rawINS_17new_del_allocatorINS_6VectorIdEEEEEEPNS0_17BulkAllocatorImplIT_EEvE3ptr@Base 3.2.1
 _ZGVZN8casacore17Allocator_private17get_allocator_rawINS_17new_del_allocatorINS_7QuantumIdEEEEEEPNS0_17BulkAllocatorImplIT_EEvE3ptr@Base 3.2.1
 _ZGVZN8casacore17Allocator_private17get_allocator_rawINS_17new_del_allocatorINS_8AutoDiffIdEEEEEEPNS0_17BulkAllocatorImplIT_EEvE3ptr@Base 3.2.1
 _ZGVZN8casacore17Allocator_private17get_allocator_rawINS_17new_del_allocatorINS_9MPositionEEEEEPNS0_17BulkAllocatorImplIT_EEvE3ptr@Base 3.2.1
 _ZGVZN8casacore17Allocator_private17get_allocator_rawINS_17new_del_allocatorIPNS_6SlicerEEEEEPNS0_17BulkAllocatorImplIT_EEvE3ptr@Base 3.2.1
 _ZGVZN8casacore17Allocator_private17get_allocator_rawINS_18casacore_allocatorINS_10MDirectionELm32EEEEEPNS0_17BulkAllocatorImplIT_EEvE3ptr@Base 3.2.1
 _ZGVZN8casacore17Allocator_private17get_allocator_rawINS_18casacore_allocatorINS_10MFrequencyELm32EEEEEPNS0_17BulkAllocatorImplIT_EEvE3ptr@Base 3.2.1
 _ZGVZN8casacore17Allocator_private17get_allocator_rawINS_18casacore_allocatorINS_10MVPositionELm32EEEEEPNS0_17BulkAllocatorImplIT_EEvE3ptr@Base 3.2.1
 _ZGVZN8casacore17Allocator_private17get_allocator_rawINS_18casacore_allocatorINS_16RORecordFieldPtrIdEELm32EEEEEPNS0_17BulkAllocatorImplIT_EEvE3ptr@Base 3.2.1
 _ZGVZN8casacore17Allocator_private17get_allocator_rawINS_18casacore_allocatorINS_4UnitELm32EEEEEPNS0_17BulkAllocatorImplIT_EEvE3ptr@Base 3.2.1
 _ZGVZN8casacore17Allocator_private17get_allocator_rawINS_18casacore_allocatorINS_6VectorIdEELm32EEEEEPNS0_17BulkAllocatorImplIT_EEvE3ptr@Base 3.2.1
 _ZGVZN8casacore17Allocator_private17get_allocator_rawINS_18casacore_allocatorINS_7QuantumIdEELm32EEEEEPNS0_17BulkAllocatorImplIT_EEvE3ptr@Base 3.2.1
 _ZGVZN8casacore17Allocator_private17get_allocator_rawINS_18casacore_allocatorINS_8AutoDiffIdEELm32EEEEEPNS0_17BulkAllocatorImplIT_EEvE3ptr@Base 3.2.1
 _ZGVZN8casacore17Allocator_private17get_allocator_rawINS_18casacore_allocatorINS_9MPositionELm32EEEEEPNS0_17BulkAllocatorImplIT_EEvE3ptr@Base 3.2.1
 _ZGVZN8casacore17Allocator_private17get_allocator_rawINS_18casacore_allocatorIPNS_6SlicerELm32EEEEEPNS0_17BulkAllocatorImplIT_EEvE3ptr@Base 3.2.1
 _ZGVZN8casacore17Allocator_private17get_allocator_rawINS_18casacore_allocatorIPNS_9MeasValueELm32EEEEEPNS0_17BulkAllocatorImplIT_EEvE3ptr@Base 3.2.1
 _ZGVZN8casacore17Allocator_private17get_allocator_rawINS_18casacore_allocatorIiLm32EEEEEPNS0_17BulkAllocatorImplIT_EEvE3ptr@Base 3.2.1
 _ZGVZN8casacore17Allocator_private17get_allocator_rawINS_18casacore_allocatorIjLm32EEEEEPNS0_17BulkAllocatorImplIT_EEvE3ptr@Base 3.2.1
 _ZGVZN8casacore2QC2HIEvE6result@Base 3.2.1
 _ZGVZN8casacore8RegisterINS_10MDirectionEEEjPKT_E8callOnce@Base 3.2.1
 _ZGVZN8casacore8RegisterINS_10MFrequencyEEEjPKT_E8callOnce@Base 3.2.1
 _ZGVZN8casacore8RegisterINS_14MEarthMagneticEEEjPKT_E8callOnce@Base 3.2.1
 _ZGVZN8casacore8RegisterINS_15MRadialVelocityEEEjPKT_E8callOnce@Base 3.2.1
 _ZGVZN8casacore8RegisterINS_4MuvwEEEjPKT_E8callOnce@Base 3.2.1
 _ZGVZN8casacore8RegisterINS_6MEpochEEEjPKT_E8callOnce@Base 3.2.1
 _ZGVZN8casacore8RegisterINS_8MDopplerEEEjPKT_E8callOnce@Base 3.2.1
 _ZGVZN8casacore8RegisterINS_9MBaselineEEEjPKT_E8callOnce@Base 3.2.1
 _ZGVZN8casacore8RegisterINS_9MPositionEEEjPKT_E8callOnce@Base 3.2.1
 _ZGVZNK8casacore15PolynomialParamINS_8AutoDiffIdEEE4nameEvE1x@Base 3.2.1
 _ZGVZNK8casacore15PolynomialParamIdE4nameEvE1x@Base 3.2.1
 _ZGVZNK8casacore8AppState8dataPathB5cxx11EvE6result@Base 3.2.1
 _ZGVZNK8casacore8FunctionINS_8AutoDiffIdEES2_E4nameEvE1x@Base 3.2.1
 _ZGVZNK8casacore8FunctionIddE4nameEvE1x@Base 3.2.1
 _ZN8casacore10Aberration10derivativeEd@Base 3.2.1
 _ZN8casacore10Aberration10usejpl_regE@Base 3.2.1
 _ZN8casacore10Aberration12interval_regE@Base 3.2.1
 _ZN8casacore10Aberration4INTVE@Base 3.2.1
 _ZN8casacore10Aberration4copyERKS0_@Base 3.2.1
 _ZN8casacore10Aberration4fillEv@Base 3.2.1
 _ZN8casacore10Aberration4initENS0_15AberrationTypesE@Base 3.2.1
 _ZN8casacore10Aberration4initEv@Base 3.2.1
 _ZN8casacore10Aberration7refreshEv@Base 3.2.1
 _ZN8casacore10Aberration8calcAberEd@Base 3.2.1
 _ZN8casacore10AberrationC1ENS0_15AberrationTypesE@Base 3.2.1
 _ZN8casacore10AberrationC1ERKS0_@Base 3.2.1
 _ZN8casacore10AberrationC1Ev@Base 3.2.1
 _ZN8casacore10AberrationC2ENS0_15AberrationTypesE@Base 3.2.1
 _ZN8casacore10AberrationC2ERKS0_@Base 3.2.1
 _ZN8casacore10AberrationC2Ev@Base 3.2.1
 _ZN8casacore10AberrationD1Ev@Base 3.2.1
 _ZN8casacore10AberrationD2Ev@Base 3.2.1
 _ZN8casacore10AberrationaSERKS0_@Base 3.2.1
 _ZN8casacore10AberrationclEd@Base 3.2.1
 _ZN8casacore10CountedPtrINS_5BlockINS_10MDirectionEEEEaSEPS3_@Base 3.2.1
 _ZN8casacore10CountedPtrINS_5BlockINS_10MFrequencyEEEEaSEPS3_@Base 3.2.1
 _ZN8casacore10CountedPtrINS_5BlockINS_10MVPositionEEEEaSEPS3_@Base 3.2.1
 _ZN8casacore10CountedPtrINS_5BlockINS_16RORecordFieldPtrIdEEEEEaSEPS4_@Base 3.2.1
 _ZN8casacore10CountedPtrINS_5BlockINS_6VectorIdEEEEEaSEPS4_@Base 3.2.1
 _ZN8casacore10CountedPtrINS_5BlockINS_8AutoDiffIdEEEEEaSEPS4_@Base 3.2.1
 _ZN8casacore10CountedPtrINS_5BlockINS_9MPositionEEEEaSEPS3_@Base 3.2.1
 _ZN8casacore10EarthField10derivativeERKNS_10MVPositionE@Base 3.2.1
 _ZN8casacore10EarthField14interval_reg_pE@Base 3.2.1
 _ZN8casacore10EarthField4INTVE@Base 3.2.1
 _ZN8casacore10EarthField4copyERKS0_@Base 3.2.1
 _ZN8casacore10EarthField4initENS0_15EarthFieldTypesEd@Base 3.2.1
 _ZN8casacore10EarthField4initEv@Base 3.2.1
 _ZN8casacore10EarthField7refreshEv@Base 3.2.1
 _ZN8casacore10EarthField9calcFieldERKNS_10MVPositionE@Base 3.2.1
 _ZN8casacore10EarthField9fillFieldEv@Base 3.2.1
 _ZN8casacore10EarthFieldC1ENS0_15EarthFieldTypesEd@Base 3.2.1
 _ZN8casacore10EarthFieldC1ERKS0_@Base 3.2.1
 _ZN8casacore10EarthFieldC1Ev@Base 3.2.1
 _ZN8casacore10EarthFieldC2ENS0_15EarthFieldTypesEd@Base 3.2.1
 _ZN8casacore10EarthFieldC2ERKS0_@Base 3.2.1
 _ZN8casacore10EarthFieldC2Ev@Base 3.2.1
 _ZN8casacore10EarthFieldD1Ev@Base 3.2.1
 _ZN8casacore10EarthFieldD2Ev@Base 3.2.1
 _ZN8casacore10EarthFieldaSERKS0_@Base 3.2.1
 _ZN8casacore10EarthFieldclERKNS_10MVPositionE@Base 3.2.1
 _ZN8casacore10MCBaseline10getConvertERNS_12MConvertBaseERKNS_6MRBaseES5_@Base 3.2.1
 _ZN8casacore10MCBaseline11doFillStateEv@Base 3.2.1
 _ZN8casacore10MCBaseline11initConvertEjRNS_12MConvertBaseE@Base 3.2.1
 _ZN8casacore10MCBaseline12clearConvertEv@Base 3.2.1
 _ZN8casacore10MCBaseline13theirInitOnceE@Base 3.2.1
 _ZN8casacore10MCBaseline7ToRef_pE@Base 3.2.1
 _ZN8casacore10MCBaseline8FromTo_pE@Base 3.2.1
 _ZN8casacore10MCBaseline9doConvertERNS_10MVBaselineERNS_6MRBaseES4_RKNS_12MConvertBaseE@Base 3.2.1
 _ZN8casacore10MCBaseline9doConvertERNS_9MeasValueERNS_6MRBaseES4_RKNS_12MConvertBaseE@Base 3.2.1
 _ZN8casacore10MCBaseline9showStateEv@Base 3.2.1
 _ZN8casacore10MCBaselineC1Ev@Base 3.2.1
 _ZN8casacore10MCBaselineC2Ev@Base 3.2.1
 _ZN8casacore10MCBaselineD0Ev@Base 3.2.1
 _ZN8casacore10MCBaselineD1Ev@Base 3.2.1
 _ZN8casacore10MCBaselineD2Ev@Base 3.2.1
 _ZN8casacore10MCPosition10getConvertERNS_12MConvertBaseERKNS_6MRBaseES5_@Base 3.2.1
 _ZN8casacore10MCPosition11doFillStateEv@Base 3.2.1
 _ZN8casacore10MCPosition11initConvertEjRNS_12MConvertBaseE@Base 3.2.1
 _ZN8casacore10MCPosition12clearConvertEv@Base 3.2.1
 _ZN8casacore10MCPosition13theirInitOnceE@Base 3.2.1
 _ZN8casacore10MCPosition7ToRef_pE@Base 3.2.1
 _ZN8casacore10MCPosition8FromTo_pE@Base 3.2.1
 _ZN8casacore10MCPosition9doConvertERNS_10MVPositionERNS_6MRBaseES4_RKNS_12MConvertBaseE@Base 3.2.1
 _ZN8casacore10MCPosition9doConvertERNS_9MeasValueERNS_6MRBaseES4_RKNS_12MConvertBaseE@Base 3.2.1
 _ZN8casacore10MCPosition9showStateEv@Base 3.2.1
 _ZN8casacore10MCPositionC1Ev@Base 3.2.1
 _ZN8casacore10MCPositionC2Ev@Base 3.2.1
 _ZN8casacore10MCPositionD0Ev@Base 3.2.1
 _ZN8casacore10MCPositionD1Ev@Base 3.2.1
 _ZN8casacore10MCPositionD2Ev@Base 3.2.1
 _ZN8casacore10MDirection10allMyTypesERiS1_RPKj@Base 3.2.1
 _ZN8casacore10MDirection10globalTypeEj@Base 3.2.1
 _ZN8casacore10MDirection10shiftAngleERKNS_7QuantumIdEES4_@Base 3.2.1
 _ZN8casacore10MDirection10shiftAngleEdd@Base 3.2.1
 _ZN8casacore10MDirection12checkMyTypesEv@Base 3.2.1
 _ZN8casacore10MDirection12setRefStringERKNS_6StringE@Base 3.2.1
 _ZN8casacore10MDirection13shiftLatitudeERKNS_7QuantumIdEEb@Base 3.2.1
 _ZN8casacore10MDirection13shiftLatitudeEdb@Base 3.2.1
 _ZN8casacore10MDirection14makeMDirectionERKNS_6StringE@Base 3.2.1
 _ZN8casacore10MDirection14shiftLongitudeERKNS_7QuantumIdEEb@Base 3.2.1
 _ZN8casacore10MDirection14shiftLongitudeEdb@Base 3.2.1
 _ZN8casacore10MDirection5shiftERKNS_11MVDirectionEb@Base 3.2.1
 _ZN8casacore10MDirection5shiftERKNS_7QuantumIdEES4_b@Base 3.2.1
 _ZN8casacore10MDirection5shiftEddb@Base 3.2.1
 _ZN8casacore10MDirection6assureERKNS_7MeasureE@Base 3.2.1
 _ZN8casacore10MDirection6giveMeERNS_7MeasRefIS0_EERKNS_6StringE@Base 3.2.1
 _ZN8casacore10MDirection6myTypeEv@Base 3.2.1
 _ZN8casacore10MDirection6showMeEv@Base 3.2.1
 _ZN8casacore10MDirection7getTypeERNS0_5TypesERKNS_6StringE@Base 3.2.1
 _ZN8casacore10MDirection8castTypeEj@Base 3.2.1
 _ZN8casacore10MDirection8showTypeENS0_5TypesE@Base 3.2.1
 _ZN8casacore10MDirection8showTypeEj@Base 3.2.1
 _ZN8casacore10MDirection9setOffsetERKNS_7MeasureE@Base 3.2.1
 _ZN8casacore10MDirectionC1ENS0_5TypesE@Base 3.2.1
 _ZN8casacore10MDirectionC1EPKNS_7MeasureE@Base 3.2.1
 _ZN8casacore10MDirectionC1EPKNS_9MeasValueE@Base 3.2.1
 _ZN8casacore10MDirectionC1ERKNS_11MVDirectionE@Base 3.2.1
 _ZN8casacore10MDirectionC1ERKNS_11MVDirectionENS0_5TypesE@Base 3.2.1
 _ZN8casacore10MDirectionC1ERKNS_11MVDirectionERKNS_7MeasRefIS0_EE@Base 3.2.1
 _ZN8casacore10MDirectionC1ERKNS_7MeasRefIS0_EE@Base 3.2.1
 _ZN8casacore10MDirectionC1ERKNS_7QuantumINS_6VectorIdEEEE@Base 3.2.1
 _ZN8casacore10MDirectionC1ERKNS_7QuantumINS_6VectorIdEEEENS0_5TypesE@Base 3.2.1
 _ZN8casacore10MDirectionC1ERKNS_7QuantumINS_6VectorIdEEEERKNS_7MeasRefIS0_EE@Base 3.2.1
 _ZN8casacore10MDirectionC1ERKNS_7QuantumIdEES4_@Base 3.2.1
 _ZN8casacore10MDirectionC1ERKNS_7QuantumIdEES4_NS0_5TypesE@Base 3.2.1
 _ZN8casacore10MDirectionC1ERKNS_7QuantumIdEES4_RKNS_7MeasRefIS0_EE@Base 3.2.1
 _ZN8casacore10MDirectionC1Ev@Base 3.2.1
 _ZN8casacore10MDirectionC2ENS0_5TypesE@Base 3.2.1
 _ZN8casacore10MDirectionC2EPKNS_7MeasureE@Base 3.2.1
 _ZN8casacore10MDirectionC2EPKNS_9MeasValueE@Base 3.2.1
 _ZN8casacore10MDirectionC2ERKNS_11MVDirectionE@Base 3.2.1
 _ZN8casacore10MDirectionC2ERKNS_11MVDirectionENS0_5TypesE@Base 3.2.1
 _ZN8casacore10MDirectionC2ERKNS_11MVDirectionERKNS_7MeasRefIS0_EE@Base 3.2.1
 _ZN8casacore10MDirectionC2ERKNS_7MeasRefIS0_EE@Base 3.2.1
 _ZN8casacore10MDirectionC2ERKNS_7QuantumINS_6VectorIdEEEE@Base 3.2.1
 _ZN8casacore10MDirectionC2ERKNS_7QuantumINS_6VectorIdEEEENS0_5TypesE@Base 3.2.1
 _ZN8casacore10MDirectionC2ERKNS_7QuantumINS_6VectorIdEEEERKNS_7MeasRefIS0_EE@Base 3.2.1
 _ZN8casacore10MDirectionC2ERKNS_7QuantumIdEES4_@Base 3.2.1
 _ZN8casacore10MDirectionC2ERKNS_7QuantumIdEES4_NS0_5TypesE@Base 3.2.1
 _ZN8casacore10MDirectionC2ERKNS_7QuantumIdEES4_RKNS_7MeasRefIS0_EE@Base 3.2.1
 _ZN8casacore10MDirectionC2Ev@Base 3.2.1
 _ZN8casacore10MDirectionD0Ev@Base 3.2.1
 _ZN8casacore10MDirectionD1Ev@Base 3.2.1
 _ZN8casacore10MDirectionD2Ev@Base 3.2.1
 _ZN8casacore10MFrequency10allMyTypesERiS1_RPKj@Base 3.2.1
 _ZN8casacore10MFrequency11fromDopplerERKNS_7MeasureERKNS_11MVFrequencyENS0_5TypesE@Base 3.2.1
 _ZN8casacore10MFrequency11fromDopplerERKNS_8MDopplerERKNS_11MVFrequencyE@Base 3.2.1
 _ZN8casacore10MFrequency11fromDopplerERKNS_8MDopplerERKNS_11MVFrequencyENS0_5TypesE@Base 3.2.1
 _ZN8casacore10MFrequency12checkMyTypesEv@Base 3.2.1
 _ZN8casacore10MFrequency12setRefStringERKNS_6StringE@Base 3.2.1
 _ZN8casacore10MFrequency14typeFromStringERKNS_6StringE@Base 3.2.1
 _ZN8casacore10MFrequency6assureERKNS_7MeasureE@Base 3.2.1
 _ZN8casacore10MFrequency6giveMeERNS_7MeasRefIS0_EERKNS_6StringE@Base 3.2.1
 _ZN8casacore10MFrequency6myTypeEv@Base 3.2.1
 _ZN8casacore10MFrequency6showMeEv@Base 3.2.1
 _ZN8casacore10MFrequency6toRestERKNS_7MeasureES3_@Base 3.2.1
 _ZN8casacore10MFrequency7getTypeERNS0_5TypesERKNS_6StringE@Base 3.2.1
 _ZN8casacore10MFrequency8castTypeEj@Base 3.2.1
 _ZN8casacore10MFrequency8showTypeENS0_5TypesE@Base 3.2.1
 _ZN8casacore10MFrequency8showTypeEj@Base 3.2.1
 _ZN8casacore10MFrequency9setOffsetERKNS_7MeasureE@Base 3.2.1
 _ZN8casacore10MFrequency9toDopplerERKNS_11MVFrequencyE@Base 3.2.1
 _ZN8casacore10MFrequency9toDopplerERKNS_7MeasureERKNS_11MVFrequencyE@Base 3.2.1
 _ZN8casacore10MFrequencyC1EPKNS_7MeasureE@Base 3.2.1
 _ZN8casacore10MFrequencyC1EPKNS_9MeasValueE@Base 3.2.1
 _ZN8casacore10MFrequencyC1ERKNS_11MVFrequencyE@Base 3.2.1
 _ZN8casacore10MFrequencyC1ERKNS_11MVFrequencyENS0_5TypesE@Base 3.2.1
 _ZN8casacore10MFrequencyC1ERKNS_11MVFrequencyERKNS_7MeasRefIS0_EE@Base 3.2.1
 _ZN8casacore10MFrequencyC1ERKNS_7QuantumIdEE@Base 3.2.1
 _ZN8casacore10MFrequencyC1ERKNS_7QuantumIdEENS0_5TypesE@Base 3.2.1
 _ZN8casacore10MFrequencyC1ERKNS_7QuantumIdEERKNS_7MeasRefIS0_EE@Base 3.2.1
 _ZN8casacore10MFrequencyC1Ev@Base 3.2.1
 _ZN8casacore10MFrequencyC2EPKNS_7MeasureE@Base 3.2.1
 _ZN8casacore10MFrequencyC2EPKNS_9MeasValueE@Base 3.2.1
 _ZN8casacore10MFrequencyC2ERKNS_11MVFrequencyE@Base 3.2.1
 _ZN8casacore10MFrequencyC2ERKNS_11MVFrequencyENS0_5TypesE@Base 3.2.1
 _ZN8casacore10MFrequencyC2ERKNS_11MVFrequencyERKNS_7MeasRefIS0_EE@Base 3.2.1
 _ZN8casacore10MFrequencyC2ERKNS_7QuantumIdEE@Base 3.2.1
 _ZN8casacore10MFrequencyC2ERKNS_7QuantumIdEENS0_5TypesE@Base 3.2.1
 _ZN8casacore10MFrequencyC2ERKNS_7QuantumIdEERKNS_7MeasRefIS0_EE@Base 3.2.1
 _ZN8casacore10MFrequencyC2Ev@Base 3.2.1
 _ZN8casacore10MFrequencyD0Ev@Base 3.2.1
 _ZN8casacore10MFrequencyD1Ev@Base 3.2.1
 _ZN8casacore10MFrequencyD2Ev@Base 3.2.1
 _ZN8casacore10PolynomialINS_8AutoDiffIdEEED0Ev@Base 3.2.1
 _ZN8casacore10PolynomialINS_8AutoDiffIdEEED1Ev@Base 3.2.1
 _ZN8casacore10PolynomialINS_8AutoDiffIdEEED2Ev@Base 3.2.1
 _ZN8casacore10PolynomialIdED0Ev@Base 3.2.1
 _ZN8casacore10PolynomialIdED1Ev@Base 3.2.1
 _ZN8casacore10PolynomialIdED2Ev@Base 3.2.1
 _ZN8casacore10Precession10derivativeEd@Base 3.2.1
 _ZN8casacore10Precession14myInterval_regE@Base 3.2.1
 _ZN8casacore10Precession4INTVE@Base 3.2.1
 _ZN8casacore10Precession4copyERKS0_@Base 3.2.1
 _ZN8casacore10Precession4initENS0_15PrecessionTypesEd@Base 3.2.1
 _ZN8casacore10Precession4initEv@Base 3.2.1
 _ZN8casacore10Precession7refreshEv@Base 3.2.1
 _ZN8casacore10Precession8calcPrecEd@Base 3.2.1
 _ZN8casacore10Precession9fillEpochEv@Base 3.2.1
 _ZN8casacore10PrecessionC1ENS0_15PrecessionTypesEd@Base 3.2.1
 _ZN8casacore10PrecessionC1ERKS0_@Base 3.2.1
 _ZN8casacore10PrecessionC1Ev@Base 3.2.1
 _ZN8casacore10PrecessionC2ENS0_15PrecessionTypesEd@Base 3.2.1
 _ZN8casacore10PrecessionC2ERKS0_@Base 3.2.1
 _ZN8casacore10PrecessionC2Ev@Base 3.2.1
 _ZN8casacore10PrecessionD1Ev@Base 3.2.1
 _ZN8casacore10PrecessionD2Ev@Base 3.2.1
 _ZN8casacore10PrecessionaSERKS0_@Base 3.2.1
 _ZN8casacore10PrecessionclEd@Base 3.2.1
 _ZN8casacore10UVWMachine10planetinitEv@Base 3.2.1
 _ZN8casacore10UVWMachine11reCalculateEv@Base 3.2.1
 _ZN8casacore10UVWMachine4copyERKS0_@Base 3.2.1
 _ZN8casacore10UVWMachine4initEv@Base 3.2.1
 _ZN8casacore10UVWMachineC1ERKNS_10MDirectionES3_RKNS_9MeasFrameEbb@Base 3.2.1
 _ZN8casacore10UVWMachineC1ERKNS_10MDirectionES3_bb@Base 3.2.1
 _ZN8casacore10UVWMachineC1ERKNS_7MeasRefINS_10MDirectionEEERKS2_RKNS_9MeasFrameEbb@Base 3.2.1
 _ZN8casacore10UVWMachineC1ERKNS_7MeasRefINS_10MDirectionEEERKS2_bb@Base 3.2.1
 _ZN8casacore10UVWMachineC1ERKS0_@Base 3.2.1
 _ZN8casacore10UVWMachineC2ERKNS_10MDirectionES3_RKNS_9MeasFrameEbb@Base 3.2.1
 _ZN8casacore10UVWMachineC2ERKNS_10MDirectionES3_bb@Base 3.2.1
 _ZN8casacore10UVWMachineC2ERKNS_7MeasRefINS_10MDirectionEEERKS2_RKNS_9MeasFrameEbb@Base 3.2.1
 _ZN8casacore10UVWMachineC2ERKNS_7MeasRefINS_10MDirectionEEERKS2_bb@Base 3.2.1
 _ZN8casacore10UVWMachineC2ERKS0_@Base 3.2.1
 _ZN8casacore10UVWMachineD1Ev@Base 3.2.1
 _ZN8casacore10UVWMachineD2Ev@Base 3.2.1
 _ZN8casacore10UVWMachineaSERKS0_@Base 3.2.1
 _ZN8casacore11MCDirection10getConvertERNS_12MConvertBaseERKNS_6MRBaseES5_@Base 3.2.1
 _ZN8casacore11MCDirection11doFillStateEv@Base 3.2.1
 _ZN8casacore11MCDirection11initConvertEjRNS_12MConvertBaseE@Base 3.2.1
 _ZN8casacore11MCDirection12clearConvertEv@Base 3.2.1
 _ZN8casacore11MCDirection13theirInitOnceE@Base 3.2.1
 _ZN8casacore11MCDirection7ToRef_pE@Base 3.2.1
 _ZN8casacore11MCDirection8FromTo_pE@Base 3.2.1
 _ZN8casacore11MCDirection9doConvertERNS_11MVDirectionERNS_6MRBaseES4_RKNS_12MConvertBaseE@Base 3.2.1
 _ZN8casacore11MCDirection9doConvertERNS_9MeasValueERNS_6MRBaseES4_RKNS_12MConvertBaseE@Base 3.2.1
 _ZN8casacore11MCDirection9showStateEv@Base 3.2.1
 _ZN8casacore11MCDirectionC1Ev@Base 3.2.1
 _ZN8casacore11MCDirectionC2Ev@Base 3.2.1
 _ZN8casacore11MCDirectionD0Ev@Base 3.2.1
 _ZN8casacore11MCDirectionD1Ev@Base 3.2.1
 _ZN8casacore11MCDirectionD2Ev@Base 3.2.1
 _ZN8casacore11MCFrequency10getConvertERNS_12MConvertBaseERKNS_6MRBaseES5_@Base 3.2.1
 _ZN8casacore11MCFrequency11doFillStateEv@Base 3.2.1
 _ZN8casacore11MCFrequency11initConvertEjRNS_12MConvertBaseE@Base 3.2.1
 _ZN8casacore11MCFrequency12clearConvertEv@Base 3.2.1
 _ZN8casacore11MCFrequency13theirInitOnceE@Base 3.2.1
 _ZN8casacore11MCFrequency7ToRef_pE@Base 3.2.1
 _ZN8casacore11MCFrequency8FromTo_pE@Base 3.2.1
 _ZN8casacore11MCFrequency9doConvertERNS_11MVFrequencyERNS_6MRBaseES4_RKNS_12MConvertBaseE@Base 3.2.1
 _ZN8casacore11MCFrequency9doConvertERNS_9MeasValueERNS_6MRBaseES4_RKNS_12MConvertBaseE@Base 3.2.1
 _ZN8casacore11MCFrequency9showStateEv@Base 3.2.1
 _ZN8casacore11MCFrequencyC1Ev@Base 3.2.1
 _ZN8casacore11MCFrequencyC2Ev@Base 3.2.1
 _ZN8casacore11MCFrequencyD0Ev@Base 3.2.1
 _ZN8casacore11MCFrequencyD1Ev@Base 3.2.1
 _ZN8casacore11MCFrequencyD2Ev@Base 3.2.1
 _ZN8casacore11MaskedArrayINS_7QuantumIdEEEC1ERKNS_5ArrayIS2_EERKNS0_IbEE@Base 3.2.1
 _ZN8casacore11MaskedArrayINS_7QuantumIdEEEC1ERKNS_5ArrayIS2_EERKNS0_IbEEb@Base 3.2.1
 _ZN8casacore11MaskedArrayINS_7QuantumIdEEEC1ERKNS_5ArrayIS2_EERKNS4_IbEE@Base 3.2.1
 _ZN8casacore11MaskedArrayINS_7QuantumIdEEEC2ERKNS_5ArrayIS2_EERKNS0_IbEE@Base 3.2.1
 _ZN8casacore11MaskedArrayINS_7QuantumIdEEEC2ERKNS_5ArrayIS2_EERKNS0_IbEEb@Base 3.2.1
 _ZN8casacore11MaskedArrayINS_7QuantumIdEEEC2ERKNS_5ArrayIS2_EERKNS4_IbEE@Base 3.2.1
 _ZN8casacore11MeasConvertINS_10MDirectionEE12addFrameTypeEj@Base 3.2.1
 _ZN8casacore11MeasConvertINS_10MDirectionEE3setERKNS_4UnitE@Base 3.2.1
 _ZN8casacore11MeasConvertINS_10MDirectionEE3setERKNS_9MeasValueE@Base 3.2.1
 _ZN8casacore11MeasConvertINS_10MDirectionEE4copyERKS2_@Base 3.2.1
 _ZN8casacore11MeasConvertINS_10MDirectionEE4initEv@Base 3.2.1
 _ZN8casacore11MeasConvertINS_10MDirectionEE5clearEv@Base 3.2.1
 _ZN8casacore11MeasConvertINS_10MDirectionEE6createEv@Base 3.2.1
 _ZN8casacore11MeasConvertINS_10MDirectionEE7convertERKNS_11MVDirectionE@Base 3.2.1
 _ZN8casacore11MeasConvertINS_10MDirectionEE7convertEv@Base 3.2.1
 _ZN8casacore11MeasConvertINS_10MDirectionEE8setModelERKNS_7MeasureE@Base 3.2.1
 _ZN8casacore11MeasConvertINS_10MDirectionEE9addMethodEj@Base 3.2.1
 _ZN8casacore11MeasConvertINS_10MDirectionEEC1ERKNS_7MeasureERKNS_7MeasRefIS1_EE@Base 3.2.1
 _ZN8casacore11MeasConvertINS_10MDirectionEEC1ERKS1_NS1_5TypesE@Base 3.2.1
 _ZN8casacore11MeasConvertINS_10MDirectionEEC1ERKS1_RKNS_7MeasRefIS1_EE@Base 3.2.1
 _ZN8casacore11MeasConvertINS_10MDirectionEEC1Ev@Base 3.2.1
 _ZN8casacore11MeasConvertINS_10MDirectionEEC2ERKNS_7MeasureERKNS_7MeasRefIS1_EE@Base 3.2.1
 _ZN8casacore11MeasConvertINS_10MDirectionEEC2ERKS1_NS1_5TypesE@Base 3.2.1
 _ZN8casacore11MeasConvertINS_10MDirectionEEC2ERKS1_RKNS_7MeasRefIS1_EE@Base 3.2.1
 _ZN8casacore11MeasConvertINS_10MDirectionEEC2Ev@Base 3.2.1
 _ZN8casacore11MeasConvertINS_10MDirectionEED0Ev@Base 3.2.1
 _ZN8casacore11MeasConvertINS_10MDirectionEED1Ev@Base 3.2.1
 _ZN8casacore11MeasConvertINS_10MDirectionEED2Ev@Base 3.2.1
 _ZN8casacore11MeasConvertINS_10MDirectionEEclERKNS_11MVDirectionE@Base 3.2.1
 _ZN8casacore11MeasConvertINS_10MDirectionEEclEv@Base 3.2.1
 _ZN8casacore11MeasConvertINS_10MFrequencyEE12addFrameTypeEj@Base 3.2.1
 _ZN8casacore11MeasConvertINS_10MFrequencyEE3setERKNS_4UnitE@Base 3.2.1
 _ZN8casacore11MeasConvertINS_10MFrequencyEE3setERKNS_9MeasValueE@Base 3.2.1
 _ZN8casacore11MeasConvertINS_10MFrequencyEE4copyERKS2_@Base 3.2.1
 _ZN8casacore11MeasConvertINS_10MFrequencyEE4initEv@Base 3.2.1
 _ZN8casacore11MeasConvertINS_10MFrequencyEE5clearEv@Base 3.2.1
 _ZN8casacore11MeasConvertINS_10MFrequencyEE6createEv@Base 3.2.1
 _ZN8casacore11MeasConvertINS_10MFrequencyEE7convertERKNS_11MVFrequencyE@Base 3.2.1
 _ZN8casacore11MeasConvertINS_10MFrequencyEE7convertEv@Base 3.2.1
 _ZN8casacore11MeasConvertINS_10MFrequencyEE8setModelERKNS_7MeasureE@Base 3.2.1
 _ZN8casacore11MeasConvertINS_10MFrequencyEE9addMethodEj@Base 3.2.1
 _ZN8casacore11MeasConvertINS_10MFrequencyEEC1ERKS1_RKNS_7MeasRefIS1_EE@Base 3.2.1
 _ZN8casacore11MeasConvertINS_10MFrequencyEEC1Ev@Base 3.2.1
 _ZN8casacore11MeasConvertINS_10MFrequencyEEC2ERKS1_RKNS_7MeasRefIS1_EE@Base 3.2.1
 _ZN8casacore11MeasConvertINS_10MFrequencyEEC2Ev@Base 3.2.1
 _ZN8casacore11MeasConvertINS_10MFrequencyEED0Ev@Base 3.2.1
 _ZN8casacore11MeasConvertINS_10MFrequencyEED1Ev@Base 3.2.1
 _ZN8casacore11MeasConvertINS_10MFrequencyEED2Ev@Base 3.2.1
 _ZN8casacore11MeasConvertINS_10MFrequencyEEclERKNS_11MVFrequencyE@Base 3.2.1
 _ZN8casacore11MeasConvertINS_10MFrequencyEEclERKS1_@Base 3.2.1
 _ZN8casacore11MeasConvertINS_10MFrequencyEEclEd@Base 3.2.1
 _ZN8casacore11MeasConvertINS_14MEarthMagneticEE12addFrameTypeEj@Base 3.2.1
 _ZN8casacore11MeasConvertINS_14MEarthMagneticEE3setERKNS_4UnitE@Base 3.2.1
 _ZN8casacore11MeasConvertINS_14MEarthMagneticEE3setERKNS_9MeasValueE@Base 3.2.1
 _ZN8casacore11MeasConvertINS_14MEarthMagneticEE4initEv@Base 3.2.1
 _ZN8casacore11MeasConvertINS_14MEarthMagneticEE5clearEv@Base 3.2.1
 _ZN8casacore11MeasConvertINS_14MEarthMagneticEE6createEv@Base 3.2.1
 _ZN8casacore11MeasConvertINS_14MEarthMagneticEE7convertERKNS_15MVEarthMagneticE@Base 3.2.1
 _ZN8casacore11MeasConvertINS_14MEarthMagneticEE7convertEv@Base 3.2.1
 _ZN8casacore11MeasConvertINS_14MEarthMagneticEE8setModelERKNS_7MeasureE@Base 3.2.1
 _ZN8casacore11MeasConvertINS_14MEarthMagneticEE9addMethodEj@Base 3.2.1
 _ZN8casacore11MeasConvertINS_14MEarthMagneticEEC1ERKNS_7MeasureERKNS_7MeasRefIS1_EE@Base 3.2.1
 _ZN8casacore11MeasConvertINS_14MEarthMagneticEEC1ERKS1_RKNS_7MeasRefIS1_EE@Base 3.2.1
 _ZN8casacore11MeasConvertINS_14MEarthMagneticEEC2ERKNS_7MeasureERKNS_7MeasRefIS1_EE@Base 3.2.1
 _ZN8casacore11MeasConvertINS_14MEarthMagneticEEC2ERKS1_RKNS_7MeasRefIS1_EE@Base 3.2.1
 _ZN8casacore11MeasConvertINS_14MEarthMagneticEED0Ev@Base 3.2.1
 _ZN8casacore11MeasConvertINS_14MEarthMagneticEED1Ev@Base 3.2.1
 _ZN8casacore11MeasConvertINS_14MEarthMagneticEED2Ev@Base 3.2.1
 _ZN8casacore11MeasConvertINS_14MEarthMagneticEEclERKNS_15MVEarthMagneticE@Base 3.2.1
 _ZN8casacore11MeasConvertINS_15MRadialVelocityEE12addFrameTypeEj@Base 3.2.1
 _ZN8casacore11MeasConvertINS_15MRadialVelocityEE3setERKNS_4UnitE@Base 3.2.1
 _ZN8casacore11MeasConvertINS_15MRadialVelocityEE3setERKNS_9MeasValueE@Base 3.2.1
 _ZN8casacore11MeasConvertINS_15MRadialVelocityEE4initEv@Base 3.2.1
 _ZN8casacore11MeasConvertINS_15MRadialVelocityEE5clearEv@Base 3.2.1
 _ZN8casacore11MeasConvertINS_15MRadialVelocityEE6createEv@Base 3.2.1
 _ZN8casacore11MeasConvertINS_15MRadialVelocityEE7convertERKNS_16MVRadialVelocityE@Base 3.2.1
 _ZN8casacore11MeasConvertINS_15MRadialVelocityEE7convertEv@Base 3.2.1
 _ZN8casacore11MeasConvertINS_15MRadialVelocityEE8setModelERKNS_7MeasureE@Base 3.2.1
 _ZN8casacore11MeasConvertINS_15MRadialVelocityEE9addMethodEj@Base 3.2.1
 _ZN8casacore11MeasConvertINS_15MRadialVelocityEEC1ERKS1_RKNS_7MeasRefIS1_EE@Base 3.2.1
 _ZN8casacore11MeasConvertINS_15MRadialVelocityEEC2ERKS1_RKNS_7MeasRefIS1_EE@Base 3.2.1
 _ZN8casacore11MeasConvertINS_15MRadialVelocityEED0Ev@Base 3.2.1
 _ZN8casacore11MeasConvertINS_15MRadialVelocityEED1Ev@Base 3.2.1
 _ZN8casacore11MeasConvertINS_15MRadialVelocityEED2Ev@Base 3.2.1
 _ZN8casacore11MeasConvertINS_15MRadialVelocityEEclERKNS_16MVRadialVelocityE@Base 3.2.1
 _ZN8casacore11MeasConvertINS_4MuvwEE12addFrameTypeEj@Base 3.2.1
 _ZN8casacore11MeasConvertINS_4MuvwEE3setERKNS_4UnitE@Base 3.2.1
 _ZN8casacore11MeasConvertINS_4MuvwEE3setERKNS_9MeasValueE@Base 3.2.1
 _ZN8casacore11MeasConvertINS_4MuvwEE4initEv@Base 3.2.1
 _ZN8casacore11MeasConvertINS_4MuvwEE5clearEv@Base 3.2.1
 _ZN8casacore11MeasConvertINS_4MuvwEE6createEv@Base 3.2.1
 _ZN8casacore11MeasConvertINS_4MuvwEE7convertERKNS_5MVuvwE@Base 3.2.1
 _ZN8casacore11MeasConvertINS_4MuvwEE7convertEv@Base 3.2.1
 _ZN8casacore11MeasConvertINS_4MuvwEE8setModelERKNS_7MeasureE@Base 3.2.1
 _ZN8casacore11MeasConvertINS_4MuvwEE9addMethodEj@Base 3.2.1
 _ZN8casacore11MeasConvertINS_4MuvwEEC1ERKS1_RKNS_7MeasRefIS1_EE@Base 3.2.1
 _ZN8casacore11MeasConvertINS_4MuvwEEC2ERKS1_RKNS_7MeasRefIS1_EE@Base 3.2.1
 _ZN8casacore11MeasConvertINS_4MuvwEED0Ev@Base 3.2.1
 _ZN8casacore11MeasConvertINS_4MuvwEED1Ev@Base 3.2.1
 _ZN8casacore11MeasConvertINS_4MuvwEED2Ev@Base 3.2.1
 _ZN8casacore11MeasConvertINS_4MuvwEEclERKNS_5MVuvwE@Base 3.2.1
 _ZN8casacore11MeasConvertINS_6MEpochEE12addFrameTypeEj@Base 3.2.1
 _ZN8casacore11MeasConvertINS_6MEpochEE3setERKNS_4UnitE@Base 3.2.1
 _ZN8casacore11MeasConvertINS_6MEpochEE3setERKNS_9MeasValueE@Base 3.2.1
 _ZN8casacore11MeasConvertINS_6MEpochEE4initEv@Base 3.2.1
 _ZN8casacore11MeasConvertINS_6MEpochEE5clearEv@Base 3.2.1
 _ZN8casacore11MeasConvertINS_6MEpochEE6createEv@Base 3.2.1
 _ZN8casacore11MeasConvertINS_6MEpochEE7convertERKNS_7MVEpochE@Base 3.2.1
 _ZN8casacore11MeasConvertINS_6MEpochEE7convertEv@Base 3.2.1
 _ZN8casacore11MeasConvertINS_6MEpochEE8setModelERKNS_7MeasureE@Base 3.2.1
 _ZN8casacore11MeasConvertINS_6MEpochEE9addMethodEj@Base 3.2.1
 _ZN8casacore11MeasConvertINS_6MEpochEEC1ERKNS_7MeasureERKNS_7MeasRefIS1_EE@Base 3.2.1
 _ZN8casacore11MeasConvertINS_6MEpochEEC1ERKS1_NS1_5TypesE@Base 3.2.1
 _ZN8casacore11MeasConvertINS_6MEpochEEC1ERKS1_RKNS_7MeasRefIS1_EE@Base 3.2.1
 _ZN8casacore11MeasConvertINS_6MEpochEEC2ERKNS_7MeasureERKNS_7MeasRefIS1_EE@Base 3.2.1
 _ZN8casacore11MeasConvertINS_6MEpochEEC2ERKS1_NS1_5TypesE@Base 3.2.1
 _ZN8casacore11MeasConvertINS_6MEpochEEC2ERKS1_RKNS_7MeasRefIS1_EE@Base 3.2.1
 _ZN8casacore11MeasConvertINS_6MEpochEED0Ev@Base 3.2.1
 _ZN8casacore11MeasConvertINS_6MEpochEED1Ev@Base 3.2.1
 _ZN8casacore11MeasConvertINS_6MEpochEED2Ev@Base 3.2.1
 _ZN8casacore11MeasConvertINS_6MEpochEEclERKNS_7MVEpochE@Base 3.2.1
 _ZN8casacore11MeasConvertINS_6MEpochEEclEv@Base 3.2.1
 _ZN8casacore11MeasConvertINS_8MDopplerEE12addFrameTypeEj@Base 3.2.1
 _ZN8casacore11MeasConvertINS_8MDopplerEE3setERKNS_4UnitE@Base 3.2.1
 _ZN8casacore11MeasConvertINS_8MDopplerEE3setERKNS_9MeasValueE@Base 3.2.1
 _ZN8casacore11MeasConvertINS_8MDopplerEE4copyERKS2_@Base 3.2.1
 _ZN8casacore11MeasConvertINS_8MDopplerEE4initEv@Base 3.2.1
 _ZN8casacore11MeasConvertINS_8MDopplerEE5clearEv@Base 3.2.1
 _ZN8casacore11MeasConvertINS_8MDopplerEE6createEv@Base 3.2.1
 _ZN8casacore11MeasConvertINS_8MDopplerEE7convertERKNS_9MVDopplerE@Base 3.2.1
 _ZN8casacore11MeasConvertINS_8MDopplerEE7convertEv@Base 3.2.1
 _ZN8casacore11MeasConvertINS_8MDopplerEE8setModelERKNS_7MeasureE@Base 3.2.1
 _ZN8casacore11MeasConvertINS_8MDopplerEE9addMethodEj@Base 3.2.1
 _ZN8casacore11MeasConvertINS_8MDopplerEEC1ERKNS_7MeasureENS1_5TypesE@Base 3.2.1
 _ZN8casacore11MeasConvertINS_8MDopplerEEC1ERKS1_NS1_5TypesE@Base 3.2.1
 _ZN8casacore11MeasConvertINS_8MDopplerEEC1ERKS1_RKNS_7MeasRefIS1_EE@Base 3.2.1
 _ZN8casacore11MeasConvertINS_8MDopplerEEC1Ev@Base 3.2.1
 _ZN8casacore11MeasConvertINS_8MDopplerEEC2ERKNS_7MeasureENS1_5TypesE@Base 3.2.1
 _ZN8casacore11MeasConvertINS_8MDopplerEEC2ERKS1_NS1_5TypesE@Base 3.2.1
 _ZN8casacore11MeasConvertINS_8MDopplerEEC2ERKS1_RKNS_7MeasRefIS1_EE@Base 3.2.1
 _ZN8casacore11MeasConvertINS_8MDopplerEEC2Ev@Base 3.2.1
 _ZN8casacore11MeasConvertINS_8MDopplerEED0Ev@Base 3.2.1
 _ZN8casacore11MeasConvertINS_8MDopplerEED1Ev@Base 3.2.1
 _ZN8casacore11MeasConvertINS_8MDopplerEED2Ev@Base 3.2.1
 _ZN8casacore11MeasConvertINS_8MDopplerEEclERKNS_9MVDopplerE@Base 3.2.1
 _ZN8casacore11MeasConvertINS_8MDopplerEEclERKS1_@Base 3.2.1
 _ZN8casacore11MeasConvertINS_8MDopplerEEclEd@Base 3.2.1
 _ZN8casacore11MeasConvertINS_8MDopplerEEclEv@Base 3.2.1
 _ZN8casacore11MeasConvertINS_9MBaselineEE12addFrameTypeEj@Base 3.2.1
 _ZN8casacore11MeasConvertINS_9MBaselineEE3setERKNS_4UnitE@Base 3.2.1
 _ZN8casacore11MeasConvertINS_9MBaselineEE3setERKNS_9MeasValueE@Base 3.2.1
 _ZN8casacore11MeasConvertINS_9MBaselineEE4initEv@Base 3.2.1
 _ZN8casacore11MeasConvertINS_9MBaselineEE5clearEv@Base 3.2.1
 _ZN8casacore11MeasConvertINS_9MBaselineEE6createEv@Base 3.2.1
 _ZN8casacore11MeasConvertINS_9MBaselineEE7convertERKNS_10MVBaselineE@Base 3.2.1
 _ZN8casacore11MeasConvertINS_9MBaselineEE7convertEv@Base 3.2.1
 _ZN8casacore11MeasConvertINS_9MBaselineEE8setModelERKNS_7MeasureE@Base 3.2.1
 _ZN8casacore11MeasConvertINS_9MBaselineEE9addMethodEj@Base 3.2.1
 _ZN8casacore11MeasConvertINS_9MBaselineEEC1ERKS1_RKNS_7MeasRefIS1_EE@Base 3.2.1
 _ZN8casacore11MeasConvertINS_9MBaselineEEC2ERKS1_RKNS_7MeasRefIS1_EE@Base 3.2.1
 _ZN8casacore11MeasConvertINS_9MBaselineEED0Ev@Base 3.2.1
 _ZN8casacore11MeasConvertINS_9MBaselineEED1Ev@Base 3.2.1
 _ZN8casacore11MeasConvertINS_9MBaselineEED2Ev@Base 3.2.1
 _ZN8casacore11MeasConvertINS_9MBaselineEEclERKNS_10MVBaselineE@Base 3.2.1
 _ZN8casacore11MeasConvertINS_9MBaselineEEclEv@Base 3.2.1
 _ZN8casacore11MeasConvertINS_9MPositionEE12addFrameTypeEj@Base 3.2.1
 _ZN8casacore11MeasConvertINS_9MPositionEE3setERKNS_4UnitE@Base 3.2.1
 _ZN8casacore11MeasConvertINS_9MPositionEE3setERKNS_9MeasValueE@Base 3.2.1
 _ZN8casacore11MeasConvertINS_9MPositionEE4initEv@Base 3.2.1
 _ZN8casacore11MeasConvertINS_9MPositionEE5clearEv@Base 3.2.1
 _ZN8casacore11MeasConvertINS_9MPositionEE6createEv@Base 3.2.1
 _ZN8casacore11MeasConvertINS_9MPositionEE7convertERKNS_10MVPositionE@Base 3.2.1
 _ZN8casacore11MeasConvertINS_9MPositionEE7convertEv@Base 3.2.1
 _ZN8casacore11MeasConvertINS_9MPositionEE8setModelERKNS_7MeasureE@Base 3.2.1
 _ZN8casacore11MeasConvertINS_9MPositionEE9addMethodEj@Base 3.2.1
 _ZN8casacore11MeasConvertINS_9MPositionEEC1ERKNS_7MeasureERKNS_7MeasRefIS1_EE@Base 3.2.1
 _ZN8casacore11MeasConvertINS_9MPositionEEC1ERKS1_NS1_5TypesE@Base 3.2.1
 _ZN8casacore11MeasConvertINS_9MPositionEEC1ERKS1_RKNS_7MeasRefIS1_EE@Base 3.2.1
 _ZN8casacore11MeasConvertINS_9MPositionEEC2ERKNS_7MeasureERKNS_7MeasRefIS1_EE@Base 3.2.1
 _ZN8casacore11MeasConvertINS_9MPositionEEC2ERKS1_NS1_5TypesE@Base 3.2.1
 _ZN8casacore11MeasConvertINS_9MPositionEEC2ERKS1_RKNS_7MeasRefIS1_EE@Base 3.2.1
 _ZN8casacore11MeasConvertINS_9MPositionEED0Ev@Base 3.2.1
 _ZN8casacore11MeasConvertINS_9MPositionEED1Ev@Base 3.2.1
 _ZN8casacore11MeasConvertINS_9MPositionEED2Ev@Base 3.2.1
 _ZN8casacore11MeasConvertINS_9MPositionEEclERKNS_10MVPositionE@Base 3.2.1
 _ZN8casacore11MeasConvertINS_9MPositionEEclEv@Base 3.2.1
 _ZN8casacore11objcopyctorINS_10MDirectionEEEvPT_PKS2_m@Base 3.2.1
 _ZN8casacore11objcopyctorINS_10MDirectionEEEvPT_PKS2_mmm@Base 3.2.1
 _ZN8casacore11objcopyctorINS_10MFrequencyEEEvPT_PKS2_m@Base 3.2.1
 _ZN8casacore11objcopyctorINS_10MFrequencyEEEvPT_PKS2_mmm@Base 3.2.1
 _ZN8casacore11objcopyctorINS_10MVPositionEEEvPT_PKS2_m@Base 3.2.1
 _ZN8casacore11objcopyctorINS_10MVPositionEEEvPT_PKS2_mmm@Base 3.2.1
 _ZN8casacore11objcopyctorINS_16RORecordFieldPtrIdEEEEvPT_PKS3_m@Base 3.2.1
 _ZN8casacore11objcopyctorINS_16RORecordFieldPtrIdEEEEvPT_PKS3_mmm@Base 3.2.1
 _ZN8casacore11objcopyctorINS_4UnitEEEvPT_PKS2_m@Base 3.2.1
 _ZN8casacore11objcopyctorINS_4UnitEEEvPT_PKS2_mmm@Base 3.2.1
 _ZN8casacore11objcopyctorINS_6VectorIdEEEEvPT_PKS3_m@Base 3.2.1
 _ZN8casacore11objcopyctorINS_6VectorIdEEEEvPT_PKS3_mmm@Base 3.2.1
 _ZN8casacore11objcopyctorINS_7QuantumIdEEEEvPT_PKS3_m@Base 3.2.1
 _ZN8casacore11objcopyctorINS_7QuantumIdEEEEvPT_PKS3_mmm@Base 3.2.1
 _ZN8casacore11objcopyctorINS_8AutoDiffIdEEEEvPT_PKS3_m@Base 3.2.1
 _ZN8casacore11objcopyctorINS_8AutoDiffIdEEEEvPT_PKS3_mmm@Base 3.2.1
 _ZN8casacore11objcopyctorINS_9MPositionEEEvPT_PKS2_m@Base 3.2.1
 _ZN8casacore11objcopyctorINS_9MPositionEEEvPT_PKS2_mmm@Base 3.2.1
 _ZN8casacore12MConvertBaseD0Ev@Base 3.2.1
 _ZN8casacore12MConvertBaseD1Ev@Base 3.2.1
 _ZN8casacore12MConvertBaseD2Ev@Base 3.2.1
 _ZN8casacore12MeasTableMul5clearEv@Base 3.2.1
 _ZN8casacore12MeasTableMul8getArrayEdd@Base 3.2.1
 _ZN8casacore12MeasTableMulC1Ev@Base 3.2.1
 _ZN8casacore12MeasTableMulC2Ev@Base 3.2.1
 _ZN8casacore12MeasTableMulD0Ev@Base 3.2.1
 _ZN8casacore12MeasTableMulD1Ev@Base 3.2.1
 _ZN8casacore12MeasTableMulD2Ev@Base 3.2.1
 _ZN8casacore13ArrayIteratorINS_10MDirectionEE12apSetPointerEi@Base 3.2.1
 _ZN8casacore13ArrayIteratorINS_10MDirectionEE3setERKNS_9IPositionE@Base 3.2.1
 _ZN8casacore13ArrayIteratorINS_10MDirectionEE4initERKNS_5ArrayIS1_EE@Base 3.2.1
 _ZN8casacore13ArrayIteratorINS_10MDirectionEE4nextEv@Base 3.2.1
 _ZN8casacore13ArrayIteratorINS_10MDirectionEE5resetEv@Base 3.2.1
 _ZN8casacore13ArrayIteratorINS_10MDirectionEE8getArrayEv@Base 3.2.1
 _ZN8casacore13ArrayIteratorINS_10MDirectionEED0Ev@Base 3.2.1
 _ZN8casacore13ArrayIteratorINS_10MDirectionEED1Ev@Base 3.2.1
 _ZN8casacore13ArrayIteratorINS_10MDirectionEED2Ev@Base 3.2.1
 _ZN8casacore13ArrayIteratorINS_10MFrequencyEE12apSetPointerEi@Base 3.2.1
 _ZN8casacore13ArrayIteratorINS_10MFrequencyEE3setERKNS_9IPositionE@Base 3.2.1
 _ZN8casacore13ArrayIteratorINS_10MFrequencyEE4initERKNS_5ArrayIS1_EE@Base 3.2.1
 _ZN8casacore13ArrayIteratorINS_10MFrequencyEE4nextEv@Base 3.2.1
 _ZN8casacore13ArrayIteratorINS_10MFrequencyEE5resetEv@Base 3.2.1
 _ZN8casacore13ArrayIteratorINS_10MFrequencyEE8getArrayEv@Base 3.2.1
 _ZN8casacore13ArrayIteratorINS_10MFrequencyEED0Ev@Base 3.2.1
 _ZN8casacore13ArrayIteratorINS_10MFrequencyEED1Ev@Base 3.2.1
 _ZN8casacore13ArrayIteratorINS_10MFrequencyEED2Ev@Base 3.2.1
 _ZN8casacore13ArrayIteratorINS_10MVPositionEE12apSetPointerEi@Base 3.2.1
 _ZN8casacore13ArrayIteratorINS_10MVPositionEE3setERKNS_9IPositionE@Base 3.2.1
 _ZN8casacore13ArrayIteratorINS_10MVPositionEE4initERKNS_5ArrayIS1_EE@Base 3.2.1
 _ZN8casacore13ArrayIteratorINS_10MVPositionEE4nextEv@Base 3.2.1
 _ZN8casacore13ArrayIteratorINS_10MVPositionEE5resetEv@Base 3.2.1
 _ZN8casacore13ArrayIteratorINS_10MVPositionEE8getArrayEv@Base 3.2.1
 _ZN8casacore13ArrayIteratorINS_10MVPositionEED0Ev@Base 3.2.1
 _ZN8casacore13ArrayIteratorINS_10MVPositionEED1Ev@Base 3.2.1
 _ZN8casacore13ArrayIteratorINS_10MVPositionEED2Ev@Base 3.2.1
 _ZN8casacore13ArrayIteratorINS_16RORecordFieldPtrIdEEE12apSetPointerEi@Base 3.2.1
 _ZN8casacore13ArrayIteratorINS_16RORecordFieldPtrIdEEE3setERKNS_9IPositionE@Base 3.2.1
 _ZN8casacore13ArrayIteratorINS_16RORecordFieldPtrIdEEE4initERKNS_5ArrayIS2_EE@Base 3.2.1
 _ZN8casacore13ArrayIteratorINS_16RORecordFieldPtrIdEEE4nextEv@Base 3.2.1
 _ZN8casacore13ArrayIteratorINS_16RORecordFieldPtrIdEEE5resetEv@Base 3.2.1
 _ZN8casacore13ArrayIteratorINS_16RORecordFieldPtrIdEEE8getArrayEv@Base 3.2.1
 _ZN8casacore13ArrayIteratorINS_16RORecordFieldPtrIdEEED0Ev@Base 3.2.1
 _ZN8casacore13ArrayIteratorINS_16RORecordFieldPtrIdEEED1Ev@Base 3.2.1
 _ZN8casacore13ArrayIteratorINS_16RORecordFieldPtrIdEEED2Ev@Base 3.2.1
 _ZN8casacore13ArrayIteratorINS_4UnitEE12apSetPointerEi@Base 3.2.1
 _ZN8casacore13ArrayIteratorINS_4UnitEE3setERKNS_9IPositionE@Base 3.2.1
 _ZN8casacore13ArrayIteratorINS_4UnitEE4initERKNS_5ArrayIS1_EE@Base 3.2.1
 _ZN8casacore13ArrayIteratorINS_4UnitEE4nextEv@Base 3.2.1
 _ZN8casacore13ArrayIteratorINS_4UnitEE5resetEv@Base 3.2.1
 _ZN8casacore13ArrayIteratorINS_4UnitEE8getArrayEv@Base 3.2.1
 _ZN8casacore13ArrayIteratorINS_4UnitEED0Ev@Base 3.2.1
 _ZN8casacore13ArrayIteratorINS_4UnitEED1Ev@Base 3.2.1
 _ZN8casacore13ArrayIteratorINS_4UnitEED2Ev@Base 3.2.1
 _ZN8casacore13ArrayIteratorINS_6VectorIdEEE12apSetPointerEi@Base 3.2.1
 _ZN8casacore13ArrayIteratorINS_6VectorIdEEE3setERKNS_9IPositionE@Base 3.2.1
 _ZN8casacore13ArrayIteratorINS_6VectorIdEEE4initERKNS_5ArrayIS2_EE@Base 3.2.1
 _ZN8casacore13ArrayIteratorINS_6VectorIdEEE4nextEv@Base 3.2.1
 _ZN8casacore13ArrayIteratorINS_6VectorIdEEE5resetEv@Base 3.2.1
 _ZN8casacore13ArrayIteratorINS_6VectorIdEEE8getArrayEv@Base 3.2.1
 _ZN8casacore13ArrayIteratorINS_6VectorIdEEED0Ev@Base 3.2.1
 _ZN8casacore13ArrayIteratorINS_6VectorIdEEED1Ev@Base 3.2.1
 _ZN8casacore13ArrayIteratorINS_6VectorIdEEED2Ev@Base 3.2.1
 _ZN8casacore13ArrayIteratorINS_7QuantumIdEEE12apSetPointerEi@Base 3.2.1
 _ZN8casacore13ArrayIteratorINS_7QuantumIdEEE3setERKNS_9IPositionE@Base 3.2.1
 _ZN8casacore13ArrayIteratorINS_7QuantumIdEEE4initERKNS_5ArrayIS2_EE@Base 3.2.1
 _ZN8casacore13ArrayIteratorINS_7QuantumIdEEE4nextEv@Base 3.2.1
 _ZN8casacore13ArrayIteratorINS_7QuantumIdEEE5resetEv@Base 3.2.1
 _ZN8casacore13ArrayIteratorINS_7QuantumIdEEE8getArrayEv@Base 3.2.1
 _ZN8casacore13ArrayIteratorINS_7QuantumIdEEED0Ev@Base 3.2.1
 _ZN8casacore13ArrayIteratorINS_7QuantumIdEEED1Ev@Base 3.2.1
 _ZN8casacore13ArrayIteratorINS_7QuantumIdEEED2Ev@Base 3.2.1
 _ZN8casacore13ArrayIteratorINS_8AutoDiffIdEEE12apSetPointerEi@Base 3.2.1
 _ZN8casacore13ArrayIteratorINS_8AutoDiffIdEEE3setERKNS_9IPositionE@Base 3.2.1
 _ZN8casacore13ArrayIteratorINS_8AutoDiffIdEEE4initERKNS_5ArrayIS2_EE@Base 3.2.1
 _ZN8casacore13ArrayIteratorINS_8AutoDiffIdEEE4nextEv@Base 3.2.1
 _ZN8casacore13ArrayIteratorINS_8AutoDiffIdEEE5resetEv@Base 3.2.1
 _ZN8casacore13ArrayIteratorINS_8AutoDiffIdEEE8getArrayEv@Base 3.2.1
 _ZN8casacore13ArrayIteratorINS_8AutoDiffIdEEED0Ev@Base 3.2.1
 _ZN8casacore13ArrayIteratorINS_8AutoDiffIdEEED1Ev@Base 3.2.1
 _ZN8casacore13ArrayIteratorINS_8AutoDiffIdEEED2Ev@Base 3.2.1
 _ZN8casacore13ArrayIteratorINS_9MPositionEE12apSetPointerEi@Base 3.2.1
 _ZN8casacore13ArrayIteratorINS_9MPositionEE3setERKNS_9IPositionE@Base 3.2.1
 _ZN8casacore13ArrayIteratorINS_9MPositionEE4initERKNS_5ArrayIS1_EE@Base 3.2.1
 _ZN8casacore13ArrayIteratorINS_9MPositionEE4nextEv@Base 3.2.1
 _ZN8casacore13ArrayIteratorINS_9MPositionEE5resetEv@Base 3.2.1
 _ZN8casacore13ArrayIteratorINS_9MPositionEE8getArrayEv@Base 3.2.1
 _ZN8casacore13ArrayIteratorINS_9MPositionEED0Ev@Base 3.2.1
 _ZN8casacore13ArrayIteratorINS_9MPositionEED1Ev@Base 3.2.1
 _ZN8casacore13ArrayIteratorINS_9MPositionEED2Ev@Base 3.2.1
 _ZN8casacore13FunctionParamINS_8AutoDiffIdEEED0Ev@Base 3.2.1
 _ZN8casacore13FunctionParamINS_8AutoDiffIdEEED1Ev@Base 3.2.1
 _ZN8casacore13FunctionParamINS_8AutoDiffIdEEED2Ev@Base 3.2.1
 _ZN8casacore13FunctionParamIdED0Ev@Base 3.2.1
 _ZN8casacore13FunctionParamIdED1Ev@Base 3.2.1
 _ZN8casacore13FunctionParamIdED2Ev@Base 3.2.1
 _ZN8casacore13MeasureHolder10fromRecordERNS_6StringERKNS_15RecordInterfaceE@Base 3.2.1
 _ZN8casacore13MeasureHolder10fromStringERNS_6StringERKS1_@Base 3.2.1
 _ZN8casacore13MeasureHolder5setMVEjRKNS_9MeasValueE@Base 3.2.1
 _ZN8casacore13MeasureHolder7getTypeERNS_6StringERKNS_15RecordInterfaceE@Base 3.2.1
 _ZN8casacore13MeasureHolder7getTypeERNS_6StringERKS1_@Base 3.2.1
 _ZN8casacore13MeasureHolder8createMVEj@Base 3.2.1
 _ZN8casacore13MeasureHolder8fromTypeERNS_6StringERKNS_15RecordInterfaceE@Base 3.2.1
 _ZN8casacore13MeasureHolderC1ERKNS_7MeasureE@Base 3.2.1
 _ZN8casacore13MeasureHolderC1ERKS0_@Base 3.2.1
 _ZN8casacore13MeasureHolderC1Ev@Base 3.2.1
 _ZN8casacore13MeasureHolderC2ERKNS_7MeasureE@Base 3.2.1
 _ZN8casacore13MeasureHolderC2ERKS0_@Base 3.2.1
 _ZN8casacore13MeasureHolderC2Ev@Base 3.2.1
 _ZN8casacore13MeasureHolderD0Ev@Base 3.2.1
 _ZN8casacore13MeasureHolderD1Ev@Base 3.2.1
 _ZN8casacore13MeasureHolderD2Ev@Base 3.2.1
 _ZN8casacore13MeasureHolderaSERKS0_@Base 3.2.1
 _ZN8casacore13MeasuresProxy10separationERKNS_6RecordES3_@Base 3.2.1
 _ZN8casacore13MeasuresProxy11makeMeasureERNS_6StringERNS_13MeasureHolderERKS3_RKS1_RKNS_6RecordE@Base 3.2.1
 _ZN8casacore13MeasuresProxy11observatoryERKNS_6StringE@Base 3.2.1
 _ZN8casacore13MeasuresProxy14getMeasureTypeERKNS_6RecordE@Base 3.2.1
 _ZN8casacore13MeasuresProxy3uvwERKNS_6RecordE@Base 3.2.1
 _ZN8casacore13MeasuresProxy4lineERKNS_6StringE@Base 3.2.1
 _ZN8casacore13MeasuresProxy5toUvwERNS_6StringERNS_13MeasureHolderERNS_6VectorIdEES7_RKS3_@Base 3.2.1
 _ZN8casacore13MeasuresProxy5todopERKNS_6RecordERKNS_7QuantumIdEE@Base 3.2.1
 _ZN8casacore13MeasuresProxy6alltypERKNS_6RecordE@Base 3.2.1
 _ZN8casacore13MeasuresProxy6expandERKNS_6RecordE@Base 3.2.1
 _ZN8casacore13MeasuresProxy6mh2recERKNS_13MeasureHolderE@Base 3.2.1
 _ZN8casacore13MeasuresProxy6rec2mhERKNS_6RecordE@Base 3.2.1
 _ZN8casacore13MeasuresProxy6sourceERKNS_6StringE@Base 3.2.1
 _ZN8casacore13MeasuresProxy6torestERKNS_6RecordES3_@Base 3.2.1
 _ZN8casacore13MeasuresProxy7dirshowERKNS_6RecordE@Base 3.2.1
 _ZN8casacore13MeasuresProxy7doFrameERKNS_13MeasureHolderE@Base 3.2.1
 _ZN8casacore13MeasuresProxy7doFrameERKNS_6StringE@Base 3.2.1
 _ZN8casacore13MeasuresProxy7doframeERKNS_6RecordE@Base 3.2.1
 _ZN8casacore13MeasuresProxy7doptorvERKNS_6RecordERKNS_6StringE@Base 3.2.1
 _ZN8casacore13MeasuresProxy7measureERKNS_6RecordERKNS_6StringES3_@Base 3.2.1
 _ZN8casacore13MeasuresProxy7obslistEv@Base 3.2.1
 _ZN8casacore13MeasuresProxy7srclistEv@Base 3.2.1
 _ZN8casacore13MeasuresProxy7vec2strERKNS_6VectorINS_6StringEEE@Base 3.2.1
 _ZN8casacore13MeasuresProxy8expandItERNS_6StringERNS_13MeasureHolderERNS_6VectorIdEERKS3_@Base 3.2.1
 _ZN8casacore13MeasuresProxy8linelistEv@Base 3.2.1
 _ZN8casacore13MeasuresProxy8posangleERKNS_6RecordES3_@Base 3.2.1
 _ZN8casacore13MeasuresProxy9doptofreqERKNS_6RecordERKNS_6StringERKNS_7QuantumIdEE@Base 3.2.1
 _ZN8casacore13MeasuresProxyC1Ev@Base 3.2.1
 _ZN8casacore13MeasuresProxyC2Ev@Base 3.2.1
 _ZN8casacore13MeasuresProxyD0Ev@Base 3.2.1
 _ZN8casacore13MeasuresProxyD1Ev@Base 3.2.1
 _ZN8casacore13MeasuresProxyD2Ev@Base 3.2.1
 _ZN8casacore13TableMeasType8toRecordERNS_15RecordInterfaceE@Base 3.2.1
 _ZN8casacore13TableMeasTypeC1ERKNS_7MeasureE@Base 3.2.1
 _ZN8casacore13TableMeasTypeC1ERKS0_@Base 3.2.1
 _ZN8casacore13TableMeasTypeC1Ev@Base 3.2.1
 _ZN8casacore13TableMeasTypeC2ERKNS_7MeasureE@Base 3.2.1
 _ZN8casacore13TableMeasTypeC2ERKS0_@Base 3.2.1
 _ZN8casacore13TableMeasTypeC2Ev@Base 3.2.1
 _ZN8casacore13TableMeasTypeD1Ev@Base 3.2.1
 _ZN8casacore13TableMeasTypeD2Ev@Base 3.2.1
 _ZN8casacore13TableMeasTypeaSERKS0_@Base 3.2.1
 _ZN8casacore14FunctionTraitsINS_8AutoDiffIdEEE8setValueERS2_RKdjj@Base 3.2.1
 _ZN8casacore14MEarthMagnetic10allMyTypesERiS1_RPKj@Base 3.2.1
 _ZN8casacore14MEarthMagnetic12checkMyTypesEv@Base 3.2.1
 _ZN8casacore14MEarthMagnetic12setRefStringERKNS_6StringE@Base 3.2.1
 _ZN8casacore14MEarthMagnetic6assureERKNS_7MeasureE@Base 3.2.1
 _ZN8casacore14MEarthMagnetic6giveMeERNS_7MeasRefIS0_EERKNS_6StringE@Base 3.2.1
 _ZN8casacore14MEarthMagnetic6myTypeEv@Base 3.2.1
 _ZN8casacore14MEarthMagnetic6showMeEv@Base 3.2.1
 _ZN8casacore14MEarthMagnetic7getTypeERNS0_5TypesERKNS_6StringE@Base 3.2.1
 _ZN8casacore14MEarthMagnetic8castTypeEj@Base 3.2.1
 _ZN8casacore14MEarthMagnetic8showTypeENS0_5TypesE@Base 3.2.1
 _ZN8casacore14MEarthMagnetic8showTypeEj@Base 3.2.1
 _ZN8casacore14MEarthMagnetic9setOffsetERKNS_7MeasureE@Base 3.2.1
 _ZN8casacore14MEarthMagneticC1EPKNS_7MeasureE@Base 3.2.1
 _ZN8casacore14MEarthMagneticC1EPKNS_9MeasValueE@Base 3.2.1
 _ZN8casacore14MEarthMagneticC1ERKNS_15MVEarthMagneticE@Base 3.2.1
 _ZN8casacore14MEarthMagneticC1ERKNS_15MVEarthMagneticENS0_5TypesE@Base 3.2.1
 _ZN8casacore14MEarthMagneticC1ERKNS_15MVEarthMagneticERKNS_7MeasRefIS0_EE@Base 3.2.1
 _ZN8casacore14MEarthMagneticC1ERKNS_7MeasRefIS0_EE@Base 3.2.1
 _ZN8casacore14MEarthMagneticC1ERKS0_@Base 3.2.1
 _ZN8casacore14MEarthMagneticC1Ev@Base 3.2.1
 _ZN8casacore14MEarthMagneticC2EPKNS_7MeasureE@Base 3.2.1
 _ZN8casacore14MEarthMagneticC2EPKNS_9MeasValueE@Base 3.2.1
 _ZN8casacore14MEarthMagneticC2ERKNS_15MVEarthMagneticE@Base 3.2.1
 _ZN8casacore14MEarthMagneticC2ERKNS_15MVEarthMagneticENS0_5TypesE@Base 3.2.1
 _ZN8casacore14MEarthMagneticC2ERKNS_15MVEarthMagneticERKNS_7MeasRefIS0_EE@Base 3.2.1
 _ZN8casacore14MEarthMagneticC2ERKNS_7MeasRefIS0_EE@Base 3.2.1
 _ZN8casacore14MEarthMagneticC2ERKS0_@Base 3.2.1
 _ZN8casacore14MEarthMagneticC2Ev@Base 3.2.1
 _ZN8casacore14MEarthMagneticD0Ev@Base 3.2.1
 _ZN8casacore14MEarthMagneticD1Ev@Base 3.2.1
 _ZN8casacore14MEarthMagneticD2Ev@Base 3.2.1
 _ZN8casacore14MEarthMagneticaSERKS0_@Base 3.2.1
 _ZN8casacore14MeasTableMulSC10theirMULSCE@Base 3.2.1
 _ZN8casacore14MeasTableMulSC10theirMULTDE@Base 3.2.1
 _ZN8casacore14MeasTableMulSC4calcERNS_6MatrixIdEEd@Base 3.2.1
 _ZN8casacore14MeasTableMulSC4initEv@Base 3.2.1
 _ZN8casacore14MeasTableMulSCC1Ev@Base 3.2.1
 _ZN8casacore14MeasTableMulSCC2Ev@Base 3.2.1
 _ZN8casacore14MeasTableMulSCD0Ev@Base 3.2.1
 _ZN8casacore14MeasTableMulSCD1Ev@Base 3.2.1
 _ZN8casacore14MeasTableMulSCD2Ev@Base 3.2.1
 _ZN8casacore14RecordFieldPtrINS_6StringEE6notifyERKNS_6NoticeE@Base 3.2.1
 _ZN8casacore14RecordFieldPtrINS_6StringEEC1ERNS_15RecordInterfaceERKNS_13RecordFieldIdE@Base 3.2.1
 _ZN8casacore14RecordFieldPtrINS_6StringEEC2ERNS_15RecordInterfaceERKNS_13RecordFieldIdE@Base 3.2.1
 _ZN8casacore14RecordFieldPtrINS_6StringEED0Ev@Base 3.2.1
 _ZN8casacore14RecordFieldPtrINS_6StringEED1Ev@Base 3.2.1
 _ZN8casacore14RecordFieldPtrINS_6StringEED2Ev@Base 3.2.1
 _ZN8casacore14RecordFieldPtrIdE6notifyERKNS_6NoticeE@Base 3.2.1
 _ZN8casacore14RecordFieldPtrIdEC1ERKS1_@Base 3.2.1
 _ZN8casacore14RecordFieldPtrIdEC1ERNS_15RecordInterfaceERKNS_13RecordFieldIdE@Base 3.2.1
 _ZN8casacore14RecordFieldPtrIdEC2ERKS1_@Base 3.2.1
 _ZN8casacore14RecordFieldPtrIdEC2ERNS_15RecordInterfaceERKNS_13RecordFieldIdE@Base 3.2.1
 _ZN8casacore14RecordFieldPtrIdED0Ev@Base 3.2.1
 _ZN8casacore14RecordFieldPtrIdED1Ev@Base 3.2.1
 _ZN8casacore14RecordFieldPtrIdED2Ev@Base 3.2.1
 _ZN8casacore15MCEarthMagnetic10getConvertERNS_12MConvertBaseERKNS_6MRBaseES5_@Base 3.2.1
 _ZN8casacore15MCEarthMagnetic11doFillStateEv@Base 3.2.1
 _ZN8casacore15MCEarthMagnetic11initConvertEjRNS_12MConvertBaseE@Base 3.2.1
 _ZN8casacore15MCEarthMagnetic12clearConvertEv@Base 3.2.1
 _ZN8casacore15MCEarthMagnetic13theirInitOnceE@Base 3.2.1
 _ZN8casacore15MCEarthMagnetic7ToRef_pE@Base 3.2.1
 _ZN8casacore15MCEarthMagnetic8FromTo_pE@Base 3.2.1
 _ZN8casacore15MCEarthMagnetic9doConvertERNS_15MVEarthMagneticERNS_6MRBaseES4_RKNS_12MConvertBaseE@Base 3.2.1
 _ZN8casacore15MCEarthMagnetic9doConvertERNS_9MeasValueERNS_6MRBaseES4_RKNS_12MConvertBaseE@Base 3.2.1
 _ZN8casacore15MCEarthMagnetic9showStateEv@Base 3.2.1
 _ZN8casacore15MCEarthMagneticC1Ev@Base 3.2.1
 _ZN8casacore15MCEarthMagneticC2Ev@Base 3.2.1
 _ZN8casacore15MCEarthMagneticD0Ev@Base 3.2.1
 _ZN8casacore15MCEarthMagneticD1Ev@Base 3.2.1
 _ZN8casacore15MCEarthMagneticD2Ev@Base 3.2.1
 _ZN8casacore15MRadialVelocity10allMyTypesERiS1_RPKj@Base 3.2.1
 _ZN8casacore15MRadialVelocity11fromDopplerERKNS_7MeasureENS0_5TypesE@Base 3.2.1
 _ZN8casacore15MRadialVelocity11fromDopplerERKNS_8MDopplerE@Base 3.2.1
 _ZN8casacore15MRadialVelocity11fromDopplerERKNS_8MDopplerENS0_5TypesE@Base 3.2.1
 _ZN8casacore15MRadialVelocity12checkMyTypesEv@Base 3.2.1
 _ZN8casacore15MRadialVelocity12setRefStringERKNS_6StringE@Base 3.2.1
 _ZN8casacore15MRadialVelocity6assureERKNS_7MeasureE@Base 3.2.1
 _ZN8casacore15MRadialVelocity6giveMeERNS_7MeasRefIS0_EERKNS_6StringE@Base 3.2.1
 _ZN8casacore15MRadialVelocity6myTypeEv@Base 3.2.1
 _ZN8casacore15MRadialVelocity6showMeEv@Base 3.2.1
 _ZN8casacore15MRadialVelocity7getTypeERNS0_5TypesERKNS_6StringE@Base 3.2.1
 _ZN8casacore15MRadialVelocity8castTypeEj@Base 3.2.1
 _ZN8casacore15MRadialVelocity8showTypeENS0_5TypesE@Base 3.2.1
 _ZN8casacore15MRadialVelocity8showTypeEj@Base 3.2.1
 _ZN8casacore15MRadialVelocity9setOffsetERKNS_7MeasureE@Base 3.2.1
 _ZN8casacore15MRadialVelocity9toDopplerERKNS_7MeasureE@Base 3.2.1
 _ZN8casacore15MRadialVelocity9toDopplerEv@Base 3.2.1
 _ZN8casacore15MRadialVelocityC1EPKNS_7MeasureE@Base 3.2.1
 _ZN8casacore15MRadialVelocityC1EPKNS_9MeasValueE@Base 3.2.1
 _ZN8casacore15MRadialVelocityC1ERKNS_16MVRadialVelocityE@Base 3.2.1
 _ZN8casacore15MRadialVelocityC1ERKNS_16MVRadialVelocityENS0_5TypesE@Base 3.2.1
 _ZN8casacore15MRadialVelocityC1ERKNS_16MVRadialVelocityERKNS_7MeasRefIS0_EE@Base 3.2.1
 _ZN8casacore15MRadialVelocityC1ERKNS_7QuantumIdEE@Base 3.2.1
 _ZN8casacore15MRadialVelocityC1ERKNS_7QuantumIdEENS0_5TypesE@Base 3.2.1
 _ZN8casacore15MRadialVelocityC1ERKNS_7QuantumIdEERKNS_7MeasRefIS0_EE@Base 3.2.1
 _ZN8casacore15MRadialVelocityC1Ev@Base 3.2.1
 _ZN8casacore15MRadialVelocityC2EPKNS_7MeasureE@Base 3.2.1
 _ZN8casacore15MRadialVelocityC2EPKNS_9MeasValueE@Base 3.2.1
 _ZN8casacore15MRadialVelocityC2ERKNS_16MVRadialVelocityE@Base 3.2.1
 _ZN8casacore15MRadialVelocityC2ERKNS_16MVRadialVelocityENS0_5TypesE@Base 3.2.1
 _ZN8casacore15MRadialVelocityC2ERKNS_16MVRadialVelocityERKNS_7MeasRefIS0_EE@Base 3.2.1
 _ZN8casacore15MRadialVelocityC2ERKNS_7QuantumIdEE@Base 3.2.1
 _ZN8casacore15MRadialVelocityC2ERKNS_7QuantumIdEENS0_5TypesE@Base 3.2.1
 _ZN8casacore15MRadialVelocityC2ERKNS_7QuantumIdEERKNS_7MeasRefIS0_EE@Base 3.2.1
 _ZN8casacore15MRadialVelocityC2Ev@Base 3.2.1
 _ZN8casacore15MRadialVelocityD0Ev@Base 3.2.1
 _ZN8casacore15MRadialVelocityD1Ev@Base 3.2.1
 _ZN8casacore15MRadialVelocityD2Ev@Base 3.2.1
 _ZN8casacore15NewDelAllocatorINS_10MDirectionEE5valueE@Base 3.2.1
 _ZN8casacore15NewDelAllocatorINS_10MDirectionEED0Ev@Base 3.2.1
 _ZN8casacore15NewDelAllocatorINS_10MDirectionEED1Ev@Base 3.2.1
 _ZN8casacore15NewDelAllocatorINS_10MDirectionEED2Ev@Base 3.2.1
 _ZN8casacore15NewDelAllocatorINS_10MFrequencyEE5valueE@Base 3.2.1
 _ZN8casacore15NewDelAllocatorINS_10MFrequencyEED0Ev@Base 3.2.1
 _ZN8casacore15NewDelAllocatorINS_10MFrequencyEED1Ev@Base 3.2.1
 _ZN8casacore15NewDelAllocatorINS_10MFrequencyEED2Ev@Base 3.2.1
 _ZN8casacore15NewDelAllocatorINS_10MVPositionEE5valueE@Base 3.2.1
 _ZN8casacore15NewDelAllocatorINS_10MVPositionEED0Ev@Base 3.2.1
 _ZN8casacore15NewDelAllocatorINS_10MVPositionEED1Ev@Base 3.2.1
 _ZN8casacore15NewDelAllocatorINS_10MVPositionEED2Ev@Base 3.2.1
 _ZN8casacore15NewDelAllocatorINS_16RORecordFieldPtrIdEEE5valueE@Base 3.2.1
 _ZN8casacore15NewDelAllocatorINS_16RORecordFieldPtrIdEEED0Ev@Base 3.2.1
 _ZN8casacore15NewDelAllocatorINS_16RORecordFieldPtrIdEEED1Ev@Base 3.2.1
 _ZN8casacore15NewDelAllocatorINS_16RORecordFieldPtrIdEEED2Ev@Base 3.2.1
 _ZN8casacore15NewDelAllocatorINS_4UnitEE5valueE@Base 3.2.1
 _ZN8casacore15NewDelAllocatorINS_4UnitEED0Ev@Base 3.2.1
 _ZN8casacore15NewDelAllocatorINS_4UnitEED1Ev@Base 3.2.1
 _ZN8casacore15NewDelAllocatorINS_4UnitEED2Ev@Base 3.2.1
 _ZN8casacore15NewDelAllocatorINS_6VectorIdEEE5valueE@Base 3.2.1
 _ZN8casacore15NewDelAllocatorINS_6VectorIdEEED0Ev@Base 3.2.1
 _ZN8casacore15NewDelAllocatorINS_6VectorIdEEED1Ev@Base 3.2.1
 _ZN8casacore15NewDelAllocatorINS_6VectorIdEEED2Ev@Base 3.2.1
 _ZN8casacore15NewDelAllocatorINS_7QuantumIdEEE5valueE@Base 3.2.1
 _ZN8casacore15NewDelAllocatorINS_7QuantumIdEEED0Ev@Base 3.2.1
 _ZN8casacore15NewDelAllocatorINS_7QuantumIdEEED1Ev@Base 3.2.1
 _ZN8casacore15NewDelAllocatorINS_7QuantumIdEEED2Ev@Base 3.2.1
 _ZN8casacore15NewDelAllocatorINS_8AutoDiffIdEEE5valueE@Base 3.2.1
 _ZN8casacore15NewDelAllocatorINS_8AutoDiffIdEEED0Ev@Base 3.2.1
 _ZN8casacore15NewDelAllocatorINS_8AutoDiffIdEEED1Ev@Base 3.2.1
 _ZN8casacore15NewDelAllocatorINS_8AutoDiffIdEEED2Ev@Base 3.2.1
 _ZN8casacore15NewDelAllocatorINS_9MPositionEE5valueE@Base 3.2.1
 _ZN8casacore15NewDelAllocatorINS_9MPositionEED0Ev@Base 3.2.1
 _ZN8casacore15NewDelAllocatorINS_9MPositionEED1Ev@Base 3.2.1
 _ZN8casacore15NewDelAllocatorINS_9MPositionEED2Ev@Base 3.2.1
 _ZN8casacore15NewDelAllocatorIPNS_6SlicerEE5valueE@Base 3.2.1
 _ZN8casacore15NewDelAllocatorIPNS_6SlicerEED0Ev@Base 3.2.1
 _ZN8casacore15NewDelAllocatorIPNS_6SlicerEED1Ev@Base 3.2.1
 _ZN8casacore15NewDelAllocatorIPNS_6SlicerEED2Ev@Base 3.2.1
 _ZN8casacore15ParAngleMachine11setIntervalEd@Base 3.2.1
 _ZN8casacore15ParAngleMachine3setERKNS_10MDirectionE@Base 3.2.1
 _ZN8casacore15ParAngleMachine3setERKNS_9MeasFrameE@Base 3.2.1
 _ZN8casacore15ParAngleMachine4initEv@Base 3.2.1
 _ZN8casacore15ParAngleMachineC1ERKNS_10MDirectionE@Base 3.2.1
 _ZN8casacore15ParAngleMachineC1ERKS0_@Base 3.2.1
 _ZN8casacore15ParAngleMachineC1Ev@Base 3.2.1
 _ZN8casacore15ParAngleMachineC2ERKNS_10MDirectionE@Base 3.2.1
 _ZN8casacore15ParAngleMachineC2ERKS0_@Base 3.2.1
 _ZN8casacore15ParAngleMachineC2Ev@Base 3.2.1
 _ZN8casacore15ParAngleMachineD1Ev@Base 3.2.1
 _ZN8casacore15ParAngleMachineD2Ev@Base 3.2.1
 _ZN8casacore15ParAngleMachineaSERKS0_@Base 3.2.1
 _ZN8casacore15TableMeasColumn6attachERKNS_5TableERKNS_6StringE@Base 3.2.1
 _ZN8casacore15TableMeasColumn9referenceERKS0_@Base 3.2.1
 _ZN8casacore15TableMeasColumnC1ERKNS_5TableERKNS_6StringE@Base 3.2.1
 _ZN8casacore15TableMeasColumnC1ERKS0_@Base 3.2.1
 _ZN8casacore15TableMeasColumnC1Ev@Base 3.2.1
 _ZN8casacore15TableMeasColumnC2ERKNS_5TableERKNS_6StringE@Base 3.2.1
 _ZN8casacore15TableMeasColumnC2ERKS0_@Base 3.2.1
 _ZN8casacore15TableMeasColumnC2Ev@Base 3.2.1
 _ZN8casacore15TableMeasColumnD0Ev@Base 3.2.1
 _ZN8casacore15TableMeasColumnD1Ev@Base 3.2.1
 _ZN8casacore15TableMeasColumnD2Ev@Base 3.2.1
 _ZN8casacore15VelocityMachine11reCalculateEv@Base 3.2.1
 _ZN8casacore15VelocityMachine12makeVelocityERKNS_6VectorIdEE@Base 3.2.1
 _ZN8casacore15VelocityMachine12makeVelocityEd@Base 3.2.1
 _ZN8casacore15VelocityMachine13makeFrequencyERKNS_6VectorIdEE@Base 3.2.1
 _ZN8casacore15VelocityMachine13makeFrequencyEd@Base 3.2.1
 _ZN8casacore15VelocityMachine3setERKNS_10MFrequency5TypesE@Base 3.2.1
 _ZN8casacore15VelocityMachine3setERKNS_11MVFrequencyE@Base 3.2.1
 _ZN8casacore15VelocityMachine3setERKNS_4UnitE@Base 3.2.1
 _ZN8casacore15VelocityMachine3setERKNS_7MeasRefINS_10MFrequencyEEE@Base 3.2.1
 _ZN8casacore15VelocityMachine3setERKNS_7MeasRefINS_8MDopplerEEE@Base 3.2.1
 _ZN8casacore15VelocityMachine3setERKNS_9MeasFrameE@Base 3.2.1
 _ZN8casacore15VelocityMachine4copyERKS0_@Base 3.2.1
 _ZN8casacore15VelocityMachine4initEv@Base 3.2.1
 _ZN8casacore15VelocityMachineC1ERKNS_7MeasRefINS_10MFrequencyEEERKNS_4UnitERKNS_11MVFrequencyERKNS1_INS_8MDopplerEEES8_@Base 3.2.1
 _ZN8casacore15VelocityMachineC1ERKNS_7MeasRefINS_10MFrequencyEEERKNS_4UnitERKNS_11MVFrequencyERKNS1_INS_8MDopplerEEES8_RKNS_9MeasFrameE@Base 3.2.1
 _ZN8casacore15VelocityMachineC1ERKNS_7MeasRefINS_10MFrequencyEEERKNS_4UnitERKNS_11MVFrequencyERKNS2_5TypesERKNS1_INS_8MDopplerEEES8_@Base 3.2.1
 _ZN8casacore15VelocityMachineC1ERKNS_7MeasRefINS_10MFrequencyEEERKNS_4UnitERKNS_11MVFrequencyERKNS2_5TypesERKNS1_INS_8MDopplerEEES8_RKNS_9MeasFrameE@Base 3.2.1
 _ZN8casacore15VelocityMachineC1ERKS0_@Base 3.2.1
 _ZN8casacore15VelocityMachineC2ERKNS_7MeasRefINS_10MFrequencyEEERKNS_4UnitERKNS_11MVFrequencyERKNS1_INS_8MDopplerEEES8_@Base 3.2.1
 _ZN8casacore15VelocityMachineC2ERKNS_7MeasRefINS_10MFrequencyEEERKNS_4UnitERKNS_11MVFrequencyERKNS1_INS_8MDopplerEEES8_RKNS_9MeasFrameE@Base 3.2.1
 _ZN8casacore15VelocityMachineC2ERKNS_7MeasRefINS_10MFrequencyEEERKNS_4UnitERKNS_11MVFrequencyERKNS2_5TypesERKNS1_INS_8MDopplerEEES8_@Base 3.2.1
 _ZN8casacore15VelocityMachineC2ERKNS_7MeasRefINS_10MFrequencyEEERKNS_4UnitERKNS_11MVFrequencyERKNS2_5TypesERKNS1_INS_8MDopplerEEES8_RKNS_9MeasFrameE@Base 3.2.1
 _ZN8casacore15VelocityMachineC2ERKS0_@Base 3.2.1
 _ZN8casacore15VelocityMachineD1Ev@Base 3.2.1
 _ZN8casacore15VelocityMachineD2Ev@Base 3.2.1
 _ZN8casacore15VelocityMachineaSERKS0_@Base 3.2.1
 _ZN8casacore15VelocityMachineclERKNS_11MVFrequencyE@Base 3.2.1
 _ZN8casacore15VelocityMachineclERKNS_7QuantumIdEE@Base 3.2.1
 _ZN8casacore15VelocityMachineclERKNS_9MVDopplerE@Base 3.2.1
 _ZN8casacore15arrayCompareAllINS_6StringESt8equal_toIS1_EEEbRKNS_5ArrayIT_EES8_T0_@Base 3.2.1
 _ZN8casacore15arrayCompareAllIjSt8equal_toIjEEEbRKNS_5ArrayIT_EES7_T0_@Base 3.2.1
 _ZN8casacore16DefaultAllocatorINS_10MDirectionEE5valueE@Base 3.2.1
 _ZN8casacore16DefaultAllocatorINS_10MDirectionEED0Ev@Base 3.2.1
 _ZN8casacore16DefaultAllocatorINS_10MDirectionEED1Ev@Base 3.2.1
 _ZN8casacore16DefaultAllocatorINS_10MDirectionEED2Ev@Base 3.2.1
 _ZN8casacore16DefaultAllocatorINS_10MFrequencyEE5valueE@Base 3.2.1
 _ZN8casacore16DefaultAllocatorINS_10MFrequencyEED0Ev@Base 3.2.1
 _ZN8casacore16DefaultAllocatorINS_10MFrequencyEED1Ev@Base 3.2.1
 _ZN8casacore16DefaultAllocatorINS_10MFrequencyEED2Ev@Base 3.2.1
 _ZN8casacore16DefaultAllocatorINS_10MVPositionEE5valueE@Base 3.2.1
 _ZN8casacore16DefaultAllocatorINS_10MVPositionEED0Ev@Base 3.2.1
 _ZN8casacore16DefaultAllocatorINS_10MVPositionEED1Ev@Base 3.2.1
 _ZN8casacore16DefaultAllocatorINS_10MVPositionEED2Ev@Base 3.2.1
 _ZN8casacore16DefaultAllocatorINS_16RORecordFieldPtrIdEEE5valueE@Base 3.2.1
 _ZN8casacore16DefaultAllocatorINS_16RORecordFieldPtrIdEEED0Ev@Base 3.2.1
 _ZN8casacore16DefaultAllocatorINS_16RORecordFieldPtrIdEEED1Ev@Base 3.2.1
 _ZN8casacore16DefaultAllocatorINS_16RORecordFieldPtrIdEEED2Ev@Base 3.2.1
 _ZN8casacore16DefaultAllocatorINS_4UnitEE5valueE@Base 3.2.1
 _ZN8casacore16DefaultAllocatorINS_4UnitEED0Ev@Base 3.2.1
 _ZN8casacore16DefaultAllocatorINS_4UnitEED1Ev@Base 3.2.1
 _ZN8casacore16DefaultAllocatorINS_4UnitEED2Ev@Base 3.2.1
 _ZN8casacore16DefaultAllocatorINS_6VectorIdEEE5valueE@Base 3.2.1
 _ZN8casacore16DefaultAllocatorINS_6VectorIdEEED0Ev@Base 3.2.1
 _ZN8casacore16DefaultAllocatorINS_6VectorIdEEED1Ev@Base 3.2.1
 _ZN8casacore16DefaultAllocatorINS_6VectorIdEEED2Ev@Base 3.2.1
 _ZN8casacore16DefaultAllocatorINS_7QuantumIdEEE5valueE@Base 3.2.1
 _ZN8casacore16DefaultAllocatorINS_7QuantumIdEEED0Ev@Base 3.2.1
 _ZN8casacore16DefaultAllocatorINS_7QuantumIdEEED1Ev@Base 3.2.1
 _ZN8casacore16DefaultAllocatorINS_7QuantumIdEEED2Ev@Base 3.2.1
 _ZN8casacore16DefaultAllocatorINS_8AutoDiffIdEEE5valueE@Base 3.2.1
 _ZN8casacore16DefaultAllocatorINS_8AutoDiffIdEEED0Ev@Base 3.2.1
 _ZN8casacore16DefaultAllocatorINS_8AutoDiffIdEEED1Ev@Base 3.2.1
 _ZN8casacore16DefaultAllocatorINS_8AutoDiffIdEEED2Ev@Base 3.2.1
 _ZN8casacore16DefaultAllocatorINS_9MPositionEE5valueE@Base 3.2.1
 _ZN8casacore16DefaultAllocatorINS_9MPositionEED0Ev@Base 3.2.1
 _ZN8casacore16DefaultAllocatorINS_9MPositionEED1Ev@Base 3.2.1
 _ZN8casacore16DefaultAllocatorINS_9MPositionEED2Ev@Base 3.2.1
 _ZN8casacore16DefaultAllocatorIPNS_6SlicerEE5valueE@Base 3.2.1
 _ZN8casacore16DefaultAllocatorIPNS_6SlicerEED0Ev@Base 3.2.1
 _ZN8casacore16DefaultAllocatorIPNS_6SlicerEED1Ev@Base 3.2.1
 _ZN8casacore16DefaultAllocatorIPNS_6SlicerEED2Ev@Base 3.2.1
 _ZN8casacore16MCRadialVelocity10getConvertERNS_12MConvertBaseERKNS_6MRBaseES5_@Base 3.2.1
 _ZN8casacore16MCRadialVelocity11doFillStateEv@Base 3.2.1
 _ZN8casacore16MCRadialVelocity11initConvertEjRNS_12MConvertBaseE@Base 3.2.1
 _ZN8casacore16MCRadialVelocity12clearConvertEv@Base 3.2.1
 _ZN8casacore16MCRadialVelocity13theirInitOnceE@Base 3.2.1
 _ZN8casacore16MCRadialVelocity7ToRef_pE@Base 3.2.1
 _ZN8casacore16MCRadialVelocity8FromTo_pE@Base 3.2.1
 _ZN8casacore16MCRadialVelocity9doConvertERNS_16MVRadialVelocityERNS_6MRBaseES4_RKNS_12MConvertBaseE@Base 3.2.1
 _ZN8casacore16MCRadialVelocity9doConvertERNS_9MeasValueERNS_6MRBaseES4_RKNS_12MConvertBaseE@Base 3.2.1
 _ZN8casacore16MCRadialVelocity9showStateEv@Base 3.2.1
 _ZN8casacore16MCRadialVelocityC1Ev@Base 3.2.1
 _ZN8casacore16MCRadialVelocityC2Ev@Base 3.2.1
 _ZN8casacore16MCRadialVelocityD0Ev@Base 3.2.1
 _ZN8casacore16MCRadialVelocityD1Ev@Base 3.2.1
 _ZN8casacore16MCRadialVelocityD2Ev@Base 3.2.1
 _ZN8casacore16MeasTableMulAber10theirMABERE@Base 3.2.1
 _ZN8casacore16MeasTableMulAber12theirMABERTDE@Base 3.2.1
 _ZN8casacore16MeasTableMulAber4calcERNS_6MatrixIdEEd@Base 3.2.1
 _ZN8casacore16MeasTableMulAber4initEv@Base 3.2.1
 _ZN8casacore16MeasTableMulAberC1Ev@Base 3.2.1
 _ZN8casacore16MeasTableMulAberC2Ev@Base 3.2.1
 _ZN8casacore16MeasTableMulAberD0Ev@Base 3.2.1
 _ZN8casacore16MeasTableMulAberD1Ev@Base 3.2.1
 _ZN8casacore16MeasTableMulAberD2Ev@Base 3.2.1
 _ZN8casacore16TableMeasRefDesc10initTabRefERKNS_13MeasureHolderE@Base 3.2.1
 _ZN8casacore16TableMeasRefDesc11checkColumnERKNS_9TableDescE@Base 3.2.1
 _ZN8casacore16TableMeasRefDesc11resetOffsetERKNS_7MeasureE@Base 3.2.1
 _ZN8casacore16TableMeasRefDesc12resetRefCodeEj@Base 3.2.1
 _ZN8casacore16TableMeasRefDesc13fillTabRefMapERKNS_13MeasureHolderE@Base 3.2.1
 _ZN8casacore16TableMeasRefDesc13initTabRefMapEv@Base 3.2.1
 _ZN8casacore16TableMeasRefDesc14theirTypesFuncE@Base 3.2.1
 _ZN8casacore16TableMeasRefDesc16defaultTypesFuncERNS_6VectorINS_6StringEEERNS1_IjEERKNS_13MeasureHolderE@Base 3.2.1
 _ZN8casacore16TableMeasRefDesc5writeERNS_5TableERNS_11TableRecordERKNS_17TableMeasDescBaseE@Base 3.2.1
 _ZN8casacore16TableMeasRefDesc5writeERNS_9TableDescERNS_11TableRecordERKNS_17TableMeasDescBaseE@Base 3.2.1
 _ZN8casacore16TableMeasRefDesc7fillMapERNS_5BlockIiEERKNS_6VectorIjEERKNS4_INS_6StringEEERS5_RS9_i@Base 3.2.1
 _ZN8casacore16TableMeasRefDesc9writeKeysERNS_11TableRecordERKNS_17TableMeasDescBaseE@Base 3.2.1
 _ZN8casacore16TableMeasRefDescC1ERKNS_11TableRecordERKNS_5TableERKNS_13MeasureHolderERKNS_17TableMeasDescBaseE@Base 3.2.1
 _ZN8casacore16TableMeasRefDescC1ERKNS_9TableDescERKNS_6StringE@Base 3.2.1
 _ZN8casacore16TableMeasRefDescC1ERKNS_9TableDescERKNS_6StringERKNS_19TableMeasOffsetDescE@Base 3.2.1
 _ZN8casacore16TableMeasRefDescC1ERKS0_@Base 3.2.1
 _ZN8casacore16TableMeasRefDescC1Ej@Base 3.2.1
 _ZN8casacore16TableMeasRefDescC1EjRKNS_19TableMeasOffsetDescE@Base 3.2.1
 _ZN8casacore16TableMeasRefDescC2ERKNS_11TableRecordERKNS_5TableERKNS_13MeasureHolderERKNS_17TableMeasDescBaseE@Base 3.2.1
 _ZN8casacore16TableMeasRefDescC2ERKNS_9TableDescERKNS_6StringE@Base 3.2.1
 _ZN8casacore16TableMeasRefDescC2ERKNS_9TableDescERKNS_6StringERKNS_19TableMeasOffsetDescE@Base 3.2.1
 _ZN8casacore16TableMeasRefDescC2ERKS0_@Base 3.2.1
 _ZN8casacore16TableMeasRefDescC2Ej@Base 3.2.1
 _ZN8casacore16TableMeasRefDescC2EjRKNS_19TableMeasOffsetDescE@Base 3.2.1
 _ZN8casacore16TableMeasRefDescD1Ev@Base 3.2.1
 _ZN8casacore16TableMeasRefDescD2Ev@Base 3.2.1
 _ZN8casacore16TableMeasRefDescaSERKS0_@Base 3.2.1
 _ZN8casacore16TableQuantumDesc11reconstructERKNS_9TableDescERKNS_6StringE@Base 3.2.1
 _ZN8casacore16TableQuantumDesc5writeERNS_5TableE@Base 3.2.1
 _ZN8casacore16TableQuantumDesc5writeERNS_9TableDescE@Base 3.2.1
 _ZN8casacore16TableQuantumDesc9hasQuantaERKNS_11TableColumnE@Base 3.2.1
 _ZN8casacore16TableQuantumDesc9writeKeysERNS_11TableRecordE@Base 3.2.1
 _ZN8casacore16TableQuantumDescC1ERKNS_9TableDescERKNS_6StringE@Base 3.2.1
 _ZN8casacore16TableQuantumDescC1ERKNS_9TableDescERKNS_6StringEPKc@Base 3.2.1
 _ZN8casacore16TableQuantumDescC1ERKNS_9TableDescERKNS_6StringERKNS_4UnitE@Base 3.2.1
 _ZN8casacore16TableQuantumDescC1ERKNS_9TableDescERKNS_6StringERKNS_6VectorINS_4UnitEEE@Base 3.2.1
 _ZN8casacore16TableQuantumDescC1ERKNS_9TableDescERKNS_6StringERKNS_6VectorIS4_EE@Base 3.2.1
 _ZN8casacore16TableQuantumDescC1ERKNS_9TableDescERKNS_6StringES6_@Base 3.2.1
 _ZN8casacore16TableQuantumDescC1ERKS0_@Base 3.2.1
 _ZN8casacore16TableQuantumDescC2ERKNS_9TableDescERKNS_6StringE@Base 3.2.1
 _ZN8casacore16TableQuantumDescC2ERKNS_9TableDescERKNS_6StringEPKc@Base 3.2.1
 _ZN8casacore16TableQuantumDescC2ERKNS_9TableDescERKNS_6StringERKNS_4UnitE@Base 3.2.1
 _ZN8casacore16TableQuantumDescC2ERKNS_9TableDescERKNS_6StringERKNS_6VectorINS_4UnitEEE@Base 3.2.1
 _ZN8casacore16TableQuantumDescC2ERKNS_9TableDescERKNS_6StringERKNS_6VectorIS4_EE@Base 3.2.1
 _ZN8casacore16TableQuantumDescC2ERKNS_9TableDescERKNS_6StringES6_@Base 3.2.1
 _ZN8casacore16TableQuantumDescC2ERKS0_@Base 3.2.1
 _ZN8casacore16TableQuantumDescD1Ev@Base 3.2.1
 _ZN8casacore16TableQuantumDescD2Ev@Base 3.2.1
 _ZN8casacore16TableQuantumDescaSERKS0_@Base 3.2.1
 _ZN8casacore17Allocator_private17BulkAllocatorImplINS_17new_del_allocatorINS_10MDirectionEEEE10deallocateEPS3_m@Base 3.2.1
 _ZN8casacore17Allocator_private17BulkAllocatorImplINS_17new_del_allocatorINS_10MDirectionEEEE7destroyEPS3_m@Base 3.2.1
 _ZN8casacore17Allocator_private17BulkAllocatorImplINS_17new_del_allocatorINS_10MDirectionEEEE8allocateEmPKv@Base 3.2.1
 _ZN8casacore17Allocator_private17BulkAllocatorImplINS_17new_del_allocatorINS_10MDirectionEEEE9allocatorE@Base 3.2.1
 _ZN8casacore17Allocator_private17BulkAllocatorImplINS_17new_del_allocatorINS_10MDirectionEEEE9constructEPS3_m@Base 3.2.1
 _ZN8casacore17Allocator_private17BulkAllocatorImplINS_17new_del_allocatorINS_10MDirectionEEEE9constructEPS3_mPKS3_@Base 3.2.1
 _ZN8casacore17Allocator_private17BulkAllocatorImplINS_17new_del_allocatorINS_10MDirectionEEEE9constructEPS3_mRKS3_@Base 3.2.1
 _ZN8casacore17Allocator_private17BulkAllocatorImplINS_17new_del_allocatorINS_10MDirectionEEEED0Ev@Base 3.2.1
 _ZN8casacore17Allocator_private17BulkAllocatorImplINS_17new_del_allocatorINS_10MDirectionEEEED1Ev@Base 3.2.1
 _ZN8casacore17Allocator_private17BulkAllocatorImplINS_17new_del_allocatorINS_10MDirectionEEEED2Ev@Base 3.2.1
 _ZN8casacore17Allocator_private17BulkAllocatorImplINS_17new_del_allocatorINS_10MFrequencyEEEE10deallocateEPS3_m@Base 3.2.1
 _ZN8casacore17Allocator_private17BulkAllocatorImplINS_17new_del_allocatorINS_10MFrequencyEEEE7destroyEPS3_m@Base 3.2.1
 _ZN8casacore17Allocator_private17BulkAllocatorImplINS_17new_del_allocatorINS_10MFrequencyEEEE8allocateEmPKv@Base 3.2.1
 _ZN8casacore17Allocator_private17BulkAllocatorImplINS_17new_del_allocatorINS_10MFrequencyEEEE9allocatorE@Base 3.2.1
 _ZN8casacore17Allocator_private17BulkAllocatorImplINS_17new_del_allocatorINS_10MFrequencyEEEE9constructEPS3_m@Base 3.2.1
 _ZN8casacore17Allocator_private17BulkAllocatorImplINS_17new_del_allocatorINS_10MFrequencyEEEE9constructEPS3_mPKS3_@Base 3.2.1
 _ZN8casacore17Allocator_private17BulkAllocatorImplINS_17new_del_allocatorINS_10MFrequencyEEEE9constructEPS3_mRKS3_@Base 3.2.1
 _ZN8casacore17Allocator_private17BulkAllocatorImplINS_17new_del_allocatorINS_10MFrequencyEEEED0Ev@Base 3.2.1
 _ZN8casacore17Allocator_private17BulkAllocatorImplINS_17new_del_allocatorINS_10MFrequencyEEEED1Ev@Base 3.2.1
 _ZN8casacore17Allocator_private17BulkAllocatorImplINS_17new_del_allocatorINS_10MFrequencyEEEED2Ev@Base 3.2.1
 _ZN8casacore17Allocator_private17BulkAllocatorImplINS_17new_del_allocatorINS_10MVPositionEEEE10deallocateEPS3_m@Base 3.2.1
 _ZN8casacore17Allocator_private17BulkAllocatorImplINS_17new_del_allocatorINS_10MVPositionEEEE7destroyEPS3_m@Base 3.2.1
 _ZN8casacore17Allocator_private17BulkAllocatorImplINS_17new_del_allocatorINS_10MVPositionEEEE8allocateEmPKv@Base 3.2.1
 _ZN8casacore17Allocator_private17BulkAllocatorImplINS_17new_del_allocatorINS_10MVPositionEEEE9allocatorE@Base 3.2.1
 _ZN8casacore17Allocator_private17BulkAllocatorImplINS_17new_del_allocatorINS_10MVPositionEEEE9constructEPS3_m@Base 3.2.1
 _ZN8casacore17Allocator_private17BulkAllocatorImplINS_17new_del_allocatorINS_10MVPositionEEEE9constructEPS3_mPKS3_@Base 3.2.1
 _ZN8casacore17Allocator_private17BulkAllocatorImplINS_17new_del_allocatorINS_10MVPositionEEEE9constructEPS3_mRKS3_@Base 3.2.1
 _ZN8casacore17Allocator_private17BulkAllocatorImplINS_17new_del_allocatorINS_10MVPositionEEEED0Ev@Base 3.2.1
 _ZN8casacore17Allocator_private17BulkAllocatorImplINS_17new_del_allocatorINS_10MVPositionEEEED1Ev@Base 3.2.1
 _ZN8casacore17Allocator_private17BulkAllocatorImplINS_17new_del_allocatorINS_10MVPositionEEEED2Ev@Base 3.2.1
 _ZN8casacore17Allocator_private17BulkAllocatorImplINS_17new_del_allocatorINS_16RORecordFieldPtrIdEEEEE10deallocateEPS4_m@Base 3.2.1
 _ZN8casacore17Allocator_private17BulkAllocatorImplINS_17new_del_allocatorINS_16RORecordFieldPtrIdEEEEE7destroyEPS4_m@Base 3.2.1
 _ZN8casacore17Allocator_private17BulkAllocatorImplINS_17new_del_allocatorINS_16RORecordFieldPtrIdEEEEE8allocateEmPKv@Base 3.2.1
 _ZN8casacore17Allocator_private17BulkAllocatorImplINS_17new_del_allocatorINS_16RORecordFieldPtrIdEEEEE9allocatorE@Base 3.2.1
 _ZN8casacore17Allocator_private17BulkAllocatorImplINS_17new_del_allocatorINS_16RORecordFieldPtrIdEEEEE9constructEPS4_m@Base 3.2.1
 _ZN8casacore17Allocator_private17BulkAllocatorImplINS_17new_del_allocatorINS_16RORecordFieldPtrIdEEEEE9constructEPS4_mPKS4_@Base 3.2.1
 _ZN8casacore17Allocator_private17BulkAllocatorImplINS_17new_del_allocatorINS_16RORecordFieldPtrIdEEEEE9constructEPS4_mRKS4_@Base 3.2.1
 _ZN8casacore17Allocator_private17BulkAllocatorImplINS_17new_del_allocatorINS_16RORecordFieldPtrIdEEEEED0Ev@Base 3.2.1
 _ZN8casacore17Allocator_private17BulkAllocatorImplINS_17new_del_allocatorINS_16RORecordFieldPtrIdEEEEED1Ev@Base 3.2.1
 _ZN8casacore17Allocator_private17BulkAllocatorImplINS_17new_del_allocatorINS_16RORecordFieldPtrIdEEEEED2Ev@Base 3.2.1
 _ZN8casacore17Allocator_private17BulkAllocatorImplINS_17new_del_allocatorINS_4UnitEEEE10deallocateEPS3_m@Base 3.2.1
 _ZN8casacore17Allocator_private17BulkAllocatorImplINS_17new_del_allocatorINS_4UnitEEEE7destroyEPS3_m@Base 3.2.1
 _ZN8casacore17Allocator_private17BulkAllocatorImplINS_17new_del_allocatorINS_4UnitEEEE8allocateEmPKv@Base 3.2.1
 _ZN8casacore17Allocator_private17BulkAllocatorImplINS_17new_del_allocatorINS_4UnitEEEE9allocatorE@Base 3.2.1
 _ZN8casacore17Allocator_private17BulkAllocatorImplINS_17new_del_allocatorINS_4UnitEEEE9constructEPS3_m@Base 3.2.1
 _ZN8casacore17Allocator_private17BulkAllocatorImplINS_17new_del_allocatorINS_4UnitEEEE9constructEPS3_mPKS3_@Base 3.2.1
 _ZN8casacore17Allocator_private17BulkAllocatorImplINS_17new_del_allocatorINS_4UnitEEEE9constructEPS3_mRKS3_@Base 3.2.1
 _ZN8casacore17Allocator_private17BulkAllocatorImplINS_17new_del_allocatorINS_4UnitEEEED0Ev@Base 3.2.1
 _ZN8casacore17Allocator_private17BulkAllocatorImplINS_17new_del_allocatorINS_4UnitEEEED1Ev@Base 3.2.1
 _ZN8casacore17Allocator_private17BulkAllocatorImplINS_17new_del_allocatorINS_4UnitEEEED2Ev@Base 3.2.1
 _ZN8casacore17Allocator_private17BulkAllocatorImplINS_17new_del_allocatorINS_6VectorIdEEEEE10deallocateEPS4_m@Base 3.2.1
 _ZN8casacore17Allocator_private17BulkAllocatorImplINS_17new_del_allocatorINS_6VectorIdEEEEE7destroyEPS4_m@Base 3.2.1
 _ZN8casacore17Allocator_private17BulkAllocatorImplINS_17new_del_allocatorINS_6VectorIdEEEEE8allocateEmPKv@Base 3.2.1
 _ZN8casacore17Allocator_private17BulkAllocatorImplINS_17new_del_allocatorINS_6VectorIdEEEEE9allocatorE@Base 3.2.1
 _ZN8casacore17Allocator_private17BulkAllocatorImplINS_17new_del_allocatorINS_6VectorIdEEEEE9constructEPS4_m@Base 3.2.1
 _ZN8casacore17Allocator_private17BulkAllocatorImplINS_17new_del_allocatorINS_6VectorIdEEEEE9constructEPS4_mPKS4_@Base 3.2.1
 _ZN8casacore17Allocator_private17BulkAllocatorImplINS_17new_del_allocatorINS_6VectorIdEEEEE9constructEPS4_mRKS4_@Base 3.2.1
 _ZN8casacore17Allocator_private17BulkAllocatorImplINS_17new_del_allocatorINS_6VectorIdEEEEED0Ev@Base 3.2.1
 _ZN8casacore17Allocator_private17BulkAllocatorImplINS_17new_del_allocatorINS_6VectorIdEEEEED1Ev@Base 3.2.1
 _ZN8casacore17Allocator_private17BulkAllocatorImplINS_17new_del_allocatorINS_6VectorIdEEEEED2Ev@Base 3.2.1
 _ZN8casacore17Allocator_private17BulkAllocatorImplINS_17new_del_allocatorINS_7QuantumIdEEEEE10deallocateEPS4_m@Base 3.2.1
 _ZN8casacore17Allocator_private17BulkAllocatorImplINS_17new_del_allocatorINS_7QuantumIdEEEEE7destroyEPS4_m@Base 3.2.1
 _ZN8casacore17Allocator_private17BulkAllocatorImplINS_17new_del_allocatorINS_7QuantumIdEEEEE8allocateEmPKv@Base 3.2.1
 _ZN8casacore17Allocator_private17BulkAllocatorImplINS_17new_del_allocatorINS_7QuantumIdEEEEE9allocatorE@Base 3.2.1
 _ZN8casacore17Allocator_private17BulkAllocatorImplINS_17new_del_allocatorINS_7QuantumIdEEEEE9constructEPS4_m@Base 3.2.1
 _ZN8casacore17Allocator_private17BulkAllocatorImplINS_17new_del_allocatorINS_7QuantumIdEEEEE9constructEPS4_mPKS4_@Base 3.2.1
 _ZN8casacore17Allocator_private17BulkAllocatorImplINS_17new_del_allocatorINS_7QuantumIdEEEEE9constructEPS4_mRKS4_@Base 3.2.1
 _ZN8casacore17Allocator_private17BulkAllocatorImplINS_17new_del_allocatorINS_7QuantumIdEEEEED0Ev@Base 3.2.1
 _ZN8casacore17Allocator_private17BulkAllocatorImplINS_17new_del_allocatorINS_7QuantumIdEEEEED1Ev@Base 3.2.1
 _ZN8casacore17Allocator_private17BulkAllocatorImplINS_17new_del_allocatorINS_7QuantumIdEEEEED2Ev@Base 3.2.1
 _ZN8casacore17Allocator_private17BulkAllocatorImplINS_17new_del_allocatorINS_8AutoDiffIdEEEEE10deallocateEPS4_m@Base 3.2.1
 _ZN8casacore17Allocator_private17BulkAllocatorImplINS_17new_del_allocatorINS_8AutoDiffIdEEEEE7destroyEPS4_m@Base 3.2.1
 _ZN8casacore17Allocator_private17BulkAllocatorImplINS_17new_del_allocatorINS_8AutoDiffIdEEEEE8allocateEmPKv@Base 3.2.1
 _ZN8casacore17Allocator_private17BulkAllocatorImplINS_17new_del_allocatorINS_8AutoDiffIdEEEEE9allocatorE@Base 3.2.1
 _ZN8casacore17Allocator_private17BulkAllocatorImplINS_17new_del_allocatorINS_8AutoDiffIdEEEEE9constructEPS4_m@Base 3.2.1
 _ZN8casacore17Allocator_private17BulkAllocatorImplINS_17new_del_allocatorINS_8AutoDiffIdEEEEE9constructEPS4_mPKS4_@Base 3.2.1
 _ZN8casacore17Allocator_private17BulkAllocatorImplINS_17new_del_allocatorINS_8AutoDiffIdEEEEE9constructEPS4_mRKS4_@Base 3.2.1
 _ZN8casacore17Allocator_private17BulkAllocatorImplINS_17new_del_allocatorINS_8AutoDiffIdEEEEED0Ev@Base 3.2.1
 _ZN8casacore17Allocator_private17BulkAllocatorImplINS_17new_del_allocatorINS_8AutoDiffIdEEEEED1Ev@Base 3.2.1
 _ZN8casacore17Allocator_private17BulkAllocatorImplINS_17new_del_allocatorINS_8AutoDiffIdEEEEED2Ev@Base 3.2.1
 _ZN8casacore17Allocator_private17BulkAllocatorImplINS_17new_del_allocatorINS_9MPositionEEEE10deallocateEPS3_m@Base 3.2.1
 _ZN8casacore17Allocator_private17BulkAllocatorImplINS_17new_del_allocatorINS_9MPositionEEEE7destroyEPS3_m@Base 3.2.1
 _ZN8casacore17Allocator_private17BulkAllocatorImplINS_17new_del_allocatorINS_9MPositionEEEE8allocateEmPKv@Base 3.2.1
 _ZN8casacore17Allocator_private17BulkAllocatorImplINS_17new_del_allocatorINS_9MPositionEEEE9allocatorE@Base 3.2.1
 _ZN8casacore17Allocator_private17BulkAllocatorImplINS_17new_del_allocatorINS_9MPositionEEEE9constructEPS3_m@Base 3.2.1
 _ZN8casacore17Allocator_private17BulkAllocatorImplINS_17new_del_allocatorINS_9MPositionEEEE9constructEPS3_mPKS3_@Base 3.2.1
 _ZN8casacore17Allocator_private17BulkAllocatorImplINS_17new_del_allocatorINS_9MPositionEEEE9constructEPS3_mRKS3_@Base 3.2.1
 _ZN8casacore17Allocator_private17BulkAllocatorImplINS_17new_del_allocatorINS_9MPositionEEEED0Ev@Base 3.2.1
 _ZN8casacore17Allocator_private17BulkAllocatorImplINS_17new_del_allocatorINS_9MPositionEEEED1Ev@Base 3.2.1
 _ZN8casacore17Allocator_private17BulkAllocatorImplINS_17new_del_allocatorINS_9MPositionEEEED2Ev@Base 3.2.1
 _ZN8casacore17Allocator_private17BulkAllocatorImplINS_17new_del_allocatorIPNS_6SlicerEEEE10deallocateEPS4_m@Base 3.2.1
 _ZN8casacore17Allocator_private17BulkAllocatorImplINS_17new_del_allocatorIPNS_6SlicerEEEE7destroyEPS4_m@Base 3.2.1
 _ZN8casacore17Allocator_private17BulkAllocatorImplINS_17new_del_allocatorIPNS_6SlicerEEEE8allocateEmPKv@Base 3.2.1
 _ZN8casacore17Allocator_private17BulkAllocatorImplINS_17new_del_allocatorIPNS_6SlicerEEEE9allocatorE@Base 3.2.1
 _ZN8casacore17Allocator_private17BulkAllocatorImplINS_17new_del_allocatorIPNS_6SlicerEEEE9constructEPS4_m@Base 3.2.1
 _ZN8casacore17Allocator_private17BulkAllocatorImplINS_17new_del_allocatorIPNS_6SlicerEEEE9constructEPS4_mPKS4_@Base 3.2.1
 _ZN8casacore17Allocator_private17BulkAllocatorImplINS_17new_del_allocatorIPNS_6SlicerEEEE9constructEPS4_mRKS4_@Base 3.2.1
 _ZN8casacore17Allocator_private17BulkAllocatorImplINS_17new_del_allocatorIPNS_6SlicerEEEED0Ev@Base 3.2.1
 _ZN8casacore17Allocator_private17BulkAllocatorImplINS_17new_del_allocatorIPNS_6SlicerEEEED1Ev@Base 3.2.1
 _ZN8casacore17Allocator_private17BulkAllocatorImplINS_17new_del_allocatorIPNS_6SlicerEEEED2Ev@Base 3.2.1
 _ZN8casacore17Allocator_private17BulkAllocatorImplINS_18casacore_allocatorINS_10MDirectionELm32EEEE10deallocateEPS3_m@Base 3.2.1
 _ZN8casacore17Allocator_private17BulkAllocatorImplINS_18casacore_allocatorINS_10MDirectionELm32EEEE7destroyEPS3_m@Base 3.2.1
 _ZN8casacore17Allocator_private17BulkAllocatorImplINS_18casacore_allocatorINS_10MDirectionELm32EEEE8allocateEmPKv@Base 3.2.1
 _ZN8casacore17Allocator_private17BulkAllocatorImplINS_18casacore_allocatorINS_10MDirectionELm32EEEE9allocatorE@Base 3.2.1
 _ZN8casacore17Allocator_private17BulkAllocatorImplINS_18casacore_allocatorINS_10MDirectionELm32EEEE9constructEPS3_m@Base 3.2.1
 _ZN8casacore17Allocator_private17BulkAllocatorImplINS_18casacore_allocatorINS_10MDirectionELm32EEEE9constructEPS3_mPKS3_@Base 3.2.1
 _ZN8casacore17Allocator_private17BulkAllocatorImplINS_18casacore_allocatorINS_10MDirectionELm32EEEE9constructEPS3_mRKS3_@Base 3.2.1
 _ZN8casacore17Allocator_private17BulkAllocatorImplINS_18casacore_allocatorINS_10MDirectionELm32EEEED0Ev@Base 3.2.1
 _ZN8casacore17Allocator_private17BulkAllocatorImplINS_18casacore_allocatorINS_10MDirectionELm32EEEED1Ev@Base 3.2.1
 _ZN8casacore17Allocator_private17BulkAllocatorImplINS_18casacore_allocatorINS_10MDirectionELm32EEEED2Ev@Base 3.2.1
 _ZN8casacore17Allocator_private17BulkAllocatorImplINS_18casacore_allocatorINS_10MFrequencyELm32EEEE10deallocateEPS3_m@Base 3.2.1
 _ZN8casacore17Allocator_private17BulkAllocatorImplINS_18casacore_allocatorINS_10MFrequencyELm32EEEE7destroyEPS3_m@Base 3.2.1
 _ZN8casacore17Allocator_private17BulkAllocatorImplINS_18casacore_allocatorINS_10MFrequencyELm32EEEE8allocateEmPKv@Base 3.2.1
 _ZN8casacore17Allocator_private17BulkAllocatorImplINS_18casacore_allocatorINS_10MFrequencyELm32EEEE9allocatorE@Base 3.2.1
 _ZN8casacore17Allocator_private17BulkAllocatorImplINS_18casacore_allocatorINS_10MFrequencyELm32EEEE9constructEPS3_m@Base 3.2.1
 _ZN8casacore17Allocator_private17BulkAllocatorImplINS_18casacore_allocatorINS_10MFrequencyELm32EEEE9constructEPS3_mPKS3_@Base 3.2.1
 _ZN8casacore17Allocator_private17BulkAllocatorImplINS_18casacore_allocatorINS_10MFrequencyELm32EEEE9constructEPS3_mRKS3_@Base 3.2.1
 _ZN8casacore17Allocator_private17BulkAllocatorImplINS_18casacore_allocatorINS_10MFrequencyELm32EEEED0Ev@Base 3.2.1
 _ZN8casacore17Allocator_private17BulkAllocatorImplINS_18casacore_allocatorINS_10MFrequencyELm32EEEED1Ev@Base 3.2.1
 _ZN8casacore17Allocator_private17BulkAllocatorImplINS_18casacore_allocatorINS_10MFrequencyELm32EEEED2Ev@Base 3.2.1
 _ZN8casacore17Allocator_private17BulkAllocatorImplINS_18casacore_allocatorINS_10MVPositionELm32EEEE10deallocateEPS3_m@Base 3.2.1
 _ZN8casacore17Allocator_private17BulkAllocatorImplINS_18casacore_allocatorINS_10MVPositionELm32EEEE7destroyEPS3_m@Base 3.2.1
 _ZN8casacore17Allocator_private17BulkAllocatorImplINS_18casacore_allocatorINS_10MVPositionELm32EEEE8allocateEmPKv@Base 3.2.1
 _ZN8casacore17Allocator_private17BulkAllocatorImplINS_18casacore_allocatorINS_10MVPositionELm32EEEE9allocatorE@Base 3.2.1
 _ZN8casacore17Allocator_private17BulkAllocatorImplINS_18casacore_allocatorINS_10MVPositionELm32EEEE9constructEPS3_m@Base 3.2.1
 _ZN8casacore17Allocator_private17BulkAllocatorImplINS_18casacore_allocatorINS_10MVPositionELm32EEEE9constructEPS3_mPKS3_@Base 3.2.1
 _ZN8casacore17Allocator_private17BulkAllocatorImplINS_18casacore_allocatorINS_10MVPositionELm32EEEE9constructEPS3_mRKS3_@Base 3.2.1
 _ZN8casacore17Allocator_private17BulkAllocatorImplINS_18casacore_allocatorINS_10MVPositionELm32EEEED0Ev@Base 3.2.1
 _ZN8casacore17Allocator_private17BulkAllocatorImplINS_18casacore_allocatorINS_10MVPositionELm32EEEED1Ev@Base 3.2.1
 _ZN8casacore17Allocator_private17BulkAllocatorImplINS_18casacore_allocatorINS_10MVPositionELm32EEEED2Ev@Base 3.2.1
 _ZN8casacore17Allocator_private17BulkAllocatorImplINS_18casacore_allocatorINS_16RORecordFieldPtrIdEELm32EEEE10deallocateEPS4_m@Base 3.2.1
 _ZN8casacore17Allocator_private17BulkAllocatorImplINS_18casacore_allocatorINS_16RORecordFieldPtrIdEELm32EEEE7destroyEPS4_m@Base 3.2.1
 _ZN8casacore17Allocator_private17BulkAllocatorImplINS_18casacore_allocatorINS_16RORecordFieldPtrIdEELm32EEEE8allocateEmPKv@Base 3.2.1
 _ZN8casacore17Allocator_private17BulkAllocatorImplINS_18casacore_allocatorINS_16RORecordFieldPtrIdEELm32EEEE9allocatorE@Base 3.2.1
 _ZN8casacore17Allocator_private17BulkAllocatorImplINS_18casacore_allocatorINS_16RORecordFieldPtrIdEELm32EEEE9constructEPS4_m@Base 3.2.1
 _ZN8casacore17Allocator_private17BulkAllocatorImplINS_18casacore_allocatorINS_16RORecordFieldPtrIdEELm32EEEE9constructEPS4_mPKS4_@Base 3.2.1
 _ZN8casacore17Allocator_private17BulkAllocatorImplINS_18casacore_allocatorINS_16RORecordFieldPtrIdEELm32EEEE9constructEPS4_mRKS4_@Base 3.2.1
 _ZN8casacore17Allocator_private17BulkAllocatorImplINS_18casacore_allocatorINS_16RORecordFieldPtrIdEELm32EEEED0Ev@Base 3.2.1
 _ZN8casacore17Allocator_private17BulkAllocatorImplINS_18casacore_allocatorINS_16RORecordFieldPtrIdEELm32EEEED1Ev@Base 3.2.1
 _ZN8casacore17Allocator_private17BulkAllocatorImplINS_18casacore_allocatorINS_16RORecordFieldPtrIdEELm32EEEED2Ev@Base 3.2.1
 _ZN8casacore17Allocator_private17BulkAllocatorImplINS_18casacore_allocatorINS_4UnitELm32EEEE10deallocateEPS3_m@Base 3.2.1
 _ZN8casacore17Allocator_private17BulkAllocatorImplINS_18casacore_allocatorINS_4UnitELm32EEEE7destroyEPS3_m@Base 3.2.1
 _ZN8casacore17Allocator_private17BulkAllocatorImplINS_18casacore_allocatorINS_4UnitELm32EEEE8allocateEmPKv@Base 3.2.1
 _ZN8casacore17Allocator_private17BulkAllocatorImplINS_18casacore_allocatorINS_4UnitELm32EEEE9allocatorE@Base 3.2.1
 _ZN8casacore17Allocator_private17BulkAllocatorImplINS_18casacore_allocatorINS_4UnitELm32EEEE9constructEPS3_m@Base 3.2.1
 _ZN8casacore17Allocator_private17BulkAllocatorImplINS_18casacore_allocatorINS_4UnitELm32EEEE9constructEPS3_mPKS3_@Base 3.2.1
 _ZN8casacore17Allocator_private17BulkAllocatorImplINS_18casacore_allocatorINS_4UnitELm32EEEE9constructEPS3_mRKS3_@Base 3.2.1
 _ZN8casacore17Allocator_private17BulkAllocatorImplINS_18casacore_allocatorINS_4UnitELm32EEEED0Ev@Base 3.2.1
 _ZN8casacore17Allocator_private17BulkAllocatorImplINS_18casacore_allocatorINS_4UnitELm32EEEED1Ev@Base 3.2.1
 _ZN8casacore17Allocator_private17BulkAllocatorImplINS_18casacore_allocatorINS_4UnitELm32EEEED2Ev@Base 3.2.1
 _ZN8casacore17Allocator_private17BulkAllocatorImplINS_18casacore_allocatorINS_6StringELm32EEEE9allocatorE@Base 3.2.1
 _ZN8casacore17Allocator_private17BulkAllocatorImplINS_18casacore_allocatorINS_6VectorIdEELm32EEEE10deallocateEPS4_m@Base 3.2.1
 _ZN8casacore17Allocator_private17BulkAllocatorImplINS_18casacore_allocatorINS_6VectorIdEELm32EEEE7destroyEPS4_m@Base 3.2.1
 _ZN8casacore17Allocator_private17BulkAllocatorImplINS_18casacore_allocatorINS_6VectorIdEELm32EEEE8allocateEmPKv@Base 3.2.1
 _ZN8casacore17Allocator_private17BulkAllocatorImplINS_18casacore_allocatorINS_6VectorIdEELm32EEEE9allocatorE@Base 3.2.1
 _ZN8casacore17Allocator_private17BulkAllocatorImplINS_18casacore_allocatorINS_6VectorIdEELm32EEEE9constructEPS4_m@Base 3.2.1
 _ZN8casacore17Allocator_private17BulkAllocatorImplINS_18casacore_allocatorINS_6VectorIdEELm32EEEE9constructEPS4_mPKS4_@Base 3.2.1
 _ZN8casacore17Allocator_private17BulkAllocatorImplINS_18casacore_allocatorINS_6VectorIdEELm32EEEE9constructEPS4_mRKS4_@Base 3.2.1
 _ZN8casacore17Allocator_private17BulkAllocatorImplINS_18casacore_allocatorINS_6VectorIdEELm32EEEED0Ev@Base 3.2.1
 _ZN8casacore17Allocator_private17BulkAllocatorImplINS_18casacore_allocatorINS_6VectorIdEELm32EEEED1Ev@Base 3.2.1
 _ZN8casacore17Allocator_private17BulkAllocatorImplINS_18casacore_allocatorINS_6VectorIdEELm32EEEED2Ev@Base 3.2.1
 _ZN8casacore17Allocator_private17BulkAllocatorImplINS_18casacore_allocatorINS_7QuantumIdEELm32EEEE10deallocateEPS4_m@Base 3.2.1
 _ZN8casacore17Allocator_private17BulkAllocatorImplINS_18casacore_allocatorINS_7QuantumIdEELm32EEEE7destroyEPS4_m@Base 3.2.1
 _ZN8casacore17Allocator_private17BulkAllocatorImplINS_18casacore_allocatorINS_7QuantumIdEELm32EEEE8allocateEmPKv@Base 3.2.1
 _ZN8casacore17Allocator_private17BulkAllocatorImplINS_18casacore_allocatorINS_7QuantumIdEELm32EEEE9allocatorE@Base 3.2.1
 _ZN8casacore17Allocator_private17BulkAllocatorImplINS_18casacore_allocatorINS_7QuantumIdEELm32EEEE9constructEPS4_m@Base 3.2.1
 _ZN8casacore17Allocator_private17BulkAllocatorImplINS_18casacore_allocatorINS_7QuantumIdEELm32EEEE9constructEPS4_mPKS4_@Base 3.2.1
 _ZN8casacore17Allocator_private17BulkAllocatorImplINS_18casacore_allocatorINS_7QuantumIdEELm32EEEE9constructEPS4_mRKS4_@Base 3.2.1
 _ZN8casacore17Allocator_private17BulkAllocatorImplINS_18casacore_allocatorINS_7QuantumIdEELm32EEEED0Ev@Base 3.2.1
 _ZN8casacore17Allocator_private17BulkAllocatorImplINS_18casacore_allocatorINS_7QuantumIdEELm32EEEED1Ev@Base 3.2.1
 _ZN8casacore17Allocator_private17BulkAllocatorImplINS_18casacore_allocatorINS_7QuantumIdEELm32EEEED2Ev@Base 3.2.1
 _ZN8casacore17Allocator_private17BulkAllocatorImplINS_18casacore_allocatorINS_8AutoDiffIdEELm32EEEE10deallocateEPS4_m@Base 3.2.1
 _ZN8casacore17Allocator_private17BulkAllocatorImplINS_18casacore_allocatorINS_8AutoDiffIdEELm32EEEE7destroyEPS4_m@Base 3.2.1
 _ZN8casacore17Allocator_private17BulkAllocatorImplINS_18casacore_allocatorINS_8AutoDiffIdEELm32EEEE8allocateEmPKv@Base 3.2.1
 _ZN8casacore17Allocator_private17BulkAllocatorImplINS_18casacore_allocatorINS_8AutoDiffIdEELm32EEEE9allocatorE@Base 3.2.1
 _ZN8casacore17Allocator_private17BulkAllocatorImplINS_18casacore_allocatorINS_8AutoDiffIdEELm32EEEE9constructEPS4_m@Base 3.2.1
 _ZN8casacore17Allocator_private17BulkAllocatorImplINS_18casacore_allocatorINS_8AutoDiffIdEELm32EEEE9constructEPS4_mPKS4_@Base 3.2.1
 _ZN8casacore17Allocator_private17BulkAllocatorImplINS_18casacore_allocatorINS_8AutoDiffIdEELm32EEEE9constructEPS4_mRKS4_@Base 3.2.1
 _ZN8casacore17Allocator_private17BulkAllocatorImplINS_18casacore_allocatorINS_8AutoDiffIdEELm32EEEED0Ev@Base 3.2.1
 _ZN8casacore17Allocator_private17BulkAllocatorImplINS_18casacore_allocatorINS_8AutoDiffIdEELm32EEEED1Ev@Base 3.2.1
 _ZN8casacore17Allocator_private17BulkAllocatorImplINS_18casacore_allocatorINS_8AutoDiffIdEELm32EEEED2Ev@Base 3.2.1
 _ZN8casacore17Allocator_private17BulkAllocatorImplINS_18casacore_allocatorINS_9MPositionELm32EEEE10deallocateEPS3_m@Base 3.2.1
 _ZN8casacore17Allocator_private17BulkAllocatorImplINS_18casacore_allocatorINS_9MPositionELm32EEEE7destroyEPS3_m@Base 3.2.1
 _ZN8casacore17Allocator_private17BulkAllocatorImplINS_18casacore_allocatorINS_9MPositionELm32EEEE8allocateEmPKv@Base 3.2.1
 _ZN8casacore17Allocator_private17BulkAllocatorImplINS_18casacore_allocatorINS_9MPositionELm32EEEE9allocatorE@Base 3.2.1
 _ZN8casacore17Allocator_private17BulkAllocatorImplINS_18casacore_allocatorINS_9MPositionELm32EEEE9constructEPS3_m@Base 3.2.1
 _ZN8casacore17Allocator_private17BulkAllocatorImplINS_18casacore_allocatorINS_9MPositionELm32EEEE9constructEPS3_mPKS3_@Base 3.2.1
 _ZN8casacore17Allocator_private17BulkAllocatorImplINS_18casacore_allocatorINS_9MPositionELm32EEEE9constructEPS3_mRKS3_@Base 3.2.1
 _ZN8casacore17Allocator_private17BulkAllocatorImplINS_18casacore_allocatorINS_9MPositionELm32EEEED0Ev@Base 3.2.1
 _ZN8casacore17Allocator_private17BulkAllocatorImplINS_18casacore_allocatorINS_9MPositionELm32EEEED1Ev@Base 3.2.1
 _ZN8casacore17Allocator_private17BulkAllocatorImplINS_18casacore_allocatorINS_9MPositionELm32EEEED2Ev@Base 3.2.1
 _ZN8casacore17Allocator_private17BulkAllocatorImplINS_18casacore_allocatorIPNS_6SlicerELm32EEEE10deallocateEPS4_m@Base 3.2.1
 _ZN8casacore17Allocator_private17BulkAllocatorImplINS_18casacore_allocatorIPNS_6SlicerELm32EEEE7destroyEPS4_m@Base 3.2.1
 _ZN8casacore17Allocator_private17BulkAllocatorImplINS_18casacore_allocatorIPNS_6SlicerELm32EEEE8allocateEmPKv@Base 3.2.1
 _ZN8casacore17Allocator_private17BulkAllocatorImplINS_18casacore_allocatorIPNS_6SlicerELm32EEEE9allocatorE@Base 3.2.1
 _ZN8casacore17Allocator_private17BulkAllocatorImplINS_18casacore_allocatorIPNS_6SlicerELm32EEEE9constructEPS4_m@Base 3.2.1
 _ZN8casacore17Allocator_private17BulkAllocatorImplINS_18casacore_allocatorIPNS_6SlicerELm32EEEE9constructEPS4_mPKS4_@Base 3.2.1
 _ZN8casacore17Allocator_private17BulkAllocatorImplINS_18casacore_allocatorIPNS_6SlicerELm32EEEE9constructEPS4_mRKS4_@Base 3.2.1
 _ZN8casacore17Allocator_private17BulkAllocatorImplINS_18casacore_allocatorIPNS_6SlicerELm32EEEED0Ev@Base 3.2.1
 _ZN8casacore17Allocator_private17BulkAllocatorImplINS_18casacore_allocatorIPNS_6SlicerELm32EEEED1Ev@Base 3.2.1
 _ZN8casacore17Allocator_private17BulkAllocatorImplINS_18casacore_allocatorIPNS_6SlicerELm32EEEED2Ev@Base 3.2.1
 _ZN8casacore17Allocator_private17BulkAllocatorImplINS_18casacore_allocatorIPNS_9MeasValueELm32EEEE10deallocateEPS4_m@Base 3.2.1
 _ZN8casacore17Allocator_private17BulkAllocatorImplINS_18casacore_allocatorIPNS_9MeasValueELm32EEEE7destroyEPS4_m@Base 3.2.1
 _ZN8casacore17Allocator_private17BulkAllocatorImplINS_18casacore_allocatorIPNS_9MeasValueELm32EEEE8allocateEmPKv@Base 3.2.1
 _ZN8casacore17Allocator_private17BulkAllocatorImplINS_18casacore_allocatorIPNS_9MeasValueELm32EEEE9allocatorE@Base 3.2.1
 _ZN8casacore17Allocator_private17BulkAllocatorImplINS_18casacore_allocatorIPNS_9MeasValueELm32EEEE9constructEPS4_m@Base 3.2.1
 _ZN8casacore17Allocator_private17BulkAllocatorImplINS_18casacore_allocatorIPNS_9MeasValueELm32EEEE9constructEPS4_mPKS4_@Base 3.2.1
 _ZN8casacore17Allocator_private17BulkAllocatorImplINS_18casacore_allocatorIPNS_9MeasValueELm32EEEE9constructEPS4_mRKS4_@Base 3.2.1
 _ZN8casacore17Allocator_private17BulkAllocatorImplINS_18casacore_allocatorIPNS_9MeasValueELm32EEEED0Ev@Base 3.2.1
 _ZN8casacore17Allocator_private17BulkAllocatorImplINS_18casacore_allocatorIPNS_9MeasValueELm32EEEED1Ev@Base 3.2.1
 _ZN8casacore17Allocator_private17BulkAllocatorImplINS_18casacore_allocatorIPNS_9MeasValueELm32EEEED2Ev@Base 3.2.1
 _ZN8casacore17Allocator_private17BulkAllocatorImplINS_18casacore_allocatorIiLm32EEEE10deallocateEPim@Base 3.2.1
 _ZN8casacore17Allocator_private17BulkAllocatorImplINS_18casacore_allocatorIiLm32EEEE7destroyEPim@Base 3.2.1
 _ZN8casacore17Allocator_private17BulkAllocatorImplINS_18casacore_allocatorIiLm32EEEE8allocateEmPKv@Base 3.2.1
 _ZN8casacore17Allocator_private17BulkAllocatorImplINS_18casacore_allocatorIiLm32EEEE9allocatorE@Base 3.2.1
 _ZN8casacore17Allocator_private17BulkAllocatorImplINS_18casacore_allocatorIiLm32EEEE9constructEPim@Base 3.2.1
 _ZN8casacore17Allocator_private17BulkAllocatorImplINS_18casacore_allocatorIiLm32EEEE9constructEPimPKi@Base 3.2.1
 _ZN8casacore17Allocator_private17BulkAllocatorImplINS_18casacore_allocatorIiLm32EEEE9constructEPimRKi@Base 3.2.1
 _ZN8casacore17Allocator_private17BulkAllocatorImplINS_18casacore_allocatorIiLm32EEEED0Ev@Base 3.2.1
 _ZN8casacore17Allocator_private17BulkAllocatorImplINS_18casacore_allocatorIiLm32EEEED1Ev@Base 3.2.1
 _ZN8casacore17Allocator_private17BulkAllocatorImplINS_18casacore_allocatorIiLm32EEEED2Ev@Base 3.2.1
 _ZN8casacore17Allocator_private17BulkAllocatorImplINS_18casacore_allocatorIjLm32EEEE10deallocateEPjm@Base 3.2.1
 _ZN8casacore17Allocator_private17BulkAllocatorImplINS_18casacore_allocatorIjLm32EEEE7destroyEPjm@Base 3.2.1
 _ZN8casacore17Allocator_private17BulkAllocatorImplINS_18casacore_allocatorIjLm32EEEE8allocateEmPKv@Base 3.2.1
 _ZN8casacore17Allocator_private17BulkAllocatorImplINS_18casacore_allocatorIjLm32EEEE9allocatorE@Base 3.2.1
 _ZN8casacore17Allocator_private17BulkAllocatorImplINS_18casacore_allocatorIjLm32EEEE9constructEPjm@Base 3.2.1
 _ZN8casacore17Allocator_private17BulkAllocatorImplINS_18casacore_allocatorIjLm32EEEE9constructEPjmPKj@Base 3.2.1
 _ZN8casacore17Allocator_private17BulkAllocatorImplINS_18casacore_allocatorIjLm32EEEE9constructEPjmRKj@Base 3.2.1
 _ZN8casacore17Allocator_private17BulkAllocatorImplINS_18casacore_allocatorIjLm32EEEED0Ev@Base 3.2.1
 _ZN8casacore17Allocator_private17BulkAllocatorImplINS_18casacore_allocatorIjLm32EEEED1Ev@Base 3.2.1
 _ZN8casacore17Allocator_private17BulkAllocatorImplINS_18casacore_allocatorIjLm32EEEED2Ev@Base 3.2.1
 _ZN8casacore17Allocator_private17get_allocator_rawINS_18casacore_allocatorIjLm32EEEEEPNS0_17BulkAllocatorImplIT_EEv@Base 3.2.1
 _ZN8casacore17TableMeasDescBase10initTabRefERKNS_13MeasureHolderE@Base 3.2.1
 _ZN8casacore17TableMeasDescBase10resetUnitsERKNS_6VectorINS_4UnitEEE@Base 3.2.1
 _ZN8casacore17TableMeasDescBase10writeIfOldERKNS_5TableE@Base 3.2.1
 _ZN8casacore17TableMeasDescBase11hasMeasuresERKNS_11TableColumnE@Base 3.2.1
 _ZN8casacore17TableMeasDescBase11reconstructERKNS_5TableERKNS_6StringE@Base 3.2.1
 _ZN8casacore17TableMeasDescBase12setMeasUnitsERKNS_7MeasureERKNS_6VectorINS_7QuantumIdEEEERKNS4_INS_4UnitEEE@Base 3.2.1
 _ZN8casacore17TableMeasDescBase5writeERNS_5TableE@Base 3.2.1
 _ZN8casacore17TableMeasDescBase5writeERNS_9TableDescE@Base 3.2.1
 _ZN8casacore17TableMeasDescBaseC1ERKNS_18TableMeasValueDescERKNS_16TableMeasRefDescE@Base 3.2.1
 _ZN8casacore17TableMeasDescBaseC1ERKS0_@Base 3.2.1
 _ZN8casacore17TableMeasDescBaseC1Ev@Base 3.2.1
 _ZN8casacore17TableMeasDescBaseC2ERKNS_18TableMeasValueDescERKNS_16TableMeasRefDescE@Base 3.2.1
 _ZN8casacore17TableMeasDescBaseC2ERKS0_@Base 3.2.1
 _ZN8casacore17TableMeasDescBaseC2Ev@Base 3.2.1
 _ZN8casacore17TableMeasDescBaseD0Ev@Base 3.2.1
 _ZN8casacore17TableMeasDescBaseD1Ev@Base 3.2.1
 _ZN8casacore17TableMeasDescBaseD2Ev@Base 3.2.1
 _ZN8casacore17TableMeasDescBaseaSERKS0_@Base 3.2.1
 _ZN8casacore17new_del_allocatorINS_10MDirectionEED1Ev@Base 3.2.1
 _ZN8casacore17new_del_allocatorINS_10MDirectionEED2Ev@Base 3.2.1
 _ZN8casacore17new_del_allocatorINS_10MFrequencyEED1Ev@Base 3.2.1
 _ZN8casacore17new_del_allocatorINS_10MFrequencyEED2Ev@Base 3.2.1
 _ZN8casacore17new_del_allocatorINS_10MVPositionEED1Ev@Base 3.2.1
 _ZN8casacore17new_del_allocatorINS_10MVPositionEED2Ev@Base 3.2.1
 _ZN8casacore17new_del_allocatorINS_16RORecordFieldPtrIdEEED1Ev@Base 3.2.1
 _ZN8casacore17new_del_allocatorINS_16RORecordFieldPtrIdEEED2Ev@Base 3.2.1
 _ZN8casacore17new_del_allocatorINS_4UnitEED1Ev@Base 3.2.1
 _ZN8casacore17new_del_allocatorINS_4UnitEED2Ev@Base 3.2.1
 _ZN8casacore17new_del_allocatorINS_6VectorIdEEED1Ev@Base 3.2.1
 _ZN8casacore17new_del_allocatorINS_6VectorIdEEED2Ev@Base 3.2.1
 _ZN8casacore17new_del_allocatorINS_7QuantumIdEEED1Ev@Base 3.2.1
 _ZN8casacore17new_del_allocatorINS_7QuantumIdEEED2Ev@Base 3.2.1
 _ZN8casacore17new_del_allocatorINS_8AutoDiffIdEEED1Ev@Base 3.2.1
 _ZN8casacore17new_del_allocatorINS_8AutoDiffIdEEED2Ev@Base 3.2.1
 _ZN8casacore17new_del_allocatorINS_9MPositionEED1Ev@Base 3.2.1
 _ZN8casacore17new_del_allocatorINS_9MPositionEED2Ev@Base 3.2.1
 _ZN8casacore17new_del_allocatorIPNS_6SlicerEED1Ev@Base 3.2.1
 _ZN8casacore17new_del_allocatorIPNS_6SlicerEED2Ev@Base 3.2.1
 _ZN8casacore18MeasTableMulSC195010theirMULSCE@Base 3.2.1
 _ZN8casacore18MeasTableMulSC195010theirMULTDE@Base 3.2.1
 _ZN8casacore18MeasTableMulSC19504calcERNS_6MatrixIdEEd@Base 3.2.1
 _ZN8casacore18MeasTableMulSC19504initEv@Base 3.2.1
 _ZN8casacore18MeasTableMulSC1950C1Ev@Base 3.2.1
 _ZN8casacore18MeasTableMulSC1950C2Ev@Base 3.2.1
 _ZN8casacore18MeasTableMulSC1950D0Ev@Base 3.2.1
 _ZN8casacore18MeasTableMulSC1950D1Ev@Base 3.2.1
 _ZN8casacore18MeasTableMulSC1950D2Ev@Base 3.2.1
 _ZN8casacore18MeasTableMulSCBase6doCalcERNS_6MatrixIdEEdPKNS_10PolynomialIdEEiPA5_Kl@Base 3.2.1
 _ZN8casacore18MeasTableMulSCBase6doInitERNS_6MatrixIdEEPNS_10PolynomialIdEEiPA5_KliPA2_Ks@Base 3.2.1
 _ZN8casacore18MeasTableMulSCBaseC1Ev@Base 3.2.1
 _ZN8casacore18MeasTableMulSCBaseC2Ev@Base 3.2.1
 _ZN8casacore18TableMeasValueDesc5writeERNS_5TableERKNS_11TableRecordE@Base 3.2.1
 _ZN8casacore18TableMeasValueDesc5writeERNS_9TableDescERKNS_11TableRecordE@Base 3.2.1
 _ZN8casacore18TableMeasValueDesc9writeKeysERNS_11TableRecordERKS1_@Base 3.2.1
 _ZN8casacore18TableMeasValueDescC1ERKNS_9TableDescERKNS_6StringE@Base 3.2.1
 _ZN8casacore18TableMeasValueDescC1ERKS0_@Base 3.2.1
 _ZN8casacore18TableMeasValueDescC1Ev@Base 3.2.1
 _ZN8casacore18TableMeasValueDescC2ERKNS_9TableDescERKNS_6StringE@Base 3.2.1
 _ZN8casacore18TableMeasValueDescC2ERKS0_@Base 3.2.1
 _ZN8casacore18TableMeasValueDescC2Ev@Base 3.2.1
 _ZN8casacore18TableMeasValueDescD1Ev@Base 3.2.1
 _ZN8casacore18TableMeasValueDescD2Ev@Base 3.2.1
 _ZN8casacore18TableMeasValueDescaSERKS0_@Base 3.2.1
 _ZN8casacore18arrayContTransformIbbbSt11logical_andIbEEEvRKNS_5ArrayIT_EERKNS3_IT0_EERNS3_IT1_EET2_@Base 3.2.1
 _ZN8casacore18arrayContTransformIdddSt10multipliesIdEEEvRKNS_5ArrayIT_EET0_RNS3_IT1_EET2_@Base 3.2.1
 _ZN8casacore18casacore_allocatorINS_10MDirectionELm32EED1Ev@Base 3.2.1
 _ZN8casacore18casacore_allocatorINS_10MDirectionELm32EED2Ev@Base 3.2.1
 _ZN8casacore18casacore_allocatorINS_10MFrequencyELm32EED1Ev@Base 3.2.1
 _ZN8casacore18casacore_allocatorINS_10MFrequencyELm32EED2Ev@Base 3.2.1
 _ZN8casacore18casacore_allocatorINS_10MVPositionELm32EED1Ev@Base 3.2.1
 _ZN8casacore18casacore_allocatorINS_10MVPositionELm32EED2Ev@Base 3.2.1
 _ZN8casacore18casacore_allocatorINS_16RORecordFieldPtrIdEELm32EED1Ev@Base 3.2.1
 _ZN8casacore18casacore_allocatorINS_16RORecordFieldPtrIdEELm32EED2Ev@Base 3.2.1
 _ZN8casacore18casacore_allocatorINS_4UnitELm32EED1Ev@Base 3.2.1
 _ZN8casacore18casacore_allocatorINS_4UnitELm32EED2Ev@Base 3.2.1
 _ZN8casacore18casacore_allocatorINS_6StringELm32EED1Ev@Base 3.2.1
 _ZN8casacore18casacore_allocatorINS_6StringELm32EED2Ev@Base 3.2.1
 _ZN8casacore18casacore_allocatorINS_6VectorIdEELm32EED1Ev@Base 3.2.1
 _ZN8casacore18casacore_allocatorINS_6VectorIdEELm32EED2Ev@Base 3.2.1
 _ZN8casacore18casacore_allocatorINS_7QuantumIdEELm32EED1Ev@Base 3.2.1
 _ZN8casacore18casacore_allocatorINS_7QuantumIdEELm32EED2Ev@Base 3.2.1
 _ZN8casacore18casacore_allocatorINS_8AutoDiffIdEELm32EED1Ev@Base 3.2.1
 _ZN8casacore18casacore_allocatorINS_8AutoDiffIdEELm32EED2Ev@Base 3.2.1
 _ZN8casacore18casacore_allocatorINS_9MPositionELm32EED1Ev@Base 3.2.1
 _ZN8casacore18casacore_allocatorINS_9MPositionELm32EED2Ev@Base 3.2.1
 _ZN8casacore18casacore_allocatorIPNS_6SlicerELm32EED1Ev@Base 3.2.1
 _ZN8casacore18casacore_allocatorIPNS_6SlicerELm32EED2Ev@Base 3.2.1
 _ZN8casacore18casacore_allocatorIPNS_9MeasValueELm32EED1Ev@Base 3.2.1
 _ZN8casacore18casacore_allocatorIPNS_9MeasValueELm32EED2Ev@Base 3.2.1
 _ZN8casacore18casacore_allocatorIiLm32EED1Ev@Base 3.2.1
 _ZN8casacore18casacore_allocatorIiLm32EED2Ev@Base 3.2.1
 _ZN8casacore18casacore_allocatorIjLm32EED1Ev@Base 3.2.1
 _ZN8casacore18casacore_allocatorIjLm32EED2Ev@Base 3.2.1
 _ZN8casacore19MeasTableMulPosSunZ10theirMPOSZE@Base 3.2.1
 _ZN8casacore19MeasTableMulPosSunZ4calcERNS_6MatrixIdEEd@Base 3.2.1
 _ZN8casacore19MeasTableMulPosSunZ4initEv@Base 3.2.1
 _ZN8casacore19MeasTableMulPosSunZC1Ev@Base 3.2.1
 _ZN8casacore19MeasTableMulPosSunZC2Ev@Base 3.2.1
 _ZN8casacore19MeasTableMulPosSunZD0Ev@Base 3.2.1
 _ZN8casacore19MeasTableMulPosSunZD1Ev@Base 3.2.1
 _ZN8casacore19MeasTableMulPosSunZD2Ev@Base 3.2.1
 _ZN8casacore19MeasTableMulSC2000A10theirMULSCE@Base 3.2.1
 _ZN8casacore19MeasTableMulSC2000A4calcERNS_6MatrixIdEEd@Base 3.2.1
 _ZN8casacore19MeasTableMulSC2000A4initEv@Base 3.2.1
 _ZN8casacore19MeasTableMulSC2000AC1Ev@Base 3.2.1
 _ZN8casacore19MeasTableMulSC2000AC2Ev@Base 3.2.1
 _ZN8casacore19MeasTableMulSC2000AD0Ev@Base 3.2.1
 _ZN8casacore19MeasTableMulSC2000AD1Ev@Base 3.2.1
 _ZN8casacore19MeasTableMulSC2000AD2Ev@Base 3.2.1
 _ZN8casacore19MeasTableMulSC2000B10theirMULSCE@Base 3.2.1
 _ZN8casacore19MeasTableMulSC2000B4calcERNS_6MatrixIdEEd@Base 3.2.1
 _ZN8casacore19MeasTableMulSC2000B4initEv@Base 3.2.1
 _ZN8casacore19MeasTableMulSC2000BC1Ev@Base 3.2.1
 _ZN8casacore19MeasTableMulSC2000BC2Ev@Base 3.2.1
 _ZN8casacore19MeasTableMulSC2000BD0Ev@Base 3.2.1
 _ZN8casacore19MeasTableMulSC2000BD1Ev@Base 3.2.1
 _ZN8casacore19MeasTableMulSC2000BD2Ev@Base 3.2.1
 _ZN8casacore19TableMeasOffsetDesc11reconstructERKNS_11TableRecordERKNS_6StringERKNS_5TableE@Base 3.2.1
 _ZN8casacore19TableMeasOffsetDesc11resetOffsetERKNS_7MeasureE@Base 3.2.1
 _ZN8casacore19TableMeasOffsetDesc5writeERNS_5TableERNS_11TableRecordERKNS_6StringE@Base 3.2.1
 _ZN8casacore19TableMeasOffsetDesc5writeERNS_9TableDescERNS_11TableRecordERKNS_6StringE@Base 3.2.1
 _ZN8casacore19TableMeasOffsetDesc9writeKeysERNS_11TableRecordERKNS_6StringE@Base 3.2.1
 _ZN8casacore19TableMeasOffsetDescC1ERKNS_11TableRecordERKNS_6StringERKNS_5TableE@Base 3.2.1
 _ZN8casacore19TableMeasOffsetDescC1ERKNS_17TableMeasDescBaseEb@Base 3.2.1
 _ZN8casacore19TableMeasOffsetDescC1ERKNS_7MeasureE@Base 3.2.1
 _ZN8casacore19TableMeasOffsetDescC1ERKS0_@Base 3.2.1
 _ZN8casacore19TableMeasOffsetDescC2ERKNS_11TableRecordERKNS_6StringERKNS_5TableE@Base 3.2.1
 _ZN8casacore19TableMeasOffsetDescC2ERKNS_17TableMeasDescBaseEb@Base 3.2.1
 _ZN8casacore19TableMeasOffsetDescC2ERKNS_7MeasureE@Base 3.2.1
 _ZN8casacore19TableMeasOffsetDescC2ERKS0_@Base 3.2.1
 _ZN8casacore19TableMeasOffsetDescD1Ev@Base 3.2.1
 _ZN8casacore19TableMeasOffsetDescD2Ev@Base 3.2.1
 _ZN8casacore19TableMeasOffsetDescaSERKS0_@Base 3.2.1
 _ZN8casacore20EarthMagneticMachine11getLOSFieldERKNS_11MVDirectionE@Base 3.2.1
 _ZN8casacore20EarthMagneticMachine11getLOSFieldERKNS_11MVDirectionERKNS_4UnitE@Base 3.2.1
 _ZN8casacore20EarthMagneticMachine11getLOSFieldERKNS_4UnitE@Base 3.2.1
 _ZN8casacore20EarthMagneticMachine11getLOSFieldERKNS_7QuantumIdEE@Base 3.2.1
 _ZN8casacore20EarthMagneticMachine11getLOSFieldERKNS_7QuantumIdEERKNS_4UnitE@Base 3.2.1
 _ZN8casacore20EarthMagneticMachine11getLOSFieldEd@Base 3.2.1
 _ZN8casacore20EarthMagneticMachine11getLOSFieldEdRKNS_4UnitE@Base 3.2.1
 _ZN8casacore20EarthMagneticMachine11getLOSFieldEv@Base 3.2.1
 _ZN8casacore20EarthMagneticMachine11getPositionERKNS_11MVDirectionE@Base 3.2.1
 _ZN8casacore20EarthMagneticMachine11getPositionEv@Base 3.2.1
 _ZN8casacore20EarthMagneticMachine11reCalculateEv@Base 3.2.1
 _ZN8casacore20EarthMagneticMachine3setERKNS_11MVDirectionE@Base 3.2.1
 _ZN8casacore20EarthMagneticMachine3setERKNS_6MEpochE@Base 3.2.1
 _ZN8casacore20EarthMagneticMachine3setERKNS_7MeasRefINS_10MDirectionEEE@Base 3.2.1
 _ZN8casacore20EarthMagneticMachine3setERKNS_7QuantumIdEE@Base 3.2.1
 _ZN8casacore20EarthMagneticMachine3setERKNS_9MPositionE@Base 3.2.1
 _ZN8casacore20EarthMagneticMachine3setERNS_9MeasFrameE@Base 3.2.1
 _ZN8casacore20EarthMagneticMachine4copyERKS0_@Base 3.2.1
 _ZN8casacore20EarthMagneticMachine4initEv@Base 3.2.1
 _ZN8casacore20EarthMagneticMachine7getLongERKNS_11MVDirectionE@Base 3.2.1
 _ZN8casacore20EarthMagneticMachine7getLongERKNS_11MVDirectionERKNS_4UnitE@Base 3.2.1
 _ZN8casacore20EarthMagneticMachine7getLongERKNS_4UnitE@Base 3.2.1
 _ZN8casacore20EarthMagneticMachine7getLongEv@Base 3.2.1
 _ZN8casacore20EarthMagneticMachine8getFieldERKNS_11MVDirectionE@Base 3.2.1
 _ZN8casacore20EarthMagneticMachine8getFieldEv@Base 3.2.1
 _ZN8casacore20EarthMagneticMachine9calculateERKNS_11MVDirectionE@Base 3.2.1
 _ZN8casacore20EarthMagneticMachine9calculateERKNS_7QuantumIdEE@Base 3.2.1
 _ZN8casacore20EarthMagneticMachine9calculateEd@Base 3.2.1
 _ZN8casacore20EarthMagneticMachine9calculateEv@Base 3.2.1
 _ZN8casacore20EarthMagneticMachineC1ERKNS_7MeasRefINS_10MDirectionEEERKNS_11MVDirectionERKNS_9MPositionERKNS_6MEpochE@Base 3.2.1
 _ZN8casacore20EarthMagneticMachineC1ERKNS_7MeasRefINS_10MDirectionEEERKNS_11MVDirectionERNS_9MeasFrameE@Base 3.2.1
 _ZN8casacore20EarthMagneticMachineC1ERKNS_7MeasRefINS_10MDirectionEEERKNS_7QuantumIdEERKNS_9MPositionERKNS_6MEpochE@Base 3.2.1
 _ZN8casacore20EarthMagneticMachineC1ERKNS_7MeasRefINS_10MDirectionEEERKNS_7QuantumIdEERNS_9MeasFrameE@Base 3.2.1
 _ZN8casacore20EarthMagneticMachineC1ERKS0_@Base 3.2.1
 _ZN8casacore20EarthMagneticMachineC1Ev@Base 3.2.1
 _ZN8casacore20EarthMagneticMachineC2ERKNS_7MeasRefINS_10MDirectionEEERKNS_11MVDirectionERKNS_9MPositionERKNS_6MEpochE@Base 3.2.1
 _ZN8casacore20EarthMagneticMachineC2ERKNS_7MeasRefINS_10MDirectionEEERKNS_11MVDirectionERNS_9MeasFrameE@Base 3.2.1
 _ZN8casacore20EarthMagneticMachineC2ERKNS_7MeasRefINS_10MDirectionEEERKNS_7QuantumIdEERKNS_9MPositionERKNS_6MEpochE@Base 3.2.1
 _ZN8casacore20EarthMagneticMachineC2ERKNS_7MeasRefINS_10MDirectionEEERKNS_7QuantumIdEERNS_9MeasFrameE@Base 3.2.1
 _ZN8casacore20EarthMagneticMachineC2ERKS0_@Base 3.2.1
 _ZN8casacore20EarthMagneticMachineC2Ev@Base 3.2.1
 _ZN8casacore20EarthMagneticMachineD1Ev@Base 3.2.1
 _ZN8casacore20EarthMagneticMachineD2Ev@Base 3.2.1
 _ZN8casacore20EarthMagneticMachineaSERKS0_@Base 3.2.1
 _ZN8casacore20EarthMagneticMachineclERKNS_11MVDirectionE@Base 3.2.1
 _ZN8casacore20EarthMagneticMachineclERKNS_11MVDirectionERKNS_4UnitE@Base 3.2.1
 _ZN8casacore20EarthMagneticMachineclERKNS_4UnitE@Base 3.2.1
 _ZN8casacore20EarthMagneticMachineclERKNS_7QuantumIdEE@Base 3.2.1
 _ZN8casacore20EarthMagneticMachineclERKNS_7QuantumIdEERKNS_4UnitE@Base 3.2.1
 _ZN8casacore20EarthMagneticMachineclEd@Base 3.2.1
 _ZN8casacore20EarthMagneticMachineclEdRKNS_4UnitE@Base 3.2.1
 _ZN8casacore20EarthMagneticMachineclEv@Base 3.2.1
 _ZN8casacore20MeasTableMulAber195010theirMABERE@Base 3.2.1
 _ZN8casacore20MeasTableMulAber195012theirABERT1TE@Base 3.2.1
 _ZN8casacore20MeasTableMulAber195012theirABERT2TE@Base 3.2.1
 _ZN8casacore20MeasTableMulAber195012theirABERT3TE@Base 3.2.1
 _ZN8casacore20MeasTableMulAber195013theirABERSPECE@Base 3.2.1
 _ZN8casacore20MeasTableMulAber19504calcERNS_6MatrixIdEEd@Base 3.2.1
 _ZN8casacore20MeasTableMulAber19504initEv@Base 3.2.1
 _ZN8casacore20MeasTableMulAber1950C1Ev@Base 3.2.1
 _ZN8casacore20MeasTableMulAber1950C2Ev@Base 3.2.1
 _ZN8casacore20MeasTableMulAber1950D0Ev@Base 3.2.1
 _ZN8casacore20MeasTableMulAber1950D1Ev@Base 3.2.1
 _ZN8casacore20MeasTableMulAber1950D2Ev@Base 3.2.1
 _ZN8casacore20MeasTableMulPosSunXY11theirMPOSXYE@Base 3.2.1
 _ZN8casacore20MeasTableMulPosSunXY4calcERNS_6MatrixIdEEd@Base 3.2.1
 _ZN8casacore20MeasTableMulPosSunXY4initEv@Base 3.2.1
 _ZN8casacore20MeasTableMulPosSunXYC1Ev@Base 3.2.1
 _ZN8casacore20MeasTableMulPosSunXYC2Ev@Base 3.2.1
 _ZN8casacore20MeasTableMulPosSunXYD0Ev@Base 3.2.1
 _ZN8casacore20MeasTableMulPosSunXYD1Ev@Base 3.2.1
 _ZN8casacore20MeasTableMulPosSunXYD2Ev@Base 3.2.1
 _ZN8casacore21ArrayPositionIteratorD0Ev@Base 3.2.1
 _ZN8casacore21ArrayPositionIteratorD1Ev@Base 3.2.1
 _ZN8casacore21ArrayPositionIteratorD2Ev@Base 3.2.1
 _ZN8casacore21MeasTableMulPosEarthZ10theirMPOSZE@Base 3.2.1
 _ZN8casacore21MeasTableMulPosEarthZ4calcERNS_6MatrixIdEEd@Base 3.2.1
 _ZN8casacore21MeasTableMulPosEarthZ4initEv@Base 3.2.1
 _ZN8casacore21MeasTableMulPosEarthZC1Ev@Base 3.2.1
 _ZN8casacore21MeasTableMulPosEarthZC2Ev@Base 3.2.1
 _ZN8casacore21MeasTableMulPosEarthZD0Ev@Base 3.2.1
 _ZN8casacore21MeasTableMulPosEarthZD1Ev@Base 3.2.1
 _ZN8casacore21MeasTableMulPosEarthZD2Ev@Base 3.2.1
 _ZN8casacore22MeasTableMulPosEarthXY11theirMPOSXYE@Base 3.2.1
 _ZN8casacore22MeasTableMulPosEarthXY4calcERNS_6MatrixIdEEd@Base 3.2.1
 _ZN8casacore22MeasTableMulPosEarthXY4initEv@Base 3.2.1
 _ZN8casacore22MeasTableMulPosEarthXYC1Ev@Base 3.2.1
 _ZN8casacore22MeasTableMulPosEarthXYC2Ev@Base 3.2.1
 _ZN8casacore22MeasTableMulPosEarthXYD0Ev@Base 3.2.1
 _ZN8casacore22MeasTableMulPosEarthXYD1Ev@Base 3.2.1
 _ZN8casacore22MeasTableMulPosEarthXYD2Ev@Base 3.2.1
 _ZN8casacore22MeasTableMulSC2000Base6doCalcERNS_6MatrixIdEEdPKNS_10PolynomialIdEEi@Base 3.2.1
 _ZN8casacore22MeasTableMulSC2000Base6doInitERNS_6MatrixIdEEPNS_10PolynomialIdEEiPA6_Kl@Base 3.2.1
 _ZN8casacore22MeasTableMulSC2000BaseC1Ev@Base 3.2.1
 _ZN8casacore22MeasTableMulSC2000BaseC2Ev@Base 3.2.1
 _ZN8casacore26UnitVal_static_initializerC1Ev@Base 3.2.1
 _ZN8casacore26UnitVal_static_initializerC2Ev@Base 3.2.1
 _ZN8casacore4Muvw10allMyTypesERiS1_RPKj@Base 3.2.1
 _ZN8casacore4Muvw11fromDirTypeENS_10MDirection5TypesE@Base 3.2.1
 _ZN8casacore4Muvw12checkMyTypesEv@Base 3.2.1
 _ZN8casacore4Muvw12setRefStringERKNS_6StringE@Base 3.2.1
 _ZN8casacore4Muvw6assureERKNS_7MeasureE@Base 3.2.1
 _ZN8casacore4Muvw6giveMeERNS_7MeasRefIS0_EERKNS_6StringE@Base 3.2.1
 _ZN8casacore4Muvw6myTypeEv@Base 3.2.1
 _ZN8casacore4Muvw6showMeEv@Base 3.2.1
 _ZN8casacore4Muvw7getTypeERNS0_5TypesERKNS_6StringE@Base 3.2.1
 _ZN8casacore4Muvw8castTypeEj@Base 3.2.1
 _ZN8casacore4Muvw8showTypeENS0_5TypesE@Base 3.2.1
 _ZN8casacore4Muvw8showTypeEj@Base 3.2.1
 _ZN8casacore4Muvw9setOffsetERKNS_7MeasureE@Base 3.2.1
 _ZN8casacore4Muvw9toDirTypeENS0_5TypesE@Base 3.2.1
 _ZN8casacore4MuvwC1EPKNS_7MeasureE@Base 3.2.1
 _ZN8casacore4MuvwC1EPKNS_9MeasValueE@Base 3.2.1
 _ZN8casacore4MuvwC1ERKNS_5MVuvwE@Base 3.2.1
 _ZN8casacore4MuvwC1ERKNS_5MVuvwENS0_5TypesE@Base 3.2.1
 _ZN8casacore4MuvwC1ERKNS_5MVuvwERKNS_7MeasRefIS0_EE@Base 3.2.1
 _ZN8casacore4MuvwC1ERKS0_@Base 3.2.1
 _ZN8casacore4MuvwC1Ev@Base 3.2.1
 _ZN8casacore4MuvwC2EPKNS_7MeasureE@Base 3.2.1
 _ZN8casacore4MuvwC2EPKNS_9MeasValueE@Base 3.2.1
 _ZN8casacore4MuvwC2ERKNS_5MVuvwE@Base 3.2.1
 _ZN8casacore4MuvwC2ERKNS_5MVuvwENS0_5TypesE@Base 3.2.1
 _ZN8casacore4MuvwC2ERKNS_5MVuvwERKNS_7MeasRefIS0_EE@Base 3.2.1
 _ZN8casacore4MuvwC2ERKS0_@Base 3.2.1
 _ZN8casacore4MuvwC2Ev@Base 3.2.1
 _ZN8casacore4MuvwD0Ev@Base 3.2.1
 _ZN8casacore4MuvwD1Ev@Base 3.2.1
 _ZN8casacore4MuvwD2Ev@Base 3.2.1
 _ZN8casacore4MuvwaSERKS0_@Base 3.2.1
 _ZN8casacore5ArrayINS_10MDirectionEE10assignBaseERKNS_9ArrayBaseEb@Base 3.2.1
 _ZN8casacore5ArrayINS_10MDirectionEE10getStorageERb@Base 3.2.1
 _ZN8casacore5ArrayINS_10MDirectionEE10putStorageERPS1_b@Base 3.2.1
 _ZN8casacore5ArrayINS_10MDirectionEE11getVStorageERb@Base 3.2.1
 _ZN8casacore5ArrayINS_10MDirectionEE11putVStorageERPvb@Base 3.2.1
 _ZN8casacore5ArrayINS_10MDirectionEE11takeStorageERKNS_9IPositionEPKS1_@Base 3.2.1
 _ZN8casacore5ArrayINS_10MDirectionEE11takeStorageERKNS_9IPositionEPKS1_RKNS_17AbstractAllocatorIS1_EE@Base 3.2.1
 _ZN8casacore5ArrayINS_10MDirectionEE11takeStorageERKNS_9IPositionEPS1_NS_17StorageInitPolicyE@Base 3.2.1
 _ZN8casacore5ArrayINS_10MDirectionEE11takeStorageERKNS_9IPositionEPS1_NS_17StorageInitPolicyERKNS_17AbstractAllocatorIS1_EE@Base 3.2.1
 _ZN8casacore5ArrayINS_10MDirectionEE14preTakeStorageERKNS_9IPositionE@Base 3.2.1
 _ZN8casacore5ArrayINS_10MDirectionEE15BaseIteratorSTL9incrementEv@Base 3.2.1
 _ZN8casacore5ArrayINS_10MDirectionEE15BaseIteratorSTLC1ERKS2_@Base 3.2.1
 _ZN8casacore5ArrayINS_10MDirectionEE15BaseIteratorSTLC2ERKS2_@Base 3.2.1
 _ZN8casacore5ArrayINS_10MDirectionEE15doNonDegenerateERKS2_RKNS_9IPositionE@Base 3.2.1
 _ZN8casacore5ArrayINS_10MDirectionEE15postTakeStorageEv@Base 3.2.1
 _ZN8casacore5ArrayINS_10MDirectionEE16copyMatchingPartERKS2_@Base 3.2.1
 _ZN8casacore5ArrayINS_10MDirectionEE23copyToContiguousStorageEPS1_RKS2_NS_15ArrayInitPolicyE@Base 3.2.1
 _ZN8casacore5ArrayINS_10MDirectionEE6assignERKS2_@Base 3.2.1
 _ZN8casacore5ArrayINS_10MDirectionEE6resizeERKNS_9IPositionEb@Base 3.2.1
 _ZN8casacore5ArrayINS_10MDirectionEE6resizeERKNS_9IPositionEbNS_15ArrayInitPolicyE@Base 3.2.1
 _ZN8casacore5ArrayINS_10MDirectionEE6resizeEv@Base 3.2.1
 _ZN8casacore5ArrayINS_10MDirectionEE9referenceERKS2_@Base 3.2.1
 _ZN8casacore5ArrayINS_10MDirectionEEC1ERKNS_9IPositionENS_15ArrayInitPolicyEPNS_17Allocator_private13BulkAllocatorIS1_EE@Base 3.2.1
 _ZN8casacore5ArrayINS_10MDirectionEEC1ERKS2_@Base 3.2.1
 _ZN8casacore5ArrayINS_10MDirectionEEC1Ev@Base 3.2.1
 _ZN8casacore5ArrayINS_10MDirectionEEC2ERKNS_9IPositionENS_15ArrayInitPolicyEPNS_17Allocator_private13BulkAllocatorIS1_EE@Base 3.2.1
 _ZN8casacore5ArrayINS_10MDirectionEEC2ERKS2_@Base 3.2.1
 _ZN8casacore5ArrayINS_10MDirectionEEC2Ev@Base 3.2.1
 _ZN8casacore5ArrayINS_10MDirectionEED0Ev@Base 3.2.1
 _ZN8casacore5ArrayINS_10MDirectionEED1Ev@Base 3.2.1
 _ZN8casacore5ArrayINS_10MDirectionEED2Ev@Base 3.2.1
 _ZN8casacore5ArrayINS_10MDirectionEEaSERKS2_@Base 3.2.1
 _ZN8casacore5ArrayINS_10MDirectionEEclERKNS_6SlicerE@Base 3.2.1
 _ZN8casacore5ArrayINS_10MDirectionEEclERKNS_9IPositionES5_@Base 3.2.1
 _ZN8casacore5ArrayINS_10MDirectionEEclERKNS_9IPositionES5_S5_@Base 3.2.1
 _ZN8casacore5ArrayINS_10MFrequencyEE10assignBaseERKNS_9ArrayBaseEb@Base 3.2.1
 _ZN8casacore5ArrayINS_10MFrequencyEE10getStorageERb@Base 3.2.1
 _ZN8casacore5ArrayINS_10MFrequencyEE10putStorageERPS1_b@Base 3.2.1
 _ZN8casacore5ArrayINS_10MFrequencyEE11getVStorageERb@Base 3.2.1
 _ZN8casacore5ArrayINS_10MFrequencyEE11putVStorageERPvb@Base 3.2.1
 _ZN8casacore5ArrayINS_10MFrequencyEE11takeStorageERKNS_9IPositionEPKS1_@Base 3.2.1
 _ZN8casacore5ArrayINS_10MFrequencyEE11takeStorageERKNS_9IPositionEPKS1_RKNS_17AbstractAllocatorIS1_EE@Base 3.2.1
 _ZN8casacore5ArrayINS_10MFrequencyEE11takeStorageERKNS_9IPositionEPS1_NS_17StorageInitPolicyE@Base 3.2.1
 _ZN8casacore5ArrayINS_10MFrequencyEE11takeStorageERKNS_9IPositionEPS1_NS_17StorageInitPolicyERKNS_17AbstractAllocatorIS1_EE@Base 3.2.1
 _ZN8casacore5ArrayINS_10MFrequencyEE14preTakeStorageERKNS_9IPositionE@Base 3.2.1
 _ZN8casacore5ArrayINS_10MFrequencyEE15BaseIteratorSTL9incrementEv@Base 3.2.1
 _ZN8casacore5ArrayINS_10MFrequencyEE15BaseIteratorSTLC1ERKS2_@Base 3.2.1
 _ZN8casacore5ArrayINS_10MFrequencyEE15BaseIteratorSTLC2ERKS2_@Base 3.2.1
 _ZN8casacore5ArrayINS_10MFrequencyEE15doNonDegenerateERKS2_RKNS_9IPositionE@Base 3.2.1
 _ZN8casacore5ArrayINS_10MFrequencyEE15postTakeStorageEv@Base 3.2.1
 _ZN8casacore5ArrayINS_10MFrequencyEE16copyMatchingPartERKS2_@Base 3.2.1
 _ZN8casacore5ArrayINS_10MFrequencyEE23copyToContiguousStorageEPS1_RKS2_NS_15ArrayInitPolicyE@Base 3.2.1
 _ZN8casacore5ArrayINS_10MFrequencyEE6assignERKS2_@Base 3.2.1
 _ZN8casacore5ArrayINS_10MFrequencyEE6resizeERKNS_9IPositionEb@Base 3.2.1
 _ZN8casacore5ArrayINS_10MFrequencyEE6resizeERKNS_9IPositionEbNS_15ArrayInitPolicyE@Base 3.2.1
 _ZN8casacore5ArrayINS_10MFrequencyEE6resizeEv@Base 3.2.1
 _ZN8casacore5ArrayINS_10MFrequencyEE9referenceERKS2_@Base 3.2.1
 _ZN8casacore5ArrayINS_10MFrequencyEEC1ERKNS_9IPositionENS_15ArrayInitPolicyEPNS_17Allocator_private13BulkAllocatorIS1_EE@Base 3.2.1
 _ZN8casacore5ArrayINS_10MFrequencyEEC1ERKS2_@Base 3.2.1
 _ZN8casacore5ArrayINS_10MFrequencyEEC1Ev@Base 3.2.1
 _ZN8casacore5ArrayINS_10MFrequencyEEC2ERKNS_9IPositionENS_15ArrayInitPolicyEPNS_17Allocator_private13BulkAllocatorIS1_EE@Base 3.2.1
 _ZN8casacore5ArrayINS_10MFrequencyEEC2ERKS2_@Base 3.2.1
 _ZN8casacore5ArrayINS_10MFrequencyEEC2Ev@Base 3.2.1
 _ZN8casacore5ArrayINS_10MFrequencyEED0Ev@Base 3.2.1
 _ZN8casacore5ArrayINS_10MFrequencyEED1Ev@Base 3.2.1
 _ZN8casacore5ArrayINS_10MFrequencyEED2Ev@Base 3.2.1
 _ZN8casacore5ArrayINS_10MFrequencyEEaSERKS2_@Base 3.2.1
 _ZN8casacore5ArrayINS_10MFrequencyEEclERKNS_6SlicerE@Base 3.2.1
 _ZN8casacore5ArrayINS_10MFrequencyEEclERKNS_9IPositionES5_@Base 3.2.1
 _ZN8casacore5ArrayINS_10MFrequencyEEclERKNS_9IPositionES5_S5_@Base 3.2.1
 _ZN8casacore5ArrayINS_10MVPositionEE10assignBaseERKNS_9ArrayBaseEb@Base 3.2.1
 _ZN8casacore5ArrayINS_10MVPositionEE10getStorageERb@Base 3.2.1
 _ZN8casacore5ArrayINS_10MVPositionEE10putStorageERPS1_b@Base 3.2.1
 _ZN8casacore5ArrayINS_10MVPositionEE11getVStorageERb@Base 3.2.1
 _ZN8casacore5ArrayINS_10MVPositionEE11putVStorageERPvb@Base 3.2.1
 _ZN8casacore5ArrayINS_10MVPositionEE11takeStorageERKNS_9IPositionEPKS1_@Base 3.2.1
 _ZN8casacore5ArrayINS_10MVPositionEE11takeStorageERKNS_9IPositionEPKS1_RKNS_17AbstractAllocatorIS1_EE@Base 3.2.1
 _ZN8casacore5ArrayINS_10MVPositionEE11takeStorageERKNS_9IPositionEPS1_NS_17StorageInitPolicyE@Base 3.2.1
 _ZN8casacore5ArrayINS_10MVPositionEE11takeStorageERKNS_9IPositionEPS1_NS_17StorageInitPolicyERKNS_17AbstractAllocatorIS1_EE@Base 3.2.1
 _ZN8casacore5ArrayINS_10MVPositionEE14preTakeStorageERKNS_9IPositionE@Base 3.2.1
 _ZN8casacore5ArrayINS_10MVPositionEE15BaseIteratorSTL9incrementEv@Base 3.2.1
 _ZN8casacore5ArrayINS_10MVPositionEE15BaseIteratorSTLC1ERKS2_@Base 3.2.1
 _ZN8casacore5ArrayINS_10MVPositionEE15BaseIteratorSTLC2ERKS2_@Base 3.2.1
 _ZN8casacore5ArrayINS_10MVPositionEE15doNonDegenerateERKS2_RKNS_9IPositionE@Base 3.2.1
 _ZN8casacore5ArrayINS_10MVPositionEE15postTakeStorageEv@Base 3.2.1
 _ZN8casacore5ArrayINS_10MVPositionEE16copyMatchingPartERKS2_@Base 3.2.1
 _ZN8casacore5ArrayINS_10MVPositionEE23copyToContiguousStorageEPS1_RKS2_NS_15ArrayInitPolicyE@Base 3.2.1
 _ZN8casacore5ArrayINS_10MVPositionEE6assignERKS2_@Base 3.2.1
 _ZN8casacore5ArrayINS_10MVPositionEE6resizeERKNS_9IPositionEb@Base 3.2.1
 _ZN8casacore5ArrayINS_10MVPositionEE6resizeERKNS_9IPositionEbNS_15ArrayInitPolicyE@Base 3.2.1
 _ZN8casacore5ArrayINS_10MVPositionEE6resizeEv@Base 3.2.1
 _ZN8casacore5ArrayINS_10MVPositionEE9referenceERKS2_@Base 3.2.1
 _ZN8casacore5ArrayINS_10MVPositionEEC1ERKNS_9IPositionENS_15ArrayInitPolicyEPNS_17Allocator_private13BulkAllocatorIS1_EE@Base 3.2.1
 _ZN8casacore5ArrayINS_10MVPositionEEC1ERKS2_@Base 3.2.1
 _ZN8casacore5ArrayINS_10MVPositionEEC1Ev@Base 3.2.1
 _ZN8casacore5ArrayINS_10MVPositionEEC2ERKNS_9IPositionENS_15ArrayInitPolicyEPNS_17Allocator_private13BulkAllocatorIS1_EE@Base 3.2.1
 _ZN8casacore5ArrayINS_10MVPositionEEC2ERKS2_@Base 3.2.1
 _ZN8casacore5ArrayINS_10MVPositionEEC2Ev@Base 3.2.1
 _ZN8casacore5ArrayINS_10MVPositionEED0Ev@Base 3.2.1
 _ZN8casacore5ArrayINS_10MVPositionEED1Ev@Base 3.2.1
 _ZN8casacore5ArrayINS_10MVPositionEED2Ev@Base 3.2.1
 _ZN8casacore5ArrayINS_10MVPositionEEaSERKS2_@Base 3.2.1
 _ZN8casacore5ArrayINS_10MVPositionEEclERKNS_6SlicerE@Base 3.2.1
 _ZN8casacore5ArrayINS_10MVPositionEEclERKNS_9IPositionES5_@Base 3.2.1
 _ZN8casacore5ArrayINS_10MVPositionEEclERKNS_9IPositionES5_S5_@Base 3.2.1
 _ZN8casacore5ArrayINS_16RORecordFieldPtrIdEEE10assignBaseERKNS_9ArrayBaseEb@Base 3.2.1
 _ZN8casacore5ArrayINS_16RORecordFieldPtrIdEEE10getStorageERb@Base 3.2.1
 _ZN8casacore5ArrayINS_16RORecordFieldPtrIdEEE10putStorageERPS2_b@Base 3.2.1
 _ZN8casacore5ArrayINS_16RORecordFieldPtrIdEEE11getVStorageERb@Base 3.2.1
 _ZN8casacore5ArrayINS_16RORecordFieldPtrIdEEE11putVStorageERPvb@Base 3.2.1
 _ZN8casacore5ArrayINS_16RORecordFieldPtrIdEEE11takeStorageERKNS_9IPositionEPKS2_@Base 3.2.1
 _ZN8casacore5ArrayINS_16RORecordFieldPtrIdEEE11takeStorageERKNS_9IPositionEPKS2_RKNS_17AbstractAllocatorIS2_EE@Base 3.2.1
 _ZN8casacore5ArrayINS_16RORecordFieldPtrIdEEE11takeStorageERKNS_9IPositionEPS2_NS_17StorageInitPolicyE@Base 3.2.1
 _ZN8casacore5ArrayINS_16RORecordFieldPtrIdEEE11takeStorageERKNS_9IPositionEPS2_NS_17StorageInitPolicyERKNS_17AbstractAllocatorIS2_EE@Base 3.2.1
 _ZN8casacore5ArrayINS_16RORecordFieldPtrIdEEE14preTakeStorageERKNS_9IPositionE@Base 3.2.1
 _ZN8casacore5ArrayINS_16RORecordFieldPtrIdEEE15BaseIteratorSTL9incrementEv@Base 3.2.1
 _ZN8casacore5ArrayINS_16RORecordFieldPtrIdEEE15BaseIteratorSTLC1ERKS3_@Base 3.2.1
 _ZN8casacore5ArrayINS_16RORecordFieldPtrIdEEE15BaseIteratorSTLC2ERKS3_@Base 3.2.1
 _ZN8casacore5ArrayINS_16RORecordFieldPtrIdEEE15doNonDegenerateERKS3_RKNS_9IPositionE@Base 3.2.1
 _ZN8casacore5ArrayINS_16RORecordFieldPtrIdEEE15postTakeStorageEv@Base 3.2.1
 _ZN8casacore5ArrayINS_16RORecordFieldPtrIdEEE16copyMatchingPartERKS3_@Base 3.2.1
 _ZN8casacore5ArrayINS_16RORecordFieldPtrIdEEE23copyToContiguousStorageEPS2_RKS3_NS_15ArrayInitPolicyE@Base 3.2.1
 _ZN8casacore5ArrayINS_16RORecordFieldPtrIdEEE6assignERKS3_@Base 3.2.1
 _ZN8casacore5ArrayINS_16RORecordFieldPtrIdEEE6resizeERKNS_9IPositionEb@Base 3.2.1
 _ZN8casacore5ArrayINS_16RORecordFieldPtrIdEEE6resizeERKNS_9IPositionEbNS_15ArrayInitPolicyE@Base 3.2.1
 _ZN8casacore5ArrayINS_16RORecordFieldPtrIdEEE6resizeEv@Base 3.2.1
 _ZN8casacore5ArrayINS_16RORecordFieldPtrIdEEE9referenceERKS3_@Base 3.2.1
 _ZN8casacore5ArrayINS_16RORecordFieldPtrIdEEEC1ERKNS_9IPositionENS_15ArrayInitPolicyEPNS_17Allocator_private13BulkAllocatorIS2_EE@Base 3.2.1
 _ZN8casacore5ArrayINS_16RORecordFieldPtrIdEEEC1ERKS3_@Base 3.2.1
 _ZN8casacore5ArrayINS_16RORecordFieldPtrIdEEEC1Ev@Base 3.2.1
 _ZN8casacore5ArrayINS_16RORecordFieldPtrIdEEEC2ERKNS_9IPositionENS_15ArrayInitPolicyEPNS_17Allocator_private13BulkAllocatorIS2_EE@Base 3.2.1
 _ZN8casacore5ArrayINS_16RORecordFieldPtrIdEEEC2ERKS3_@Base 3.2.1
 _ZN8casacore5ArrayINS_16RORecordFieldPtrIdEEEC2Ev@Base 3.2.1
 _ZN8casacore5ArrayINS_16RORecordFieldPtrIdEEED0Ev@Base 3.2.1
 _ZN8casacore5ArrayINS_16RORecordFieldPtrIdEEED1Ev@Base 3.2.1
 _ZN8casacore5ArrayINS_16RORecordFieldPtrIdEEED2Ev@Base 3.2.1
 _ZN8casacore5ArrayINS_16RORecordFieldPtrIdEEEaSERKS3_@Base 3.2.1
 _ZN8casacore5ArrayINS_16RORecordFieldPtrIdEEEclERKNS_6SlicerE@Base 3.2.1
 _ZN8casacore5ArrayINS_16RORecordFieldPtrIdEEEclERKNS_9IPositionES6_@Base 3.2.1
 _ZN8casacore5ArrayINS_16RORecordFieldPtrIdEEEclERKNS_9IPositionES6_S6_@Base 3.2.1
 _ZN8casacore5ArrayINS_4UnitEE10assignBaseERKNS_9ArrayBaseEb@Base 3.2.1
 _ZN8casacore5ArrayINS_4UnitEE10getStorageERb@Base 3.2.1
 _ZN8casacore5ArrayINS_4UnitEE10putStorageERPS1_b@Base 3.2.1
 _ZN8casacore5ArrayINS_4UnitEE11getVStorageERb@Base 3.2.1
 _ZN8casacore5ArrayINS_4UnitEE11putVStorageERPvb@Base 3.2.1
 _ZN8casacore5ArrayINS_4UnitEE11takeStorageERKNS_9IPositionEPKS1_@Base 3.2.1
 _ZN8casacore5ArrayINS_4UnitEE11takeStorageERKNS_9IPositionEPKS1_RKNS_17AbstractAllocatorIS1_EE@Base 3.2.1
 _ZN8casacore5ArrayINS_4UnitEE11takeStorageERKNS_9IPositionEPS1_NS_17StorageInitPolicyE@Base 3.2.1
 _ZN8casacore5ArrayINS_4UnitEE11takeStorageERKNS_9IPositionEPS1_NS_17StorageInitPolicyERKNS_17AbstractAllocatorIS1_EE@Base 3.2.1
 _ZN8casacore5ArrayINS_4UnitEE14preTakeStorageERKNS_9IPositionE@Base 3.2.1
 _ZN8casacore5ArrayINS_4UnitEE15BaseIteratorSTL9incrementEv@Base 3.2.1
 _ZN8casacore5ArrayINS_4UnitEE15BaseIteratorSTLC1ERKS2_@Base 3.2.1
 _ZN8casacore5ArrayINS_4UnitEE15BaseIteratorSTLC2ERKS2_@Base 3.2.1
 _ZN8casacore5ArrayINS_4UnitEE15doNonDegenerateERKS2_RKNS_9IPositionE@Base 3.2.1
 _ZN8casacore5ArrayINS_4UnitEE15postTakeStorageEv@Base 3.2.1
 _ZN8casacore5ArrayINS_4UnitEE16copyMatchingPartERKS2_@Base 3.2.1
 _ZN8casacore5ArrayINS_4UnitEE23copyToContiguousStorageEPS1_RKS2_NS_15ArrayInitPolicyE@Base 3.2.1
 _ZN8casacore5ArrayINS_4UnitEE6assignERKS2_@Base 3.2.1
 _ZN8casacore5ArrayINS_4UnitEE6resizeERKNS_9IPositionEb@Base 3.2.1
 _ZN8casacore5ArrayINS_4UnitEE6resizeERKNS_9IPositionEbNS_15ArrayInitPolicyE@Base 3.2.1
 _ZN8casacore5ArrayINS_4UnitEE6resizeEv@Base 3.2.1
 _ZN8casacore5ArrayINS_4UnitEE9referenceERKS2_@Base 3.2.1
 _ZN8casacore5ArrayINS_4UnitEEC1ERKNS_9IPositionE@Base 3.2.1
 _ZN8casacore5ArrayINS_4UnitEEC1ERKNS_9IPositionENS_15ArrayInitPolicyEPNS_17Allocator_private13BulkAllocatorIS1_EE@Base 3.2.1
 _ZN8casacore5ArrayINS_4UnitEEC1ERKS2_@Base 3.2.1
 _ZN8casacore5ArrayINS_4UnitEEC1Ev@Base 3.2.1
 _ZN8casacore5ArrayINS_4UnitEEC2ERKNS_9IPositionE@Base 3.2.1
 _ZN8casacore5ArrayINS_4UnitEEC2ERKNS_9IPositionENS_15ArrayInitPolicyEPNS_17Allocator_private13BulkAllocatorIS1_EE@Base 3.2.1
 _ZN8casacore5ArrayINS_4UnitEEC2ERKS2_@Base 3.2.1
 _ZN8casacore5ArrayINS_4UnitEEC2Ev@Base 3.2.1
 _ZN8casacore5ArrayINS_4UnitEED0Ev@Base 3.2.1
 _ZN8casacore5ArrayINS_4UnitEED1Ev@Base 3.2.1
 _ZN8casacore5ArrayINS_4UnitEED2Ev@Base 3.2.1
 _ZN8casacore5ArrayINS_4UnitEEaSERKS2_@Base 3.2.1
 _ZN8casacore5ArrayINS_4UnitEEclERKNS_6SlicerE@Base 3.2.1
 _ZN8casacore5ArrayINS_4UnitEEclERKNS_9IPositionES5_@Base 3.2.1
 _ZN8casacore5ArrayINS_4UnitEEclERKNS_9IPositionES5_S5_@Base 3.2.1
 _ZN8casacore5ArrayINS_6VectorIdEEE10assignBaseERKNS_9ArrayBaseEb@Base 3.2.1
 _ZN8casacore5ArrayINS_6VectorIdEEE10getStorageERb@Base 3.2.1
 _ZN8casacore5ArrayINS_6VectorIdEEE10putStorageERPS2_b@Base 3.2.1
 _ZN8casacore5ArrayINS_6VectorIdEEE11getVStorageERb@Base 3.2.1
 _ZN8casacore5ArrayINS_6VectorIdEEE11putVStorageERPvb@Base 3.2.1
 _ZN8casacore5ArrayINS_6VectorIdEEE11takeStorageERKNS_9IPositionEPKS2_@Base 3.2.1
 _ZN8casacore5ArrayINS_6VectorIdEEE11takeStorageERKNS_9IPositionEPKS2_RKNS_17AbstractAllocatorIS2_EE@Base 3.2.1
 _ZN8casacore5ArrayINS_6VectorIdEEE11takeStorageERKNS_9IPositionEPS2_NS_17StorageInitPolicyE@Base 3.2.1
 _ZN8casacore5ArrayINS_6VectorIdEEE11takeStorageERKNS_9IPositionEPS2_NS_17StorageInitPolicyERKNS_17AbstractAllocatorIS2_EE@Base 3.2.1
 _ZN8casacore5ArrayINS_6VectorIdEEE14preTakeStorageERKNS_9IPositionE@Base 3.2.1
 _ZN8casacore5ArrayINS_6VectorIdEEE15BaseIteratorSTL9incrementEv@Base 3.2.1
 _ZN8casacore5ArrayINS_6VectorIdEEE15BaseIteratorSTLC1ERKS3_@Base 3.2.1
 _ZN8casacore5ArrayINS_6VectorIdEEE15BaseIteratorSTLC2ERKS3_@Base 3.2.1
 _ZN8casacore5ArrayINS_6VectorIdEEE15doNonDegenerateERKS3_RKNS_9IPositionE@Base 3.2.1
 _ZN8casacore5ArrayINS_6VectorIdEEE15postTakeStorageEv@Base 3.2.1
 _ZN8casacore5ArrayINS_6VectorIdEEE16copyMatchingPartERKS3_@Base 3.2.1
 _ZN8casacore5ArrayINS_6VectorIdEEE23copyToContiguousStorageEPS2_RKS3_NS_15ArrayInitPolicyE@Base 3.2.1
 _ZN8casacore5ArrayINS_6VectorIdEEE6assignERKS3_@Base 3.2.1
 _ZN8casacore5ArrayINS_6VectorIdEEE6resizeERKNS_9IPositionEb@Base 3.2.1
 _ZN8casacore5ArrayINS_6VectorIdEEE6resizeERKNS_9IPositionEbNS_15ArrayInitPolicyE@Base 3.2.1
 _ZN8casacore5ArrayINS_6VectorIdEEE6resizeEv@Base 3.2.1
 _ZN8casacore5ArrayINS_6VectorIdEEE9referenceERKS3_@Base 3.2.1
 _ZN8casacore5ArrayINS_6VectorIdEEEC1ERKNS_9IPositionENS_15ArrayInitPolicyEPNS_17Allocator_private13BulkAllocatorIS2_EE@Base 3.2.1
 _ZN8casacore5ArrayINS_6VectorIdEEEC1ERKS3_@Base 3.2.1
 _ZN8casacore5ArrayINS_6VectorIdEEEC1Ev@Base 3.2.1
 _ZN8casacore5ArrayINS_6VectorIdEEEC2ERKNS_9IPositionENS_15ArrayInitPolicyEPNS_17Allocator_private13BulkAllocatorIS2_EE@Base 3.2.1
 _ZN8casacore5ArrayINS_6VectorIdEEEC2ERKS3_@Base 3.2.1
 _ZN8casacore5ArrayINS_6VectorIdEEEC2Ev@Base 3.2.1
 _ZN8casacore5ArrayINS_6VectorIdEEED0Ev@Base 3.2.1
 _ZN8casacore5ArrayINS_6VectorIdEEED1Ev@Base 3.2.1
 _ZN8casacore5ArrayINS_6VectorIdEEED2Ev@Base 3.2.1
 _ZN8casacore5ArrayINS_6VectorIdEEEaSERKS3_@Base 3.2.1
 _ZN8casacore5ArrayINS_6VectorIdEEEclERKNS_6SlicerE@Base 3.2.1
 _ZN8casacore5ArrayINS_6VectorIdEEEclERKNS_9IPositionES6_@Base 3.2.1
 _ZN8casacore5ArrayINS_6VectorIdEEEclERKNS_9IPositionES6_S6_@Base 3.2.1
 _ZN8casacore5ArrayINS_7QuantumIdEEE10assignBaseERKNS_9ArrayBaseEb@Base 3.2.1
 _ZN8casacore5ArrayINS_7QuantumIdEEE10getStorageERb@Base 3.2.1
 _ZN8casacore5ArrayINS_7QuantumIdEEE10putStorageERPS2_b@Base 3.2.1
 _ZN8casacore5ArrayINS_7QuantumIdEEE10setEndIterEv@Base 3.2.1
 _ZN8casacore5ArrayINS_7QuantumIdEEE11IteratorSTLC1EPKS2_@Base 3.2.1
 _ZN8casacore5ArrayINS_7QuantumIdEEE11IteratorSTLC1ERS3_@Base 3.2.1
 _ZN8casacore5ArrayINS_7QuantumIdEEE11IteratorSTLC2EPKS2_@Base 3.2.1
 _ZN8casacore5ArrayINS_7QuantumIdEEE11IteratorSTLC2ERS3_@Base 3.2.1
 _ZN8casacore5ArrayINS_7QuantumIdEEE11IteratorSTLdeEv@Base 3.2.1
 _ZN8casacore5ArrayINS_7QuantumIdEEE11IteratorSTLppEi@Base 3.2.1
 _ZN8casacore5ArrayINS_7QuantumIdEEE11IteratorSTLppEv@Base 3.2.1
 _ZN8casacore5ArrayINS_7QuantumIdEEE11IteratorSTLptEv@Base 3.2.1
 _ZN8casacore5ArrayINS_7QuantumIdEEE11getVStorageERb@Base 3.2.1
 _ZN8casacore5ArrayINS_7QuantumIdEEE11putVStorageERPvb@Base 3.2.1
 _ZN8casacore5ArrayINS_7QuantumIdEEE11takeStorageERKNS_9IPositionEPKS2_@Base 3.2.1
 _ZN8casacore5ArrayINS_7QuantumIdEEE11takeStorageERKNS_9IPositionEPKS2_RKNS_17AbstractAllocatorIS2_EE@Base 3.2.1
 _ZN8casacore5ArrayINS_7QuantumIdEEE11takeStorageERKNS_9IPositionEPS2_NS_17StorageInitPolicyE@Base 3.2.1
 _ZN8casacore5ArrayINS_7QuantumIdEEE11takeStorageERKNS_9IPositionEPS2_NS_17StorageInitPolicyERKNS_17AbstractAllocatorIS2_EE@Base 3.2.1
 _ZN8casacore5ArrayINS_7QuantumIdEEE13addDegenerateEj@Base 3.2.1
 _ZN8casacore5ArrayINS_7QuantumIdEEE13nonDegenerateERKS3_RKNS_9IPositionE@Base 3.2.1
 _ZN8casacore5ArrayINS_7QuantumIdEEE13nonDegenerateERKS3_jb@Base 3.2.1
 _ZN8casacore5ArrayINS_7QuantumIdEEE14adjustLastAxisERKNS_9IPositionEjb@Base 3.2.1
 _ZN8casacore5ArrayINS_7QuantumIdEEE14preTakeStorageERKNS_9IPositionE@Base 3.2.1
 _ZN8casacore5ArrayINS_7QuantumIdEEE14reformOrResizeERKNS_9IPositionEjb@Base 3.2.1
 _ZN8casacore5ArrayINS_7QuantumIdEEE15BaseIteratorSTL6getPosEv@Base 3.2.1
 _ZN8casacore5ArrayINS_7QuantumIdEEE15BaseIteratorSTL8nextElemEv@Base 3.2.1
 _ZN8casacore5ArrayINS_7QuantumIdEEE15BaseIteratorSTL8nextLineEv@Base 3.2.1
 _ZN8casacore5ArrayINS_7QuantumIdEEE15BaseIteratorSTL9incrementEv@Base 3.2.1
 _ZN8casacore5ArrayINS_7QuantumIdEEE15BaseIteratorSTLC1EPKS2_@Base 3.2.1
 _ZN8casacore5ArrayINS_7QuantumIdEEE15BaseIteratorSTLC1ERKS3_@Base 3.2.1
 _ZN8casacore5ArrayINS_7QuantumIdEEE15BaseIteratorSTLC2EPKS2_@Base 3.2.1
 _ZN8casacore5ArrayINS_7QuantumIdEEE15BaseIteratorSTLC2ERKS3_@Base 3.2.1
 _ZN8casacore5ArrayINS_7QuantumIdEEE15doNonDegenerateERKS3_RKNS_9IPositionE@Base 3.2.1
 _ZN8casacore5ArrayINS_7QuantumIdEEE15postTakeStorageEv@Base 3.2.1
 _ZN8casacore5ArrayINS_7QuantumIdEEE16ConstIteratorSTLC1EPKS2_@Base 3.2.1
 _ZN8casacore5ArrayINS_7QuantumIdEEE16ConstIteratorSTLC1ERKNS3_11IteratorSTLE@Base 3.2.1
 _ZN8casacore5ArrayINS_7QuantumIdEEE16ConstIteratorSTLC1ERKS3_@Base 3.2.1
 _ZN8casacore5ArrayINS_7QuantumIdEEE16ConstIteratorSTLC2EPKS2_@Base 3.2.1
 _ZN8casacore5ArrayINS_7QuantumIdEEE16ConstIteratorSTLC2ERKNS3_11IteratorSTLE@Base 3.2.1
 _ZN8casacore5ArrayINS_7QuantumIdEEE16ConstIteratorSTLC2ERKS3_@Base 3.2.1
 _ZN8casacore5ArrayINS_7QuantumIdEEE16ConstIteratorSTLppEi@Base 3.2.1
 _ZN8casacore5ArrayINS_7QuantumIdEEE16ConstIteratorSTLppEv@Base 3.2.1
 _ZN8casacore5ArrayINS_7QuantumIdEEE16ConstIteratorSTLptEv@Base 3.2.1
 _ZN8casacore5ArrayINS_7QuantumIdEEE16copyMatchingPartERKS3_@Base 3.2.1
 _ZN8casacore5ArrayINS_7QuantumIdEEE16removeDegenerateERKNS_9IPositionE@Base 3.2.1
 _ZN8casacore5ArrayINS_7QuantumIdEEE16removeDegenerateEjb@Base 3.2.1
 _ZN8casacore5ArrayINS_7QuantumIdEEE22defaultArrayInitPolicyEv@Base 3.2.1
 _ZN8casacore5ArrayINS_7QuantumIdEEE23copyToContiguousStorageEPS2_RKS3_NS_15ArrayInitPolicyE@Base 3.2.1
 _ZN8casacore5ArrayINS_7QuantumIdEEE3endEv@Base 3.2.1
 _ZN8casacore5ArrayINS_7QuantumIdEEE3setERKS2_@Base 3.2.1
 _ZN8casacore5ArrayINS_7QuantumIdEEE4cendEv@Base 3.2.1
 _ZN8casacore5ArrayINS_7QuantumIdEEE4dataEv@Base 3.2.1
 _ZN8casacore5ArrayINS_7QuantumIdEEE5applyEPFS2_RKS2_E@Base 3.2.1
 _ZN8casacore5ArrayINS_7QuantumIdEEE5applyEPFS2_S2_E@Base 3.2.1
 _ZN8casacore5ArrayINS_7QuantumIdEEE5applyERKNS_10FunctionalIS2_S2_EE@Base 3.2.1
 _ZN8casacore5ArrayINS_7QuantumIdEEE5beginEv@Base 3.2.1
 _ZN8casacore5ArrayINS_7QuantumIdEEE6assignERKS3_@Base 3.2.1
 _ZN8casacore5ArrayINS_7QuantumIdEEE6cbeginEv@Base 3.2.1
 _ZN8casacore5ArrayINS_7QuantumIdEEE6resizeERKNS_9IPositionEb@Base 3.2.1
 _ZN8casacore5ArrayINS_7QuantumIdEEE6resizeERKNS_9IPositionEbNS_15ArrayInitPolicyE@Base 3.2.1
 _ZN8casacore5ArrayINS_7QuantumIdEEE6resizeEv@Base 3.2.1
 _ZN8casacore5ArrayINS_7QuantumIdEEE6uniqueEv@Base 3.2.1
 _ZN8casacore5ArrayINS_7QuantumIdEEE9makeStepsEv@Base 3.2.1
 _ZN8casacore5ArrayINS_7QuantumIdEEE9referenceERKS3_@Base 3.2.1
 _ZN8casacore5ArrayINS_7QuantumIdEEEC1ENS_17Allocator_private9AllocSpecIS2_EE@Base 3.2.1
 _ZN8casacore5ArrayINS_7QuantumIdEEEC1ERKNS_9IPositionE@Base 3.2.1
 _ZN8casacore5ArrayINS_7QuantumIdEEEC1ERKNS_9IPositionENS_15ArrayInitPolicyE@Base 3.2.1
 _ZN8casacore5ArrayINS_7QuantumIdEEEC1ERKNS_9IPositionENS_15ArrayInitPolicyEPNS_17Allocator_private13BulkAllocatorIS2_EE@Base 3.2.1
 _ZN8casacore5ArrayINS_7QuantumIdEEEC1ERKNS_9IPositionEPKS2_@Base 3.2.1
 _ZN8casacore5ArrayINS_7QuantumIdEEEC1ERKNS_9IPositionEPS2_NS_17StorageInitPolicyE@Base 3.2.1
 _ZN8casacore5ArrayINS_7QuantumIdEEEC1ERKNS_9IPositionEPS2_NS_17StorageInitPolicyERKNS_17AbstractAllocatorIS2_EE@Base 3.2.1
 _ZN8casacore5ArrayINS_7QuantumIdEEEC1ERKNS_9IPositionERKS2_@Base 3.2.1
 _ZN8casacore5ArrayINS_7QuantumIdEEEC1ERKS3_@Base 3.2.1
 _ZN8casacore5ArrayINS_7QuantumIdEEEC1Ev@Base 3.2.1
 _ZN8casacore5ArrayINS_7QuantumIdEEEC2ENS_17Allocator_private9AllocSpecIS2_EE@Base 3.2.1
 _ZN8casacore5ArrayINS_7QuantumIdEEEC2ERKNS_9IPositionE@Base 3.2.1
 _ZN8casacore5ArrayINS_7QuantumIdEEEC2ERKNS_9IPositionENS_15ArrayInitPolicyE@Base 3.2.1
 _ZN8casacore5ArrayINS_7QuantumIdEEEC2ERKNS_9IPositionENS_15ArrayInitPolicyEPNS_17Allocator_private13BulkAllocatorIS2_EE@Base 3.2.1
 _ZN8casacore5ArrayINS_7QuantumIdEEEC2ERKNS_9IPositionEPKS2_@Base 3.2.1
 _ZN8casacore5ArrayINS_7QuantumIdEEEC2ERKNS_9IPositionEPS2_NS_17StorageInitPolicyE@Base 3.2.1
 _ZN8casacore5ArrayINS_7QuantumIdEEEC2ERKNS_9IPositionEPS2_NS_17StorageInitPolicyERKNS_17AbstractAllocatorIS2_EE@Base 3.2.1
 _ZN8casacore5ArrayINS_7QuantumIdEEEC2ERKNS_9IPositionERKS2_@Base 3.2.1
 _ZN8casacore5ArrayINS_7QuantumIdEEEC2ERKS3_@Base 3.2.1
 _ZN8casacore5ArrayINS_7QuantumIdEEEC2Ev@Base 3.2.1
 _ZN8casacore5ArrayINS_7QuantumIdEEED0Ev@Base 3.2.1
 _ZN8casacore5ArrayINS_7QuantumIdEEED1Ev@Base 3.2.1
 _ZN8casacore5ArrayINS_7QuantumIdEEED2Ev@Base 3.2.1
 _ZN8casacore5ArrayINS_7QuantumIdEEEaSERKNS_11MaskedArrayIS2_EE@Base 3.2.1
 _ZN8casacore5ArrayINS_7QuantumIdEEEaSERKS2_@Base 3.2.1
 _ZN8casacore5ArrayINS_7QuantumIdEEEaSERKS3_@Base 3.2.1
 _ZN8casacore5ArrayINS_7QuantumIdEEEclERKNS0_IbEE@Base 3.2.1
 _ZN8casacore5ArrayINS_7QuantumIdEEEclERKNS_11MaskedArrayIbEE@Base 3.2.1
 _ZN8casacore5ArrayINS_7QuantumIdEEEclERKNS_6SlicerE@Base 3.2.1
 _ZN8casacore5ArrayINS_7QuantumIdEEEclERKNS_9IPositionE@Base 3.2.1
 _ZN8casacore5ArrayINS_7QuantumIdEEEclERKNS_9IPositionES6_@Base 3.2.1
 _ZN8casacore5ArrayINS_7QuantumIdEEEclERKNS_9IPositionES6_S6_@Base 3.2.1
 _ZN8casacore5ArrayINS_8AutoDiffIdEEE10assignBaseERKNS_9ArrayBaseEb@Base 3.2.1
 _ZN8casacore5ArrayINS_8AutoDiffIdEEE10getStorageERb@Base 3.2.1
 _ZN8casacore5ArrayINS_8AutoDiffIdEEE10putStorageERPS2_b@Base 3.2.1
 _ZN8casacore5ArrayINS_8AutoDiffIdEEE10setEndIterEv@Base 3.2.1
 _ZN8casacore5ArrayINS_8AutoDiffIdEEE11getVStorageERb@Base 3.2.1
 _ZN8casacore5ArrayINS_8AutoDiffIdEEE11putVStorageERPvb@Base 3.2.1
 _ZN8casacore5ArrayINS_8AutoDiffIdEEE11takeStorageERKNS_9IPositionEPKS2_@Base 3.2.1
 _ZN8casacore5ArrayINS_8AutoDiffIdEEE11takeStorageERKNS_9IPositionEPKS2_RKNS_17AbstractAllocatorIS2_EE@Base 3.2.1
 _ZN8casacore5ArrayINS_8AutoDiffIdEEE11takeStorageERKNS_9IPositionEPS2_NS_17StorageInitPolicyE@Base 3.2.1
 _ZN8casacore5ArrayINS_8AutoDiffIdEEE11takeStorageERKNS_9IPositionEPS2_NS_17StorageInitPolicyERKNS_17AbstractAllocatorIS2_EE@Base 3.2.1
 _ZN8casacore5ArrayINS_8AutoDiffIdEEE14preTakeStorageERKNS_9IPositionE@Base 3.2.1
 _ZN8casacore5ArrayINS_8AutoDiffIdEEE15BaseIteratorSTL9incrementEv@Base 3.2.1
 _ZN8casacore5ArrayINS_8AutoDiffIdEEE15BaseIteratorSTLC1ERKS3_@Base 3.2.1
 _ZN8casacore5ArrayINS_8AutoDiffIdEEE15BaseIteratorSTLC2ERKS3_@Base 3.2.1
 _ZN8casacore5ArrayINS_8AutoDiffIdEEE15doNonDegenerateERKS3_RKNS_9IPositionE@Base 3.2.1
 _ZN8casacore5ArrayINS_8AutoDiffIdEEE15postTakeStorageEv@Base 3.2.1
 _ZN8casacore5ArrayINS_8AutoDiffIdEEE16copyMatchingPartERKS3_@Base 3.2.1
 _ZN8casacore5ArrayINS_8AutoDiffIdEEE23copyToContiguousStorageEPS2_RKS3_NS_15ArrayInitPolicyE@Base 3.2.1
 _ZN8casacore5ArrayINS_8AutoDiffIdEEE6assignERKS3_@Base 3.2.1
 _ZN8casacore5ArrayINS_8AutoDiffIdEEE6resizeERKNS_9IPositionEb@Base 3.2.1
 _ZN8casacore5ArrayINS_8AutoDiffIdEEE6resizeERKNS_9IPositionEbNS_15ArrayInitPolicyE@Base 3.2.1
 _ZN8casacore5ArrayINS_8AutoDiffIdEEE6resizeEv@Base 3.2.1
 _ZN8casacore5ArrayINS_8AutoDiffIdEEE9referenceERKS3_@Base 3.2.1
 _ZN8casacore5ArrayINS_8AutoDiffIdEEEC1ERKNS_9IPositionENS_15ArrayInitPolicyEPNS_17Allocator_private13BulkAllocatorIS2_EE@Base 3.2.1
 _ZN8casacore5ArrayINS_8AutoDiffIdEEEC1ERKS3_@Base 3.2.1
 _ZN8casacore5ArrayINS_8AutoDiffIdEEEC1Ev@Base 3.2.1
 _ZN8casacore5ArrayINS_8AutoDiffIdEEEC2ERKNS_9IPositionENS_15ArrayInitPolicyEPNS_17Allocator_private13BulkAllocatorIS2_EE@Base 3.2.1
 _ZN8casacore5ArrayINS_8AutoDiffIdEEEC2ERKS3_@Base 3.2.1
 _ZN8casacore5ArrayINS_8AutoDiffIdEEEC2Ev@Base 3.2.1
 _ZN8casacore5ArrayINS_8AutoDiffIdEEED0Ev@Base 3.2.1
 _ZN8casacore5ArrayINS_8AutoDiffIdEEED1Ev@Base 3.2.1
 _ZN8casacore5ArrayINS_8AutoDiffIdEEED2Ev@Base 3.2.1
 _ZN8casacore5ArrayINS_8AutoDiffIdEEEaSERKS3_@Base 3.2.1
 _ZN8casacore5ArrayINS_8AutoDiffIdEEEclERKNS_6SlicerE@Base 3.2.1
 _ZN8casacore5ArrayINS_8AutoDiffIdEEEclERKNS_9IPositionES6_@Base 3.2.1
 _ZN8casacore5ArrayINS_8AutoDiffIdEEEclERKNS_9IPositionES6_S6_@Base 3.2.1
 _ZN8casacore5ArrayINS_9MPositionEE10assignBaseERKNS_9ArrayBaseEb@Base 3.2.1
 _ZN8casacore5ArrayINS_9MPositionEE10getStorageERb@Base 3.2.1
 _ZN8casacore5ArrayINS_9MPositionEE10putStorageERPS1_b@Base 3.2.1
 _ZN8casacore5ArrayINS_9MPositionEE11getVStorageERb@Base 3.2.1
 _ZN8casacore5ArrayINS_9MPositionEE11putVStorageERPvb@Base 3.2.1
 _ZN8casacore5ArrayINS_9MPositionEE11takeStorageERKNS_9IPositionEPKS1_@Base 3.2.1
 _ZN8casacore5ArrayINS_9MPositionEE11takeStorageERKNS_9IPositionEPKS1_RKNS_17AbstractAllocatorIS1_EE@Base 3.2.1
 _ZN8casacore5ArrayINS_9MPositionEE11takeStorageERKNS_9IPositionEPS1_NS_17StorageInitPolicyE@Base 3.2.1
 _ZN8casacore5ArrayINS_9MPositionEE11takeStorageERKNS_9IPositionEPS1_NS_17StorageInitPolicyERKNS_17AbstractAllocatorIS1_EE@Base 3.2.1
 _ZN8casacore5ArrayINS_9MPositionEE14preTakeStorageERKNS_9IPositionE@Base 3.2.1
 _ZN8casacore5ArrayINS_9MPositionEE15BaseIteratorSTL9incrementEv@Base 3.2.1
 _ZN8casacore5ArrayINS_9MPositionEE15BaseIteratorSTLC1ERKS2_@Base 3.2.1
 _ZN8casacore5ArrayINS_9MPositionEE15BaseIteratorSTLC2ERKS2_@Base 3.2.1
 _ZN8casacore5ArrayINS_9MPositionEE15doNonDegenerateERKS2_RKNS_9IPositionE@Base 3.2.1
 _ZN8casacore5ArrayINS_9MPositionEE15postTakeStorageEv@Base 3.2.1
 _ZN8casacore5ArrayINS_9MPositionEE16copyMatchingPartERKS2_@Base 3.2.1
 _ZN8casacore5ArrayINS_9MPositionEE23copyToContiguousStorageEPS1_RKS2_NS_15ArrayInitPolicyE@Base 3.2.1
 _ZN8casacore5ArrayINS_9MPositionEE6assignERKS2_@Base 3.2.1
 _ZN8casacore5ArrayINS_9MPositionEE6resizeERKNS_9IPositionEb@Base 3.2.1
 _ZN8casacore5ArrayINS_9MPositionEE6resizeERKNS_9IPositionEbNS_15ArrayInitPolicyE@Base 3.2.1
 _ZN8casacore5ArrayINS_9MPositionEE6resizeEv@Base 3.2.1
 _ZN8casacore5ArrayINS_9MPositionEE9referenceERKS2_@Base 3.2.1
 _ZN8casacore5ArrayINS_9MPositionEEC1ERKNS_9IPositionENS_15ArrayInitPolicyEPNS_17Allocator_private13BulkAllocatorIS1_EE@Base 3.2.1
 _ZN8casacore5ArrayINS_9MPositionEEC1ERKS2_@Base 3.2.1
 _ZN8casacore5ArrayINS_9MPositionEEC1Ev@Base 3.2.1
 _ZN8casacore5ArrayINS_9MPositionEEC2ERKNS_9IPositionENS_15ArrayInitPolicyEPNS_17Allocator_private13BulkAllocatorIS1_EE@Base 3.2.1
 _ZN8casacore5ArrayINS_9MPositionEEC2ERKS2_@Base 3.2.1
 _ZN8casacore5ArrayINS_9MPositionEEC2Ev@Base 3.2.1
 _ZN8casacore5ArrayINS_9MPositionEED0Ev@Base 3.2.1
 _ZN8casacore5ArrayINS_9MPositionEED1Ev@Base 3.2.1
 _ZN8casacore5ArrayINS_9MPositionEED2Ev@Base 3.2.1
 _ZN8casacore5ArrayINS_9MPositionEEaSERKS2_@Base 3.2.1
 _ZN8casacore5ArrayINS_9MPositionEEclERKNS_6SlicerE@Base 3.2.1
 _ZN8casacore5ArrayINS_9MPositionEEclERKNS_9IPositionES5_@Base 3.2.1
 _ZN8casacore5ArrayINS_9MPositionEEclERKNS_9IPositionES5_S5_@Base 3.2.1
 _ZN8casacore5BlockINS_10MDirectionEE4initENS_15ArrayInitPolicyE@Base 3.2.1
 _ZN8casacore5BlockINS_10MDirectionEE6deinitEv@Base 3.2.1
 _ZN8casacore5BlockINS_10MFrequencyEE4initENS_15ArrayInitPolicyE@Base 3.2.1
 _ZN8casacore5BlockINS_10MFrequencyEE6deinitEv@Base 3.2.1
 _ZN8casacore5BlockINS_10MVPositionEE4initENS_15ArrayInitPolicyE@Base 3.2.1
 _ZN8casacore5BlockINS_10MVPositionEE6deinitEv@Base 3.2.1
 _ZN8casacore5BlockINS_16RORecordFieldPtrIdEEE4initENS_15ArrayInitPolicyE@Base 3.2.1
 _ZN8casacore5BlockINS_16RORecordFieldPtrIdEEE6deinitEv@Base 3.2.1
 _ZN8casacore5BlockINS_4UnitEE6deinitEv@Base 3.2.1
 _ZN8casacore5BlockINS_4UnitEE7deallocEv@Base 3.2.1
 _ZN8casacore5BlockINS_6VectorIdEEE4initENS_15ArrayInitPolicyE@Base 3.2.1
 _ZN8casacore5BlockINS_6VectorIdEEE6deinitEv@Base 3.2.1
 _ZN8casacore5BlockINS_7QuantumIdEEE6deinitEv@Base 3.2.1
 _ZN8casacore5BlockINS_7QuantumIdEEE7deallocEv@Base 3.2.1
 _ZN8casacore5BlockINS_8AutoDiffIdEEE4initENS_15ArrayInitPolicyE@Base 3.2.1
 _ZN8casacore5BlockINS_8AutoDiffIdEEE6deinitEv@Base 3.2.1
 _ZN8casacore5BlockINS_9MPositionEE4initENS_15ArrayInitPolicyE@Base 3.2.1
 _ZN8casacore5BlockINS_9MPositionEE6deinitEv@Base 3.2.1
 _ZN8casacore5BlockIPNS_9MeasValueEE6deinitEv@Base 3.2.1
 _ZN8casacore5MCuvw10getConvertERNS_12MConvertBaseERKNS_6MRBaseES5_@Base 3.2.1
 _ZN8casacore5MCuvw11doFillStateEv@Base 3.2.1
 _ZN8casacore5MCuvw11initConvertEjRNS_12MConvertBaseE@Base 3.2.1
 _ZN8casacore5MCuvw12clearConvertEv@Base 3.2.1
 _ZN8casacore5MCuvw13theirInitOnceE@Base 3.2.1
 _ZN8casacore5MCuvw6getAPPEv@Base 3.2.1
 _ZN8casacore5MCuvw6toPoleERNS_10MVPositionE@Base 3.2.1
 _ZN8casacore5MCuvw7ToRef_pE@Base 3.2.1
 _ZN8casacore5MCuvw8FromTo_pE@Base 3.2.1
 _ZN8casacore5MCuvw8fromPoleERNS_10MVPositionE@Base 3.2.1
 _ZN8casacore5MCuvw8getB1950Ev@Base 3.2.1
 _ZN8casacore5MCuvw8getJ2000Ev@Base 3.2.1
 _ZN8casacore5MCuvw9doConvertERNS_5MVuvwERNS_6MRBaseES4_RKNS_12MConvertBaseE@Base 3.2.1
 _ZN8casacore5MCuvw9doConvertERNS_9MeasValueERNS_6MRBaseES4_RKNS_12MConvertBaseE@Base 3.2.1
 _ZN8casacore5MCuvw9showStateEv@Base 3.2.1
 _ZN8casacore5MCuvwC1Ev@Base 3.2.1
 _ZN8casacore5MCuvwC2Ev@Base 3.2.1
 _ZN8casacore5MCuvwD0Ev@Base 3.2.1
 _ZN8casacore5MCuvwD1Ev@Base 3.2.1
 _ZN8casacore5MCuvwD2Ev@Base 3.2.1
 _ZN8casacore5Mutex6unlockEv@Base 3.2.1
 _ZN8casacore6MCBase9findStateERjPjS2_RbPbPKjS6_RS5_S7_jjPA3_S5_@Base 3.2.1
 _ZN8casacore6MCBase9makeStateEPjjjPA3_Kj@Base 3.2.1
 _ZN8casacore6MCBase9showStateEPjjjPA3_Kj@Base 3.2.1
 _ZN8casacore6MCBaseD0Ev@Base 3.2.1
 _ZN8casacore6MCBaseD1Ev@Base 3.2.1
 _ZN8casacore6MCBaseD2Ev@Base 3.2.1
 _ZN8casacore6MEpoch10allMyTypesERiS1_RPKj@Base 3.2.1
 _ZN8casacore6MEpoch12checkMyTypesEv@Base 3.2.1
 _ZN8casacore6MEpoch12setRefStringERKNS_6StringE@Base 3.2.1
 _ZN8casacore6MEpoch6assureERKNS_7MeasureE@Base 3.2.1
 _ZN8casacore6MEpoch6giveMeERNS_7MeasRefIS0_EERKNS_6StringE@Base 3.2.1
 _ZN8casacore6MEpoch6myTypeEv@Base 3.2.1
 _ZN8casacore6MEpoch6showMeEv@Base 3.2.1
 _ZN8casacore6MEpoch7getTypeERNS0_5TypesERKNS_6StringE@Base 3.2.1
 _ZN8casacore6MEpoch8castTypeEj@Base 3.2.1
 _ZN8casacore6MEpoch8showTypeENS0_5TypesE@Base 3.2.1
 _ZN8casacore6MEpoch8showTypeEj@Base 3.2.1
 _ZN8casacore6MEpoch9setOffsetERKNS_7MeasureE@Base 3.2.1
 _ZN8casacore6MEpochC1EPKNS_7MeasureE@Base 3.2.1
 _ZN8casacore6MEpochC1EPKNS_9MeasValueE@Base 3.2.1
 _ZN8casacore6MEpochC1ERKNS_7MVEpochE@Base 3.2.1
 _ZN8casacore6MEpochC1ERKNS_7MVEpochENS0_5TypesE@Base 3.2.1
 _ZN8casacore6MEpochC1ERKNS_7MVEpochERKNS_7MeasRefIS0_EE@Base 3.2.1
 _ZN8casacore6MEpochC1ERKNS_7QuantumIdEE@Base 3.2.1
 _ZN8casacore6MEpochC1ERKNS_7QuantumIdEENS0_5TypesE@Base 3.2.1
 _ZN8casacore6MEpochC1ERKNS_7QuantumIdEERKNS_7MeasRefIS0_EE@Base 3.2.1
 _ZN8casacore6MEpochC1Ev@Base 3.2.1
 _ZN8casacore6MEpochC2EPKNS_7MeasureE@Base 3.2.1
 _ZN8casacore6MEpochC2EPKNS_9MeasValueE@Base 3.2.1
 _ZN8casacore6MEpochC2ERKNS_7MVEpochE@Base 3.2.1
 _ZN8casacore6MEpochC2ERKNS_7MVEpochENS0_5TypesE@Base 3.2.1
 _ZN8casacore6MEpochC2ERKNS_7MVEpochERKNS_7MeasRefIS0_EE@Base 3.2.1
 _ZN8casacore6MEpochC2ERKNS_7QuantumIdEE@Base 3.2.1
 _ZN8casacore6MEpochC2ERKNS_7QuantumIdEENS0_5TypesE@Base 3.2.1
 _ZN8casacore6MEpochC2ERKNS_7QuantumIdEERKNS_7MeasRefIS0_EE@Base 3.2.1
 _ZN8casacore6MEpochC2Ev@Base 3.2.1
 _ZN8casacore6MEpochD0Ev@Base 3.2.1
 _ZN8casacore6MEpochD1Ev@Base 3.2.1
 _ZN8casacore6MEpochD2Ev@Base 3.2.1
 _ZN8casacore6MRBaseD0Ev@Base 3.2.1
 _ZN8casacore6MRBaseD1Ev@Base 3.2.1
 _ZN8casacore6MRBaseD2Ev@Base 3.2.1
 _ZN8casacore6Stokes13fromFITSValueEi@Base 3.2.1
 _ZN8casacore6Stokes4nameENS0_11StokesTypesE@Base 3.2.1
 _ZN8casacore6Stokes4typeERKNS_6StringE@Base 3.2.1
 _ZN8casacore6Stokes4typeEi@Base 3.2.1
 _ZN8casacore6Stokes8allNamesEb@Base 3.2.1
 _ZN8casacore6Stokes9FITSValueENS0_11StokesTypesE@Base 3.2.1
 _ZN8casacore6Stokes9receptor1ENS0_11StokesTypesE@Base 3.2.1
 _ZN8casacore6Stokes9receptor2ENS0_11StokesTypesE@Base 3.2.1
 _ZN8casacore6String8toStringIjEES0_RKT_@Base 3.2.1
 _ZN8casacore6StringD1Ev@Base 3.2.1
 _ZN8casacore6StringD2Ev@Base 3.2.1
 _ZN8casacore6VectorINS0_IdEEE14preTakeStorageERKNS_9IPositionE@Base 3.2.1
 _ZN8casacore6VectorINS0_IdEEE15doNonDegenerateERKNS_5ArrayIS1_EERKNS_9IPositionE@Base 3.2.1
 _ZN8casacore6VectorINS0_IdEEE6assignERKNS_5ArrayIS1_EE@Base 3.2.1
 _ZN8casacore6VectorINS0_IdEEE6resizeERKNS_9IPositionEbNS_15ArrayInitPolicyE@Base 3.2.1
 _ZN8casacore6VectorINS0_IdEEE6resizeEv@Base 3.2.1
 _ZN8casacore6VectorINS0_IdEEE9referenceERKNS_5ArrayIS1_EE@Base 3.2.1
 _ZN8casacore6VectorINS0_IdEEEC1Em@Base 3.2.1
 _ZN8casacore6VectorINS0_IdEEEC2Em@Base 3.2.1
 _ZN8casacore6VectorINS0_IdEEED0Ev@Base 3.2.1
 _ZN8casacore6VectorINS0_IdEEED1Ev@Base 3.2.1
 _ZN8casacore6VectorINS0_IdEEED2Ev@Base 3.2.1
 _ZN8casacore6VectorINS0_IdEEEaSERKNS_5ArrayIS1_EE@Base 3.2.1
 _ZN8casacore6VectorINS0_IdEEEaSERKS2_@Base 3.2.1
 _ZN8casacore6VectorINS_10MDirectionEE14preTakeStorageERKNS_9IPositionE@Base 3.2.1
 _ZN8casacore6VectorINS_10MDirectionEE15doNonDegenerateERKNS_5ArrayIS1_EERKNS_9IPositionE@Base 3.2.1
 _ZN8casacore6VectorINS_10MDirectionEE6assignERKNS_5ArrayIS1_EE@Base 3.2.1
 _ZN8casacore6VectorINS_10MDirectionEE6resizeERKNS_9IPositionEbNS_15ArrayInitPolicyE@Base 3.2.1
 _ZN8casacore6VectorINS_10MDirectionEE6resizeEv@Base 3.2.1
 _ZN8casacore6VectorINS_10MDirectionEE9referenceERKNS_5ArrayIS1_EE@Base 3.2.1
 _ZN8casacore6VectorINS_10MDirectionEEC1Ev@Base 3.2.1
 _ZN8casacore6VectorINS_10MDirectionEEC2Ev@Base 3.2.1
 _ZN8casacore6VectorINS_10MDirectionEED0Ev@Base 3.2.1
 _ZN8casacore6VectorINS_10MDirectionEED1Ev@Base 3.2.1
 _ZN8casacore6VectorINS_10MDirectionEED2Ev@Base 3.2.1
 _ZN8casacore6VectorINS_10MDirectionEEaSERKNS_5ArrayIS1_EE@Base 3.2.1
 _ZN8casacore6VectorINS_10MDirectionEEaSERKS2_@Base 3.2.1
 _ZN8casacore6VectorINS_10MFrequencyEE14preTakeStorageERKNS_9IPositionE@Base 3.2.1
 _ZN8casacore6VectorINS_10MFrequencyEE15doNonDegenerateERKNS_5ArrayIS1_EERKNS_9IPositionE@Base 3.2.1
 _ZN8casacore6VectorINS_10MFrequencyEE6assignERKNS_5ArrayIS1_EE@Base 3.2.1
 _ZN8casacore6VectorINS_10MFrequencyEE6resizeERKNS_9IPositionEbNS_15ArrayInitPolicyE@Base 3.2.1
 _ZN8casacore6VectorINS_10MFrequencyEE6resizeEv@Base 3.2.1
 _ZN8casacore6VectorINS_10MFrequencyEE9referenceERKNS_5ArrayIS1_EE@Base 3.2.1
 _ZN8casacore6VectorINS_10MFrequencyEEC1Ev@Base 3.2.1
 _ZN8casacore6VectorINS_10MFrequencyEEC2Ev@Base 3.2.1
 _ZN8casacore6VectorINS_10MFrequencyEED0Ev@Base 3.2.1
 _ZN8casacore6VectorINS_10MFrequencyEED1Ev@Base 3.2.1
 _ZN8casacore6VectorINS_10MFrequencyEED2Ev@Base 3.2.1
 _ZN8casacore6VectorINS_10MFrequencyEEaSERKNS_5ArrayIS1_EE@Base 3.2.1
 _ZN8casacore6VectorINS_10MFrequencyEEaSERKS2_@Base 3.2.1
 _ZN8casacore6VectorINS_10MVPositionEE14preTakeStorageERKNS_9IPositionE@Base 3.2.1
 _ZN8casacore6VectorINS_10MVPositionEE15doNonDegenerateERKNS_5ArrayIS1_EERKNS_9IPositionE@Base 3.2.1
 _ZN8casacore6VectorINS_10MVPositionEE6assignERKNS_5ArrayIS1_EE@Base 3.2.1
 _ZN8casacore6VectorINS_10MVPositionEE6resizeERKNS_9IPositionEbNS_15ArrayInitPolicyE@Base 3.2.1
 _ZN8casacore6VectorINS_10MVPositionEE6resizeEv@Base 3.2.1
 _ZN8casacore6VectorINS_10MVPositionEE9referenceERKNS_5ArrayIS1_EE@Base 3.2.1
 _ZN8casacore6VectorINS_10MVPositionEED0Ev@Base 3.2.1
 _ZN8casacore6VectorINS_10MVPositionEED1Ev@Base 3.2.1
 _ZN8casacore6VectorINS_10MVPositionEED2Ev@Base 3.2.1
 _ZN8casacore6VectorINS_10MVPositionEEaSERKNS_5ArrayIS1_EE@Base 3.2.1
 _ZN8casacore6VectorINS_10MVPositionEEaSERKS2_@Base 3.2.1
 _ZN8casacore6VectorINS_16RORecordFieldPtrIdEEE14preTakeStorageERKNS_9IPositionE@Base 3.2.1
 _ZN8casacore6VectorINS_16RORecordFieldPtrIdEEE15doNonDegenerateERKNS_5ArrayIS2_EERKNS_9IPositionE@Base 3.2.1
 _ZN8casacore6VectorINS_16RORecordFieldPtrIdEEE6assignERKNS_5ArrayIS2_EE@Base 3.2.1
 _ZN8casacore6VectorINS_16RORecordFieldPtrIdEEE6resizeERKNS_9IPositionEbNS_15ArrayInitPolicyE@Base 3.2.1
 _ZN8casacore6VectorINS_16RORecordFieldPtrIdEEE6resizeEv@Base 3.2.1
 _ZN8casacore6VectorINS_16RORecordFieldPtrIdEEE9referenceERKNS_5ArrayIS2_EE@Base 3.2.1
 _ZN8casacore6VectorINS_16RORecordFieldPtrIdEEEC1Ev@Base 3.2.1
 _ZN8casacore6VectorINS_16RORecordFieldPtrIdEEEC2Ev@Base 3.2.1
 _ZN8casacore6VectorINS_16RORecordFieldPtrIdEEED0Ev@Base 3.2.1
 _ZN8casacore6VectorINS_16RORecordFieldPtrIdEEED1Ev@Base 3.2.1
 _ZN8casacore6VectorINS_16RORecordFieldPtrIdEEED2Ev@Base 3.2.1
 _ZN8casacore6VectorINS_16RORecordFieldPtrIdEEEaSERKNS_5ArrayIS2_EE@Base 3.2.1
 _ZN8casacore6VectorINS_16RORecordFieldPtrIdEEEaSERKS3_@Base 3.2.1
 _ZN8casacore6VectorINS_4UnitEE14preTakeStorageERKNS_9IPositionE@Base 3.2.1
 _ZN8casacore6VectorINS_4UnitEE15doNonDegenerateERKNS_5ArrayIS1_EERKNS_9IPositionE@Base 3.2.1
 _ZN8casacore6VectorINS_4UnitEE6assignERKNS_5ArrayIS1_EE@Base 3.2.1
 _ZN8casacore6VectorINS_4UnitEE6resizeERKNS_9IPositionEbNS_15ArrayInitPolicyE@Base 3.2.1
 _ZN8casacore6VectorINS_4UnitEE6resizeEv@Base 3.2.1
 _ZN8casacore6VectorINS_4UnitEE9referenceERKNS_5ArrayIS1_EE@Base 3.2.1
 _ZN8casacore6VectorINS_4UnitEEC1Ev@Base 3.2.1
 _ZN8casacore6VectorINS_4UnitEEC2Ev@Base 3.2.1
 _ZN8casacore6VectorINS_4UnitEED0Ev@Base 3.2.1
 _ZN8casacore6VectorINS_4UnitEED1Ev@Base 3.2.1
 _ZN8casacore6VectorINS_4UnitEED2Ev@Base 3.2.1
 _ZN8casacore6VectorINS_4UnitEEaSERKNS_5ArrayIS1_EE@Base 3.2.1
 _ZN8casacore6VectorINS_4UnitEEaSERKS2_@Base 3.2.1
 _ZN8casacore6VectorINS_7QuantumIdEEE14preTakeStorageERKNS_9IPositionE@Base 3.2.1
 _ZN8casacore6VectorINS_7QuantumIdEEE15doNonDegenerateERKNS_5ArrayIS2_EERKNS_9IPositionE@Base 3.2.1
 _ZN8casacore6VectorINS_7QuantumIdEEE6assignERKNS_5ArrayIS2_EE@Base 3.2.1
 _ZN8casacore6VectorINS_7QuantumIdEEE6resizeERKNS_9IPositionEbNS_15ArrayInitPolicyE@Base 3.2.1
 _ZN8casacore6VectorINS_7QuantumIdEEE6resizeEv@Base 3.2.1
 _ZN8casacore6VectorINS_7QuantumIdEEE9referenceERKNS_5ArrayIS2_EE@Base 3.2.1
 _ZN8casacore6VectorINS_7QuantumIdEEEC1Em@Base 3.2.1
 _ZN8casacore6VectorINS_7QuantumIdEEEC2Em@Base 3.2.1
 _ZN8casacore6VectorINS_7QuantumIdEEED0Ev@Base 3.2.1
 _ZN8casacore6VectorINS_7QuantumIdEEED1Ev@Base 3.2.1
 _ZN8casacore6VectorINS_7QuantumIdEEED2Ev@Base 3.2.1
 _ZN8casacore6VectorINS_7QuantumIdEEEaSERKNS_5ArrayIS2_EE@Base 3.2.1
 _ZN8casacore6VectorINS_7QuantumIdEEEaSERKS3_@Base 3.2.1
 _ZN8casacore6VectorINS_8AutoDiffIdEEE14preTakeStorageERKNS_9IPositionE@Base 3.2.1
 _ZN8casacore6VectorINS_8AutoDiffIdEEE15doNonDegenerateERKNS_5ArrayIS2_EERKNS_9IPositionE@Base 3.2.1
 _ZN8casacore6VectorINS_8AutoDiffIdEEE6assignERKNS_5ArrayIS2_EE@Base 3.2.1
 _ZN8casacore6VectorINS_8AutoDiffIdEEE6resizeERKNS_9IPositionEbNS_15ArrayInitPolicyE@Base 3.2.1
 _ZN8casacore6VectorINS_8AutoDiffIdEEE6resizeEv@Base 3.2.1
 _ZN8casacore6VectorINS_8AutoDiffIdEEE9referenceERKNS_5ArrayIS2_EE@Base 3.2.1
 _ZN8casacore6VectorINS_8AutoDiffIdEEEC1Em@Base 3.2.1
 _ZN8casacore6VectorINS_8AutoDiffIdEEEC2Em@Base 3.2.1
 _ZN8casacore6VectorINS_8AutoDiffIdEEED0Ev@Base 3.2.1
 _ZN8casacore6VectorINS_8AutoDiffIdEEED1Ev@Base 3.2.1
 _ZN8casacore6VectorINS_8AutoDiffIdEEED2Ev@Base 3.2.1
 _ZN8casacore6VectorINS_8AutoDiffIdEEEaSERKNS_5ArrayIS2_EE@Base 3.2.1
 _ZN8casacore6VectorINS_8AutoDiffIdEEEaSERKS3_@Base 3.2.1
 _ZN8casacore6VectorINS_9MPositionEE14preTakeStorageERKNS_9IPositionE@Base 3.2.1
 _ZN8casacore6VectorINS_9MPositionEE15doNonDegenerateERKNS_5ArrayIS1_EERKNS_9IPositionE@Base 3.2.1
 _ZN8casacore6VectorINS_9MPositionEE6assignERKNS_5ArrayIS1_EE@Base 3.2.1
 _ZN8casacore6VectorINS_9MPositionEE6resizeERKNS_9IPositionEbNS_15ArrayInitPolicyE@Base 3.2.1
 _ZN8casacore6VectorINS_9MPositionEE6resizeEv@Base 3.2.1
 _ZN8casacore6VectorINS_9MPositionEE9referenceERKNS_5ArrayIS1_EE@Base 3.2.1
 _ZN8casacore6VectorINS_9MPositionEEC1Ev@Base 3.2.1
 _ZN8casacore6VectorINS_9MPositionEEC2Ev@Base 3.2.1
 _ZN8casacore6VectorINS_9MPositionEED0Ev@Base 3.2.1
 _ZN8casacore6VectorINS_9MPositionEED1Ev@Base 3.2.1
 _ZN8casacore6VectorINS_9MPositionEED2Ev@Base 3.2.1
 _ZN8casacore6VectorINS_9MPositionEEaSERKNS_5ArrayIS1_EE@Base 3.2.1
 _ZN8casacore6VectorINS_9MPositionEEaSERKS2_@Base 3.2.1
 _ZN8casacore6minMaxIjEEvRT_S2_RKNS_5ArrayIS1_EE@Base 3.2.1
 _ZN8casacore6objsetINS_7QuantumIdEEEEvPT_S3_mm@Base 3.2.1
 _ZN8casacore7MCEpoch10getConvertERNS_12MConvertBaseERKNS_6MRBaseES5_@Base 3.2.1
 _ZN8casacore7MCEpoch11doFillStateEv@Base 3.2.1
 _ZN8casacore7MCEpoch11initConvertEjRNS_12MConvertBaseE@Base 3.2.1
 _ZN8casacore7MCEpoch12clearConvertEv@Base 3.2.1
 _ZN8casacore7MCEpoch13theirInitOnceE@Base 3.2.1
 _ZN8casacore7MCEpoch7ToRef_pE@Base 3.2.1
 _ZN8casacore7MCEpoch8FromTo_pE@Base 3.2.1
 _ZN8casacore7MCEpoch9doConvertERNS_7MVEpochERNS_6MRBaseES4_RKNS_12MConvertBaseE@Base 3.2.1
 _ZN8casacore7MCEpoch9doConvertERNS_9MeasValueERNS_6MRBaseES4_RKNS_12MConvertBaseE@Base 3.2.1
 _ZN8casacore7MCEpoch9showStateEv@Base 3.2.1
 _ZN8casacore7MCEpochC1Ev@Base 3.2.1
 _ZN8casacore7MCEpochC2Ev@Base 3.2.1
 _ZN8casacore7MCEpochD0Ev@Base 3.2.1
 _ZN8casacore7MCEpochD1Ev@Base 3.2.1
 _ZN8casacore7MCEpochD2Ev@Base 3.2.1
 _ZN8casacore7MCFrame10getAppLongERd@Base 3.2.1
 _ZN8casacore7MCFrame10resetCometEv@Base 3.2.1
 _ZN8casacore7MCFrame10resetEpochEv@Base 3.2.1
 _ZN8casacore7MCFrame11getB1950LatERd@Base 3.2.1
 _ZN8casacore7MCFrame11getJ2000LatERd@Base 3.2.1
 _ZN8casacore7MCFrame12getB1950LongERd@Base 3.2.1
 _ZN8casacore7MCFrame12getCometTypeERj@Base 3.2.1
 _ZN8casacore7MCFrame12getJ2000LongERd@Base 3.2.1
 _ZN8casacore7MCFrame12makePositionEv@Base 3.2.1
 _ZN8casacore7MCFrame13makeDirectionEv@Base 3.2.1
 _ZN8casacore7MCFrame13resetPositionEv@Base 3.2.1
 _ZN8casacore7MCFrame14resetDirectionEv@Base 3.2.1
 _ZN8casacore7MCFrame18makeRadialVelocityEv@Base 3.2.1
 _ZN8casacore7MCFrame19resetRadialVelocityEv@Base 3.2.1
 _ZN8casacore7MCFrame5getTTERd@Base 3.2.1
 _ZN8casacore7MCFrame6getAppERNS_11MVDirectionE@Base 3.2.1
 _ZN8casacore7MCFrame6getLSRERd@Base 3.2.1
 _ZN8casacore7MCFrame6getLatERd@Base 3.2.1
 _ZN8casacore7MCFrame6getTDBERd@Base 3.2.1
 _ZN8casacore7MCFrame6getUT1ERd@Base 3.2.1
 _ZN8casacore7MCFrame7getITRFERNS_10MVPositionE@Base 3.2.1
 _ZN8casacore7MCFrame7getLASTERd@Base 3.2.1
 _ZN8casacore7MCFrame7getLongERd@Base 3.2.1
 _ZN8casacore7MCFrame8getB1950ERNS_11MVDirectionE@Base 3.2.1
 _ZN8casacore7MCFrame8getCometERNS_10MVPositionE@Base 3.2.1
 _ZN8casacore7MCFrame8getJ2000ERNS_11MVDirectionE@Base 3.2.1
 _ZN8casacore7MCFrame8getLASTrERd@Base 3.2.1
 _ZN8casacore7MCFrame9getAppLatERd@Base 3.2.1
 _ZN8casacore7MCFrame9getLatGeoERd@Base 3.2.1
 _ZN8casacore7MCFrame9getRadiusERd@Base 3.2.1
 _ZN8casacore7MCFrame9makeCometEv@Base 3.2.1
 _ZN8casacore7MCFrame9makeEpochEv@Base 3.2.1
 _ZN8casacore7MCFrameC1ERNS_9MeasFrameE@Base 3.2.1
 _ZN8casacore7MCFrameC2ERNS_9MeasFrameE@Base 3.2.1
 _ZN8casacore7MCFrameD1Ev@Base 3.2.1
 _ZN8casacore7MCFrameD2Ev@Base 3.2.1
 _ZN8casacore7MeasJPL10doInitMeasENS0_5FilesE@Base 3.2.1
 _ZN8casacore7MeasJPL10theirMutexE@Base 3.2.1
 _ZN8casacore7MeasJPL12initMeasOnceENS0_5FilesE@Base 3.2.1
 _ZN8casacore7MeasJPL13theirCallOnceE@Base 3.2.1
 _ZN8casacore7MeasJPL1tE@Base 3.2.1
 _ZN8casacore7MeasJPL2cnE@Base 3.2.1
 _ZN8casacore7MeasJPL2tpE@Base 3.2.1
 _ZN8casacore7MeasJPL3accE@Base 3.2.1
 _ZN8casacore7MeasJPL3getERNS_6VectorIdEENS0_5FilesENS0_5TypesERKNS_7MVEpochE@Base 3.2.1
 _ZN8casacore7MeasJPL3idxE@Base 3.2.1
 _ZN8casacore7MeasJPL4dmjdE@Base 3.2.1
 _ZN8casacore7MeasJPL4dvalE@Base 3.2.1
 _ZN8casacore7MeasJPL4mjd0E@Base 3.2.1
 _ZN8casacore7MeasJPL4mjdlE@Base 3.2.1
 _ZN8casacore7MeasJPL5aufacE@Base 3.2.1
 _ZN8casacore7MeasJPL5emratE@Base 3.2.1
 _ZN8casacore7MeasJPL7curDateE@Base 3.2.1
 _ZN8casacore7MeasJPL8fillMeasERdNS0_5FilesERKNS_7MVEpochE@Base 3.2.1
 _ZN8casacore7MeasJPL8getConstERdNS0_5FilesENS0_5CodesE@Base 3.2.1
 _ZN8casacore7MeasJPL8getConstERdNS0_5FilesERKNS_6StringE@Base 3.2.1
 _ZN8casacore7MeasJPL9closeMeasEv@Base 3.2.1
 _ZN8casacore7MeasJPL9interMeasEPdNS0_5FilesEddiiiPKd@Base 3.2.1
 _ZN8casacore7MeasRefINS_10MDirectionEE10frameCometERNS_6MRBaseES4_@Base 3.2.1
 _ZN8casacore7MeasRefINS_10MDirectionEE10frameEpochERNS_6MRBaseES4_@Base 3.2.1
 _ZN8casacore7MeasRefINS_10MDirectionEE3setERKNS_9MeasFrameE@Base 3.2.1
 _ZN8casacore7MeasRefINS_10MDirectionEE3setEj@Base 3.2.1
 _ZN8casacore7MeasRefINS_10MDirectionEE6createEv@Base 3.2.1
 _ZN8casacore7MeasRefINS_10MDirectionEE7setTypeEj@Base 3.2.1
 _ZN8casacore7MeasRefINS_10MDirectionEE8getFrameEv@Base 3.2.1
 _ZN8casacore7MeasRefINS_10MDirectionEEC1Ej@Base 3.2.1
 _ZN8casacore7MeasRefINS_10MDirectionEEC1EjRKNS_9MeasFrameE@Base 3.2.1
 _ZN8casacore7MeasRefINS_10MDirectionEEC2Ej@Base 3.2.1
 _ZN8casacore7MeasRefINS_10MDirectionEEC2EjRKNS_9MeasFrameE@Base 3.2.1
 _ZN8casacore7MeasRefINS_10MDirectionEED0Ev@Base 3.2.1
 _ZN8casacore7MeasRefINS_10MDirectionEED1Ev@Base 3.2.1
 _ZN8casacore7MeasRefINS_10MDirectionEED2Ev@Base 3.2.1
 _ZN8casacore7MeasRefINS_10MFrequencyEE10frameEpochERNS_6MRBaseES4_@Base 3.2.1
 _ZN8casacore7MeasRefINS_10MFrequencyEE13framePositionERNS_6MRBaseES4_@Base 3.2.1
 _ZN8casacore7MeasRefINS_10MFrequencyEE14frameDirectionERNS_6MRBaseES4_@Base 3.2.1
 _ZN8casacore7MeasRefINS_10MFrequencyEE19frameRadialVelocityERNS_6MRBaseES4_@Base 3.2.1
 _ZN8casacore7MeasRefINS_10MFrequencyEE3setERKNS_9MeasFrameE@Base 3.2.1
 _ZN8casacore7MeasRefINS_10MFrequencyEE3setEj@Base 3.2.1
 _ZN8casacore7MeasRefINS_10MFrequencyEE6createEv@Base 3.2.1
 _ZN8casacore7MeasRefINS_10MFrequencyEE7setTypeEj@Base 3.2.1
 _ZN8casacore7MeasRefINS_10MFrequencyEE8getFrameEv@Base 3.2.1
 _ZN8casacore7MeasRefINS_10MFrequencyEEC1Ej@Base 3.2.1
 _ZN8casacore7MeasRefINS_10MFrequencyEEC1EjRKNS_9MeasFrameE@Base 3.2.1
 _ZN8casacore7MeasRefINS_10MFrequencyEEC2Ej@Base 3.2.1
 _ZN8casacore7MeasRefINS_10MFrequencyEEC2EjRKNS_9MeasFrameE@Base 3.2.1
 _ZN8casacore7MeasRefINS_10MFrequencyEED0Ev@Base 3.2.1
 _ZN8casacore7MeasRefINS_10MFrequencyEED1Ev@Base 3.2.1
 _ZN8casacore7MeasRefINS_10MFrequencyEED2Ev@Base 3.2.1
 _ZN8casacore7MeasRefINS_14MEarthMagneticEE10frameEpochERNS_6MRBaseES4_@Base 3.2.1
 _ZN8casacore7MeasRefINS_14MEarthMagneticEE13framePositionERNS_6MRBaseES4_@Base 3.2.1
 _ZN8casacore7MeasRefINS_14MEarthMagneticEE3setERKNS_9MeasFrameE@Base 3.2.1
 _ZN8casacore7MeasRefINS_14MEarthMagneticEE3setEj@Base 3.2.1
 _ZN8casacore7MeasRefINS_14MEarthMagneticEE6createEv@Base 3.2.1
 _ZN8casacore7MeasRefINS_14MEarthMagneticEE7setTypeEj@Base 3.2.1
 _ZN8casacore7MeasRefINS_14MEarthMagneticEE8getFrameEv@Base 3.2.1
 _ZN8casacore7MeasRefINS_14MEarthMagneticEEC1Ej@Base 3.2.1
 _ZN8casacore7MeasRefINS_14MEarthMagneticEEC1EjRKNS_9MeasFrameE@Base 3.2.1
 _ZN8casacore7MeasRefINS_14MEarthMagneticEEC2Ej@Base 3.2.1
 _ZN8casacore7MeasRefINS_14MEarthMagneticEEC2EjRKNS_9MeasFrameE@Base 3.2.1
 _ZN8casacore7MeasRefINS_14MEarthMagneticEED0Ev@Base 3.2.1
 _ZN8casacore7MeasRefINS_14MEarthMagneticEED1Ev@Base 3.2.1
 _ZN8casacore7MeasRefINS_14MEarthMagneticEED2Ev@Base 3.2.1
 _ZN8casacore7MeasRefINS_15MRadialVelocityEE10frameEpochERNS_6MRBaseES4_@Base 3.2.1
 _ZN8casacore7MeasRefINS_15MRadialVelocityEE13framePositionERNS_6MRBaseES4_@Base 3.2.1
 _ZN8casacore7MeasRefINS_15MRadialVelocityEE14frameDirectionERNS_6MRBaseES4_@Base 3.2.1
 _ZN8casacore7MeasRefINS_15MRadialVelocityEE3setERKNS_9MeasFrameE@Base 3.2.1
 _ZN8casacore7MeasRefINS_15MRadialVelocityEE3setEj@Base 3.2.1
 _ZN8casacore7MeasRefINS_15MRadialVelocityEE6createEv@Base 3.2.1
 _ZN8casacore7MeasRefINS_15MRadialVelocityEE7setTypeEj@Base 3.2.1
 _ZN8casacore7MeasRefINS_15MRadialVelocityEE8getFrameEv@Base 3.2.1
 _ZN8casacore7MeasRefINS_15MRadialVelocityEEC1Ej@Base 3.2.1
 _ZN8casacore7MeasRefINS_15MRadialVelocityEEC1EjRKNS_9MeasFrameE@Base 3.2.1
 _ZN8casacore7MeasRefINS_15MRadialVelocityEEC2Ej@Base 3.2.1
 _ZN8casacore7MeasRefINS_15MRadialVelocityEEC2EjRKNS_9MeasFrameE@Base 3.2.1
 _ZN8casacore7MeasRefINS_15MRadialVelocityEED0Ev@Base 3.2.1
 _ZN8casacore7MeasRefINS_15MRadialVelocityEED1Ev@Base 3.2.1
 _ZN8casacore7MeasRefINS_15MRadialVelocityEED2Ev@Base 3.2.1
 _ZN8casacore7MeasRefINS_4MuvwEE3setERKNS_9MeasFrameE@Base 3.2.1
 _ZN8casacore7MeasRefINS_4MuvwEE3setEj@Base 3.2.1
 _ZN8casacore7MeasRefINS_4MuvwEE6createEv@Base 3.2.1
 _ZN8casacore7MeasRefINS_4MuvwEE7setTypeEj@Base 3.2.1
 _ZN8casacore7MeasRefINS_4MuvwEE8getFrameEv@Base 3.2.1
 _ZN8casacore7MeasRefINS_4MuvwEEC1Ej@Base 3.2.1
 _ZN8casacore7MeasRefINS_4MuvwEEC1EjRKNS_9MeasFrameE@Base 3.2.1
 _ZN8casacore7MeasRefINS_4MuvwEEC2Ej@Base 3.2.1
 _ZN8casacore7MeasRefINS_4MuvwEEC2EjRKNS_9MeasFrameE@Base 3.2.1
 _ZN8casacore7MeasRefINS_4MuvwEED0Ev@Base 3.2.1
 _ZN8casacore7MeasRefINS_4MuvwEED1Ev@Base 3.2.1
 _ZN8casacore7MeasRefINS_4MuvwEED2Ev@Base 3.2.1
 _ZN8casacore7MeasRefINS_6MEpochEE13framePositionERNS_6MRBaseES4_@Base 3.2.1
 _ZN8casacore7MeasRefINS_6MEpochEE3setERKNS_9MeasFrameE@Base 3.2.1
 _ZN8casacore7MeasRefINS_6MEpochEE3setEj@Base 3.2.1
 _ZN8casacore7MeasRefINS_6MEpochEE6createEv@Base 3.2.1
 _ZN8casacore7MeasRefINS_6MEpochEE7setTypeEj@Base 3.2.1
 _ZN8casacore7MeasRefINS_6MEpochEE8getFrameEv@Base 3.2.1
 _ZN8casacore7MeasRefINS_6MEpochEEC1Ej@Base 3.2.1
 _ZN8casacore7MeasRefINS_6MEpochEEC1EjRKNS_9MeasFrameE@Base 3.2.1
 _ZN8casacore7MeasRefINS_6MEpochEEC2Ej@Base 3.2.1
 _ZN8casacore7MeasRefINS_6MEpochEEC2EjRKNS_9MeasFrameE@Base 3.2.1
 _ZN8casacore7MeasRefINS_6MEpochEED0Ev@Base 3.2.1
 _ZN8casacore7MeasRefINS_6MEpochEED1Ev@Base 3.2.1
 _ZN8casacore7MeasRefINS_6MEpochEED2Ev@Base 3.2.1
 _ZN8casacore7MeasRefINS_8MDopplerEE3setERKNS_9MeasFrameE@Base 3.2.1
 _ZN8casacore7MeasRefINS_8MDopplerEE3setEj@Base 3.2.1
 _ZN8casacore7MeasRefINS_8MDopplerEE6createEv@Base 3.2.1
 _ZN8casacore7MeasRefINS_8MDopplerEE7setTypeEj@Base 3.2.1
 _ZN8casacore7MeasRefINS_8MDopplerEE8getFrameEv@Base 3.2.1
 _ZN8casacore7MeasRefINS_8MDopplerEEC1Ej@Base 3.2.1
 _ZN8casacore7MeasRefINS_8MDopplerEEC1EjRKNS_9MeasFrameE@Base 3.2.1
 _ZN8casacore7MeasRefINS_8MDopplerEEC2Ej@Base 3.2.1
 _ZN8casacore7MeasRefINS_8MDopplerEEC2EjRKNS_9MeasFrameE@Base 3.2.1
 _ZN8casacore7MeasRefINS_8MDopplerEED0Ev@Base 3.2.1
 _ZN8casacore7MeasRefINS_8MDopplerEED1Ev@Base 3.2.1
 _ZN8casacore7MeasRefINS_8MDopplerEED2Ev@Base 3.2.1
 _ZN8casacore7MeasRefINS_9MBaselineEE3setERKNS_9MeasFrameE@Base 3.2.1
 _ZN8casacore7MeasRefINS_9MBaselineEE3setEj@Base 3.2.1
 _ZN8casacore7MeasRefINS_9MBaselineEE6createEv@Base 3.2.1
 _ZN8casacore7MeasRefINS_9MBaselineEE7setTypeEj@Base 3.2.1
 _ZN8casacore7MeasRefINS_9MBaselineEE8getFrameEv@Base 3.2.1
 _ZN8casacore7MeasRefINS_9MBaselineEEC1Ej@Base 3.2.1
 _ZN8casacore7MeasRefINS_9MBaselineEEC1EjRKNS_9MeasFrameE@Base 3.2.1
 _ZN8casacore7MeasRefINS_9MBaselineEEC2Ej@Base 3.2.1
 _ZN8casacore7MeasRefINS_9MBaselineEEC2EjRKNS_9MeasFrameE@Base 3.2.1
 _ZN8casacore7MeasRefINS_9MBaselineEED0Ev@Base 3.2.1
 _ZN8casacore7MeasRefINS_9MBaselineEED1Ev@Base 3.2.1
 _ZN8casacore7MeasRefINS_9MBaselineEED2Ev@Base 3.2.1
 _ZN8casacore7MeasRefINS_9MPositionEE3setERKNS_9MeasFrameE@Base 3.2.1
 _ZN8casacore7MeasRefINS_9MPositionEE3setEj@Base 3.2.1
 _ZN8casacore7MeasRefINS_9MPositionEE6createEv@Base 3.2.1
 _ZN8casacore7MeasRefINS_9MPositionEE7setTypeEj@Base 3.2.1
 _ZN8casacore7MeasRefINS_9MPositionEE8getFrameEv@Base 3.2.1
 _ZN8casacore7MeasRefINS_9MPositionEEC1Ej@Base 3.2.1
 _ZN8casacore7MeasRefINS_9MPositionEEC1EjRKNS_9MeasFrameE@Base 3.2.1
 _ZN8casacore7MeasRefINS_9MPositionEEC2Ej@Base 3.2.1
 _ZN8casacore7MeasRefINS_9MPositionEEC2EjRKNS_9MeasFrameE@Base 3.2.1
 _ZN8casacore7MeasRefINS_9MPositionEED0Ev@Base 3.2.1
 _ZN8casacore7MeasRefINS_9MPositionEED1Ev@Base 3.2.1
 _ZN8casacore7MeasRefINS_9MPositionEED2Ev@Base 3.2.1
 _ZN8casacore7Measure6giveMeERKNS_6StringEiPS2_@Base 3.2.1
 _ZN8casacore7MeasureD0Ev@Base 3.2.1
 _ZN8casacore7MeasureD1Ev@Base 3.2.1
 _ZN8casacore7MeasureD2Ev@Base 3.2.1
 _ZN8casacore7Quality4nameENS0_12QualityTypesE@Base 3.2.1
 _ZN8casacore7Quality4typeERKNS_6StringE@Base 3.2.1
 _ZN8casacore7Quality4typeEi@Base 3.2.1
 _ZN8casacore7Quality8allNamesEb@Base 3.2.1
 _ZN8casacore7QuantumINS_6VectorIdEEE7convertERKNS_4UnitE@Base 3.2.1
 _ZN8casacore7QuantumINS_6VectorIdEEEC1ERKS2_RKNS_4UnitE@Base 3.2.1
 _ZN8casacore7QuantumINS_6VectorIdEEEC1ERKS3_@Base 3.2.1
 _ZN8casacore7QuantumINS_6VectorIdEEEC1Ev@Base 3.2.1
 _ZN8casacore7QuantumINS_6VectorIdEEEC2ERKS2_RKNS_4UnitE@Base 3.2.1
 _ZN8casacore7QuantumINS_6VectorIdEEEC2ERKS3_@Base 3.2.1
 _ZN8casacore7QuantumINS_6VectorIdEEEC2Ev@Base 3.2.1
 _ZN8casacore7QuantumINS_6VectorIdEEED0Ev@Base 3.2.1
 _ZN8casacore7QuantumINS_6VectorIdEEED1Ev@Base 3.2.1
 _ZN8casacore7QuantumINS_6VectorIdEEED2Ev@Base 3.2.1
 _ZN8casacore7assert_INS_9AipsErrorEEC1EiPKcS4_i@Base 3.2.1
 _ZN8casacore7assert_INS_9AipsErrorEEC2EiPKcS4_i@Base 3.2.1
 _ZN8casacore7objcopyINS_10MDirectionEEEvPT_PKS2_m@Base 3.2.1
 _ZN8casacore7objcopyINS_10MDirectionEEEvPT_PKS2_mmm@Base 3.2.1
 _ZN8casacore7objcopyINS_10MFrequencyEEEvPT_PKS2_m@Base 3.2.1
 _ZN8casacore7objcopyINS_10MFrequencyEEEvPT_PKS2_mmm@Base 3.2.1
 _ZN8casacore7objcopyINS_10MVPositionEEEvPT_PKS2_m@Base 3.2.1
 _ZN8casacore7objcopyINS_10MVPositionEEEvPT_PKS2_mmm@Base 3.2.1
 _ZN8casacore7objcopyINS_16RORecordFieldPtrIdEEEEvPT_PKS3_m@Base 3.2.1
 _ZN8casacore7objcopyINS_16RORecordFieldPtrIdEEEEvPT_PKS3_mmm@Base 3.2.1
 _ZN8casacore7objcopyINS_4UnitEEEvPT_PKS2_m@Base 3.2.1
 _ZN8casacore7objcopyINS_4UnitEEEvPT_PKS2_mmm@Base 3.2.1
 _ZN8casacore7objcopyINS_6VectorIdEEEEvPT_PKS3_m@Base 3.2.1
 _ZN8casacore7objcopyINS_6VectorIdEEEEvPT_PKS3_mmm@Base 3.2.1
 _ZN8casacore7objcopyINS_7QuantumIdEEEEvPT_PKS3_m@Base 3.2.1
 _ZN8casacore7objcopyINS_7QuantumIdEEEEvPT_PKS3_mmm@Base 3.2.1
 _ZN8casacore7objcopyINS_8AutoDiffIdEEEEvPT_PKS3_m@Base 3.2.1
 _ZN8casacore7objcopyINS_8AutoDiffIdEEEEvPT_PKS3_mmm@Base 3.2.1
 _ZN8casacore7objcopyINS_9MPositionEEEvPT_PKS2_m@Base 3.2.1
 _ZN8casacore7objcopyINS_9MPositionEEEvPT_PKS2_mmm@Base 3.2.1
 _ZN8casacore7objcopyIiEEvPT_PKS1_m@Base 3.2.1
 _ZN8casacore8AppStateD0Ev@Base 3.2.1
 _ZN8casacore8AppStateD1Ev@Base 3.2.1
 _ZN8casacore8AppStateD2Ev@Base 3.2.1
 _ZN8casacore8AutoDiffIdEC1ERKS1_@Base 3.2.1
 _ZN8casacore8AutoDiffIdEC2ERKS1_@Base 3.2.1
 _ZN8casacore8FunctionINS_8AutoDiffIdEES2_E7setModeERKNS_15RecordInterfaceE@Base 3.2.1
 _ZN8casacore8FunctionIddE7setModeERKNS_15RecordInterfaceE@Base 3.2.1
 _ZN8casacore8FunctionIddEC1Ej@Base 3.2.1
 _ZN8casacore8FunctionIddEC2Ej@Base 3.2.1
 _ZN8casacore8MDoppler10allMyTypesERiS1_RPKj@Base 3.2.1
 _ZN8casacore8MDoppler12checkMyTypesEv@Base 3.2.1
 _ZN8casacore8MDoppler12setRefStringERKNS_6StringE@Base 3.2.1
 _ZN8casacore8MDoppler6assureERKNS_7MeasureE@Base 3.2.1
 _ZN8casacore8MDoppler6giveMeERNS_7MeasRefIS0_EERKNS_6StringE@Base 3.2.1
 _ZN8casacore8MDoppler6myTypeEv@Base 3.2.1
 _ZN8casacore8MDoppler6showMeEv@Base 3.2.1
 _ZN8casacore8MDoppler7getTypeERNS0_5TypesERKNS_6StringE@Base 3.2.1
 _ZN8casacore8MDoppler8castTypeEj@Base 3.2.1
 _ZN8casacore8MDoppler8showTypeENS0_5TypesE@Base 3.2.1
 _ZN8casacore8MDoppler8showTypeEj@Base 3.2.1
 _ZN8casacore8MDoppler9setOffsetERKNS_7MeasureE@Base 3.2.1
 _ZN8casacore8MDopplerC1EPKNS_7MeasureE@Base 3.2.1
 _ZN8casacore8MDopplerC1EPKNS_9MeasValueE@Base 3.2.1
 _ZN8casacore8MDopplerC1ERKNS_7QuantumIdEE@Base 3.2.1
 _ZN8casacore8MDopplerC1ERKNS_7QuantumIdEENS0_5TypesE@Base 3.2.1
 _ZN8casacore8MDopplerC1ERKNS_7QuantumIdEERKNS_7MeasRefIS0_EE@Base 3.2.1
 _ZN8casacore8MDopplerC1ERKNS_9MVDopplerE@Base 3.2.1
 _ZN8casacore8MDopplerC1ERKNS_9MVDopplerENS0_5TypesE@Base 3.2.1
 _ZN8casacore8MDopplerC1ERKNS_9MVDopplerERKNS_7MeasRefIS0_EE@Base 3.2.1
 _ZN8casacore8MDopplerC1Ev@Base 3.2.1
 _ZN8casacore8MDopplerC2EPKNS_7MeasureE@Base 3.2.1
 _ZN8casacore8MDopplerC2EPKNS_9MeasValueE@Base 3.2.1
 _ZN8casacore8MDopplerC2ERKNS_7QuantumIdEE@Base 3.2.1
 _ZN8casacore8MDopplerC2ERKNS_7QuantumIdEENS0_5TypesE@Base 3.2.1
 _ZN8casacore8MDopplerC2ERKNS_7QuantumIdEERKNS_7MeasRefIS0_EE@Base 3.2.1
 _ZN8casacore8MDopplerC2ERKNS_9MVDopplerE@Base 3.2.1
 _ZN8casacore8MDopplerC2ERKNS_9MVDopplerENS0_5TypesE@Base 3.2.1
 _ZN8casacore8MDopplerC2ERKNS_9MVDopplerERKNS_7MeasRefIS0_EE@Base 3.2.1
 _ZN8casacore8MDopplerC2Ev@Base 3.2.1
 _ZN8casacore8MDopplerD0Ev@Base 3.2.1
 _ZN8casacore8MDopplerD1Ev@Base 3.2.1
 _ZN8casacore8MDopplerD2Ev@Base 3.2.1
 _ZN8casacore8MeasBaseINS_10MVBaselineENS_7MeasRefINS_9MBaselineEEEE3setERKNS_9MeasValueE@Base 3.2.1
 _ZN8casacore8MeasBaseINS_10MVBaselineENS_7MeasRefINS_9MBaselineEEEE5clearEv@Base 3.2.1
 _ZN8casacore8MeasBaseINS_10MVBaselineENS_7MeasRefINS_9MBaselineEEEE8putValueERKNS_6VectorINS_7QuantumIdEEEE@Base 3.2.1
 _ZN8casacore8MeasBaseINS_10MVBaselineENS_7MeasRefINS_9MBaselineEEEEC1EPKNS_7MeasureE@Base 3.2.1
 _ZN8casacore8MeasBaseINS_10MVBaselineENS_7MeasRefINS_9MBaselineEEEEC1ERKS1_j@Base 3.2.1
 _ZN8casacore8MeasBaseINS_10MVBaselineENS_7MeasRefINS_9MBaselineEEEEC2EPKNS_7MeasureE@Base 3.2.1
 _ZN8casacore8MeasBaseINS_10MVBaselineENS_7MeasRefINS_9MBaselineEEEEC2ERKS1_j@Base 3.2.1
 _ZN8casacore8MeasBaseINS_10MVBaselineENS_7MeasRefINS_9MBaselineEEEED0Ev@Base 3.2.1
 _ZN8casacore8MeasBaseINS_10MVBaselineENS_7MeasRefINS_9MBaselineEEEED1Ev@Base 3.2.1
 _ZN8casacore8MeasBaseINS_10MVBaselineENS_7MeasRefINS_9MBaselineEEEED2Ev@Base 3.2.1
 _ZN8casacore8MeasBaseINS_10MVPositionENS_7MeasRefINS_9MPositionEEEE3setERKNS_9MeasValueE@Base 3.2.1
 _ZN8casacore8MeasBaseINS_10MVPositionENS_7MeasRefINS_9MPositionEEEE5clearEv@Base 3.2.1
 _ZN8casacore8MeasBaseINS_10MVPositionENS_7MeasRefINS_9MPositionEEEE8putValueERKNS_6VectorINS_7QuantumIdEEEE@Base 3.2.1
 _ZN8casacore8MeasBaseINS_10MVPositionENS_7MeasRefINS_9MPositionEEEEC1EPKNS_7MeasureE@Base 3.2.1
 _ZN8casacore8MeasBaseINS_10MVPositionENS_7MeasRefINS_9MPositionEEEEC1ERKS1_RKS4_@Base 3.2.1
 _ZN8casacore8MeasBaseINS_10MVPositionENS_7MeasRefINS_9MPositionEEEEC1ERKS1_j@Base 3.2.1
 _ZN8casacore8MeasBaseINS_10MVPositionENS_7MeasRefINS_9MPositionEEEEC2EPKNS_7MeasureE@Base 3.2.1
 _ZN8casacore8MeasBaseINS_10MVPositionENS_7MeasRefINS_9MPositionEEEEC2ERKS1_RKS4_@Base 3.2.1
 _ZN8casacore8MeasBaseINS_10MVPositionENS_7MeasRefINS_9MPositionEEEEC2ERKS1_j@Base 3.2.1
 _ZN8casacore8MeasBaseINS_10MVPositionENS_7MeasRefINS_9MPositionEEEED0Ev@Base 3.2.1
 _ZN8casacore8MeasBaseINS_10MVPositionENS_7MeasRefINS_9MPositionEEEED1Ev@Base 3.2.1
 _ZN8casacore8MeasBaseINS_10MVPositionENS_7MeasRefINS_9MPositionEEEED2Ev@Base 3.2.1
 _ZN8casacore8MeasBaseINS_11MVDirectionENS_7MeasRefINS_10MDirectionEEEE3setERKNS_9MeasValueE@Base 3.2.1
 _ZN8casacore8MeasBaseINS_11MVDirectionENS_7MeasRefINS_10MDirectionEEEE5clearEv@Base 3.2.1
 _ZN8casacore8MeasBaseINS_11MVDirectionENS_7MeasRefINS_10MDirectionEEEE8putValueERKNS_6VectorINS_7QuantumIdEEEE@Base 3.2.1
 _ZN8casacore8MeasBaseINS_11MVDirectionENS_7MeasRefINS_10MDirectionEEEEC1EPKNS_7MeasureE@Base 3.2.1
 _ZN8casacore8MeasBaseINS_11MVDirectionENS_7MeasRefINS_10MDirectionEEEEC1ERKS1_RKS4_@Base 3.2.1
 _ZN8casacore8MeasBaseINS_11MVDirectionENS_7MeasRefINS_10MDirectionEEEEC1ERKS1_j@Base 3.2.1
 _ZN8casacore8MeasBaseINS_11MVDirectionENS_7MeasRefINS_10MDirectionEEEEC1ERKS5_@Base 3.2.1
 _ZN8casacore8MeasBaseINS_11MVDirectionENS_7MeasRefINS_10MDirectionEEEEC2EPKNS_7MeasureE@Base 3.2.1
 _ZN8casacore8MeasBaseINS_11MVDirectionENS_7MeasRefINS_10MDirectionEEEEC2ERKS1_RKS4_@Base 3.2.1
 _ZN8casacore8MeasBaseINS_11MVDirectionENS_7MeasRefINS_10MDirectionEEEEC2ERKS1_j@Base 3.2.1
 _ZN8casacore8MeasBaseINS_11MVDirectionENS_7MeasRefINS_10MDirectionEEEEC2ERKS5_@Base 3.2.1
 _ZN8casacore8MeasBaseINS_11MVDirectionENS_7MeasRefINS_10MDirectionEEEED0Ev@Base 3.2.1
 _ZN8casacore8MeasBaseINS_11MVDirectionENS_7MeasRefINS_10MDirectionEEEED1Ev@Base 3.2.1
 _ZN8casacore8MeasBaseINS_11MVDirectionENS_7MeasRefINS_10MDirectionEEEED2Ev@Base 3.2.1
 _ZN8casacore8MeasBaseINS_11MVFrequencyENS_7MeasRefINS_10MFrequencyEEEE3setERKNS_9MeasValueE@Base 3.2.1
 _ZN8casacore8MeasBaseINS_11MVFrequencyENS_7MeasRefINS_10MFrequencyEEEE5clearEv@Base 3.2.1
 _ZN8casacore8MeasBaseINS_11MVFrequencyENS_7MeasRefINS_10MFrequencyEEEE8putValueERKNS_6VectorINS_7QuantumIdEEEE@Base 3.2.1
 _ZN8casacore8MeasBaseINS_11MVFrequencyENS_7MeasRefINS_10MFrequencyEEEEC1EPKNS_7MeasureE@Base 3.2.1
 _ZN8casacore8MeasBaseINS_11MVFrequencyENS_7MeasRefINS_10MFrequencyEEEEC1ERKNS_7QuantumIdEEj@Base 3.2.1
 _ZN8casacore8MeasBaseINS_11MVFrequencyENS_7MeasRefINS_10MFrequencyEEEEC1ERKS1_j@Base 3.2.1
 _ZN8casacore8MeasBaseINS_11MVFrequencyENS_7MeasRefINS_10MFrequencyEEEEC1ERKS5_@Base 3.2.1
 _ZN8casacore8MeasBaseINS_11MVFrequencyENS_7MeasRefINS_10MFrequencyEEEEC2EPKNS_7MeasureE@Base 3.2.1
 _ZN8casacore8MeasBaseINS_11MVFrequencyENS_7MeasRefINS_10MFrequencyEEEEC2ERKNS_7QuantumIdEEj@Base 3.2.1
 _ZN8casacore8MeasBaseINS_11MVFrequencyENS_7MeasRefINS_10MFrequencyEEEEC2ERKS1_j@Base 3.2.1
 _ZN8casacore8MeasBaseINS_11MVFrequencyENS_7MeasRefINS_10MFrequencyEEEEC2ERKS5_@Base 3.2.1
 _ZN8casacore8MeasBaseINS_11MVFrequencyENS_7MeasRefINS_10MFrequencyEEEED0Ev@Base 3.2.1
 _ZN8casacore8MeasBaseINS_11MVFrequencyENS_7MeasRefINS_10MFrequencyEEEED1Ev@Base 3.2.1
 _ZN8casacore8MeasBaseINS_11MVFrequencyENS_7MeasRefINS_10MFrequencyEEEED2Ev@Base 3.2.1
 _ZN8casacore8MeasBaseINS_15MVEarthMagneticENS_7MeasRefINS_14MEarthMagneticEEEE3setERKNS_9MeasValueE@Base 3.2.1
 _ZN8casacore8MeasBaseINS_15MVEarthMagneticENS_7MeasRefINS_14MEarthMagneticEEEE5clearEv@Base 3.2.1
 _ZN8casacore8MeasBaseINS_15MVEarthMagneticENS_7MeasRefINS_14MEarthMagneticEEEE8putValueERKNS_6VectorINS_7QuantumIdEEEE@Base 3.2.1
 _ZN8casacore8MeasBaseINS_15MVEarthMagneticENS_7MeasRefINS_14MEarthMagneticEEEEC1EPKNS_7MeasureE@Base 3.2.1
 _ZN8casacore8MeasBaseINS_15MVEarthMagneticENS_7MeasRefINS_14MEarthMagneticEEEEC1ERKS1_j@Base 3.2.1
 _ZN8casacore8MeasBaseINS_15MVEarthMagneticENS_7MeasRefINS_14MEarthMagneticEEEEC2EPKNS_7MeasureE@Base 3.2.1
 _ZN8casacore8MeasBaseINS_15MVEarthMagneticENS_7MeasRefINS_14MEarthMagneticEEEEC2ERKS1_j@Base 3.2.1
 _ZN8casacore8MeasBaseINS_15MVEarthMagneticENS_7MeasRefINS_14MEarthMagneticEEEED0Ev@Base 3.2.1
 _ZN8casacore8MeasBaseINS_15MVEarthMagneticENS_7MeasRefINS_14MEarthMagneticEEEED1Ev@Base 3.2.1
 _ZN8casacore8MeasBaseINS_15MVEarthMagneticENS_7MeasRefINS_14MEarthMagneticEEEED2Ev@Base 3.2.1
 _ZN8casacore8MeasBaseINS_16MVRadialVelocityENS_7MeasRefINS_15MRadialVelocityEEEE3setERKNS_9MeasValueE@Base 3.2.1
 _ZN8casacore8MeasBaseINS_16MVRadialVelocityENS_7MeasRefINS_15MRadialVelocityEEEE5clearEv@Base 3.2.1
 _ZN8casacore8MeasBaseINS_16MVRadialVelocityENS_7MeasRefINS_15MRadialVelocityEEEE8putValueERKNS_6VectorINS_7QuantumIdEEEE@Base 3.2.1
 _ZN8casacore8MeasBaseINS_16MVRadialVelocityENS_7MeasRefINS_15MRadialVelocityEEEEC1EPKNS_7MeasureE@Base 3.2.1
 _ZN8casacore8MeasBaseINS_16MVRadialVelocityENS_7MeasRefINS_15MRadialVelocityEEEEC1ERKNS_7QuantumIdEEj@Base 3.2.1
 _ZN8casacore8MeasBaseINS_16MVRadialVelocityENS_7MeasRefINS_15MRadialVelocityEEEEC1ERKS1_j@Base 3.2.1
 _ZN8casacore8MeasBaseINS_16MVRadialVelocityENS_7MeasRefINS_15MRadialVelocityEEEEC2EPKNS_7MeasureE@Base 3.2.1
 _ZN8casacore8MeasBaseINS_16MVRadialVelocityENS_7MeasRefINS_15MRadialVelocityEEEEC2ERKNS_7QuantumIdEEj@Base 3.2.1
 _ZN8casacore8MeasBaseINS_16MVRadialVelocityENS_7MeasRefINS_15MRadialVelocityEEEEC2ERKS1_j@Base 3.2.1
 _ZN8casacore8MeasBaseINS_16MVRadialVelocityENS_7MeasRefINS_15MRadialVelocityEEEED0Ev@Base 3.2.1
 _ZN8casacore8MeasBaseINS_16MVRadialVelocityENS_7MeasRefINS_15MRadialVelocityEEEED1Ev@Base 3.2.1
 _ZN8casacore8MeasBaseINS_16MVRadialVelocityENS_7MeasRefINS_15MRadialVelocityEEEED2Ev@Base 3.2.1
 _ZN8casacore8MeasBaseINS_5MVuvwENS_7MeasRefINS_4MuvwEEEE3setERKNS_9MeasValueE@Base 3.2.1
 _ZN8casacore8MeasBaseINS_5MVuvwENS_7MeasRefINS_4MuvwEEEE5clearEv@Base 3.2.1
 _ZN8casacore8MeasBaseINS_5MVuvwENS_7MeasRefINS_4MuvwEEEE8putValueERKNS_6VectorINS_7QuantumIdEEEE@Base 3.2.1
 _ZN8casacore8MeasBaseINS_5MVuvwENS_7MeasRefINS_4MuvwEEEEC1EPKNS_7MeasureE@Base 3.2.1
 _ZN8casacore8MeasBaseINS_5MVuvwENS_7MeasRefINS_4MuvwEEEEC1ERKS1_j@Base 3.2.1
 _ZN8casacore8MeasBaseINS_5MVuvwENS_7MeasRefINS_4MuvwEEEEC2EPKNS_7MeasureE@Base 3.2.1
 _ZN8casacore8MeasBaseINS_5MVuvwENS_7MeasRefINS_4MuvwEEEEC2ERKS1_j@Base 3.2.1
 _ZN8casacore8MeasBaseINS_5MVuvwENS_7MeasRefINS_4MuvwEEEED0Ev@Base 3.2.1
 _ZN8casacore8MeasBaseINS_5MVuvwENS_7MeasRefINS_4MuvwEEEED1Ev@Base 3.2.1
 _ZN8casacore8MeasBaseINS_5MVuvwENS_7MeasRefINS_4MuvwEEEED2Ev@Base 3.2.1
 _ZN8casacore8MeasBaseINS_7MVEpochENS_7MeasRefINS_6MEpochEEEE3setERKNS_9MeasValueE@Base 3.2.1
 _ZN8casacore8MeasBaseINS_7MVEpochENS_7MeasRefINS_6MEpochEEEE5clearEv@Base 3.2.1
 _ZN8casacore8MeasBaseINS_7MVEpochENS_7MeasRefINS_6MEpochEEEE8putValueERKNS_6VectorINS_7QuantumIdEEEE@Base 3.2.1
 _ZN8casacore8MeasBaseINS_7MVEpochENS_7MeasRefINS_6MEpochEEEEC1EPKNS_7MeasureE@Base 3.2.1
 _ZN8casacore8MeasBaseINS_7MVEpochENS_7MeasRefINS_6MEpochEEEEC1ERKNS_7QuantumIdEEj@Base 3.2.1
 _ZN8casacore8MeasBaseINS_7MVEpochENS_7MeasRefINS_6MEpochEEEEC1ERKS1_j@Base 3.2.1
 _ZN8casacore8MeasBaseINS_7MVEpochENS_7MeasRefINS_6MEpochEEEEC1ERKS5_@Base 3.2.1
 _ZN8casacore8MeasBaseINS_7MVEpochENS_7MeasRefINS_6MEpochEEEEC2EPKNS_7MeasureE@Base 3.2.1
 _ZN8casacore8MeasBaseINS_7MVEpochENS_7MeasRefINS_6MEpochEEEEC2ERKNS_7QuantumIdEEj@Base 3.2.1
 _ZN8casacore8MeasBaseINS_7MVEpochENS_7MeasRefINS_6MEpochEEEEC2ERKS1_j@Base 3.2.1
 _ZN8casacore8MeasBaseINS_7MVEpochENS_7MeasRefINS_6MEpochEEEEC2ERKS5_@Base 3.2.1
 _ZN8casacore8MeasBaseINS_7MVEpochENS_7MeasRefINS_6MEpochEEEED0Ev@Base 3.2.1
 _ZN8casacore8MeasBaseINS_7MVEpochENS_7MeasRefINS_6MEpochEEEED1Ev@Base 3.2.1
 _ZN8casacore8MeasBaseINS_7MVEpochENS_7MeasRefINS_6MEpochEEEED2Ev@Base 3.2.1
 _ZN8casacore8MeasBaseINS_9MVDopplerENS_7MeasRefINS_8MDopplerEEEE3setERKNS_9MeasValueE@Base 3.2.1
 _ZN8casacore8MeasBaseINS_9MVDopplerENS_7MeasRefINS_8MDopplerEEEE5clearEv@Base 3.2.1
 _ZN8casacore8MeasBaseINS_9MVDopplerENS_7MeasRefINS_8MDopplerEEEE8putValueERKNS_6VectorINS_7QuantumIdEEEE@Base 3.2.1
 _ZN8casacore8MeasBaseINS_9MVDopplerENS_7MeasRefINS_8MDopplerEEEEC1EPKNS_7MeasureE@Base 3.2.1
 _ZN8casacore8MeasBaseINS_9MVDopplerENS_7MeasRefINS_8MDopplerEEEEC1ERKNS_7QuantumIdEEj@Base 3.2.1
 _ZN8casacore8MeasBaseINS_9MVDopplerENS_7MeasRefINS_8MDopplerEEEEC1ERKS1_j@Base 3.2.1
 _ZN8casacore8MeasBaseINS_9MVDopplerENS_7MeasRefINS_8MDopplerEEEEC1ERKS5_@Base 3.2.1
 _ZN8casacore8MeasBaseINS_9MVDopplerENS_7MeasRefINS_8MDopplerEEEEC2EPKNS_7MeasureE@Base 3.2.1
 _ZN8casacore8MeasBaseINS_9MVDopplerENS_7MeasRefINS_8MDopplerEEEEC2ERKNS_7QuantumIdEEj@Base 3.2.1
 _ZN8casacore8MeasBaseINS_9MVDopplerENS_7MeasRefINS_8MDopplerEEEEC2ERKS1_j@Base 3.2.1
 _ZN8casacore8MeasBaseINS_9MVDopplerENS_7MeasRefINS_8MDopplerEEEEC2ERKS5_@Base 3.2.1
 _ZN8casacore8MeasBaseINS_9MVDopplerENS_7MeasRefINS_8MDopplerEEEED0Ev@Base 3.2.1
 _ZN8casacore8MeasBaseINS_9MVDopplerENS_7MeasRefINS_8MDopplerEEEED1Ev@Base 3.2.1
 _ZN8casacore8MeasBaseINS_9MVDopplerENS_7MeasRefINS_8MDopplerEEEED2Ev@Base 3.2.1
 _ZN8casacore8MeasData10B1950toGALEv@Base 3.2.1
 _ZN8casacore8MeasData10GALtoB1950Ev@Base 3.2.1
 _ZN8casacore8MeasData10GALtoJ2000Ev@Base 3.2.1
 _ZN8casacore8MeasData10J2000toGALEv@Base 3.2.1
 _ZN8casacore8MeasData15SunSemiDiameterEv@Base 3.2.1
 _ZN8casacore8MeasData5JDCENE@Base 3.2.1
 _ZN8casacore8MeasData7MJD2000E@Base 3.2.1
 _ZN8casacore8MeasData7TROPCENE@Base 3.2.1
 _ZN8casacore8MeasData8MJDB1850E@Base 3.2.1
 _ZN8casacore8MeasData8MJDB1900E@Base 3.2.1
 _ZN8casacore8MeasData8MJDB1950E@Base 3.2.1
 _ZN8casacore8MeasData8MToB1950Ej@Base 3.2.1
 _ZN8casacore8MeasData8MToJ2000Ej@Base 3.2.1
 _ZN8casacore8MeasData8SECinDAYE@Base 3.2.1
 _ZN8casacore8MeasData9eps0J2000Ev@Base 3.2.1
 _ZN8casacore8MeasIERS11closeTablesEv@Base 3.2.1
 _ZN8casacore8MeasIERS11notable_regE@Base 3.2.1
 _ZN8casacore8MeasIERS13theirCallOnceE@Base 3.2.1
 _ZN8casacore8MeasIERS15handle_keywordsERdRNS_6StringERKNS_11TableRecordERKNS_5TableE@Base 3.2.1
 _ZN8casacore8MeasIERS15predicttime_regE@Base 3.2.1
 _ZN8casacore8MeasIERS16forcepredict_regE@Base 3.2.1
 _ZN8casacore8MeasIERS2tpE@Base 3.2.1
 _ZN8casacore8MeasIERS3getERdNS0_5FilesENS0_5TypesEd@Base 3.2.1
 _ZN8casacore8MeasIERS4INTVE@Base 3.2.1
 _ZN8casacore8MeasIERS4ldatE@Base 3.2.1
 _ZN8casacore8MeasIERS5nNoteE@Base 3.2.1
 _ZN8casacore8MeasIERS7dateNowE@Base 3.2.1
 _ZN8casacore8MeasIERS7findTabERNS_5TableEPKS1_RKNS_6StringES7_S7_@Base 3.2.1
 _ZN8casacore8MeasIERS7tocloseE@Base 3.2.1
 _ZN8casacore8MeasIERS8getTableERNS_5TableERNS_11TableRecordERNS_10ROTableRowEPNS_16RORecordFieldPtrIdEERNS_6StringERdiPKSA_RSD_SF_SF_PKS1_@Base 3.2.1
 _ZN8casacore8MeasIERS8getTableERNS_5TableERNS_11TableRecordERNS_10ROTableRowERNS_6VectorINS_16RORecordFieldPtrIdEEEERNS_6StringERdRKNS7_ISC_EERSF_RKSC_SK_SK_PKS1_@Base 3.2.1
 _ZN8casacore8MeasIERS8initMeasEv@Base 3.2.1
 _ZN8casacore8MeasIERS8openNoteEPFvvE@Base 3.2.1
 _ZN8casacore8MeasIERS8sizeNoteE@Base 3.2.1
 _ZN8casacore8MeasIERS9closeMeasEv@Base 3.2.1
 _ZN8casacore8MeasMath11applyETermsERNS_10MVPositionEbd@Base 3.2.1
 _ZN8casacore8MeasMath11b1950_reg_pE@Base 3.2.1
 _ZN8casacore8MeasMath11rotateShiftERNS_10MVPositionERKS1_NS0_9FrameInfoES5_b@Base 3.2.1
 _ZN8casacore8MeasMath13applyNutationERNS_10MVPositionE@Base 3.2.1
 _ZN8casacore8MeasMath13applySolarPosERNS_10MVPositionEb@Base 3.2.1
 _ZN8casacore8MeasMath13deapplyETermsERNS_10MVPositionEbd@Base 3.2.1
 _ZN8casacore8MeasMath14applyAPPtoTOPOERNS_10MVPositionEdb@Base 3.2.1
 _ZN8casacore8MeasMath14applyPrecNutatERNS_10MVPositionE@Base 3.2.1
 _ZN8casacore8MeasMath14createNutationEv@Base 3.2.1
 _ZN8casacore8MeasMath14createSolarPosEv@Base 3.2.1
 _ZN8casacore8MeasMath15applyAberrationERNS_10MVPositionEb@Base 3.2.1
 _ZN8casacore8MeasMath15applyGALtoB1950ERNS_10MVPositionE@Base 3.2.1
 _ZN8casacore8MeasMath15applyGALtoJ2000ERNS_10MVPositionE@Base 3.2.1
 _ZN8casacore8MeasMath15applyPrecessionERNS_10MVPositionE@Base 3.2.1
 _ZN8casacore8MeasMath15createPrecNutatEv@Base 3.2.1
 _ZN8casacore8MeasMath15deapplyNutationERNS_10MVPositionE@Base 3.2.1
 _ZN8casacore8MeasMath15deapplySolarPosERNS_10MVPositionEb@Base 3.2.1
 _ZN8casacore8MeasMath16applyHADECtoAZELERNS_10MVPositionE@Base 3.2.1
 _ZN8casacore8MeasMath16applyHADECtoITRFERNS_10MVPositionE@Base 3.2.1
 _ZN8casacore8MeasMath16applyICRStoJ2000ERNS_10MVPositionE@Base 3.2.1
 _ZN8casacore8MeasMath16applyPolarMotionERNS_10MVPositionE@Base 3.2.1
 _ZN8casacore8MeasMath16applyTOPOtoHADECERNS_10MVPositionEb@Base 3.2.1
 _ZN8casacore8MeasMath16createAberrationEv@Base 3.2.1
 _ZN8casacore8MeasMath16createPrecessionEv@Base 3.2.1
 _ZN8casacore8MeasMath16deapplyAPPtoTOPOERNS_10MVPositionEdb@Base 3.2.1
 _ZN8casacore8MeasMath16deapplyPrecNutatERNS_10MVPositionE@Base 3.2.1
 _ZN8casacore8MeasMath17applyAZELtoAZELSWERNS_10MVPositionE@Base 3.2.1
 _ZN8casacore8MeasMath17applyECLIPtoJ2000ERNS_10MVPositionE@Base 3.2.1
 _ZN8casacore8MeasMath17applyJ2000toB1950ERNS_10MVPositionEb@Base 3.2.1
 _ZN8casacore8MeasMath17applyJ2000toB1950ERNS_10MVPositionEdb@Base 3.2.1
 _ZN8casacore8MeasMath17deapplyAberrationERNS_10MVPositionEb@Base 3.2.1
 _ZN8casacore8MeasMath17deapplyGALtoB1950ERNS_10MVPositionE@Base 3.2.1
 _ZN8casacore8MeasMath17deapplyGALtoJ2000ERNS_10MVPositionE@Base 3.2.1
 _ZN8casacore8MeasMath17deapplyPrecessionERNS_10MVPositionE@Base 3.2.1
 _ZN8casacore8MeasMath18applyGALtoSUPERGALERNS_10MVPositionE@Base 3.2.1
 _ZN8casacore8MeasMath18applyMECLIPtoJMEANERNS_10MVPositionE@Base 3.2.1
 _ZN8casacore8MeasMath18applyNutationB1950ERNS_10MVPositionE@Base 3.2.1
 _ZN8casacore8MeasMath18applyTECLIPtoJTRUEERNS_10MVPositionE@Base 3.2.1
 _ZN8casacore8MeasMath18deapplyHADECtoAZELERNS_10MVPositionE@Base 3.2.1
 _ZN8casacore8MeasMath18deapplyHADECtoITRFERNS_10MVPositionE@Base 3.2.1
 _ZN8casacore8MeasMath18deapplyICRStoJ2000ERNS_10MVPositionE@Base 3.2.1
 _ZN8casacore8MeasMath18deapplyPolarMotionERNS_10MVPositionE@Base 3.2.1
 _ZN8casacore8MeasMath18deapplyTOPOtoHADECERNS_10MVPositionEb@Base 3.2.1
 _ZN8casacore8MeasMath19applyHADECtoAZELGEOERNS_10MVPositionE@Base 3.2.1
 _ZN8casacore8MeasMath19applyPrecNutatB1950ERNS_10MVPositionEb@Base 3.2.1
 _ZN8casacore8MeasMath19createNutationB1950Ev@Base 3.2.1
 _ZN8casacore8MeasMath19deapplyECLIPtoJ2000ERNS_10MVPositionE@Base 3.2.1
 _ZN8casacore8MeasMath19deapplyJ2000toB1950ERNS_10MVPositionEb@Base 3.2.1
 _ZN8casacore8MeasMath19deapplyJ2000toB1950ERNS_10MVPositionEdb@Base 3.2.1
 _ZN8casacore8MeasMath20applyAberrationB1950ERNS_10MVPositionEb@Base 3.2.1
 _ZN8casacore8MeasMath20applyPrecessionB1950ERNS_10MVPositionE@Base 3.2.1
 _ZN8casacore8MeasMath20createPrecNutatB1950Ev@Base 3.2.1
 _ZN8casacore8MeasMath20deapplyGALtoSUPERGALERNS_10MVPositionE@Base 3.2.1
 _ZN8casacore8MeasMath20deapplyMECLIPtoJMEANERNS_10MVPositionE@Base 3.2.1
 _ZN8casacore8MeasMath20deapplyNutationB1950ERNS_10MVPositionE@Base 3.2.1
 _ZN8casacore8MeasMath20deapplyTECLIPtoJTRUEERNS_10MVPositionE@Base 3.2.1
 _ZN8casacore8MeasMath21applyJ2000toB1950_VLAERNS_10MVPositionEb@Base 3.2.1
 _ZN8casacore8MeasMath21createAberrationB1950Ev@Base 3.2.1
 _ZN8casacore8MeasMath21createPrecessionB1950Ev@Base 3.2.1
 _ZN8casacore8MeasMath21deapplyHADECtoAZELGEOERNS_10MVPositionE@Base 3.2.1
 _ZN8casacore8MeasMath21deapplyPrecNutatB1950ERNS_10MVPositionEb@Base 3.2.1
 _ZN8casacore8MeasMath22deapplyAberrationB1950ERNS_10MVPositionEb@Base 3.2.1
 _ZN8casacore8MeasMath22deapplyPrecessionB1950ERNS_10MVPositionE@Base 3.2.1
 _ZN8casacore8MeasMath23deapplyJ2000toB1950_VLAERNS_10MVPositionEb@Base 3.2.1
 _ZN8casacore8MeasMath6getAPPERNS_10MVPositionE@Base 3.2.1
 _ZN8casacore8MeasMath7getInfoENS0_9FrameInfoEb@Base 3.2.1
 _ZN8casacore8MeasMath8getB1950ERNS_10MVPositionE@Base 3.2.1
 _ZN8casacore8MeasMath8getFrameENS0_9FrameTypeE@Base 3.2.1
 _ZN8casacore8MeasMath8getJ2000ERNS_10MVPositionE@Base 3.2.1
 _ZN8casacore8MeasMath9initFrameERNS_6MRBaseES2_@Base 3.2.1
 _ZN8casacore8MeasMathC1Ev@Base 3.2.1
 _ZN8casacore8MeasMathC2Ev@Base 3.2.1
 _ZN8casacore8MeasMathD1Ev@Base 3.2.1
 _ZN8casacore8MeasMathD2Ev@Base 3.2.1
 _ZN8casacore8Nutation10derivativeEd@Base 3.2.1
 _ZN8casacore8Nutation12getEqoxAngleEd@Base 3.2.1
 _ZN8casacore8Nutation12getEqoxAngleEdRKNS_4UnitE@Base 3.2.1
 _ZN8casacore8Nutation12myUsejpl_regE@Base 3.2.1
 _ZN8casacore8Nutation13myUseiers_regE@Base 3.2.1
 _ZN8casacore8Nutation14derivativeEqoxEd@Base 3.2.1
 _ZN8casacore8Nutation14myInterval_regE@Base 3.2.1
 _ZN8casacore8Nutation16derivativeEqoxCTEd@Base 3.2.1
 _ZN8casacore8Nutation4INTVE@Base 3.2.1
 _ZN8casacore8Nutation4copyERKS0_@Base 3.2.1
 _ZN8casacore8Nutation4eqoxEd@Base 3.2.1
 _ZN8casacore8Nutation4fillEv@Base 3.2.1
 _ZN8casacore8Nutation4initENS0_13NutationTypesE@Base 3.2.1
 _ZN8casacore8Nutation4initEv@Base 3.2.1
 _ZN8casacore8Nutation6eqoxCTEd@Base 3.2.1
 _ZN8casacore8Nutation7calcNutEdb@Base 3.2.1
 _ZN8casacore8Nutation7refreshEv@Base 3.2.1
 _ZN8casacore8NutationC1ENS0_13NutationTypesE@Base 3.2.1
 _ZN8casacore8NutationC1ERKS0_@Base 3.2.1
 _ZN8casacore8NutationC1Ev@Base 3.2.1
 _ZN8casacore8NutationC2ENS0_13NutationTypesE@Base 3.2.1
 _ZN8casacore8NutationC2ERKS0_@Base 3.2.1
 _ZN8casacore8NutationC2Ev@Base 3.2.1
 _ZN8casacore8NutationD1Ev@Base 3.2.1
 _ZN8casacore8NutationD2Ev@Base 3.2.1
 _ZN8casacore8NutationaSERKS0_@Base 3.2.1
 _ZN8casacore8NutationclEd@Base 3.2.1
 _ZN8casacore8SolarPos10derivativeEd@Base 3.2.1
 _ZN8casacore8SolarPos10usejpl_regE@Base 3.2.1
 _ZN8casacore8SolarPos12interval_regE@Base 3.2.1
 _ZN8casacore8SolarPos17barySunDerivativeEd@Base 3.2.1
 _ZN8casacore8SolarPos19baryEarthDerivativeEd@Base 3.2.1
 _ZN8casacore8SolarPos4INTVE@Base 3.2.1
 _ZN8casacore8SolarPos4copyERKS0_@Base 3.2.1
 _ZN8casacore8SolarPos4fillEv@Base 3.2.1
 _ZN8casacore8SolarPos7barySunEd@Base 3.2.1
 _ZN8casacore8SolarPos7calcSunEd@Base 3.2.1
 _ZN8casacore8SolarPos7refreshEv@Base 3.2.1
 _ZN8casacore8SolarPos9baryEarthEd@Base 3.2.1
 _ZN8casacore8SolarPos9calcEarthEd@Base 3.2.1
 _ZN8casacore8SolarPosC1ENS0_13SolarPosTypesE@Base 3.2.1
 _ZN8casacore8SolarPosC1ERKS0_@Base 3.2.1
 _ZN8casacore8SolarPosC1Ev@Base 3.2.1
 _ZN8casacore8SolarPosC2ENS0_13SolarPosTypesE@Base 3.2.1
 _ZN8casacore8SolarPosC2ERKS0_@Base 3.2.1
 _ZN8casacore8SolarPosC2Ev@Base 3.2.1
 _ZN8casacore8SolarPosD1Ev@Base 3.2.1
 _ZN8casacore8SolarPosD2Ev@Base 3.2.1
 _ZN8casacore8SolarPosaSERKS0_@Base 3.2.1
 _ZN8casacore8SolarPosclEd@Base 3.2.1
 _ZN8casacore9InitErrorD0Ev@Base 3.2.1
 _ZN8casacore9InitErrorD1Ev@Base 3.2.1
 _ZN8casacore9InitErrorD2Ev@Base 3.2.1
 _ZN8casacore9MBaseline10allMyTypesERiS1_RPKj@Base 3.2.1
 _ZN8casacore9MBaseline11fromDirTypeENS_10MDirection5TypesE@Base 3.2.1
 _ZN8casacore9MBaseline12checkMyTypesEv@Base 3.2.1
 _ZN8casacore9MBaseline12setRefStringERKNS_6StringE@Base 3.2.1
 _ZN8casacore9MBaseline6assureERKNS_7MeasureE@Base 3.2.1
 _ZN8casacore9MBaseline6giveMeERNS_7MeasRefIS0_EERKNS_6StringE@Base 3.2.1
 _ZN8casacore9MBaseline6myTypeEv@Base 3.2.1
 _ZN8casacore9MBaseline6showMeEv@Base 3.2.1
 _ZN8casacore9MBaseline7getTypeERNS0_5TypesERKNS_6StringE@Base 3.2.1
 _ZN8casacore9MBaseline8castTypeEj@Base 3.2.1
 _ZN8casacore9MBaseline8showTypeENS0_5TypesE@Base 3.2.1
 _ZN8casacore9MBaseline8showTypeEj@Base 3.2.1
 _ZN8casacore9MBaseline9setOffsetERKNS_7MeasureE@Base 3.2.1
 _ZN8casacore9MBaseline9toDirTypeENS0_5TypesE@Base 3.2.1
 _ZN8casacore9MBaselineC1EPKNS_7MeasureE@Base 3.2.1
 _ZN8casacore9MBaselineC1EPKNS_9MeasValueE@Base 3.2.1
 _ZN8casacore9MBaselineC1ERKNS_10MVBaselineE@Base 3.2.1
 _ZN8casacore9MBaselineC1ERKNS_10MVBaselineENS0_5TypesE@Base 3.2.1
 _ZN8casacore9MBaselineC1ERKNS_10MVBaselineERKNS_7MeasRefIS0_EE@Base 3.2.1
 _ZN8casacore9MBaselineC1ERKS0_@Base 3.2.1
 _ZN8casacore9MBaselineC1Ev@Base 3.2.1
 _ZN8casacore9MBaselineC2EPKNS_7MeasureE@Base 3.2.1
 _ZN8casacore9MBaselineC2EPKNS_9MeasValueE@Base 3.2.1
 _ZN8casacore9MBaselineC2ERKNS_10MVBaselineE@Base 3.2.1
 _ZN8casacore9MBaselineC2ERKNS_10MVBaselineENS0_5TypesE@Base 3.2.1
 _ZN8casacore9MBaselineC2ERKNS_10MVBaselineERKNS_7MeasRefIS0_EE@Base 3.2.1
 _ZN8casacore9MBaselineC2ERKS0_@Base 3.2.1
 _ZN8casacore9MBaselineC2Ev@Base 3.2.1
 _ZN8casacore9MBaselineD0Ev@Base 3.2.1
 _ZN8casacore9MBaselineD1Ev@Base 3.2.1
 _ZN8casacore9MBaselineD2Ev@Base 3.2.1
 _ZN8casacore9MBaselineaSERKS0_@Base 3.2.1
 _ZN8casacore9MCDoppler10getConvertERNS_12MConvertBaseERKNS_6MRBaseES5_@Base 3.2.1
 _ZN8casacore9MCDoppler11doFillStateEv@Base 3.2.1
 _ZN8casacore9MCDoppler11initConvertEjRNS_12MConvertBaseE@Base 3.2.1
 _ZN8casacore9MCDoppler12clearConvertEv@Base 3.2.1
 _ZN8casacore9MCDoppler13theirInitOnceE@Base 3.2.1
 _ZN8casacore9MCDoppler7ToRef_pE@Base 3.2.1
 _ZN8casacore9MCDoppler8FromTo_pE@Base 3.2.1
 _ZN8casacore9MCDoppler9doConvertERNS_9MVDopplerERNS_6MRBaseES4_RKNS_12MConvertBaseE@Base 3.2.1
 _ZN8casacore9MCDoppler9doConvertERNS_9MeasValueERNS_6MRBaseES4_RKNS_12MConvertBaseE@Base 3.2.1
 _ZN8casacore9MCDoppler9showStateEv@Base 3.2.1
 _ZN8casacore9MCDopplerC1Ev@Base 3.2.1
 _ZN8casacore9MCDopplerC2Ev@Base 3.2.1
 _ZN8casacore9MCDopplerD0Ev@Base 3.2.1
 _ZN8casacore9MCDopplerD1Ev@Base 3.2.1
 _ZN8casacore9MCDopplerD2Ev@Base 3.2.1
 _ZN8casacore9MPosition10allMyTypesERiS1_RPKj@Base 3.2.1
 _ZN8casacore9MPosition12checkMyTypesEv@Base 3.2.1
 _ZN8casacore9MPosition12setRefStringERKNS_6StringE@Base 3.2.1
 _ZN8casacore9MPosition6assureERKNS_7MeasureE@Base 3.2.1
 _ZN8casacore9MPosition6giveMeERNS_7MeasRefIS0_EERKNS_6StringE@Base 3.2.1
 _ZN8casacore9MPosition6myTypeEv@Base 3.2.1
 _ZN8casacore9MPosition6showMeEv@Base 3.2.1
 _ZN8casacore9MPosition7getTypeERKNS_6StringE@Base 3.2.1
 _ZN8casacore9MPosition7getTypeERNS0_5TypesERKNS_6StringE@Base 3.2.1
 _ZN8casacore9MPosition8castTypeEj@Base 3.2.1
 _ZN8casacore9MPosition8showTypeENS0_5TypesE@Base 3.2.1
 _ZN8casacore9MPosition8showTypeEj@Base 3.2.1
 _ZN8casacore9MPosition9setOffsetERKNS_7MeasureE@Base 3.2.1
 _ZN8casacore9MPositionC1EPKNS_7MeasureE@Base 3.2.1
 _ZN8casacore9MPositionC1EPKNS_9MeasValueE@Base 3.2.1
 _ZN8casacore9MPositionC1ERKNS_10MVPositionE@Base 3.2.1
 _ZN8casacore9MPositionC1ERKNS_10MVPositionENS0_5TypesE@Base 3.2.1
 _ZN8casacore9MPositionC1ERKNS_10MVPositionERKNS_7MeasRefIS0_EE@Base 3.2.1
 _ZN8casacore9MPositionC1ERKNS_7QuantumIdEERKNS1_INS_6VectorIdEEEE@Base 3.2.1
 _ZN8casacore9MPositionC1ERKNS_7QuantumIdEERKNS1_INS_6VectorIdEEEENS0_5TypesE@Base 3.2.1
 _ZN8casacore9MPositionC1ERKNS_7QuantumIdEERKNS1_INS_6VectorIdEEEERKNS_7MeasRefIS0_EE@Base 3.2.1
 _ZN8casacore9MPositionC1ERKNS_7QuantumIdEES4_S4_@Base 3.2.1
 _ZN8casacore9MPositionC1ERKNS_7QuantumIdEES4_S4_NS0_5TypesE@Base 3.2.1
 _ZN8casacore9MPositionC1ERKNS_7QuantumIdEES4_S4_RKNS_7MeasRefIS0_EE@Base 3.2.1
 _ZN8casacore9MPositionC1ERKS0_@Base 3.2.1
 _ZN8casacore9MPositionC1Ev@Base 3.2.1
 _ZN8casacore9MPositionC2EPKNS_7MeasureE@Base 3.2.1
 _ZN8casacore9MPositionC2EPKNS_9MeasValueE@Base 3.2.1
 _ZN8casacore9MPositionC2ERKNS_10MVPositionE@Base 3.2.1
 _ZN8casacore9MPositionC2ERKNS_10MVPositionENS0_5TypesE@Base 3.2.1
 _ZN8casacore9MPositionC2ERKNS_10MVPositionERKNS_7MeasRefIS0_EE@Base 3.2.1
 _ZN8casacore9MPositionC2ERKNS_7QuantumIdEERKNS1_INS_6VectorIdEEEE@Base 3.2.1
 _ZN8casacore9MPositionC2ERKNS_7QuantumIdEERKNS1_INS_6VectorIdEEEENS0_5TypesE@Base 3.2.1
 _ZN8casacore9MPositionC2ERKNS_7QuantumIdEERKNS1_INS_6VectorIdEEEERKNS_7MeasRefIS0_EE@Base 3.2.1
 _ZN8casacore9MPositionC2ERKNS_7QuantumIdEES4_S4_@Base 3.2.1
 _ZN8casacore9MPositionC2ERKNS_7QuantumIdEES4_S4_NS0_5TypesE@Base 3.2.1
 _ZN8casacore9MPositionC2ERKNS_7QuantumIdEES4_S4_RKNS_7MeasRefIS0_EE@Base 3.2.1
 _ZN8casacore9MPositionC2ERKS0_@Base 3.2.1
 _ZN8casacore9MPositionC2Ev@Base 3.2.1
 _ZN8casacore9MPositionD0Ev@Base 3.2.1
 _ZN8casacore9MPositionD1Ev@Base 3.2.1
 _ZN8casacore9MPositionD2Ev@Base 3.2.1
 _ZN8casacore9MPositionaSERKS0_@Base 3.2.1
 _ZN8casacore9MeasComet10getMeanRadEb@Base 3.2.1
 _ZN8casacore9MeasComet12getTablePathEv@Base 3.2.1
 _ZN8casacore9MeasComet14getTemperatureEb@Base 3.2.1
 _ZN8casacore9MeasComet20get_Quantity_keywordERKNS_11TableRecordERKNS_6StringERKNS_4UnitERb@Base 3.2.1
 _ZN8casacore9MeasComet8initMeasERKNS_6StringEPKNS_5TableE@Base 3.2.1
 _ZN8casacore9MeasComet9closeMeasEv@Base 3.2.1
 _ZN8casacore9MeasComet9getExtrasEv@Base 3.2.1
 _ZN8casacore9MeasCometC1ERKNS_5TableERKNS_6StringE@Base 3.2.1
 _ZN8casacore9MeasCometC1ERKNS_6StringE@Base 3.2.1
 _ZN8casacore9MeasCometC1ERKS0_@Base 3.2.1
 _ZN8casacore9MeasCometC1Ev@Base 3.2.1
 _ZN8casacore9MeasCometC2ERKNS_5TableERKNS_6StringE@Base 3.2.1
 _ZN8casacore9MeasCometC2ERKNS_6StringE@Base 3.2.1
 _ZN8casacore9MeasCometC2ERKS0_@Base 3.2.1
 _ZN8casacore9MeasCometC2Ev@Base 3.2.1
 _ZN8casacore9MeasCometD1Ev@Base 3.2.1
 _ZN8casacore9MeasCometD2Ev@Base 3.2.1
 _ZN8casacore9MeasCometaSERKS0_@Base 3.2.1
 _ZN8casacore9MeasFrame10errorResetERKNS_6StringE@Base 3.2.1
 _ZN8casacore9MeasFrame10resetCometERKNS_9MeasCometE@Base 3.2.1
 _ZN8casacore9MeasFrame10resetEpochERKNS_6VectorIdEE@Base 3.2.1
 _ZN8casacore9MeasFrame10resetEpochERKNS_7MVEpochE@Base 3.2.1
 _ZN8casacore9MeasFrame10resetEpochERKNS_7MeasureE@Base 3.2.1
 _ZN8casacore9MeasFrame10resetEpochERKNS_7QuantumINS_6VectorIdEEEE@Base 3.2.1
 _ZN8casacore9MeasFrame10resetEpochERKNS_7QuantumIdEE@Base 3.2.1
 _ZN8casacore9MeasFrame10resetEpochEd@Base 3.2.1
 _ZN8casacore9MeasFrame12makePositionEv@Base 3.2.1
 _ZN8casacore9MeasFrame13makeDirectionEv@Base 3.2.1
 _ZN8casacore9MeasFrame13resetPositionERKNS_10MVPositionE@Base 3.2.1
 _ZN8casacore9MeasFrame13resetPositionERKNS_6VectorIdEE@Base 3.2.1
 _ZN8casacore9MeasFrame13resetPositionERKNS_7MeasureE@Base 3.2.1
 _ZN8casacore9MeasFrame13resetPositionERKNS_7QuantumINS_6VectorIdEEEE@Base 3.2.1
 _ZN8casacore9MeasFrame14resetDirectionERKNS_11MVDirectionE@Base 3.2.1
 _ZN8casacore9MeasFrame14resetDirectionERKNS_6VectorIdEE@Base 3.2.1
 _ZN8casacore9MeasFrame14resetDirectionERKNS_7MeasureE@Base 3.2.1
 _ZN8casacore9MeasFrame14resetDirectionERKNS_7QuantumINS_6VectorIdEEEE@Base 3.2.1
 _ZN8casacore9MeasFrame18makeRadialVelocityEv@Base 3.2.1
 _ZN8casacore9MeasFrame19resetRadialVelocityERKNS_16MVRadialVelocityE@Base 3.2.1
 _ZN8casacore9MeasFrame19resetRadialVelocityERKNS_6VectorIdEE@Base 3.2.1
 _ZN8casacore9MeasFrame19resetRadialVelocityERKNS_7MeasureE@Base 3.2.1
 _ZN8casacore9MeasFrame19resetRadialVelocityERKNS_7QuantumINS_6VectorIdEEEE@Base 3.2.1
 _ZN8casacore9MeasFrame3setERKNS_7MeasureE@Base 3.2.1
 _ZN8casacore9MeasFrame3setERKNS_7MeasureES3_@Base 3.2.1
 _ZN8casacore9MeasFrame3setERKNS_7MeasureES3_S3_@Base 3.2.1
 _ZN8casacore9MeasFrame3setERKNS_9MeasCometE@Base 3.2.1
 _ZN8casacore9MeasFrame4fillEPKNS_7MeasureE@Base 3.2.1
 _ZN8casacore9MeasFrame4fillEPKNS_9MeasCometE@Base 3.2.1
 _ZN8casacore9MeasFrame4lockERj@Base 3.2.1
 _ZN8casacore9MeasFrame6createEv@Base 3.2.1
 _ZN8casacore9MeasFrame6unlockEj@Base 3.2.1
 _ZN8casacore9MeasFrame9makeCometEv@Base 3.2.1
 _ZN8casacore9MeasFrame9makeEpochEv@Base 3.2.1
 _ZN8casacore9MeasFrameC1ERKNS_7MeasureE@Base 3.2.1
 _ZN8casacore9MeasFrameC1ERKNS_7MeasureES3_@Base 3.2.1
 _ZN8casacore9MeasFrameC1ERKNS_7MeasureES3_S3_@Base 3.2.1
 _ZN8casacore9MeasFrameC1ERKS0_@Base 3.2.1
 _ZN8casacore9MeasFrameC1Ev@Base 3.2.1
 _ZN8casacore9MeasFrameC2ERKNS_7MeasureE@Base 3.2.1
 _ZN8casacore9MeasFrameC2ERKNS_7MeasureES3_@Base 3.2.1
 _ZN8casacore9MeasFrameC2ERKNS_7MeasureES3_S3_@Base 3.2.1
 _ZN8casacore9MeasFrameC2ERKS0_@Base 3.2.1
 _ZN8casacore9MeasFrameC2Ev@Base 3.2.1
 _ZN8casacore9MeasFrameD1Ev@Base 3.2.1
 _ZN8casacore9MeasFrameD2Ev@Base 3.2.1
 _ZN8casacore9MeasFrameaSERKS0_@Base 3.2.1
 _ZN8casacore9MeasTable10calcGMST00Ev@Base 3.2.1
 _ZN8casacore9MeasTable10calcPosArgEv@Base 3.2.1
 _ZN8casacore9MeasTable10calcUTtoSTEv@Base 3.2.1
 _ZN8casacore9MeasTable10doInitIGRFEv@Base 3.2.1
 _ZN8casacore9MeasTable10mulAberArgEj@Base 3.2.1
 _ZN8casacore9MeasTable10mulArg1950Ej@Base 3.2.1
 _ZN8casacore9MeasTable10mulPosSunZEdd@Base 3.2.1
 _ZN8casacore9MeasTable10mulSC2000AEdd@Base 3.2.1
 _ZN8casacore9MeasTable10mulSC2000BEdd@Base 3.2.1
 _ZN8casacore9MeasTable10mulSunAberEj@Base 3.2.1
 _ZN8casacore9MeasTable10precRate00Ej@Base 3.2.1
 _ZN8casacore9MeasTable10theirMulSCE@Base 3.2.1
 _ZN8casacore9MeasTable10useIAU2000Ev@Base 3.2.1
 _ZN8casacore9MeasTable11ICRSToJ2000Ev@Base 3.2.1
 _ZN8casacore9MeasTable11ObservatoryERNS_9MPositionERKNS_6StringE@Base 3.2.1
 _ZN8casacore9MeasTable11aber1950ArgEj@Base 3.2.1
 _ZN8casacore9MeasTable11calcAberArgEv@Base 3.2.1
 _ZN8casacore9MeasTable11calcFundArgEPA4_Kd@Base 3.2.1
 _ZN8casacore9MeasTable11diurnalAberEdd@Base 3.2.1
 _ZN8casacore9MeasTable11doInitLinesEv@Base 3.2.1
 _ZN8casacore9MeasTable11frameBias00Ev@Base 3.2.1
 _ZN8casacore9MeasTable11fundArg1950Ej@Base 3.2.1
 _ZN8casacore9MeasTable11fundArg2000Ej@Base 3.2.1
 _ZN8casacore9MeasTable11initSourcesEv@Base 3.2.1
 _ZN8casacore9MeasTable11mulAber1950Edd@Base 3.2.1
 _ZN8casacore9MeasTable11mulArg2000AEj@Base 3.2.1
 _ZN8casacore9MeasTable11mulArg2000BEj@Base 3.2.1
 _ZN8casacore9MeasTable11mulPosSunXYEdd@Base 3.2.1
 _ZN8casacore9MeasTable11polarMotionEd@Base 3.2.1
 _ZN8casacore9MeasTable11posArgDerivEj@Base 3.2.1
 _ZN8casacore9MeasTable11useIAU2000AEv@Base 3.2.1
 _ZN8casacore9MeasTable11velocityCMBEj@Base 3.2.1
 _ZN8casacore9MeasTable11velocityLSREj@Base 3.2.1
 _ZN8casacore9MeasTable12aberArgDerivEj@Base 3.2.1
 _ZN8casacore9MeasTable12mulEarthAberEj@Base 3.2.1
 _ZN8casacore9MeasTable12mulPosEarthZEdd@Base 3.2.1
 _ZN8casacore9MeasTable12theirMulAberE@Base 3.2.1
 _ZN8casacore9MeasTable12velocityLSRKEj@Base 3.2.1
 _ZN8casacore9MeasTable13ObservatoriesEv@Base 3.2.1
 _ZN8casacore9MeasTable13calcAberETermEv@Base 3.2.1
 _ZN8casacore9MeasTable13calcFundArg00EPA5_Kd@Base 3.2.1
 _ZN8casacore9MeasTable13calcPlanArg00EPA2_Kd@Base 3.2.1
 _ZN8casacore9MeasTable13calcPlanetaryEPNS_7MeasJPL5FilesE@Base 3.2.1
 _ZN8casacore9MeasTable13calcRectToPosEv@Base 3.2.1
 _ZN8casacore9MeasTable13doInitSourcesEv@Base 3.2.1
 _ZN8casacore9MeasTable13galToSupergalEv@Base 3.2.1
 _ZN8casacore9MeasTable13mulAberSunArgEj@Base 3.2.1
 _ZN8casacore9MeasTable13mulPosEarthXYEdd@Base 3.2.1
 _ZN8casacore9MeasTable13mulPosSunZArgEj@Base 3.2.1
 _ZN8casacore9MeasTable14calcMulSunAberEv@Base 3.2.1
 _ZN8casacore9MeasTable14calcPrecesCoefEdPNS_10PolynomialIdEEPA6_Kd@Base 3.2.1
 _ZN8casacore9MeasTable14mulAber1950ArgEj@Base 3.2.1
 _ZN8casacore9MeasTable14mulPlanSC2000AEj@Base 3.2.1
 _ZN8casacore9MeasTable14mulPosSunXYArgEj@Base 3.2.1
 _ZN8casacore9MeasTable14precessionCoefEdPNS_10PolynomialIdEE@Base 3.2.1
 _ZN8casacore9MeasTable14theirMulSC1950E@Base 3.2.1
 _ZN8casacore9MeasTable14velocityLGROUPEj@Base 3.2.1
 _ZN8casacore9MeasTable14velocityLSRGalEj@Base 3.2.1
 _ZN8casacore9MeasTable15calcAber1950ArgEv@Base 3.2.1
 _ZN8casacore9MeasTable15calcICRSToJ2000Ev@Base 3.2.1
 _ZN8casacore9MeasTable15calcPosArgDerivEv@Base 3.2.1
 _ZN8casacore9MeasTable15calcVelocityCMBEv@Base 3.2.1
 _ZN8casacore9MeasTable15calcVelocityLSREv@Base 3.2.1
 _ZN8casacore9MeasTable15mulAberEarthArgEj@Base 3.2.1
 _ZN8casacore9MeasTable15mulPlanArg2000AEj@Base 3.2.1
 _ZN8casacore9MeasTable15mulPosEarthZArgEj@Base 3.2.1
 _ZN8casacore9MeasTable15mulSCEqEqCT2000Ej@Base 3.2.1
 _ZN8casacore9MeasTable15theirMulPosSunZE@Base 3.2.1
 _ZN8casacore9MeasTable15theirMulSC2000AE@Base 3.2.1
 _ZN8casacore9MeasTable15theirMulSC2000BE@Base 3.2.1
 _ZN8casacore9MeasTable16aber1950ArgDerivEj@Base 3.2.1
 _ZN8casacore9MeasTable16antResponsesPathE@Base 3.2.1
 _ZN8casacore9MeasTable16calcAberArgDerivEv@Base 3.2.1
 _ZN8casacore9MeasTable16calcMulEarthAberEv@Base 3.2.1
 _ZN8casacore9MeasTable16calcVelocityLSRKEv@Base 3.2.1
 _ZN8casacore9MeasTable16mulArgEqEqCT2000Ej@Base 3.2.1
 _ZN8casacore9MeasTable16mulPosEarthXYArgEj@Base 3.2.1
 _ZN8casacore9MeasTable16planetaryArg2000Ej@Base 3.2.1
 _ZN8casacore9MeasTable16theirMulAber1950E@Base 3.2.1
 _ZN8casacore9MeasTable16theirMulPosSunXYE@Base 3.2.1
 _ZN8casacore9MeasTable16theirObsInitOnceE@Base 3.2.1
 _ZN8casacore9MeasTable16theirSrcInitOnceE@Base 3.2.1
 _ZN8casacore9MeasTable17initObservatoriesEv@Base 3.2.1
 _ZN8casacore9MeasTable17theirIGRFInitOnceE@Base 3.2.1
 _ZN8casacore9MeasTable17theirMulPosEarthZE@Base 3.2.1
 _ZN8casacore9MeasTable18calcPrecesCoef2000EPNS_10PolynomialIdEEPA6_Kd@Base 3.2.1
 _ZN8casacore9MeasTable18calcVelocityLGROUPEv@Base 3.2.1
 _ZN8casacore9MeasTable18calcVelocityLSRGalEv@Base 3.2.1
 _ZN8casacore9MeasTable18precessionCoef1950EdPNS_10PolynomialIdEE@Base 3.2.1
 _ZN8casacore9MeasTable18precessionCoef2000EPNS_10PolynomialIdEE@Base 3.2.1
 _ZN8casacore9MeasTable18theirLinesInitOnceE@Base 3.2.1
 _ZN8casacore9MeasTable18theirMulPosEarthXYE@Base 3.2.1
 _ZN8casacore9MeasTable19doInitObservatoriesEv@Base 3.2.1
 _ZN8casacore9MeasTable20AntennaResponsesPathERNS_6StringERKS1_@Base 3.2.1
 _ZN8casacore9MeasTable20calcAber1950ArgDerivEv@Base 3.2.1
 _ZN8casacore9MeasTable22calcPlanetaryConstantsEPd@Base 3.2.1
 _ZN8casacore9MeasTable22theirPlanetaryInitOnceE@Base 3.2.1
 _ZN8casacore9MeasTable31theirPlanetaryConstantsInitOnceE@Base 3.2.1
 _ZN8casacore9MeasTable4IGRFEd@Base 3.2.1
 _ZN8casacore9MeasTable4LineERNS_10MFrequencyERKNS_6StringE@Base 3.2.1
 _ZN8casacore9MeasTable4dTAIEd@Base 3.2.1
 _ZN8casacore9MeasTable4dTCGEd@Base 3.2.1
 _ZN8casacore9MeasTable4dTDBEd@Base 3.2.1
 _ZN8casacore9MeasTable4dTDTEd@Base 3.2.1
 _ZN8casacore9MeasTable4dUT1Ed@Base 3.2.1
 _ZN8casacore9MeasTable4dUTCEd@Base 3.2.1
 _ZN8casacore9MeasTable5ERA00Ed@Base 3.2.1
 _ZN8casacore9MeasTable5GMST0Ed@Base 3.2.1
 _ZN8casacore9MeasTable5GMUT0Ed@Base 3.2.1
 _ZN8casacore9MeasTable5LinesEv@Base 3.2.1
 _ZN8casacore9MeasTable5WGS84Ej@Base 3.2.1
 _ZN8casacore9MeasTable5dIGRFE@Base 3.2.1
 _ZN8casacore9MeasTable5mulSCEdd@Base 3.2.1
 _ZN8casacore9MeasTable6GMST00Edd@Base 3.2.1
 _ZN8casacore9MeasTable6SourceERNS_10MDirectionERKNS_6StringE@Base 3.2.1
 _ZN8casacore9MeasTable6UTtoSTEd@Base 3.2.1
 _ZN8casacore9MeasTable6mulArgEj@Base 3.2.1
 _ZN8casacore9MeasTable6obsPosE@Base 3.2.1
 _ZN8casacore9MeasTable6posArgEj@Base 3.2.1
 _ZN8casacore9MeasTable6srcPosE@Base 3.2.1
 _ZN8casacore9MeasTable7SourcesEv@Base 3.2.1
 _ZN8casacore9MeasTable7aberArgEj@Base 3.2.1
 _ZN8casacore9MeasTable7dPsiEpsEjd@Base 3.2.1
 _ZN8casacore9MeasTable7fundArgEj@Base 3.2.1
 _ZN8casacore9MeasTable7linePosE@Base 3.2.1
 _ZN8casacore9MeasTable7mulAberEdd@Base 3.2.1
 _ZN8casacore9MeasTable7obsNamsE@Base 3.2.1
 _ZN8casacore9MeasTable7srcNamsE@Base 3.2.1
 _ZN8casacore9MeasTable8coefIGRFE@Base 3.2.1
 _ZN8casacore9MeasTable8initIGRFEv@Base 3.2.1
 _ZN8casacore9MeasTable8lineNamsE@Base 3.2.1
 _ZN8casacore9MeasTable8sprime00Ed@Base 3.2.1
 _ZN8casacore9MeasTable9AberETermEj@Base 3.2.1
 _ZN8casacore9MeasTable9PlanetaryENS0_5TypesEd@Base 3.2.1
 _ZN8casacore9MeasTable9PlanetaryENS0_8JPLconstE@Base 3.2.1
 _ZN8casacore9MeasTable9calcERA00Ev@Base 3.2.1
 _ZN8casacore9MeasTable9calcGMST0Ev@Base 3.2.1
 _ZN8casacore9MeasTable9calcGMUT0Ev@Base 3.2.1
 _ZN8casacore9MeasTable9calc_dUTCEv@Base 3.2.1
 _ZN8casacore9MeasTable9dtimeIGRFE@Base 3.2.1
 _ZN8casacore9MeasTable9firstIGRFE@Base 3.2.1
 _ZN8casacore9MeasTable9initLinesEv@Base 3.2.1
 _ZN8casacore9MeasTable9mulSC1950Edd@Base 3.2.1
 _ZN8casacore9MeasTable9posToRectEv@Base 3.2.1
 _ZN8casacore9MeasTable9rectToPosEv@Base 3.2.1
 _ZN8casacore9PtrHolderINS_7MeasureEE27delete_pointer_if_necessaryEv@Base 3.2.1
 _ZN8casacoreaaIbEENS_5ArrayIbEERKNS1_IT_EES6_@Base 3.2.1
 _ZN8casacorelsERSoRKNS_12MConvertBaseE@Base 3.2.1
 _ZN8casacorelsERSoRKNS_6MRBaseE@Base 3.2.1
 _ZN8casacorelsERSoRKNS_7MeasureE@Base 3.2.1
 _ZN8casacorelsERSoRNS_9MeasFrameE@Base 3.2.1
 _ZN8casacorelsIdEERSoS1_RKNS_5ArrayIT_EE@Base 3.2.1
 _ZN8casacoreplEPKcRKNS_6StringE@Base 3.2.1
 _ZN8casacoreplERKNS_6StringEPKc@Base 3.2.1
 _ZN8casacoreplERKNS_6StringES2_@Base 3.2.1
 _ZNK8casacore10CountedPtrINS_5BlockINS_10MDirectionEEEE7DeleterIS3_EclEPS3_@Base 3.2.1
 _ZNK8casacore10CountedPtrINS_5BlockINS_10MFrequencyEEEE7DeleterIS3_EclEPS3_@Base 3.2.1
 _ZNK8casacore10CountedPtrINS_5BlockINS_10MVPositionEEEE7DeleterIS3_EclEPS3_@Base 3.2.1
 _ZNK8casacore10CountedPtrINS_5BlockINS_16RORecordFieldPtrIdEEEEE7DeleterIS4_EclEPS4_@Base 3.2.1
 _ZNK8casacore10CountedPtrINS_5BlockINS_4UnitEEEE7DeleterIS3_EclEPS3_@Base 3.2.1
 _ZNK8casacore10CountedPtrINS_5BlockINS_6VectorIdEEEEE7DeleterIS4_EclEPS4_@Base 3.2.1
 _ZNK8casacore10CountedPtrINS_5BlockINS_7QuantumIdEEEEE7DeleterIS4_EclEPS4_@Base 3.2.1
 _ZNK8casacore10CountedPtrINS_5BlockINS_8AutoDiffIdEEEEE7DeleterIS4_EclEPS4_@Base 3.2.1
 _ZNK8casacore10CountedPtrINS_5BlockINS_9MPositionEEEE7DeleterIS3_EclEPS3_@Base 3.2.1
 _ZNK8casacore10Function1DINS_8AutoDiffIdEES2_E4ndimEv@Base 3.2.1
 _ZNK8casacore10Function1DIddE4ndimEv@Base 3.2.1
 _ZNK8casacore10MDirection10checkTypesEv@Base 3.2.1
 _ZNK8casacore10MDirection12getRefStringEv@Base 3.2.1
 _ZNK8casacore10MDirection14getDefaultTypeEv@Base 3.2.1
 _ZNK8casacore10MDirection4typeEv@Base 3.2.1
 _ZNK8casacore10MDirection5cloneEv@Base 3.2.1
 _ZNK8casacore10MDirection6tellMeEv@Base 3.2.1
 _ZNK8casacore10MDirection7isModelEv@Base 3.2.1
 _ZNK8casacore10MDirection8allTypesERiS1_RPKj@Base 3.2.1
 _ZNK8casacore10MDirection8getAngleERKNS_4UnitE@Base 3.2.1
 _ZNK8casacore10MDirection8getAngleEv@Base 3.2.1
 _ZNK8casacore10MDirection8toStringEv@Base 3.2.1
 _ZNK8casacore10MFrequency10checkTypesEv@Base 3.2.1
 _ZNK8casacore10MFrequency12getRefStringEv@Base 3.2.1
 _ZNK8casacore10MFrequency14getDefaultTypeEv@Base 3.2.1
 _ZNK8casacore10MFrequency3getERKNS_4UnitE@Base 3.2.1
 _ZNK8casacore10MFrequency4typeEv@Base 3.2.1
 _ZNK8casacore10MFrequency5cloneEv@Base 3.2.1
 _ZNK8casacore10MFrequency6tellMeEv@Base 3.2.1
 _ZNK8casacore10MFrequency6toRestERKNS_8MDopplerE@Base 3.2.1
 _ZNK8casacore10MFrequency8allTypesERiS1_RPKj@Base 3.2.1
 _ZNK8casacore10MFrequency9toDopplerERKNS_11MVFrequencyE@Base 3.2.1
 _ZNK8casacore10PolynomialINS_8AutoDiffIdEEE10cloneNonADEv@Base 3.2.1
 _ZNK8casacore10PolynomialINS_8AutoDiffIdEEE4evalEPKd@Base 3.2.1
 _ZNK8casacore10PolynomialINS_8AutoDiffIdEEE5cloneEv@Base 3.2.1
 _ZNK8casacore10PolynomialINS_8AutoDiffIdEEE7cloneADEv@Base 3.2.1
 _ZNK8casacore10PolynomialIdE10cloneNonADEv@Base 3.2.1
 _ZNK8casacore10PolynomialIdE10derivativeEv@Base 3.2.1
 _ZNK8casacore10PolynomialIdE4evalEPKd@Base 3.2.1
 _ZNK8casacore10PolynomialIdE5cloneEv@Base 3.2.1
 _ZNK8casacore10PolynomialIdE7cloneADEv@Base 3.2.1
 _ZNK8casacore10UVWMachine10convertUVWERNS_10MVPositionE@Base 3.2.1
 _ZNK8casacore10UVWMachine10convertUVWERNS_6VectorINS1_IdEEEE@Base 3.2.1
 _ZNK8casacore10UVWMachine10convertUVWERNS_6VectorINS_10MVPositionEEE@Base 3.2.1
 _ZNK8casacore10UVWMachine10convertUVWERNS_6VectorIdEE@Base 3.2.1
 _ZNK8casacore10UVWMachine10convertUVWERNS_6VectorIdEERNS1_INS_10MVPositionEEE@Base 3.2.1
 _ZNK8casacore10UVWMachine10convertUVWERNS_6VectorIdEERNS1_IS2_EE@Base 3.2.1
 _ZNK8casacore10UVWMachine10convertUVWERdRNS_10MVPositionE@Base 3.2.1
 _ZNK8casacore10UVWMachine10convertUVWERdRNS_6VectorIdEE@Base 3.2.1
 _ZNK8casacore10UVWMachine11phaseCenterEv@Base 3.2.1
 _ZNK8casacore10UVWMachine11rotationUVWEv@Base 3.2.1
 _ZNK8casacore10UVWMachine13rotationPhaseEv@Base 3.2.1
 _ZNK8casacore10UVWMachine8getPhaseERNS_10MVPositionE@Base 3.2.1
 _ZNK8casacore10UVWMachine8getPhaseERNS_6VectorINS1_IdEEEE@Base 3.2.1
 _ZNK8casacore10UVWMachine8getPhaseERNS_6VectorINS_10MVPositionEEE@Base 3.2.1
 _ZNK8casacore10UVWMachine8getPhaseERNS_6VectorIdEE@Base 3.2.1
 _ZNK8casacore10UVWMachineclERKNS_10MVPositionE@Base 3.2.1
 _ZNK8casacore10UVWMachineclERKNS_6VectorINS1_IdEEEE@Base 3.2.1
 _ZNK8casacore10UVWMachineclERKNS_6VectorINS_10MVPositionEEE@Base 3.2.1
 _ZNK8casacore10UVWMachineclERKNS_6VectorIdEE@Base 3.2.1
 _ZNK8casacore11MeasConvertINS_10MDirectionEE5printERSo@Base 3.2.1
 _ZNK8casacore11MeasConvertINS_10MDirectionEE7nMethodEv@Base 3.2.1
 _ZNK8casacore11MeasConvertINS_10MDirectionEE9getMethodEj@Base 3.2.1
 _ZNK8casacore11MeasConvertINS_10MFrequencyEE5printERSo@Base 3.2.1
 _ZNK8casacore11MeasConvertINS_10MFrequencyEE7nMethodEv@Base 3.2.1
 _ZNK8casacore11MeasConvertINS_10MFrequencyEE9getMethodEj@Base 3.2.1
 _ZNK8casacore11MeasConvertINS_14MEarthMagneticEE5printERSo@Base 3.2.1
 _ZNK8casacore11MeasConvertINS_14MEarthMagneticEE7nMethodEv@Base 3.2.1
 _ZNK8casacore11MeasConvertINS_14MEarthMagneticEE9getMethodEj@Base 3.2.1
 _ZNK8casacore11MeasConvertINS_15MRadialVelocityEE5printERSo@Base 3.2.1
 _ZNK8casacore11MeasConvertINS_15MRadialVelocityEE7nMethodEv@Base 3.2.1
 _ZNK8casacore11MeasConvertINS_15MRadialVelocityEE9getMethodEj@Base 3.2.1
 _ZNK8casacore11MeasConvertINS_4MuvwEE5printERSo@Base 3.2.1
 _ZNK8casacore11MeasConvertINS_4MuvwEE7nMethodEv@Base 3.2.1
 _ZNK8casacore11MeasConvertINS_4MuvwEE9getMethodEj@Base 3.2.1
 _ZNK8casacore11MeasConvertINS_6MEpochEE5printERSo@Base 3.2.1
 _ZNK8casacore11MeasConvertINS_6MEpochEE7nMethodEv@Base 3.2.1
 _ZNK8casacore11MeasConvertINS_6MEpochEE9getMethodEj@Base 3.2.1
 _ZNK8casacore11MeasConvertINS_8MDopplerEE5printERSo@Base 3.2.1
 _ZNK8casacore11MeasConvertINS_8MDopplerEE7nMethodEv@Base 3.2.1
 _ZNK8casacore11MeasConvertINS_8MDopplerEE9getMethodEj@Base 3.2.1
 _ZNK8casacore11MeasConvertINS_9MBaselineEE5printERSo@Base 3.2.1
 _ZNK8casacore11MeasConvertINS_9MBaselineEE7nMethodEv@Base 3.2.1
 _ZNK8casacore11MeasConvertINS_9MBaselineEE9getMethodEj@Base 3.2.1
 _ZNK8casacore11MeasConvertINS_9MPositionEE5printERSo@Base 3.2.1
 _ZNK8casacore11MeasConvertINS_9MPositionEE7nMethodEv@Base 3.2.1
 _ZNK8casacore11MeasConvertINS_9MPositionEE9getMethodEj@Base 3.2.1
 _ZNK8casacore13BaseAllocatorINS_10MDirectionENS_15NewDelAllocatorIS1_EEE12getAllocatorEv@Base 3.2.1
 _ZNK8casacore13BaseAllocatorINS_10MDirectionENS_16AlignedAllocatorIS1_Lm32EEEE12getAllocatorEv@Base 3.2.1
 _ZNK8casacore13BaseAllocatorINS_10MFrequencyENS_15NewDelAllocatorIS1_EEE12getAllocatorEv@Base 3.2.1
 _ZNK8casacore13BaseAllocatorINS_10MFrequencyENS_16AlignedAllocatorIS1_Lm32EEEE12getAllocatorEv@Base 3.2.1
 _ZNK8casacore13BaseAllocatorINS_10MVPositionENS_15NewDelAllocatorIS1_EEE12getAllocatorEv@Base 3.2.1
 _ZNK8casacore13BaseAllocatorINS_10MVPositionENS_16AlignedAllocatorIS1_Lm32EEEE12getAllocatorEv@Base 3.2.1
 _ZNK8casacore13BaseAllocatorINS_16RORecordFieldPtrIdEENS_15NewDelAllocatorIS2_EEE12getAllocatorEv@Base 3.2.1
 _ZNK8casacore13BaseAllocatorINS_16RORecordFieldPtrIdEENS_16AlignedAllocatorIS2_Lm32EEEE12getAllocatorEv@Base 3.2.1
 _ZNK8casacore13BaseAllocatorINS_4UnitENS_15NewDelAllocatorIS1_EEE12getAllocatorEv@Base 3.2.1
 _ZNK8casacore13BaseAllocatorINS_4UnitENS_16AlignedAllocatorIS1_Lm32EEEE12getAllocatorEv@Base 3.2.1
 _ZNK8casacore13BaseAllocatorINS_6VectorIdEENS_15NewDelAllocatorIS2_EEE12getAllocatorEv@Base 3.2.1
 _ZNK8casacore13BaseAllocatorINS_6VectorIdEENS_16AlignedAllocatorIS2_Lm32EEEE12getAllocatorEv@Base 3.2.1
 _ZNK8casacore13BaseAllocatorINS_7QuantumIdEENS_15NewDelAllocatorIS2_EEE12getAllocatorEv@Base 3.2.1
 _ZNK8casacore13BaseAllocatorINS_7QuantumIdEENS_16AlignedAllocatorIS2_Lm32EEEE12getAllocatorEv@Base 3.2.1
 _ZNK8casacore13BaseAllocatorINS_8AutoDiffIdEENS_15NewDelAllocatorIS2_EEE12getAllocatorEv@Base 3.2.1
 _ZNK8casacore13BaseAllocatorINS_8AutoDiffIdEENS_16AlignedAllocatorIS2_Lm32EEEE12getAllocatorEv@Base 3.2.1
 _ZNK8casacore13BaseAllocatorINS_9MPositionENS_15NewDelAllocatorIS1_EEE12getAllocatorEv@Base 3.2.1
 _ZNK8casacore13BaseAllocatorINS_9MPositionENS_16AlignedAllocatorIS1_Lm32EEEE12getAllocatorEv@Base 3.2.1
 _ZNK8casacore13BaseAllocatorIPNS_6SlicerENS_15NewDelAllocatorIS2_EEE12getAllocatorEv@Base 3.2.1
 _ZNK8casacore13BaseAllocatorIPNS_6SlicerENS_16AlignedAllocatorIS2_Lm32EEEE12getAllocatorEv@Base 3.2.1
 _ZNK8casacore13MeasureHolder10asMDopplerEv@Base 3.2.1
 _ZNK8casacore13MeasureHolder10isMDopplerEv@Base 3.2.1
 _ZNK8casacore13MeasureHolder11asMBaselineEv@Base 3.2.1
 _ZNK8casacore13MeasureHolder11asMPositionEv@Base 3.2.1
 _ZNK8casacore13MeasureHolder11isMBaselineEv@Base 3.2.1
 _ZNK8casacore13MeasureHolder11isMPositionEv@Base 3.2.1
 _ZNK8casacore13MeasureHolder12asMDirectionEv@Base 3.2.1
 _ZNK8casacore13MeasureHolder12asMFrequencyEv@Base 3.2.1
 _ZNK8casacore13MeasureHolder12isMDirectionEv@Base 3.2.1
 _ZNK8casacore13MeasureHolder12isMFrequencyEv@Base 3.2.1
 _ZNK8casacore13MeasureHolder16asMEarthMagneticEv@Base 3.2.1
 _ZNK8casacore13MeasureHolder16isMEarthMagneticEv@Base 3.2.1
 _ZNK8casacore13MeasureHolder17asMRadialVelocityEv@Base 3.2.1
 _ZNK8casacore13MeasureHolder17isMRadialVelocityEv@Base 3.2.1
 _ZNK8casacore13MeasureHolder5getMVEj@Base 3.2.1
 _ZNK8casacore13MeasureHolder5identEv@Base 3.2.1
 _ZNK8casacore13MeasureHolder6asMuvwEv@Base 3.2.1
 _ZNK8casacore13MeasureHolder6isMuvwEv@Base 3.2.1
 _ZNK8casacore13MeasureHolder6toTypeERNS_6StringERNS_15RecordInterfaceE@Base 3.2.1
 _ZNK8casacore13MeasureHolder7isEmptyEv@Base 3.2.1
 _ZNK8casacore13MeasureHolder7putTypeERNS_6StringERNS_15RecordInterfaceE@Base 3.2.1
 _ZNK8casacore13MeasureHolder8asMEpochEv@Base 3.2.1
 _ZNK8casacore13MeasureHolder8isMEpochEv@Base 3.2.1
 _ZNK8casacore13MeasureHolder8toRecordERNS_15RecordInterfaceE@Base 3.2.1
 _ZNK8casacore13MeasureHolder8toRecordERNS_6StringERNS_15RecordInterfaceE@Base 3.2.1
 _ZNK8casacore13MeasureHolder9asMeasureEv@Base 3.2.1
 _ZNK8casacore13MeasureHolder9isMeasureEv@Base 3.2.1
 _ZNK8casacore13TableMeasType4typeEv@Base 3.2.1
 _ZNK8casacore13TableMeasType7refCodeERKNS_6StringE@Base 3.2.1
 _ZNK8casacore13TableMeasType7refTypeEj@Base 3.2.1
 _ZNK8casacore14MEarthMagnetic10checkTypesEv@Base 3.2.1
 _ZNK8casacore14MEarthMagnetic12getRefStringEv@Base 3.2.1
 _ZNK8casacore14MEarthMagnetic14getDefaultTypeEv@Base 3.2.1
 _ZNK8casacore14MEarthMagnetic3getERKNS_4UnitE@Base 3.2.1
 _ZNK8casacore14MEarthMagnetic4typeEv@Base 3.2.1
 _ZNK8casacore14MEarthMagnetic5cloneEv@Base 3.2.1
 _ZNK8casacore14MEarthMagnetic6tellMeEv@Base 3.2.1
 _ZNK8casacore14MEarthMagnetic7isModelEv@Base 3.2.1
 _ZNK8casacore14MEarthMagnetic8allTypesERiS1_RPKj@Base 3.2.1
 _ZNK8casacore14MEarthMagnetic8getAngleERKNS_4UnitE@Base 3.2.1
 _ZNK8casacore14MEarthMagnetic8getAngleEv@Base 3.2.1
 _ZNK8casacore15MRadialVelocity10checkTypesEv@Base 3.2.1
 _ZNK8casacore15MRadialVelocity12getRefStringEv@Base 3.2.1
 _ZNK8casacore15MRadialVelocity14getDefaultTypeEv@Base 3.2.1
 _ZNK8casacore15MRadialVelocity3getERKNS_4UnitE@Base 3.2.1
 _ZNK8casacore15MRadialVelocity4typeEv@Base 3.2.1
 _ZNK8casacore15MRadialVelocity5cloneEv@Base 3.2.1
 _ZNK8casacore15MRadialVelocity6tellMeEv@Base 3.2.1
 _ZNK8casacore15MRadialVelocity8allTypesERiS1_RPKj@Base 3.2.1
 _ZNK8casacore15ParAngleMachine8initConvEv@Base 3.2.1
 _ZNK8casacore15ParAngleMachine8posAngleERKNS_6VectorIdEE@Base 3.2.1
 _ZNK8casacore15ParAngleMachine8posAngleERKNS_7QuantumINS_6VectorIdEEEE@Base 3.2.1
 _ZNK8casacore15ParAngleMachine8posAngleERKNS_7QuantumIdEE@Base 3.2.1
 _ZNK8casacore15ParAngleMachine8posAngleERKd@Base 3.2.1
 _ZNK8casacore15ParAngleMachine9calcAngleEd@Base 3.2.1
 _ZNK8casacore15ParAngleMachineclERKNS_6MEpochE@Base 3.2.1
 _ZNK8casacore15ParAngleMachineclERKNS_6VectorINS_6MEpochEEE@Base 3.2.1
 _ZNK8casacore15ParAngleMachineclERKNS_6VectorINS_7MVEpochEEE@Base 3.2.1
 _ZNK8casacore15ParAngleMachineclERKNS_6VectorIdEE@Base 3.2.1
 _ZNK8casacore15ParAngleMachineclERKNS_7MVEpochE@Base 3.2.1
 _ZNK8casacore15ParAngleMachineclERKNS_7QuantumINS_6VectorIdEEEE@Base 3.2.1
 _ZNK8casacore15ParAngleMachineclERKNS_7QuantumIdEE@Base 3.2.1
 _ZNK8casacore15ParAngleMachineclERKd@Base 3.2.1
 _ZNK8casacore15PolynomialParamINS_8AutoDiffIdEEE4nameEv@Base 3.2.1
 _ZNK8casacore15PolynomialParamIdE4nameEv@Base 3.2.1
 _ZNK8casacore15TableMeasColumn10columnNameEv@Base 3.2.1
 _ZNK8casacore15TableMeasColumn11throwIfNullEv@Base 3.2.1
 _ZNK8casacore15TableMeasColumn5tableEv@Base 3.2.1
 _ZNK8casacore15TableMeasColumn8isScalarEv@Base 3.2.1
 _ZNK8casacore15TableMeasColumn9isDefinedEj@Base 3.2.1
 _ZNK8casacore15VelocityMachine15getDopplerUnitsEv@Base 3.2.1
 _ZNK8casacore15VelocityMachine16getRestFrequencyEv@Base 3.2.1
 _ZNK8casacore15VelocityMachine17getFrequencyUnitsEv@Base 3.2.1
 _ZNK8casacore15VelocityMachine19getDopplerReferenceEv@Base 3.2.1
 _ZNK8casacore15VelocityMachine21getFrequencyReferenceEv@Base 3.2.1
 _ZNK8casacore15VelocityMachine22getConversionReferenceEv@Base 3.2.1
 _ZNK8casacore16TableMeasRefDesc7cur2tabEj@Base 3.2.1
 _ZNK8casacore16TableMeasRefDesc7tab2curEj@Base 3.2.1
 _ZNK8casacore16TableQuantumDesc11checkColumnERKNS_9TableDescE@Base 3.2.1
 _ZNK8casacore16TableQuantumDesc16checkUnitsColumnERKNS_9TableDescE@Base 3.2.1
 _ZNK8casacore17Allocator_private17BulkAllocatorImplINS_17new_del_allocatorINS_10MDirectionEEEE16allocator_typeidEv@Base 3.2.1
 _ZNK8casacore17Allocator_private17BulkAllocatorImplINS_17new_del_allocatorINS_10MFrequencyEEEE16allocator_typeidEv@Base 3.2.1
 _ZNK8casacore17Allocator_private17BulkAllocatorImplINS_17new_del_allocatorINS_10MVPositionEEEE16allocator_typeidEv@Base 3.2.1
 _ZNK8casacore17Allocator_private17BulkAllocatorImplINS_17new_del_allocatorINS_16RORecordFieldPtrIdEEEEE16allocator_typeidEv@Base 3.2.1
 _ZNK8casacore17Allocator_private17BulkAllocatorImplINS_17new_del_allocatorINS_4UnitEEEE16allocator_typeidEv@Base 3.2.1
 _ZNK8casacore17Allocator_private17BulkAllocatorImplINS_17new_del_allocatorINS_6VectorIdEEEEE16allocator_typeidEv@Base 3.2.1
 _ZNK8casacore17Allocator_private17BulkAllocatorImplINS_17new_del_allocatorINS_7QuantumIdEEEEE16allocator_typeidEv@Base 3.2.1
 _ZNK8casacore17Allocator_private17BulkAllocatorImplINS_17new_del_allocatorINS_8AutoDiffIdEEEEE16allocator_typeidEv@Base 3.2.1
 _ZNK8casacore17Allocator_private17BulkAllocatorImplINS_17new_del_allocatorINS_9MPositionEEEE16allocator_typeidEv@Base 3.2.1
 _ZNK8casacore17Allocator_private17BulkAllocatorImplINS_17new_del_allocatorIPNS_6SlicerEEEE16allocator_typeidEv@Base 3.2.1
 _ZNK8casacore17Allocator_private17BulkAllocatorImplINS_18casacore_allocatorINS_10MDirectionELm32EEEE16allocator_typeidEv@Base 3.2.1
 _ZNK8casacore17Allocator_private17BulkAllocatorImplINS_18casacore_allocatorINS_10MFrequencyELm32EEEE16allocator_typeidEv@Base 3.2.1
 _ZNK8casacore17Allocator_private17BulkAllocatorImplINS_18casacore_allocatorINS_10MVPositionELm32EEEE16allocator_typeidEv@Base 3.2.1
 _ZNK8casacore17Allocator_private17BulkAllocatorImplINS_18casacore_allocatorINS_16RORecordFieldPtrIdEELm32EEEE16allocator_typeidEv@Base 3.2.1
 _ZNK8casacore17Allocator_private17BulkAllocatorImplINS_18casacore_allocatorINS_4UnitELm32EEEE16allocator_typeidEv@Base 3.2.1
 _ZNK8casacore17Allocator_private17BulkAllocatorImplINS_18casacore_allocatorINS_6VectorIdEELm32EEEE16allocator_typeidEv@Base 3.2.1
 _ZNK8casacore17Allocator_private17BulkAllocatorImplINS_18casacore_allocatorINS_7QuantumIdEELm32EEEE16allocator_typeidEv@Base 3.2.1
 _ZNK8casacore17Allocator_private17BulkAllocatorImplINS_18casacore_allocatorINS_8AutoDiffIdEELm32EEEE16allocator_typeidEv@Base 3.2.1
 _ZNK8casacore17Allocator_private17BulkAllocatorImplINS_18casacore_allocatorINS_9MPositionELm32EEEE16allocator_typeidEv@Base 3.2.1
 _ZNK8casacore17Allocator_private17BulkAllocatorImplINS_18casacore_allocatorIPNS_6SlicerELm32EEEE16allocator_typeidEv@Base 3.2.1
 _ZNK8casacore17Allocator_private17BulkAllocatorImplINS_18casacore_allocatorIPNS_9MeasValueELm32EEEE16allocator_typeidEv@Base 3.2.1
 _ZNK8casacore17Allocator_private17BulkAllocatorImplINS_18casacore_allocatorIiLm32EEEE16allocator_typeidEv@Base 3.2.1
 _ZNK8casacore17Allocator_private17BulkAllocatorImplINS_18casacore_allocatorIjLm32EEEE16allocator_typeidEv@Base 3.2.1
 _ZNK8casacore17TableMeasDescBase5cloneEv@Base 3.2.1
 _ZNK8casacore18TableMeasValueDesc11checkColumnERKNS_9TableDescE@Base 3.2.1
 _ZNK8casacore19TableMeasOffsetDesc9getOffsetEv@Base 3.2.1
 _ZNK8casacore4Muvw10checkTypesEv@Base 3.2.1
 _ZNK8casacore4Muvw12getRefStringEv@Base 3.2.1
 _ZNK8casacore4Muvw14getDefaultTypeEv@Base 3.2.1
 _ZNK8casacore4Muvw3getERKNS_4UnitE@Base 3.2.1
 _ZNK8casacore4Muvw4typeEv@Base 3.2.1
 _ZNK8casacore4Muvw5cloneEv@Base 3.2.1
 _ZNK8casacore4Muvw6tellMeEv@Base 3.2.1
 _ZNK8casacore4Muvw8allTypesERiS1_RPKj@Base 3.2.1
 _ZNK8casacore4Muvw8getAngleERKNS_4UnitE@Base 3.2.1
 _ZNK8casacore4Muvw8getAngleEv@Base 3.2.1
 _ZNK8casacore5ArrayINS_10MDirectionEE10getSectionERKNS_6SlicerE@Base 3.2.1
 _ZNK8casacore5ArrayINS_10MDirectionEE11freeStorageERPKS1_b@Base 3.2.1
 _ZNK8casacore5ArrayINS_10MDirectionEE11getVStorageERb@Base 3.2.1
 _ZNK8casacore5ArrayINS_10MDirectionEE12freeVStorageERPKvb@Base 3.2.1
 _ZNK8casacore5ArrayINS_10MDirectionEE12makeIteratorEj@Base 3.2.1
 _ZNK8casacore5ArrayINS_10MDirectionEE18nonNewDelAllocatorEv@Base 3.2.1
 _ZNK8casacore5ArrayINS_10MDirectionEE2okEv@Base 3.2.1
 _ZNK8casacore5ArrayINS_10MDirectionEE9makeArrayEv@Base 3.2.1
 _ZNK8casacore5ArrayINS_10MFrequencyEE10getSectionERKNS_6SlicerE@Base 3.2.1
 _ZNK8casacore5ArrayINS_10MFrequencyEE11freeStorageERPKS1_b@Base 3.2.1
 _ZNK8casacore5ArrayINS_10MFrequencyEE11getVStorageERb@Base 3.2.1
 _ZNK8casacore5ArrayINS_10MFrequencyEE12freeVStorageERPKvb@Base 3.2.1
 _ZNK8casacore5ArrayINS_10MFrequencyEE12makeIteratorEj@Base 3.2.1
 _ZNK8casacore5ArrayINS_10MFrequencyEE18nonNewDelAllocatorEv@Base 3.2.1
 _ZNK8casacore5ArrayINS_10MFrequencyEE2okEv@Base 3.2.1
 _ZNK8casacore5ArrayINS_10MFrequencyEE9makeArrayEv@Base 3.2.1
 _ZNK8casacore5ArrayINS_10MVPositionEE10getSectionERKNS_6SlicerE@Base 3.2.1
 _ZNK8casacore5ArrayINS_10MVPositionEE11freeStorageERPKS1_b@Base 3.2.1
 _ZNK8casacore5ArrayINS_10MVPositionEE11getVStorageERb@Base 3.2.1
 _ZNK8casacore5ArrayINS_10MVPositionEE12freeVStorageERPKvb@Base 3.2.1
 _ZNK8casacore5ArrayINS_10MVPositionEE12makeIteratorEj@Base 3.2.1
 _ZNK8casacore5ArrayINS_10MVPositionEE18nonNewDelAllocatorEv@Base 3.2.1
 _ZNK8casacore5ArrayINS_10MVPositionEE2okEv@Base 3.2.1
 _ZNK8casacore5ArrayINS_10MVPositionEE9makeArrayEv@Base 3.2.1
 _ZNK8casacore5ArrayINS_16RORecordFieldPtrIdEEE10getSectionERKNS_6SlicerE@Base 3.2.1
 _ZNK8casacore5ArrayINS_16RORecordFieldPtrIdEEE11freeStorageERPKS2_b@Base 3.2.1
 _ZNK8casacore5ArrayINS_16RORecordFieldPtrIdEEE11getVStorageERb@Base 3.2.1
 _ZNK8casacore5ArrayINS_16RORecordFieldPtrIdEEE12freeVStorageERPKvb@Base 3.2.1
 _ZNK8casacore5ArrayINS_16RORecordFieldPtrIdEEE12makeIteratorEj@Base 3.2.1
 _ZNK8casacore5ArrayINS_16RORecordFieldPtrIdEEE18nonNewDelAllocatorEv@Base 3.2.1
 _ZNK8casacore5ArrayINS_16RORecordFieldPtrIdEEE2okEv@Base 3.2.1
 _ZNK8casacore5ArrayINS_16RORecordFieldPtrIdEEE9makeArrayEv@Base 3.2.1
 _ZNK8casacore5ArrayINS_4UnitEE10getSectionERKNS_6SlicerE@Base 3.2.1
 _ZNK8casacore5ArrayINS_4UnitEE11freeStorageERPKS1_b@Base 3.2.1
 _ZNK8casacore5ArrayINS_4UnitEE11getVStorageERb@Base 3.2.1
 _ZNK8casacore5ArrayINS_4UnitEE12freeVStorageERPKvb@Base 3.2.1
 _ZNK8casacore5ArrayINS_4UnitEE12makeIteratorEj@Base 3.2.1
 _ZNK8casacore5ArrayINS_4UnitEE18nonNewDelAllocatorEv@Base 3.2.1
 _ZNK8casacore5ArrayINS_4UnitEE2okEv@Base 3.2.1
 _ZNK8casacore5ArrayINS_4UnitEE9makeArrayEv@Base 3.2.1
 _ZNK8casacore5ArrayINS_6VectorIdEEE10getSectionERKNS_6SlicerE@Base 3.2.1
 _ZNK8casacore5ArrayINS_6VectorIdEEE11freeStorageERPKS2_b@Base 3.2.1
 _ZNK8casacore5ArrayINS_6VectorIdEEE11getVStorageERb@Base 3.2.1
 _ZNK8casacore5ArrayINS_6VectorIdEEE12freeVStorageERPKvb@Base 3.2.1
 _ZNK8casacore5ArrayINS_6VectorIdEEE12makeIteratorEj@Base 3.2.1
 _ZNK8casacore5ArrayINS_6VectorIdEEE18nonNewDelAllocatorEv@Base 3.2.1
 _ZNK8casacore5ArrayINS_6VectorIdEEE2okEv@Base 3.2.1
 _ZNK8casacore5ArrayINS_6VectorIdEEE9makeArrayEv@Base 3.2.1
 _ZNK8casacore5ArrayINS_7QuantumIdEEE10getSectionERKNS_6SlicerE@Base 3.2.1
 _ZNK8casacore5ArrayINS_7QuantumIdEEE10getStorageERb@Base 3.2.1
 _ZNK8casacore5ArrayINS_7QuantumIdEEE11freeStorageERPKS2_b@Base 3.2.1
 _ZNK8casacore5ArrayINS_7QuantumIdEEE11getVStorageERb@Base 3.2.1
 _ZNK8casacore5ArrayINS_7QuantumIdEEE12freeVStorageERPKvb@Base 3.2.1
 _ZNK8casacore5ArrayINS_7QuantumIdEEE12makeIteratorEj@Base 3.2.1
 _ZNK8casacore5ArrayINS_7QuantumIdEEE13addDegenerateEj@Base 3.2.1
 _ZNK8casacore5ArrayINS_7QuantumIdEEE13nonDegenerateERKNS_9IPositionE@Base 3.2.1
 _ZNK8casacore5ArrayINS_7QuantumIdEEE13nonDegenerateEjb@Base 3.2.1
 _ZNK8casacore5ArrayINS_7QuantumIdEEE15BaseIteratorSTLeqERKS4_@Base 3.2.1
 _ZNK8casacore5ArrayINS_7QuantumIdEEE15BaseIteratorSTLneERKS4_@Base 3.2.1
 _ZNK8casacore5ArrayINS_7QuantumIdEEE16ConstIteratorSTL3posEv@Base 3.2.1
 _ZNK8casacore5ArrayINS_7QuantumIdEEE16ConstIteratorSTLdeEv@Base 3.2.1
 _ZNK8casacore5ArrayINS_7QuantumIdEEE18nonNewDelAllocatorEv@Base 3.2.1
 _ZNK8casacore5ArrayINS_7QuantumIdEEE2okEv@Base 3.2.1
 _ZNK8casacore5ArrayINS_7QuantumIdEEE3endEv@Base 3.2.1
 _ZNK8casacore5ArrayINS_7QuantumIdEEE4cendEv@Base 3.2.1
 _ZNK8casacore5ArrayINS_7QuantumIdEEE4copyENS_15ArrayInitPolicyE@Base 3.2.1
 _ZNK8casacore5ArrayINS_7QuantumIdEEE4copyENS_15ArrayInitPolicyEPNS_17Allocator_private13BulkAllocatorIS2_EE@Base 3.2.1
 _ZNK8casacore5ArrayINS_7QuantumIdEEE4dataEv@Base 3.2.1
 _ZNK8casacore5ArrayINS_7QuantumIdEEE5beginEv@Base 3.2.1
 _ZNK8casacore5ArrayINS_7QuantumIdEEE5nrefsEv@Base 3.2.1
 _ZNK8casacore5ArrayINS_7QuantumIdEEE6cbeginEv@Base 3.2.1
 _ZNK8casacore5ArrayINS_7QuantumIdEEE6reformERKNS_9IPositionE@Base 3.2.1
 _ZNK8casacore5ArrayINS_7QuantumIdEEE7conformERKNS_11MaskedArrayIS2_EE@Base 3.2.1
 _ZNK8casacore5ArrayINS_7QuantumIdEEE7conformERKS3_@Base 3.2.1
 _ZNK8casacore5ArrayINS_7QuantumIdEEE8capacityEv@Base 3.2.1
 _ZNK8casacore5ArrayINS_7QuantumIdEEE8tovectorEv@Base 3.2.1
 _ZNK8casacore5ArrayINS_7QuantumIdEEE9diagonalsEjx@Base 3.2.1
 _ZNK8casacore5ArrayINS_7QuantumIdEEE9makeArrayEv@Base 3.2.1
 _ZNK8casacore5ArrayINS_7QuantumIdEEEclERKNS0_IbEE@Base 3.2.1
 _ZNK8casacore5ArrayINS_7QuantumIdEEEclERKNS_11MaskedArrayIbEE@Base 3.2.1
 _ZNK8casacore5ArrayINS_7QuantumIdEEEclERKNS_6SlicerE@Base 3.2.1
 _ZNK8casacore5ArrayINS_7QuantumIdEEEclERKNS_9IPositionE@Base 3.2.1
 _ZNK8casacore5ArrayINS_7QuantumIdEEEclERKNS_9IPositionES6_@Base 3.2.1
 _ZNK8casacore5ArrayINS_7QuantumIdEEEclERKNS_9IPositionES6_S6_@Base 3.2.1
 _ZNK8casacore5ArrayINS_7QuantumIdEEEixEm@Base 3.2.1
 _ZNK8casacore5ArrayINS_8AutoDiffIdEEE10getSectionERKNS_6SlicerE@Base 3.2.1
 _ZNK8casacore5ArrayINS_8AutoDiffIdEEE11freeStorageERPKS2_b@Base 3.2.1
 _ZNK8casacore5ArrayINS_8AutoDiffIdEEE11getVStorageERb@Base 3.2.1
 _ZNK8casacore5ArrayINS_8AutoDiffIdEEE12freeVStorageERPKvb@Base 3.2.1
 _ZNK8casacore5ArrayINS_8AutoDiffIdEEE12makeIteratorEj@Base 3.2.1
 _ZNK8casacore5ArrayINS_8AutoDiffIdEEE18nonNewDelAllocatorEv@Base 3.2.1
 _ZNK8casacore5ArrayINS_8AutoDiffIdEEE2okEv@Base 3.2.1
 _ZNK8casacore5ArrayINS_8AutoDiffIdEEE9makeArrayEv@Base 3.2.1
 _ZNK8casacore5ArrayINS_9MPositionEE10getSectionERKNS_6SlicerE@Base 3.2.1
 _ZNK8casacore5ArrayINS_9MPositionEE11freeStorageERPKS1_b@Base 3.2.1
 _ZNK8casacore5ArrayINS_9MPositionEE11getVStorageERb@Base 3.2.1
 _ZNK8casacore5ArrayINS_9MPositionEE12freeVStorageERPKvb@Base 3.2.1
 _ZNK8casacore5ArrayINS_9MPositionEE12makeIteratorEj@Base 3.2.1
 _ZNK8casacore5ArrayINS_9MPositionEE18nonNewDelAllocatorEv@Base 3.2.1
 _ZNK8casacore5ArrayINS_9MPositionEE2okEv@Base 3.2.1
 _ZNK8casacore5ArrayINS_9MPositionEE9makeArrayEv@Base 3.2.1
 _ZNK8casacore6MEpoch10checkTypesEv@Base 3.2.1
 _ZNK8casacore6MEpoch12getRefStringEv@Base 3.2.1
 _ZNK8casacore6MEpoch14getDefaultTypeEv@Base 3.2.1
 _ZNK8casacore6MEpoch3getERKNS_4UnitE@Base 3.2.1
 _ZNK8casacore6MEpoch4typeEv@Base 3.2.1
 _ZNK8casacore6MEpoch5cloneEv@Base 3.2.1
 _ZNK8casacore6MEpoch6tellMeEv@Base 3.2.1
 _ZNK8casacore6MEpoch8allTypesERiS1_RPKj@Base 3.2.1
 _ZNK8casacore6String8containsEPKc@Base 3.2.1
 _ZNK8casacore6VectorINS0_IdEEE2okEv@Base 3.2.1
 _ZNK8casacore6VectorINS_10MDirectionEE2okEv@Base 3.2.1
 _ZNK8casacore6VectorINS_10MFrequencyEE2okEv@Base 3.2.1
 _ZNK8casacore6VectorINS_10MVPositionEE2okEv@Base 3.2.1
 _ZNK8casacore6VectorINS_16RORecordFieldPtrIdEEE2okEv@Base 3.2.1
 _ZNK8casacore6VectorINS_4UnitEE2okEv@Base 3.2.1
 _ZNK8casacore6VectorINS_7QuantumIdEEE2okEv@Base 3.2.1
 _ZNK8casacore6VectorINS_8AutoDiffIdEEE2okEv@Base 3.2.1
 _ZNK8casacore6VectorINS_9MPositionEE2okEv@Base 3.2.1
 _ZNK8casacore7MeasRefINS_10MDirectionEE5emptyEv@Base 3.2.1
 _ZNK8casacore7MeasRefINS_10MDirectionEE5printERSo@Base 3.2.1
 _ZNK8casacore7MeasRefINS_10MDirectionEE6offsetEv@Base 3.2.1
 _ZNK8casacore7MeasRefINS_10MDirectionEE7getTypeEv@Base 3.2.1
 _ZNK8casacore7MeasRefINS_10MFrequencyEE5emptyEv@Base 3.2.1
 _ZNK8casacore7MeasRefINS_10MFrequencyEE5printERSo@Base 3.2.1
 _ZNK8casacore7MeasRefINS_10MFrequencyEE6offsetEv@Base 3.2.1
 _ZNK8casacore7MeasRefINS_10MFrequencyEE7getTypeEv@Base 3.2.1
 _ZNK8casacore7MeasRefINS_14MEarthMagneticEE5emptyEv@Base 3.2.1
 _ZNK8casacore7MeasRefINS_14MEarthMagneticEE5printERSo@Base 3.2.1
 _ZNK8casacore7MeasRefINS_14MEarthMagneticEE6offsetEv@Base 3.2.1
 _ZNK8casacore7MeasRefINS_14MEarthMagneticEE7getTypeEv@Base 3.2.1
 _ZNK8casacore7MeasRefINS_15MRadialVelocityEE5emptyEv@Base 3.2.1
 _ZNK8casacore7MeasRefINS_15MRadialVelocityEE5printERSo@Base 3.2.1
 _ZNK8casacore7MeasRefINS_15MRadialVelocityEE6offsetEv@Base 3.2.1
 _ZNK8casacore7MeasRefINS_15MRadialVelocityEE7getTypeEv@Base 3.2.1
 _ZNK8casacore7MeasRefINS_4MuvwEE5emptyEv@Base 3.2.1
 _ZNK8casacore7MeasRefINS_4MuvwEE5printERSo@Base 3.2.1
 _ZNK8casacore7MeasRefINS_4MuvwEE6offsetEv@Base 3.2.1
 _ZNK8casacore7MeasRefINS_4MuvwEE7getTypeEv@Base 3.2.1
 _ZNK8casacore7MeasRefINS_6MEpochEE5emptyEv@Base 3.2.1
 _ZNK8casacore7MeasRefINS_6MEpochEE5printERSo@Base 3.2.1
 _ZNK8casacore7MeasRefINS_6MEpochEE6offsetEv@Base 3.2.1
 _ZNK8casacore7MeasRefINS_6MEpochEE7getTypeEv@Base 3.2.1
 _ZNK8casacore7MeasRefINS_8MDopplerEE5emptyEv@Base 3.2.1
 _ZNK8casacore7MeasRefINS_8MDopplerEE5printERSo@Base 3.2.1
 _ZNK8casacore7MeasRefINS_8MDopplerEE6offsetEv@Base 3.2.1
 _ZNK8casacore7MeasRefINS_8MDopplerEE7getTypeEv@Base 3.2.1
 _ZNK8casacore7MeasRefINS_9MBaselineEE5emptyEv@Base 3.2.1
 _ZNK8casacore7MeasRefINS_9MBaselineEE5printERSo@Base 3.2.1
 _ZNK8casacore7MeasRefINS_9MBaselineEE6offsetEv@Base 3.2.1
 _ZNK8casacore7MeasRefINS_9MBaselineEE7getTypeEv@Base 3.2.1
 _ZNK8casacore7MeasRefINS_9MPositionEE5emptyEv@Base 3.2.1
 _ZNK8casacore7MeasRefINS_9MPositionEE5printERSo@Base 3.2.1
 _ZNK8casacore7MeasRefINS_9MPositionEE6offsetEv@Base 3.2.1
 _ZNK8casacore7MeasRefINS_9MPositionEE7getTypeEv@Base 3.2.1
 _ZNK8casacore7Measure7isModelEv@Base 3.2.1
 _ZNK8casacore7Measure8allTypesERiS1_RPKj@Base 3.2.1
 _ZNK8casacore7QuantumINS_6VectorIdEEE11getFullUnitEv@Base 3.2.1
 _ZNK8casacore7QuantumINS_6VectorIdEEE4typeEv@Base 3.2.1
 _ZNK8casacore7QuantumINS_6VectorIdEEE5cloneEv@Base 3.2.1
 _ZNK8casacore7QuantumINS_6VectorIdEEE5printERSo@Base 3.2.1
 _ZNK8casacore8AppState8dataPathB5cxx11Ev@Base 3.2.1
 _ZNK8casacore8FunctionINS_8AutoDiffIdEES2_E10cloneNonADEv@Base 3.2.1
 _ZNK8casacore8FunctionINS_8AutoDiffIdEES2_E4nameEv@Base 3.2.1
 _ZNK8casacore8FunctionINS_8AutoDiffIdEES2_E7cloneADEv@Base 3.2.1
 _ZNK8casacore8FunctionINS_8AutoDiffIdEES2_E7getModeERNS_15RecordInterfaceE@Base 3.2.1
 _ZNK8casacore8FunctionINS_8AutoDiffIdEES2_E7hasModeEv@Base 3.2.1
 _ZNK8casacore8FunctionINS_8AutoDiffIdEES2_EclEPKd@Base 3.2.1
 _ZNK8casacore8FunctionINS_8AutoDiffIdEES2_EclERKNS_6VectorIdEE@Base 3.2.1
 _ZNK8casacore8FunctionINS_8AutoDiffIdEES2_EclERKd@Base 3.2.1
 _ZNK8casacore8FunctionINS_8AutoDiffIdEES2_EclERKdS5_@Base 3.2.1
 _ZNK8casacore8FunctionINS_8AutoDiffIdEES2_EclERKdS5_S5_@Base 3.2.1
 _ZNK8casacore8FunctionINS_8AutoDiffIdEES2_EclEv@Base 3.2.1
 _ZNK8casacore8FunctionIddE10cloneNonADEv@Base 3.2.1
 _ZNK8casacore8FunctionIddE4nameEv@Base 3.2.1
 _ZNK8casacore8FunctionIddE7cloneADEv@Base 3.2.1
 _ZNK8casacore8FunctionIddE7getModeERNS_15RecordInterfaceE@Base 3.2.1
 _ZNK8casacore8FunctionIddE7hasModeEv@Base 3.2.1
 _ZNK8casacore8FunctionIddEclEPKd@Base 3.2.1
 _ZNK8casacore8FunctionIddEclERKNS_6VectorIdEE@Base 3.2.1
 _ZNK8casacore8FunctionIddEclERKd@Base 3.2.1
 _ZNK8casacore8FunctionIddEclERKdS3_@Base 3.2.1
 _ZNK8casacore8FunctionIddEclERKdS3_S3_@Base 3.2.1
 _ZNK8casacore8FunctionIddEclEv@Base 3.2.1
 _ZNK8casacore8MDoppler10checkTypesEv@Base 3.2.1
 _ZNK8casacore8MDoppler12getRefStringEv@Base 3.2.1
 _ZNK8casacore8MDoppler14getDefaultTypeEv@Base 3.2.1
 _ZNK8casacore8MDoppler14shiftFrequencyERKNS_6VectorIdEE@Base 3.2.1
 _ZNK8casacore8MDoppler14shiftFrequencyERKNS_7QuantumINS_6VectorIdEEEE@Base 3.2.1
 _ZNK8casacore8MDoppler3getERKNS_4UnitE@Base 3.2.1
 _ZNK8casacore8MDoppler4typeEv@Base 3.2.1
 _ZNK8casacore8MDoppler5cloneEv@Base 3.2.1
 _ZNK8casacore8MDoppler6tellMeEv@Base 3.2.1
 _ZNK8casacore8MDoppler8allTypesERiS1_RPKj@Base 3.2.1
 _ZNK8casacore8MeasBaseINS_10MVBaselineENS_7MeasRefINS_9MBaselineEEEE5printERSo@Base 3.2.1
 _ZNK8casacore8MeasBaseINS_10MVBaselineENS_7MeasRefINS_9MBaselineEEEE6areYouERKNS_6StringE@Base 3.2.1
 _ZNK8casacore8MeasBaseINS_10MVBaselineENS_7MeasRefINS_9MBaselineEEEE7assuredERKNS_6StringE@Base 3.2.1
 _ZNK8casacore8MeasBaseINS_10MVBaselineENS_7MeasRefINS_9MBaselineEEEE7getDataEv@Base 3.2.1
 _ZNK8casacore8MeasBaseINS_10MVBaselineENS_7MeasRefINS_9MBaselineEEEE7getUnitEv@Base 3.2.1
 _ZNK8casacore8MeasBaseINS_10MVBaselineENS_7MeasRefINS_9MBaselineEEEE9getRefPtrEv@Base 3.2.1
 _ZNK8casacore8MeasBaseINS_10MVPositionENS_7MeasRefINS_9MPositionEEEE5printERSo@Base 3.2.1
 _ZNK8casacore8MeasBaseINS_10MVPositionENS_7MeasRefINS_9MPositionEEEE6areYouERKNS_6StringE@Base 3.2.1
 _ZNK8casacore8MeasBaseINS_10MVPositionENS_7MeasRefINS_9MPositionEEEE7assuredERKNS_6StringE@Base 3.2.1
 _ZNK8casacore8MeasBaseINS_10MVPositionENS_7MeasRefINS_9MPositionEEEE7getDataEv@Base 3.2.1
 _ZNK8casacore8MeasBaseINS_10MVPositionENS_7MeasRefINS_9MPositionEEEE7getUnitEv@Base 3.2.1
 _ZNK8casacore8MeasBaseINS_10MVPositionENS_7MeasRefINS_9MPositionEEEE9getRefPtrEv@Base 3.2.1
 _ZNK8casacore8MeasBaseINS_11MVDirectionENS_7MeasRefINS_10MDirectionEEEE5printERSo@Base 3.2.1
 _ZNK8casacore8MeasBaseINS_11MVDirectionENS_7MeasRefINS_10MDirectionEEEE6areYouERKNS_6StringE@Base 3.2.1
 _ZNK8casacore8MeasBaseINS_11MVDirectionENS_7MeasRefINS_10MDirectionEEEE7assuredERKNS_6StringE@Base 3.2.1
 _ZNK8casacore8MeasBaseINS_11MVDirectionENS_7MeasRefINS_10MDirectionEEEE7getDataEv@Base 3.2.1
 _ZNK8casacore8MeasBaseINS_11MVDirectionENS_7MeasRefINS_10MDirectionEEEE7getUnitEv@Base 3.2.1
 _ZNK8casacore8MeasBaseINS_11MVDirectionENS_7MeasRefINS_10MDirectionEEEE9getRefPtrEv@Base 3.2.1
 _ZNK8casacore8MeasBaseINS_11MVFrequencyENS_7MeasRefINS_10MFrequencyEEEE5printERSo@Base 3.2.1
 _ZNK8casacore8MeasBaseINS_11MVFrequencyENS_7MeasRefINS_10MFrequencyEEEE6areYouERKNS_6StringE@Base 3.2.1
 _ZNK8casacore8MeasBaseINS_11MVFrequencyENS_7MeasRefINS_10MFrequencyEEEE7assuredERKNS_6StringE@Base 3.2.1
 _ZNK8casacore8MeasBaseINS_11MVFrequencyENS_7MeasRefINS_10MFrequencyEEEE7getDataEv@Base 3.2.1
 _ZNK8casacore8MeasBaseINS_11MVFrequencyENS_7MeasRefINS_10MFrequencyEEEE7getUnitEv@Base 3.2.1
 _ZNK8casacore8MeasBaseINS_11MVFrequencyENS_7MeasRefINS_10MFrequencyEEEE9getRefPtrEv@Base 3.2.1
 _ZNK8casacore8MeasBaseINS_15MVEarthMagneticENS_7MeasRefINS_14MEarthMagneticEEEE5printERSo@Base 3.2.1
 _ZNK8casacore8MeasBaseINS_15MVEarthMagneticENS_7MeasRefINS_14MEarthMagneticEEEE6areYouERKNS_6StringE@Base 3.2.1
 _ZNK8casacore8MeasBaseINS_15MVEarthMagneticENS_7MeasRefINS_14MEarthMagneticEEEE7assuredERKNS_6StringE@Base 3.2.1
 _ZNK8casacore8MeasBaseINS_15MVEarthMagneticENS_7MeasRefINS_14MEarthMagneticEEEE7getDataEv@Base 3.2.1
 _ZNK8casacore8MeasBaseINS_15MVEarthMagneticENS_7MeasRefINS_14MEarthMagneticEEEE7getUnitEv@Base 3.2.1
 _ZNK8casacore8MeasBaseINS_15MVEarthMagneticENS_7MeasRefINS_14MEarthMagneticEEEE9getRefPtrEv@Base 3.2.1
 _ZNK8casacore8MeasBaseINS_16MVRadialVelocityENS_7MeasRefINS_15MRadialVelocityEEEE5printERSo@Base 3.2.1
 _ZNK8casacore8MeasBaseINS_16MVRadialVelocityENS_7MeasRefINS_15MRadialVelocityEEEE6areYouERKNS_6StringE@Base 3.2.1
 _ZNK8casacore8MeasBaseINS_16MVRadialVelocityENS_7MeasRefINS_15MRadialVelocityEEEE7assuredERKNS_6StringE@Base 3.2.1
 _ZNK8casacore8MeasBaseINS_16MVRadialVelocityENS_7MeasRefINS_15MRadialVelocityEEEE7getDataEv@Base 3.2.1
 _ZNK8casacore8MeasBaseINS_16MVRadialVelocityENS_7MeasRefINS_15MRadialVelocityEEEE7getUnitEv@Base 3.2.1
 _ZNK8casacore8MeasBaseINS_16MVRadialVelocityENS_7MeasRefINS_15MRadialVelocityEEEE9getRefPtrEv@Base 3.2.1
 _ZNK8casacore8MeasBaseINS_5MVuvwENS_7MeasRefINS_4MuvwEEEE5printERSo@Base 3.2.1
 _ZNK8casacore8MeasBaseINS_5MVuvwENS_7MeasRefINS_4MuvwEEEE6areYouERKNS_6StringE@Base 3.2.1
 _ZNK8casacore8MeasBaseINS_5MVuvwENS_7MeasRefINS_4MuvwEEEE7assuredERKNS_6StringE@Base 3.2.1
 _ZNK8casacore8MeasBaseINS_5MVuvwENS_7MeasRefINS_4MuvwEEEE7getDataEv@Base 3.2.1
 _ZNK8casacore8MeasBaseINS_5MVuvwENS_7MeasRefINS_4MuvwEEEE7getUnitEv@Base 3.2.1
 _ZNK8casacore8MeasBaseINS_5MVuvwENS_7MeasRefINS_4MuvwEEEE9getRefPtrEv@Base 3.2.1
 _ZNK8casacore8MeasBaseINS_7MVEpochENS_7MeasRefINS_6MEpochEEEE5printERSo@Base 3.2.1
 _ZNK8casacore8MeasBaseINS_7MVEpochENS_7MeasRefINS_6MEpochEEEE6areYouERKNS_6StringE@Base 3.2.1
 _ZNK8casacore8MeasBaseINS_7MVEpochENS_7MeasRefINS_6MEpochEEEE7assuredERKNS_6StringE@Base 3.2.1
 _ZNK8casacore8MeasBaseINS_7MVEpochENS_7MeasRefINS_6MEpochEEEE7getDataEv@Base 3.2.1
 _ZNK8casacore8MeasBaseINS_7MVEpochENS_7MeasRefINS_6MEpochEEEE7getUnitEv@Base 3.2.1
 _ZNK8casacore8MeasBaseINS_7MVEpochENS_7MeasRefINS_6MEpochEEEE9getRefPtrEv@Base 3.2.1
 _ZNK8casacore8MeasBaseINS_9MVDopplerENS_7MeasRefINS_8MDopplerEEEE5printERSo@Base 3.2.1
 _ZNK8casacore8MeasBaseINS_9MVDopplerENS_7MeasRefINS_8MDopplerEEEE6areYouERKNS_6StringE@Base 3.2.1
 _ZNK8casacore8MeasBaseINS_9MVDopplerENS_7MeasRefINS_8MDopplerEEEE7assuredERKNS_6StringE@Base 3.2.1
 _ZNK8casacore8MeasBaseINS_9MVDopplerENS_7MeasRefINS_8MDopplerEEEE7getDataEv@Base 3.2.1
 _ZNK8casacore8MeasBaseINS_9MVDopplerENS_7MeasRefINS_8MDopplerEEEE7getUnitEv@Base 3.2.1
 _ZNK8casacore8MeasBaseINS_9MVDopplerENS_7MeasRefINS_8MDopplerEEEE9getRefPtrEv@Base 3.2.1
 _ZNK8casacore9AipsError4whatEv@Base 3.2.1
 _ZNK8casacore9MBaseline10checkTypesEv@Base 3.2.1
 _ZNK8casacore9MBaseline12getRefStringEv@Base 3.2.1
 _ZNK8casacore9MBaseline14getDefaultTypeEv@Base 3.2.1
 _ZNK8casacore9MBaseline3getERKNS_4UnitE@Base 3.2.1
 _ZNK8casacore9MBaseline4typeEv@Base 3.2.1
 _ZNK8casacore9MBaseline5cloneEv@Base 3.2.1
 _ZNK8casacore9MBaseline6tellMeEv@Base 3.2.1
 _ZNK8casacore9MBaseline8allTypesERiS1_RPKj@Base 3.2.1
 _ZNK8casacore9MBaseline8getAngleERKNS_4UnitE@Base 3.2.1
 _ZNK8casacore9MBaseline8getAngleEv@Base 3.2.1
 _ZNK8casacore9MPosition10checkTypesEv@Base 3.2.1
 _ZNK8casacore9MPosition12getRefStringEv@Base 3.2.1
 _ZNK8casacore9MPosition14getDefaultTypeEv@Base 3.2.1
 _ZNK8casacore9MPosition3getERKNS_4UnitE@Base 3.2.1
 _ZNK8casacore9MPosition4typeEv@Base 3.2.1
 _ZNK8casacore9MPosition5cloneEv@Base 3.2.1
 _ZNK8casacore9MPosition6tellMeEv@Base 3.2.1
 _ZNK8casacore9MPosition8allTypesERiS1_RPKj@Base 3.2.1
 _ZNK8casacore9MPosition8getAngleERKNS_4UnitE@Base 3.2.1
 _ZNK8casacore9MPosition8getAngleEv@Base 3.2.1
 _ZNK8casacore9MeasComet12hasPosrefsysEv@Base 3.2.1
 _ZNK8casacore9MeasComet14getDiskLongLatEj@Base 3.2.1
 _ZNK8casacore9MeasComet14getRelPositionEj@Base 3.2.1
 _ZNK8casacore9MeasComet16getPosrefsysTypeEv@Base 3.2.1
 _ZNK8casacore9MeasComet3getERNS_10MVPositionEd@Base 3.2.1
 _ZNK8casacore9MeasComet5cloneEv@Base 3.2.1
 _ZNK8casacore9MeasComet6getEndEv@Base 3.2.1
 _ZNK8casacore9MeasComet7getDiskERNS_11MVDirectionEd@Base 3.2.1
 _ZNK8casacore9MeasComet7getNameEv@Base 3.2.1
 _ZNK8casacore9MeasComet7getTopoEv@Base 3.2.1
 _ZNK8casacore9MeasComet7getTypeEv@Base 3.2.1
 _ZNK8casacore9MeasComet8fillMeasEd@Base 3.2.1
 _ZNK8casacore9MeasComet8getStartEv@Base 3.2.1
 _ZNK8casacore9MeasComet9getRadVelERNS_16MVRadialVelocityEd@Base 3.2.1
 _ZNK8casacore9MeasComet9nelementsEv@Base 3.2.1
 _ZNK8casacore9MeasFrame10getAppLongERd@Base 3.2.1
 _ZNK8casacore9MeasFrame11getB1950LatERd@Base 3.2.1
 _ZNK8casacore9MeasFrame11getJ2000LatERd@Base 3.2.1
 _ZNK8casacore9MeasFrame12getB1950LongERd@Base 3.2.1
 _ZNK8casacore9MeasFrame12getCometTypeERj@Base 3.2.1
 _ZNK8casacore9MeasFrame12getJ2000LongERd@Base 3.2.1
 _ZNK8casacore9MeasFrame14radialVelocityEv@Base 3.2.1
 _ZNK8casacore9MeasFrame5cometEv@Base 3.2.1
 _ZNK8casacore9MeasFrame5emptyEv@Base 3.2.1
 _ZNK8casacore9MeasFrame5epochEv@Base 3.2.1
 _ZNK8casacore9MeasFrame5getTTERd@Base 3.2.1
 _ZNK8casacore9MeasFrame6getAppERNS_11MVDirectionE@Base 3.2.1
 _ZNK8casacore9MeasFrame6getLSRERd@Base 3.2.1
 _ZNK8casacore9MeasFrame6getLatERd@Base 3.2.1
 _ZNK8casacore9MeasFrame6getTDBERd@Base 3.2.1
 _ZNK8casacore9MeasFrame6getUT1ERd@Base 3.2.1
 _ZNK8casacore9MeasFrame7getITRFERNS_10MVPositionE@Base 3.2.1
 _ZNK8casacore9MeasFrame7getLASTERd@Base 3.2.1
 _ZNK8casacore9MeasFrame7getLongERd@Base 3.2.1
 _ZNK8casacore9MeasFrame8getB1950ERNS_11MVDirectionE@Base 3.2.1
 _ZNK8casacore9MeasFrame8getCometERNS_10MVPositionE@Base 3.2.1
 _ZNK8casacore9MeasFrame8getJ2000ERNS_11MVDirectionE@Base 3.2.1
 _ZNK8casacore9MeasFrame8getLASTrERd@Base 3.2.1
 _ZNK8casacore9MeasFrame8positionEv@Base 3.2.1
 _ZNK8casacore9MeasFrame9directionEv@Base 3.2.1
 _ZNK8casacore9MeasFrame9getAppLatERd@Base 3.2.1
 _ZNK8casacore9MeasFrame9getLatGeoERd@Base 3.2.1
 _ZNK8casacore9MeasFrame9getRadiusERd@Base 3.2.1
 _ZNK8casacore9MeasFrameeqERKS0_@Base 3.2.1
 _ZNK8casacore9MeasFrameneERKS0_@Base 3.2.1
 _ZNKSt5ctypeIcE8do_widenEc@Base 3.2.1
 _ZNKSt8_Rb_treeIN8casacore6StringESt4pairIKS1_NS0_10CountedPtrINS0_10ColumnDescEEEESt10_Select1stIS7_ESt4lessIS1_ESaIS7_EE4findERS3_@Base 3.2.1
 _ZNSt14__shared_countILN9__gnu_cxx12_Lock_policyE2EEaSERKS2_@Base 3.2.1
 _ZNSt15_Sp_counted_ptrIPN8casacore17TableMeasDescBaseELN9__gnu_cxx12_Lock_policyE2EE10_M_destroyEv@Base 3.2.1
 _ZNSt15_Sp_counted_ptrIPN8casacore17TableMeasDescBaseELN9__gnu_cxx12_Lock_policyE2EE10_M_disposeEv@Base 3.2.1
 _ZNSt15_Sp_counted_ptrIPN8casacore17TableMeasDescBaseELN9__gnu_cxx12_Lock_policyE2EE14_M_get_deleterERKSt9type_info@Base 3.2.1
 _ZNSt15_Sp_counted_ptrIPN8casacore17TableMeasDescBaseELN9__gnu_cxx12_Lock_policyE2EED0Ev@Base 3.2.1
 _ZNSt15_Sp_counted_ptrIPN8casacore17TableMeasDescBaseELN9__gnu_cxx12_Lock_policyE2EED1Ev@Base 3.2.1
 _ZNSt15_Sp_counted_ptrIPN8casacore17TableMeasDescBaseELN9__gnu_cxx12_Lock_policyE2EED2Ev@Base 3.2.1
 _ZNSt15_Sp_counted_ptrIPN8casacore5BlockINS0_10MDirectionEEELN9__gnu_cxx12_Lock_policyE2EE10_M_destroyEv@Base 3.2.1
 _ZNSt15_Sp_counted_ptrIPN8casacore5BlockINS0_10MDirectionEEELN9__gnu_cxx12_Lock_policyE2EE10_M_disposeEv@Base 3.2.1
 _ZNSt15_Sp_counted_ptrIPN8casacore5BlockINS0_10MDirectionEEELN9__gnu_cxx12_Lock_policyE2EE14_M_get_deleterERKSt9type_info@Base 3.2.1
 _ZNSt15_Sp_counted_ptrIPN8casacore5BlockINS0_10MDirectionEEELN9__gnu_cxx12_Lock_policyE2EED0Ev@Base 3.2.1
 _ZNSt15_Sp_counted_ptrIPN8casacore5BlockINS0_10MDirectionEEELN9__gnu_cxx12_Lock_policyE2EED1Ev@Base 3.2.1
 _ZNSt15_Sp_counted_ptrIPN8casacore5BlockINS0_10MDirectionEEELN9__gnu_cxx12_Lock_policyE2EED2Ev@Base 3.2.1
 _ZNSt15_Sp_counted_ptrIPN8casacore5BlockINS0_10MFrequencyEEELN9__gnu_cxx12_Lock_policyE2EE10_M_destroyEv@Base 3.2.1
 _ZNSt15_Sp_counted_ptrIPN8casacore5BlockINS0_10MFrequencyEEELN9__gnu_cxx12_Lock_policyE2EE10_M_disposeEv@Base 3.2.1
 _ZNSt15_Sp_counted_ptrIPN8casacore5BlockINS0_10MFrequencyEEELN9__gnu_cxx12_Lock_policyE2EE14_M_get_deleterERKSt9type_info@Base 3.2.1
 _ZNSt15_Sp_counted_ptrIPN8casacore5BlockINS0_10MFrequencyEEELN9__gnu_cxx12_Lock_policyE2EED0Ev@Base 3.2.1
 _ZNSt15_Sp_counted_ptrIPN8casacore5BlockINS0_10MFrequencyEEELN9__gnu_cxx12_Lock_policyE2EED1Ev@Base 3.2.1
 _ZNSt15_Sp_counted_ptrIPN8casacore5BlockINS0_10MFrequencyEEELN9__gnu_cxx12_Lock_policyE2EED2Ev@Base 3.2.1
 _ZNSt15_Sp_counted_ptrIPN8casacore5BlockINS0_10MVPositionEEELN9__gnu_cxx12_Lock_policyE2EE10_M_destroyEv@Base 3.2.1
 _ZNSt15_Sp_counted_ptrIPN8casacore5BlockINS0_10MVPositionEEELN9__gnu_cxx12_Lock_policyE2EE10_M_disposeEv@Base 3.2.1
 _ZNSt15_Sp_counted_ptrIPN8casacore5BlockINS0_10MVPositionEEELN9__gnu_cxx12_Lock_policyE2EE14_M_get_deleterERKSt9type_info@Base 3.2.1
 _ZNSt15_Sp_counted_ptrIPN8casacore5BlockINS0_10MVPositionEEELN9__gnu_cxx12_Lock_policyE2EED0Ev@Base 3.2.1
 _ZNSt15_Sp_counted_ptrIPN8casacore5BlockINS0_10MVPositionEEELN9__gnu_cxx12_Lock_policyE2EED1Ev@Base 3.2.1
 _ZNSt15_Sp_counted_ptrIPN8casacore5BlockINS0_10MVPositionEEELN9__gnu_cxx12_Lock_policyE2EED2Ev@Base 3.2.1
 _ZNSt15_Sp_counted_ptrIPN8casacore5BlockINS0_16RORecordFieldPtrIdEEEELN9__gnu_cxx12_Lock_policyE2EE10_M_destroyEv@Base 3.2.1
 _ZNSt15_Sp_counted_ptrIPN8casacore5BlockINS0_16RORecordFieldPtrIdEEEELN9__gnu_cxx12_Lock_policyE2EE10_M_disposeEv@Base 3.2.1
 _ZNSt15_Sp_counted_ptrIPN8casacore5BlockINS0_16RORecordFieldPtrIdEEEELN9__gnu_cxx12_Lock_policyE2EE14_M_get_deleterERKSt9type_info@Base 3.2.1
 _ZNSt15_Sp_counted_ptrIPN8casacore5BlockINS0_16RORecordFieldPtrIdEEEELN9__gnu_cxx12_Lock_policyE2EED0Ev@Base 3.2.1
 _ZNSt15_Sp_counted_ptrIPN8casacore5BlockINS0_16RORecordFieldPtrIdEEEELN9__gnu_cxx12_Lock_policyE2EED1Ev@Base 3.2.1
 _ZNSt15_Sp_counted_ptrIPN8casacore5BlockINS0_16RORecordFieldPtrIdEEEELN9__gnu_cxx12_Lock_policyE2EED2Ev@Base 3.2.1
 _ZNSt15_Sp_counted_ptrIPN8casacore5BlockINS0_4UnitEEELN9__gnu_cxx12_Lock_policyE2EE10_M_destroyEv@Base 3.2.1
 _ZNSt15_Sp_counted_ptrIPN8casacore5BlockINS0_4UnitEEELN9__gnu_cxx12_Lock_policyE2EE10_M_disposeEv@Base 3.2.1
 _ZNSt15_Sp_counted_ptrIPN8casacore5BlockINS0_4UnitEEELN9__gnu_cxx12_Lock_policyE2EE14_M_get_deleterERKSt9type_info@Base 3.2.1
 _ZNSt15_Sp_counted_ptrIPN8casacore5BlockINS0_4UnitEEELN9__gnu_cxx12_Lock_policyE2EED0Ev@Base 3.2.1
 _ZNSt15_Sp_counted_ptrIPN8casacore5BlockINS0_4UnitEEELN9__gnu_cxx12_Lock_policyE2EED1Ev@Base 3.2.1
 _ZNSt15_Sp_counted_ptrIPN8casacore5BlockINS0_4UnitEEELN9__gnu_cxx12_Lock_policyE2EED2Ev@Base 3.2.1
 _ZNSt15_Sp_counted_ptrIPN8casacore5BlockINS0_6VectorIdEEEELN9__gnu_cxx12_Lock_policyE2EE10_M_destroyEv@Base 3.2.1
 _ZNSt15_Sp_counted_ptrIPN8casacore5BlockINS0_6VectorIdEEEELN9__gnu_cxx12_Lock_policyE2EE10_M_disposeEv@Base 3.2.1
 _ZNSt15_Sp_counted_ptrIPN8casacore5BlockINS0_6VectorIdEEEELN9__gnu_cxx12_Lock_policyE2EE14_M_get_deleterERKSt9type_info@Base 3.2.1
 _ZNSt15_Sp_counted_ptrIPN8casacore5BlockINS0_6VectorIdEEEELN9__gnu_cxx12_Lock_policyE2EED0Ev@Base 3.2.1
 _ZNSt15_Sp_counted_ptrIPN8casacore5BlockINS0_6VectorIdEEEELN9__gnu_cxx12_Lock_policyE2EED1Ev@Base 3.2.1
 _ZNSt15_Sp_counted_ptrIPN8casacore5BlockINS0_6VectorIdEEEELN9__gnu_cxx12_Lock_policyE2EED2Ev@Base 3.2.1
 _ZNSt15_Sp_counted_ptrIPN8casacore5BlockINS0_7QuantumIdEEEELN9__gnu_cxx12_Lock_policyE2EE10_M_destroyEv@Base 3.2.1
 _ZNSt15_Sp_counted_ptrIPN8casacore5BlockINS0_7QuantumIdEEEELN9__gnu_cxx12_Lock_policyE2EE10_M_disposeEv@Base 3.2.1
 _ZNSt15_Sp_counted_ptrIPN8casacore5BlockINS0_7QuantumIdEEEELN9__gnu_cxx12_Lock_policyE2EE14_M_get_deleterERKSt9type_info@Base 3.2.1
 _ZNSt15_Sp_counted_ptrIPN8casacore5BlockINS0_7QuantumIdEEEELN9__gnu_cxx12_Lock_policyE2EED0Ev@Base 3.2.1
 _ZNSt15_Sp_counted_ptrIPN8casacore5BlockINS0_7QuantumIdEEEELN9__gnu_cxx12_Lock_policyE2EED1Ev@Base 3.2.1
 _ZNSt15_Sp_counted_ptrIPN8casacore5BlockINS0_7QuantumIdEEEELN9__gnu_cxx12_Lock_policyE2EED2Ev@Base 3.2.1
 _ZNSt15_Sp_counted_ptrIPN8casacore5BlockINS0_8AutoDiffIdEEEELN9__gnu_cxx12_Lock_policyE2EE10_M_destroyEv@Base 3.2.1
 _ZNSt15_Sp_counted_ptrIPN8casacore5BlockINS0_8AutoDiffIdEEEELN9__gnu_cxx12_Lock_policyE2EE10_M_disposeEv@Base 3.2.1
 _ZNSt15_Sp_counted_ptrIPN8casacore5BlockINS0_8AutoDiffIdEEEELN9__gnu_cxx12_Lock_policyE2EE14_M_get_deleterERKSt9type_info@Base 3.2.1
 _ZNSt15_Sp_counted_ptrIPN8casacore5BlockINS0_8AutoDiffIdEEEELN9__gnu_cxx12_Lock_policyE2EED0Ev@Base 3.2.1
 _ZNSt15_Sp_counted_ptrIPN8casacore5BlockINS0_8AutoDiffIdEEEELN9__gnu_cxx12_Lock_policyE2EED1Ev@Base 3.2.1
 _ZNSt15_Sp_counted_ptrIPN8casacore5BlockINS0_8AutoDiffIdEEEELN9__gnu_cxx12_Lock_policyE2EED2Ev@Base 3.2.1
 _ZNSt15_Sp_counted_ptrIPN8casacore5BlockINS0_9MPositionEEELN9__gnu_cxx12_Lock_policyE2EE10_M_destroyEv@Base 3.2.1
 _ZNSt15_Sp_counted_ptrIPN8casacore5BlockINS0_9MPositionEEELN9__gnu_cxx12_Lock_policyE2EE10_M_disposeEv@Base 3.2.1
 _ZNSt15_Sp_counted_ptrIPN8casacore5BlockINS0_9MPositionEEELN9__gnu_cxx12_Lock_policyE2EE14_M_get_deleterERKSt9type_info@Base 3.2.1
 _ZNSt15_Sp_counted_ptrIPN8casacore5BlockINS0_9MPositionEEELN9__gnu_cxx12_Lock_policyE2EED0Ev@Base 3.2.1
 _ZNSt15_Sp_counted_ptrIPN8casacore5BlockINS0_9MPositionEEELN9__gnu_cxx12_Lock_policyE2EED1Ev@Base 3.2.1
 _ZNSt15_Sp_counted_ptrIPN8casacore5BlockINS0_9MPositionEEELN9__gnu_cxx12_Lock_policyE2EED2Ev@Base 3.2.1
 _ZNSt15_Sp_counted_ptrIPN8casacore7MeasRefINS0_10MDirectionEE6RefRepELN9__gnu_cxx12_Lock_policyE2EE10_M_destroyEv@Base 3.2.1
 _ZNSt15_Sp_counted_ptrIPN8casacore7MeasRefINS0_10MDirectionEE6RefRepELN9__gnu_cxx12_Lock_policyE2EE10_M_disposeEv@Base 3.2.1
 _ZNSt15_Sp_counted_ptrIPN8casacore7MeasRefINS0_10MDirectionEE6RefRepELN9__gnu_cxx12_Lock_policyE2EE14_M_get_deleterERKSt9type_info@Base 3.2.1
 _ZNSt15_Sp_counted_ptrIPN8casacore7MeasRefINS0_10MDirectionEE6RefRepELN9__gnu_cxx12_Lock_policyE2EED0Ev@Base 3.2.1
 _ZNSt15_Sp_counted_ptrIPN8casacore7MeasRefINS0_10MDirectionEE6RefRepELN9__gnu_cxx12_Lock_policyE2EED1Ev@Base 3.2.1
 _ZNSt15_Sp_counted_ptrIPN8casacore7MeasRefINS0_10MDirectionEE6RefRepELN9__gnu_cxx12_Lock_policyE2EED2Ev@Base 3.2.1
 _ZNSt15_Sp_counted_ptrIPN8casacore7MeasRefINS0_10MFrequencyEE6RefRepELN9__gnu_cxx12_Lock_policyE2EE10_M_destroyEv@Base 3.2.1
 _ZNSt15_Sp_counted_ptrIPN8casacore7MeasRefINS0_10MFrequencyEE6RefRepELN9__gnu_cxx12_Lock_policyE2EE10_M_disposeEv@Base 3.2.1
 _ZNSt15_Sp_counted_ptrIPN8casacore7MeasRefINS0_10MFrequencyEE6RefRepELN9__gnu_cxx12_Lock_policyE2EE14_M_get_deleterERKSt9type_info@Base 3.2.1
 _ZNSt15_Sp_counted_ptrIPN8casacore7MeasRefINS0_10MFrequencyEE6RefRepELN9__gnu_cxx12_Lock_policyE2EED0Ev@Base 3.2.1
 _ZNSt15_Sp_counted_ptrIPN8casacore7MeasRefINS0_10MFrequencyEE6RefRepELN9__gnu_cxx12_Lock_policyE2EED1Ev@Base 3.2.1
 _ZNSt15_Sp_counted_ptrIPN8casacore7MeasRefINS0_10MFrequencyEE6RefRepELN9__gnu_cxx12_Lock_policyE2EED2Ev@Base 3.2.1
 _ZNSt15_Sp_counted_ptrIPN8casacore7MeasRefINS0_14MEarthMagneticEE6RefRepELN9__gnu_cxx12_Lock_policyE2EE10_M_destroyEv@Base 3.2.1
 _ZNSt15_Sp_counted_ptrIPN8casacore7MeasRefINS0_14MEarthMagneticEE6RefRepELN9__gnu_cxx12_Lock_policyE2EE10_M_disposeEv@Base 3.2.1
 _ZNSt15_Sp_counted_ptrIPN8casacore7MeasRefINS0_14MEarthMagneticEE6RefRepELN9__gnu_cxx12_Lock_policyE2EE14_M_get_deleterERKSt9type_info@Base 3.2.1
 _ZNSt15_Sp_counted_ptrIPN8casacore7MeasRefINS0_14MEarthMagneticEE6RefRepELN9__gnu_cxx12_Lock_policyE2EED0Ev@Base 3.2.1
 _ZNSt15_Sp_counted_ptrIPN8casacore7MeasRefINS0_14MEarthMagneticEE6RefRepELN9__gnu_cxx12_Lock_policyE2EED1Ev@Base 3.2.1
 _ZNSt15_Sp_counted_ptrIPN8casacore7MeasRefINS0_14MEarthMagneticEE6RefRepELN9__gnu_cxx12_Lock_policyE2EED2Ev@Base 3.2.1
 _ZNSt15_Sp_counted_ptrIPN8casacore7MeasRefINS0_15MRadialVelocityEE6RefRepELN9__gnu_cxx12_Lock_policyE2EE10_M_destroyEv@Base 3.2.1
 _ZNSt15_Sp_counted_ptrIPN8casacore7MeasRefINS0_15MRadialVelocityEE6RefRepELN9__gnu_cxx12_Lock_policyE2EE10_M_disposeEv@Base 3.2.1
 _ZNSt15_Sp_counted_ptrIPN8casacore7MeasRefINS0_15MRadialVelocityEE6RefRepELN9__gnu_cxx12_Lock_policyE2EE14_M_get_deleterERKSt9type_info@Base 3.2.1
 _ZNSt15_Sp_counted_ptrIPN8casacore7MeasRefINS0_15MRadialVelocityEE6RefRepELN9__gnu_cxx12_Lock_policyE2EED0Ev@Base 3.2.1
 _ZNSt15_Sp_counted_ptrIPN8casacore7MeasRefINS0_15MRadialVelocityEE6RefRepELN9__gnu_cxx12_Lock_policyE2EED1Ev@Base 3.2.1
 _ZNSt15_Sp_counted_ptrIPN8casacore7MeasRefINS0_15MRadialVelocityEE6RefRepELN9__gnu_cxx12_Lock_policyE2EED2Ev@Base 3.2.1
 _ZNSt15_Sp_counted_ptrIPN8casacore7MeasRefINS0_4MuvwEE6RefRepELN9__gnu_cxx12_Lock_policyE2EE10_M_destroyEv@Base 3.2.1
 _ZNSt15_Sp_counted_ptrIPN8casacore7MeasRefINS0_4MuvwEE6RefRepELN9__gnu_cxx12_Lock_policyE2EE10_M_disposeEv@Base 3.2.1
 _ZNSt15_Sp_counted_ptrIPN8casacore7MeasRefINS0_4MuvwEE6RefRepELN9__gnu_cxx12_Lock_policyE2EE14_M_get_deleterERKSt9type_info@Base 3.2.1
 _ZNSt15_Sp_counted_ptrIPN8casacore7MeasRefINS0_4MuvwEE6RefRepELN9__gnu_cxx12_Lock_policyE2EED0Ev@Base 3.2.1
 _ZNSt15_Sp_counted_ptrIPN8casacore7MeasRefINS0_4MuvwEE6RefRepELN9__gnu_cxx12_Lock_policyE2EED1Ev@Base 3.2.1
 _ZNSt15_Sp_counted_ptrIPN8casacore7MeasRefINS0_4MuvwEE6RefRepELN9__gnu_cxx12_Lock_policyE2EED2Ev@Base 3.2.1
 _ZNSt15_Sp_counted_ptrIPN8casacore7MeasRefINS0_6MEpochEE6RefRepELN9__gnu_cxx12_Lock_policyE2EE10_M_destroyEv@Base 3.2.1
 _ZNSt15_Sp_counted_ptrIPN8casacore7MeasRefINS0_6MEpochEE6RefRepELN9__gnu_cxx12_Lock_policyE2EE10_M_disposeEv@Base 3.2.1
 _ZNSt15_Sp_counted_ptrIPN8casacore7MeasRefINS0_6MEpochEE6RefRepELN9__gnu_cxx12_Lock_policyE2EE14_M_get_deleterERKSt9type_info@Base 3.2.1
 _ZNSt15_Sp_counted_ptrIPN8casacore7MeasRefINS0_6MEpochEE6RefRepELN9__gnu_cxx12_Lock_policyE2EED0Ev@Base 3.2.1
 _ZNSt15_Sp_counted_ptrIPN8casacore7MeasRefINS0_6MEpochEE6RefRepELN9__gnu_cxx12_Lock_policyE2EED1Ev@Base 3.2.1
 _ZNSt15_Sp_counted_ptrIPN8casacore7MeasRefINS0_6MEpochEE6RefRepELN9__gnu_cxx12_Lock_policyE2EED2Ev@Base 3.2.1
 _ZNSt15_Sp_counted_ptrIPN8casacore7MeasRefINS0_8MDopplerEE6RefRepELN9__gnu_cxx12_Lock_policyE2EE10_M_destroyEv@Base 3.2.1
 _ZNSt15_Sp_counted_ptrIPN8casacore7MeasRefINS0_8MDopplerEE6RefRepELN9__gnu_cxx12_Lock_policyE2EE10_M_disposeEv@Base 3.2.1
 _ZNSt15_Sp_counted_ptrIPN8casacore7MeasRefINS0_8MDopplerEE6RefRepELN9__gnu_cxx12_Lock_policyE2EE14_M_get_deleterERKSt9type_info@Base 3.2.1
 _ZNSt15_Sp_counted_ptrIPN8casacore7MeasRefINS0_8MDopplerEE6RefRepELN9__gnu_cxx12_Lock_policyE2EED0Ev@Base 3.2.1
 _ZNSt15_Sp_counted_ptrIPN8casacore7MeasRefINS0_8MDopplerEE6RefRepELN9__gnu_cxx12_Lock_policyE2EED1Ev@Base 3.2.1
 _ZNSt15_Sp_counted_ptrIPN8casacore7MeasRefINS0_8MDopplerEE6RefRepELN9__gnu_cxx12_Lock_policyE2EED2Ev@Base 3.2.1
 _ZNSt15_Sp_counted_ptrIPN8casacore7MeasRefINS0_9MBaselineEE6RefRepELN9__gnu_cxx12_Lock_policyE2EE10_M_destroyEv@Base 3.2.1
 _ZNSt15_Sp_counted_ptrIPN8casacore7MeasRefINS0_9MBaselineEE6RefRepELN9__gnu_cxx12_Lock_policyE2EE10_M_disposeEv@Base 3.2.1
 _ZNSt15_Sp_counted_ptrIPN8casacore7MeasRefINS0_9MBaselineEE6RefRepELN9__gnu_cxx12_Lock_policyE2EE14_M_get_deleterERKSt9type_info@Base 3.2.1
 _ZNSt15_Sp_counted_ptrIPN8casacore7MeasRefINS0_9MBaselineEE6RefRepELN9__gnu_cxx12_Lock_policyE2EED0Ev@Base 3.2.1
 _ZNSt15_Sp_counted_ptrIPN8casacore7MeasRefINS0_9MBaselineEE6RefRepELN9__gnu_cxx12_Lock_policyE2EED1Ev@Base 3.2.1
 _ZNSt15_Sp_counted_ptrIPN8casacore7MeasRefINS0_9MBaselineEE6RefRepELN9__gnu_cxx12_Lock_policyE2EED2Ev@Base 3.2.1
 _ZNSt15_Sp_counted_ptrIPN8casacore7MeasRefINS0_9MPositionEE6RefRepELN9__gnu_cxx12_Lock_policyE2EE10_M_destroyEv@Base 3.2.1
 _ZNSt15_Sp_counted_ptrIPN8casacore7MeasRefINS0_9MPositionEE6RefRepELN9__gnu_cxx12_Lock_policyE2EE10_M_disposeEv@Base 3.2.1
 _ZNSt15_Sp_counted_ptrIPN8casacore7MeasRefINS0_9MPositionEE6RefRepELN9__gnu_cxx12_Lock_policyE2EE14_M_get_deleterERKSt9type_info@Base 3.2.1
 _ZNSt15_Sp_counted_ptrIPN8casacore7MeasRefINS0_9MPositionEE6RefRepELN9__gnu_cxx12_Lock_policyE2EED0Ev@Base 3.2.1
 _ZNSt15_Sp_counted_ptrIPN8casacore7MeasRefINS0_9MPositionEE6RefRepELN9__gnu_cxx12_Lock_policyE2EED1Ev@Base 3.2.1
 _ZNSt15_Sp_counted_ptrIPN8casacore7MeasRefINS0_9MPositionEE6RefRepELN9__gnu_cxx12_Lock_policyE2EED2Ev@Base 3.2.1
 _ZNSt16_Sp_counted_baseILN9__gnu_cxx12_Lock_policyE2EE10_M_releaseEv@Base 3.2.1
 _ZNSt19_Sp_counted_deleterIPN8casacore21ArrayPositionIteratorENS0_10CountedPtrIS1_E7DeleterIS1_EESaIvELN9__gnu_cxx12_Lock_policyE2EE10_M_destroyEv@Base 3.2.1
 _ZNSt19_Sp_counted_deleterIPN8casacore21ArrayPositionIteratorENS0_10CountedPtrIS1_E7DeleterIS1_EESaIvELN9__gnu_cxx12_Lock_policyE2EE10_M_disposeEv@Base 3.2.1
 _ZNSt19_Sp_counted_deleterIPN8casacore21ArrayPositionIteratorENS0_10CountedPtrIS1_E7DeleterIS1_EESaIvELN9__gnu_cxx12_Lock_policyE2EE14_M_get_deleterERKSt9type_info@Base 3.2.1
 _ZNSt19_Sp_counted_deleterIPN8casacore21ArrayPositionIteratorENS0_10CountedPtrIS1_E7DeleterIS1_EESaIvELN9__gnu_cxx12_Lock_policyE2EED0Ev@Base 3.2.1
 _ZNSt19_Sp_counted_deleterIPN8casacore21ArrayPositionIteratorENS0_10CountedPtrIS1_E7DeleterIS1_EESaIvELN9__gnu_cxx12_Lock_policyE2EED1Ev@Base 3.2.1
 _ZNSt19_Sp_counted_deleterIPN8casacore21ArrayPositionIteratorENS0_10CountedPtrIS1_E7DeleterIS1_EESaIvELN9__gnu_cxx12_Lock_policyE2EED2Ev@Base 3.2.1
 _ZNSt19_Sp_counted_deleterIPN8casacore5BlockINS0_10MDirectionEEENS0_10CountedPtrIS3_E7DeleterIS3_EESaIvELN9__gnu_cxx12_Lock_policyE2EE10_M_destroyEv@Base 3.2.1
 _ZNSt19_Sp_counted_deleterIPN8casacore5BlockINS0_10MDirectionEEENS0_10CountedPtrIS3_E7DeleterIS3_EESaIvELN9__gnu_cxx12_Lock_policyE2EE10_M_disposeEv@Base 3.2.1
 _ZNSt19_Sp_counted_deleterIPN8casacore5BlockINS0_10MDirectionEEENS0_10CountedPtrIS3_E7DeleterIS3_EESaIvELN9__gnu_cxx12_Lock_policyE2EE14_M_get_deleterERKSt9type_info@Base 3.2.1
 _ZNSt19_Sp_counted_deleterIPN8casacore5BlockINS0_10MDirectionEEENS0_10CountedPtrIS3_E7DeleterIS3_EESaIvELN9__gnu_cxx12_Lock_policyE2EED0Ev@Base 3.2.1
 _ZNSt19_Sp_counted_deleterIPN8casacore5BlockINS0_10MDirectionEEENS0_10CountedPtrIS3_E7DeleterIS3_EESaIvELN9__gnu_cxx12_Lock_policyE2EED1Ev@Base 3.2.1
 _ZNSt19_Sp_counted_deleterIPN8casacore5BlockINS0_10MDirectionEEENS0_10CountedPtrIS3_E7DeleterIS3_EESaIvELN9__gnu_cxx12_Lock_policyE2EED2Ev@Base 3.2.1
 _ZNSt19_Sp_counted_deleterIPN8casacore5BlockINS0_10MFrequencyEEENS0_10CountedPtrIS3_E7DeleterIS3_EESaIvELN9__gnu_cxx12_Lock_policyE2EE10_M_destroyEv@Base 3.2.1
 _ZNSt19_Sp_counted_deleterIPN8casacore5BlockINS0_10MFrequencyEEENS0_10CountedPtrIS3_E7DeleterIS3_EESaIvELN9__gnu_cxx12_Lock_policyE2EE10_M_disposeEv@Base 3.2.1
 _ZNSt19_Sp_counted_deleterIPN8casacore5BlockINS0_10MFrequencyEEENS0_10CountedPtrIS3_E7DeleterIS3_EESaIvELN9__gnu_cxx12_Lock_policyE2EE14_M_get_deleterERKSt9type_info@Base 3.2.1
 _ZNSt19_Sp_counted_deleterIPN8casacore5BlockINS0_10MFrequencyEEENS0_10CountedPtrIS3_E7DeleterIS3_EESaIvELN9__gnu_cxx12_Lock_policyE2EED0Ev@Base 3.2.1
 _ZNSt19_Sp_counted_deleterIPN8casacore5BlockINS0_10MFrequencyEEENS0_10CountedPtrIS3_E7DeleterIS3_EESaIvELN9__gnu_cxx12_Lock_policyE2EED1Ev@Base 3.2.1
 _ZNSt19_Sp_counted_deleterIPN8casacore5BlockINS0_10MFrequencyEEENS0_10CountedPtrIS3_E7DeleterIS3_EESaIvELN9__gnu_cxx12_Lock_policyE2EED2Ev@Base 3.2.1
 _ZNSt19_Sp_counted_deleterIPN8casacore5BlockINS0_10MVPositionEEENS0_10CountedPtrIS3_E7DeleterIS3_EESaIvELN9__gnu_cxx12_Lock_policyE2EE10_M_destroyEv@Base 3.2.1
 _ZNSt19_Sp_counted_deleterIPN8casacore5BlockINS0_10MVPositionEEENS0_10CountedPtrIS3_E7DeleterIS3_EESaIvELN9__gnu_cxx12_Lock_policyE2EE10_M_disposeEv@Base 3.2.1
 _ZNSt19_Sp_counted_deleterIPN8casacore5BlockINS0_10MVPositionEEENS0_10CountedPtrIS3_E7DeleterIS3_EESaIvELN9__gnu_cxx12_Lock_policyE2EE14_M_get_deleterERKSt9type_info@Base 3.2.1
 _ZNSt19_Sp_counted_deleterIPN8casacore5BlockINS0_10MVPositionEEENS0_10CountedPtrIS3_E7DeleterIS3_EESaIvELN9__gnu_cxx12_Lock_policyE2EED0Ev@Base 3.2.1
 _ZNSt19_Sp_counted_deleterIPN8casacore5BlockINS0_10MVPositionEEENS0_10CountedPtrIS3_E7DeleterIS3_EESaIvELN9__gnu_cxx12_Lock_policyE2EED1Ev@Base 3.2.1
 _ZNSt19_Sp_counted_deleterIPN8casacore5BlockINS0_10MVPositionEEENS0_10CountedPtrIS3_E7DeleterIS3_EESaIvELN9__gnu_cxx12_Lock_policyE2EED2Ev@Base 3.2.1
 _ZNSt19_Sp_counted_deleterIPN8casacore5BlockINS0_16RORecordFieldPtrIdEEEENS0_10CountedPtrIS4_E7DeleterIS4_EESaIvELN9__gnu_cxx12_Lock_policyE2EE10_M_destroyEv@Base 3.2.1
 _ZNSt19_Sp_counted_deleterIPN8casacore5BlockINS0_16RORecordFieldPtrIdEEEENS0_10CountedPtrIS4_E7DeleterIS4_EESaIvELN9__gnu_cxx12_Lock_policyE2EE10_M_disposeEv@Base 3.2.1
 _ZNSt19_Sp_counted_deleterIPN8casacore5BlockINS0_16RORecordFieldPtrIdEEEENS0_10CountedPtrIS4_E7DeleterIS4_EESaIvELN9__gnu_cxx12_Lock_policyE2EE14_M_get_deleterERKSt9type_info@Base 3.2.1
 _ZNSt19_Sp_counted_deleterIPN8casacore5BlockINS0_16RORecordFieldPtrIdEEEENS0_10CountedPtrIS4_E7DeleterIS4_EESaIvELN9__gnu_cxx12_Lock_policyE2EED0Ev@Base 3.2.1
 _ZNSt19_Sp_counted_deleterIPN8casacore5BlockINS0_16RORecordFieldPtrIdEEEENS0_10CountedPtrIS4_E7DeleterIS4_EESaIvELN9__gnu_cxx12_Lock_policyE2EED1Ev@Base 3.2.1
 _ZNSt19_Sp_counted_deleterIPN8casacore5BlockINS0_16RORecordFieldPtrIdEEEENS0_10CountedPtrIS4_E7DeleterIS4_EESaIvELN9__gnu_cxx12_Lock_policyE2EED2Ev@Base 3.2.1
 _ZNSt19_Sp_counted_deleterIPN8casacore5BlockINS0_4UnitEEENS0_10CountedPtrIS3_E7DeleterIS3_EESaIvELN9__gnu_cxx12_Lock_policyE2EE10_M_destroyEv@Base 3.2.1
 _ZNSt19_Sp_counted_deleterIPN8casacore5BlockINS0_4UnitEEENS0_10CountedPtrIS3_E7DeleterIS3_EESaIvELN9__gnu_cxx12_Lock_policyE2EE10_M_disposeEv@Base 3.2.1
 _ZNSt19_Sp_counted_deleterIPN8casacore5BlockINS0_4UnitEEENS0_10CountedPtrIS3_E7DeleterIS3_EESaIvELN9__gnu_cxx12_Lock_policyE2EE14_M_get_deleterERKSt9type_info@Base 3.2.1
 _ZNSt19_Sp_counted_deleterIPN8casacore5BlockINS0_4UnitEEENS0_10CountedPtrIS3_E7DeleterIS3_EESaIvELN9__gnu_cxx12_Lock_policyE2EED0Ev@Base 3.2.1
 _ZNSt19_Sp_counted_deleterIPN8casacore5BlockINS0_4UnitEEENS0_10CountedPtrIS3_E7DeleterIS3_EESaIvELN9__gnu_cxx12_Lock_policyE2EED1Ev@Base 3.2.1
 _ZNSt19_Sp_counted_deleterIPN8casacore5BlockINS0_4UnitEEENS0_10CountedPtrIS3_E7DeleterIS3_EESaIvELN9__gnu_cxx12_Lock_policyE2EED2Ev@Base 3.2.1
 _ZNSt19_Sp_counted_deleterIPN8casacore5BlockINS0_6VectorIdEEEENS0_10CountedPtrIS4_E7DeleterIS4_EESaIvELN9__gnu_cxx12_Lock_policyE2EE10_M_destroyEv@Base 3.2.1
 _ZNSt19_Sp_counted_deleterIPN8casacore5BlockINS0_6VectorIdEEEENS0_10CountedPtrIS4_E7DeleterIS4_EESaIvELN9__gnu_cxx12_Lock_policyE2EE10_M_disposeEv@Base 3.2.1
 _ZNSt19_Sp_counted_deleterIPN8casacore5BlockINS0_6VectorIdEEEENS0_10CountedPtrIS4_E7DeleterIS4_EESaIvELN9__gnu_cxx12_Lock_policyE2EE14_M_get_deleterERKSt9type_info@Base 3.2.1
 _ZNSt19_Sp_counted_deleterIPN8casacore5BlockINS0_6VectorIdEEEENS0_10CountedPtrIS4_E7DeleterIS4_EESaIvELN9__gnu_cxx12_Lock_policyE2EED0Ev@Base 3.2.1
 _ZNSt19_Sp_counted_deleterIPN8casacore5BlockINS0_6VectorIdEEEENS0_10CountedPtrIS4_E7DeleterIS4_EESaIvELN9__gnu_cxx12_Lock_policyE2EED1Ev@Base 3.2.1
 _ZNSt19_Sp_counted_deleterIPN8casacore5BlockINS0_6VectorIdEEEENS0_10CountedPtrIS4_E7DeleterIS4_EESaIvELN9__gnu_cxx12_Lock_policyE2EED2Ev@Base 3.2.1
 _ZNSt19_Sp_counted_deleterIPN8casacore5BlockINS0_7QuantumIdEEEENS0_10CountedPtrIS4_E7DeleterIS4_EESaIvELN9__gnu_cxx12_Lock_policyE2EE10_M_destroyEv@Base 3.2.1
 _ZNSt19_Sp_counted_deleterIPN8casacore5BlockINS0_7QuantumIdEEEENS0_10CountedPtrIS4_E7DeleterIS4_EESaIvELN9__gnu_cxx12_Lock_policyE2EE10_M_disposeEv@Base 3.2.1
 _ZNSt19_Sp_counted_deleterIPN8casacore5BlockINS0_7QuantumIdEEEENS0_10CountedPtrIS4_E7DeleterIS4_EESaIvELN9__gnu_cxx12_Lock_policyE2EE14_M_get_deleterERKSt9type_info@Base 3.2.1
 _ZNSt19_Sp_counted_deleterIPN8casacore5BlockINS0_7QuantumIdEEEENS0_10CountedPtrIS4_E7DeleterIS4_EESaIvELN9__gnu_cxx12_Lock_policyE2EED0Ev@Base 3.2.1
 _ZNSt19_Sp_counted_deleterIPN8casacore5BlockINS0_7QuantumIdEEEENS0_10CountedPtrIS4_E7DeleterIS4_EESaIvELN9__gnu_cxx12_Lock_policyE2EED1Ev@Base 3.2.1
 _ZNSt19_Sp_counted_deleterIPN8casacore5BlockINS0_7QuantumIdEEEENS0_10CountedPtrIS4_E7DeleterIS4_EESaIvELN9__gnu_cxx12_Lock_policyE2EED2Ev@Base 3.2.1
 _ZNSt19_Sp_counted_deleterIPN8casacore5BlockINS0_8AutoDiffIdEEEENS0_10CountedPtrIS4_E7DeleterIS4_EESaIvELN9__gnu_cxx12_Lock_policyE2EE10_M_destroyEv@Base 3.2.1
 _ZNSt19_Sp_counted_deleterIPN8casacore5BlockINS0_8AutoDiffIdEEEENS0_10CountedPtrIS4_E7DeleterIS4_EESaIvELN9__gnu_cxx12_Lock_policyE2EE10_M_disposeEv@Base 3.2.1
 _ZNSt19_Sp_counted_deleterIPN8casacore5BlockINS0_8AutoDiffIdEEEENS0_10CountedPtrIS4_E7DeleterIS4_EESaIvELN9__gnu_cxx12_Lock_policyE2EE14_M_get_deleterERKSt9type_info@Base 3.2.1
 _ZNSt19_Sp_counted_deleterIPN8casacore5BlockINS0_8AutoDiffIdEEEENS0_10CountedPtrIS4_E7DeleterIS4_EESaIvELN9__gnu_cxx12_Lock_policyE2EED0Ev@Base 3.2.1
 _ZNSt19_Sp_counted_deleterIPN8casacore5BlockINS0_8AutoDiffIdEEEENS0_10CountedPtrIS4_E7DeleterIS4_EESaIvELN9__gnu_cxx12_Lock_policyE2EED1Ev@Base 3.2.1
 _ZNSt19_Sp_counted_deleterIPN8casacore5BlockINS0_8AutoDiffIdEEEENS0_10CountedPtrIS4_E7DeleterIS4_EESaIvELN9__gnu_cxx12_Lock_policyE2EED2Ev@Base 3.2.1
 _ZNSt19_Sp_counted_deleterIPN8casacore5BlockINS0_9MPositionEEENS0_10CountedPtrIS3_E7DeleterIS3_EESaIvELN9__gnu_cxx12_Lock_policyE2EE10_M_destroyEv@Base 3.2.1
 _ZNSt19_Sp_counted_deleterIPN8casacore5BlockINS0_9MPositionEEENS0_10CountedPtrIS3_E7DeleterIS3_EESaIvELN9__gnu_cxx12_Lock_policyE2EE10_M_disposeEv@Base 3.2.1
 _ZNSt19_Sp_counted_deleterIPN8casacore5BlockINS0_9MPositionEEENS0_10CountedPtrIS3_E7DeleterIS3_EESaIvELN9__gnu_cxx12_Lock_policyE2EE14_M_get_deleterERKSt9type_info@Base 3.2.1
 _ZNSt19_Sp_counted_deleterIPN8casacore5BlockINS0_9MPositionEEENS0_10CountedPtrIS3_E7DeleterIS3_EESaIvELN9__gnu_cxx12_Lock_policyE2EED0Ev@Base 3.2.1
 _ZNSt19_Sp_counted_deleterIPN8casacore5BlockINS0_9MPositionEEENS0_10CountedPtrIS3_E7DeleterIS3_EESaIvELN9__gnu_cxx12_Lock_policyE2EED1Ev@Base 3.2.1
 _ZNSt19_Sp_counted_deleterIPN8casacore5BlockINS0_9MPositionEEENS0_10CountedPtrIS3_E7DeleterIS3_EESaIvELN9__gnu_cxx12_Lock_policyE2EED2Ev@Base 3.2.1
 _ZNSt19_Sp_counted_deleterIPN8casacore6MatrixIdEENS0_10CountedPtrIS2_E7DeleterIS2_EESaIvELN9__gnu_cxx12_Lock_policyE2EE10_M_destroyEv@Base 3.2.1
 _ZNSt19_Sp_counted_deleterIPN8casacore6MatrixIdEENS0_10CountedPtrIS2_E7DeleterIS2_EESaIvELN9__gnu_cxx12_Lock_policyE2EE10_M_disposeEv@Base 3.2.1
 _ZNSt19_Sp_counted_deleterIPN8casacore6MatrixIdEENS0_10CountedPtrIS2_E7DeleterIS2_EESaIvELN9__gnu_cxx12_Lock_policyE2EE14_M_get_deleterERKSt9type_info@Base 3.2.1
 _ZNSt19_Sp_counted_deleterIPN8casacore6MatrixIdEENS0_10CountedPtrIS2_E7DeleterIS2_EESaIvELN9__gnu_cxx12_Lock_policyE2EED0Ev@Base 3.2.1
 _ZNSt19_Sp_counted_deleterIPN8casacore6MatrixIdEENS0_10CountedPtrIS2_E7DeleterIS2_EESaIvELN9__gnu_cxx12_Lock_policyE2EED1Ev@Base 3.2.1
 _ZNSt19_Sp_counted_deleterIPN8casacore6MatrixIdEENS0_10CountedPtrIS2_E7DeleterIS2_EESaIvELN9__gnu_cxx12_Lock_policyE2EED2Ev@Base 3.2.1
 _ZNSt19_Sp_counted_deleterIPN8casacore9ArrayBaseENS0_10CountedPtrIS1_E7DeleterIS1_EESaIvELN9__gnu_cxx12_Lock_policyE2EE10_M_destroyEv@Base 3.2.1
 _ZNSt19_Sp_counted_deleterIPN8casacore9ArrayBaseENS0_10CountedPtrIS1_E7DeleterIS1_EESaIvELN9__gnu_cxx12_Lock_policyE2EE10_M_disposeEv@Base 3.2.1
 _ZNSt19_Sp_counted_deleterIPN8casacore9ArrayBaseENS0_10CountedPtrIS1_E7DeleterIS1_EESaIvELN9__gnu_cxx12_Lock_policyE2EE14_M_get_deleterERKSt9type_info@Base 3.2.1
 _ZNSt19_Sp_counted_deleterIPN8casacore9ArrayBaseENS0_10CountedPtrIS1_E7DeleterIS1_EESaIvELN9__gnu_cxx12_Lock_policyE2EED0Ev@Base 3.2.1
 _ZNSt19_Sp_counted_deleterIPN8casacore9ArrayBaseENS0_10CountedPtrIS1_E7DeleterIS1_EESaIvELN9__gnu_cxx12_Lock_policyE2EED1Ev@Base 3.2.1
 _ZNSt19_Sp_counted_deleterIPN8casacore9ArrayBaseENS0_10CountedPtrIS1_E7DeleterIS1_EESaIvELN9__gnu_cxx12_Lock_policyE2EED2Ev@Base 3.2.1
 _ZNSt6vectorIN8casacore10CountedPtrINS0_6MatrixIdEEEESaIS4_EE17_M_default_appendEm@Base 3.2.1
 _ZNSt6vectorIN8casacore10CountedPtrINS0_6MatrixIdEEEESaIS4_EE17_M_realloc_insertIJRKS4_EEEvN9__gnu_cxx17__normal_iteratorIPS4_S6_EEDpOT_@Base 3.2.1
 _ZNSt6vectorIN8casacore10CountedPtrINS0_6MatrixIdEEEESaIS4_EED1Ev@Base 3.2.1
 _ZNSt6vectorIN8casacore10CountedPtrINS0_6MatrixIdEEEESaIS4_EED2Ev@Base 3.2.1
 _ZNSt6vectorIN8casacore10PolynomialIdEESaIS2_EEC1EmRKS3_@Base 3.2.1
 _ZNSt6vectorIN8casacore10PolynomialIdEESaIS2_EEC2EmRKS3_@Base 3.2.1
 _ZNSt6vectorIN8casacore10PolynomialIdEESaIS2_EED1Ev@Base 3.2.1
 _ZNSt6vectorIN8casacore10PolynomialIdEESaIS2_EED2Ev@Base 3.2.1
 _ZNSt6vectorIN8casacore6VectorIdEESaIS2_EE12emplace_backIJS2_EEEvDpOT_@Base 3.2.1
 _ZNSt6vectorIN8casacore6VectorIdEESaIS2_EE17_M_default_appendEm@Base 3.2.1
 _ZNSt6vectorIN8casacore6VectorIdEESaIS2_EE17_M_realloc_insertIJS2_EEEvN9__gnu_cxx17__normal_iteratorIPS2_S4_EEDpOT_@Base 3.2.1
 _ZNSt6vectorIN8casacore6VectorIdEESaIS2_EE7reserveEm@Base 3.2.1
 _ZNSt6vectorIN8casacore6VectorIdEESaIS2_EED1Ev@Base 3.2.1
 _ZNSt6vectorIN8casacore6VectorIdEESaIS2_EED2Ev@Base 3.2.1
 _ZNSt6vectorIN8casacore7QuantumIdEESaIS2_EE13_M_assign_auxIPKS2_EEvT_S8_St20forward_iterator_tag@Base 3.2.1
 _ZNSt6vectorIdSaIdEE17_M_realloc_insertIJRKdEEEvN9__gnu_cxx17__normal_iteratorIPdS1_EEDpOT_@Base 3.2.1
 _ZNSt6vectorIiSaIiEE17_M_default_appendEm@Base 3.2.1
 _ZNSt6vectorIiSaIiEE17_M_realloc_insertIJRKiEEEvN9__gnu_cxx17__normal_iteratorIPiS1_EEDpOT_@Base 3.2.1
 _ZNSt6vectorIxSaIxEE17_M_realloc_insertIJRKxEEEvN9__gnu_cxx17__normal_iteratorIPxS1_EEDpOT_@Base 3.2.1
 _ZNSt7__cxx1110_List_baseINS_12basic_stringIcSt11char_traitsIcESaIcEEESaIS5_EE8_M_clearEv@Base 3.2.1
 _ZNSt7__cxx114listINS_12basic_stringIcSt11char_traitsIcESaIcEEESaIS5_EED1Ev@Base 3.2.1
 _ZNSt7__cxx114listINS_12basic_stringIcSt11char_traitsIcESaIcEEESaIS5_EED2Ev@Base 3.2.1
 _ZSt9call_onceIRPFvPjEJRS0_EEvRSt9once_flagOT_DpOT0_@Base 3.2.1
 _ZSt9call_onceIRPFvvEJEEvRSt9once_flagOT_DpOT0_@Base 3.2.1
 _ZTIN8casacore10Function1DINS_8AutoDiffIdEES2_EE@Base 3.2.1
 _ZTIN8casacore10Function1DIddEE@Base 3.2.1
 _ZTIN8casacore10FunctionalINS_6VectorIdEENS_8AutoDiffIdEEEE@Base 3.2.1
 _ZTIN8casacore10FunctionalINS_6VectorIdEEdEE@Base 3.2.1
 _ZTIN8casacore10FunctionalIdNS_8AutoDiffIdEEEE@Base 3.2.1
 _ZTIN8casacore10FunctionalIddEE@Base 3.2.1
 _ZTIN8casacore10MCBaselineE@Base 3.2.1
 _ZTIN8casacore10MCPositionE@Base 3.2.1
 _ZTIN8casacore10MDirectionE@Base 3.2.1
 _ZTIN8casacore10MFrequencyE@Base 3.2.1
 _ZTIN8casacore10PolynomialINS_8AutoDiffIdEEEE@Base 3.2.1
 _ZTIN8casacore10PolynomialIdEE@Base 3.2.1
 _ZTIN8casacore11MCDirectionE@Base 3.2.1
 _ZTIN8casacore11MCFrequencyE@Base 3.2.1
 _ZTIN8casacore11MeasConvertINS_10MDirectionEEE@Base 3.2.1
 _ZTIN8casacore11MeasConvertINS_10MFrequencyEEE@Base 3.2.1
 _ZTIN8casacore11MeasConvertINS_14MEarthMagneticEEE@Base 3.2.1
 _ZTIN8casacore11MeasConvertINS_15MRadialVelocityEEE@Base 3.2.1
 _ZTIN8casacore11MeasConvertINS_4MuvwEEE@Base 3.2.1
 _ZTIN8casacore11MeasConvertINS_6MEpochEEE@Base 3.2.1
 _ZTIN8casacore11MeasConvertINS_8MDopplerEEE@Base 3.2.1
 _ZTIN8casacore11MeasConvertINS_9MBaselineEEE@Base 3.2.1
 _ZTIN8casacore11MeasConvertINS_9MPositionEEE@Base 3.2.1
 _ZTIN8casacore12MConvertBaseE@Base 3.2.1
 _ZTIN8casacore12MeasTableMulE@Base 3.2.1
 _ZTIN8casacore13ArrayIteratorINS_10MDirectionEEE@Base 3.2.1
 _ZTIN8casacore13ArrayIteratorINS_10MFrequencyEEE@Base 3.2.1
 _ZTIN8casacore13ArrayIteratorINS_10MVPositionEEE@Base 3.2.1
 _ZTIN8casacore13ArrayIteratorINS_16RORecordFieldPtrIdEEEE@Base 3.2.1
 _ZTIN8casacore13ArrayIteratorINS_4UnitEEE@Base 3.2.1
 _ZTIN8casacore13ArrayIteratorINS_6VectorIdEEEE@Base 3.2.1
 _ZTIN8casacore13ArrayIteratorINS_7QuantumIdEEEE@Base 3.2.1
 _ZTIN8casacore13ArrayIteratorINS_8AutoDiffIdEEEE@Base 3.2.1
 _ZTIN8casacore13ArrayIteratorINS_9MPositionEEE@Base 3.2.1
 _ZTIN8casacore13BaseAllocatorINS_10MDirectionENS_15NewDelAllocatorIS1_EEEE@Base 3.2.1
 _ZTIN8casacore13BaseAllocatorINS_10MDirectionENS_16AlignedAllocatorIS1_Lm32EEEEE@Base 3.2.1
 _ZTIN8casacore13BaseAllocatorINS_10MFrequencyENS_15NewDelAllocatorIS1_EEEE@Base 3.2.1
 _ZTIN8casacore13BaseAllocatorINS_10MFrequencyENS_16AlignedAllocatorIS1_Lm32EEEEE@Base 3.2.1
 _ZTIN8casacore13BaseAllocatorINS_10MVPositionENS_15NewDelAllocatorIS1_EEEE@Base 3.2.1
 _ZTIN8casacore13BaseAllocatorINS_10MVPositionENS_16AlignedAllocatorIS1_Lm32EEEEE@Base 3.2.1
 _ZTIN8casacore13BaseAllocatorINS_16RORecordFieldPtrIdEENS_15NewDelAllocatorIS2_EEEE@Base 3.2.1
 _ZTIN8casacore13BaseAllocatorINS_16RORecordFieldPtrIdEENS_16AlignedAllocatorIS2_Lm32EEEEE@Base 3.2.1
 _ZTIN8casacore13BaseAllocatorINS_4UnitENS_15NewDelAllocatorIS1_EEEE@Base 3.2.1
 _ZTIN8casacore13BaseAllocatorINS_4UnitENS_16AlignedAllocatorIS1_Lm32EEEEE@Base 3.2.1
 _ZTIN8casacore13BaseAllocatorINS_6VectorIdEENS_15NewDelAllocatorIS2_EEEE@Base 3.2.1
 _ZTIN8casacore13BaseAllocatorINS_6VectorIdEENS_16AlignedAllocatorIS2_Lm32EEEEE@Base 3.2.1
 _ZTIN8casacore13BaseAllocatorINS_7QuantumIdEENS_15NewDelAllocatorIS2_EEEE@Base 3.2.1
 _ZTIN8casacore13BaseAllocatorINS_7QuantumIdEENS_16AlignedAllocatorIS2_Lm32EEEEE@Base 3.2.1
 _ZTIN8casacore13BaseAllocatorINS_8AutoDiffIdEENS_15NewDelAllocatorIS2_EEEE@Base 3.2.1
 _ZTIN8casacore13BaseAllocatorINS_8AutoDiffIdEENS_16AlignedAllocatorIS2_Lm32EEEEE@Base 3.2.1
 _ZTIN8casacore13BaseAllocatorINS_9MPositionENS_15NewDelAllocatorIS1_EEEE@Base 3.2.1
 _ZTIN8casacore13BaseAllocatorINS_9MPositionENS_16AlignedAllocatorIS1_Lm32EEEEE@Base 3.2.1
 _ZTIN8casacore13BaseAllocatorIPNS_6SlicerENS_15NewDelAllocatorIS2_EEEE@Base 3.2.1
 _ZTIN8casacore13BaseAllocatorIPNS_6SlicerENS_16AlignedAllocatorIS2_Lm32EEEEE@Base 3.2.1
 _ZTIN8casacore13FunctionParamINS_8AutoDiffIdEEEE@Base 3.2.1
 _ZTIN8casacore13FunctionParamIdEE@Base 3.2.1
 _ZTIN8casacore13MeasureHolderE@Base 3.2.1
 _ZTIN8casacore13MeasuresProxyE@Base 3.2.1
 _ZTIN8casacore14MEarthMagneticE@Base 3.2.1
 _ZTIN8casacore14MeasTableMulSCE@Base 3.2.1
 _ZTIN8casacore14RecordFieldPtrINS_6StringEEE@Base 3.2.1
 _ZTIN8casacore14RecordFieldPtrIdEE@Base 3.2.1
 _ZTIN8casacore15MCEarthMagneticE@Base 3.2.1
 _ZTIN8casacore15MRadialVelocityE@Base 3.2.1
 _ZTIN8casacore15NewDelAllocatorINS_10MDirectionEEE@Base 3.2.1
 _ZTIN8casacore15NewDelAllocatorINS_10MFrequencyEEE@Base 3.2.1
 _ZTIN8casacore15NewDelAllocatorINS_10MVPositionEEE@Base 3.2.1
 _ZTIN8casacore15NewDelAllocatorINS_16RORecordFieldPtrIdEEEE@Base 3.2.1
 _ZTIN8casacore15NewDelAllocatorINS_4UnitEEE@Base 3.2.1
 _ZTIN8casacore15NewDelAllocatorINS_6VectorIdEEEE@Base 3.2.1
 _ZTIN8casacore15NewDelAllocatorINS_7QuantumIdEEEE@Base 3.2.1
 _ZTIN8casacore15NewDelAllocatorINS_8AutoDiffIdEEEE@Base 3.2.1
 _ZTIN8casacore15NewDelAllocatorINS_9MPositionEEE@Base 3.2.1
 _ZTIN8casacore15NewDelAllocatorIPNS_6SlicerEEE@Base 3.2.1
 _ZTIN8casacore15PolynomialParamINS_8AutoDiffIdEEEE@Base 3.2.1
 _ZTIN8casacore15PolynomialParamIdEE@Base 3.2.1
 _ZTIN8casacore15TableMeasColumnE@Base 3.2.1
 _ZTIN8casacore16AlignedAllocatorINS_10MDirectionELm32EEE@Base 3.2.1
 _ZTIN8casacore16AlignedAllocatorINS_10MFrequencyELm32EEE@Base 3.2.1
 _ZTIN8casacore16AlignedAllocatorINS_10MVPositionELm32EEE@Base 3.2.1
 _ZTIN8casacore16AlignedAllocatorINS_16RORecordFieldPtrIdEELm32EEE@Base 3.2.1
 _ZTIN8casacore16AlignedAllocatorINS_4UnitELm32EEE@Base 3.2.1
 _ZTIN8casacore16AlignedAllocatorINS_6VectorIdEELm32EEE@Base 3.2.1
 _ZTIN8casacore16AlignedAllocatorINS_7QuantumIdEELm32EEE@Base 3.2.1
 _ZTIN8casacore16AlignedAllocatorINS_8AutoDiffIdEELm32EEE@Base 3.2.1
 _ZTIN8casacore16AlignedAllocatorINS_9MPositionELm32EEE@Base 3.2.1
 _ZTIN8casacore16AlignedAllocatorIPNS_6SlicerELm32EEE@Base 3.2.1
 _ZTIN8casacore16DefaultAllocatorINS_10MDirectionEEE@Base 3.2.1
 _ZTIN8casacore16DefaultAllocatorINS_10MFrequencyEEE@Base 3.2.1
 _ZTIN8casacore16DefaultAllocatorINS_10MVPositionEEE@Base 3.2.1
 _ZTIN8casacore16DefaultAllocatorINS_16RORecordFieldPtrIdEEEE@Base 3.2.1
 _ZTIN8casacore16DefaultAllocatorINS_4UnitEEE@Base 3.2.1
 _ZTIN8casacore16DefaultAllocatorINS_6VectorIdEEEE@Base 3.2.1
 _ZTIN8casacore16DefaultAllocatorINS_7QuantumIdEEEE@Base 3.2.1
 _ZTIN8casacore16DefaultAllocatorINS_8AutoDiffIdEEEE@Base 3.2.1
 _ZTIN8casacore16DefaultAllocatorINS_9MPositionEEE@Base 3.2.1
 _ZTIN8casacore16DefaultAllocatorIPNS_6SlicerEEE@Base 3.2.1
 _ZTIN8casacore16MCRadialVelocityE@Base 3.2.1
 _ZTIN8casacore16MeasTableMulAberE@Base 3.2.1
 _ZTIN8casacore17AbstractAllocatorINS_10MDirectionEEE@Base 3.2.1
 _ZTIN8casacore17AbstractAllocatorINS_10MFrequencyEEE@Base 3.2.1
 _ZTIN8casacore17AbstractAllocatorINS_10MVPositionEEE@Base 3.2.1
 _ZTIN8casacore17AbstractAllocatorINS_16RORecordFieldPtrIdEEEE@Base 3.2.1
 _ZTIN8casacore17AbstractAllocatorINS_4UnitEEE@Base 3.2.1
 _ZTIN8casacore17AbstractAllocatorINS_6VectorIdEEEE@Base 3.2.1
 _ZTIN8casacore17AbstractAllocatorINS_7QuantumIdEEEE@Base 3.2.1
 _ZTIN8casacore17AbstractAllocatorINS_8AutoDiffIdEEEE@Base 3.2.1
 _ZTIN8casacore17AbstractAllocatorINS_9MPositionEEE@Base 3.2.1
 _ZTIN8casacore17AbstractAllocatorIPNS_6SlicerEEE@Base 3.2.1
 _ZTIN8casacore17Allocator_private13BulkAllocatorINS_10MDirectionEEE@Base 3.2.1
 _ZTIN8casacore17Allocator_private13BulkAllocatorINS_10MFrequencyEEE@Base 3.2.1
 _ZTIN8casacore17Allocator_private13BulkAllocatorINS_10MVPositionEEE@Base 3.2.1
 _ZTIN8casacore17Allocator_private13BulkAllocatorINS_16RORecordFieldPtrIdEEEE@Base 3.2.1
 _ZTIN8casacore17Allocator_private13BulkAllocatorINS_4UnitEEE@Base 3.2.1
 _ZTIN8casacore17Allocator_private13BulkAllocatorINS_6VectorIdEEEE@Base 3.2.1
 _ZTIN8casacore17Allocator_private13BulkAllocatorINS_7QuantumIdEEEE@Base 3.2.1
 _ZTIN8casacore17Allocator_private13BulkAllocatorINS_8AutoDiffIdEEEE@Base 3.2.1
 _ZTIN8casacore17Allocator_private13BulkAllocatorINS_9MPositionEEE@Base 3.2.1
 _ZTIN8casacore17Allocator_private13BulkAllocatorIPNS_6SlicerEEE@Base 3.2.1
 _ZTIN8casacore17Allocator_private13BulkAllocatorIPNS_9MeasValueEEE@Base 3.2.1
 _ZTIN8casacore17Allocator_private13BulkAllocatorIiEE@Base 3.2.1
 _ZTIN8casacore17Allocator_private13BulkAllocatorIjEE@Base 3.2.1
 _ZTIN8casacore17Allocator_private17BulkAllocatorImplINS_17new_del_allocatorINS_10MDirectionEEEEE@Base 3.2.1
 _ZTIN8casacore17Allocator_private17BulkAllocatorImplINS_17new_del_allocatorINS_10MFrequencyEEEEE@Base 3.2.1
 _ZTIN8casacore17Allocator_private17BulkAllocatorImplINS_17new_del_allocatorINS_10MVPositionEEEEE@Base 3.2.1
 _ZTIN8casacore17Allocator_private17BulkAllocatorImplINS_17new_del_allocatorINS_16RORecordFieldPtrIdEEEEEE@Base 3.2.1
 _ZTIN8casacore17Allocator_private17BulkAllocatorImplINS_17new_del_allocatorINS_4UnitEEEEE@Base 3.2.1
 _ZTIN8casacore17Allocator_private17BulkAllocatorImplINS_17new_del_allocatorINS_6VectorIdEEEEEE@Base 3.2.1
 _ZTIN8casacore17Allocator_private17BulkAllocatorImplINS_17new_del_allocatorINS_7QuantumIdEEEEEE@Base 3.2.1
 _ZTIN8casacore17Allocator_private17BulkAllocatorImplINS_17new_del_allocatorINS_8AutoDiffIdEEEEEE@Base 3.2.1
 _ZTIN8casacore17Allocator_private17BulkAllocatorImplINS_17new_del_allocatorINS_9MPositionEEEEE@Base 3.2.1
 _ZTIN8casacore17Allocator_private17BulkAllocatorImplINS_17new_del_allocatorIPNS_6SlicerEEEEE@Base 3.2.1
 _ZTIN8casacore17Allocator_private17BulkAllocatorImplINS_18casacore_allocatorINS_10MDirectionELm32EEEEE@Base 3.2.1
 _ZTIN8casacore17Allocator_private17BulkAllocatorImplINS_18casacore_allocatorINS_10MFrequencyELm32EEEEE@Base 3.2.1
 _ZTIN8casacore17Allocator_private17BulkAllocatorImplINS_18casacore_allocatorINS_10MVPositionELm32EEEEE@Base 3.2.1
 _ZTIN8casacore17Allocator_private17BulkAllocatorImplINS_18casacore_allocatorINS_16RORecordFieldPtrIdEELm32EEEEE@Base 3.2.1
 _ZTIN8casacore17Allocator_private17BulkAllocatorImplINS_18casacore_allocatorINS_4UnitELm32EEEEE@Base 3.2.1
 _ZTIN8casacore17Allocator_private17BulkAllocatorImplINS_18casacore_allocatorINS_6VectorIdEELm32EEEEE@Base 3.2.1
 _ZTIN8casacore17Allocator_private17BulkAllocatorImplINS_18casacore_allocatorINS_7QuantumIdEELm32EEEEE@Base 3.2.1
 _ZTIN8casacore17Allocator_private17BulkAllocatorImplINS_18casacore_allocatorINS_8AutoDiffIdEELm32EEEEE@Base 3.2.1
 _ZTIN8casacore17Allocator_private17BulkAllocatorImplINS_18casacore_allocatorINS_9MPositionELm32EEEEE@Base 3.2.1
 _ZTIN8casacore17Allocator_private17BulkAllocatorImplINS_18casacore_allocatorIPNS_6SlicerELm32EEEEE@Base 3.2.1
 _ZTIN8casacore17Allocator_private17BulkAllocatorImplINS_18casacore_allocatorIPNS_9MeasValueELm32EEEEE@Base 3.2.1
 _ZTIN8casacore17Allocator_private17BulkAllocatorImplINS_18casacore_allocatorIiLm32EEEEE@Base 3.2.1
 _ZTIN8casacore17Allocator_private17BulkAllocatorImplINS_18casacore_allocatorIjLm32EEEEE@Base 3.2.1
 _ZTIN8casacore17TableMeasDescBaseE@Base 3.2.1
 _ZTIN8casacore17new_del_allocatorINS_10MDirectionEEE@Base 3.2.1
 _ZTIN8casacore17new_del_allocatorINS_10MFrequencyEEE@Base 3.2.1
 _ZTIN8casacore17new_del_allocatorINS_10MVPositionEEE@Base 3.2.1
 _ZTIN8casacore17new_del_allocatorINS_16RORecordFieldPtrIdEEEE@Base 3.2.1
 _ZTIN8casacore17new_del_allocatorINS_4UnitEEE@Base 3.2.1
 _ZTIN8casacore17new_del_allocatorINS_6VectorIdEEEE@Base 3.2.1
 _ZTIN8casacore17new_del_allocatorINS_7QuantumIdEEEE@Base 3.2.1
 _ZTIN8casacore17new_del_allocatorINS_8AutoDiffIdEEEE@Base 3.2.1
 _ZTIN8casacore17new_del_allocatorINS_9MPositionEEE@Base 3.2.1
 _ZTIN8casacore17new_del_allocatorIPNS_6SlicerEEE@Base 3.2.1
 _ZTIN8casacore18MeasTableMulSC1950E@Base 3.2.1
 _ZTIN8casacore18MeasTableMulSCBaseE@Base 3.2.1
 _ZTIN8casacore18casacore_allocatorINS_10MDirectionELm32EEE@Base 3.2.1
 _ZTIN8casacore18casacore_allocatorINS_10MFrequencyELm32EEE@Base 3.2.1
 _ZTIN8casacore18casacore_allocatorINS_10MVPositionELm32EEE@Base 3.2.1
 _ZTIN8casacore18casacore_allocatorINS_16RORecordFieldPtrIdEELm32EEE@Base 3.2.1
 _ZTIN8casacore18casacore_allocatorINS_4UnitELm32EEE@Base 3.2.1
 _ZTIN8casacore18casacore_allocatorINS_6VectorIdEELm32EEE@Base 3.2.1
 _ZTIN8casacore18casacore_allocatorINS_7QuantumIdEELm32EEE@Base 3.2.1
 _ZTIN8casacore18casacore_allocatorINS_8AutoDiffIdEELm32EEE@Base 3.2.1
 _ZTIN8casacore18casacore_allocatorINS_9MPositionELm32EEE@Base 3.2.1
 _ZTIN8casacore18casacore_allocatorIPNS_6SlicerELm32EEE@Base 3.2.1
 _ZTIN8casacore18casacore_allocatorIPNS_9MeasValueELm32EEE@Base 3.2.1
 _ZTIN8casacore18casacore_allocatorIiLm32EEE@Base 3.2.1
 _ZTIN8casacore18casacore_allocatorIjLm32EEE@Base 3.2.1
 _ZTIN8casacore19MeasTableMulPosSunZE@Base 3.2.1
 _ZTIN8casacore19MeasTableMulSC2000AE@Base 3.2.1
 _ZTIN8casacore19MeasTableMulSC2000BE@Base 3.2.1
 _ZTIN8casacore20MeasTableMulAber1950E@Base 3.2.1
 _ZTIN8casacore20MeasTableMulPosSunXYE@Base 3.2.1
 _ZTIN8casacore21MeasTableMulPosEarthZE@Base 3.2.1
 _ZTIN8casacore22MeasTableMulPosEarthXYE@Base 3.2.1
 _ZTIN8casacore22MeasTableMulSC2000BaseE@Base 3.2.1
 _ZTIN8casacore4MuvwE@Base 3.2.1
 _ZTIN8casacore5ArrayINS_10MDirectionEEE@Base 3.2.1
 _ZTIN8casacore5ArrayINS_10MFrequencyEEE@Base 3.2.1
 _ZTIN8casacore5ArrayINS_10MVPositionEEE@Base 3.2.1
 _ZTIN8casacore5ArrayINS_16RORecordFieldPtrIdEEEE@Base 3.2.1
 _ZTIN8casacore5ArrayINS_4UnitEEE@Base 3.2.1
 _ZTIN8casacore5ArrayINS_6VectorIdEEEE@Base 3.2.1
 _ZTIN8casacore5ArrayINS_7QuantumIdEEEE@Base 3.2.1
 _ZTIN8casacore5ArrayINS_8AutoDiffIdEEEE@Base 3.2.1
 _ZTIN8casacore5ArrayINS_9MPositionEEE@Base 3.2.1
 _ZTIN8casacore5MCuvwE@Base 3.2.1
 _ZTIN8casacore6MCBaseE@Base 3.2.1
 _ZTIN8casacore6MEpochE@Base 3.2.1
 _ZTIN8casacore6MRBaseE@Base 3.2.1
 _ZTIN8casacore6VectorINS0_IdEEEE@Base 3.2.1
 _ZTIN8casacore6VectorINS_10MDirectionEEE@Base 3.2.1
 _ZTIN8casacore6VectorINS_10MFrequencyEEE@Base 3.2.1
 _ZTIN8casacore6VectorINS_10MVPositionEEE@Base 3.2.1
 _ZTIN8casacore6VectorINS_16RORecordFieldPtrIdEEEE@Base 3.2.1
 _ZTIN8casacore6VectorINS_4UnitEEE@Base 3.2.1
 _ZTIN8casacore6VectorINS_7QuantumIdEEEE@Base 3.2.1
 _ZTIN8casacore6VectorINS_8AutoDiffIdEEEE@Base 3.2.1
 _ZTIN8casacore6VectorINS_9MPositionEEE@Base 3.2.1
 _ZTIN8casacore7MCEpochE@Base 3.2.1
 _ZTIN8casacore7MeasRefINS_10MDirectionEEE@Base 3.2.1
 _ZTIN8casacore7MeasRefINS_10MFrequencyEEE@Base 3.2.1
 _ZTIN8casacore7MeasRefINS_14MEarthMagneticEEE@Base 3.2.1
 _ZTIN8casacore7MeasRefINS_15MRadialVelocityEEE@Base 3.2.1
 _ZTIN8casacore7MeasRefINS_4MuvwEEE@Base 3.2.1
 _ZTIN8casacore7MeasRefINS_6MEpochEEE@Base 3.2.1
 _ZTIN8casacore7MeasRefINS_8MDopplerEEE@Base 3.2.1
 _ZTIN8casacore7MeasRefINS_9MBaselineEEE@Base 3.2.1
 _ZTIN8casacore7MeasRefINS_9MPositionEEE@Base 3.2.1
 _ZTIN8casacore7MeasureE@Base 3.2.1
 _ZTIN8casacore7QuantumINS_6VectorIdEEEE@Base 3.2.1
 _ZTIN8casacore8FunctionINS_8AutoDiffIdEES2_EE@Base 3.2.1
 _ZTIN8casacore8FunctionIddEE@Base 3.2.1
 _ZTIN8casacore8MDopplerE@Base 3.2.1
 _ZTIN8casacore8MeasBaseINS_10MVBaselineENS_7MeasRefINS_9MBaselineEEEEE@Base 3.2.1
 _ZTIN8casacore8MeasBaseINS_10MVPositionENS_7MeasRefINS_9MPositionEEEEE@Base 3.2.1
 _ZTIN8casacore8MeasBaseINS_11MVDirectionENS_7MeasRefINS_10MDirectionEEEEE@Base 3.2.1
 _ZTIN8casacore8MeasBaseINS_11MVFrequencyENS_7MeasRefINS_10MFrequencyEEEEE@Base 3.2.1
 _ZTIN8casacore8MeasBaseINS_15MVEarthMagneticENS_7MeasRefINS_14MEarthMagneticEEEEE@Base 3.2.1
 _ZTIN8casacore8MeasBaseINS_16MVRadialVelocityENS_7MeasRefINS_15MRadialVelocityEEEEE@Base 3.2.1
 _ZTIN8casacore8MeasBaseINS_5MVuvwENS_7MeasRefINS_4MuvwEEEEE@Base 3.2.1
 _ZTIN8casacore8MeasBaseINS_7MVEpochENS_7MeasRefINS_6MEpochEEEEE@Base 3.2.1
 _ZTIN8casacore8MeasBaseINS_9MVDopplerENS_7MeasRefINS_8MDopplerEEEEE@Base 3.2.1
 _ZTIN8casacore9InitErrorE@Base 3.2.1
 _ZTIN8casacore9MBaselineE@Base 3.2.1
 _ZTIN8casacore9MCDopplerE@Base 3.2.1
 _ZTIN8casacore9MPositionE@Base 3.2.1
 _ZTIN9__gnu_cxx13new_allocatorIN8casacore10MDirectionEEE@Base 3.2.1
 _ZTIN9__gnu_cxx13new_allocatorIN8casacore10MFrequencyEEE@Base 3.2.1
 _ZTIN9__gnu_cxx13new_allocatorIN8casacore10MVPositionEEE@Base 3.2.1
 _ZTIN9__gnu_cxx13new_allocatorIN8casacore16RORecordFieldPtrIdEEEE@Base 3.2.1
 _ZTIN9__gnu_cxx13new_allocatorIN8casacore4UnitEEE@Base 3.2.1
 _ZTIN9__gnu_cxx13new_allocatorIN8casacore6VectorIdEEEE@Base 3.2.1
 _ZTIN9__gnu_cxx13new_allocatorIN8casacore7QuantumIdEEEE@Base 3.2.1
 _ZTIN9__gnu_cxx13new_allocatorIN8casacore8AutoDiffIdEEEE@Base 3.2.1
 _ZTIN9__gnu_cxx13new_allocatorIN8casacore9MPositionEEE@Base 3.2.1
 _ZTIN9__gnu_cxx13new_allocatorIPN8casacore6SlicerEEE@Base 3.2.1
 _ZTIN9__gnu_cxx13new_allocatorIPN8casacore9MeasValueEEE@Base 3.2.1
 _ZTIN9__gnu_cxx13new_allocatorIiEE@Base 3.2.1
 _ZTIN9__gnu_cxx13new_allocatorIjEE@Base 3.2.1
 _ZTISaIN8casacore10MDirectionEE@Base 3.2.1
 _ZTISaIN8casacore10MFrequencyEE@Base 3.2.1
 _ZTISaIN8casacore10MVPositionEE@Base 3.2.1
 _ZTISaIN8casacore16RORecordFieldPtrIdEEE@Base 3.2.1
 _ZTISaIN8casacore4UnitEE@Base 3.2.1
 _ZTISaIN8casacore6VectorIdEEE@Base 3.2.1
 _ZTISaIN8casacore7QuantumIdEEE@Base 3.2.1
 _ZTISaIN8casacore8AutoDiffIdEEE@Base 3.2.1
 _ZTISaIN8casacore9MPositionEE@Base 3.2.1
 _ZTISaIPN8casacore6SlicerEE@Base 3.2.1
 _ZTISaIPN8casacore9MeasValueEE@Base 3.2.1
 _ZTISaIiE@Base 3.2.1
 _ZTISaIjE@Base 3.2.1
 _ZTISt11_Mutex_baseILN9__gnu_cxx12_Lock_policyE2EE@Base 3.2.1
 _ZTISt15_Sp_counted_ptrIPN8casacore17TableMeasDescBaseELN9__gnu_cxx12_Lock_policyE2EE@Base 3.2.1
 _ZTISt15_Sp_counted_ptrIPN8casacore5BlockINS0_10MDirectionEEELN9__gnu_cxx12_Lock_policyE2EE@Base 3.2.1
 _ZTISt15_Sp_counted_ptrIPN8casacore5BlockINS0_10MFrequencyEEELN9__gnu_cxx12_Lock_policyE2EE@Base 3.2.1
 _ZTISt15_Sp_counted_ptrIPN8casacore5BlockINS0_10MVPositionEEELN9__gnu_cxx12_Lock_policyE2EE@Base 3.2.1
 _ZTISt15_Sp_counted_ptrIPN8casacore5BlockINS0_16RORecordFieldPtrIdEEEELN9__gnu_cxx12_Lock_policyE2EE@Base 3.2.1
 _ZTISt15_Sp_counted_ptrIPN8casacore5BlockINS0_4UnitEEELN9__gnu_cxx12_Lock_policyE2EE@Base 3.2.1
 _ZTISt15_Sp_counted_ptrIPN8casacore5BlockINS0_6VectorIdEEEELN9__gnu_cxx12_Lock_policyE2EE@Base 3.2.1
 _ZTISt15_Sp_counted_ptrIPN8casacore5BlockINS0_7QuantumIdEEEELN9__gnu_cxx12_Lock_policyE2EE@Base 3.2.1
 _ZTISt15_Sp_counted_ptrIPN8casacore5BlockINS0_8AutoDiffIdEEEELN9__gnu_cxx12_Lock_policyE2EE@Base 3.2.1
 _ZTISt15_Sp_counted_ptrIPN8casacore5BlockINS0_9MPositionEEELN9__gnu_cxx12_Lock_policyE2EE@Base 3.2.1
 _ZTISt15_Sp_counted_ptrIPN8casacore7MeasRefINS0_10MDirectionEE6RefRepELN9__gnu_cxx12_Lock_policyE2EE@Base 3.2.1
 _ZTISt15_Sp_counted_ptrIPN8casacore7MeasRefINS0_10MFrequencyEE6RefRepELN9__gnu_cxx12_Lock_policyE2EE@Base 3.2.1
 _ZTISt15_Sp_counted_ptrIPN8casacore7MeasRefINS0_14MEarthMagneticEE6RefRepELN9__gnu_cxx12_Lock_policyE2EE@Base 3.2.1
 _ZTISt15_Sp_counted_ptrIPN8casacore7MeasRefINS0_15MRadialVelocityEE6RefRepELN9__gnu_cxx12_Lock_policyE2EE@Base 3.2.1
 _ZTISt15_Sp_counted_ptrIPN8casacore7MeasRefINS0_4MuvwEE6RefRepELN9__gnu_cxx12_Lock_policyE2EE@Base 3.2.1
 _ZTISt15_Sp_counted_ptrIPN8casacore7MeasRefINS0_6MEpochEE6RefRepELN9__gnu_cxx12_Lock_policyE2EE@Base 3.2.1
 _ZTISt15_Sp_counted_ptrIPN8casacore7MeasRefINS0_8MDopplerEE6RefRepELN9__gnu_cxx12_Lock_policyE2EE@Base 3.2.1
 _ZTISt15_Sp_counted_ptrIPN8casacore7MeasRefINS0_9MBaselineEE6RefRepELN9__gnu_cxx12_Lock_policyE2EE@Base 3.2.1
 _ZTISt15_Sp_counted_ptrIPN8casacore7MeasRefINS0_9MPositionEE6RefRepELN9__gnu_cxx12_Lock_policyE2EE@Base 3.2.1
 _ZTISt16_Sp_counted_baseILN9__gnu_cxx12_Lock_policyE2EE@Base 3.2.1
 _ZTISt19_Sp_counted_deleterIPN8casacore21ArrayPositionIteratorENS0_10CountedPtrIS1_E7DeleterIS1_EESaIvELN9__gnu_cxx12_Lock_policyE2EE@Base 3.2.1
 _ZTISt19_Sp_counted_deleterIPN8casacore5BlockINS0_10MDirectionEEENS0_10CountedPtrIS3_E7DeleterIS3_EESaIvELN9__gnu_cxx12_Lock_policyE2EE@Base 3.2.1
 _ZTISt19_Sp_counted_deleterIPN8casacore5BlockINS0_10MFrequencyEEENS0_10CountedPtrIS3_E7DeleterIS3_EESaIvELN9__gnu_cxx12_Lock_policyE2EE@Base 3.2.1
 _ZTISt19_Sp_counted_deleterIPN8casacore5BlockINS0_10MVPositionEEENS0_10CountedPtrIS3_E7DeleterIS3_EESaIvELN9__gnu_cxx12_Lock_policyE2EE@Base 3.2.1
 _ZTISt19_Sp_counted_deleterIPN8casacore5BlockINS0_16RORecordFieldPtrIdEEEENS0_10CountedPtrIS4_E7DeleterIS4_EESaIvELN9__gnu_cxx12_Lock_policyE2EE@Base 3.2.1
 _ZTISt19_Sp_counted_deleterIPN8casacore5BlockINS0_4UnitEEENS0_10CountedPtrIS3_E7DeleterIS3_EESaIvELN9__gnu_cxx12_Lock_policyE2EE@Base 3.2.1
 _ZTISt19_Sp_counted_deleterIPN8casacore5BlockINS0_6VectorIdEEEENS0_10CountedPtrIS4_E7DeleterIS4_EESaIvELN9__gnu_cxx12_Lock_policyE2EE@Base 3.2.1
 _ZTISt19_Sp_counted_deleterIPN8casacore5BlockINS0_7QuantumIdEEEENS0_10CountedPtrIS4_E7DeleterIS4_EESaIvELN9__gnu_cxx12_Lock_policyE2EE@Base 3.2.1
 _ZTISt19_Sp_counted_deleterIPN8casacore5BlockINS0_8AutoDiffIdEEEENS0_10CountedPtrIS4_E7DeleterIS4_EESaIvELN9__gnu_cxx12_Lock_policyE2EE@Base 3.2.1
 _ZTISt19_Sp_counted_deleterIPN8casacore5BlockINS0_9MPositionEEENS0_10CountedPtrIS3_E7DeleterIS3_EESaIvELN9__gnu_cxx12_Lock_policyE2EE@Base 3.2.1
 _ZTISt19_Sp_counted_deleterIPN8casacore6MatrixIdEENS0_10CountedPtrIS2_E7DeleterIS2_EESaIvELN9__gnu_cxx12_Lock_policyE2EE@Base 3.2.1
 _ZTISt19_Sp_counted_deleterIPN8casacore9ArrayBaseENS0_10CountedPtrIS1_E7DeleterIS1_EESaIvELN9__gnu_cxx12_Lock_policyE2EE@Base 3.2.1
 _ZTSN8casacore10CountedPtrINS_21ArrayPositionIteratorEE7DeleterIS1_EE@Base 3.2.1
 _ZTSN8casacore10CountedPtrINS_5BlockINS_10MDirectionEEEE7DeleterIS3_EE@Base 3.2.1
 _ZTSN8casacore10CountedPtrINS_5BlockINS_10MFrequencyEEEE7DeleterIS3_EE@Base 3.2.1
 _ZTSN8casacore10CountedPtrINS_5BlockINS_10MVPositionEEEE7DeleterIS3_EE@Base 3.2.1
 _ZTSN8casacore10CountedPtrINS_5BlockINS_16RORecordFieldPtrIdEEEEE7DeleterIS4_EE@Base 3.2.1
 _ZTSN8casacore10CountedPtrINS_5BlockINS_4UnitEEEE7DeleterIS3_EE@Base 3.2.1
 _ZTSN8casacore10CountedPtrINS_5BlockINS_6VectorIdEEEEE7DeleterIS4_EE@Base 3.2.1
 _ZTSN8casacore10CountedPtrINS_5BlockINS_7QuantumIdEEEEE7DeleterIS4_EE@Base 3.2.1
 _ZTSN8casacore10CountedPtrINS_5BlockINS_8AutoDiffIdEEEEE7DeleterIS4_EE@Base 3.2.1
 _ZTSN8casacore10CountedPtrINS_5BlockINS_9MPositionEEEE7DeleterIS3_EE@Base 3.2.1
 _ZTSN8casacore10CountedPtrINS_6MatrixIdEEE7DeleterIS2_EE@Base 3.2.1
 _ZTSN8casacore10CountedPtrINS_9ArrayBaseEE7DeleterIS1_EE@Base 3.2.1
 _ZTSN8casacore10Function1DINS_8AutoDiffIdEES2_EE@Base 3.2.1
 _ZTSN8casacore10Function1DIddEE@Base 3.2.1
 _ZTSN8casacore10FunctionalINS_6VectorIdEENS_8AutoDiffIdEEEE@Base 3.2.1
 _ZTSN8casacore10FunctionalINS_6VectorIdEEdEE@Base 3.2.1
 _ZTSN8casacore10FunctionalIdNS_8AutoDiffIdEEEE@Base 3.2.1
 _ZTSN8casacore10FunctionalIddEE@Base 3.2.1
 _ZTSN8casacore10MCBaselineE@Base 3.2.1
 _ZTSN8casacore10MCPositionE@Base 3.2.1
 _ZTSN8casacore10MDirectionE@Base 3.2.1
 _ZTSN8casacore10MFrequencyE@Base 3.2.1
 _ZTSN8casacore10PolynomialINS_8AutoDiffIdEEEE@Base 3.2.1
 _ZTSN8casacore10PolynomialIdEE@Base 3.2.1
 _ZTSN8casacore11MCDirectionE@Base 3.2.1
 _ZTSN8casacore11MCFrequencyE@Base 3.2.1
 _ZTSN8casacore11MeasConvertINS_10MDirectionEEE@Base 3.2.1
 _ZTSN8casacore11MeasConvertINS_10MFrequencyEEE@Base 3.2.1
 _ZTSN8casacore11MeasConvertINS_14MEarthMagneticEEE@Base 3.2.1
 _ZTSN8casacore11MeasConvertINS_15MRadialVelocityEEE@Base 3.2.1
 _ZTSN8casacore11MeasConvertINS_4MuvwEEE@Base 3.2.1
 _ZTSN8casacore11MeasConvertINS_6MEpochEEE@Base 3.2.1
 _ZTSN8casacore11MeasConvertINS_8MDopplerEEE@Base 3.2.1
 _ZTSN8casacore11MeasConvertINS_9MBaselineEEE@Base 3.2.1
 _ZTSN8casacore11MeasConvertINS_9MPositionEEE@Base 3.2.1
 _ZTSN8casacore12MConvertBaseE@Base 3.2.1
 _ZTSN8casacore12MeasTableMulE@Base 3.2.1
 _ZTSN8casacore13ArrayIteratorINS_10MDirectionEEE@Base 3.2.1
 _ZTSN8casacore13ArrayIteratorINS_10MFrequencyEEE@Base 3.2.1
 _ZTSN8casacore13ArrayIteratorINS_10MVPositionEEE@Base 3.2.1
 _ZTSN8casacore13ArrayIteratorINS_16RORecordFieldPtrIdEEEE@Base 3.2.1
 _ZTSN8casacore13ArrayIteratorINS_4UnitEEE@Base 3.2.1
 _ZTSN8casacore13ArrayIteratorINS_6VectorIdEEEE@Base 3.2.1
 _ZTSN8casacore13ArrayIteratorINS_7QuantumIdEEEE@Base 3.2.1
 _ZTSN8casacore13ArrayIteratorINS_8AutoDiffIdEEEE@Base 3.2.1
 _ZTSN8casacore13ArrayIteratorINS_9MPositionEEE@Base 3.2.1
 _ZTSN8casacore13BaseAllocatorINS_10MDirectionENS_15NewDelAllocatorIS1_EEEE@Base 3.2.1
 _ZTSN8casacore13BaseAllocatorINS_10MDirectionENS_16AlignedAllocatorIS1_Lm32EEEEE@Base 3.2.1
 _ZTSN8casacore13BaseAllocatorINS_10MFrequencyENS_15NewDelAllocatorIS1_EEEE@Base 3.2.1
 _ZTSN8casacore13BaseAllocatorINS_10MFrequencyENS_16AlignedAllocatorIS1_Lm32EEEEE@Base 3.2.1
 _ZTSN8casacore13BaseAllocatorINS_10MVPositionENS_15NewDelAllocatorIS1_EEEE@Base 3.2.1
 _ZTSN8casacore13BaseAllocatorINS_10MVPositionENS_16AlignedAllocatorIS1_Lm32EEEEE@Base 3.2.1
 _ZTSN8casacore13BaseAllocatorINS_16RORecordFieldPtrIdEENS_15NewDelAllocatorIS2_EEEE@Base 3.2.1
 _ZTSN8casacore13BaseAllocatorINS_16RORecordFieldPtrIdEENS_16AlignedAllocatorIS2_Lm32EEEEE@Base 3.2.1
 _ZTSN8casacore13BaseAllocatorINS_4UnitENS_15NewDelAllocatorIS1_EEEE@Base 3.2.1
 _ZTSN8casacore13BaseAllocatorINS_4UnitENS_16AlignedAllocatorIS1_Lm32EEEEE@Base 3.2.1
 _ZTSN8casacore13BaseAllocatorINS_6VectorIdEENS_15NewDelAllocatorIS2_EEEE@Base 3.2.1
 _ZTSN8casacore13BaseAllocatorINS_6VectorIdEENS_16AlignedAllocatorIS2_Lm32EEEEE@Base 3.2.1
 _ZTSN8casacore13BaseAllocatorINS_7QuantumIdEENS_15NewDelAllocatorIS2_EEEE@Base 3.2.1
 _ZTSN8casacore13BaseAllocatorINS_7QuantumIdEENS_16AlignedAllocatorIS2_Lm32EEEEE@Base 3.2.1
 _ZTSN8casacore13BaseAllocatorINS_8AutoDiffIdEENS_15NewDelAllocatorIS2_EEEE@Base 3.2.1
 _ZTSN8casacore13BaseAllocatorINS_8AutoDiffIdEENS_16AlignedAllocatorIS2_Lm32EEEEE@Base 3.2.1
 _ZTSN8casacore13BaseAllocatorINS_9MPositionENS_15NewDelAllocatorIS1_EEEE@Base 3.2.1
 _ZTSN8casacore13BaseAllocatorINS_9MPositionENS_16AlignedAllocatorIS1_Lm32EEEEE@Base 3.2.1
 _ZTSN8casacore13BaseAllocatorIPNS_6SlicerENS_15NewDelAllocatorIS2_EEEE@Base 3.2.1
 _ZTSN8casacore13BaseAllocatorIPNS_6SlicerENS_16AlignedAllocatorIS2_Lm32EEEEE@Base 3.2.1
 _ZTSN8casacore13FunctionParamINS_8AutoDiffIdEEEE@Base 3.2.1
 _ZTSN8casacore13FunctionParamIdEE@Base 3.2.1
 _ZTSN8casacore13MeasureHolderE@Base 3.2.1
 _ZTSN8casacore13MeasuresProxyE@Base 3.2.1
 _ZTSN8casacore14MEarthMagneticE@Base 3.2.1
 _ZTSN8casacore14MeasTableMulSCE@Base 3.2.1
 _ZTSN8casacore14RecordFieldPtrINS_6StringEEE@Base 3.2.1
 _ZTSN8casacore14RecordFieldPtrIdEE@Base 3.2.1
 _ZTSN8casacore15MCEarthMagneticE@Base 3.2.1
 _ZTSN8casacore15MRadialVelocityE@Base 3.2.1
 _ZTSN8casacore15NewDelAllocatorINS_10MDirectionEEE@Base 3.2.1
 _ZTSN8casacore15NewDelAllocatorINS_10MFrequencyEEE@Base 3.2.1
 _ZTSN8casacore15NewDelAllocatorINS_10MVPositionEEE@Base 3.2.1
 _ZTSN8casacore15NewDelAllocatorINS_16RORecordFieldPtrIdEEEE@Base 3.2.1
 _ZTSN8casacore15NewDelAllocatorINS_4UnitEEE@Base 3.2.1
 _ZTSN8casacore15NewDelAllocatorINS_6VectorIdEEEE@Base 3.2.1
 _ZTSN8casacore15NewDelAllocatorINS_7QuantumIdEEEE@Base 3.2.1
 _ZTSN8casacore15NewDelAllocatorINS_8AutoDiffIdEEEE@Base 3.2.1
 _ZTSN8casacore15NewDelAllocatorINS_9MPositionEEE@Base 3.2.1
 _ZTSN8casacore15NewDelAllocatorIPNS_6SlicerEEE@Base 3.2.1
 _ZTSN8casacore15PolynomialParamINS_8AutoDiffIdEEEE@Base 3.2.1
 _ZTSN8casacore15PolynomialParamIdEE@Base 3.2.1
 _ZTSN8casacore15TableMeasColumnE@Base 3.2.1
 _ZTSN8casacore16AlignedAllocatorINS_10MDirectionELm32EEE@Base 3.2.1
 _ZTSN8casacore16AlignedAllocatorINS_10MFrequencyELm32EEE@Base 3.2.1
 _ZTSN8casacore16AlignedAllocatorINS_10MVPositionELm32EEE@Base 3.2.1
 _ZTSN8casacore16AlignedAllocatorINS_16RORecordFieldPtrIdEELm32EEE@Base 3.2.1
 _ZTSN8casacore16AlignedAllocatorINS_4UnitELm32EEE@Base 3.2.1
 _ZTSN8casacore16AlignedAllocatorINS_6VectorIdEELm32EEE@Base 3.2.1
 _ZTSN8casacore16AlignedAllocatorINS_7QuantumIdEELm32EEE@Base 3.2.1
 _ZTSN8casacore16AlignedAllocatorINS_8AutoDiffIdEELm32EEE@Base 3.2.1
 _ZTSN8casacore16AlignedAllocatorINS_9MPositionELm32EEE@Base 3.2.1
 _ZTSN8casacore16AlignedAllocatorIPNS_6SlicerELm32EEE@Base 3.2.1
 _ZTSN8casacore16DefaultAllocatorINS_10MDirectionEEE@Base 3.2.1
 _ZTSN8casacore16DefaultAllocatorINS_10MFrequencyEEE@Base 3.2.1
 _ZTSN8casacore16DefaultAllocatorINS_10MVPositionEEE@Base 3.2.1
 _ZTSN8casacore16DefaultAllocatorINS_16RORecordFieldPtrIdEEEE@Base 3.2.1
 _ZTSN8casacore16DefaultAllocatorINS_4UnitEEE@Base 3.2.1
 _ZTSN8casacore16DefaultAllocatorINS_6VectorIdEEEE@Base 3.2.1
 _ZTSN8casacore16DefaultAllocatorINS_7QuantumIdEEEE@Base 3.2.1
 _ZTSN8casacore16DefaultAllocatorINS_8AutoDiffIdEEEE@Base 3.2.1
 _ZTSN8casacore16DefaultAllocatorINS_9MPositionEEE@Base 3.2.1
 _ZTSN8casacore16DefaultAllocatorIPNS_6SlicerEEE@Base 3.2.1
 _ZTSN8casacore16MCRadialVelocityE@Base 3.2.1
 _ZTSN8casacore16MeasTableMulAberE@Base 3.2.1
 _ZTSN8casacore17AbstractAllocatorINS_10MDirectionEEE@Base 3.2.1
 _ZTSN8casacore17AbstractAllocatorINS_10MFrequencyEEE@Base 3.2.1
 _ZTSN8casacore17AbstractAllocatorINS_10MVPositionEEE@Base 3.2.1
 _ZTSN8casacore17AbstractAllocatorINS_16RORecordFieldPtrIdEEEE@Base 3.2.1
 _ZTSN8casacore17AbstractAllocatorINS_4UnitEEE@Base 3.2.1
 _ZTSN8casacore17AbstractAllocatorINS_6VectorIdEEEE@Base 3.2.1
 _ZTSN8casacore17AbstractAllocatorINS_7QuantumIdEEEE@Base 3.2.1
 _ZTSN8casacore17AbstractAllocatorINS_8AutoDiffIdEEEE@Base 3.2.1
 _ZTSN8casacore17AbstractAllocatorINS_9MPositionEEE@Base 3.2.1
 _ZTSN8casacore17AbstractAllocatorIPNS_6SlicerEEE@Base 3.2.1
 _ZTSN8casacore17Allocator_private13BulkAllocatorINS_10MDirectionEEE@Base 3.2.1
 _ZTSN8casacore17Allocator_private13BulkAllocatorINS_10MFrequencyEEE@Base 3.2.1
 _ZTSN8casacore17Allocator_private13BulkAllocatorINS_10MVPositionEEE@Base 3.2.1
 _ZTSN8casacore17Allocator_private13BulkAllocatorINS_16RORecordFieldPtrIdEEEE@Base 3.2.1
 _ZTSN8casacore17Allocator_private13BulkAllocatorINS_4UnitEEE@Base 3.2.1
 _ZTSN8casacore17Allocator_private13BulkAllocatorINS_6VectorIdEEEE@Base 3.2.1
 _ZTSN8casacore17Allocator_private13BulkAllocatorINS_7QuantumIdEEEE@Base 3.2.1
 _ZTSN8casacore17Allocator_private13BulkAllocatorINS_8AutoDiffIdEEEE@Base 3.2.1
 _ZTSN8casacore17Allocator_private13BulkAllocatorINS_9MPositionEEE@Base 3.2.1
 _ZTSN8casacore17Allocator_private13BulkAllocatorIPNS_6SlicerEEE@Base 3.2.1
 _ZTSN8casacore17Allocator_private13BulkAllocatorIPNS_9MeasValueEEE@Base 3.2.1
 _ZTSN8casacore17Allocator_private13BulkAllocatorIiEE@Base 3.2.1
 _ZTSN8casacore17Allocator_private13BulkAllocatorIjEE@Base 3.2.1
 _ZTSN8casacore17Allocator_private17BulkAllocatorImplINS_17new_del_allocatorINS_10MDirectionEEEEE@Base 3.2.1
 _ZTSN8casacore17Allocator_private17BulkAllocatorImplINS_17new_del_allocatorINS_10MFrequencyEEEEE@Base 3.2.1
 _ZTSN8casacore17Allocator_private17BulkAllocatorImplINS_17new_del_allocatorINS_10MVPositionEEEEE@Base 3.2.1
 _ZTSN8casacore17Allocator_private17BulkAllocatorImplINS_17new_del_allocatorINS_16RORecordFieldPtrIdEEEEEE@Base 3.2.1
 _ZTSN8casacore17Allocator_private17BulkAllocatorImplINS_17new_del_allocatorINS_4UnitEEEEE@Base 3.2.1
 _ZTSN8casacore17Allocator_private17BulkAllocatorImplINS_17new_del_allocatorINS_6VectorIdEEEEEE@Base 3.2.1
 _ZTSN8casacore17Allocator_private17BulkAllocatorImplINS_17new_del_allocatorINS_7QuantumIdEEEEEE@Base 3.2.1
 _ZTSN8casacore17Allocator_private17BulkAllocatorImplINS_17new_del_allocatorINS_8AutoDiffIdEEEEEE@Base 3.2.1
 _ZTSN8casacore17Allocator_private17BulkAllocatorImplINS_17new_del_allocatorINS_9MPositionEEEEE@Base 3.2.1
 _ZTSN8casacore17Allocator_private17BulkAllocatorImplINS_17new_del_allocatorIPNS_6SlicerEEEEE@Base 3.2.1
 _ZTSN8casacore17Allocator_private17BulkAllocatorImplINS_18casacore_allocatorINS_10MDirectionELm32EEEEE@Base 3.2.1
 _ZTSN8casacore17Allocator_private17BulkAllocatorImplINS_18casacore_allocatorINS_10MFrequencyELm32EEEEE@Base 3.2.1
 _ZTSN8casacore17Allocator_private17BulkAllocatorImplINS_18casacore_allocatorINS_10MVPositionELm32EEEEE@Base 3.2.1
 _ZTSN8casacore17Allocator_private17BulkAllocatorImplINS_18casacore_allocatorINS_16RORecordFieldPtrIdEELm32EEEEE@Base 3.2.1
 _ZTSN8casacore17Allocator_private17BulkAllocatorImplINS_18casacore_allocatorINS_4UnitELm32EEEEE@Base 3.2.1
 _ZTSN8casacore17Allocator_private17BulkAllocatorImplINS_18casacore_allocatorINS_6VectorIdEELm32EEEEE@Base 3.2.1
 _ZTSN8casacore17Allocator_private17BulkAllocatorImplINS_18casacore_allocatorINS_7QuantumIdEELm32EEEEE@Base 3.2.1
 _ZTSN8casacore17Allocator_private17BulkAllocatorImplINS_18casacore_allocatorINS_8AutoDiffIdEELm32EEEEE@Base 3.2.1
 _ZTSN8casacore17Allocator_private17BulkAllocatorImplINS_18casacore_allocatorINS_9MPositionELm32EEEEE@Base 3.2.1
 _ZTSN8casacore17Allocator_private17BulkAllocatorImplINS_18casacore_allocatorIPNS_6SlicerELm32EEEEE@Base 3.2.1
 _ZTSN8casacore17Allocator_private17BulkAllocatorImplINS_18casacore_allocatorIPNS_9MeasValueELm32EEEEE@Base 3.2.1
 _ZTSN8casacore17Allocator_private17BulkAllocatorImplINS_18casacore_allocatorIiLm32EEEEE@Base 3.2.1
 _ZTSN8casacore17Allocator_private17BulkAllocatorImplINS_18casacore_allocatorIjLm32EEEEE@Base 3.2.1
 _ZTSN8casacore17TableMeasDescBaseE@Base 3.2.1
 _ZTSN8casacore17new_del_allocatorINS_10MDirectionEEE@Base 3.2.1
 _ZTSN8casacore17new_del_allocatorINS_10MFrequencyEEE@Base 3.2.1
 _ZTSN8casacore17new_del_allocatorINS_10MVPositionEEE@Base 3.2.1
 _ZTSN8casacore17new_del_allocatorINS_16RORecordFieldPtrIdEEEE@Base 3.2.1
 _ZTSN8casacore17new_del_allocatorINS_4UnitEEE@Base 3.2.1
 _ZTSN8casacore17new_del_allocatorINS_6VectorIdEEEE@Base 3.2.1
 _ZTSN8casacore17new_del_allocatorINS_7QuantumIdEEEE@Base 3.2.1
 _ZTSN8casacore17new_del_allocatorINS_8AutoDiffIdEEEE@Base 3.2.1
 _ZTSN8casacore17new_del_allocatorINS_9MPositionEEE@Base 3.2.1
 _ZTSN8casacore17new_del_allocatorIPNS_6SlicerEEE@Base 3.2.1
 _ZTSN8casacore18MeasTableMulSC1950E@Base 3.2.1
 _ZTSN8casacore18MeasTableMulSCBaseE@Base 3.2.1
 _ZTSN8casacore18casacore_allocatorINS_10MDirectionELm32EEE@Base 3.2.1
 _ZTSN8casacore18casacore_allocatorINS_10MFrequencyELm32EEE@Base 3.2.1
 _ZTSN8casacore18casacore_allocatorINS_10MVPositionELm32EEE@Base 3.2.1
 _ZTSN8casacore18casacore_allocatorINS_16RORecordFieldPtrIdEELm32EEE@Base 3.2.1
 _ZTSN8casacore18casacore_allocatorINS_4UnitELm32EEE@Base 3.2.1
 _ZTSN8casacore18casacore_allocatorINS_6VectorIdEELm32EEE@Base 3.2.1
 _ZTSN8casacore18casacore_allocatorINS_7QuantumIdEELm32EEE@Base 3.2.1
 _ZTSN8casacore18casacore_allocatorINS_8AutoDiffIdEELm32EEE@Base 3.2.1
 _ZTSN8casacore18casacore_allocatorINS_9MPositionELm32EEE@Base 3.2.1
 _ZTSN8casacore18casacore_allocatorIPNS_6SlicerELm32EEE@Base 3.2.1
 _ZTSN8casacore18casacore_allocatorIPNS_9MeasValueELm32EEE@Base 3.2.1
 _ZTSN8casacore18casacore_allocatorIiLm32EEE@Base 3.2.1
 _ZTSN8casacore18casacore_allocatorIjLm32EEE@Base 3.2.1
 _ZTSN8casacore19MeasTableMulPosSunZE@Base 3.2.1
 _ZTSN8casacore19MeasTableMulSC2000AE@Base 3.2.1
 _ZTSN8casacore19MeasTableMulSC2000BE@Base 3.2.1
 _ZTSN8casacore20MeasTableMulAber1950E@Base 3.2.1
 _ZTSN8casacore20MeasTableMulPosSunXYE@Base 3.2.1
 _ZTSN8casacore21MeasTableMulPosEarthZE@Base 3.2.1
 _ZTSN8casacore22MeasTableMulPosEarthXYE@Base 3.2.1
 _ZTSN8casacore22MeasTableMulSC2000BaseE@Base 3.2.1
 _ZTSN8casacore4MuvwE@Base 3.2.1
 _ZTSN8casacore5ArrayINS_10MDirectionEEE@Base 3.2.1
 _ZTSN8casacore5ArrayINS_10MFrequencyEEE@Base 3.2.1
 _ZTSN8casacore5ArrayINS_10MVPositionEEE@Base 3.2.1
 _ZTSN8casacore5ArrayINS_16RORecordFieldPtrIdEEEE@Base 3.2.1
 _ZTSN8casacore5ArrayINS_4UnitEEE@Base 3.2.1
 _ZTSN8casacore5ArrayINS_6VectorIdEEEE@Base 3.2.1
 _ZTSN8casacore5ArrayINS_7QuantumIdEEEE@Base 3.2.1
 _ZTSN8casacore5ArrayINS_8AutoDiffIdEEEE@Base 3.2.1
 _ZTSN8casacore5ArrayINS_9MPositionEEE@Base 3.2.1
 _ZTSN8casacore5MCuvwE@Base 3.2.1
 _ZTSN8casacore6MCBaseE@Base 3.2.1
 _ZTSN8casacore6MEpochE@Base 3.2.1
 _ZTSN8casacore6MRBaseE@Base 3.2.1
 _ZTSN8casacore6VectorINS0_IdEEEE@Base 3.2.1
 _ZTSN8casacore6VectorINS_10MDirectionEEE@Base 3.2.1
 _ZTSN8casacore6VectorINS_10MFrequencyEEE@Base 3.2.1
 _ZTSN8casacore6VectorINS_10MVPositionEEE@Base 3.2.1
 _ZTSN8casacore6VectorINS_16RORecordFieldPtrIdEEEE@Base 3.2.1
 _ZTSN8casacore6VectorINS_4UnitEEE@Base 3.2.1
 _ZTSN8casacore6VectorINS_7QuantumIdEEEE@Base 3.2.1
 _ZTSN8casacore6VectorINS_8AutoDiffIdEEEE@Base 3.2.1
 _ZTSN8casacore6VectorINS_9MPositionEEE@Base 3.2.1
 _ZTSN8casacore7MCEpochE@Base 3.2.1
 _ZTSN8casacore7MeasRefINS_10MDirectionEEE@Base 3.2.1
 _ZTSN8casacore7MeasRefINS_10MFrequencyEEE@Base 3.2.1
 _ZTSN8casacore7MeasRefINS_14MEarthMagneticEEE@Base 3.2.1
 _ZTSN8casacore7MeasRefINS_15MRadialVelocityEEE@Base 3.2.1
 _ZTSN8casacore7MeasRefINS_4MuvwEEE@Base 3.2.1
 _ZTSN8casacore7MeasRefINS_6MEpochEEE@Base 3.2.1
 _ZTSN8casacore7MeasRefINS_8MDopplerEEE@Base 3.2.1
 _ZTSN8casacore7MeasRefINS_9MBaselineEEE@Base 3.2.1
 _ZTSN8casacore7MeasRefINS_9MPositionEEE@Base 3.2.1
 _ZTSN8casacore7MeasureE@Base 3.2.1
 _ZTSN8casacore7QuantumINS_6VectorIdEEEE@Base 3.2.1
 _ZTSN8casacore8FunctionINS_8AutoDiffIdEES2_EE@Base 3.2.1
 _ZTSN8casacore8FunctionIddEE@Base 3.2.1
 _ZTSN8casacore8MDopplerE@Base 3.2.1
 _ZTSN8casacore8MeasBaseINS_10MVBaselineENS_7MeasRefINS_9MBaselineEEEEE@Base 3.2.1
 _ZTSN8casacore8MeasBaseINS_10MVPositionENS_7MeasRefINS_9MPositionEEEEE@Base 3.2.1
 _ZTSN8casacore8MeasBaseINS_11MVDirectionENS_7MeasRefINS_10MDirectionEEEEE@Base 3.2.1
 _ZTSN8casacore8MeasBaseINS_11MVFrequencyENS_7MeasRefINS_10MFrequencyEEEEE@Base 3.2.1
 _ZTSN8casacore8MeasBaseINS_15MVEarthMagneticENS_7MeasRefINS_14MEarthMagneticEEEEE@Base 3.2.1
 _ZTSN8casacore8MeasBaseINS_16MVRadialVelocityENS_7MeasRefINS_15MRadialVelocityEEEEE@Base 3.2.1
 _ZTSN8casacore8MeasBaseINS_5MVuvwENS_7MeasRefINS_4MuvwEEEEE@Base 3.2.1
 _ZTSN8casacore8MeasBaseINS_7MVEpochENS_7MeasRefINS_6MEpochEEEEE@Base 3.2.1
 _ZTSN8casacore8MeasBaseINS_9MVDopplerENS_7MeasRefINS_8MDopplerEEEEE@Base 3.2.1
 _ZTSN8casacore9InitErrorE@Base 3.2.1
 _ZTSN8casacore9MBaselineE@Base 3.2.1
 _ZTSN8casacore9MCDopplerE@Base 3.2.1
 _ZTSN8casacore9MPositionE@Base 3.2.1
 _ZTSN9__gnu_cxx13new_allocatorIN8casacore10MDirectionEEE@Base 3.2.1
 _ZTSN9__gnu_cxx13new_allocatorIN8casacore10MFrequencyEEE@Base 3.2.1
 _ZTSN9__gnu_cxx13new_allocatorIN8casacore10MVPositionEEE@Base 3.2.1
 _ZTSN9__gnu_cxx13new_allocatorIN8casacore16RORecordFieldPtrIdEEEE@Base 3.2.1
 _ZTSN9__gnu_cxx13new_allocatorIN8casacore4UnitEEE@Base 3.2.1
 _ZTSN9__gnu_cxx13new_allocatorIN8casacore6VectorIdEEEE@Base 3.2.1
 _ZTSN9__gnu_cxx13new_allocatorIN8casacore7QuantumIdEEEE@Base 3.2.1
 _ZTSN9__gnu_cxx13new_allocatorIN8casacore8AutoDiffIdEEEE@Base 3.2.1
 _ZTSN9__gnu_cxx13new_allocatorIN8casacore9MPositionEEE@Base 3.2.1
 _ZTSN9__gnu_cxx13new_allocatorIPN8casacore6SlicerEEE@Base 3.2.1
 _ZTSN9__gnu_cxx13new_allocatorIPN8casacore9MeasValueEEE@Base 3.2.1
 _ZTSN9__gnu_cxx13new_allocatorIiEE@Base 3.2.1
 _ZTSN9__gnu_cxx13new_allocatorIjEE@Base 3.2.1
 _ZTSSaIN8casacore10MDirectionEE@Base 3.2.1
 _ZTSSaIN8casacore10MFrequencyEE@Base 3.2.1
 _ZTSSaIN8casacore10MVPositionEE@Base 3.2.1
 _ZTSSaIN8casacore16RORecordFieldPtrIdEEE@Base 3.2.1
 _ZTSSaIN8casacore4UnitEE@Base 3.2.1
 _ZTSSaIN8casacore6VectorIdEEE@Base 3.2.1
 _ZTSSaIN8casacore7QuantumIdEEE@Base 3.2.1
 _ZTSSaIN8casacore8AutoDiffIdEEE@Base 3.2.1
 _ZTSSaIN8casacore9MPositionEE@Base 3.2.1
 _ZTSSaIPN8casacore6SlicerEE@Base 3.2.1
 _ZTSSaIPN8casacore9MeasValueEE@Base 3.2.1
 _ZTSSaIiE@Base 3.2.1
 _ZTSSaIjE@Base 3.2.1
 _ZTSSt11_Mutex_baseILN9__gnu_cxx12_Lock_policyE2EE@Base 3.2.1
 _ZTSSt15_Sp_counted_ptrIPN8casacore17TableMeasDescBaseELN9__gnu_cxx12_Lock_policyE2EE@Base 3.2.1
 _ZTSSt15_Sp_counted_ptrIPN8casacore5BlockINS0_10MDirectionEEELN9__gnu_cxx12_Lock_policyE2EE@Base 3.2.1
 _ZTSSt15_Sp_counted_ptrIPN8casacore5BlockINS0_10MFrequencyEEELN9__gnu_cxx12_Lock_policyE2EE@Base 3.2.1
 _ZTSSt15_Sp_counted_ptrIPN8casacore5BlockINS0_10MVPositionEEELN9__gnu_cxx12_Lock_policyE2EE@Base 3.2.1
 _ZTSSt15_Sp_counted_ptrIPN8casacore5BlockINS0_16RORecordFieldPtrIdEEEELN9__gnu_cxx12_Lock_policyE2EE@Base 3.2.1
 _ZTSSt15_Sp_counted_ptrIPN8casacore5BlockINS0_4UnitEEELN9__gnu_cxx12_Lock_policyE2EE@Base 3.2.1
 _ZTSSt15_Sp_counted_ptrIPN8casacore5BlockINS0_6VectorIdEEEELN9__gnu_cxx12_Lock_policyE2EE@Base 3.2.1
 _ZTSSt15_Sp_counted_ptrIPN8casacore5BlockINS0_7QuantumIdEEEELN9__gnu_cxx12_Lock_policyE2EE@Base 3.2.1
 _ZTSSt15_Sp_counted_ptrIPN8casacore5BlockINS0_8AutoDiffIdEEEELN9__gnu_cxx12_Lock_policyE2EE@Base 3.2.1
 _ZTSSt15_Sp_counted_ptrIPN8casacore5BlockINS0_9MPositionEEELN9__gnu_cxx12_Lock_policyE2EE@Base 3.2.1
 _ZTSSt15_Sp_counted_ptrIPN8casacore7MeasRefINS0_10MDirectionEE6RefRepELN9__gnu_cxx12_Lock_policyE2EE@Base 3.2.1
 _ZTSSt15_Sp_counted_ptrIPN8casacore7MeasRefINS0_10MFrequencyEE6RefRepELN9__gnu_cxx12_Lock_policyE2EE@Base 3.2.1
 _ZTSSt15_Sp_counted_ptrIPN8casacore7MeasRefINS0_14MEarthMagneticEE6RefRepELN9__gnu_cxx12_Lock_policyE2EE@Base 3.2.1
 _ZTSSt15_Sp_counted_ptrIPN8casacore7MeasRefINS0_15MRadialVelocityEE6RefRepELN9__gnu_cxx12_Lock_policyE2EE@Base 3.2.1
 _ZTSSt15_Sp_counted_ptrIPN8casacore7MeasRefINS0_4MuvwEE6RefRepELN9__gnu_cxx12_Lock_policyE2EE@Base 3.2.1
 _ZTSSt15_Sp_counted_ptrIPN8casacore7MeasRefINS0_6MEpochEE6RefRepELN9__gnu_cxx12_Lock_policyE2EE@Base 3.2.1
 _ZTSSt15_Sp_counted_ptrIPN8casacore7MeasRefINS0_8MDopplerEE6RefRepELN9__gnu_cxx12_Lock_policyE2EE@Base 3.2.1
 _ZTSSt15_Sp_counted_ptrIPN8casacore7MeasRefINS0_9MBaselineEE6RefRepELN9__gnu_cxx12_Lock_policyE2EE@Base 3.2.1
 _ZTSSt15_Sp_counted_ptrIPN8casacore7MeasRefINS0_9MPositionEE6RefRepELN9__gnu_cxx12_Lock_policyE2EE@Base 3.2.1
 _ZTSSt16_Sp_counted_baseILN9__gnu_cxx12_Lock_policyE2EE@Base 3.2.1
 _ZTSSt19_Sp_counted_deleterIPN8casacore21ArrayPositionIteratorENS0_10CountedPtrIS1_E7DeleterIS1_EESaIvELN9__gnu_cxx12_Lock_policyE2EE@Base 3.2.1
 _ZTSSt19_Sp_counted_deleterIPN8casacore5BlockINS0_10MDirectionEEENS0_10CountedPtrIS3_E7DeleterIS3_EESaIvELN9__gnu_cxx12_Lock_policyE2EE@Base 3.2.1
 _ZTSSt19_Sp_counted_deleterIPN8casacore5BlockINS0_10MFrequencyEEENS0_10CountedPtrIS3_E7DeleterIS3_EESaIvELN9__gnu_cxx12_Lock_policyE2EE@Base 3.2.1
 _ZTSSt19_Sp_counted_deleterIPN8casacore5BlockINS0_10MVPositionEEENS0_10CountedPtrIS3_E7DeleterIS3_EESaIvELN9__gnu_cxx12_Lock_policyE2EE@Base 3.2.1
 _ZTSSt19_Sp_counted_deleterIPN8casacore5BlockINS0_16RORecordFieldPtrIdEEEENS0_10CountedPtrIS4_E7DeleterIS4_EESaIvELN9__gnu_cxx12_Lock_policyE2EE@Base 3.2.1
 _ZTSSt19_Sp_counted_deleterIPN8casacore5BlockINS0_4UnitEEENS0_10CountedPtrIS3_E7DeleterIS3_EESaIvELN9__gnu_cxx12_Lock_policyE2EE@Base 3.2.1
 _ZTSSt19_Sp_counted_deleterIPN8casacore5BlockINS0_6VectorIdEEEENS0_10CountedPtrIS4_E7DeleterIS4_EESaIvELN9__gnu_cxx12_Lock_policyE2EE@Base 3.2.1
 _ZTSSt19_Sp_counted_deleterIPN8casacore5BlockINS0_7QuantumIdEEEENS0_10CountedPtrIS4_E7DeleterIS4_EESaIvELN9__gnu_cxx12_Lock_policyE2EE@Base 3.2.1
 _ZTSSt19_Sp_counted_deleterIPN8casacore5BlockINS0_8AutoDiffIdEEEENS0_10CountedPtrIS4_E7DeleterIS4_EESaIvELN9__gnu_cxx12_Lock_policyE2EE@Base 3.2.1
 _ZTSSt19_Sp_counted_deleterIPN8casacore5BlockINS0_9MPositionEEENS0_10CountedPtrIS3_E7DeleterIS3_EESaIvELN9__gnu_cxx12_Lock_policyE2EE@Base 3.2.1
 _ZTSSt19_Sp_counted_deleterIPN8casacore6MatrixIdEENS0_10CountedPtrIS2_E7DeleterIS2_EESaIvELN9__gnu_cxx12_Lock_policyE2EE@Base 3.2.1
 _ZTSSt19_Sp_counted_deleterIPN8casacore9ArrayBaseENS0_10CountedPtrIS1_E7DeleterIS1_EESaIvELN9__gnu_cxx12_Lock_policyE2EE@Base 3.2.1
 _ZTVN8casacore10MCBaselineE@Base 3.2.1
 _ZTVN8casacore10MCPositionE@Base 3.2.1
 _ZTVN8casacore10MDirectionE@Base 3.2.1
 _ZTVN8casacore10MFrequencyE@Base 3.2.1
 _ZTVN8casacore10PolynomialINS_8AutoDiffIdEEEE@Base 3.2.1
 _ZTVN8casacore10PolynomialIdEE@Base 3.2.1
 _ZTVN8casacore11MCDirectionE@Base 3.2.1
 _ZTVN8casacore11MCFrequencyE@Base 3.2.1
 _ZTVN8casacore11MeasConvertINS_10MDirectionEEE@Base 3.2.1
 _ZTVN8casacore11MeasConvertINS_10MFrequencyEEE@Base 3.2.1
 _ZTVN8casacore11MeasConvertINS_14MEarthMagneticEEE@Base 3.2.1
 _ZTVN8casacore11MeasConvertINS_15MRadialVelocityEEE@Base 3.2.1
 _ZTVN8casacore11MeasConvertINS_4MuvwEEE@Base 3.2.1
 _ZTVN8casacore11MeasConvertINS_6MEpochEEE@Base 3.2.1
 _ZTVN8casacore11MeasConvertINS_8MDopplerEEE@Base 3.2.1
 _ZTVN8casacore11MeasConvertINS_9MBaselineEEE@Base 3.2.1
 _ZTVN8casacore11MeasConvertINS_9MPositionEEE@Base 3.2.1
 _ZTVN8casacore12MConvertBaseE@Base 3.2.1
 _ZTVN8casacore12MeasTableMulE@Base 3.2.1
 _ZTVN8casacore13ArrayIteratorINS_10MDirectionEEE@Base 3.2.1
 _ZTVN8casacore13ArrayIteratorINS_10MFrequencyEEE@Base 3.2.1
 _ZTVN8casacore13ArrayIteratorINS_10MVPositionEEE@Base 3.2.1
 _ZTVN8casacore13ArrayIteratorINS_16RORecordFieldPtrIdEEEE@Base 3.2.1
 _ZTVN8casacore13ArrayIteratorINS_4UnitEEE@Base 3.2.1
 _ZTVN8casacore13ArrayIteratorINS_6VectorIdEEEE@Base 3.2.1
 _ZTVN8casacore13ArrayIteratorINS_7QuantumIdEEEE@Base 3.2.1
 _ZTVN8casacore13ArrayIteratorINS_8AutoDiffIdEEEE@Base 3.2.1
 _ZTVN8casacore13ArrayIteratorINS_9MPositionEEE@Base 3.2.1
 _ZTVN8casacore13FunctionParamINS_8AutoDiffIdEEEE@Base 3.2.1
 _ZTVN8casacore13FunctionParamIdEE@Base 3.2.1
 _ZTVN8casacore13MeasureHolderE@Base 3.2.1
 _ZTVN8casacore13MeasuresProxyE@Base 3.2.1
 _ZTVN8casacore14MEarthMagneticE@Base 3.2.1
 _ZTVN8casacore14MeasTableMulSCE@Base 3.2.1
 _ZTVN8casacore14RecordFieldPtrINS_6StringEEE@Base 3.2.1
 _ZTVN8casacore14RecordFieldPtrIdEE@Base 3.2.1
 _ZTVN8casacore15MCEarthMagneticE@Base 3.2.1
 _ZTVN8casacore15MRadialVelocityE@Base 3.2.1
 _ZTVN8casacore15NewDelAllocatorINS_10MDirectionEEE@Base 3.2.1
 _ZTVN8casacore15NewDelAllocatorINS_10MFrequencyEEE@Base 3.2.1
 _ZTVN8casacore15NewDelAllocatorINS_10MVPositionEEE@Base 3.2.1
 _ZTVN8casacore15NewDelAllocatorINS_16RORecordFieldPtrIdEEEE@Base 3.2.1
 _ZTVN8casacore15NewDelAllocatorINS_4UnitEEE@Base 3.2.1
 _ZTVN8casacore15NewDelAllocatorINS_6VectorIdEEEE@Base 3.2.1
 _ZTVN8casacore15NewDelAllocatorINS_7QuantumIdEEEE@Base 3.2.1
 _ZTVN8casacore15NewDelAllocatorINS_8AutoDiffIdEEEE@Base 3.2.1
 _ZTVN8casacore15NewDelAllocatorINS_9MPositionEEE@Base 3.2.1
 _ZTVN8casacore15NewDelAllocatorIPNS_6SlicerEEE@Base 3.2.1
 _ZTVN8casacore15TableMeasColumnE@Base 3.2.1
 _ZTVN8casacore16DefaultAllocatorINS_10MDirectionEEE@Base 3.2.1
 _ZTVN8casacore16DefaultAllocatorINS_10MFrequencyEEE@Base 3.2.1
 _ZTVN8casacore16DefaultAllocatorINS_10MVPositionEEE@Base 3.2.1
 _ZTVN8casacore16DefaultAllocatorINS_16RORecordFieldPtrIdEEEE@Base 3.2.1
 _ZTVN8casacore16DefaultAllocatorINS_4UnitEEE@Base 3.2.1
 _ZTVN8casacore16DefaultAllocatorINS_6VectorIdEEEE@Base 3.2.1
 _ZTVN8casacore16DefaultAllocatorINS_7QuantumIdEEEE@Base 3.2.1
 _ZTVN8casacore16DefaultAllocatorINS_8AutoDiffIdEEEE@Base 3.2.1
 _ZTVN8casacore16DefaultAllocatorINS_9MPositionEEE@Base 3.2.1
 _ZTVN8casacore16DefaultAllocatorIPNS_6SlicerEEE@Base 3.2.1
 _ZTVN8casacore16MCRadialVelocityE@Base 3.2.1
 _ZTVN8casacore16MeasTableMulAberE@Base 3.2.1
 _ZTVN8casacore17Allocator_private17BulkAllocatorImplINS_17new_del_allocatorINS_10MDirectionEEEEE@Base 3.2.1
 _ZTVN8casacore17Allocator_private17BulkAllocatorImplINS_17new_del_allocatorINS_10MFrequencyEEEEE@Base 3.2.1
 _ZTVN8casacore17Allocator_private17BulkAllocatorImplINS_17new_del_allocatorINS_10MVPositionEEEEE@Base 3.2.1
 _ZTVN8casacore17Allocator_private17BulkAllocatorImplINS_17new_del_allocatorINS_16RORecordFieldPtrIdEEEEEE@Base 3.2.1
 _ZTVN8casacore17Allocator_private17BulkAllocatorImplINS_17new_del_allocatorINS_4UnitEEEEE@Base 3.2.1
 _ZTVN8casacore17Allocator_private17BulkAllocatorImplINS_17new_del_allocatorINS_6VectorIdEEEEEE@Base 3.2.1
 _ZTVN8casacore17Allocator_private17BulkAllocatorImplINS_17new_del_allocatorINS_7QuantumIdEEEEEE@Base 3.2.1
 _ZTVN8casacore17Allocator_private17BulkAllocatorImplINS_17new_del_allocatorINS_8AutoDiffIdEEEEEE@Base 3.2.1
 _ZTVN8casacore17Allocator_private17BulkAllocatorImplINS_17new_del_allocatorINS_9MPositionEEEEE@Base 3.2.1
 _ZTVN8casacore17Allocator_private17BulkAllocatorImplINS_17new_del_allocatorIPNS_6SlicerEEEEE@Base 3.2.1
 _ZTVN8casacore17Allocator_private17BulkAllocatorImplINS_18casacore_allocatorINS_10MDirectionELm32EEEEE@Base 3.2.1
 _ZTVN8casacore17Allocator_private17BulkAllocatorImplINS_18casacore_allocatorINS_10MFrequencyELm32EEEEE@Base 3.2.1
 _ZTVN8casacore17Allocator_private17BulkAllocatorImplINS_18casacore_allocatorINS_10MVPositionELm32EEEEE@Base 3.2.1
 _ZTVN8casacore17Allocator_private17BulkAllocatorImplINS_18casacore_allocatorINS_16RORecordFieldPtrIdEELm32EEEEE@Base 3.2.1
 _ZTVN8casacore17Allocator_private17BulkAllocatorImplINS_18casacore_allocatorINS_4UnitELm32EEEEE@Base 3.2.1
 _ZTVN8casacore17Allocator_private17BulkAllocatorImplINS_18casacore_allocatorINS_6VectorIdEELm32EEEEE@Base 3.2.1
 _ZTVN8casacore17Allocator_private17BulkAllocatorImplINS_18casacore_allocatorINS_7QuantumIdEELm32EEEEE@Base 3.2.1
 _ZTVN8casacore17Allocator_private17BulkAllocatorImplINS_18casacore_allocatorINS_8AutoDiffIdEELm32EEEEE@Base 3.2.1
 _ZTVN8casacore17Allocator_private17BulkAllocatorImplINS_18casacore_allocatorINS_9MPositionELm32EEEEE@Base 3.2.1
 _ZTVN8casacore17Allocator_private17BulkAllocatorImplINS_18casacore_allocatorIPNS_6SlicerELm32EEEEE@Base 3.2.1
 _ZTVN8casacore17Allocator_private17BulkAllocatorImplINS_18casacore_allocatorIPNS_9MeasValueELm32EEEEE@Base 3.2.1
 _ZTVN8casacore17Allocator_private17BulkAllocatorImplINS_18casacore_allocatorIiLm32EEEEE@Base 3.2.1
 _ZTVN8casacore17Allocator_private17BulkAllocatorImplINS_18casacore_allocatorIjLm32EEEEE@Base 3.2.1
 _ZTVN8casacore17TableMeasDescBaseE@Base 3.2.1
 _ZTVN8casacore18MeasTableMulSC1950E@Base 3.2.1
 _ZTVN8casacore18MeasTableMulSCBaseE@Base 3.2.1
 _ZTVN8casacore19MeasTableMulPosSunZE@Base 3.2.1
 _ZTVN8casacore19MeasTableMulSC2000AE@Base 3.2.1
 _ZTVN8casacore19MeasTableMulSC2000BE@Base 3.2.1
 _ZTVN8casacore20MeasTableMulAber1950E@Base 3.2.1
 _ZTVN8casacore20MeasTableMulPosSunXYE@Base 3.2.1
 _ZTVN8casacore21MeasTableMulPosEarthZE@Base 3.2.1
 _ZTVN8casacore22MeasTableMulPosEarthXYE@Base 3.2.1
 _ZTVN8casacore22MeasTableMulSC2000BaseE@Base 3.2.1
 _ZTVN8casacore4MuvwE@Base 3.2.1
 _ZTVN8casacore5ArrayINS_10MDirectionEEE@Base 3.2.1
 _ZTVN8casacore5ArrayINS_10MFrequencyEEE@Base 3.2.1
 _ZTVN8casacore5ArrayINS_10MVPositionEEE@Base 3.2.1
 _ZTVN8casacore5ArrayINS_16RORecordFieldPtrIdEEEE@Base 3.2.1
 _ZTVN8casacore5ArrayINS_4UnitEEE@Base 3.2.1
 _ZTVN8casacore5ArrayINS_6VectorIdEEEE@Base 3.2.1
 _ZTVN8casacore5ArrayINS_7QuantumIdEEEE@Base 3.2.1
 _ZTVN8casacore5ArrayINS_8AutoDiffIdEEEE@Base 3.2.1
 _ZTVN8casacore5ArrayINS_9MPositionEEE@Base 3.2.1
 _ZTVN8casacore5MCuvwE@Base 3.2.1
 _ZTVN8casacore6MCBaseE@Base 3.2.1
 _ZTVN8casacore6MEpochE@Base 3.2.1
 _ZTVN8casacore6MRBaseE@Base 3.2.1
 _ZTVN8casacore6VectorINS0_IdEEEE@Base 3.2.1
 _ZTVN8casacore6VectorINS_10MDirectionEEE@Base 3.2.1
 _ZTVN8casacore6VectorINS_10MFrequencyEEE@Base 3.2.1
 _ZTVN8casacore6VectorINS_10MVPositionEEE@Base 3.2.1
 _ZTVN8casacore6VectorINS_16RORecordFieldPtrIdEEEE@Base 3.2.1
 _ZTVN8casacore6VectorINS_4UnitEEE@Base 3.2.1
 _ZTVN8casacore6VectorINS_7QuantumIdEEEE@Base 3.2.1
 _ZTVN8casacore6VectorINS_8AutoDiffIdEEEE@Base 3.2.1
 _ZTVN8casacore6VectorINS_9MPositionEEE@Base 3.2.1
 _ZTVN8casacore7MCEpochE@Base 3.2.1
 _ZTVN8casacore7MeasRefINS_10MDirectionEEE@Base 3.2.1
 _ZTVN8casacore7MeasRefINS_10MFrequencyEEE@Base 3.2.1
 _ZTVN8casacore7MeasRefINS_14MEarthMagneticEEE@Base 3.2.1
 _ZTVN8casacore7MeasRefINS_15MRadialVelocityEEE@Base 3.2.1
 _ZTVN8casacore7MeasRefINS_4MuvwEEE@Base 3.2.1
 _ZTVN8casacore7MeasRefINS_6MEpochEEE@Base 3.2.1
 _ZTVN8casacore7MeasRefINS_8MDopplerEEE@Base 3.2.1
 _ZTVN8casacore7MeasRefINS_9MBaselineEEE@Base 3.2.1
 _ZTVN8casacore7MeasRefINS_9MPositionEEE@Base 3.2.1
 _ZTVN8casacore7MeasureE@Base 3.2.1
 _ZTVN8casacore7QuantumINS_6VectorIdEEEE@Base 3.2.1
 _ZTVN8casacore8FunctionINS_8AutoDiffIdEES2_EE@Base 3.2.1
 _ZTVN8casacore8FunctionIddEE@Base 3.2.1
 _ZTVN8casacore8MDopplerE@Base 3.2.1
 _ZTVN8casacore8MeasBaseINS_10MVBaselineENS_7MeasRefINS_9MBaselineEEEEE@Base 3.2.1
 _ZTVN8casacore8MeasBaseINS_10MVPositionENS_7MeasRefINS_9MPositionEEEEE@Base 3.2.1
 _ZTVN8casacore8MeasBaseINS_11MVDirectionENS_7MeasRefINS_10MDirectionEEEEE@Base 3.2.1
 _ZTVN8casacore8MeasBaseINS_11MVFrequencyENS_7MeasRefINS_10MFrequencyEEEEE@Base 3.2.1
 _ZTVN8casacore8MeasBaseINS_15MVEarthMagneticENS_7MeasRefINS_14MEarthMagneticEEEEE@Base 3.2.1
 _ZTVN8casacore8MeasBaseINS_16MVRadialVelocityENS_7MeasRefINS_15MRadialVelocityEEEEE@Base 3.2.1
 _ZTVN8casacore8MeasBaseINS_5MVuvwENS_7MeasRefINS_4MuvwEEEEE@Base 3.2.1
 _ZTVN8casacore8MeasBaseINS_7MVEpochENS_7MeasRefINS_6MEpochEEEEE@Base 3.2.1
 _ZTVN8casacore8MeasBaseINS_9MVDopplerENS_7MeasRefINS_8MDopplerEEEEE@Base 3.2.1
 _ZTVN8casacore9InitErrorE@Base 3.2.1
 _ZTVN8casacore9MBaselineE@Base 3.2.1
 _ZTVN8casacore9MCDopplerE@Base 3.2.1
 _ZTVN8casacore9MPositionE@Base 3.2.1
 _ZTVSt15_Sp_counted_ptrIPN8casacore17TableMeasDescBaseELN9__gnu_cxx12_Lock_policyE2EE@Base 3.2.1
 _ZTVSt15_Sp_counted_ptrIPN8casacore5BlockINS0_10MDirectionEEELN9__gnu_cxx12_Lock_policyE2EE@Base 3.2.1
 _ZTVSt15_Sp_counted_ptrIPN8casacore5BlockINS0_10MFrequencyEEELN9__gnu_cxx12_Lock_policyE2EE@Base 3.2.1
 _ZTVSt15_Sp_counted_ptrIPN8casacore5BlockINS0_10MVPositionEEELN9__gnu_cxx12_Lock_policyE2EE@Base 3.2.1
 _ZTVSt15_Sp_counted_ptrIPN8casacore5BlockINS0_16RORecordFieldPtrIdEEEELN9__gnu_cxx12_Lock_policyE2EE@Base 3.2.1
 _ZTVSt15_Sp_counted_ptrIPN8casacore5BlockINS0_4UnitEEELN9__gnu_cxx12_Lock_policyE2EE@Base 3.2.1
 _ZTVSt15_Sp_counted_ptrIPN8casacore5BlockINS0_6VectorIdEEEELN9__gnu_cxx12_Lock_policyE2EE@Base 3.2.1
 _ZTVSt15_Sp_counted_ptrIPN8casacore5BlockINS0_7QuantumIdEEEELN9__gnu_cxx12_Lock_policyE2EE@Base 3.2.1
 _ZTVSt15_Sp_counted_ptrIPN8casacore5BlockINS0_8AutoDiffIdEEEELN9__gnu_cxx12_Lock_policyE2EE@Base 3.2.1
 _ZTVSt15_Sp_counted_ptrIPN8casacore5BlockINS0_9MPositionEEELN9__gnu_cxx12_Lock_policyE2EE@Base 3.2.1
 _ZTVSt15_Sp_counted_ptrIPN8casacore7MeasRefINS0_10MDirectionEE6RefRepELN9__gnu_cxx12_Lock_policyE2EE@Base 3.2.1
 _ZTVSt15_Sp_counted_ptrIPN8casacore7MeasRefINS0_10MFrequencyEE6RefRepELN9__gnu_cxx12_Lock_policyE2EE@Base 3.2.1
 _ZTVSt15_Sp_counted_ptrIPN8casacore7MeasRefINS0_14MEarthMagneticEE6RefRepELN9__gnu_cxx12_Lock_policyE2EE@Base 3.2.1
 _ZTVSt15_Sp_counted_ptrIPN8casacore7MeasRefINS0_15MRadialVelocityEE6RefRepELN9__gnu_cxx12_Lock_policyE2EE@Base 3.2.1
 _ZTVSt15_Sp_counted_ptrIPN8casacore7MeasRefINS0_4MuvwEE6RefRepELN9__gnu_cxx12_Lock_policyE2EE@Base 3.2.1
 _ZTVSt15_Sp_counted_ptrIPN8casacore7MeasRefINS0_6MEpochEE6RefRepELN9__gnu_cxx12_Lock_policyE2EE@Base 3.2.1
 _ZTVSt15_Sp_counted_ptrIPN8casacore7MeasRefINS0_8MDopplerEE6RefRepELN9__gnu_cxx12_Lock_policyE2EE@Base 3.2.1
 _ZTVSt15_Sp_counted_ptrIPN8casacore7MeasRefINS0_9MBaselineEE6RefRepELN9__gnu_cxx12_Lock_policyE2EE@Base 3.2.1
 _ZTVSt15_Sp_counted_ptrIPN8casacore7MeasRefINS0_9MPositionEE6RefRepELN9__gnu_cxx12_Lock_policyE2EE@Base 3.2.1
 _ZTVSt19_Sp_counted_deleterIPN8casacore21ArrayPositionIteratorENS0_10CountedPtrIS1_E7DeleterIS1_EESaIvELN9__gnu_cxx12_Lock_policyE2EE@Base 3.2.1
 _ZTVSt19_Sp_counted_deleterIPN8casacore5BlockINS0_10MDirectionEEENS0_10CountedPtrIS3_E7DeleterIS3_EESaIvELN9__gnu_cxx12_Lock_policyE2EE@Base 3.2.1
 _ZTVSt19_Sp_counted_deleterIPN8casacore5BlockINS0_10MFrequencyEEENS0_10CountedPtrIS3_E7DeleterIS3_EESaIvELN9__gnu_cxx12_Lock_policyE2EE@Base 3.2.1
 _ZTVSt19_Sp_counted_deleterIPN8casacore5BlockINS0_10MVPositionEEENS0_10CountedPtrIS3_E7DeleterIS3_EESaIvELN9__gnu_cxx12_Lock_policyE2EE@Base 3.2.1
 _ZTVSt19_Sp_counted_deleterIPN8casacore5BlockINS0_16RORecordFieldPtrIdEEEENS0_10CountedPtrIS4_E7DeleterIS4_EESaIvELN9__gnu_cxx12_Lock_policyE2EE@Base 3.2.1
 _ZTVSt19_Sp_counted_deleterIPN8casacore5BlockINS0_4UnitEEENS0_10CountedPtrIS3_E7DeleterIS3_EESaIvELN9__gnu_cxx12_Lock_policyE2EE@Base 3.2.1
 _ZTVSt19_Sp_counted_deleterIPN8casacore5BlockINS0_6VectorIdEEEENS0_10CountedPtrIS4_E7DeleterIS4_EESaIvELN9__gnu_cxx12_Lock_policyE2EE@Base 3.2.1
 _ZTVSt19_Sp_counted_deleterIPN8casacore5BlockINS0_7QuantumIdEEEENS0_10CountedPtrIS4_E7DeleterIS4_EESaIvELN9__gnu_cxx12_Lock_policyE2EE@Base 3.2.1
 _ZTVSt19_Sp_counted_deleterIPN8casacore5BlockINS0_8AutoDiffIdEEEENS0_10CountedPtrIS4_E7DeleterIS4_EESaIvELN9__gnu_cxx12_Lock_policyE2EE@Base 3.2.1
 _ZTVSt19_Sp_counted_deleterIPN8casacore5BlockINS0_9MPositionEEENS0_10CountedPtrIS3_E7DeleterIS3_EESaIvELN9__gnu_cxx12_Lock_policyE2EE@Base 3.2.1
 _ZTVSt19_Sp_counted_deleterIPN8casacore6MatrixIdEENS0_10CountedPtrIS2_E7DeleterIS2_EESaIvELN9__gnu_cxx12_Lock_policyE2EE@Base 3.2.1
 _ZTVSt19_Sp_counted_deleterIPN8casacore9ArrayBaseENS0_10CountedPtrIS1_E7DeleterIS1_EESaIvELN9__gnu_cxx12_Lock_policyE2EE@Base 3.2.1
 _ZThn8_N8casacore10PolynomialINS_8AutoDiffIdEEED0Ev@Base 3.2.1
 _ZThn8_N8casacore10PolynomialINS_8AutoDiffIdEEED1Ev@Base 3.2.1
 _ZThn8_N8casacore10PolynomialIdED0Ev@Base 3.2.1
 _ZThn8_N8casacore10PolynomialIdED1Ev@Base 3.2.1
 _ZThn8_NK8casacore8FunctionINS_8AutoDiffIdEES2_EclERKNS_6VectorIdEE@Base 3.2.1
 _ZThn8_NK8casacore8FunctionIddEclERKNS_6VectorIdEE@Base 3.2.1
 _ZZN8casacore14AppStateSource5fetchEvE14default_result@Base 3.2.1
 _ZZN8casacore17Allocator_private17get_allocator_rawINS_17new_del_allocatorINS_10MDirectionEEEEEPNS0_17BulkAllocatorImplIT_EEvE3ptr@Base 3.2.1
 _ZZN8casacore17Allocator_private17get_allocator_rawINS_17new_del_allocatorINS_10MDirectionEEEEEPNS0_17BulkAllocatorImplIT_EEvE7storage@Base 3.2.1
 _ZZN8casacore17Allocator_private17get_allocator_rawINS_17new_del_allocatorINS_10MFrequencyEEEEEPNS0_17BulkAllocatorImplIT_EEvE3ptr@Base 3.2.1
 _ZZN8casacore17Allocator_private17get_allocator_rawINS_17new_del_allocatorINS_10MFrequencyEEEEEPNS0_17BulkAllocatorImplIT_EEvE7storage@Base 3.2.1
 _ZZN8casacore17Allocator_private17get_allocator_rawINS_17new_del_allocatorINS_10MVPositionEEEEEPNS0_17BulkAllocatorImplIT_EEvE3ptr@Base 3.2.1
 _ZZN8casacore17Allocator_private17get_allocator_rawINS_17new_del_allocatorINS_10MVPositionEEEEEPNS0_17BulkAllocatorImplIT_EEvE7storage@Base 3.2.1
 _ZZN8casacore17Allocator_private17get_allocator_rawINS_17new_del_allocatorINS_16RORecordFieldPtrIdEEEEEEPNS0_17BulkAllocatorImplIT_EEvE3ptr@Base 3.2.1
 _ZZN8casacore17Allocator_private17get_allocator_rawINS_17new_del_allocatorINS_16RORecordFieldPtrIdEEEEEEPNS0_17BulkAllocatorImplIT_EEvE7storage@Base 3.2.1
 _ZZN8casacore17Allocator_private17get_allocator_rawINS_17new_del_allocatorINS_4UnitEEEEEPNS0_17BulkAllocatorImplIT_EEvE3ptr@Base 3.2.1
 _ZZN8casacore17Allocator_private17get_allocator_rawINS_17new_del_allocatorINS_4UnitEEEEEPNS0_17BulkAllocatorImplIT_EEvE7storage@Base 3.2.1
 _ZZN8casacore17Allocator_private17get_allocator_rawINS_17new_del_allocatorINS_6VectorIdEEEEEEPNS0_17BulkAllocatorImplIT_EEvE3ptr@Base 3.2.1
 _ZZN8casacore17Allocator_private17get_allocator_rawINS_17new_del_allocatorINS_6VectorIdEEEEEEPNS0_17BulkAllocatorImplIT_EEvE7storage@Base 3.2.1
 _ZZN8casacore17Allocator_private17get_allocator_rawINS_17new_del_allocatorINS_7QuantumIdEEEEEEPNS0_17BulkAllocatorImplIT_EEvE3ptr@Base 3.2.1
 _ZZN8casacore17Allocator_private17get_allocator_rawINS_17new_del_allocatorINS_7QuantumIdEEEEEEPNS0_17BulkAllocatorImplIT_EEvE7storage@Base 3.2.1
 _ZZN8casacore17Allocator_private17get_allocator_rawINS_17new_del_allocatorINS_8AutoDiffIdEEEEEEPNS0_17BulkAllocatorImplIT_EEvE3ptr@Base 3.2.1
 _ZZN8casacore17Allocator_private17get_allocator_rawINS_17new_del_allocatorINS_8AutoDiffIdEEEEEEPNS0_17BulkAllocatorImplIT_EEvE7storage@Base 3.2.1
 _ZZN8casacore17Allocator_private17get_allocator_rawINS_17new_del_allocatorINS_9MPositionEEEEEPNS0_17BulkAllocatorImplIT_EEvE3ptr@Base 3.2.1
 _ZZN8casacore17Allocator_private17get_allocator_rawINS_17new_del_allocatorINS_9MPositionEEEEEPNS0_17BulkAllocatorImplIT_EEvE7storage@Base 3.2.1
 _ZZN8casacore17Allocator_private17get_allocator_rawINS_17new_del_allocatorIPNS_6SlicerEEEEEPNS0_17BulkAllocatorImplIT_EEvE3ptr@Base 3.2.1
 _ZZN8casacore17Allocator_private17get_allocator_rawINS_17new_del_allocatorIPNS_6SlicerEEEEEPNS0_17BulkAllocatorImplIT_EEvE7storage@Base 3.2.1
 _ZZN8casacore17Allocator_private17get_allocator_rawINS_18casacore_allocatorINS_10MDirectionELm32EEEEEPNS0_17BulkAllocatorImplIT_EEvE3ptr@Base 3.2.1
 _ZZN8casacore17Allocator_private17get_allocator_rawINS_18casacore_allocatorINS_10MDirectionELm32EEEEEPNS0_17BulkAllocatorImplIT_EEvE7storage@Base 3.2.1
 _ZZN8casacore17Allocator_private17get_allocator_rawINS_18casacore_allocatorINS_10MFrequencyELm32EEEEEPNS0_17BulkAllocatorImplIT_EEvE3ptr@Base 3.2.1
 _ZZN8casacore17Allocator_private17get_allocator_rawINS_18casacore_allocatorINS_10MFrequencyELm32EEEEEPNS0_17BulkAllocatorImplIT_EEvE7storage@Base 3.2.1
 _ZZN8casacore17Allocator_private17get_allocator_rawINS_18casacore_allocatorINS_10MVPositionELm32EEEEEPNS0_17BulkAllocatorImplIT_EEvE3ptr@Base 3.2.1
 _ZZN8casacore17Allocator_private17get_allocator_rawINS_18casacore_allocatorINS_10MVPositionELm32EEEEEPNS0_17BulkAllocatorImplIT_EEvE7storage@Base 3.2.1
 _ZZN8casacore17Allocator_private17get_allocator_rawINS_18casacore_allocatorINS_16RORecordFieldPtrIdEELm32EEEEEPNS0_17BulkAllocatorImplIT_EEvE3ptr@Base 3.2.1
 _ZZN8casacore17Allocator_private17get_allocator_rawINS_18casacore_allocatorINS_16RORecordFieldPtrIdEELm32EEEEEPNS0_17BulkAllocatorImplIT_EEvE7storage@Base 3.2.1
 _ZZN8casacore17Allocator_private17get_allocator_rawINS_18casacore_allocatorINS_4UnitELm32EEEEEPNS0_17BulkAllocatorImplIT_EEvE3ptr@Base 3.2.1
 _ZZN8casacore17Allocator_private17get_allocator_rawINS_18casacore_allocatorINS_4UnitELm32EEEEEPNS0_17BulkAllocatorImplIT_EEvE7storage@Base 3.2.1
 _ZZN8casacore17Allocator_private17get_allocator_rawINS_18casacore_allocatorINS_6VectorIdEELm32EEEEEPNS0_17BulkAllocatorImplIT_EEvE3ptr@Base 3.2.1
 _ZZN8casacore17Allocator_private17get_allocator_rawINS_18casacore_allocatorINS_6VectorIdEELm32EEEEEPNS0_17BulkAllocatorImplIT_EEvE7storage@Base 3.2.1
 _ZZN8casacore17Allocator_private17get_allocator_rawINS_18casacore_allocatorINS_7QuantumIdEELm32EEEEEPNS0_17BulkAllocatorImplIT_EEvE3ptr@Base 3.2.1
 _ZZN8casacore17Allocator_private17get_allocator_rawINS_18casacore_allocatorINS_7QuantumIdEELm32EEEEEPNS0_17BulkAllocatorImplIT_EEvE7storage@Base 3.2.1
 _ZZN8casacore17Allocator_private17get_allocator_rawINS_18casacore_allocatorINS_8AutoDiffIdEELm32EEEEEPNS0_17BulkAllocatorImplIT_EEvE3ptr@Base 3.2.1
 _ZZN8casacore17Allocator_private17get_allocator_rawINS_18casacore_allocatorINS_8AutoDiffIdEELm32EEEEEPNS0_17BulkAllocatorImplIT_EEvE7storage@Base 3.2.1
 _ZZN8casacore17Allocator_private17get_allocator_rawINS_18casacore_allocatorINS_9MPositionELm32EEEEEPNS0_17BulkAllocatorImplIT_EEvE3ptr@Base 3.2.1
 _ZZN8casacore17Allocator_private17get_allocator_rawINS_18casacore_allocatorINS_9MPositionELm32EEEEEPNS0_17BulkAllocatorImplIT_EEvE7storage@Base 3.2.1
 _ZZN8casacore17Allocator_private17get_allocator_rawINS_18casacore_allocatorIPNS_6SlicerELm32EEEEEPNS0_17BulkAllocatorImplIT_EEvE3ptr@Base 3.2.1
 _ZZN8casacore17Allocator_private17get_allocator_rawINS_18casacore_allocatorIPNS_6SlicerELm32EEEEEPNS0_17BulkAllocatorImplIT_EEvE7storage@Base 3.2.1
 _ZZN8casacore17Allocator_private17get_allocator_rawINS_18casacore_allocatorIPNS_9MeasValueELm32EEEEEPNS0_17BulkAllocatorImplIT_EEvE3ptr@Base 3.2.1
 _ZZN8casacore17Allocator_private17get_allocator_rawINS_18casacore_allocatorIPNS_9MeasValueELm32EEEEEPNS0_17BulkAllocatorImplIT_EEvE7storage@Base 3.2.1
 _ZZN8casacore17Allocator_private17get_allocator_rawINS_18casacore_allocatorIiLm32EEEEEPNS0_17BulkAllocatorImplIT_EEvE3ptr@Base 3.2.1
 _ZZN8casacore17Allocator_private17get_allocator_rawINS_18casacore_allocatorIiLm32EEEEEPNS0_17BulkAllocatorImplIT_EEvE7storage@Base 3.2.1
 _ZZN8casacore17Allocator_private17get_allocator_rawINS_18casacore_allocatorIjLm32EEEEEPNS0_17BulkAllocatorImplIT_EEvE3ptr@Base 3.2.1
 _ZZN8casacore17Allocator_private17get_allocator_rawINS_18casacore_allocatorIjLm32EEEEEPNS0_17BulkAllocatorImplIT_EEvE7storage@Base 3.2.1
 _ZZN8casacore2QC2HIEvE6result@Base 3.2.1
 _ZZN8casacore7assert_INS_10ArrayErrorEEC4EiPKcS4_iE7message@Base 3.2.1
 _ZZN8casacore7assert_INS_9AipsErrorEEC4EiPKcS4_iE7message@Base 3.2.1
 _ZZN8casacore8RegisterINS_10MDirectionEEEjPKT_E6typeId@Base 3.2.1
 _ZZN8casacore8RegisterINS_10MDirectionEEEjPKT_E8callOnce@Base 3.2.1
 _ZZN8casacore8RegisterINS_10MFrequencyEEEjPKT_E6typeId@Base 3.2.1
 _ZZN8casacore8RegisterINS_10MFrequencyEEEjPKT_E8callOnce@Base 3.2.1
 _ZZN8casacore8RegisterINS_14MEarthMagneticEEEjPKT_E6typeId@Base 3.2.1
 _ZZN8casacore8RegisterINS_14MEarthMagneticEEEjPKT_E8callOnce@Base 3.2.1
 _ZZN8casacore8RegisterINS_15MRadialVelocityEEEjPKT_E6typeId@Base 3.2.1
 _ZZN8casacore8RegisterINS_15MRadialVelocityEEEjPKT_E8callOnce@Base 3.2.1
 _ZZN8casacore8RegisterINS_4MuvwEEEjPKT_E6typeId@Base 3.2.1
 _ZZN8casacore8RegisterINS_4MuvwEEEjPKT_E8callOnce@Base 3.2.1
 _ZZN8casacore8RegisterINS_6MEpochEEEjPKT_E6typeId@Base 3.2.1
 _ZZN8casacore8RegisterINS_6MEpochEEEjPKT_E8callOnce@Base 3.2.1
 _ZZN8casacore8RegisterINS_8MDopplerEEEjPKT_E6typeId@Base 3.2.1
 _ZZN8casacore8RegisterINS_8MDopplerEEEjPKT_E8callOnce@Base 3.2.1
 _ZZN8casacore8RegisterINS_9MBaselineEEEjPKT_E6typeId@Base 3.2.1
 _ZZN8casacore8RegisterINS_9MBaselineEEEjPKT_E8callOnce@Base 3.2.1
 _ZZN8casacore8RegisterINS_9MPositionEEEjPKT_E6typeId@Base 3.2.1
 _ZZN8casacore8RegisterINS_9MPositionEEEjPKT_E8callOnce@Base 3.2.1
 _ZZNK8casacore15PolynomialParamINS_8AutoDiffIdEEE4nameEvE1x@Base 3.2.1
 _ZZNK8casacore15PolynomialParamIdE4nameEvE1x@Base 3.2.1
 _ZZNK8casacore8AppState8dataPathB5cxx11EvE6result@Base 3.2.1
 _ZZNK8casacore8FunctionINS_8AutoDiffIdEES2_E4nameEvE1x@Base 3.2.1
 _ZZNK8casacore8FunctionIddE4nameEvE1x@Base 3.2.1
 _ZZSt9call_onceIRPFvN8casacore7MeasJPL5FilesEEJRS2_EEvRSt9once_flagOT_DpOT0_ENKUlvE0_clEv@Base 3.2.1
 _ZZSt9call_onceIRPFvN8casacore7MeasJPL5FilesEEJRS2_EEvRSt9once_flagOT_DpOT0_ENUlvE0_4_FUNEv@Base 3.2.1
 _ZZSt9call_onceIRPFvPN8casacore7MeasJPL5FilesEEJRS3_EEvRSt9once_flagOT_DpOT0_ENKUlvE0_clEv@Base 3.2.1
 _ZZSt9call_onceIRPFvPN8casacore7MeasJPL5FilesEEJRS3_EEvRSt9once_flagOT_DpOT0_ENUlvE0_4_FUNEv@Base 3.2.1
 _ZZSt9call_onceIRPFvPdEJRS0_EEvRSt9once_flagOT_DpOT0_ENKUlvE0_clEv@Base 3.2.1
 _ZZSt9call_onceIRPFvPdEJRS0_EEvRSt9once_flagOT_DpOT0_ENUlvE0_4_FUNEv@Base 3.2.1
 _ZZSt9call_onceIRPFvPjEJRS0_EEvRSt9once_flagOT_DpOT0_ENKUlvE0_clEv@Base 3.2.1
 _ZZSt9call_onceIRPFvPjEJRS0_EEvRSt9once_flagOT_DpOT0_ENUlvE0_4_FUNEv@Base 3.2.1
 _ZZSt9call_onceIRPFvvEJEEvRSt9once_flagOT_DpOT0_ENKUlvE0_clEv@Base 3.2.1
 _ZZSt9call_onceIRPFvvEJEEvRSt9once_flagOT_DpOT0_ENUlvE0_4_FUNEv@Base 3.2.1
