libcasa_python3.so.4 libcasa-python34 #MINVER#
 _ZGVN5boost6python9converter6detail15registered_baseIRVKN8casacore6StringEE10convertersE@Base 3.2.1
 _ZGVN5boost6python9converter6detail15registered_baseIRVKN8casacore6VectorINS4_6StringEEEE10convertersE@Base 3.2.1
 _ZGVN5boost6python9converter6detail15registered_baseIRVKN8casacore9IPositionEE10convertersE@Base 3.2.1
 _ZGVN5boost6python9converter6detail15registered_baseIRVKSt7complexIdEE10convertersE@Base 3.2.1
 _ZGVN5boost6python9converter6detail15registered_baseIRVKbE10convertersE@Base 3.2.1
 _ZGVN5boost6python9converter6detail15registered_baseIRVKdE10convertersE@Base 3.2.1
 _ZGVN5boost6python9converter6detail15registered_baseIRVKfE10convertersE@Base 3.2.1
 _ZGVN5boost6python9converter6detail15registered_baseIRVKiE10convertersE@Base 3.2.1
 _ZGVN5boost6python9converter6detail15registered_baseIRVKjE10convertersE@Base 3.2.1
 _ZGVN5boost6python9converter6detail15registered_baseIRVKlE10convertersE@Base 3.2.1
 _ZGVN5boost6python9converter6detail15registered_baseIRVKxE10convertersE@Base 3.2.1
 _ZGVN8casacore15NewDelAllocatorIyE5valueE@Base 3.2.1
 _ZGVN8casacore16DefaultAllocatorIyE5valueE@Base 3.2.1
 _ZGVN8casacore17Allocator_private17BulkAllocatorImplINS_17new_del_allocatorIyEEE9allocatorE@Base 3.2.1
 _ZGVN8casacore17Allocator_private17BulkAllocatorImplINS_18casacore_allocatorIyLm32EEEE9allocatorE@Base 3.2.1
 _ZGVZN8casacore17Allocator_private17get_allocator_rawINS_17new_del_allocatorIyEEEEPNS0_17BulkAllocatorImplIT_EEvE3ptr@Base 3.2.1
 _ZGVZN8casacore17Allocator_private17get_allocator_rawINS_18casacore_allocatorIyLm32EEEEEPNS0_17BulkAllocatorImplIT_EEvE3ptr@Base 3.2.1
 _ZN5boost6detail8function15functor_managerINS_3_bi6bind_tIbNS_6python6detail19translate_exceptionIN8casacore9IterErrorEPFvRKS9_EEENS3_5list3INS_3argILi1EEENSG_ILi2EEENS3_5valueISD_EEEEEEE6manageERKNS1_15function_bufferERSO_NS1_30functor_manager_operation_typeE@Base 3.2.1
 _ZN5boost6detail8function16has_empty_targetEz@Base 3.2.1
 _ZN5boost6detail8function21function_obj_invoker2INS_3_bi6bind_tIbNS_6python6detail19translate_exceptionIN8casacore9IterErrorEPFvRKS9_EEENS3_5list3INS_3argILi1EEENSG_ILi2EEENS3_5valueISD_EEEEEEbRKNS6_17exception_handlerERKNS_9function0IvEEE6invokeERNS1_15function_bufferESP_ST_@Base 3.2.1
 _ZN5boost6python19to_python_converterIN8casacore11ValueHolderENS2_6python20casa_value_to_pythonELb0EE15get_pytype_implEv@Base 3.2.1
 _ZN5boost6python19to_python_converterIN8casacore5ArrayINS2_6StringEEENS2_6python7to_listIS5_EELb0EE15get_pytype_implEv@Base 3.2.1
 _ZN5boost6python19to_python_converterIN8casacore5ArrayISt7complexIdEEENS2_6python7to_listIS6_EELb0EE15get_pytype_implEv@Base 3.2.1
 _ZN5boost6python19to_python_converterIN8casacore5ArrayIbEENS2_6python7to_listIS4_EELb0EE15get_pytype_implEv@Base 3.2.1
 _ZN5boost6python19to_python_converterIN8casacore5ArrayIdEENS2_6python7to_listIS4_EELb0EE15get_pytype_implEv@Base 3.2.1
 _ZN5boost6python19to_python_converterIN8casacore5ArrayIfEENS2_6python7to_listIS4_EELb0EE15get_pytype_implEv@Base 3.2.1
 _ZN5boost6python19to_python_converterIN8casacore5ArrayIiEENS2_6python7to_listIS4_EELb0EE15get_pytype_implEv@Base 3.2.1
 _ZN5boost6python19to_python_converterIN8casacore6RecordENS2_6python21casa_record_to_pythonELb0EE15get_pytype_implEv@Base 3.2.1
 _ZN5boost6python19to_python_converterIN8casacore6StringENS2_6python25casa_string_to_python_strELb0EE15get_pytype_implEv@Base 3.2.1
 _ZN5boost6python19to_python_converterIN8casacore6VectorINS2_6StringEEENS2_6python7to_listIS5_EELb0EE15get_pytype_implEv@Base 3.2.1
 _ZN5boost6python19to_python_converterIN8casacore6VectorISt7complexIdEEENS2_6python7to_listIS6_EELb0EE15get_pytype_implEv@Base 3.2.1
 _ZN5boost6python19to_python_converterIN8casacore6VectorIbEENS2_6python7to_listIS4_EELb0EE15get_pytype_implEv@Base 3.2.1
 _ZN5boost6python19to_python_converterIN8casacore6VectorIdEENS2_6python7to_listIS4_EELb0EE15get_pytype_implEv@Base 3.2.1
 _ZN5boost6python19to_python_converterIN8casacore6VectorIfEENS2_6python7to_listIS4_EELb0EE15get_pytype_implEv@Base 3.2.1
 _ZN5boost6python19to_python_converterIN8casacore6VectorIiEENS2_6python7to_listIS4_EELb0EE15get_pytype_implEv@Base 3.2.1
 _ZN5boost6python19to_python_converterIN8casacore9IPositionENS2_6python7to_listIS3_EELb0EE15get_pytype_implEv@Base 3.2.1
 _ZN5boost6python29register_exception_translatorIN8casacore9IterErrorEPFvRKS3_EEEvT0_PNS_4typeIT_EE@Base 3.2.1
 _ZN5boost6python3api11object_baseD1Ev@Base 3.2.1
 _ZN5boost6python3api11object_baseD2Ev@Base 3.2.1
 _ZN5boost6python3api9slice_nilD1Ev@Base 3.2.1
 _ZN5boost6python3api9slice_nilD2Ev@Base 3.2.1
 _ZN5boost6python7xdecrefI7_objectEEvPT_@Base 3.2.1
 _ZN5boost6python9converter21as_to_python_functionIN8casacore11ValueHolderENS3_6python20casa_value_to_pythonEE7convertEPKv@Base 3.2.1
 _ZN5boost6python9converter21as_to_python_functionIN8casacore5ArrayINS3_6StringEEENS3_6python7to_listIS6_EEE7convertEPKv@Base 3.2.1
 _ZN5boost6python9converter21as_to_python_functionIN8casacore5ArrayISt7complexIdEEENS3_6python7to_listIS7_EEE7convertEPKv@Base 3.2.1
 _ZN5boost6python9converter21as_to_python_functionIN8casacore5ArrayIbEENS3_6python7to_listIS5_EEE7convertEPKv@Base 3.2.1
 _ZN5boost6python9converter21as_to_python_functionIN8casacore5ArrayIdEENS3_6python7to_listIS5_EEE7convertEPKv@Base 3.2.1
 _ZN5boost6python9converter21as_to_python_functionIN8casacore5ArrayIfEENS3_6python7to_listIS5_EEE7convertEPKv@Base 3.2.1
 _ZN5boost6python9converter21as_to_python_functionIN8casacore5ArrayIiEENS3_6python7to_listIS5_EEE7convertEPKv@Base 3.2.1
 _ZN5boost6python9converter21as_to_python_functionIN8casacore6RecordENS3_6python21casa_record_to_pythonEE7convertEPKv@Base 3.2.1
 _ZN5boost6python9converter21as_to_python_functionIN8casacore6StringENS3_6python25casa_string_to_python_strEE7convertEPKv@Base 3.2.1
 _ZN5boost6python9converter21as_to_python_functionIN8casacore6VectorINS3_6StringEEENS3_6python7to_listIS6_EEE7convertEPKv@Base 3.2.1
 _ZN5boost6python9converter21as_to_python_functionIN8casacore6VectorISt7complexIdEEENS3_6python7to_listIS7_EEE7convertEPKv@Base 3.2.1
 _ZN5boost6python9converter21as_to_python_functionIN8casacore6VectorIbEENS3_6python7to_listIS5_EEE7convertEPKv@Base 3.2.1
 _ZN5boost6python9converter21as_to_python_functionIN8casacore6VectorIdEENS3_6python7to_listIS5_EEE7convertEPKv@Base 3.2.1
 _ZN5boost6python9converter21as_to_python_functionIN8casacore6VectorIfEENS3_6python7to_listIS5_EEE7convertEPKv@Base 3.2.1
 _ZN5boost6python9converter21as_to_python_functionIN8casacore6VectorIiEENS3_6python7to_listIS5_EEE7convertEPKv@Base 3.2.1
 _ZN5boost6python9converter21as_to_python_functionIN8casacore9IPositionENS3_6python7to_listIS4_EEE7convertEPKv@Base 3.2.1
 _ZN5boost6python9converter6detail15registered_baseIRVKN8casacore6StringEE10convertersE@Base 3.2.1
 _ZN5boost6python9converter6detail15registered_baseIRVKN8casacore6VectorINS4_6StringEEEE10convertersE@Base 3.2.1
 _ZN5boost6python9converter6detail15registered_baseIRVKN8casacore9IPositionEE10convertersE@Base 3.2.1
 _ZN5boost6python9converter6detail15registered_baseIRVKSt7complexIdEE10convertersE@Base 3.2.1
 _ZN5boost6python9converter6detail15registered_baseIRVKbE10convertersE@Base 3.2.1
 _ZN5boost6python9converter6detail15registered_baseIRVKdE10convertersE@Base 3.2.1
 _ZN5boost6python9converter6detail15registered_baseIRVKfE10convertersE@Base 3.2.1
 _ZN5boost6python9converter6detail15registered_baseIRVKiE10convertersE@Base 3.2.1
 _ZN5boost6python9converter6detail15registered_baseIRVKjE10convertersE@Base 3.2.1
 _ZN5boost6python9converter6detail15registered_baseIRVKlE10convertersE@Base 3.2.1
 _ZN5boost6python9converter6detail15registered_baseIRVKxE10convertersE@Base 3.2.1
 _ZN8casacore11objcopyctorIyEEvPT_PKS1_mmm@Base 3.2.1
 _ZN8casacore12convertArrayIscEEvRNS_5ArrayIT_EERKNS1_IT0_EE@Base 3.2.1
 _ZN8casacore12convertArrayIshEEvRNS_5ArrayIT_EERKNS1_IT0_EE@Base 3.2.1
 _ZN8casacore12convertArrayIxyEEvRNS_5ArrayIT_EERKNS1_IT0_EE@Base 3.2.1
 _ZN8casacore13ArrayIteratorIyE12apSetPointerEi@Base 3.2.1
 _ZN8casacore13ArrayIteratorIyE3setERKNS_9IPositionE@Base 3.2.1
 _ZN8casacore13ArrayIteratorIyE4initERKNS_5ArrayIyEE@Base 3.2.1
 _ZN8casacore13ArrayIteratorIyE4nextEv@Base 3.2.1
 _ZN8casacore13ArrayIteratorIyE5resetEv@Base 3.2.1
 _ZN8casacore13ArrayIteratorIyE8getArrayEv@Base 3.2.1
 _ZN8casacore13ArrayIteratorIyED0Ev@Base 3.2.1
 _ZN8casacore13ArrayIteratorIyED1Ev@Base 3.2.1
 _ZN8casacore13ArrayIteratorIyED2Ev@Base 3.2.1
 _ZN8casacore15NewDelAllocatorIyE5valueE@Base 3.2.1
 _ZN8casacore15NewDelAllocatorIyED0Ev@Base 3.2.1
 _ZN8casacore15NewDelAllocatorIyED1Ev@Base 3.2.1
 _ZN8casacore15NewDelAllocatorIyED2Ev@Base 3.2.1
 _ZN8casacore16DefaultAllocatorIyE5valueE@Base 3.2.1
 _ZN8casacore16DefaultAllocatorIyED0Ev@Base 3.2.1
 _ZN8casacore16DefaultAllocatorIyED1Ev@Base 3.2.1
 _ZN8casacore16DefaultAllocatorIyED2Ev@Base 3.2.1
 _ZN8casacore17Allocator_private17BulkAllocatorImplINS_17new_del_allocatorIyEEE10deallocateEPym@Base 3.2.1
 _ZN8casacore17Allocator_private17BulkAllocatorImplINS_17new_del_allocatorIyEEE7destroyEPym@Base 3.2.1
 _ZN8casacore17Allocator_private17BulkAllocatorImplINS_17new_del_allocatorIyEEE8allocateEmPKv@Base 3.2.1
 _ZN8casacore17Allocator_private17BulkAllocatorImplINS_17new_del_allocatorIyEEE9allocatorE@Base 3.2.1
 _ZN8casacore17Allocator_private17BulkAllocatorImplINS_17new_del_allocatorIyEEE9constructEPym@Base 3.2.1
 _ZN8casacore17Allocator_private17BulkAllocatorImplINS_17new_del_allocatorIyEEE9constructEPymPKy@Base 3.2.1
 _ZN8casacore17Allocator_private17BulkAllocatorImplINS_17new_del_allocatorIyEEE9constructEPymRKy@Base 3.2.1
 _ZN8casacore17Allocator_private17BulkAllocatorImplINS_17new_del_allocatorIyEEED0Ev@Base 3.2.1
 _ZN8casacore17Allocator_private17BulkAllocatorImplINS_17new_del_allocatorIyEEED1Ev@Base 3.2.1
 _ZN8casacore17Allocator_private17BulkAllocatorImplINS_17new_del_allocatorIyEEED2Ev@Base 3.2.1
 _ZN8casacore17Allocator_private17BulkAllocatorImplINS_18casacore_allocatorIyLm32EEEE10deallocateEPym@Base 3.2.1
 _ZN8casacore17Allocator_private17BulkAllocatorImplINS_18casacore_allocatorIyLm32EEEE7destroyEPym@Base 3.2.1
 _ZN8casacore17Allocator_private17BulkAllocatorImplINS_18casacore_allocatorIyLm32EEEE8allocateEmPKv@Base 3.2.1
 _ZN8casacore17Allocator_private17BulkAllocatorImplINS_18casacore_allocatorIyLm32EEEE9allocatorE@Base 3.2.1
 _ZN8casacore17Allocator_private17BulkAllocatorImplINS_18casacore_allocatorIyLm32EEEE9constructEPym@Base 3.2.1
 _ZN8casacore17Allocator_private17BulkAllocatorImplINS_18casacore_allocatorIyLm32EEEE9constructEPymPKy@Base 3.2.1
 _ZN8casacore17Allocator_private17BulkAllocatorImplINS_18casacore_allocatorIyLm32EEEE9constructEPymRKy@Base 3.2.1
 _ZN8casacore17Allocator_private17BulkAllocatorImplINS_18casacore_allocatorIyLm32EEEED0Ev@Base 3.2.1
 _ZN8casacore17Allocator_private17BulkAllocatorImplINS_18casacore_allocatorIyLm32EEEED1Ev@Base 3.2.1
 _ZN8casacore17Allocator_private17BulkAllocatorImplINS_18casacore_allocatorIyLm32EEEED2Ev@Base 3.2.1
 _ZN8casacore17new_del_allocatorIyED1Ev@Base 3.2.1
 _ZN8casacore17new_del_allocatorIyED2Ev@Base 3.2.1
 _ZN8casacore18casacore_allocatorIyLm32EED1Ev@Base 3.2.1
 _ZN8casacore18casacore_allocatorIyLm32EED2Ev@Base 3.2.1
 _ZN8casacore21ArrayPositionIteratorD0Ev@Base 3.2.1
 _ZN8casacore21ArrayPositionIteratorD1Ev@Base 3.2.1
 _ZN8casacore21ArrayPositionIteratorD2Ev@Base 3.2.1
 _ZN8casacore5ArrayIyE10assignBaseERKNS_9ArrayBaseEb@Base 3.2.1
 _ZN8casacore5ArrayIyE10getStorageERb@Base 3.2.1
 _ZN8casacore5ArrayIyE10putStorageERPyb@Base 3.2.1
 _ZN8casacore5ArrayIyE11getVStorageERb@Base 3.2.1
 _ZN8casacore5ArrayIyE11putVStorageERPvb@Base 3.2.1
 _ZN8casacore5ArrayIyE11takeStorageERKNS_9IPositionEPKy@Base 3.2.1
 _ZN8casacore5ArrayIyE11takeStorageERKNS_9IPositionEPKyRKNS_17AbstractAllocatorIyEE@Base 3.2.1
 _ZN8casacore5ArrayIyE11takeStorageERKNS_9IPositionEPyNS_17StorageInitPolicyE@Base 3.2.1
 _ZN8casacore5ArrayIyE11takeStorageERKNS_9IPositionEPyNS_17StorageInitPolicyERKNS_17AbstractAllocatorIyEE@Base 3.2.1
 _ZN8casacore5ArrayIyE14preTakeStorageERKNS_9IPositionE@Base 3.2.1
 _ZN8casacore5ArrayIyE15BaseIteratorSTL9incrementEv@Base 3.2.1
 _ZN8casacore5ArrayIyE15BaseIteratorSTLC1ERKS1_@Base 3.2.1
 _ZN8casacore5ArrayIyE15BaseIteratorSTLC2ERKS1_@Base 3.2.1
 _ZN8casacore5ArrayIyE15doNonDegenerateERKS1_RKNS_9IPositionE@Base 3.2.1
 _ZN8casacore5ArrayIyE15postTakeStorageEv@Base 3.2.1
 _ZN8casacore5ArrayIyE16copyMatchingPartERKS1_@Base 3.2.1
 _ZN8casacore5ArrayIyE23copyToContiguousStorageEPyRKS1_NS_15ArrayInitPolicyE@Base 3.2.1
 _ZN8casacore5ArrayIyE6assignERKS1_@Base 3.2.1
 _ZN8casacore5ArrayIyE6resizeERKNS_9IPositionEb@Base 3.2.1
 _ZN8casacore5ArrayIyE6resizeERKNS_9IPositionEbNS_15ArrayInitPolicyE@Base 3.2.1
 _ZN8casacore5ArrayIyE6resizeEv@Base 3.2.1
 _ZN8casacore5ArrayIyE9referenceERKS1_@Base 3.2.1
 _ZN8casacore5ArrayIyEC1ERKNS_9IPositionENS_15ArrayInitPolicyEPNS_17Allocator_private13BulkAllocatorIyEE@Base 3.2.1
 _ZN8casacore5ArrayIyEC1ERKS1_@Base 3.2.1
 _ZN8casacore5ArrayIyEC1Ev@Base 3.2.1
 _ZN8casacore5ArrayIyEC2ERKNS_9IPositionENS_15ArrayInitPolicyEPNS_17Allocator_private13BulkAllocatorIyEE@Base 3.2.1
 _ZN8casacore5ArrayIyEC2ERKS1_@Base 3.2.1
 _ZN8casacore5ArrayIyEC2Ev@Base 3.2.1
 _ZN8casacore5ArrayIyED0Ev@Base 3.2.1
 _ZN8casacore5ArrayIyED1Ev@Base 3.2.1
 _ZN8casacore5ArrayIyED2Ev@Base 3.2.1
 _ZN8casacore5ArrayIyEaSERKS1_@Base 3.2.1
 _ZN8casacore5ArrayIyEclERKNS_6SlicerE@Base 3.2.1
 _ZN8casacore5ArrayIyEclERKNS_9IPositionES4_@Base 3.2.1
 _ZN8casacore5ArrayIyEclERKNS_9IPositionES4_S4_@Base 3.2.1
 _ZN8casacore5BlockIyE6deinitEv@Base 3.2.1
 _ZN8casacore6String8toStringINS_8DataTypeEEES0_RKT_@Base 3.2.1
 _ZN8casacore6python10pyregistry3getERKNSt7__cxx1112basic_stringIcSt11char_traitsIcESaIcEEE@Base 3.2.1
 _ZN8casacore6python10pyregistry3setERKNSt7__cxx1112basic_stringIcSt11char_traitsIcESaIcEEE@Base 3.2.1
 _ZN8casacore6python10pyregistry9_registryB5cxx11E@Base 3.2.1
 _ZN8casacore6python12getSeqObjectERN5boost6python3api6objectE@Base 3.2.1
 _ZN8casacore6python13PycArrayCheckEP7_object@Base 3.2.1
 _ZN8casacore6python17makePyArrayObjectINS_6StringEEEN5boost6python3api6objectERKNS_5ArrayIT_EE@Base 3.2.1
 _ZN8casacore6python17makePyArrayObjectISt7complexIdEEEN5boost6python3api6objectERKNS_5ArrayIT_EE@Base 3.2.1
 _ZN8casacore6python17makePyArrayObjectISt7complexIfEEEN5boost6python3api6objectERKNS_5ArrayIT_EE@Base 3.2.1
 _ZN8casacore6python17makePyArrayObjectIbEEN5boost6python3api6objectERKNS_5ArrayIT_EE@Base 3.2.1
 _ZN8casacore6python17makePyArrayObjectIdEEN5boost6python3api6objectERKNS_5ArrayIT_EE@Base 3.2.1
 _ZN8casacore6python17makePyArrayObjectIfEEN5boost6python3api6objectERKNS_5ArrayIT_EE@Base 3.2.1
 _ZN8casacore6python17makePyArrayObjectIhEEN5boost6python3api6objectERKNS_5ArrayIT_EE@Base 3.2.1
 _ZN8casacore6python17makePyArrayObjectIiEEN5boost6python3api6objectERKNS_5ArrayIT_EE@Base 3.2.1
 _ZN8casacore6python17makePyArrayObjectIjEEN5boost6python3api6objectERKNS_5ArrayIT_EE@Base 3.2.1
 _ZN8casacore6python17makePyArrayObjectIsEEN5boost6python3api6objectERKNS_5ArrayIT_EE@Base 3.2.1
 _ZN8casacore6python17makePyArrayObjectItEEN5boost6python3api6objectERKNS_5ArrayIT_EE@Base 3.2.1
 _ZN8casacore6python17makePyArrayObjectIxEEN5boost6python3api6objectERKNS_5ArrayIT_EE@Base 3.2.1
 _ZN8casacore6python18PycArrayScalarTypeEP7_object@Base 3.2.1
 _ZN8casacore6python18translate_iterexcpERKNS_9IterErrorE@Base 3.2.1
 _ZN8casacore6python19PycArrayScalarCheckEP7_object@Base 3.2.1
 _ZN8casacore6python19convert_casa_record3regEv@Base 3.2.1
 _ZN8casacore6python19convert_casa_record5_doneE@Base 3.2.1
 _ZN8casacore6python19convert_casa_string3regEv@Base 3.2.1
 _ZN8casacore6python20casa_value_to_python10makeobjectERKNS_11ValueHolderE@Base 3.2.1
 _ZN8casacore6python20from_python_sequenceINS_6VectorINS_6StringEEENS0_29casa_variable_capacity_policyEE11convertibleEP7_object@Base 3.2.1
 _ZN8casacore6python20from_python_sequenceINS_6VectorINS_6StringEEENS0_29casa_variable_capacity_policyEE20check_convertibilityEP7_object@Base 3.2.1
 _ZN8casacore6python20from_python_sequenceINS_6VectorINS_6StringEEENS0_29casa_variable_capacity_policyEE9constructEP7_objectPN5boost6python9converter30rvalue_from_python_stage1_dataE@Base 3.2.1
 _ZN8casacore6python20from_python_sequenceINS_6VectorISt7complexIdEEENS0_29casa_variable_capacity_policyEE11convertibleEP7_object@Base 3.2.1
 _ZN8casacore6python20from_python_sequenceINS_6VectorISt7complexIdEEENS0_29casa_variable_capacity_policyEE20check_convertibilityEP7_object@Base 3.2.1
 _ZN8casacore6python20from_python_sequenceINS_6VectorISt7complexIdEEENS0_29casa_variable_capacity_policyEE9constructEP7_objectPN5boost6python9converter30rvalue_from_python_stage1_dataE@Base 3.2.1
 _ZN8casacore6python20from_python_sequenceINS_6VectorIbEENS0_29casa_variable_capacity_policyEE11convertibleEP7_object@Base 3.2.1
 _ZN8casacore6python20from_python_sequenceINS_6VectorIbEENS0_29casa_variable_capacity_policyEE20check_convertibilityEP7_object@Base 3.2.1
 _ZN8casacore6python20from_python_sequenceINS_6VectorIbEENS0_29casa_variable_capacity_policyEE9constructEP7_objectPN5boost6python9converter30rvalue_from_python_stage1_dataE@Base 3.2.1
 _ZN8casacore6python20from_python_sequenceINS_6VectorIdEENS0_29casa_variable_capacity_policyEE11convertibleEP7_object@Base 3.2.1
 _ZN8casacore6python20from_python_sequenceINS_6VectorIdEENS0_29casa_variable_capacity_policyEE20check_convertibilityEP7_object@Base 3.2.1
 _ZN8casacore6python20from_python_sequenceINS_6VectorIdEENS0_29casa_variable_capacity_policyEE9constructEP7_objectPN5boost6python9converter30rvalue_from_python_stage1_dataE@Base 3.2.1
 _ZN8casacore6python20from_python_sequenceINS_6VectorIfEENS0_29casa_variable_capacity_policyEE11convertibleEP7_object@Base 3.2.1
 _ZN8casacore6python20from_python_sequenceINS_6VectorIfEENS0_29casa_variable_capacity_policyEE20check_convertibilityEP7_object@Base 3.2.1
 _ZN8casacore6python20from_python_sequenceINS_6VectorIfEENS0_29casa_variable_capacity_policyEE9constructEP7_objectPN5boost6python9converter30rvalue_from_python_stage1_dataE@Base 3.2.1
 _ZN8casacore6python20from_python_sequenceINS_6VectorIiEENS0_29casa_variable_capacity_policyEE11convertibleEP7_object@Base 3.2.1
 _ZN8casacore6python20from_python_sequenceINS_6VectorIiEENS0_29casa_variable_capacity_policyEE20check_convertibilityEP7_object@Base 3.2.1
 _ZN8casacore6python20from_python_sequenceINS_6VectorIiEENS0_29casa_variable_capacity_policyEE9constructEP7_objectPN5boost6python9converter30rvalue_from_python_stage1_dataE@Base 3.2.1
 _ZN8casacore6python20from_python_sequenceINS_9IPositionENS0_38casa_reversed_variable_capacity_policyEE11convertibleEP7_object@Base 3.2.1
 _ZN8casacore6python20from_python_sequenceINS_9IPositionENS0_38casa_reversed_variable_capacity_policyEE20check_convertibilityEP7_object@Base 3.2.1
 _ZN8casacore6python20from_python_sequenceINS_9IPositionENS0_38casa_reversed_variable_capacity_policyEE9constructEP7_objectPN5boost6python9converter30rvalue_from_python_stage1_dataE@Base 3.2.1
 _ZN8casacore6python21casa_record_to_python10makeobjectERKNS_6RecordE@Base 3.2.1
 _ZN8casacore6python21register_convert_excpEv@Base 3.2.1
 _ZN8casacore6python22casa_array_from_python10makeScalarEP7_object@Base 3.2.1
 _ZN8casacore6python22casa_array_from_python17makeArrayFromDictEP7_object@Base 3.2.1
 _ZN8casacore6python22casa_array_from_python9makeArrayEP7_objectb@Base 3.2.1
 _ZN8casacore6python22casa_value_from_python11convertibleEP7_object@Base 3.2.1
 _ZN8casacore6python22casa_value_from_python13checkDataTypeEP7_object@Base 3.2.1
 _ZN8casacore6python22casa_value_from_python15makeValueHolderEP7_object@Base 3.2.1
 _ZN8casacore6python22casa_value_from_python8toVectorEP7_object@Base 3.2.1
 _ZN8casacore6python22casa_value_from_python9constructEP7_objectPN5boost6python9converter30rvalue_from_python_stage1_dataE@Base 3.2.1
 _ZN8casacore6python22convert_casa_iposition3regEv@Base 3.2.1
 _ZN8casacore6python23casa_record_from_python10makeRecordEP7_object@Base 3.2.1
 _ZN8casacore6python23casa_record_from_python11convertibleEP7_object@Base 3.2.1
 _ZN8casacore6python23casa_record_from_python9constructEP7_objectPN5boost6python9converter30rvalue_from_python_stage1_dataE@Base 3.2.1
 _ZN8casacore6python24convert_casa_valueholder3regEv@Base 3.2.1
 _ZN8casacore6python24convert_casa_valueholder5_doneE@Base 3.2.1
 _ZN8casacore6python26register_convert_basicdataEv@Base 3.2.1
 _ZN8casacore6python27casa_string_from_python_str11convertibleEP7_object@Base 3.2.1
 _ZN8casacore6python27casa_string_from_python_str9constructEP7_objectPN5boost6python9converter30rvalue_from_python_stage1_dataE@Base 3.2.1
 _ZN8casacore6python5numpy10isImportedEv@Base 3.2.1
 _ZN8casacore6python5numpy10makeScalarEP7_objecti@Base 3.2.1
 _ZN8casacore6python5numpy11importArrayEv@Base 3.2.1
 _ZN8casacore6python5numpy13PycArrayCheckEP7_object@Base 3.2.1
 _ZN8casacore6python5numpy17makePyArrayObjectISt7complexIdEEEN5boost6python3api6objectERKNS_5ArrayIT_EE@Base 3.2.1
 _ZN8casacore6python5numpy17makePyArrayObjectISt7complexIfEEEN5boost6python3api6objectERKNS_5ArrayIT_EE@Base 3.2.1
 _ZN8casacore6python5numpy17makePyArrayObjectIbEEN5boost6python3api6objectERKNS_5ArrayIT_EE@Base 3.2.1
 _ZN8casacore6python5numpy17makePyArrayObjectIdEEN5boost6python3api6objectERKNS_5ArrayIT_EE@Base 3.2.1
 _ZN8casacore6python5numpy17makePyArrayObjectIfEEN5boost6python3api6objectERKNS_5ArrayIT_EE@Base 3.2.1
 _ZN8casacore6python5numpy17makePyArrayObjectIhEEN5boost6python3api6objectERKNS_5ArrayIT_EE@Base 3.2.1
 _ZN8casacore6python5numpy17makePyArrayObjectIiEEN5boost6python3api6objectERKNS_5ArrayIT_EE@Base 3.2.1
 _ZN8casacore6python5numpy17makePyArrayObjectIjEEN5boost6python3api6objectERKNS_5ArrayIT_EE@Base 3.2.1
 _ZN8casacore6python5numpy17makePyArrayObjectIsEEN5boost6python3api6objectERKNS_5ArrayIT_EE@Base 3.2.1
 _ZN8casacore6python5numpy17makePyArrayObjectItEEN5boost6python3api6objectERKNS_5ArrayIT_EE@Base 3.2.1
 _ZN8casacore6python5numpy17makePyArrayObjectIxEEN5boost6python3api6objectERKNS_5ArrayIT_EE@Base 3.2.1
 _ZN8casacore6python5numpy18PycArrayScalarTypeEP7_object@Base 3.2.1
 _ZN8casacore6python5numpy19PycArrayScalarCheckEP7_objectRi@Base 3.2.1
 _ZN8casacore6python5numpy20ArrayCopyStr_toArrayERKNS_9IPositionEPvm@Base 3.2.1
 _ZN8casacore6python5numpy24ArrayCopyUnicode_toArrayERKNS_9IPositionEPvm@Base 3.2.1
 _ZN8casacore6python5numpy24array_scalar_from_pythonISt7complexIdEE11convertibleEP7_object@Base 3.2.1
 _ZN8casacore6python5numpy24array_scalar_from_pythonISt7complexIdEE9constructEP7_objectPN5boost6python9converter30rvalue_from_python_stage1_dataE@Base 3.2.1
 _ZN8casacore6python5numpy24array_scalar_from_pythonISt7complexIfEE11convertibleEP7_object@Base 3.2.1
 _ZN8casacore6python5numpy24array_scalar_from_pythonISt7complexIfEE9constructEP7_objectPN5boost6python9converter30rvalue_from_python_stage1_dataE@Base 3.2.1
 _ZN8casacore6python5numpy24array_scalar_from_pythonIbE11convertibleEP7_object@Base 3.2.1
 _ZN8casacore6python5numpy24array_scalar_from_pythonIbE9constructEP7_objectPN5boost6python9converter30rvalue_from_python_stage1_dataE@Base 3.2.1
 _ZN8casacore6python5numpy24array_scalar_from_pythonIcE11convertibleEP7_object@Base 3.2.1
 _ZN8casacore6python5numpy24array_scalar_from_pythonIcE9constructEP7_objectPN5boost6python9converter30rvalue_from_python_stage1_dataE@Base 3.2.1
 _ZN8casacore6python5numpy24array_scalar_from_pythonIdE11convertibleEP7_object@Base 3.2.1
 _ZN8casacore6python5numpy24array_scalar_from_pythonIdE9constructEP7_objectPN5boost6python9converter30rvalue_from_python_stage1_dataE@Base 3.2.1
 _ZN8casacore6python5numpy24array_scalar_from_pythonIfE11convertibleEP7_object@Base 3.2.1
 _ZN8casacore6python5numpy24array_scalar_from_pythonIfE9constructEP7_objectPN5boost6python9converter30rvalue_from_python_stage1_dataE@Base 3.2.1
 _ZN8casacore6python5numpy24array_scalar_from_pythonIhE11convertibleEP7_object@Base 3.2.1
 _ZN8casacore6python5numpy24array_scalar_from_pythonIhE9constructEP7_objectPN5boost6python9converter30rvalue_from_python_stage1_dataE@Base 3.2.1
 _ZN8casacore6python5numpy24array_scalar_from_pythonIiE11convertibleEP7_object@Base 3.2.1
 _ZN8casacore6python5numpy24array_scalar_from_pythonIiE9constructEP7_objectPN5boost6python9converter30rvalue_from_python_stage1_dataE@Base 3.2.1
 _ZN8casacore6python5numpy24array_scalar_from_pythonIjE11convertibleEP7_object@Base 3.2.1
 _ZN8casacore6python5numpy24array_scalar_from_pythonIjE9constructEP7_objectPN5boost6python9converter30rvalue_from_python_stage1_dataE@Base 3.2.1
 _ZN8casacore6python5numpy24array_scalar_from_pythonIlE11convertibleEP7_object@Base 3.2.1
 _ZN8casacore6python5numpy24array_scalar_from_pythonIlE9constructEP7_objectPN5boost6python9converter30rvalue_from_python_stage1_dataE@Base 3.2.1
 _ZN8casacore6python5numpy24array_scalar_from_pythonImE11convertibleEP7_object@Base 3.2.1
 _ZN8casacore6python5numpy24array_scalar_from_pythonImE9constructEP7_objectPN5boost6python9converter30rvalue_from_python_stage1_dataE@Base 3.2.1
 _ZN8casacore6python5numpy24array_scalar_from_pythonIsE11convertibleEP7_object@Base 3.2.1
 _ZN8casacore6python5numpy24array_scalar_from_pythonIsE9constructEP7_objectPN5boost6python9converter30rvalue_from_python_stage1_dataE@Base 3.2.1
 _ZN8casacore6python5numpy24array_scalar_from_pythonItE11convertibleEP7_object@Base 3.2.1
 _ZN8casacore6python5numpy24array_scalar_from_pythonItE9constructEP7_objectPN5boost6python9converter30rvalue_from_python_stage1_dataE@Base 3.2.1
 _ZN8casacore6python5numpy24array_scalar_from_pythonIxE11convertibleEP7_object@Base 3.2.1
 _ZN8casacore6python5numpy24array_scalar_from_pythonIxE9constructEP7_objectPN5boost6python9converter30rvalue_from_python_stage1_dataE@Base 3.2.1
 _ZN8casacore6python5numpy24array_scalar_from_pythonIyE11convertibleEP7_object@Base 3.2.1
 _ZN8casacore6python5numpy24array_scalar_from_pythonIyE9constructEP7_objectPN5boost6python9converter30rvalue_from_python_stage1_dataE@Base 3.2.1
 _ZN8casacore6python5numpy29register_convert_arrayscalarsEv@Base 3.2.1
 _ZN8casacore6python5numpy7loadAPIEv@Base 3.2.1
 _ZN8casacore6python5numpy9ArrayCopyINS_6StringEE4toPyEPvPKS3_m@Base 3.2.1
 _ZN8casacore6python5numpy9ArrayCopyINS_6StringEE6fromPyEPS3_PKvm@Base 3.2.1
 _ZN8casacore6python5numpy9ArrayCopyINS_6StringEE7toArrayERKNS_9IPositionEPvb@Base 3.2.1
 _ZN8casacore6python5numpy9ArrayCopyISt7complexIdEE4toPyEPvPKS4_m@Base 3.2.1
 _ZN8casacore6python5numpy9ArrayCopyISt7complexIdEE6fromPyEPS4_PKvm@Base 3.2.1
 _ZN8casacore6python5numpy9ArrayCopyISt7complexIdEE7toArrayERKNS_9IPositionEPvb@Base 3.2.1
 _ZN8casacore6python5numpy9ArrayCopyISt7complexIfEE4toPyEPvPKS4_m@Base 3.2.1
 _ZN8casacore6python5numpy9ArrayCopyISt7complexIfEE6fromPyEPS4_PKvm@Base 3.2.1
 _ZN8casacore6python5numpy9ArrayCopyISt7complexIfEE7toArrayERKNS_9IPositionEPvb@Base 3.2.1
 _ZN8casacore6python5numpy9ArrayCopyIbE4toPyEPvPKbm@Base 3.2.1
 _ZN8casacore6python5numpy9ArrayCopyIbE6fromPyEPbPKvm@Base 3.2.1
 _ZN8casacore6python5numpy9ArrayCopyIbE7toArrayERKNS_9IPositionEPvb@Base 3.2.1
 _ZN8casacore6python5numpy9ArrayCopyIcE4toPyEPvPKcm@Base 3.2.1
 _ZN8casacore6python5numpy9ArrayCopyIcE6fromPyEPcPKvm@Base 3.2.1
 _ZN8casacore6python5numpy9ArrayCopyIcE7toArrayERKNS_9IPositionEPvb@Base 3.2.1
 _ZN8casacore6python5numpy9ArrayCopyIdE4toPyEPvPKdm@Base 3.2.1
 _ZN8casacore6python5numpy9ArrayCopyIdE6fromPyEPdPKvm@Base 3.2.1
 _ZN8casacore6python5numpy9ArrayCopyIdE7toArrayERKNS_9IPositionEPvb@Base 3.2.1
 _ZN8casacore6python5numpy9ArrayCopyIfE4toPyEPvPKfm@Base 3.2.1
 _ZN8casacore6python5numpy9ArrayCopyIfE6fromPyEPfPKvm@Base 3.2.1
 _ZN8casacore6python5numpy9ArrayCopyIfE7toArrayERKNS_9IPositionEPvb@Base 3.2.1
 _ZN8casacore6python5numpy9ArrayCopyIhE4toPyEPvPKhm@Base 3.2.1
 _ZN8casacore6python5numpy9ArrayCopyIhE6fromPyEPhPKvm@Base 3.2.1
 _ZN8casacore6python5numpy9ArrayCopyIhE7toArrayERKNS_9IPositionEPvb@Base 3.2.1
 _ZN8casacore6python5numpy9ArrayCopyIiE4toPyEPvPKim@Base 3.2.1
 _ZN8casacore6python5numpy9ArrayCopyIiE6fromPyEPiPKvm@Base 3.2.1
 _ZN8casacore6python5numpy9ArrayCopyIiE7toArrayERKNS_9IPositionEPvb@Base 3.2.1
 _ZN8casacore6python5numpy9ArrayCopyIjE4toPyEPvPKjm@Base 3.2.1
 _ZN8casacore6python5numpy9ArrayCopyIjE6fromPyEPjPKvm@Base 3.2.1
 _ZN8casacore6python5numpy9ArrayCopyIjE7toArrayERKNS_9IPositionEPvb@Base 3.2.1
 _ZN8casacore6python5numpy9ArrayCopyIsE4toPyEPvPKsm@Base 3.2.1
 _ZN8casacore6python5numpy9ArrayCopyIsE6fromPyEPsPKvm@Base 3.2.1
 _ZN8casacore6python5numpy9ArrayCopyIsE7toArrayERKNS_9IPositionEPvb@Base 3.2.1
 _ZN8casacore6python5numpy9ArrayCopyItE4toPyEPvPKtm@Base 3.2.1
 _ZN8casacore6python5numpy9ArrayCopyItE6fromPyEPtPKvm@Base 3.2.1
 _ZN8casacore6python5numpy9ArrayCopyItE7toArrayERKNS_9IPositionEPvb@Base 3.2.1
 _ZN8casacore6python5numpy9ArrayCopyIxE4toPyEPvPKxm@Base 3.2.1
 _ZN8casacore6python5numpy9ArrayCopyIxE6fromPyEPxPKvm@Base 3.2.1
 _ZN8casacore6python5numpy9ArrayCopyIxE7toArrayERKNS_9IPositionEPvb@Base 3.2.1
 _ZN8casacore6python5numpy9ArrayCopyIyE4toPyEPvPKym@Base 3.2.1
 _ZN8casacore6python5numpy9ArrayCopyIyE6fromPyEPyPKvm@Base 3.2.1
 _ZN8casacore6python5numpy9ArrayCopyIyE7toArrayERKNS_9IPositionEPvb@Base 3.2.1
 _ZN8casacore6python5numpy9makeArrayEP7_objectb@Base 3.2.1
 _ZN8casacore6python7to_listINS_5ArrayINS_6StringEEEE10makeobjectERKS4_@Base 3.2.1
 _ZN8casacore6python7to_listINS_5ArrayISt7complexIdEEEE10makeobjectERKS5_@Base 3.2.1
 _ZN8casacore6python7to_listINS_5ArrayIbEEE10makeobjectERKS3_@Base 3.2.1
 _ZN8casacore6python7to_listINS_5ArrayIdEEE10makeobjectERKS3_@Base 3.2.1
 _ZN8casacore6python7to_listINS_5ArrayIfEEE10makeobjectERKS3_@Base 3.2.1
 _ZN8casacore6python7to_listINS_5ArrayIiEEE10makeobjectERKS3_@Base 3.2.1
 _ZN8casacore6python7to_listINS_6VectorINS_6StringEEEE10makeobjectERKS4_@Base 3.2.1
 _ZN8casacore6python7to_listINS_6VectorISt7complexIdEEEE10makeobjectERKS5_@Base 3.2.1
 _ZN8casacore6python7to_listINS_6VectorIbEEE10makeobjectERKS3_@Base 3.2.1
 _ZN8casacore6python7to_listINS_6VectorIdEEE10makeobjectERKS3_@Base 3.2.1
 _ZN8casacore6python7to_listINS_6VectorIfEEE10makeobjectERKS3_@Base 3.2.1
 _ZN8casacore6python7to_listINS_6VectorIiEEE10makeobjectERKS3_@Base 3.2.1
 _ZN8casacore6python9PycImportERKNS_6StringES3_@Base 3.2.1
 _ZN8casacore7assert_INS_9AipsErrorEEC1EiPKcS4_i@Base 3.2.1
 _ZN8casacore7assert_INS_9AipsErrorEEC2EiPKcS4_i@Base 3.2.1
 _ZN8casacore7objcopyIyEEvPT_PKS1_m@Base 3.2.1
 _ZN8casacore7objcopyIyEEvPT_PKS1_mmm@Base 3.2.1
 _ZNK5boost6python3api11object_base3ptrEv@Base 3.2.1
 _ZNK8casacore10CountedPtrINS_5BlockIyEEE7DeleterIS2_EclEPS2_@Base 3.2.1
 _ZNK8casacore13BaseAllocatorIyNS_15NewDelAllocatorIyEEE12getAllocatorEv@Base 3.2.1
 _ZNK8casacore13BaseAllocatorIyNS_16AlignedAllocatorIyLm32EEEE12getAllocatorEv@Base 3.2.1
 _ZNK8casacore17Allocator_private17BulkAllocatorImplINS_17new_del_allocatorIyEEE16allocator_typeidEv@Base 3.2.1
 _ZNK8casacore17Allocator_private17BulkAllocatorImplINS_18casacore_allocatorIyLm32EEEE16allocator_typeidEv@Base 3.2.1
 _ZNK8casacore5ArrayIyE10getSectionERKNS_6SlicerE@Base 3.2.1
 _ZNK8casacore5ArrayIyE11freeStorageERPKyb@Base 3.2.1
 _ZNK8casacore5ArrayIyE11getVStorageERb@Base 3.2.1
 _ZNK8casacore5ArrayIyE12freeVStorageERPKvb@Base 3.2.1
 _ZNK8casacore5ArrayIyE12makeIteratorEj@Base 3.2.1
 _ZNK8casacore5ArrayIyE18nonNewDelAllocatorEv@Base 3.2.1
 _ZNK8casacore5ArrayIyE2okEv@Base 3.2.1
 _ZNK8casacore5ArrayIyE9makeArrayEv@Base 3.2.1
 _ZNK8casacore9AipsError4whatEv@Base 3.2.1
 _ZNSt15_Sp_counted_ptrIPN8casacore5BlockIyEELN9__gnu_cxx12_Lock_policyE2EE10_M_destroyEv@Base 3.2.1
 _ZNSt15_Sp_counted_ptrIPN8casacore5BlockIyEELN9__gnu_cxx12_Lock_policyE2EE10_M_disposeEv@Base 3.2.1
 _ZNSt15_Sp_counted_ptrIPN8casacore5BlockIyEELN9__gnu_cxx12_Lock_policyE2EE14_M_get_deleterERKSt9type_info@Base 3.2.1
 _ZNSt15_Sp_counted_ptrIPN8casacore5BlockIyEELN9__gnu_cxx12_Lock_policyE2EED0Ev@Base 3.2.1
 _ZNSt15_Sp_counted_ptrIPN8casacore5BlockIyEELN9__gnu_cxx12_Lock_policyE2EED1Ev@Base 3.2.1
 _ZNSt15_Sp_counted_ptrIPN8casacore5BlockIyEELN9__gnu_cxx12_Lock_policyE2EED2Ev@Base 3.2.1
 _ZNSt16_Sp_counted_baseILN9__gnu_cxx12_Lock_policyE2EE10_M_releaseEv@Base 3.2.1
 _ZNSt19_Sp_counted_deleterIPN8casacore21ArrayPositionIteratorENS0_10CountedPtrIS1_E7DeleterIS1_EESaIvELN9__gnu_cxx12_Lock_policyE2EE10_M_destroyEv@Base 3.2.1
 _ZNSt19_Sp_counted_deleterIPN8casacore21ArrayPositionIteratorENS0_10CountedPtrIS1_E7DeleterIS1_EESaIvELN9__gnu_cxx12_Lock_policyE2EE10_M_disposeEv@Base 3.2.1
 _ZNSt19_Sp_counted_deleterIPN8casacore21ArrayPositionIteratorENS0_10CountedPtrIS1_E7DeleterIS1_EESaIvELN9__gnu_cxx12_Lock_policyE2EE14_M_get_deleterERKSt9type_info@Base 3.2.1
 _ZNSt19_Sp_counted_deleterIPN8casacore21ArrayPositionIteratorENS0_10CountedPtrIS1_E7DeleterIS1_EESaIvELN9__gnu_cxx12_Lock_policyE2EED0Ev@Base 3.2.1
 _ZNSt19_Sp_counted_deleterIPN8casacore21ArrayPositionIteratorENS0_10CountedPtrIS1_E7DeleterIS1_EESaIvELN9__gnu_cxx12_Lock_policyE2EED1Ev@Base 3.2.1
 _ZNSt19_Sp_counted_deleterIPN8casacore21ArrayPositionIteratorENS0_10CountedPtrIS1_E7DeleterIS1_EESaIvELN9__gnu_cxx12_Lock_policyE2EED2Ev@Base 3.2.1
 _ZNSt19_Sp_counted_deleterIPN8casacore5BlockIyEENS0_10CountedPtrIS2_E7DeleterIS2_EESaIvELN9__gnu_cxx12_Lock_policyE2EE10_M_destroyEv@Base 3.2.1
 _ZNSt19_Sp_counted_deleterIPN8casacore5BlockIyEENS0_10CountedPtrIS2_E7DeleterIS2_EESaIvELN9__gnu_cxx12_Lock_policyE2EE10_M_disposeEv@Base 3.2.1
 _ZNSt19_Sp_counted_deleterIPN8casacore5BlockIyEENS0_10CountedPtrIS2_E7DeleterIS2_EESaIvELN9__gnu_cxx12_Lock_policyE2EE14_M_get_deleterERKSt9type_info@Base 3.2.1
 _ZNSt19_Sp_counted_deleterIPN8casacore5BlockIyEENS0_10CountedPtrIS2_E7DeleterIS2_EESaIvELN9__gnu_cxx12_Lock_policyE2EED0Ev@Base 3.2.1
 _ZNSt19_Sp_counted_deleterIPN8casacore5BlockIyEENS0_10CountedPtrIS2_E7DeleterIS2_EESaIvELN9__gnu_cxx12_Lock_policyE2EED1Ev@Base 3.2.1
 _ZNSt19_Sp_counted_deleterIPN8casacore5BlockIyEENS0_10CountedPtrIS2_E7DeleterIS2_EESaIvELN9__gnu_cxx12_Lock_policyE2EED2Ev@Base 3.2.1
 _ZNSt19_Sp_counted_deleterIPN8casacore9ArrayBaseENS0_10CountedPtrIS1_E7DeleterIS1_EESaIvELN9__gnu_cxx12_Lock_policyE2EE10_M_destroyEv@Base 3.2.1
 _ZNSt19_Sp_counted_deleterIPN8casacore9ArrayBaseENS0_10CountedPtrIS1_E7DeleterIS1_EESaIvELN9__gnu_cxx12_Lock_policyE2EE10_M_disposeEv@Base 3.2.1
 _ZNSt19_Sp_counted_deleterIPN8casacore9ArrayBaseENS0_10CountedPtrIS1_E7DeleterIS1_EESaIvELN9__gnu_cxx12_Lock_policyE2EE14_M_get_deleterERKSt9type_info@Base 3.2.1
 _ZNSt19_Sp_counted_deleterIPN8casacore9ArrayBaseENS0_10CountedPtrIS1_E7DeleterIS1_EESaIvELN9__gnu_cxx12_Lock_policyE2EED0Ev@Base 3.2.1
 _ZNSt19_Sp_counted_deleterIPN8casacore9ArrayBaseENS0_10CountedPtrIS1_E7DeleterIS1_EESaIvELN9__gnu_cxx12_Lock_policyE2EED1Ev@Base 3.2.1
 _ZNSt19_Sp_counted_deleterIPN8casacore9ArrayBaseENS0_10CountedPtrIS1_E7DeleterIS1_EESaIvELN9__gnu_cxx12_Lock_policyE2EED2Ev@Base 3.2.1
 _ZNSt3mapINSt7__cxx1112basic_stringIcSt11char_traitsIcESaIcEEEbSt4lessIS5_ESaISt4pairIKS5_bEEED1Ev@Base 3.2.1
 _ZNSt3mapINSt7__cxx1112basic_stringIcSt11char_traitsIcESaIcEEEbSt4lessIS5_ESaISt4pairIKS5_bEEED2Ev@Base 3.2.1
 _ZNSt6vectorIlSaIlEE17_M_default_appendEm@Base 3.2.1
 _ZNSt8_Rb_treeINSt7__cxx1112basic_stringIcSt11char_traitsIcESaIcEEESt4pairIKS5_bESt10_Select1stIS8_ESt4lessIS5_ESaIS8_EE24_M_get_insert_unique_posERS7_@Base 3.2.1
 _ZNSt8_Rb_treeINSt7__cxx1112basic_stringIcSt11char_traitsIcESaIcEEESt4pairIKS5_bESt10_Select1stIS8_ESt4lessIS5_ESaIS8_EE29_M_get_insert_hint_unique_posESt23_Rb_tree_const_iteratorIS8_ERS7_@Base 3.2.1
 _ZNSt8_Rb_treeINSt7__cxx1112basic_stringIcSt11char_traitsIcESaIcEEESt4pairIKS5_bESt10_Select1stIS8_ESt4lessIS5_ESaIS8_EE8_M_eraseEPSt13_Rb_tree_nodeIS8_E@Base 3.2.1
 _ZTIN5boost3_bi6bind_tIbNS_6python6detail19translate_exceptionIN8casacore9IterErrorEPFvRKS6_EEENS0_5list3INS_3argILi1EEENSD_ILi2EEENS0_5valueISA_EEEEEE@Base 3.2.1
 _ZTIN8casacore13ArrayIteratorIyEE@Base 3.2.1
 _ZTIN8casacore13BaseAllocatorIyNS_15NewDelAllocatorIyEEEE@Base 3.2.1
 _ZTIN8casacore13BaseAllocatorIyNS_16AlignedAllocatorIyLm32EEEEE@Base 3.2.1
 _ZTIN8casacore15NewDelAllocatorIyEE@Base 3.2.1
 _ZTIN8casacore16AlignedAllocatorIyLm32EEE@Base 3.2.1
 _ZTIN8casacore16DefaultAllocatorIyEE@Base 3.2.1
 _ZTIN8casacore17AbstractAllocatorIyEE@Base 3.2.1
 _ZTIN8casacore17Allocator_private13BulkAllocatorIyEE@Base 3.2.1
 _ZTIN8casacore17Allocator_private17BulkAllocatorImplINS_17new_del_allocatorIyEEEE@Base 3.2.1
 _ZTIN8casacore17Allocator_private17BulkAllocatorImplINS_18casacore_allocatorIyLm32EEEEE@Base 3.2.1
 _ZTIN8casacore17new_del_allocatorIyEE@Base 3.2.1
 _ZTIN8casacore18casacore_allocatorIyLm32EEE@Base 3.2.1
 _ZTIN8casacore5ArrayIyEE@Base 3.2.1
 _ZTIN9__gnu_cxx13new_allocatorIyEE@Base 3.2.1
 _ZTISaIyE@Base 3.2.1
 _ZTISt11_Mutex_baseILN9__gnu_cxx12_Lock_policyE2EE@Base 3.2.1
 _ZTISt15_Sp_counted_ptrIPN8casacore5BlockIyEELN9__gnu_cxx12_Lock_policyE2EE@Base 3.2.1
 _ZTISt16_Sp_counted_baseILN9__gnu_cxx12_Lock_policyE2EE@Base 3.2.1
 _ZTISt19_Sp_counted_deleterIPN8casacore21ArrayPositionIteratorENS0_10CountedPtrIS1_E7DeleterIS1_EESaIvELN9__gnu_cxx12_Lock_policyE2EE@Base 3.2.1
 _ZTISt19_Sp_counted_deleterIPN8casacore5BlockIyEENS0_10CountedPtrIS2_E7DeleterIS2_EESaIvELN9__gnu_cxx12_Lock_policyE2EE@Base 3.2.1
 _ZTISt19_Sp_counted_deleterIPN8casacore9ArrayBaseENS0_10CountedPtrIS1_E7DeleterIS1_EESaIvELN9__gnu_cxx12_Lock_policyE2EE@Base 3.2.1
 _ZTSN5boost3_bi6bind_tIbNS_6python6detail19translate_exceptionIN8casacore9IterErrorEPFvRKS6_EEENS0_5list3INS_3argILi1EEENSD_ILi2EEENS0_5valueISA_EEEEEE@Base 3.2.1
 _ZTSN8casacore10CountedPtrINS_21ArrayPositionIteratorEE7DeleterIS1_EE@Base 3.2.1
 _ZTSN8casacore10CountedPtrINS_5BlockIyEEE7DeleterIS2_EE@Base 3.2.1
 _ZTSN8casacore10CountedPtrINS_9ArrayBaseEE7DeleterIS1_EE@Base 3.2.1
 _ZTSN8casacore11ValueHolderE@Base 3.2.1
 _ZTSN8casacore13ArrayIteratorIyEE@Base 3.2.1
 _ZTSN8casacore13BaseAllocatorIyNS_15NewDelAllocatorIyEEEE@Base 3.2.1
 _ZTSN8casacore13BaseAllocatorIyNS_16AlignedAllocatorIyLm32EEEEE@Base 3.2.1
 _ZTSN8casacore15NewDelAllocatorIyEE@Base 3.2.1
 _ZTSN8casacore16AlignedAllocatorIyLm32EEE@Base 3.2.1
 _ZTSN8casacore16DefaultAllocatorIyEE@Base 3.2.1
 _ZTSN8casacore17AbstractAllocatorIyEE@Base 3.2.1
 _ZTSN8casacore17Allocator_private13BulkAllocatorIyEE@Base 3.2.1
 _ZTSN8casacore17Allocator_private17BulkAllocatorImplINS_17new_del_allocatorIyEEEE@Base 3.2.1
 _ZTSN8casacore17Allocator_private17BulkAllocatorImplINS_18casacore_allocatorIyLm32EEEEE@Base 3.2.1
 _ZTSN8casacore17new_del_allocatorIyEE@Base 3.2.1
 _ZTSN8casacore18casacore_allocatorIyLm32EEE@Base 3.2.1
 _ZTSN8casacore5ArrayIyEE@Base 3.2.1
 _ZTSN8casacore6StringE@Base 3.2.1
 _ZTSN8casacore9IPositionE@Base 3.2.1
 _ZTSN9__gnu_cxx13new_allocatorIyEE@Base 3.2.1
 _ZTSSaIyE@Base 3.2.1
 _ZTSSt11_Mutex_baseILN9__gnu_cxx12_Lock_policyE2EE@Base 3.2.1
 _ZTSSt15_Sp_counted_ptrIPN8casacore5BlockIyEELN9__gnu_cxx12_Lock_policyE2EE@Base 3.2.1
 _ZTSSt16_Sp_counted_baseILN9__gnu_cxx12_Lock_policyE2EE@Base 3.2.1
 _ZTSSt19_Sp_counted_deleterIPN8casacore21ArrayPositionIteratorENS0_10CountedPtrIS1_E7DeleterIS1_EESaIvELN9__gnu_cxx12_Lock_policyE2EE@Base 3.2.1
 _ZTSSt19_Sp_counted_deleterIPN8casacore5BlockIyEENS0_10CountedPtrIS2_E7DeleterIS2_EESaIvELN9__gnu_cxx12_Lock_policyE2EE@Base 3.2.1
 _ZTSSt19_Sp_counted_deleterIPN8casacore9ArrayBaseENS0_10CountedPtrIS1_E7DeleterIS1_EESaIvELN9__gnu_cxx12_Lock_policyE2EE@Base 3.2.1
 _ZTSSt7complexIdE@Base 3.2.1
 _ZTSSt7complexIfE@Base 3.2.1
 _ZTVN8casacore13ArrayIteratorIyEE@Base 3.2.1
 _ZTVN8casacore15NewDelAllocatorIyEE@Base 3.2.1
 _ZTVN8casacore16DefaultAllocatorIyEE@Base 3.2.1
 _ZTVN8casacore17Allocator_private17BulkAllocatorImplINS_17new_del_allocatorIyEEEE@Base 3.2.1
 _ZTVN8casacore17Allocator_private17BulkAllocatorImplINS_18casacore_allocatorIyLm32EEEEE@Base 3.2.1
 _ZTVN8casacore5ArrayIyEE@Base 3.2.1
 _ZTVSt15_Sp_counted_ptrIPN8casacore5BlockIyEELN9__gnu_cxx12_Lock_policyE2EE@Base 3.2.1
 _ZTVSt19_Sp_counted_deleterIPN8casacore21ArrayPositionIteratorENS0_10CountedPtrIS1_E7DeleterIS1_EESaIvELN9__gnu_cxx12_Lock_policyE2EE@Base 3.2.1
 _ZTVSt19_Sp_counted_deleterIPN8casacore5BlockIyEENS0_10CountedPtrIS2_E7DeleterIS2_EESaIvELN9__gnu_cxx12_Lock_policyE2EE@Base 3.2.1
 _ZTVSt19_Sp_counted_deleterIPN8casacore9ArrayBaseENS0_10CountedPtrIS1_E7DeleterIS1_EESaIvELN9__gnu_cxx12_Lock_policyE2EE@Base 3.2.1
 _ZZN5boost9function2IbRKNS_6python6detail17exception_handlerERKNS_9function0IvEEE9assign_toINS_3_bi6bind_tIbNS2_19translate_exceptionIN8casacore9IterErrorEPFvRKSG_EEENSC_5list3INS_3argILi1EEENSN_ILi2EEENSC_5valueISK_EEEEEEEEvT_E13stored_vtable@Base 3.2.1
 _ZZN8casacore17Allocator_private17get_allocator_rawINS_17new_del_allocatorIyEEEEPNS0_17BulkAllocatorImplIT_EEvE3ptr@Base 3.2.1
 _ZZN8casacore17Allocator_private17get_allocator_rawINS_17new_del_allocatorIyEEEEPNS0_17BulkAllocatorImplIT_EEvE7storage@Base 3.2.1
 _ZZN8casacore17Allocator_private17get_allocator_rawINS_18casacore_allocatorIyLm32EEEEEPNS0_17BulkAllocatorImplIT_EEvE3ptr@Base 3.2.1
 _ZZN8casacore17Allocator_private17get_allocator_rawINS_18casacore_allocatorIyLm32EEEEEPNS0_17BulkAllocatorImplIT_EEvE7storage@Base 3.2.1
 _ZZN8casacore7assert_INS_9AipsErrorEEC4EiPKcS4_iE7message@Base 3.2.1
