libcasa_lattices.so.4 libcasa-lattices4 #MINVER#
 _ZGVN8casacore15NewDelAllocatorINS_6VectorIdEEE5valueE@Base 3.2.1
 _ZGVN8casacore15NewDelAllocatorINS_8AutoDiffIdEEE5valueE@Base 3.2.1
 _ZGVN8casacore15NewDelAllocatorINS_8AutoDiffIfEEE5valueE@Base 3.2.1
 _ZGVN8casacore15NewDelAllocatorIPNS_6SlicerEE5valueE@Base 3.2.1
 _ZGVN8casacore16DefaultAllocatorINS_6VectorIdEEE5valueE@Base 3.2.1
 _ZGVN8casacore16DefaultAllocatorINS_8AutoDiffIdEEE5valueE@Base 3.2.1
 _ZGVN8casacore16DefaultAllocatorINS_8AutoDiffIfEEE5valueE@Base 3.2.1
 _ZGVN8casacore16DefaultAllocatorIPNS_6SlicerEE5valueE@Base 3.2.1
 _ZGVN8casacore17Allocator_private17BulkAllocatorImplINS_17new_del_allocatorINS_6VectorIdEEEEE9allocatorE@Base 3.2.1
 _ZGVN8casacore17Allocator_private17BulkAllocatorImplINS_17new_del_allocatorINS_8AutoDiffIdEEEEE9allocatorE@Base 3.2.1
 _ZGVN8casacore17Allocator_private17BulkAllocatorImplINS_17new_del_allocatorINS_8AutoDiffIfEEEEE9allocatorE@Base 3.2.1
 _ZGVN8casacore17Allocator_private17BulkAllocatorImplINS_17new_del_allocatorIPNS_6SlicerEEEE9allocatorE@Base 3.2.1
 _ZGVN8casacore17Allocator_private17BulkAllocatorImplINS_18casacore_allocatorINS_15LatticeExprNodeELm32EEEE9allocatorE@Base 3.2.1
 _ZGVN8casacore17Allocator_private17BulkAllocatorImplINS_18casacore_allocatorINS_6StringELm32EEEE9allocatorE@Base 3.2.1
 _ZGVN8casacore17Allocator_private17BulkAllocatorImplINS_18casacore_allocatorINS_6VectorIdEELm32EEEE9allocatorE@Base 3.2.1
 _ZGVN8casacore17Allocator_private17BulkAllocatorImplINS_18casacore_allocatorINS_8AutoDiffIdEELm32EEEE9allocatorE@Base 3.2.1
 _ZGVN8casacore17Allocator_private17BulkAllocatorImplINS_18casacore_allocatorINS_8AutoDiffIfEELm32EEEE9allocatorE@Base 3.2.1
 _ZGVN8casacore17Allocator_private17BulkAllocatorImplINS_18casacore_allocatorINS_9IPositionELm32EEEE9allocatorE@Base 3.2.1
 _ZGVN8casacore17Allocator_private17BulkAllocatorImplINS_18casacore_allocatorIPNS_6SlicerELm32EEEE9allocatorE@Base 3.2.1
 _ZGVN8casacore17Allocator_private17BulkAllocatorImplINS_18casacore_allocatorIPvLm32EEEE9allocatorE@Base 3.2.1
 _ZGVN8casacore17Allocator_private17BulkAllocatorImplINS_18casacore_allocatorISt7complexIdELm32EEEE9allocatorE@Base 3.2.1
 _ZGVN8casacore17Allocator_private17BulkAllocatorImplINS_18casacore_allocatorIbLm32EEEE9allocatorE@Base 3.2.1
 _ZGVN8casacore17Allocator_private17BulkAllocatorImplINS_18casacore_allocatorIdLm32EEEE9allocatorE@Base 3.2.1
 _ZGVN8casacore17Allocator_private17BulkAllocatorImplINS_18casacore_allocatorIfLm32EEEE9allocatorE@Base 3.2.1
 _ZGVN8casacore17Allocator_private17BulkAllocatorImplINS_18casacore_allocatorIiLm32EEEE9allocatorE@Base 3.2.1
 _ZGVN8casacore17Allocator_private17BulkAllocatorImplINS_18casacore_allocatorIjLm32EEEE9allocatorE@Base 3.2.1
 _ZGVZN8casacore17Allocator_private17get_allocator_rawINS_17new_del_allocatorINS_6VectorIdEEEEEEPNS0_17BulkAllocatorImplIT_EEvE3ptr@Base 3.2.1
 _ZGVZN8casacore17Allocator_private17get_allocator_rawINS_17new_del_allocatorINS_8AutoDiffIdEEEEEEPNS0_17BulkAllocatorImplIT_EEvE3ptr@Base 3.2.1
 _ZGVZN8casacore17Allocator_private17get_allocator_rawINS_17new_del_allocatorINS_8AutoDiffIfEEEEEEPNS0_17BulkAllocatorImplIT_EEvE3ptr@Base 3.2.1
 _ZGVZN8casacore17Allocator_private17get_allocator_rawINS_17new_del_allocatorIPNS_6SlicerEEEEEPNS0_17BulkAllocatorImplIT_EEvE3ptr@Base 3.2.1
 _ZGVZN8casacore17Allocator_private17get_allocator_rawINS_18casacore_allocatorINS_15LatticeExprNodeELm32EEEEEPNS0_17BulkAllocatorImplIT_EEvE3ptr@Base 3.2.1
 _ZGVZN8casacore17Allocator_private17get_allocator_rawINS_18casacore_allocatorINS_6VectorIdEELm32EEEEEPNS0_17BulkAllocatorImplIT_EEvE3ptr@Base 3.2.1
 _ZGVZN8casacore17Allocator_private17get_allocator_rawINS_18casacore_allocatorINS_8AutoDiffIdEELm32EEEEEPNS0_17BulkAllocatorImplIT_EEvE3ptr@Base 3.2.1
 _ZGVZN8casacore17Allocator_private17get_allocator_rawINS_18casacore_allocatorINS_8AutoDiffIfEELm32EEEEEPNS0_17BulkAllocatorImplIT_EEvE3ptr@Base 3.2.1
 _ZGVZN8casacore17Allocator_private17get_allocator_rawINS_18casacore_allocatorINS_9IPositionELm32EEEEEPNS0_17BulkAllocatorImplIT_EEvE3ptr@Base 3.2.1
 _ZGVZN8casacore17Allocator_private17get_allocator_rawINS_18casacore_allocatorIPNS_6SlicerELm32EEEEEPNS0_17BulkAllocatorImplIT_EEvE3ptr@Base 3.2.1
 _ZGVZN8casacore17Allocator_private17get_allocator_rawINS_18casacore_allocatorIPvLm32EEEEEPNS0_17BulkAllocatorImplIT_EEvE3ptr@Base 3.2.1
 _ZGVZN8casacore17Allocator_private17get_allocator_rawINS_18casacore_allocatorISt7complexIdELm32EEEEEPNS0_17BulkAllocatorImplIT_EEvE3ptr@Base 3.2.1
 _ZGVZN8casacore17Allocator_private17get_allocator_rawINS_18casacore_allocatorIbLm32EEEEEPNS0_17BulkAllocatorImplIT_EEvE3ptr@Base 3.2.1
 _ZGVZN8casacore17Allocator_private17get_allocator_rawINS_18casacore_allocatorIdLm32EEEEEPNS0_17BulkAllocatorImplIT_EEvE3ptr@Base 3.2.1
 _ZGVZN8casacore17Allocator_private17get_allocator_rawINS_18casacore_allocatorIfLm32EEEEEPNS0_17BulkAllocatorImplIT_EEvE3ptr@Base 3.2.1
 _ZGVZN8casacore17Allocator_private17get_allocator_rawINS_18casacore_allocatorIiLm32EEEEEPNS0_17BulkAllocatorImplIT_EEvE3ptr@Base 3.2.1
 _ZGVZN8casacore17Allocator_private17get_allocator_rawINS_18casacore_allocatorIjLm32EEEEEPNS0_17BulkAllocatorImplIT_EEvE3ptr@Base 3.2.1
 _ZGVZNK8casacore13CompoundParamINS_8AutoDiffIdEEE4nameEvE1x@Base 3.2.1
 _ZGVZNK8casacore13CompoundParamIdE4nameEvE1x@Base 3.2.1
 _ZGVZNK8casacore15ConstantNDParamINS_8AutoDiffIdEEE4nameEvE1x@Base 3.2.1
 _ZGVZNK8casacore15ConstantNDParamIdE4nameEvE1x@Base 3.2.1
 _ZGVZNK8casacore15Gaussian1DParamINS_8AutoDiffIfEEE4nameEvE1x@Base 3.2.1
 _ZGVZNK8casacore15Gaussian1DParamIfE4nameEvE1x@Base 3.2.1
 _ZGVZNK8casacore15Gaussian2DParamINS_8AutoDiffIdEEE4nameEvE1x@Base 3.2.1
 _ZGVZNK8casacore15Gaussian2DParamIdE4nameEvE1x@Base 3.2.1
 _ZGVZNK8casacore15HyperPlaneParamINS_8AutoDiffIdEEE4nameEvE1x@Base 3.2.1
 _ZGVZNK8casacore15HyperPlaneParamIdE4nameEvE1x@Base 3.2.1
 _ZGVZNK8casacore17LatticeStatisticsIfE17_computeQuantilesINS_5ArrayIfE16ConstIteratorSTLENS3_IbE16ConstIteratorSTLEEEvRdS8_S8_S8_NS_10CountedPtrINS_19StatisticsAlgorithmIdT_T0_SB_EEEEyddE5fracs@Base 3.2.1
 _ZGVZNK8casacore17LatticeStatisticsIfE17_computeQuantilesIPKfPKbEEvRdS7_S7_S7_NS_10CountedPtrINS_19StatisticsAlgorithmIdT_T0_SA_EEEEyddE5fracs@Base 3.2.1
 _ZGVZNK8casacore19ClassicalStatisticsIdNS_5ArrayIfE16ConstIteratorSTLENS1_IbE16ConstIteratorSTLES3_E16_getInitialStatsEvE5stats@Base 3.2.1
 _ZGVZNK8casacore19ClassicalStatisticsIdPKfPKbS2_E16_getInitialStatsEvE5stats@Base 3.2.1
 _ZGVZNK8casacore8FunctionINS_8AutoDiffIdEES2_E4nameEvE1x@Base 3.2.1
 _ZGVZNK8casacore8FunctionINS_8AutoDiffIfEES2_E4nameEvE1x@Base 3.2.1
 _ZGVZNK8casacore8FunctionIddE4nameEvE1x@Base 3.2.1
 _ZGVZNK8casacore8FunctionIffE4nameEvE1x@Base 3.2.1
 _ZN8casacore10ConstantNDINS_8AutoDiffIdEEED0Ev@Base 3.2.1
 _ZN8casacore10ConstantNDINS_8AutoDiffIdEEED1Ev@Base 3.2.1
 _ZN8casacore10ConstantNDINS_8AutoDiffIdEEED2Ev@Base 3.2.1
 _ZN8casacore10ConstantNDIdED0Ev@Base 3.2.1
 _ZN8casacore10ConstantNDIdED1Ev@Base 3.2.1
 _ZN8casacore10ConstantNDIdED2Ev@Base 3.2.1
 _ZN8casacore10CountedPtrINS_5BlockINS_6VectorIdEEEEEaSEPS4_@Base 3.2.1
 _ZN8casacore10CountedPtrINS_5BlockINS_8AutoDiffIdEEEEEaSEPS4_@Base 3.2.1
 _ZN8casacore10CountedPtrISt4pairIddEEaSEPS2_@Base 3.2.1
 _ZN8casacore10CountedPtrIdE5resetEPdb@Base 3.2.1
 _ZN8casacore10CountedPtrIdEaSEPd@Base 3.2.1
 _ZN8casacore10Gaussian1DINS_8AutoDiffIfEEED0Ev@Base 3.2.1
 _ZN8casacore10Gaussian1DINS_8AutoDiffIfEEED1Ev@Base 3.2.1
 _ZN8casacore10Gaussian1DINS_8AutoDiffIfEEED2Ev@Base 3.2.1
 _ZN8casacore10Gaussian1DIfED0Ev@Base 3.2.1
 _ZN8casacore10Gaussian1DIfED1Ev@Base 3.2.1
 _ZN8casacore10Gaussian1DIfED2Ev@Base 3.2.1
 _ZN8casacore10Gaussian2DINS_8AutoDiffIdEEED0Ev@Base 3.2.1
 _ZN8casacore10Gaussian2DINS_8AutoDiffIdEEED1Ev@Base 3.2.1
 _ZN8casacore10Gaussian2DINS_8AutoDiffIdEEED2Ev@Base 3.2.1
 _ZN8casacore10Gaussian2DIdED0Ev@Base 3.2.1
 _ZN8casacore10Gaussian2DIdED1Ev@Base 3.2.1
 _ZN8casacore10Gaussian2DIdED2Ev@Base 3.2.1
 _ZN8casacore10HyperPlaneINS_8AutoDiffIdEEED0Ev@Base 3.2.1
 _ZN8casacore10HyperPlaneINS_8AutoDiffIdEEED1Ev@Base 3.2.1
 _ZN8casacore10HyperPlaneINS_8AutoDiffIdEEED2Ev@Base 3.2.1
 _ZN8casacore10HyperPlaneIdED0Ev@Base 3.2.1
 _ZN8casacore10HyperPlaneIdED1Ev@Base 3.2.1
 _ZN8casacore10HyperPlaneIdED2Ev@Base 3.2.1
 _ZN8casacore10LCHDF5Mask10fromRecordERKNS_11TableRecordERKNS_6StringE@Base 3.2.1
 _ZN8casacore10LCHDF5Mask5flushEv@Base 3.2.1
 _ZN8casacore10LCHDF5Mask9classNameEv@Base 3.2.1
 _ZN8casacore10LCHDF5MaskC1ERKNS_10TiledShapeERKNS_10CountedPtrINS_8HDF5FileEEERKNS_6StringE@Base 3.2.1
 _ZN8casacore10LCHDF5MaskC1ERKNS_10TiledShapeERKNS_5LCBoxERKNS_10CountedPtrINS_8HDF5FileEEERKNS_6StringE@Base 3.2.1
 _ZN8casacore10LCHDF5MaskC1ERKS0_@Base 3.2.1
 _ZN8casacore10LCHDF5MaskC1ERNS_11HDF5LatticeIbEERKNS_5LCBoxE@Base 3.2.1
 _ZN8casacore10LCHDF5MaskC1Ev@Base 3.2.1
 _ZN8casacore10LCHDF5MaskC2ERKNS_10TiledShapeERKNS_10CountedPtrINS_8HDF5FileEEERKNS_6StringE@Base 3.2.1
 _ZN8casacore10LCHDF5MaskC2ERKNS_10TiledShapeERKNS_5LCBoxERKNS_10CountedPtrINS_8HDF5FileEEERKNS_6StringE@Base 3.2.1
 _ZN8casacore10LCHDF5MaskC2ERKS0_@Base 3.2.1
 _ZN8casacore10LCHDF5MaskC2ERNS_11HDF5LatticeIbEERKNS_5LCBoxE@Base 3.2.1
 _ZN8casacore10LCHDF5MaskC2Ev@Base 3.2.1
 _ZN8casacore10LCHDF5MaskD0Ev@Base 3.2.1
 _ZN8casacore10LCHDF5MaskD1Ev@Base 3.2.1
 _ZN8casacore10LCHDF5MaskD2Ev@Base 3.2.1
 _ZN8casacore10LCHDF5MaskaSERKS0_@Base 3.2.1
 _ZN8casacore10LCPixelSet10fromRecordERKNS_11TableRecordERKNS_6StringE@Base 3.2.1
 _ZN8casacore10LCPixelSet9classNameEv@Base 3.2.1
 _ZN8casacore10LCPixelSetC1ERKNS_5ArrayIbEERKNS_5LCBoxE@Base 3.2.1
 _ZN8casacore10LCPixelSetC1ERKS0_@Base 3.2.1
 _ZN8casacore10LCPixelSetC1Ev@Base 3.2.1
 _ZN8casacore10LCPixelSetC2ERKNS_5ArrayIbEERKNS_5LCBoxE@Base 3.2.1
 _ZN8casacore10LCPixelSetC2ERKS0_@Base 3.2.1
 _ZN8casacore10LCPixelSetC2Ev@Base 3.2.1
 _ZN8casacore10LCPixelSetD0Ev@Base 3.2.1
 _ZN8casacore10LCPixelSetD1Ev@Base 3.2.1
 _ZN8casacore10LCPixelSetD2Ev@Base 3.2.1
 _ZN8casacore10LCPixelSetaSERKS0_@Base 3.2.1
 _ZN8casacore10LELConvertISt7complexIdES1_IfEE17prepareScalarExprEv@Base 3.2.1
 _ZN8casacore10LELConvertISt7complexIdES1_IfEE4lockENS_10FileLocker8LockTypeEj@Base 3.2.1
 _ZN8casacore10LELConvertISt7complexIdES1_IfEE6resyncEv@Base 3.2.1
 _ZN8casacore10LELConvertISt7complexIdES1_IfEE6unlockEv@Base 3.2.1
 _ZN8casacore10LELConvertISt7complexIdES1_IfEED0Ev@Base 3.2.1
 _ZN8casacore10LELConvertISt7complexIdES1_IfEED1Ev@Base 3.2.1
 _ZN8casacore10LELConvertISt7complexIdES1_IfEED2Ev@Base 3.2.1
 _ZN8casacore10LELConvertISt7complexIdEdE17prepareScalarExprEv@Base 3.2.1
 _ZN8casacore10LELConvertISt7complexIdEdE4lockENS_10FileLocker8LockTypeEj@Base 3.2.1
 _ZN8casacore10LELConvertISt7complexIdEdE6resyncEv@Base 3.2.1
 _ZN8casacore10LELConvertISt7complexIdEdE6unlockEv@Base 3.2.1
 _ZN8casacore10LELConvertISt7complexIdEdED0Ev@Base 3.2.1
 _ZN8casacore10LELConvertISt7complexIdEdED1Ev@Base 3.2.1
 _ZN8casacore10LELConvertISt7complexIdEdED2Ev@Base 3.2.1
 _ZN8casacore10LELConvertISt7complexIdEfE17prepareScalarExprEv@Base 3.2.1
 _ZN8casacore10LELConvertISt7complexIdEfE4lockENS_10FileLocker8LockTypeEj@Base 3.2.1
 _ZN8casacore10LELConvertISt7complexIdEfE6resyncEv@Base 3.2.1
 _ZN8casacore10LELConvertISt7complexIdEfE6unlockEv@Base 3.2.1
 _ZN8casacore10LELConvertISt7complexIdEfED0Ev@Base 3.2.1
 _ZN8casacore10LELConvertISt7complexIdEfED1Ev@Base 3.2.1
 _ZN8casacore10LELConvertISt7complexIdEfED2Ev@Base 3.2.1
 _ZN8casacore10LELConvertISt7complexIfES1_IdEE17prepareScalarExprEv@Base 3.2.1
 _ZN8casacore10LELConvertISt7complexIfES1_IdEE4lockENS_10FileLocker8LockTypeEj@Base 3.2.1
 _ZN8casacore10LELConvertISt7complexIfES1_IdEE6resyncEv@Base 3.2.1
 _ZN8casacore10LELConvertISt7complexIfES1_IdEE6unlockEv@Base 3.2.1
 _ZN8casacore10LELConvertISt7complexIfES1_IdEED0Ev@Base 3.2.1
 _ZN8casacore10LELConvertISt7complexIfES1_IdEED1Ev@Base 3.2.1
 _ZN8casacore10LELConvertISt7complexIfES1_IdEED2Ev@Base 3.2.1
 _ZN8casacore10LELConvertISt7complexIfEdE17prepareScalarExprEv@Base 3.2.1
 _ZN8casacore10LELConvertISt7complexIfEdE4lockENS_10FileLocker8LockTypeEj@Base 3.2.1
 _ZN8casacore10LELConvertISt7complexIfEdE6resyncEv@Base 3.2.1
 _ZN8casacore10LELConvertISt7complexIfEdE6unlockEv@Base 3.2.1
 _ZN8casacore10LELConvertISt7complexIfEdED0Ev@Base 3.2.1
 _ZN8casacore10LELConvertISt7complexIfEdED1Ev@Base 3.2.1
 _ZN8casacore10LELConvertISt7complexIfEdED2Ev@Base 3.2.1
 _ZN8casacore10LELConvertISt7complexIfEfE17prepareScalarExprEv@Base 3.2.1
 _ZN8casacore10LELConvertISt7complexIfEfE4lockENS_10FileLocker8LockTypeEj@Base 3.2.1
 _ZN8casacore10LELConvertISt7complexIfEfE6resyncEv@Base 3.2.1
 _ZN8casacore10LELConvertISt7complexIfEfE6unlockEv@Base 3.2.1
 _ZN8casacore10LELConvertISt7complexIfEfED0Ev@Base 3.2.1
 _ZN8casacore10LELConvertISt7complexIfEfED1Ev@Base 3.2.1
 _ZN8casacore10LELConvertISt7complexIfEfED2Ev@Base 3.2.1
 _ZN8casacore10LELConvertIdfE17prepareScalarExprEv@Base 3.2.1
 _ZN8casacore10LELConvertIdfE4lockENS_10FileLocker8LockTypeEj@Base 3.2.1
 _ZN8casacore10LELConvertIdfE6resyncEv@Base 3.2.1
 _ZN8casacore10LELConvertIdfE6unlockEv@Base 3.2.1
 _ZN8casacore10LELConvertIdfED0Ev@Base 3.2.1
 _ZN8casacore10LELConvertIdfED1Ev@Base 3.2.1
 _ZN8casacore10LELConvertIdfED2Ev@Base 3.2.1
 _ZN8casacore10LELConvertIfdE17prepareScalarExprEv@Base 3.2.1
 _ZN8casacore10LELConvertIfdE4lockENS_10FileLocker8LockTypeEj@Base 3.2.1
 _ZN8casacore10LELConvertIfdE6resyncEv@Base 3.2.1
 _ZN8casacore10LELConvertIfdE6unlockEv@Base 3.2.1
 _ZN8casacore10LELConvertIfdED0Ev@Base 3.2.1
 _ZN8casacore10LELConvertIfdED1Ev@Base 3.2.1
 _ZN8casacore10LELConvertIfdED2Ev@Base 3.2.1
 _ZN8casacore10LELLatticeISt7complexIdEE17prepareScalarExprEv@Base 3.2.1
 _ZN8casacore10LELLatticeISt7complexIdEE4lockENS_10FileLocker8LockTypeEj@Base 3.2.1
 _ZN8casacore10LELLatticeISt7complexIdEE6resyncEv@Base 3.2.1
 _ZN8casacore10LELLatticeISt7complexIdEE6unlockEv@Base 3.2.1
 _ZN8casacore10LELLatticeISt7complexIdEEC1ERKNS_13MaskedLatticeIS2_EE@Base 3.2.1
 _ZN8casacore10LELLatticeISt7complexIdEEC1ERKNS_7LatticeIS2_EE@Base 3.2.1
 _ZN8casacore10LELLatticeISt7complexIdEEC2ERKNS_13MaskedLatticeIS2_EE@Base 3.2.1
 _ZN8casacore10LELLatticeISt7complexIdEEC2ERKNS_7LatticeIS2_EE@Base 3.2.1
 _ZN8casacore10LELLatticeISt7complexIdEED0Ev@Base 3.2.1
 _ZN8casacore10LELLatticeISt7complexIdEED1Ev@Base 3.2.1
 _ZN8casacore10LELLatticeISt7complexIdEED2Ev@Base 3.2.1
 _ZN8casacore10LELLatticeISt7complexIfEE17prepareScalarExprEv@Base 3.2.1
 _ZN8casacore10LELLatticeISt7complexIfEE4lockENS_10FileLocker8LockTypeEj@Base 3.2.1
 _ZN8casacore10LELLatticeISt7complexIfEE6resyncEv@Base 3.2.1
 _ZN8casacore10LELLatticeISt7complexIfEE6unlockEv@Base 3.2.1
 _ZN8casacore10LELLatticeISt7complexIfEEC1ERKNS_13MaskedLatticeIS2_EE@Base 3.2.1
 _ZN8casacore10LELLatticeISt7complexIfEEC1ERKNS_7LatticeIS2_EE@Base 3.2.1
 _ZN8casacore10LELLatticeISt7complexIfEEC2ERKNS_13MaskedLatticeIS2_EE@Base 3.2.1
 _ZN8casacore10LELLatticeISt7complexIfEEC2ERKNS_7LatticeIS2_EE@Base 3.2.1
 _ZN8casacore10LELLatticeISt7complexIfEED0Ev@Base 3.2.1
 _ZN8casacore10LELLatticeISt7complexIfEED1Ev@Base 3.2.1
 _ZN8casacore10LELLatticeISt7complexIfEED2Ev@Base 3.2.1
 _ZN8casacore10LELLatticeIbE17prepareScalarExprEv@Base 3.2.1
 _ZN8casacore10LELLatticeIbE4lockENS_10FileLocker8LockTypeEj@Base 3.2.1
 _ZN8casacore10LELLatticeIbE6resyncEv@Base 3.2.1
 _ZN8casacore10LELLatticeIbE6unlockEv@Base 3.2.1
 _ZN8casacore10LELLatticeIbEC1ERKNS_13MaskedLatticeIbEE@Base 3.2.1
 _ZN8casacore10LELLatticeIbEC1ERKNS_7LatticeIbEE@Base 3.2.1
 _ZN8casacore10LELLatticeIbEC2ERKNS_13MaskedLatticeIbEE@Base 3.2.1
 _ZN8casacore10LELLatticeIbEC2ERKNS_7LatticeIbEE@Base 3.2.1
 _ZN8casacore10LELLatticeIbED0Ev@Base 3.2.1
 _ZN8casacore10LELLatticeIbED1Ev@Base 3.2.1
 _ZN8casacore10LELLatticeIbED2Ev@Base 3.2.1
 _ZN8casacore10LELLatticeIdE17prepareScalarExprEv@Base 3.2.1
 _ZN8casacore10LELLatticeIdE4lockENS_10FileLocker8LockTypeEj@Base 3.2.1
 _ZN8casacore10LELLatticeIdE6resyncEv@Base 3.2.1
 _ZN8casacore10LELLatticeIdE6unlockEv@Base 3.2.1
 _ZN8casacore10LELLatticeIdEC1ERKNS_13MaskedLatticeIdEE@Base 3.2.1
 _ZN8casacore10LELLatticeIdEC1ERKNS_7LatticeIdEE@Base 3.2.1
 _ZN8casacore10LELLatticeIdEC2ERKNS_13MaskedLatticeIdEE@Base 3.2.1
 _ZN8casacore10LELLatticeIdEC2ERKNS_7LatticeIdEE@Base 3.2.1
 _ZN8casacore10LELLatticeIdED0Ev@Base 3.2.1
 _ZN8casacore10LELLatticeIdED1Ev@Base 3.2.1
 _ZN8casacore10LELLatticeIdED2Ev@Base 3.2.1
 _ZN8casacore10LELLatticeIfE17prepareScalarExprEv@Base 3.2.1
 _ZN8casacore10LELLatticeIfE4lockENS_10FileLocker8LockTypeEj@Base 3.2.1
 _ZN8casacore10LELLatticeIfE6resyncEv@Base 3.2.1
 _ZN8casacore10LELLatticeIfE6unlockEv@Base 3.2.1
 _ZN8casacore10LELLatticeIfEC1ERKNS_13MaskedLatticeIfEE@Base 3.2.1
 _ZN8casacore10LELLatticeIfEC1ERKNS_7LatticeIfEE@Base 3.2.1
 _ZN8casacore10LELLatticeIfEC2ERKNS_13MaskedLatticeIfEE@Base 3.2.1
 _ZN8casacore10LELLatticeIfEC2ERKNS_7LatticeIfEE@Base 3.2.1
 _ZN8casacore10LELLatticeIfED0Ev@Base 3.2.1
 _ZN8casacore10LELLatticeIfED1Ev@Base 3.2.1
 _ZN8casacore10LELLatticeIfED2Ev@Base 3.2.1
 _ZN8casacore10LatticeFit11fitProfilesEPNS_13MaskedLatticeIfEES3_RS2_PNS_7LatticeIfEERNS_9LinearFitIfEEjb@Base 3.2.1
 _ZN8casacore10LatticeFit11fitProfilesERNS_7LatticeIfEERNS_6VectorIfEERNS_9LinearFitIfEERKS2_jRKNS4_IbEEb@Base 3.2.1
 _ZN8casacore10PagedArrayISt7complexIfEE10clearCacheEv@Base 3.2.1
 _ZN8casacore10PagedArrayISt7complexIfEE10defaultRowEv@Base 3.2.1
 _ZN8casacore10PagedArrayISt7complexIfEE10doGetSliceERNS_5ArrayIS2_EERKNS_6SlicerE@Base 3.2.1
 _ZN8casacore10PagedArrayISt7complexIfEE10doPutSliceERKNS_5ArrayIS2_EERKNS_9IPositionESA_@Base 3.2.1
 _ZN8casacore10PagedArrayISt7complexIfEE10getRWArrayEv@Base 3.2.1
 _ZN8casacore10PagedArrayISt7complexIfEE12setTableTypeEv@Base 3.2.1
 _ZN8casacore10PagedArrayISt7complexIfEE13defaultColumnEv@Base 3.2.1
 _ZN8casacore10PagedArrayISt7complexIfEE14defaultCommentEv@Base 3.2.1
 _ZN8casacore10PagedArrayISt7complexIfEE19setCacheSizeInTilesEj@Base 3.2.1
 _ZN8casacore10PagedArrayISt7complexIfEE19setMaximumCacheSizeEj@Base 3.2.1
 _ZN8casacore10PagedArrayISt7complexIfEE20setCacheSizeFromPathERKNS_9IPositionES6_S6_S6_@Base 3.2.1
 _ZN8casacore10PagedArrayISt7complexIfEE4lockENS_10FileLocker8LockTypeEj@Base 3.2.1
 _ZN8casacore10PagedArrayISt7complexIfEE5flushEv@Base 3.2.1
 _ZN8casacore10PagedArrayISt7complexIfEE5putAtERKS2_RKNS_9IPositionE@Base 3.2.1
 _ZN8casacore10PagedArrayISt7complexIfEE5tableEv@Base 3.2.1
 _ZN8casacore10PagedArrayISt7complexIfEE6reopenEv@Base 3.2.1
 _ZN8casacore10PagedArrayISt7complexIfEE6resizeERKNS_10TiledShapeE@Base 3.2.1
 _ZN8casacore10PagedArrayISt7complexIfEE6resyncEv@Base 3.2.1
 _ZN8casacore10PagedArrayISt7complexIfEE6unlockEv@Base 3.2.1
 _ZN8casacore10PagedArrayISt7complexIfEE9makeArrayERKNS_10TiledShapeE@Base 3.2.1
 _ZN8casacore10PagedArrayISt7complexIfEE9makeTableERKNS_6StringENS_5Table11TableOptionE@Base 3.2.1
 _ZN8casacore10PagedArrayISt7complexIfEE9tempCloseEv@Base 3.2.1
 _ZN8casacore10PagedArrayISt7complexIfEEC1ERKNS_10TiledShapeE@Base 3.2.1
 _ZN8casacore10PagedArrayISt7complexIfEEC1ERKNS_10TiledShapeERKNS_6StringE@Base 3.2.1
 _ZN8casacore10PagedArrayISt7complexIfEEC1ERKNS_10TiledShapeERNS_5TableE@Base 3.2.1
 _ZN8casacore10PagedArrayISt7complexIfEEC1ERKNS_10TiledShapeERNS_5TableERKNS_6StringEj@Base 3.2.1
 _ZN8casacore10PagedArrayISt7complexIfEEC1ERKNS_6StringE@Base 3.2.1
 _ZN8casacore10PagedArrayISt7complexIfEEC1ERKS3_@Base 3.2.1
 _ZN8casacore10PagedArrayISt7complexIfEEC1ERNS_5TableE@Base 3.2.1
 _ZN8casacore10PagedArrayISt7complexIfEEC1ERNS_5TableERKNS_6StringEj@Base 3.2.1
 _ZN8casacore10PagedArrayISt7complexIfEEC1Ev@Base 3.2.1
 _ZN8casacore10PagedArrayISt7complexIfEEC2ERKNS_10TiledShapeE@Base 3.2.1
 _ZN8casacore10PagedArrayISt7complexIfEEC2ERKNS_10TiledShapeERKNS_6StringE@Base 3.2.1
 _ZN8casacore10PagedArrayISt7complexIfEEC2ERKNS_10TiledShapeERNS_5TableE@Base 3.2.1
 _ZN8casacore10PagedArrayISt7complexIfEEC2ERKNS_10TiledShapeERNS_5TableERKNS_6StringEj@Base 3.2.1
 _ZN8casacore10PagedArrayISt7complexIfEEC2ERKNS_6StringE@Base 3.2.1
 _ZN8casacore10PagedArrayISt7complexIfEEC2ERKS3_@Base 3.2.1
 _ZN8casacore10PagedArrayISt7complexIfEEC2ERNS_5TableE@Base 3.2.1
 _ZN8casacore10PagedArrayISt7complexIfEEC2ERNS_5TableERKNS_6StringEj@Base 3.2.1
 _ZN8casacore10PagedArrayISt7complexIfEEC2Ev@Base 3.2.1
 _ZN8casacore10PagedArrayISt7complexIfEED0Ev@Base 3.2.1
 _ZN8casacore10PagedArrayISt7complexIfEED1Ev@Base 3.2.1
 _ZN8casacore10PagedArrayISt7complexIfEED2Ev@Base 3.2.1
 _ZN8casacore10PagedArrayISt7complexIfEEaSERKS3_@Base 3.2.1
 _ZN8casacore10PagedArrayIbE10clearCacheEv@Base 3.2.1
 _ZN8casacore10PagedArrayIbE10doGetSliceERNS_5ArrayIbEERKNS_6SlicerE@Base 3.2.1
 _ZN8casacore10PagedArrayIbE10doPutSliceERKNS_5ArrayIbEERKNS_9IPositionES8_@Base 3.2.1
 _ZN8casacore10PagedArrayIbE12setTableTypeEv@Base 3.2.1
 _ZN8casacore10PagedArrayIbE19setCacheSizeInTilesEj@Base 3.2.1
 _ZN8casacore10PagedArrayIbE19setMaximumCacheSizeEj@Base 3.2.1
 _ZN8casacore10PagedArrayIbE20setCacheSizeFromPathERKNS_9IPositionES4_S4_S4_@Base 3.2.1
 _ZN8casacore10PagedArrayIbE4lockENS_10FileLocker8LockTypeEj@Base 3.2.1
 _ZN8casacore10PagedArrayIbE5flushEv@Base 3.2.1
 _ZN8casacore10PagedArrayIbE5putAtERKbRKNS_9IPositionE@Base 3.2.1
 _ZN8casacore10PagedArrayIbE6reopenEv@Base 3.2.1
 _ZN8casacore10PagedArrayIbE6resyncEv@Base 3.2.1
 _ZN8casacore10PagedArrayIbE6unlockEv@Base 3.2.1
 _ZN8casacore10PagedArrayIbE9makeArrayERKNS_10TiledShapeE@Base 3.2.1
 _ZN8casacore10PagedArrayIbE9makeTableERKNS_6StringENS_5Table11TableOptionE@Base 3.2.1
 _ZN8casacore10PagedArrayIbE9tempCloseEv@Base 3.2.1
 _ZN8casacore10PagedArrayIbEC1ERKNS_10TiledShapeERKNS_6StringE@Base 3.2.1
 _ZN8casacore10PagedArrayIbEC1ERKNS_10TiledShapeERNS_5TableE@Base 3.2.1
 _ZN8casacore10PagedArrayIbEC1ERKS1_@Base 3.2.1
 _ZN8casacore10PagedArrayIbEC1ERNS_5TableE@Base 3.2.1
 _ZN8casacore10PagedArrayIbEC1Ev@Base 3.2.1
 _ZN8casacore10PagedArrayIbEC2ERKNS_10TiledShapeERKNS_6StringE@Base 3.2.1
 _ZN8casacore10PagedArrayIbEC2ERKNS_10TiledShapeERNS_5TableE@Base 3.2.1
 _ZN8casacore10PagedArrayIbEC2ERKS1_@Base 3.2.1
 _ZN8casacore10PagedArrayIbEC2ERNS_5TableE@Base 3.2.1
 _ZN8casacore10PagedArrayIbEC2Ev@Base 3.2.1
 _ZN8casacore10PagedArrayIbED0Ev@Base 3.2.1
 _ZN8casacore10PagedArrayIbED1Ev@Base 3.2.1
 _ZN8casacore10PagedArrayIbED2Ev@Base 3.2.1
 _ZN8casacore10PagedArrayIdE10clearCacheEv@Base 3.2.1
 _ZN8casacore10PagedArrayIdE10doGetSliceERNS_5ArrayIdEERKNS_6SlicerE@Base 3.2.1
 _ZN8casacore10PagedArrayIdE10doPutSliceERKNS_5ArrayIdEERKNS_9IPositionES8_@Base 3.2.1
 _ZN8casacore10PagedArrayIdE12setTableTypeEv@Base 3.2.1
 _ZN8casacore10PagedArrayIdE19setCacheSizeInTilesEj@Base 3.2.1
 _ZN8casacore10PagedArrayIdE19setMaximumCacheSizeEj@Base 3.2.1
 _ZN8casacore10PagedArrayIdE20setCacheSizeFromPathERKNS_9IPositionES4_S4_S4_@Base 3.2.1
 _ZN8casacore10PagedArrayIdE4lockENS_10FileLocker8LockTypeEj@Base 3.2.1
 _ZN8casacore10PagedArrayIdE5flushEv@Base 3.2.1
 _ZN8casacore10PagedArrayIdE5putAtERKdRKNS_9IPositionE@Base 3.2.1
 _ZN8casacore10PagedArrayIdE6reopenEv@Base 3.2.1
 _ZN8casacore10PagedArrayIdE6resyncEv@Base 3.2.1
 _ZN8casacore10PagedArrayIdE6unlockEv@Base 3.2.1
 _ZN8casacore10PagedArrayIdE9makeArrayERKNS_10TiledShapeE@Base 3.2.1
 _ZN8casacore10PagedArrayIdE9tempCloseEv@Base 3.2.1
 _ZN8casacore10PagedArrayIdEC1ERKNS_10TiledShapeERNS_5TableE@Base 3.2.1
 _ZN8casacore10PagedArrayIdEC1ERKS1_@Base 3.2.1
 _ZN8casacore10PagedArrayIdEC1ERNS_5TableE@Base 3.2.1
 _ZN8casacore10PagedArrayIdEC2ERKNS_10TiledShapeERNS_5TableE@Base 3.2.1
 _ZN8casacore10PagedArrayIdEC2ERKS1_@Base 3.2.1
 _ZN8casacore10PagedArrayIdEC2ERNS_5TableE@Base 3.2.1
 _ZN8casacore10PagedArrayIdED0Ev@Base 3.2.1
 _ZN8casacore10PagedArrayIdED1Ev@Base 3.2.1
 _ZN8casacore10PagedArrayIdED2Ev@Base 3.2.1
 _ZN8casacore10PagedArrayIfE10clearCacheEv@Base 3.2.1
 _ZN8casacore10PagedArrayIfE10defaultRowEv@Base 3.2.1
 _ZN8casacore10PagedArrayIfE10doGetSliceERNS_5ArrayIfEERKNS_6SlicerE@Base 3.2.1
 _ZN8casacore10PagedArrayIfE10doPutSliceERKNS_5ArrayIfEERKNS_9IPositionES8_@Base 3.2.1
 _ZN8casacore10PagedArrayIfE10getRWArrayEv@Base 3.2.1
 _ZN8casacore10PagedArrayIfE12setTableTypeEv@Base 3.2.1
 _ZN8casacore10PagedArrayIfE13defaultColumnEv@Base 3.2.1
 _ZN8casacore10PagedArrayIfE14defaultCommentEv@Base 3.2.1
 _ZN8casacore10PagedArrayIfE19setCacheSizeInTilesEj@Base 3.2.1
 _ZN8casacore10PagedArrayIfE19setMaximumCacheSizeEj@Base 3.2.1
 _ZN8casacore10PagedArrayIfE20setCacheSizeFromPathERKNS_9IPositionES4_S4_S4_@Base 3.2.1
 _ZN8casacore10PagedArrayIfE4lockENS_10FileLocker8LockTypeEj@Base 3.2.1
 _ZN8casacore10PagedArrayIfE5flushEv@Base 3.2.1
 _ZN8casacore10PagedArrayIfE5putAtERKfRKNS_9IPositionE@Base 3.2.1
 _ZN8casacore10PagedArrayIfE5tableEv@Base 3.2.1
 _ZN8casacore10PagedArrayIfE6reopenEv@Base 3.2.1
 _ZN8casacore10PagedArrayIfE6resizeERKNS_10TiledShapeE@Base 3.2.1
 _ZN8casacore10PagedArrayIfE6resyncEv@Base 3.2.1
 _ZN8casacore10PagedArrayIfE6unlockEv@Base 3.2.1
 _ZN8casacore10PagedArrayIfE9makeArrayERKNS_10TiledShapeE@Base 3.2.1
 _ZN8casacore10PagedArrayIfE9makeTableERKNS_6StringENS_5Table11TableOptionE@Base 3.2.1
 _ZN8casacore10PagedArrayIfE9tempCloseEv@Base 3.2.1
 _ZN8casacore10PagedArrayIfEC1ERKNS_10TiledShapeE@Base 3.2.1
 _ZN8casacore10PagedArrayIfEC1ERKNS_10TiledShapeERKNS_6StringE@Base 3.2.1
 _ZN8casacore10PagedArrayIfEC1ERKNS_10TiledShapeERNS_5TableE@Base 3.2.1
 _ZN8casacore10PagedArrayIfEC1ERKNS_10TiledShapeERNS_5TableERKNS_6StringEj@Base 3.2.1
 _ZN8casacore10PagedArrayIfEC1ERKNS_6StringE@Base 3.2.1
 _ZN8casacore10PagedArrayIfEC1ERKS1_@Base 3.2.1
 _ZN8casacore10PagedArrayIfEC1ERNS_5TableE@Base 3.2.1
 _ZN8casacore10PagedArrayIfEC1ERNS_5TableERKNS_6StringEj@Base 3.2.1
 _ZN8casacore10PagedArrayIfEC1Ev@Base 3.2.1
 _ZN8casacore10PagedArrayIfEC2ERKNS_10TiledShapeE@Base 3.2.1
 _ZN8casacore10PagedArrayIfEC2ERKNS_10TiledShapeERKNS_6StringE@Base 3.2.1
 _ZN8casacore10PagedArrayIfEC2ERKNS_10TiledShapeERNS_5TableE@Base 3.2.1
 _ZN8casacore10PagedArrayIfEC2ERKNS_10TiledShapeERNS_5TableERKNS_6StringEj@Base 3.2.1
 _ZN8casacore10PagedArrayIfEC2ERKNS_6StringE@Base 3.2.1
 _ZN8casacore10PagedArrayIfEC2ERKS1_@Base 3.2.1
 _ZN8casacore10PagedArrayIfEC2ERNS_5TableE@Base 3.2.1
 _ZN8casacore10PagedArrayIfEC2ERNS_5TableERKNS_6StringEj@Base 3.2.1
 _ZN8casacore10PagedArrayIfEC2Ev@Base 3.2.1
 _ZN8casacore10PagedArrayIfED0Ev@Base 3.2.1
 _ZN8casacore10PagedArrayIfED1Ev@Base 3.2.1
 _ZN8casacore10PagedArrayIfED2Ev@Base 3.2.1
 _ZN8casacore10PagedArrayIfEaSERKS1_@Base 3.2.1
 _ZN8casacore10RegionType20absRelTypeFromStringERKNS_6StringE@Base 3.2.1
 _ZN8casacore10SubLatticeISt7complexIdEE10doGetSliceERNS_5ArrayIS2_EERKNS_6SlicerE@Base 3.2.1
 _ZN8casacore10SubLatticeISt7complexIdEE10doPutSliceERKNS_5ArrayIS2_EERKNS_9IPositionESA_@Base 3.2.1
 _ZN8casacore10SubLatticeISt7complexIdEE10setAxesMapERKNS_13AxesSpecifierE@Base 3.2.1
 _ZN8casacore10SubLatticeISt7complexIdEE14doGetMaskSliceERNS_5ArrayIbEERKNS_6SlicerE@Base 3.2.1
 _ZN8casacore10SubLatticeISt7complexIdEE16getMaskDataSliceERNS_5ArrayIbEERKNS_6SlicerE@Base 3.2.1
 _ZN8casacore10SubLatticeISt7complexIdEE18getRegionDataSliceERNS_5ArrayIbEERKNS_6SlicerE@Base 3.2.1
 _ZN8casacore10SubLatticeISt7complexIdEE4lockENS_10FileLocker8LockTypeEj@Base 3.2.1
 _ZN8casacore10SubLatticeISt7complexIdEE5flushEv@Base 3.2.1
 _ZN8casacore10SubLatticeISt7complexIdEE5putAtERKS2_RKNS_9IPositionE@Base 3.2.1
 _ZN8casacore10SubLatticeISt7complexIdEE6reopenEv@Base 3.2.1
 _ZN8casacore10SubLatticeISt7complexIdEE6resyncEv@Base 3.2.1
 _ZN8casacore10SubLatticeISt7complexIdEE6unlockEv@Base 3.2.1
 _ZN8casacore10SubLatticeISt7complexIdEE9pixelMaskEv@Base 3.2.1
 _ZN8casacore10SubLatticeISt7complexIdEE9setRegionERKNS_13LatticeRegionE@Base 3.2.1
 _ZN8casacore10SubLatticeISt7complexIdEE9setRegionEv@Base 3.2.1
 _ZN8casacore10SubLatticeISt7complexIdEE9tempCloseEv@Base 3.2.1
 _ZN8casacore10SubLatticeISt7complexIdEEC1ERKNS_13MaskedLatticeIS2_EERKNS_13LatticeRegionENS_13AxesSpecifierE@Base 3.2.1
 _ZN8casacore10SubLatticeISt7complexIdEEC2ERKNS_13MaskedLatticeIS2_EERKNS_13LatticeRegionENS_13AxesSpecifierE@Base 3.2.1
 _ZN8casacore10SubLatticeISt7complexIdEED0Ev@Base 3.2.1
 _ZN8casacore10SubLatticeISt7complexIdEED1Ev@Base 3.2.1
 _ZN8casacore10SubLatticeISt7complexIdEED2Ev@Base 3.2.1
 _ZN8casacore10SubLatticeISt7complexIdEEaSERKS3_@Base 3.2.1
 _ZN8casacore10SubLatticeISt7complexIfEE10doGetSliceERNS_5ArrayIS2_EERKNS_6SlicerE@Base 3.2.1
 _ZN8casacore10SubLatticeISt7complexIfEE10doPutSliceERKNS_5ArrayIS2_EERKNS_9IPositionESA_@Base 3.2.1
 _ZN8casacore10SubLatticeISt7complexIfEE10setAxesMapERKNS_13AxesSpecifierE@Base 3.2.1
 _ZN8casacore10SubLatticeISt7complexIfEE14doGetMaskSliceERNS_5ArrayIbEERKNS_6SlicerE@Base 3.2.1
 _ZN8casacore10SubLatticeISt7complexIfEE16getMaskDataSliceERNS_5ArrayIbEERKNS_6SlicerE@Base 3.2.1
 _ZN8casacore10SubLatticeISt7complexIfEE18getRegionDataSliceERNS_5ArrayIbEERKNS_6SlicerE@Base 3.2.1
 _ZN8casacore10SubLatticeISt7complexIfEE4lockENS_10FileLocker8LockTypeEj@Base 3.2.1
 _ZN8casacore10SubLatticeISt7complexIfEE5flushEv@Base 3.2.1
 _ZN8casacore10SubLatticeISt7complexIfEE5putAtERKS2_RKNS_9IPositionE@Base 3.2.1
 _ZN8casacore10SubLatticeISt7complexIfEE6reopenEv@Base 3.2.1
 _ZN8casacore10SubLatticeISt7complexIfEE6resyncEv@Base 3.2.1
 _ZN8casacore10SubLatticeISt7complexIfEE6unlockEv@Base 3.2.1
 _ZN8casacore10SubLatticeISt7complexIfEE9pixelMaskEv@Base 3.2.1
 _ZN8casacore10SubLatticeISt7complexIfEE9setRegionERKNS_13LatticeRegionE@Base 3.2.1
 _ZN8casacore10SubLatticeISt7complexIfEE9setRegionEv@Base 3.2.1
 _ZN8casacore10SubLatticeISt7complexIfEE9tempCloseEv@Base 3.2.1
 _ZN8casacore10SubLatticeISt7complexIfEEC1ERKNS_13MaskedLatticeIS2_EERKNS_13LatticeRegionENS_13AxesSpecifierE@Base 3.2.1
 _ZN8casacore10SubLatticeISt7complexIfEEC2ERKNS_13MaskedLatticeIS2_EERKNS_13LatticeRegionENS_13AxesSpecifierE@Base 3.2.1
 _ZN8casacore10SubLatticeISt7complexIfEED0Ev@Base 3.2.1
 _ZN8casacore10SubLatticeISt7complexIfEED1Ev@Base 3.2.1
 _ZN8casacore10SubLatticeISt7complexIfEED2Ev@Base 3.2.1
 _ZN8casacore10SubLatticeISt7complexIfEEaSERKS3_@Base 3.2.1
 _ZN8casacore10SubLatticeIbE10doGetSliceERNS_5ArrayIbEERKNS_6SlicerE@Base 3.2.1
 _ZN8casacore10SubLatticeIbE10doPutSliceERKNS_5ArrayIbEERKNS_9IPositionES8_@Base 3.2.1
 _ZN8casacore10SubLatticeIbE10setAxesMapERKNS_13AxesSpecifierE@Base 3.2.1
 _ZN8casacore10SubLatticeIbE12setPixelMaskERKNS_7LatticeIbEEb@Base 3.2.1
 _ZN8casacore10SubLatticeIbE14doGetMaskSliceERNS_5ArrayIbEERKNS_6SlicerE@Base 3.2.1
 _ZN8casacore10SubLatticeIbE16getMaskDataSliceERNS_5ArrayIbEERKNS_6SlicerE@Base 3.2.1
 _ZN8casacore10SubLatticeIbE18getRegionDataSliceERNS_5ArrayIbEERKNS_6SlicerE@Base 3.2.1
 _ZN8casacore10SubLatticeIbE4lockENS_10FileLocker8LockTypeEj@Base 3.2.1
 _ZN8casacore10SubLatticeIbE5flushEv@Base 3.2.1
 _ZN8casacore10SubLatticeIbE5putAtERKbRKNS_9IPositionE@Base 3.2.1
 _ZN8casacore10SubLatticeIbE6reopenEv@Base 3.2.1
 _ZN8casacore10SubLatticeIbE6resyncEv@Base 3.2.1
 _ZN8casacore10SubLatticeIbE6setPtrEPNS_7LatticeIbEEPNS_13MaskedLatticeIbEEb@Base 3.2.1
 _ZN8casacore10SubLatticeIbE6unlockEv@Base 3.2.1
 _ZN8casacore10SubLatticeIbE9pixelMaskEv@Base 3.2.1
 _ZN8casacore10SubLatticeIbE9setRegionERKNS_13LatticeRegionE@Base 3.2.1
 _ZN8casacore10SubLatticeIbE9setRegionERKNS_6SlicerE@Base 3.2.1
 _ZN8casacore10SubLatticeIbE9setRegionEv@Base 3.2.1
 _ZN8casacore10SubLatticeIbE9tempCloseEv@Base 3.2.1
 _ZN8casacore10SubLatticeIbEC1ERKNS_13MaskedLatticeIbEENS_13AxesSpecifierE@Base 3.2.1
 _ZN8casacore10SubLatticeIbEC1ERKNS_13MaskedLatticeIbEERKNS_13LatticeRegionENS_13AxesSpecifierE@Base 3.2.1
 _ZN8casacore10SubLatticeIbEC1ERKNS_13MaskedLatticeIbEERKNS_6SlicerENS_13AxesSpecifierE@Base 3.2.1
 _ZN8casacore10SubLatticeIbEC1ERKNS_7LatticeIbEENS_13AxesSpecifierE@Base 3.2.1
 _ZN8casacore10SubLatticeIbEC1ERKNS_7LatticeIbEERKNS_13LatticeRegionENS_13AxesSpecifierE@Base 3.2.1
 _ZN8casacore10SubLatticeIbEC1ERKNS_7LatticeIbEERKNS_6SlicerENS_13AxesSpecifierE@Base 3.2.1
 _ZN8casacore10SubLatticeIbEC1ERKS1_@Base 3.2.1
 _ZN8casacore10SubLatticeIbEC1ERNS_13MaskedLatticeIbEERKNS_13LatticeRegionEbNS_13AxesSpecifierE@Base 3.2.1
 _ZN8casacore10SubLatticeIbEC1ERNS_13MaskedLatticeIbEERKNS_6SlicerEbNS_13AxesSpecifierE@Base 3.2.1
 _ZN8casacore10SubLatticeIbEC1ERNS_13MaskedLatticeIbEEbNS_13AxesSpecifierE@Base 3.2.1
 _ZN8casacore10SubLatticeIbEC1ERNS_7LatticeIbEERKNS_13LatticeRegionEbNS_13AxesSpecifierE@Base 3.2.1
 _ZN8casacore10SubLatticeIbEC1ERNS_7LatticeIbEERKNS_6SlicerEbNS_13AxesSpecifierE@Base 3.2.1
 _ZN8casacore10SubLatticeIbEC1ERNS_7LatticeIbEEbNS_13AxesSpecifierE@Base 3.2.1
 _ZN8casacore10SubLatticeIbEC1Ev@Base 3.2.1
 _ZN8casacore10SubLatticeIbEC2ERKNS_13MaskedLatticeIbEENS_13AxesSpecifierE@Base 3.2.1
 _ZN8casacore10SubLatticeIbEC2ERKNS_13MaskedLatticeIbEERKNS_13LatticeRegionENS_13AxesSpecifierE@Base 3.2.1
 _ZN8casacore10SubLatticeIbEC2ERKNS_13MaskedLatticeIbEERKNS_6SlicerENS_13AxesSpecifierE@Base 3.2.1
 _ZN8casacore10SubLatticeIbEC2ERKNS_7LatticeIbEENS_13AxesSpecifierE@Base 3.2.1
 _ZN8casacore10SubLatticeIbEC2ERKNS_7LatticeIbEERKNS_13LatticeRegionENS_13AxesSpecifierE@Base 3.2.1
 _ZN8casacore10SubLatticeIbEC2ERKNS_7LatticeIbEERKNS_6SlicerENS_13AxesSpecifierE@Base 3.2.1
 _ZN8casacore10SubLatticeIbEC2ERKS1_@Base 3.2.1
 _ZN8casacore10SubLatticeIbEC2ERNS_13MaskedLatticeIbEERKNS_13LatticeRegionEbNS_13AxesSpecifierE@Base 3.2.1
 _ZN8casacore10SubLatticeIbEC2ERNS_13MaskedLatticeIbEERKNS_6SlicerEbNS_13AxesSpecifierE@Base 3.2.1
 _ZN8casacore10SubLatticeIbEC2ERNS_13MaskedLatticeIbEEbNS_13AxesSpecifierE@Base 3.2.1
 _ZN8casacore10SubLatticeIbEC2ERNS_7LatticeIbEERKNS_13LatticeRegionEbNS_13AxesSpecifierE@Base 3.2.1
 _ZN8casacore10SubLatticeIbEC2ERNS_7LatticeIbEERKNS_6SlicerEbNS_13AxesSpecifierE@Base 3.2.1
 _ZN8casacore10SubLatticeIbEC2ERNS_7LatticeIbEEbNS_13AxesSpecifierE@Base 3.2.1
 _ZN8casacore10SubLatticeIbEC2Ev@Base 3.2.1
 _ZN8casacore10SubLatticeIbED0Ev@Base 3.2.1
 _ZN8casacore10SubLatticeIbED1Ev@Base 3.2.1
 _ZN8casacore10SubLatticeIbED2Ev@Base 3.2.1
 _ZN8casacore10SubLatticeIbEaSERKS1_@Base 3.2.1
 _ZN8casacore10SubLatticeIdE10doGetSliceERNS_5ArrayIdEERKNS_6SlicerE@Base 3.2.1
 _ZN8casacore10SubLatticeIdE10doPutSliceERKNS_5ArrayIdEERKNS_9IPositionES8_@Base 3.2.1
 _ZN8casacore10SubLatticeIdE10setAxesMapERKNS_13AxesSpecifierE@Base 3.2.1
 _ZN8casacore10SubLatticeIdE14doGetMaskSliceERNS_5ArrayIbEERKNS_6SlicerE@Base 3.2.1
 _ZN8casacore10SubLatticeIdE16getMaskDataSliceERNS_5ArrayIbEERKNS_6SlicerE@Base 3.2.1
 _ZN8casacore10SubLatticeIdE18getRegionDataSliceERNS_5ArrayIbEERKNS_6SlicerE@Base 3.2.1
 _ZN8casacore10SubLatticeIdE4lockENS_10FileLocker8LockTypeEj@Base 3.2.1
 _ZN8casacore10SubLatticeIdE5flushEv@Base 3.2.1
 _ZN8casacore10SubLatticeIdE5putAtERKdRKNS_9IPositionE@Base 3.2.1
 _ZN8casacore10SubLatticeIdE6reopenEv@Base 3.2.1
 _ZN8casacore10SubLatticeIdE6resyncEv@Base 3.2.1
 _ZN8casacore10SubLatticeIdE6unlockEv@Base 3.2.1
 _ZN8casacore10SubLatticeIdE9pixelMaskEv@Base 3.2.1
 _ZN8casacore10SubLatticeIdE9setRegionERKNS_13LatticeRegionE@Base 3.2.1
 _ZN8casacore10SubLatticeIdE9setRegionEv@Base 3.2.1
 _ZN8casacore10SubLatticeIdE9tempCloseEv@Base 3.2.1
 _ZN8casacore10SubLatticeIdEC1ERKNS_13MaskedLatticeIdEERKNS_13LatticeRegionENS_13AxesSpecifierE@Base 3.2.1
 _ZN8casacore10SubLatticeIdEC2ERKNS_13MaskedLatticeIdEERKNS_13LatticeRegionENS_13AxesSpecifierE@Base 3.2.1
 _ZN8casacore10SubLatticeIdED0Ev@Base 3.2.1
 _ZN8casacore10SubLatticeIdED1Ev@Base 3.2.1
 _ZN8casacore10SubLatticeIdED2Ev@Base 3.2.1
 _ZN8casacore10SubLatticeIdEaSERKS1_@Base 3.2.1
 _ZN8casacore10SubLatticeIfE10doGetSliceERNS_5ArrayIfEERKNS_6SlicerE@Base 3.2.1
 _ZN8casacore10SubLatticeIfE10doPutSliceERKNS_5ArrayIfEERKNS_9IPositionES8_@Base 3.2.1
 _ZN8casacore10SubLatticeIfE10setAxesMapERKNS_13AxesSpecifierE@Base 3.2.1
 _ZN8casacore10SubLatticeIfE12setPixelMaskERKNS_7LatticeIbEEb@Base 3.2.1
 _ZN8casacore10SubLatticeIfE14doGetMaskSliceERNS_5ArrayIbEERKNS_6SlicerE@Base 3.2.1
 _ZN8casacore10SubLatticeIfE16getMaskDataSliceERNS_5ArrayIbEERKNS_6SlicerE@Base 3.2.1
 _ZN8casacore10SubLatticeIfE18getRegionDataSliceERNS_5ArrayIbEERKNS_6SlicerE@Base 3.2.1
 _ZN8casacore10SubLatticeIfE4lockENS_10FileLocker8LockTypeEj@Base 3.2.1
 _ZN8casacore10SubLatticeIfE5flushEv@Base 3.2.1
 _ZN8casacore10SubLatticeIfE5putAtERKfRKNS_9IPositionE@Base 3.2.1
 _ZN8casacore10SubLatticeIfE6reopenEv@Base 3.2.1
 _ZN8casacore10SubLatticeIfE6resyncEv@Base 3.2.1
 _ZN8casacore10SubLatticeIfE6setPtrEPNS_7LatticeIfEEPNS_13MaskedLatticeIfEEb@Base 3.2.1
 _ZN8casacore10SubLatticeIfE6unlockEv@Base 3.2.1
 _ZN8casacore10SubLatticeIfE9pixelMaskEv@Base 3.2.1
 _ZN8casacore10SubLatticeIfE9setRegionERKNS_13LatticeRegionE@Base 3.2.1
 _ZN8casacore10SubLatticeIfE9setRegionERKNS_6SlicerE@Base 3.2.1
 _ZN8casacore10SubLatticeIfE9setRegionEv@Base 3.2.1
 _ZN8casacore10SubLatticeIfE9tempCloseEv@Base 3.2.1
 _ZN8casacore10SubLatticeIfEC1ERKNS_13MaskedLatticeIfEENS_13AxesSpecifierE@Base 3.2.1
 _ZN8casacore10SubLatticeIfEC1ERKNS_13MaskedLatticeIfEERKNS_13LatticeRegionENS_13AxesSpecifierE@Base 3.2.1
 _ZN8casacore10SubLatticeIfEC1ERKNS_13MaskedLatticeIfEERKNS_6SlicerENS_13AxesSpecifierE@Base 3.2.1
 _ZN8casacore10SubLatticeIfEC1ERKNS_7LatticeIfEENS_13AxesSpecifierE@Base 3.2.1
 _ZN8casacore10SubLatticeIfEC1ERKNS_7LatticeIfEERKNS_13LatticeRegionENS_13AxesSpecifierE@Base 3.2.1
 _ZN8casacore10SubLatticeIfEC1ERKNS_7LatticeIfEERKNS_6SlicerENS_13AxesSpecifierE@Base 3.2.1
 _ZN8casacore10SubLatticeIfEC1ERKS1_@Base 3.2.1
 _ZN8casacore10SubLatticeIfEC1ERNS_13MaskedLatticeIfEERKNS_13LatticeRegionEbNS_13AxesSpecifierE@Base 3.2.1
 _ZN8casacore10SubLatticeIfEC1ERNS_13MaskedLatticeIfEERKNS_6SlicerEbNS_13AxesSpecifierE@Base 3.2.1
 _ZN8casacore10SubLatticeIfEC1ERNS_13MaskedLatticeIfEEbNS_13AxesSpecifierE@Base 3.2.1
 _ZN8casacore10SubLatticeIfEC1ERNS_7LatticeIfEERKNS_13LatticeRegionEbNS_13AxesSpecifierE@Base 3.2.1
 _ZN8casacore10SubLatticeIfEC1ERNS_7LatticeIfEERKNS_6SlicerEbNS_13AxesSpecifierE@Base 3.2.1
 _ZN8casacore10SubLatticeIfEC1ERNS_7LatticeIfEEbNS_13AxesSpecifierE@Base 3.2.1
 _ZN8casacore10SubLatticeIfEC1Ev@Base 3.2.1
 _ZN8casacore10SubLatticeIfEC2ERKNS_13MaskedLatticeIfEENS_13AxesSpecifierE@Base 3.2.1
 _ZN8casacore10SubLatticeIfEC2ERKNS_13MaskedLatticeIfEERKNS_13LatticeRegionENS_13AxesSpecifierE@Base 3.2.1
 _ZN8casacore10SubLatticeIfEC2ERKNS_13MaskedLatticeIfEERKNS_6SlicerENS_13AxesSpecifierE@Base 3.2.1
 _ZN8casacore10SubLatticeIfEC2ERKNS_7LatticeIfEENS_13AxesSpecifierE@Base 3.2.1
 _ZN8casacore10SubLatticeIfEC2ERKNS_7LatticeIfEERKNS_13LatticeRegionENS_13AxesSpecifierE@Base 3.2.1
 _ZN8casacore10SubLatticeIfEC2ERKNS_7LatticeIfEERKNS_6SlicerENS_13AxesSpecifierE@Base 3.2.1
 _ZN8casacore10SubLatticeIfEC2ERKS1_@Base 3.2.1
 _ZN8casacore10SubLatticeIfEC2ERNS_13MaskedLatticeIfEERKNS_13LatticeRegionEbNS_13AxesSpecifierE@Base 3.2.1
 _ZN8casacore10SubLatticeIfEC2ERNS_13MaskedLatticeIfEERKNS_6SlicerEbNS_13AxesSpecifierE@Base 3.2.1
 _ZN8casacore10SubLatticeIfEC2ERNS_13MaskedLatticeIfEEbNS_13AxesSpecifierE@Base 3.2.1
 _ZN8casacore10SubLatticeIfEC2ERNS_7LatticeIfEERKNS_13LatticeRegionEbNS_13AxesSpecifierE@Base 3.2.1
 _ZN8casacore10SubLatticeIfEC2ERNS_7LatticeIfEERKNS_6SlicerEbNS_13AxesSpecifierE@Base 3.2.1
 _ZN8casacore10SubLatticeIfEC2ERNS_7LatticeIfEEbNS_13AxesSpecifierE@Base 3.2.1
 _ZN8casacore10SubLatticeIfEC2Ev@Base 3.2.1
 _ZN8casacore10SubLatticeIfED0Ev@Base 3.2.1
 _ZN8casacore10SubLatticeIfED1Ev@Base 3.2.1
 _ZN8casacore10SubLatticeIfED2Ev@Base 3.2.1
 _ZN8casacore10SubLatticeIfEaSERKS1_@Base 3.2.1
 _ZN8casacore10TiledShapeC1ERKNS_9IPositionE@Base 3.2.1
 _ZN8casacore10TiledShapeC1ERKNS_9IPositionES3_@Base 3.2.1
 _ZN8casacore10TiledShapeC1ERKS0_@Base 3.2.1
 _ZN8casacore10TiledShapeC1Ev@Base 3.2.1
 _ZN8casacore10TiledShapeC2ERKNS_9IPositionE@Base 3.2.1
 _ZN8casacore10TiledShapeC2ERKNS_9IPositionES3_@Base 3.2.1
 _ZN8casacore10TiledShapeC2ERKS0_@Base 3.2.1
 _ZN8casacore10TiledShapeC2Ev@Base 3.2.1
 _ZN8casacore10TiledShapeD1Ev@Base 3.2.1
 _ZN8casacore10TiledShapeD2Ev@Base 3.2.1
 _ZN8casacore10TiledShapeaSERKS0_@Base 3.2.1
 _ZN8casacore10toDComplexERKNS_15LatticeExprNodeE@Base 3.2.1
 _ZN8casacore11HDF5LatticeIbE10doGetSliceERNS_5ArrayIbEERKNS_6SlicerE@Base 3.2.1
 _ZN8casacore11HDF5LatticeIbE10doPutSliceERKNS_5ArrayIbEERKNS_9IPositionES8_@Base 3.2.1
 _ZN8casacore11HDF5LatticeIbE19setCacheSizeInTilesEj@Base 3.2.1
 _ZN8casacore11HDF5LatticeIbE20setCacheSizeFromPathERKNS_9IPositionES4_S4_S4_@Base 3.2.1
 _ZN8casacore11HDF5LatticeIbE5flushEv@Base 3.2.1
 _ZN8casacore11HDF5LatticeIbE5putAtERKbRKNS_9IPositionE@Base 3.2.1
 _ZN8casacore11HDF5LatticeIbE9makeArrayERKNS_10TiledShapeERKNS_6StringES7_@Base 3.2.1
 _ZN8casacore11HDF5LatticeIbE9openArrayERKNS_6StringES4_@Base 3.2.1
 _ZN8casacore11HDF5LatticeIbEC1ERKNS_10TiledShapeERKNS_10CountedPtrINS_8HDF5FileEEERKNS_6StringESC_@Base 3.2.1
 _ZN8casacore11HDF5LatticeIbEC1ERKNS_6StringES4_S4_@Base 3.2.1
 _ZN8casacore11HDF5LatticeIbEC1ERKS1_@Base 3.2.1
 _ZN8casacore11HDF5LatticeIbEC2ERKNS_10TiledShapeERKNS_10CountedPtrINS_8HDF5FileEEERKNS_6StringESC_@Base 3.2.1
 _ZN8casacore11HDF5LatticeIbEC2ERKNS_6StringES4_S4_@Base 3.2.1
 _ZN8casacore11HDF5LatticeIbEC2ERKS1_@Base 3.2.1
 _ZN8casacore11HDF5LatticeIbED0Ev@Base 3.2.1
 _ZN8casacore11HDF5LatticeIbED1Ev@Base 3.2.1
 _ZN8casacore11HDF5LatticeIbED2Ev@Base 3.2.1
 _ZN8casacore11LCEllipsoid10_doOutsideEv@Base 3.2.1
 _ZN8casacore11LCEllipsoid10defineMaskEv@Base 3.2.1
 _ZN8casacore11LCEllipsoid10fillCenterERKNS_9IPositionE@Base 3.2.1
 _ZN8casacore11LCEllipsoid10fromRecordERKNS_11TableRecordERKNS_6StringE@Base 3.2.1
 _ZN8casacore11LCEllipsoid13_defineMask2DEv@Base 3.2.1
 _ZN8casacore11LCEllipsoid7makeBoxERKNS_6VectorIfEERKNS_9IPositionE@Base 3.2.1
 _ZN8casacore11LCEllipsoid9classNameEv@Base 3.2.1
 _ZN8casacore11LCEllipsoidC1ERKNS_6VectorIdEES4_RKNS_9IPositionE@Base 3.2.1
 _ZN8casacore11LCEllipsoidC1ERKNS_6VectorIdEEdRKNS_9IPositionE@Base 3.2.1
 _ZN8casacore11LCEllipsoidC1ERKNS_6VectorIfEES4_RKNS_9IPositionE@Base 3.2.1
 _ZN8casacore11LCEllipsoidC1ERKNS_6VectorIfEEfRKNS_9IPositionE@Base 3.2.1
 _ZN8casacore11LCEllipsoidC1ERKNS_9IPositionEfS3_@Base 3.2.1
 _ZN8casacore11LCEllipsoidC1ERKS0_@Base 3.2.1
 _ZN8casacore11LCEllipsoidC1EfffffRKNS_9IPositionE@Base 3.2.1
 _ZN8casacore11LCEllipsoidC1Ev@Base 3.2.1
 _ZN8casacore11LCEllipsoidC2ERKNS_6VectorIdEES4_RKNS_9IPositionE@Base 3.2.1
 _ZN8casacore11LCEllipsoidC2ERKNS_6VectorIdEEdRKNS_9IPositionE@Base 3.2.1
 _ZN8casacore11LCEllipsoidC2ERKNS_6VectorIfEES4_RKNS_9IPositionE@Base 3.2.1
 _ZN8casacore11LCEllipsoidC2ERKNS_6VectorIfEEfRKNS_9IPositionE@Base 3.2.1
 _ZN8casacore11LCEllipsoidC2ERKNS_9IPositionEfS3_@Base 3.2.1
 _ZN8casacore11LCEllipsoidC2ERKS0_@Base 3.2.1
 _ZN8casacore11LCEllipsoidC2EfffffRKNS_9IPositionE@Base 3.2.1
 _ZN8casacore11LCEllipsoidC2Ev@Base 3.2.1
 _ZN8casacore11LCEllipsoidD0Ev@Base 3.2.1
 _ZN8casacore11LCEllipsoidD1Ev@Base 3.2.1
 _ZN8casacore11LCEllipsoidD2Ev@Base 3.2.1
 _ZN8casacore11LCEllipsoidaSERKS0_@Base 3.2.1
 _ZN8casacore11LCExtension10fromRecordERKNS_11TableRecordERKNS_6StringE@Base 3.2.1
 _ZN8casacore11LCExtension13multiGetSliceERNS_5ArrayIbEERKNS_6SlicerE@Base 3.2.1
 _ZN8casacore11LCExtension14fillRegionAxesEv@Base 3.2.1
 _ZN8casacore11LCExtension4fillERKNS_9IPositionERKNS_5LCBoxE@Base 3.2.1
 _ZN8casacore11LCExtension9classNameEv@Base 3.2.1
 _ZN8casacore11LCExtensionC1ERKNS_8LCRegionERKNS_9IPositionERKNS_5LCBoxE@Base 3.2.1
 _ZN8casacore11LCExtensionC1ERKS0_@Base 3.2.1
 _ZN8casacore11LCExtensionC1EbPKNS_8LCRegionERKNS_9IPositionERKNS_5LCBoxE@Base 3.2.1
 _ZN8casacore11LCExtensionC1Ev@Base 3.2.1
 _ZN8casacore11LCExtensionC2ERKNS_8LCRegionERKNS_9IPositionERKNS_5LCBoxE@Base 3.2.1
 _ZN8casacore11LCExtensionC2ERKS0_@Base 3.2.1
 _ZN8casacore11LCExtensionC2EbPKNS_8LCRegionERKNS_9IPositionERKNS_5LCBoxE@Base 3.2.1
 _ZN8casacore11LCExtensionC2Ev@Base 3.2.1
 _ZN8casacore11LCExtensionD0Ev@Base 3.2.1
 _ZN8casacore11LCExtensionD1Ev@Base 3.2.1
 _ZN8casacore11LCExtensionD2Ev@Base 3.2.1
 _ZN8casacore11LCExtensionaSERKS0_@Base 3.2.1
 _ZN8casacore11LCPagedMask10clearCacheEv@Base 3.2.1
 _ZN8casacore11LCPagedMask10fromRecordERKNS_11TableRecordERKNS_6StringE@Base 3.2.1
 _ZN8casacore11LCPagedMask12handleDeleteEv@Base 3.2.1
 _ZN8casacore11LCPagedMask12handleRenameERKNS_6StringEb@Base 3.2.1
 _ZN8casacore11LCPagedMask19setCacheSizeInTilesEj@Base 3.2.1
 _ZN8casacore11LCPagedMask19setMaximumCacheSizeEj@Base 3.2.1
 _ZN8casacore11LCPagedMask20setCacheSizeFromPathERKNS_9IPositionES3_S3_S3_@Base 3.2.1
 _ZN8casacore11LCPagedMask4lockENS_10FileLocker8LockTypeEj@Base 3.2.1
 _ZN8casacore11LCPagedMask5flushEv@Base 3.2.1
 _ZN8casacore11LCPagedMask6reopenEv@Base 3.2.1
 _ZN8casacore11LCPagedMask6resyncEv@Base 3.2.1
 _ZN8casacore11LCPagedMask6unlockEv@Base 3.2.1
 _ZN8casacore11LCPagedMask9classNameEv@Base 3.2.1
 _ZN8casacore11LCPagedMask9tempCloseEv@Base 3.2.1
 _ZN8casacore11LCPagedMaskC1ERKNS_10TiledShapeERKNS_5LCBoxERKNS_6StringE@Base 3.2.1
 _ZN8casacore11LCPagedMaskC1ERKNS_10TiledShapeERKNS_6StringE@Base 3.2.1
 _ZN8casacore11LCPagedMaskC1ERKS0_@Base 3.2.1
 _ZN8casacore11LCPagedMaskC1ERNS_10PagedArrayIbEERKNS_5LCBoxE@Base 3.2.1
 _ZN8casacore11LCPagedMaskC1Ev@Base 3.2.1
 _ZN8casacore11LCPagedMaskC2ERKNS_10TiledShapeERKNS_5LCBoxERKNS_6StringE@Base 3.2.1
 _ZN8casacore11LCPagedMaskC2ERKNS_10TiledShapeERKNS_6StringE@Base 3.2.1
 _ZN8casacore11LCPagedMaskC2ERKS0_@Base 3.2.1
 _ZN8casacore11LCPagedMaskC2ERNS_10PagedArrayIbEERKNS_5LCBoxE@Base 3.2.1
 _ZN8casacore11LCPagedMaskC2Ev@Base 3.2.1
 _ZN8casacore11LCPagedMaskD0Ev@Base 3.2.1
 _ZN8casacore11LCPagedMaskD1Ev@Base 3.2.1
 _ZN8casacore11LCPagedMaskD2Ev@Base 3.2.1
 _ZN8casacore11LCPagedMaskaSERKS0_@Base 3.2.1
 _ZN8casacore11LatticeBase10clearCacheEv@Base 3.2.1
 _ZN8casacore11LatticeBase19setCacheSizeInTilesEj@Base 3.2.1
 _ZN8casacore11LatticeBase19setMaximumCacheSizeEj@Base 3.2.1
 _ZN8casacore11LatticeBase20setCacheSizeFromPathERKNS_9IPositionES3_S3_S3_@Base 3.2.1
 _ZN8casacore11LatticeBase4lockENS_10FileLocker8LockTypeEj@Base 3.2.1
 _ZN8casacore11LatticeBase5flushEv@Base 3.2.1
 _ZN8casacore11LatticeBase6reopenEv@Base 3.2.1
 _ZN8casacore11LatticeBase6resyncEv@Base 3.2.1
 _ZN8casacore11LatticeBase6unlockEv@Base 3.2.1
 _ZN8casacore11LatticeBase9tempCloseEv@Base 3.2.1
 _ZN8casacore11LatticeBaseD0Ev@Base 3.2.1
 _ZN8casacore11LatticeBaseD1Ev@Base 3.2.1
 _ZN8casacore11LatticeBaseD2Ev@Base 3.2.1
 _ZN8casacore11LatticeExprISt7complexIdEE10doGetSliceERNS_5ArrayIS2_EERKNS_6SlicerE@Base 3.2.1
 _ZN8casacore11LatticeExprISt7complexIdEE10doPutSliceERKNS_5ArrayIS2_EERKNS_9IPositionESA_@Base 3.2.1
 _ZN8casacore11LatticeExprISt7complexIdEE14doGetMaskSliceERNS_5ArrayIbEERKNS_6SlicerE@Base 3.2.1
 _ZN8casacore11LatticeExprISt7complexIdEE4initERKNS_15LatticeExprNodeE@Base 3.2.1
 _ZN8casacore11LatticeExprISt7complexIdEE4lockENS_10FileLocker8LockTypeEj@Base 3.2.1
 _ZN8casacore11LatticeExprISt7complexIdEE6resyncEv@Base 3.2.1
 _ZN8casacore11LatticeExprISt7complexIdEE6unlockEv@Base 3.2.1
 _ZN8casacore11LatticeExprISt7complexIdEEC1ERKNS_15LatticeExprNodeE@Base 3.2.1
 _ZN8casacore11LatticeExprISt7complexIdEEC2ERKNS_15LatticeExprNodeE@Base 3.2.1
 _ZN8casacore11LatticeExprISt7complexIdEED0Ev@Base 3.2.1
 _ZN8casacore11LatticeExprISt7complexIdEED1Ev@Base 3.2.1
 _ZN8casacore11LatticeExprISt7complexIdEED2Ev@Base 3.2.1
 _ZN8casacore11LatticeExprISt7complexIfEE10doGetSliceERNS_5ArrayIS2_EERKNS_6SlicerE@Base 3.2.1
 _ZN8casacore11LatticeExprISt7complexIfEE10doPutSliceERKNS_5ArrayIS2_EERKNS_9IPositionESA_@Base 3.2.1
 _ZN8casacore11LatticeExprISt7complexIfEE14doGetMaskSliceERNS_5ArrayIbEERKNS_6SlicerE@Base 3.2.1
 _ZN8casacore11LatticeExprISt7complexIfEE4initERKNS_15LatticeExprNodeE@Base 3.2.1
 _ZN8casacore11LatticeExprISt7complexIfEE4lockENS_10FileLocker8LockTypeEj@Base 3.2.1
 _ZN8casacore11LatticeExprISt7complexIfEE6resyncEv@Base 3.2.1
 _ZN8casacore11LatticeExprISt7complexIfEE6unlockEv@Base 3.2.1
 _ZN8casacore11LatticeExprISt7complexIfEEC1ERKNS_15LatticeExprNodeE@Base 3.2.1
 _ZN8casacore11LatticeExprISt7complexIfEEC2ERKNS_15LatticeExprNodeE@Base 3.2.1
 _ZN8casacore11LatticeExprISt7complexIfEED0Ev@Base 3.2.1
 _ZN8casacore11LatticeExprISt7complexIfEED1Ev@Base 3.2.1
 _ZN8casacore11LatticeExprISt7complexIfEED2Ev@Base 3.2.1
 _ZN8casacore11LatticeExprIbE10doGetSliceERNS_5ArrayIbEERKNS_6SlicerE@Base 3.2.1
 _ZN8casacore11LatticeExprIbE10doPutSliceERKNS_5ArrayIbEERKNS_9IPositionES8_@Base 3.2.1
 _ZN8casacore11LatticeExprIbE14doGetMaskSliceERNS_5ArrayIbEERKNS_6SlicerE@Base 3.2.1
 _ZN8casacore11LatticeExprIbE4lockENS_10FileLocker8LockTypeEj@Base 3.2.1
 _ZN8casacore11LatticeExprIbE6resyncEv@Base 3.2.1
 _ZN8casacore11LatticeExprIbE6unlockEv@Base 3.2.1
 _ZN8casacore11LatticeExprIbEC1ERKNS_15LatticeExprNodeE@Base 3.2.1
 _ZN8casacore11LatticeExprIbEC1ERKS1_@Base 3.2.1
 _ZN8casacore11LatticeExprIbEC2ERKNS_15LatticeExprNodeE@Base 3.2.1
 _ZN8casacore11LatticeExprIbEC2ERKS1_@Base 3.2.1
 _ZN8casacore11LatticeExprIbED0Ev@Base 3.2.1
 _ZN8casacore11LatticeExprIbED1Ev@Base 3.2.1
 _ZN8casacore11LatticeExprIbED2Ev@Base 3.2.1
 _ZN8casacore11LatticeExprIdE10doGetSliceERNS_5ArrayIdEERKNS_6SlicerE@Base 3.2.1
 _ZN8casacore11LatticeExprIdE10doPutSliceERKNS_5ArrayIdEERKNS_9IPositionES8_@Base 3.2.1
 _ZN8casacore11LatticeExprIdE14doGetMaskSliceERNS_5ArrayIbEERKNS_6SlicerE@Base 3.2.1
 _ZN8casacore11LatticeExprIdE4initERKNS_15LatticeExprNodeE@Base 3.2.1
 _ZN8casacore11LatticeExprIdE4lockENS_10FileLocker8LockTypeEj@Base 3.2.1
 _ZN8casacore11LatticeExprIdE6resyncEv@Base 3.2.1
 _ZN8casacore11LatticeExprIdE6unlockEv@Base 3.2.1
 _ZN8casacore11LatticeExprIdEC1ERKNS_15LatticeExprNodeE@Base 3.2.1
 _ZN8casacore11LatticeExprIdEC2ERKNS_15LatticeExprNodeE@Base 3.2.1
 _ZN8casacore11LatticeExprIdED0Ev@Base 3.2.1
 _ZN8casacore11LatticeExprIdED1Ev@Base 3.2.1
 _ZN8casacore11LatticeExprIdED2Ev@Base 3.2.1
 _ZN8casacore11LatticeExprIfE10doGetSliceERNS_5ArrayIfEERKNS_6SlicerE@Base 3.2.1
 _ZN8casacore11LatticeExprIfE10doPutSliceERKNS_5ArrayIfEERKNS_9IPositionES8_@Base 3.2.1
 _ZN8casacore11LatticeExprIfE14doGetMaskSliceERNS_5ArrayIbEERKNS_6SlicerE@Base 3.2.1
 _ZN8casacore11LatticeExprIfE4initERKNS_15LatticeExprNodeE@Base 3.2.1
 _ZN8casacore11LatticeExprIfE4lockENS_10FileLocker8LockTypeEj@Base 3.2.1
 _ZN8casacore11LatticeExprIfE6resyncEv@Base 3.2.1
 _ZN8casacore11LatticeExprIfE6unlockEv@Base 3.2.1
 _ZN8casacore11LatticeExprIfEC1ERKNS_15LatticeExprNodeE@Base 3.2.1
 _ZN8casacore11LatticeExprIfEC2ERKNS_15LatticeExprNodeE@Base 3.2.1
 _ZN8casacore11LatticeExprIfED0Ev@Base 3.2.1
 _ZN8casacore11LatticeExprIfED1Ev@Base 3.2.1
 _ZN8casacore11LatticeExprIfED2Ev@Base 3.2.1
 _ZN8casacore11TempLatticeIbE10clearCacheEv@Base 3.2.1
 _ZN8casacore11TempLatticeIbE10doGetSliceERNS_5ArrayIbEERKNS_6SlicerE@Base 3.2.1
 _ZN8casacore11TempLatticeIbE10doPutSliceERKNS_5ArrayIbEERKNS_9IPositionES8_@Base 3.2.1
 _ZN8casacore11TempLatticeIbE19setCacheSizeInTilesEj@Base 3.2.1
 _ZN8casacore11TempLatticeIbE19setMaximumCacheSizeEj@Base 3.2.1
 _ZN8casacore11TempLatticeIbE20setCacheSizeFromPathERKNS_9IPositionES4_S4_S4_@Base 3.2.1
 _ZN8casacore11TempLatticeIbE3setERKb@Base 3.2.1
 _ZN8casacore11TempLatticeIbE5applyEPFbRKbE@Base 3.2.1
 _ZN8casacore11TempLatticeIbE5applyEPFbbE@Base 3.2.1
 _ZN8casacore11TempLatticeIbE5applyERKNS_10FunctionalIbbEE@Base 3.2.1
 _ZN8casacore11TempLatticeIbE5flushEv@Base 3.2.1
 _ZN8casacore11TempLatticeIbE5putAtERKbRKNS_9IPositionE@Base 3.2.1
 _ZN8casacore11TempLatticeIbE6reopenEv@Base 3.2.1
 _ZN8casacore11TempLatticeIbE9tempCloseEv@Base 3.2.1
 _ZN8casacore11TempLatticeIbED0Ev@Base 3.2.1
 _ZN8casacore11TempLatticeIbED1Ev@Base 3.2.1
 _ZN8casacore11TempLatticeIbED2Ev@Base 3.2.1
 _ZN8casacore11TempLatticeIdE10clearCacheEv@Base 3.2.1
 _ZN8casacore11TempLatticeIdE10doGetSliceERNS_5ArrayIdEERKNS_6SlicerE@Base 3.2.1
 _ZN8casacore11TempLatticeIdE10doPutSliceERKNS_5ArrayIdEERKNS_9IPositionES8_@Base 3.2.1
 _ZN8casacore11TempLatticeIdE19setCacheSizeInTilesEj@Base 3.2.1
 _ZN8casacore11TempLatticeIdE19setMaximumCacheSizeEj@Base 3.2.1
 _ZN8casacore11TempLatticeIdE20setCacheSizeFromPathERKNS_9IPositionES4_S4_S4_@Base 3.2.1
 _ZN8casacore11TempLatticeIdE3setERKd@Base 3.2.1
 _ZN8casacore11TempLatticeIdE5applyEPFdRKdE@Base 3.2.1
 _ZN8casacore11TempLatticeIdE5applyEPFddE@Base 3.2.1
 _ZN8casacore11TempLatticeIdE5applyERKNS_10FunctionalIddEE@Base 3.2.1
 _ZN8casacore11TempLatticeIdE5flushEv@Base 3.2.1
 _ZN8casacore11TempLatticeIdE5putAtERKdRKNS_9IPositionE@Base 3.2.1
 _ZN8casacore11TempLatticeIdE6reopenEv@Base 3.2.1
 _ZN8casacore11TempLatticeIdE9tempCloseEv@Base 3.2.1
 _ZN8casacore11TempLatticeIdED0Ev@Base 3.2.1
 _ZN8casacore11TempLatticeIdED1Ev@Base 3.2.1
 _ZN8casacore11TempLatticeIdED2Ev@Base 3.2.1
 _ZN8casacore11TileStepper10subSectionERKNS_9IPositionES3_@Base 3.2.1
 _ZN8casacore11TileStepper10subSectionERKNS_9IPositionES3_S3_@Base 3.2.1
 _ZN8casacore11TileStepper5resetEv@Base 3.2.1
 _ZN8casacore11TileStepperC1ERKNS_9IPositionES3_@Base 3.2.1
 _ZN8casacore11TileStepperC1ERKNS_9IPositionES3_S3_@Base 3.2.1
 _ZN8casacore11TileStepperC1ERKS0_@Base 3.2.1
 _ZN8casacore11TileStepperC2ERKNS_9IPositionES3_@Base 3.2.1
 _ZN8casacore11TileStepperC2ERKNS_9IPositionES3_S3_@Base 3.2.1
 _ZN8casacore11TileStepperC2ERKS0_@Base 3.2.1
 _ZN8casacore11TileStepperD0Ev@Base 3.2.1
 _ZN8casacore11TileStepperD1Ev@Base 3.2.1
 _ZN8casacore11TileStepperD2Ev@Base 3.2.1
 _ZN8casacore11TileStepperaSERKS0_@Base 3.2.1
 _ZN8casacore11TileSteppermmEi@Base 3.2.1
 _ZN8casacore11TileStepperppEi@Base 3.2.1
 _ZN8casacore11formComplexERKNS_15LatticeExprNodeES2_@Base 3.2.1
 _ZN8casacore11objcopyctorINS_6VectorIdEEEEvPT_PKS3_m@Base 3.2.1
 _ZN8casacore11objcopyctorINS_6VectorIdEEEEvPT_PKS3_mmm@Base 3.2.1
 _ZN8casacore11objcopyctorINS_8AutoDiffIdEEEEvPT_PKS3_m@Base 3.2.1
 _ZN8casacore11objcopyctorINS_8AutoDiffIdEEEEvPT_PKS3_mmm@Base 3.2.1
 _ZN8casacore11objcopyctorINS_8AutoDiffIfEEEEvPT_PKS3_m@Base 3.2.1
 _ZN8casacore11objcopyctorINS_8AutoDiffIfEEEEvPT_PKS3_mmm@Base 3.2.1
 _ZN8casacore12ArrayLatticeISt7complexIdEE10doGetSliceERNS_5ArrayIS2_EERKNS_6SlicerE@Base 3.2.1
 _ZN8casacore12ArrayLatticeISt7complexIdEE10doPutSliceERKNS_5ArrayIS2_EERKNS_9IPositionESA_@Base 3.2.1
 _ZN8casacore12ArrayLatticeISt7complexIdEE3setERKS2_@Base 3.2.1
 _ZN8casacore12ArrayLatticeISt7complexIdEE5putAtERKS2_RKNS_9IPositionE@Base 3.2.1
 _ZN8casacore12ArrayLatticeISt7complexIdEEC1ERKNS_5ArrayIS2_EE@Base 3.2.1
 _ZN8casacore12ArrayLatticeISt7complexIdEEC2ERKNS_5ArrayIS2_EE@Base 3.2.1
 _ZN8casacore12ArrayLatticeISt7complexIdEED0Ev@Base 3.2.1
 _ZN8casacore12ArrayLatticeISt7complexIdEED1Ev@Base 3.2.1
 _ZN8casacore12ArrayLatticeISt7complexIdEED2Ev@Base 3.2.1
 _ZN8casacore12ArrayLatticeISt7complexIfEE10doGetSliceERNS_5ArrayIS2_EERKNS_6SlicerE@Base 3.2.1
 _ZN8casacore12ArrayLatticeISt7complexIfEE10doPutSliceERKNS_5ArrayIS2_EERKNS_9IPositionESA_@Base 3.2.1
 _ZN8casacore12ArrayLatticeISt7complexIfEE3setERKS2_@Base 3.2.1
 _ZN8casacore12ArrayLatticeISt7complexIfEE5putAtERKS2_RKNS_9IPositionE@Base 3.2.1
 _ZN8casacore12ArrayLatticeISt7complexIfEED0Ev@Base 3.2.1
 _ZN8casacore12ArrayLatticeISt7complexIfEED1Ev@Base 3.2.1
 _ZN8casacore12ArrayLatticeISt7complexIfEED2Ev@Base 3.2.1
 _ZN8casacore12ArrayLatticeIbE10doGetSliceERNS_5ArrayIbEERKNS_6SlicerE@Base 3.2.1
 _ZN8casacore12ArrayLatticeIbE10doPutSliceERKNS_5ArrayIbEERKNS_9IPositionES8_@Base 3.2.1
 _ZN8casacore12ArrayLatticeIbE3setERKb@Base 3.2.1
 _ZN8casacore12ArrayLatticeIbE5putAtERKbRKNS_9IPositionE@Base 3.2.1
 _ZN8casacore12ArrayLatticeIbEC1ERKS1_@Base 3.2.1
 _ZN8casacore12ArrayLatticeIbEC1Ev@Base 3.2.1
 _ZN8casacore12ArrayLatticeIbEC2ERKS1_@Base 3.2.1
 _ZN8casacore12ArrayLatticeIbEC2Ev@Base 3.2.1
 _ZN8casacore12ArrayLatticeIbED0Ev@Base 3.2.1
 _ZN8casacore12ArrayLatticeIbED1Ev@Base 3.2.1
 _ZN8casacore12ArrayLatticeIbED2Ev@Base 3.2.1
 _ZN8casacore12ArrayLatticeIdE10doGetSliceERNS_5ArrayIdEERKNS_6SlicerE@Base 3.2.1
 _ZN8casacore12ArrayLatticeIdE10doPutSliceERKNS_5ArrayIdEERKNS_9IPositionES8_@Base 3.2.1
 _ZN8casacore12ArrayLatticeIdE3setERKd@Base 3.2.1
 _ZN8casacore12ArrayLatticeIdE5putAtERKdRKNS_9IPositionE@Base 3.2.1
 _ZN8casacore12ArrayLatticeIdEC1ERKNS_5ArrayIdEE@Base 3.2.1
 _ZN8casacore12ArrayLatticeIdEC2ERKNS_5ArrayIdEE@Base 3.2.1
 _ZN8casacore12ArrayLatticeIdED0Ev@Base 3.2.1
 _ZN8casacore12ArrayLatticeIdED1Ev@Base 3.2.1
 _ZN8casacore12ArrayLatticeIdED2Ev@Base 3.2.1
 _ZN8casacore12ArrayLatticeIfE10doGetSliceERNS_5ArrayIfEERKNS_6SlicerE@Base 3.2.1
 _ZN8casacore12ArrayLatticeIfE10doPutSliceERKNS_5ArrayIfEERKNS_9IPositionES8_@Base 3.2.1
 _ZN8casacore12ArrayLatticeIfE3setERKf@Base 3.2.1
 _ZN8casacore12ArrayLatticeIfE5putAtERKfRKNS_9IPositionE@Base 3.2.1
 _ZN8casacore12ArrayLatticeIfED0Ev@Base 3.2.1
 _ZN8casacore12ArrayLatticeIfED1Ev@Base 3.2.1
 _ZN8casacore12ArrayLatticeIfED2Ev@Base 3.2.1
 _ZN8casacore12GenericL2FitIdE11buildMatrixERKNS_5ArrayIdEERKNS_6VectorIdEEPS8_PKNS6_IbEE@Base 3.2.1
 _ZN8casacore12GenericL2FitIdE13resetFunctionEv@Base 3.2.1
 _ZN8casacore12GenericL2FitIdE15buildConstraintEv@Base 3.2.1
 _ZN8casacore12GenericL2FitIdE24setMaskedParameterValuesERKNS_6VectorIdEE@Base 3.2.1
 _ZN8casacore12GenericL2FitIdE9initfit_pEj@Base 3.2.1
 _ZN8casacore12GenericL2FitIdEC1Ev@Base 3.2.1
 _ZN8casacore12GenericL2FitIdEC2Ev@Base 3.2.1
 _ZN8casacore12GenericL2FitIdED0Ev@Base 3.2.1
 _ZN8casacore12GenericL2FitIdED1Ev@Base 3.2.1
 _ZN8casacore12GenericL2FitIdED2Ev@Base 3.2.1
 _ZN8casacore12HDF5LattIterIbE14setupTileCacheEv@Base 3.2.1
 _ZN8casacore12HDF5LattIterIbED0Ev@Base 3.2.1
 _ZN8casacore12HDF5LattIterIbED1Ev@Base 3.2.1
 _ZN8casacore12HDF5LattIterIbED2Ev@Base 3.2.1
 _ZN8casacore12LCComplement10fromRecordERKNS_11TableRecordERKNS_6StringE@Base 3.2.1
 _ZN8casacore12LCComplement13multiGetSliceERNS_5ArrayIbEERKNS_6SlicerE@Base 3.2.1
 _ZN8casacore12LCComplement9classNameEv@Base 3.2.1
 _ZN8casacore12LCComplement9defineBoxEv@Base 3.2.1
 _ZN8casacore12LCComplementC1ERKNS_8LCRegionE@Base 3.2.1
 _ZN8casacore12LCComplementC1ERKS0_@Base 3.2.1
 _ZN8casacore12LCComplementC1EbRKNS_8PtrBlockIPKNS_8LCRegionEEE@Base 3.2.1
 _ZN8casacore12LCComplementC1Ev@Base 3.2.1
 _ZN8casacore12LCComplementC2ERKNS_8LCRegionE@Base 3.2.1
 _ZN8casacore12LCComplementC2ERKS0_@Base 3.2.1
 _ZN8casacore12LCComplementC2EbRKNS_8PtrBlockIPKNS_8LCRegionEEE@Base 3.2.1
 _ZN8casacore12LCComplementC2Ev@Base 3.2.1
 _ZN8casacore12LCComplementD0Ev@Base 3.2.1
 _ZN8casacore12LCComplementD1Ev@Base 3.2.1
 _ZN8casacore12LCComplementD2Ev@Base 3.2.1
 _ZN8casacore12LCComplementaSERKS0_@Base 3.2.1
 _ZN8casacore12LCDifference10fromRecordERKNS_11TableRecordERKNS_6StringE@Base 3.2.1
 _ZN8casacore12LCDifference13multiGetSliceERNS_5ArrayIbEERKNS_6SlicerE@Base 3.2.1
 _ZN8casacore12LCDifference9classNameEv@Base 3.2.1
 _ZN8casacore12LCDifference9defineBoxEv@Base 3.2.1
 _ZN8casacore12LCDifferenceC1ERKNS_8LCRegionES3_@Base 3.2.1
 _ZN8casacore12LCDifferenceC1ERKS0_@Base 3.2.1
 _ZN8casacore12LCDifferenceC1EbRKNS_8PtrBlockIPKNS_8LCRegionEEE@Base 3.2.1
 _ZN8casacore12LCDifferenceC1Ev@Base 3.2.1
 _ZN8casacore12LCDifferenceC2ERKNS_8LCRegionES3_@Base 3.2.1
 _ZN8casacore12LCDifferenceC2ERKS0_@Base 3.2.1
 _ZN8casacore12LCDifferenceC2EbRKNS_8PtrBlockIPKNS_8LCRegionEEE@Base 3.2.1
 _ZN8casacore12LCDifferenceC2Ev@Base 3.2.1
 _ZN8casacore12LCDifferenceD0Ev@Base 3.2.1
 _ZN8casacore12LCDifferenceD1Ev@Base 3.2.1
 _ZN8casacore12LCDifferenceD2Ev@Base 3.2.1
 _ZN8casacore12LCDifferenceaSERKS0_@Base 3.2.1
 _ZN8casacore12LELArrayBase10removeMaskEv@Base 3.2.1
 _ZN8casacore12LELArrayBase11combineMaskERKNS_5ArrayIbEE@Base 3.2.1
 _ZN8casacore12LELArrayBase12combineOrAndEbRKNS_5ArrayIbEE@Base 3.2.1
 _ZN8casacore12LELArrayBase12combineOrAndEbRNS_5ArrayIbEERKS2_@Base 3.2.1
 _ZN8casacore12LELArrayBase12combineOrAndEbRNS_5ArrayIbEERKS2_S5_@Base 3.2.1
 _ZN8casacore12LELArrayBase7setMaskERKNS_5ArrayIbEE@Base 3.2.1
 _ZN8casacore12LELArrayBase7setMaskERKS0_@Base 3.2.1
 _ZN8casacore12LELArrayBase7setMaskERNS_5ArrayIbEE@Base 3.2.1
 _ZN8casacore12LELArrayBaseC1ERKS0_@Base 3.2.1
 _ZN8casacore12LELArrayBaseC2ERKS0_@Base 3.2.1
 _ZN8casacore12LELArrayBaseD1Ev@Base 3.2.1
 _ZN8casacore12LELArrayBaseD2Ev@Base 3.2.1
 _ZN8casacore12LELArrayBaseaSERKS0_@Base 3.2.1
 _ZN8casacore12LELAttributeC1ERKS0_@Base 3.2.1
 _ZN8casacore12LELAttributeC1ERKS0_S2_b@Base 3.2.1
 _ZN8casacore12LELAttributeC1EbRKNS_9IPositionES3_RKNS_14LELCoordinatesEb@Base 3.2.1
 _ZN8casacore12LELAttributeC1Ej@Base 3.2.1
 _ZN8casacore12LELAttributeC1Ev@Base 3.2.1
 _ZN8casacore12LELAttributeC2ERKS0_@Base 3.2.1
 _ZN8casacore12LELAttributeC2ERKS0_S2_b@Base 3.2.1
 _ZN8casacore12LELAttributeC2EbRKNS_9IPositionES3_RKNS_14LELCoordinatesEb@Base 3.2.1
 _ZN8casacore12LELAttributeC2Ej@Base 3.2.1
 _ZN8casacore12LELAttributeC2Ev@Base 3.2.1
 _ZN8casacore12LELAttributeD1Ev@Base 3.2.1
 _ZN8casacore12LELAttributeD2Ev@Base 3.2.1
 _ZN8casacore12LELAttributeaSERKS0_@Base 3.2.1
 _ZN8casacore12LELBinaryCmpISt7complexIdEE17prepareScalarExprEv@Base 3.2.1
 _ZN8casacore12LELBinaryCmpISt7complexIdEE4lockENS_10FileLocker8LockTypeEj@Base 3.2.1
 _ZN8casacore12LELBinaryCmpISt7complexIdEE6resyncEv@Base 3.2.1
 _ZN8casacore12LELBinaryCmpISt7complexIdEE6unlockEv@Base 3.2.1
 _ZN8casacore12LELBinaryCmpISt7complexIdEED0Ev@Base 3.2.1
 _ZN8casacore12LELBinaryCmpISt7complexIdEED1Ev@Base 3.2.1
 _ZN8casacore12LELBinaryCmpISt7complexIdEED2Ev@Base 3.2.1
 _ZN8casacore12LELBinaryCmpISt7complexIfEE17prepareScalarExprEv@Base 3.2.1
 _ZN8casacore12LELBinaryCmpISt7complexIfEE4lockENS_10FileLocker8LockTypeEj@Base 3.2.1
 _ZN8casacore12LELBinaryCmpISt7complexIfEE6resyncEv@Base 3.2.1
 _ZN8casacore12LELBinaryCmpISt7complexIfEE6unlockEv@Base 3.2.1
 _ZN8casacore12LELBinaryCmpISt7complexIfEED0Ev@Base 3.2.1
 _ZN8casacore12LELBinaryCmpISt7complexIfEED1Ev@Base 3.2.1
 _ZN8casacore12LELBinaryCmpISt7complexIfEED2Ev@Base 3.2.1
 _ZN8casacore12LELBinaryCmpIdE17prepareScalarExprEv@Base 3.2.1
 _ZN8casacore12LELBinaryCmpIdE4lockENS_10FileLocker8LockTypeEj@Base 3.2.1
 _ZN8casacore12LELBinaryCmpIdE6resyncEv@Base 3.2.1
 _ZN8casacore12LELBinaryCmpIdE6unlockEv@Base 3.2.1
 _ZN8casacore12LELBinaryCmpIdED0Ev@Base 3.2.1
 _ZN8casacore12LELBinaryCmpIdED1Ev@Base 3.2.1
 _ZN8casacore12LELBinaryCmpIdED2Ev@Base 3.2.1
 _ZN8casacore12LELBinaryCmpIfE17prepareScalarExprEv@Base 3.2.1
 _ZN8casacore12LELBinaryCmpIfE4lockENS_10FileLocker8LockTypeEj@Base 3.2.1
 _ZN8casacore12LELBinaryCmpIfE6resyncEv@Base 3.2.1
 _ZN8casacore12LELBinaryCmpIfE6unlockEv@Base 3.2.1
 _ZN8casacore12LELBinaryCmpIfED0Ev@Base 3.2.1
 _ZN8casacore12LELBinaryCmpIfED1Ev@Base 3.2.1
 _ZN8casacore12LELBinaryCmpIfED2Ev@Base 3.2.1
 _ZN8casacore12LELConditionISt7complexIdEE17prepareScalarExprEv@Base 3.2.1
 _ZN8casacore12LELConditionISt7complexIdEE4lockENS_10FileLocker8LockTypeEj@Base 3.2.1
 _ZN8casacore12LELConditionISt7complexIdEE6resyncEv@Base 3.2.1
 _ZN8casacore12LELConditionISt7complexIdEE6unlockEv@Base 3.2.1
 _ZN8casacore12LELConditionISt7complexIdEEC1ERKNS_10CountedPtrINS_12LELInterfaceIS2_EEEERKNS4_INS5_IbEEEE@Base 3.2.1
 _ZN8casacore12LELConditionISt7complexIdEEC2ERKNS_10CountedPtrINS_12LELInterfaceIS2_EEEERKNS4_INS5_IbEEEE@Base 3.2.1
 _ZN8casacore12LELConditionISt7complexIdEED0Ev@Base 3.2.1
 _ZN8casacore12LELConditionISt7complexIdEED1Ev@Base 3.2.1
 _ZN8casacore12LELConditionISt7complexIdEED2Ev@Base 3.2.1
 _ZN8casacore12LELConditionISt7complexIfEE17prepareScalarExprEv@Base 3.2.1
 _ZN8casacore12LELConditionISt7complexIfEE4lockENS_10FileLocker8LockTypeEj@Base 3.2.1
 _ZN8casacore12LELConditionISt7complexIfEE6resyncEv@Base 3.2.1
 _ZN8casacore12LELConditionISt7complexIfEE6unlockEv@Base 3.2.1
 _ZN8casacore12LELConditionISt7complexIfEEC1ERKNS_10CountedPtrINS_12LELInterfaceIS2_EEEERKNS4_INS5_IbEEEE@Base 3.2.1
 _ZN8casacore12LELConditionISt7complexIfEEC2ERKNS_10CountedPtrINS_12LELInterfaceIS2_EEEERKNS4_INS5_IbEEEE@Base 3.2.1
 _ZN8casacore12LELConditionISt7complexIfEED0Ev@Base 3.2.1
 _ZN8casacore12LELConditionISt7complexIfEED1Ev@Base 3.2.1
 _ZN8casacore12LELConditionISt7complexIfEED2Ev@Base 3.2.1
 _ZN8casacore12LELConditionIbE17prepareScalarExprEv@Base 3.2.1
 _ZN8casacore12LELConditionIbE4lockENS_10FileLocker8LockTypeEj@Base 3.2.1
 _ZN8casacore12LELConditionIbE6resyncEv@Base 3.2.1
 _ZN8casacore12LELConditionIbE6unlockEv@Base 3.2.1
 _ZN8casacore12LELConditionIbEC1ERKNS_10CountedPtrINS_12LELInterfaceIbEEEES7_@Base 3.2.1
 _ZN8casacore12LELConditionIbEC2ERKNS_10CountedPtrINS_12LELInterfaceIbEEEES7_@Base 3.2.1
 _ZN8casacore12LELConditionIbED0Ev@Base 3.2.1
 _ZN8casacore12LELConditionIbED1Ev@Base 3.2.1
 _ZN8casacore12LELConditionIbED2Ev@Base 3.2.1
 _ZN8casacore12LELConditionIdE17prepareScalarExprEv@Base 3.2.1
 _ZN8casacore12LELConditionIdE4lockENS_10FileLocker8LockTypeEj@Base 3.2.1
 _ZN8casacore12LELConditionIdE6resyncEv@Base 3.2.1
 _ZN8casacore12LELConditionIdE6unlockEv@Base 3.2.1
 _ZN8casacore12LELConditionIdEC1ERKNS_10CountedPtrINS_12LELInterfaceIdEEEERKNS2_INS3_IbEEEE@Base 3.2.1
 _ZN8casacore12LELConditionIdEC2ERKNS_10CountedPtrINS_12LELInterfaceIdEEEERKNS2_INS3_IbEEEE@Base 3.2.1
 _ZN8casacore12LELConditionIdED0Ev@Base 3.2.1
 _ZN8casacore12LELConditionIdED1Ev@Base 3.2.1
 _ZN8casacore12LELConditionIdED2Ev@Base 3.2.1
 _ZN8casacore12LELConditionIfE17prepareScalarExprEv@Base 3.2.1
 _ZN8casacore12LELConditionIfE4lockENS_10FileLocker8LockTypeEj@Base 3.2.1
 _ZN8casacore12LELConditionIfE6resyncEv@Base 3.2.1
 _ZN8casacore12LELConditionIfE6unlockEv@Base 3.2.1
 _ZN8casacore12LELConditionIfEC1ERKNS_10CountedPtrINS_12LELInterfaceIfEEEERKNS2_INS3_IbEEEE@Base 3.2.1
 _ZN8casacore12LELConditionIfEC2ERKNS_10CountedPtrINS_12LELInterfaceIfEEEERKNS2_INS3_IbEEEE@Base 3.2.1
 _ZN8casacore12LELConditionIfED0Ev@Base 3.2.1
 _ZN8casacore12LELConditionIfED1Ev@Base 3.2.1
 _ZN8casacore12LELConditionIfED2Ev@Base 3.2.1
 _ZN8casacore12LELInterfaceISt7complexIdEE17replaceScalarExprERNS_10CountedPtrIS3_EE@Base 3.2.1
 _ZN8casacore12LELInterfaceISt7complexIdEE4lockENS_10FileLocker8LockTypeEj@Base 3.2.1
 _ZN8casacore12LELInterfaceISt7complexIdEE6resyncEv@Base 3.2.1
 _ZN8casacore12LELInterfaceISt7complexIdEE6unlockEv@Base 3.2.1
 _ZN8casacore12LELInterfaceISt7complexIfEE17replaceScalarExprERNS_10CountedPtrIS3_EE@Base 3.2.1
 _ZN8casacore12LELInterfaceISt7complexIfEE4lockENS_10FileLocker8LockTypeEj@Base 3.2.1
 _ZN8casacore12LELInterfaceISt7complexIfEE6resyncEv@Base 3.2.1
 _ZN8casacore12LELInterfaceISt7complexIfEE6unlockEv@Base 3.2.1
 _ZN8casacore12LELInterfaceIbE17replaceScalarExprERNS_10CountedPtrIS1_EE@Base 3.2.1
 _ZN8casacore12LELInterfaceIbE4lockENS_10FileLocker8LockTypeEj@Base 3.2.1
 _ZN8casacore12LELInterfaceIbE6resyncEv@Base 3.2.1
 _ZN8casacore12LELInterfaceIbE6unlockEv@Base 3.2.1
 _ZN8casacore12LELInterfaceIdE17replaceScalarExprERNS_10CountedPtrIS1_EE@Base 3.2.1
 _ZN8casacore12LELInterfaceIdE4lockENS_10FileLocker8LockTypeEj@Base 3.2.1
 _ZN8casacore12LELInterfaceIdE6resyncEv@Base 3.2.1
 _ZN8casacore12LELInterfaceIdE6unlockEv@Base 3.2.1
 _ZN8casacore12LELInterfaceIfE17replaceScalarExprERNS_10CountedPtrIS1_EE@Base 3.2.1
 _ZN8casacore12LELInterfaceIfE4lockENS_10FileLocker8LockTypeEj@Base 3.2.1
 _ZN8casacore12LELInterfaceIfE6resyncEv@Base 3.2.1
 _ZN8casacore12LELInterfaceIfE6unlockEv@Base 3.2.1
 _ZN8casacore12LELLattCoordC1Ev@Base 3.2.1
 _ZN8casacore12LELLattCoordC2Ev@Base 3.2.1
 _ZN8casacore12LELLattCoordD0Ev@Base 3.2.1
 _ZN8casacore12LELLattCoordD1Ev@Base 3.2.1
 _ZN8casacore12LELLattCoordD2Ev@Base 3.2.1
 _ZN8casacore12LELUnaryBool17prepareScalarExprEv@Base 3.2.1
 _ZN8casacore12LELUnaryBool4lockENS_10FileLocker8LockTypeEj@Base 3.2.1
 _ZN8casacore12LELUnaryBool6resyncEv@Base 3.2.1
 _ZN8casacore12LELUnaryBool6unlockEv@Base 3.2.1
 _ZN8casacore12LELUnaryBoolC1ENS_13LELUnaryEnums9OperationERKNS_10CountedPtrINS_12LELInterfaceIbEEEE@Base 3.2.1
 _ZN8casacore12LELUnaryBoolC2ENS_13LELUnaryEnums9OperationERKNS_10CountedPtrINS_12LELInterfaceIbEEEE@Base 3.2.1
 _ZN8casacore12LELUnaryBoolD0Ev@Base 3.2.1
 _ZN8casacore12LELUnaryBoolD1Ev@Base 3.2.1
 _ZN8casacore12LELUnaryBoolD2Ev@Base 3.2.1
 _ZN8casacore12LatticeApplyIfdE10tiledApplyERNS_13MaskedLatticeIdEERKNS2_IfEERNS_14TiledCollapserIfdEERKNS_9IPositionEiPNS_15LatticeProgressE@Base 3.2.1
 _ZN8casacore12LatticeApplyIfdE7prepareERKNS_9IPositionES4_S4_i@Base 3.2.1
 _ZN8casacore12NonLinearFitIdEC1Eb@Base 3.2.1
 _ZN8casacore12NonLinearFitIdEC2Eb@Base 3.2.1
 _ZN8casacore12PagedArrIterISt7complexIfEE14setupTileCacheEv@Base 3.2.1
 _ZN8casacore12PagedArrIterISt7complexIfEED0Ev@Base 3.2.1
 _ZN8casacore12PagedArrIterISt7complexIfEED1Ev@Base 3.2.1
 _ZN8casacore12PagedArrIterISt7complexIfEED2Ev@Base 3.2.1
 _ZN8casacore12PagedArrIterIbE14setupTileCacheEv@Base 3.2.1
 _ZN8casacore12PagedArrIterIbED0Ev@Base 3.2.1
 _ZN8casacore12PagedArrIterIbED1Ev@Base 3.2.1
 _ZN8casacore12PagedArrIterIbED2Ev@Base 3.2.1
 _ZN8casacore12PagedArrIterIdE14setupTileCacheEv@Base 3.2.1
 _ZN8casacore12PagedArrIterIdED0Ev@Base 3.2.1
 _ZN8casacore12PagedArrIterIdED1Ev@Base 3.2.1
 _ZN8casacore12PagedArrIterIdED2Ev@Base 3.2.1
 _ZN8casacore12PagedArrIterIfE14setupTileCacheEv@Base 3.2.1
 _ZN8casacore12PagedArrIterIfED0Ev@Base 3.2.1
 _ZN8casacore12PagedArrIterIfED1Ev@Base 3.2.1
 _ZN8casacore12PagedArrIterIfED2Ev@Base 3.2.1
 _ZN8casacore12PixelCurve1D4initERKNS_6VectorIdEES4_j@Base 3.2.1
 _ZN8casacore12PixelCurve1DC1ERKNS_10Function1DIffEEffj@Base 3.2.1
 _ZN8casacore12PixelCurve1DC1ERKNS_6VectorIdEES4_j@Base 3.2.1
 _ZN8casacore12PixelCurve1DC1ERKNS_6VectorIfEES4_j@Base 3.2.1
 _ZN8casacore12PixelCurve1DC1ERKNS_6VectorIiEES4_j@Base 3.2.1
 _ZN8casacore12PixelCurve1DC1ERKS0_@Base 3.2.1
 _ZN8casacore12PixelCurve1DC1Eddddj@Base 3.2.1
 _ZN8casacore12PixelCurve1DC2ERKNS_10Function1DIffEEffj@Base 3.2.1
 _ZN8casacore12PixelCurve1DC2ERKNS_6VectorIdEES4_j@Base 3.2.1
 _ZN8casacore12PixelCurve1DC2ERKNS_6VectorIfEES4_j@Base 3.2.1
 _ZN8casacore12PixelCurve1DC2ERKNS_6VectorIiEES4_j@Base 3.2.1
 _ZN8casacore12PixelCurve1DC2ERKS0_@Base 3.2.1
 _ZN8casacore12PixelCurve1DC2Eddddj@Base 3.2.1
 _ZN8casacore12PixelCurve1DD1Ev@Base 3.2.1
 _ZN8casacore12PixelCurve1DD2Ev@Base 3.2.1
 _ZN8casacore12PixelCurve1DaSERKS0_@Base 3.2.1
 _ZN8casacore12RebinLatticeISt7complexIdEE10doGetSliceERNS_5ArrayIS2_EERKNS_6SlicerE@Base 3.2.1
 _ZN8casacore12RebinLatticeISt7complexIdEE10doPutSliceERKNS_5ArrayIS2_EERKNS_9IPositionESA_@Base 3.2.1
 _ZN8casacore12RebinLatticeISt7complexIdEE14doGetMaskSliceERNS_5ArrayIbEERKNS_6SlicerE@Base 3.2.1
 _ZN8casacore12RebinLatticeISt7complexIdEE14getDataAndMaskERKNS_6SlicerE@Base 3.2.1
 _ZN8casacore12RebinLatticeISt7complexIdEE3binERKNS_5ArrayIS2_EE@Base 3.2.1
 _ZN8casacore12RebinLatticeISt7complexIdEE3binERKNS_5ArrayIS2_EERKNS4_IbEE@Base 3.2.1
 _ZN8casacore12RebinLatticeISt7complexIdEE4lockENS_10FileLocker8LockTypeEj@Base 3.2.1
 _ZN8casacore12RebinLatticeISt7complexIdEE5flushEv@Base 3.2.1
 _ZN8casacore12RebinLatticeISt7complexIdEE6reopenEv@Base 3.2.1
 _ZN8casacore12RebinLatticeISt7complexIdEE6resyncEv@Base 3.2.1
 _ZN8casacore12RebinLatticeISt7complexIdEE6unlockEv@Base 3.2.1
 _ZN8casacore12RebinLatticeISt7complexIdEE9tempCloseEv@Base 3.2.1
 _ZN8casacore12RebinLatticeISt7complexIdEEC1ERKNS_13MaskedLatticeIS2_EERKNS_9IPositionE@Base 3.2.1
 _ZN8casacore12RebinLatticeISt7complexIdEEC2ERKNS_13MaskedLatticeIS2_EERKNS_9IPositionE@Base 3.2.1
 _ZN8casacore12RebinLatticeISt7complexIdEED0Ev@Base 3.2.1
 _ZN8casacore12RebinLatticeISt7complexIdEED1Ev@Base 3.2.1
 _ZN8casacore12RebinLatticeISt7complexIdEED2Ev@Base 3.2.1
 _ZN8casacore12RebinLatticeISt7complexIfEE10doGetSliceERNS_5ArrayIS2_EERKNS_6SlicerE@Base 3.2.1
 _ZN8casacore12RebinLatticeISt7complexIfEE10doPutSliceERKNS_5ArrayIS2_EERKNS_9IPositionESA_@Base 3.2.1
 _ZN8casacore12RebinLatticeISt7complexIfEE14doGetMaskSliceERNS_5ArrayIbEERKNS_6SlicerE@Base 3.2.1
 _ZN8casacore12RebinLatticeISt7complexIfEE14getDataAndMaskERKNS_6SlicerE@Base 3.2.1
 _ZN8casacore12RebinLatticeISt7complexIfEE3binERKNS_5ArrayIS2_EE@Base 3.2.1
 _ZN8casacore12RebinLatticeISt7complexIfEE3binERKNS_5ArrayIS2_EERKNS4_IbEE@Base 3.2.1
 _ZN8casacore12RebinLatticeISt7complexIfEE4lockENS_10FileLocker8LockTypeEj@Base 3.2.1
 _ZN8casacore12RebinLatticeISt7complexIfEE5flushEv@Base 3.2.1
 _ZN8casacore12RebinLatticeISt7complexIfEE6reopenEv@Base 3.2.1
 _ZN8casacore12RebinLatticeISt7complexIfEE6resyncEv@Base 3.2.1
 _ZN8casacore12RebinLatticeISt7complexIfEE6unlockEv@Base 3.2.1
 _ZN8casacore12RebinLatticeISt7complexIfEE9tempCloseEv@Base 3.2.1
 _ZN8casacore12RebinLatticeISt7complexIfEEC1ERKNS_13MaskedLatticeIS2_EERKNS_9IPositionE@Base 3.2.1
 _ZN8casacore12RebinLatticeISt7complexIfEEC2ERKNS_13MaskedLatticeIS2_EERKNS_9IPositionE@Base 3.2.1
 _ZN8casacore12RebinLatticeISt7complexIfEED0Ev@Base 3.2.1
 _ZN8casacore12RebinLatticeISt7complexIfEED1Ev@Base 3.2.1
 _ZN8casacore12RebinLatticeISt7complexIfEED2Ev@Base 3.2.1
 _ZN8casacore12RebinLatticeIdE10doGetSliceERNS_5ArrayIdEERKNS_6SlicerE@Base 3.2.1
 _ZN8casacore12RebinLatticeIdE10doPutSliceERKNS_5ArrayIdEERKNS_9IPositionES8_@Base 3.2.1
 _ZN8casacore12RebinLatticeIdE14doGetMaskSliceERNS_5ArrayIbEERKNS_6SlicerE@Base 3.2.1
 _ZN8casacore12RebinLatticeIdE14getDataAndMaskERKNS_6SlicerE@Base 3.2.1
 _ZN8casacore12RebinLatticeIdE3binERKNS_5ArrayIdEE@Base 3.2.1
 _ZN8casacore12RebinLatticeIdE3binERKNS_5ArrayIdEERKNS2_IbEE@Base 3.2.1
 _ZN8casacore12RebinLatticeIdE4lockENS_10FileLocker8LockTypeEj@Base 3.2.1
 _ZN8casacore12RebinLatticeIdE5flushEv@Base 3.2.1
 _ZN8casacore12RebinLatticeIdE6reopenEv@Base 3.2.1
 _ZN8casacore12RebinLatticeIdE6resyncEv@Base 3.2.1
 _ZN8casacore12RebinLatticeIdE6unlockEv@Base 3.2.1
 _ZN8casacore12RebinLatticeIdE9tempCloseEv@Base 3.2.1
 _ZN8casacore12RebinLatticeIdEC1ERKNS_13MaskedLatticeIdEERKNS_9IPositionE@Base 3.2.1
 _ZN8casacore12RebinLatticeIdEC2ERKNS_13MaskedLatticeIdEERKNS_9IPositionE@Base 3.2.1
 _ZN8casacore12RebinLatticeIdED0Ev@Base 3.2.1
 _ZN8casacore12RebinLatticeIdED1Ev@Base 3.2.1
 _ZN8casacore12RebinLatticeIdED2Ev@Base 3.2.1
 _ZN8casacore12RebinLatticeIfE10doGetSliceERNS_5ArrayIfEERKNS_6SlicerE@Base 3.2.1
 _ZN8casacore12RebinLatticeIfE10doPutSliceERKNS_5ArrayIfEERKNS_9IPositionES8_@Base 3.2.1
 _ZN8casacore12RebinLatticeIfE14doGetMaskSliceERNS_5ArrayIbEERKNS_6SlicerE@Base 3.2.1
 _ZN8casacore12RebinLatticeIfE14getDataAndMaskERKNS_6SlicerE@Base 3.2.1
 _ZN8casacore12RebinLatticeIfE3binERKNS_5ArrayIfEE@Base 3.2.1
 _ZN8casacore12RebinLatticeIfE3binERKNS_5ArrayIfEERKNS2_IbEE@Base 3.2.1
 _ZN8casacore12RebinLatticeIfE4lockENS_10FileLocker8LockTypeEj@Base 3.2.1
 _ZN8casacore12RebinLatticeIfE5flushEv@Base 3.2.1
 _ZN8casacore12RebinLatticeIfE6reopenEv@Base 3.2.1
 _ZN8casacore12RebinLatticeIfE6resyncEv@Base 3.2.1
 _ZN8casacore12RebinLatticeIfE6unlockEv@Base 3.2.1
 _ZN8casacore12RebinLatticeIfE9tempCloseEv@Base 3.2.1
 _ZN8casacore12RebinLatticeIfEC1ERKNS_13MaskedLatticeIfEERKNS_9IPositionE@Base 3.2.1
 _ZN8casacore12RebinLatticeIfEC2ERKNS_13MaskedLatticeIfEERKNS_9IPositionE@Base 3.2.1
 _ZN8casacore12RebinLatticeIfED0Ev@Base 3.2.1
 _ZN8casacore12RebinLatticeIfED1Ev@Base 3.2.1
 _ZN8casacore12RebinLatticeIfED2Ev@Base 3.2.1
 _ZN8casacore12convertArrayISt7complexIdES1_IfEEEvRNS_5ArrayIT_EERKNS4_IT0_EE@Base 3.2.1
 _ZN8casacore12convertArrayISt7complexIdEdEEvRNS_5ArrayIT_EERKNS3_IT0_EE@Base 3.2.1
 _ZN8casacore12convertArrayISt7complexIdEfEEvRNS_5ArrayIT_EERKNS3_IT0_EE@Base 3.2.1
 _ZN8casacore12convertArrayISt7complexIfES1_IdEEEvRNS_5ArrayIT_EERKNS4_IT0_EE@Base 3.2.1
 _ZN8casacore12convertArrayISt7complexIfEdEEvRNS_5ArrayIT_EERKNS3_IT0_EE@Base 3.2.1
 _ZN8casacore12convertArrayISt7complexIfEfEEvRNS_5ArrayIT_EERKNS3_IT0_EE@Base 3.2.1
 _ZN8casacore12convertArrayIdfEEvRNS_5ArrayIT_EERKNS1_IT0_EE@Base 3.2.1
 _ZN8casacore12convertArrayIdiEEvRNS_5ArrayIT_EERKNS1_IT0_EE@Base 3.2.1
 _ZN8casacore12convertArrayIfdEEvRNS_5ArrayIT_EERKNS1_IT0_EE@Base 3.2.1
 _ZN8casacore13ArrayIteratorINS_6VectorIdEEE12apSetPointerEi@Base 3.2.1
 _ZN8casacore13ArrayIteratorINS_6VectorIdEEE3setERKNS_9IPositionE@Base 3.2.1
 _ZN8casacore13ArrayIteratorINS_6VectorIdEEE4initERKNS_5ArrayIS2_EE@Base 3.2.1
 _ZN8casacore13ArrayIteratorINS_6VectorIdEEE4nextEv@Base 3.2.1
 _ZN8casacore13ArrayIteratorINS_6VectorIdEEE5resetEv@Base 3.2.1
 _ZN8casacore13ArrayIteratorINS_6VectorIdEEE8getArrayEv@Base 3.2.1
 _ZN8casacore13ArrayIteratorINS_6VectorIdEEED0Ev@Base 3.2.1
 _ZN8casacore13ArrayIteratorINS_6VectorIdEEED1Ev@Base 3.2.1
 _ZN8casacore13ArrayIteratorINS_6VectorIdEEED2Ev@Base 3.2.1
 _ZN8casacore13ArrayIteratorINS_8AutoDiffIdEEE12apSetPointerEi@Base 3.2.1
 _ZN8casacore13ArrayIteratorINS_8AutoDiffIdEEE3setERKNS_9IPositionE@Base 3.2.1
 _ZN8casacore13ArrayIteratorINS_8AutoDiffIdEEE4initERKNS_5ArrayIS2_EE@Base 3.2.1
 _ZN8casacore13ArrayIteratorINS_8AutoDiffIdEEE4nextEv@Base 3.2.1
 _ZN8casacore13ArrayIteratorINS_8AutoDiffIdEEE5resetEv@Base 3.2.1
 _ZN8casacore13ArrayIteratorINS_8AutoDiffIdEEE8getArrayEv@Base 3.2.1
 _ZN8casacore13ArrayIteratorINS_8AutoDiffIdEEED0Ev@Base 3.2.1
 _ZN8casacore13ArrayIteratorINS_8AutoDiffIdEEED1Ev@Base 3.2.1
 _ZN8casacore13ArrayIteratorINS_8AutoDiffIdEEED2Ev@Base 3.2.1
 _ZN8casacore13ArrayIteratorINS_8AutoDiffIfEEE12apSetPointerEi@Base 3.2.1
 _ZN8casacore13ArrayIteratorINS_8AutoDiffIfEEE3setERKNS_9IPositionE@Base 3.2.1
 _ZN8casacore13ArrayIteratorINS_8AutoDiffIfEEE4initERKNS_5ArrayIS2_EE@Base 3.2.1
 _ZN8casacore13ArrayIteratorINS_8AutoDiffIfEEE4nextEv@Base 3.2.1
 _ZN8casacore13ArrayIteratorINS_8AutoDiffIfEEE5resetEv@Base 3.2.1
 _ZN8casacore13ArrayIteratorINS_8AutoDiffIfEEE8getArrayEv@Base 3.2.1
 _ZN8casacore13ArrayIteratorINS_8AutoDiffIfEEED0Ev@Base 3.2.1
 _ZN8casacore13ArrayIteratorINS_8AutoDiffIfEEED1Ev@Base 3.2.1
 _ZN8casacore13ArrayIteratorINS_8AutoDiffIfEEED2Ev@Base 3.2.1
 _ZN8casacore13ArrayIteratorIdE12apSetPointerEi@Base 3.2.1
 _ZN8casacore13ArrayIteratorIdE3setERKNS_9IPositionE@Base 3.2.1
 _ZN8casacore13ArrayIteratorIdE4initERKNS_5ArrayIdEE@Base 3.2.1
 _ZN8casacore13ArrayIteratorIdE4nextEv@Base 3.2.1
 _ZN8casacore13ArrayIteratorIdE5resetEv@Base 3.2.1
 _ZN8casacore13ArrayIteratorIdE8getArrayEv@Base 3.2.1
 _ZN8casacore13ArrayIteratorIdED0Ev@Base 3.2.1
 _ZN8casacore13ArrayIteratorIdED1Ev@Base 3.2.1
 _ZN8casacore13ArrayIteratorIdED2Ev@Base 3.2.1
 _ZN8casacore13CompoundParamINS_8AutoDiffIdEEE11addFunctionERKNS_8FunctionIS2_S2_EE@Base 3.2.1
 _ZN8casacore13CompoundParamINS_8AutoDiffIdEEEC1ERKS3_@Base 3.2.1
 _ZN8casacore13CompoundParamINS_8AutoDiffIdEEEC1Ev@Base 3.2.1
 _ZN8casacore13CompoundParamINS_8AutoDiffIdEEEC2ERKS3_@Base 3.2.1
 _ZN8casacore13CompoundParamINS_8AutoDiffIdEEEC2Ev@Base 3.2.1
 _ZN8casacore13CompoundParamINS_8AutoDiffIdEEED0Ev@Base 3.2.1
 _ZN8casacore13CompoundParamINS_8AutoDiffIdEEED1Ev@Base 3.2.1
 _ZN8casacore13CompoundParamINS_8AutoDiffIdEEED2Ev@Base 3.2.1
 _ZN8casacore13CompoundParamINS_8AutoDiffIdEEEaSERKS3_@Base 3.2.1
 _ZN8casacore13CompoundParamIdED0Ev@Base 3.2.1
 _ZN8casacore13CompoundParamIdED1Ev@Base 3.2.1
 _ZN8casacore13CompoundParamIdED2Ev@Base 3.2.1
 _ZN8casacore13FunctionParamINS_8AutoDiffIdEEE4maskEj@Base 3.2.1
 _ZN8casacore13FunctionParamINS_8AutoDiffIdEEEC1ERKS3_@Base 3.2.1
 _ZN8casacore13FunctionParamINS_8AutoDiffIdEEEC1Ej@Base 3.2.1
 _ZN8casacore13FunctionParamINS_8AutoDiffIdEEEC2ERKS3_@Base 3.2.1
 _ZN8casacore13FunctionParamINS_8AutoDiffIdEEEC2Ej@Base 3.2.1
 _ZN8casacore13FunctionParamINS_8AutoDiffIdEEED0Ev@Base 3.2.1
 _ZN8casacore13FunctionParamINS_8AutoDiffIdEEED1Ev@Base 3.2.1
 _ZN8casacore13FunctionParamINS_8AutoDiffIdEEED2Ev@Base 3.2.1
 _ZN8casacore13FunctionParamINS_8AutoDiffIfEEED0Ev@Base 3.2.1
 _ZN8casacore13FunctionParamINS_8AutoDiffIfEEED1Ev@Base 3.2.1
 _ZN8casacore13FunctionParamINS_8AutoDiffIfEEED2Ev@Base 3.2.1
 _ZN8casacore13FunctionParamIdED0Ev@Base 3.2.1
 _ZN8casacore13FunctionParamIdED1Ev@Base 3.2.1
 _ZN8casacore13FunctionParamIdED2Ev@Base 3.2.1
 _ZN8casacore13FunctionParamIfED0Ev@Base 3.2.1
 _ZN8casacore13FunctionParamIfED1Ev@Base 3.2.1
 _ZN8casacore13FunctionParamIfED2Ev@Base 3.2.1
 _ZN8casacore13LCRegionFixed7setMaskERKNS_5ArrayIbEE@Base 3.2.1
 _ZN8casacore13LCRegionFixedC1ERKNS_9IPositionE@Base 3.2.1
 _ZN8casacore13LCRegionFixedC1ERKS0_@Base 3.2.1
 _ZN8casacore13LCRegionFixedC1Ev@Base 3.2.1
 _ZN8casacore13LCRegionFixedC2ERKNS_9IPositionE@Base 3.2.1
 _ZN8casacore13LCRegionFixedC2ERKS0_@Base 3.2.1
 _ZN8casacore13LCRegionFixedC2Ev@Base 3.2.1
 _ZN8casacore13LCRegionFixedD0Ev@Base 3.2.1
 _ZN8casacore13LCRegionFixedD1Ev@Base 3.2.1
 _ZN8casacore13LCRegionFixedD2Ev@Base 3.2.1
 _ZN8casacore13LCRegionFixedaSERKS0_@Base 3.2.1
 _ZN8casacore13LCRegionMulti10doGetSliceERNS_5ArrayIbEERKNS_6SlicerE@Base 3.2.1
 _ZN8casacore13LCRegionMulti11fillHasMaskEv@Base 3.2.1
 _ZN8casacore13LCRegionMulti12unmakeRecordERNS_8PtrBlockIPKNS_8LCRegionEEERKNS_11TableRecordERKNS_6StringE@Base 3.2.1
 _ZN8casacore13LCRegionMulti4initEb@Base 3.2.1
 _ZN8casacore13LCRegionMultiC1EPKNS_8LCRegionERKNS_9IPositionE@Base 3.2.1
 _ZN8casacore13LCRegionMultiC1ERKNS_8LCRegionES3_@Base 3.2.1
 _ZN8casacore13LCRegionMultiC1ERKS0_@Base 3.2.1
 _ZN8casacore13LCRegionMultiC1EbPKNS_8LCRegionES3_S3_S3_S3_S3_S3_S3_S3_S3_@Base 3.2.1
 _ZN8casacore13LCRegionMultiC1EbRKNS_8PtrBlockIPKNS_8LCRegionEEE@Base 3.2.1
 _ZN8casacore13LCRegionMultiC1Ev@Base 3.2.1
 _ZN8casacore13LCRegionMultiC2EPKNS_8LCRegionERKNS_9IPositionE@Base 3.2.1
 _ZN8casacore13LCRegionMultiC2ERKNS_8LCRegionES3_@Base 3.2.1
 _ZN8casacore13LCRegionMultiC2ERKS0_@Base 3.2.1
 _ZN8casacore13LCRegionMultiC2EbPKNS_8LCRegionES3_S3_S3_S3_S3_S3_S3_S3_S3_@Base 3.2.1
 _ZN8casacore13LCRegionMultiC2EbRKNS_8PtrBlockIPKNS_8LCRegionEEE@Base 3.2.1
 _ZN8casacore13LCRegionMultiC2Ev@Base 3.2.1
 _ZN8casacore13LCRegionMultiD0Ev@Base 3.2.1
 _ZN8casacore13LCRegionMultiD1Ev@Base 3.2.1
 _ZN8casacore13LCRegionMultiD2Ev@Base 3.2.1
 _ZN8casacore13LCRegionMultiaSERKS0_@Base 3.2.1
 _ZN8casacore13LELBinaryBool17prepareScalarExprEv@Base 3.2.1
 _ZN8casacore13LELBinaryBool4lockENS_10FileLocker8LockTypeEj@Base 3.2.1
 _ZN8casacore13LELBinaryBool6resyncEv@Base 3.2.1
 _ZN8casacore13LELBinaryBool6unlockEv@Base 3.2.1
 _ZN8casacore13LELBinaryBoolC1ENS_14LELBinaryEnums9OperationERKNS_10CountedPtrINS_12LELInterfaceIbEEEES8_@Base 3.2.1
 _ZN8casacore13LELBinaryBoolC2ENS_14LELBinaryEnums9OperationERKNS_10CountedPtrINS_12LELInterfaceIbEEEES8_@Base 3.2.1
 _ZN8casacore13LELBinaryBoolD0Ev@Base 3.2.1
 _ZN8casacore13LELBinaryBoolD1Ev@Base 3.2.1
 _ZN8casacore13LELBinaryBoolD2Ev@Base 3.2.1
 _ZN8casacore13LELFunction1DISt7complexIdEE17prepareScalarExprEv@Base 3.2.1
 _ZN8casacore13LELFunction1DISt7complexIdEE4lockENS_10FileLocker8LockTypeEj@Base 3.2.1
 _ZN8casacore13LELFunction1DISt7complexIdEE6resyncEv@Base 3.2.1
 _ZN8casacore13LELFunction1DISt7complexIdEE6unlockEv@Base 3.2.1
 _ZN8casacore13LELFunction1DISt7complexIdEEC1ENS_16LELFunctionEnums8FunctionERKNS_10CountedPtrINS_12LELInterfaceIS2_EEEE@Base 3.2.1
 _ZN8casacore13LELFunction1DISt7complexIdEEC2ENS_16LELFunctionEnums8FunctionERKNS_10CountedPtrINS_12LELInterfaceIS2_EEEE@Base 3.2.1
 _ZN8casacore13LELFunction1DISt7complexIdEED0Ev@Base 3.2.1
 _ZN8casacore13LELFunction1DISt7complexIdEED1Ev@Base 3.2.1
 _ZN8casacore13LELFunction1DISt7complexIdEED2Ev@Base 3.2.1
 _ZN8casacore13LELFunction1DISt7complexIfEE17prepareScalarExprEv@Base 3.2.1
 _ZN8casacore13LELFunction1DISt7complexIfEE4lockENS_10FileLocker8LockTypeEj@Base 3.2.1
 _ZN8casacore13LELFunction1DISt7complexIfEE6resyncEv@Base 3.2.1
 _ZN8casacore13LELFunction1DISt7complexIfEE6unlockEv@Base 3.2.1
 _ZN8casacore13LELFunction1DISt7complexIfEEC1ENS_16LELFunctionEnums8FunctionERKNS_10CountedPtrINS_12LELInterfaceIS2_EEEE@Base 3.2.1
 _ZN8casacore13LELFunction1DISt7complexIfEEC2ENS_16LELFunctionEnums8FunctionERKNS_10CountedPtrINS_12LELInterfaceIS2_EEEE@Base 3.2.1
 _ZN8casacore13LELFunction1DISt7complexIfEED0Ev@Base 3.2.1
 _ZN8casacore13LELFunction1DISt7complexIfEED1Ev@Base 3.2.1
 _ZN8casacore13LELFunction1DISt7complexIfEED2Ev@Base 3.2.1
 _ZN8casacore13LELFunction1DIdE17prepareScalarExprEv@Base 3.2.1
 _ZN8casacore13LELFunction1DIdE4lockENS_10FileLocker8LockTypeEj@Base 3.2.1
 _ZN8casacore13LELFunction1DIdE6resyncEv@Base 3.2.1
 _ZN8casacore13LELFunction1DIdE6unlockEv@Base 3.2.1
 _ZN8casacore13LELFunction1DIdEC1ENS_16LELFunctionEnums8FunctionERKNS_10CountedPtrINS_12LELInterfaceIdEEEE@Base 3.2.1
 _ZN8casacore13LELFunction1DIdEC2ENS_16LELFunctionEnums8FunctionERKNS_10CountedPtrINS_12LELInterfaceIdEEEE@Base 3.2.1
 _ZN8casacore13LELFunction1DIdED0Ev@Base 3.2.1
 _ZN8casacore13LELFunction1DIdED1Ev@Base 3.2.1
 _ZN8casacore13LELFunction1DIdED2Ev@Base 3.2.1
 _ZN8casacore13LELFunction1DIfE17prepareScalarExprEv@Base 3.2.1
 _ZN8casacore13LELFunction1DIfE4lockENS_10FileLocker8LockTypeEj@Base 3.2.1
 _ZN8casacore13LELFunction1DIfE6resyncEv@Base 3.2.1
 _ZN8casacore13LELFunction1DIfE6unlockEv@Base 3.2.1
 _ZN8casacore13LELFunction1DIfEC1ENS_16LELFunctionEnums8FunctionERKNS_10CountedPtrINS_12LELInterfaceIfEEEE@Base 3.2.1
 _ZN8casacore13LELFunction1DIfEC2ENS_16LELFunctionEnums8FunctionERKNS_10CountedPtrINS_12LELInterfaceIfEEEE@Base 3.2.1
 _ZN8casacore13LELFunction1DIfED0Ev@Base 3.2.1
 _ZN8casacore13LELFunction1DIfED1Ev@Base 3.2.1
 _ZN8casacore13LELFunction1DIfED2Ev@Base 3.2.1
 _ZN8casacore13LELFunctionNDISt7complexIdEE17prepareScalarExprEv@Base 3.2.1
 _ZN8casacore13LELFunctionNDISt7complexIdEE4lockENS_10FileLocker8LockTypeEj@Base 3.2.1
 _ZN8casacore13LELFunctionNDISt7complexIdEE6resyncEv@Base 3.2.1
 _ZN8casacore13LELFunctionNDISt7complexIdEE6unlockEv@Base 3.2.1
 _ZN8casacore13LELFunctionNDISt7complexIdEEC1ENS_16LELFunctionEnums8FunctionERKNS_5BlockINS_15LatticeExprNodeEEE@Base 3.2.1
 _ZN8casacore13LELFunctionNDISt7complexIdEEC2ENS_16LELFunctionEnums8FunctionERKNS_5BlockINS_15LatticeExprNodeEEE@Base 3.2.1
 _ZN8casacore13LELFunctionNDISt7complexIdEED0Ev@Base 3.2.1
 _ZN8casacore13LELFunctionNDISt7complexIdEED1Ev@Base 3.2.1
 _ZN8casacore13LELFunctionNDISt7complexIdEED2Ev@Base 3.2.1
 _ZN8casacore13LELFunctionNDISt7complexIfEE17prepareScalarExprEv@Base 3.2.1
 _ZN8casacore13LELFunctionNDISt7complexIfEE4lockENS_10FileLocker8LockTypeEj@Base 3.2.1
 _ZN8casacore13LELFunctionNDISt7complexIfEE6resyncEv@Base 3.2.1
 _ZN8casacore13LELFunctionNDISt7complexIfEE6unlockEv@Base 3.2.1
 _ZN8casacore13LELFunctionNDISt7complexIfEEC1ENS_16LELFunctionEnums8FunctionERKNS_5BlockINS_15LatticeExprNodeEEE@Base 3.2.1
 _ZN8casacore13LELFunctionNDISt7complexIfEEC2ENS_16LELFunctionEnums8FunctionERKNS_5BlockINS_15LatticeExprNodeEEE@Base 3.2.1
 _ZN8casacore13LELFunctionNDISt7complexIfEED0Ev@Base 3.2.1
 _ZN8casacore13LELFunctionNDISt7complexIfEED1Ev@Base 3.2.1
 _ZN8casacore13LELFunctionNDISt7complexIfEED2Ev@Base 3.2.1
 _ZN8casacore13LELFunctionNDIbE17prepareScalarExprEv@Base 3.2.1
 _ZN8casacore13LELFunctionNDIbE4lockENS_10FileLocker8LockTypeEj@Base 3.2.1
 _ZN8casacore13LELFunctionNDIbE6resyncEv@Base 3.2.1
 _ZN8casacore13LELFunctionNDIbE6unlockEv@Base 3.2.1
 _ZN8casacore13LELFunctionNDIbEC1ENS_16LELFunctionEnums8FunctionERKNS_5BlockINS_15LatticeExprNodeEEE@Base 3.2.1
 _ZN8casacore13LELFunctionNDIbEC2ENS_16LELFunctionEnums8FunctionERKNS_5BlockINS_15LatticeExprNodeEEE@Base 3.2.1
 _ZN8casacore13LELFunctionNDIbED0Ev@Base 3.2.1
 _ZN8casacore13LELFunctionNDIbED1Ev@Base 3.2.1
 _ZN8casacore13LELFunctionNDIbED2Ev@Base 3.2.1
 _ZN8casacore13LELFunctionNDIdE17prepareScalarExprEv@Base 3.2.1
 _ZN8casacore13LELFunctionNDIdE4lockENS_10FileLocker8LockTypeEj@Base 3.2.1
 _ZN8casacore13LELFunctionNDIdE6resyncEv@Base 3.2.1
 _ZN8casacore13LELFunctionNDIdE6unlockEv@Base 3.2.1
 _ZN8casacore13LELFunctionNDIdEC1ENS_16LELFunctionEnums8FunctionERKNS_5BlockINS_15LatticeExprNodeEEE@Base 3.2.1
 _ZN8casacore13LELFunctionNDIdEC2ENS_16LELFunctionEnums8FunctionERKNS_5BlockINS_15LatticeExprNodeEEE@Base 3.2.1
 _ZN8casacore13LELFunctionNDIdED0Ev@Base 3.2.1
 _ZN8casacore13LELFunctionNDIdED1Ev@Base 3.2.1
 _ZN8casacore13LELFunctionNDIdED2Ev@Base 3.2.1
 _ZN8casacore13LELFunctionNDIfE17prepareScalarExprEv@Base 3.2.1
 _ZN8casacore13LELFunctionNDIfE4lockENS_10FileLocker8LockTypeEj@Base 3.2.1
 _ZN8casacore13LELFunctionNDIfE6resyncEv@Base 3.2.1
 _ZN8casacore13LELFunctionNDIfE6unlockEv@Base 3.2.1
 _ZN8casacore13LELFunctionNDIfEC1ENS_16LELFunctionEnums8FunctionERKNS_5BlockINS_15LatticeExprNodeEEE@Base 3.2.1
 _ZN8casacore13LELFunctionNDIfEC2ENS_16LELFunctionEnums8FunctionERKNS_5BlockINS_15LatticeExprNodeEEE@Base 3.2.1
 _ZN8casacore13LELFunctionNDIfED0Ev@Base 3.2.1
 _ZN8casacore13LELFunctionNDIfED1Ev@Base 3.2.1
 _ZN8casacore13LELFunctionNDIfED2Ev@Base 3.2.1
 _ZN8casacore13LELUnaryConstISt7complexIdEE17prepareScalarExprEv@Base 3.2.1
 _ZN8casacore13LELUnaryConstISt7complexIdEEC1ES2_@Base 3.2.1
 _ZN8casacore13LELUnaryConstISt7complexIdEEC2ES2_@Base 3.2.1
 _ZN8casacore13LELUnaryConstISt7complexIdEED0Ev@Base 3.2.1
 _ZN8casacore13LELUnaryConstISt7complexIdEED1Ev@Base 3.2.1
 _ZN8casacore13LELUnaryConstISt7complexIdEED2Ev@Base 3.2.1
 _ZN8casacore13LELUnaryConstISt7complexIfEE17prepareScalarExprEv@Base 3.2.1
 _ZN8casacore13LELUnaryConstISt7complexIfEEC1ES2_@Base 3.2.1
 _ZN8casacore13LELUnaryConstISt7complexIfEEC2ES2_@Base 3.2.1
 _ZN8casacore13LELUnaryConstISt7complexIfEED0Ev@Base 3.2.1
 _ZN8casacore13LELUnaryConstISt7complexIfEED1Ev@Base 3.2.1
 _ZN8casacore13LELUnaryConstISt7complexIfEED2Ev@Base 3.2.1
 _ZN8casacore13LELUnaryConstIbE17prepareScalarExprEv@Base 3.2.1
 _ZN8casacore13LELUnaryConstIbEC1Eb@Base 3.2.1
 _ZN8casacore13LELUnaryConstIbEC2Eb@Base 3.2.1
 _ZN8casacore13LELUnaryConstIbED0Ev@Base 3.2.1
 _ZN8casacore13LELUnaryConstIbED1Ev@Base 3.2.1
 _ZN8casacore13LELUnaryConstIbED2Ev@Base 3.2.1
 _ZN8casacore13LELUnaryConstIdE17prepareScalarExprEv@Base 3.2.1
 _ZN8casacore13LELUnaryConstIdEC1Ed@Base 3.2.1
 _ZN8casacore13LELUnaryConstIdEC2Ed@Base 3.2.1
 _ZN8casacore13LELUnaryConstIdED0Ev@Base 3.2.1
 _ZN8casacore13LELUnaryConstIdED1Ev@Base 3.2.1
 _ZN8casacore13LELUnaryConstIdED2Ev@Base 3.2.1
 _ZN8casacore13LELUnaryConstIfE17prepareScalarExprEv@Base 3.2.1
 _ZN8casacore13LELUnaryConstIfEC1Ef@Base 3.2.1
 _ZN8casacore13LELUnaryConstIfEC2Ef@Base 3.2.1
 _ZN8casacore13LELUnaryConstIfED0Ev@Base 3.2.1
 _ZN8casacore13LELUnaryConstIfED1Ev@Base 3.2.1
 _ZN8casacore13LELUnaryConstIfED2Ev@Base 3.2.1
 _ZN8casacore13LatticeLockerC1ERNS_11LatticeBaseENS_10FileLocker8LockTypeEj@Base 3.2.1
 _ZN8casacore13LatticeLockerC2ERNS_11LatticeBaseENS_10FileLocker8LockTypeEj@Base 3.2.1
 _ZN8casacore13LatticeLockerD1Ev@Base 3.2.1
 _ZN8casacore13LatticeLockerD2Ev@Base 3.2.1
 _ZN8casacore13LatticeRegion10clearCacheEv@Base 3.2.1
 _ZN8casacore13LatticeRegion10doGetSliceERNS_5ArrayIbEERKNS_6SlicerE@Base 3.2.1
 _ZN8casacore13LatticeRegion10doPutSliceERKNS_5ArrayIbEERKNS_9IPositionES7_@Base 3.2.1
 _ZN8casacore13LatticeRegion19setCacheSizeInTilesEj@Base 3.2.1
 _ZN8casacore13LatticeRegion19setMaximumCacheSizeEj@Base 3.2.1
 _ZN8casacore13LatticeRegion20setCacheSizeFromPathERKNS_9IPositionES3_S3_S3_@Base 3.2.1
 _ZN8casacore13LatticeRegion3setERKb@Base 3.2.1
 _ZN8casacore13LatticeRegion4lockENS_10FileLocker8LockTypeEj@Base 3.2.1
 _ZN8casacore13LatticeRegion5applyEPFbRKbE@Base 3.2.1
 _ZN8casacore13LatticeRegion5applyEPFbbE@Base 3.2.1
 _ZN8casacore13LatticeRegion5applyERKNS_10FunctionalIbbEE@Base 3.2.1
 _ZN8casacore13LatticeRegion5flushEv@Base 3.2.1
 _ZN8casacore13LatticeRegion5putAtERKbRKNS_9IPositionE@Base 3.2.1
 _ZN8casacore13LatticeRegion6reopenEv@Base 3.2.1
 _ZN8casacore13LatticeRegion6resyncEv@Base 3.2.1
 _ZN8casacore13LatticeRegion6unlockEv@Base 3.2.1
 _ZN8casacore13LatticeRegion8copyDataERKNS_7LatticeIbEE@Base 3.2.1
 _ZN8casacore13LatticeRegion9tempCloseEv@Base 3.2.1
 _ZN8casacore13LatticeRegionC1EPNS_8LCRegionE@Base 3.2.1
 _ZN8casacore13LatticeRegionC1ERKNS_6SlicerERKNS_9IPositionE@Base 3.2.1
 _ZN8casacore13LatticeRegionC1ERKNS_8LCRegionE@Base 3.2.1
 _ZN8casacore13LatticeRegionC1ERKS0_@Base 3.2.1
 _ZN8casacore13LatticeRegionC1Ev@Base 3.2.1
 _ZN8casacore13LatticeRegionC2EPNS_8LCRegionE@Base 3.2.1
 _ZN8casacore13LatticeRegionC2ERKNS_6SlicerERKNS_9IPositionE@Base 3.2.1
 _ZN8casacore13LatticeRegionC2ERKNS_8LCRegionE@Base 3.2.1
 _ZN8casacore13LatticeRegionC2ERKS0_@Base 3.2.1
 _ZN8casacore13LatticeRegionC2Ev@Base 3.2.1
 _ZN8casacore13LatticeRegionD0Ev@Base 3.2.1
 _ZN8casacore13LatticeRegionD1Ev@Base 3.2.1
 _ZN8casacore13LatticeRegionD2Ev@Base 3.2.1
 _ZN8casacore13LatticeRegionaSERKS0_@Base 3.2.1
 _ZN8casacore13MaskedLatticeISt7complexIdEE12getMaskSliceERNS_5ArrayIbEERKNS_6SlicerEb@Base 3.2.1
 _ZN8casacore13MaskedLatticeISt7complexIdEE14doGetMaskSliceERNS_5ArrayIbEERKNS_6SlicerE@Base 3.2.1
 _ZN8casacore13MaskedLatticeISt7complexIdEE9pixelMaskEv@Base 3.2.1
 _ZN8casacore13MaskedLatticeISt7complexIdEED0Ev@Base 3.2.1
 _ZN8casacore13MaskedLatticeISt7complexIdEED1Ev@Base 3.2.1
 _ZN8casacore13MaskedLatticeISt7complexIdEED2Ev@Base 3.2.1
 _ZN8casacore13MaskedLatticeISt7complexIfEE12getMaskSliceERNS_5ArrayIbEERKNS_6SlicerEb@Base 3.2.1
 _ZN8casacore13MaskedLatticeISt7complexIfEE14doGetMaskSliceERNS_5ArrayIbEERKNS_6SlicerE@Base 3.2.1
 _ZN8casacore13MaskedLatticeISt7complexIfEE9pixelMaskEv@Base 3.2.1
 _ZN8casacore13MaskedLatticeISt7complexIfEED0Ev@Base 3.2.1
 _ZN8casacore13MaskedLatticeISt7complexIfEED1Ev@Base 3.2.1
 _ZN8casacore13MaskedLatticeISt7complexIfEED2Ev@Base 3.2.1
 _ZN8casacore13MaskedLatticeIbE12getMaskSliceERNS_5ArrayIbEERKNS_6SlicerEb@Base 3.2.1
 _ZN8casacore13MaskedLatticeIbE14doGetMaskSliceERNS_5ArrayIbEERKNS_6SlicerE@Base 3.2.1
 _ZN8casacore13MaskedLatticeIbE9pixelMaskEv@Base 3.2.1
 _ZN8casacore13MaskedLatticeIbED0Ev@Base 3.2.1
 _ZN8casacore13MaskedLatticeIbED1Ev@Base 3.2.1
 _ZN8casacore13MaskedLatticeIbED2Ev@Base 3.2.1
 _ZN8casacore13MaskedLatticeIdE12getMaskSliceERNS_5ArrayIbEERKNS_6SlicerEb@Base 3.2.1
 _ZN8casacore13MaskedLatticeIdE14doGetMaskSliceERNS_5ArrayIbEERKNS_6SlicerE@Base 3.2.1
 _ZN8casacore13MaskedLatticeIdE9pixelMaskEv@Base 3.2.1
 _ZN8casacore13MaskedLatticeIdED0Ev@Base 3.2.1
 _ZN8casacore13MaskedLatticeIdED1Ev@Base 3.2.1
 _ZN8casacore13MaskedLatticeIdED2Ev@Base 3.2.1
 _ZN8casacore13MaskedLatticeIfE12getMaskSliceERNS_5ArrayIbEERKNS_6SlicerEb@Base 3.2.1
 _ZN8casacore13MaskedLatticeIfE14doGetMaskSliceERNS_5ArrayIbEERKNS_6SlicerE@Base 3.2.1
 _ZN8casacore13MaskedLatticeIfE9pixelMaskEv@Base 3.2.1
 _ZN8casacore13MaskedLatticeIfED0Ev@Base 3.2.1
 _ZN8casacore13MaskedLatticeIfED1Ev@Base 3.2.1
 _ZN8casacore13MaskedLatticeIfED2Ev@Base 3.2.1
 _ZN8casacore13fractileRangeERKNS_15LatticeExprNodeES2_@Base 3.2.1
 _ZN8casacore13fractileRangeERKNS_15LatticeExprNodeES2_S2_@Base 3.2.1
 _ZN8casacore13spectralindexERKNS_15LatticeExprNodeES2_@Base 3.2.1
 _ZN8casacore14FunctionTraitsINS_8AutoDiffIdEEE8setValueERS2_RKdjj@Base 3.2.1
 _ZN8casacore14LCIntersection10fromRecordERKNS_11TableRecordERKNS_6StringE@Base 3.2.1
 _ZN8casacore14LCIntersection13multiGetSliceERNS_5ArrayIbEERKNS_6SlicerE@Base 3.2.1
 _ZN8casacore14LCIntersection9classNameEv@Base 3.2.1
 _ZN8casacore14LCIntersection9defineBoxEv@Base 3.2.1
 _ZN8casacore14LCIntersectionC1ERKNS_8LCRegionES3_@Base 3.2.1
 _ZN8casacore14LCIntersectionC1ERKS0_@Base 3.2.1
 _ZN8casacore14LCIntersectionC1EbPKNS_8LCRegionES3_S3_S3_S3_S3_S3_S3_S3_S3_@Base 3.2.1
 _ZN8casacore14LCIntersectionC1EbRKNS_8PtrBlockIPKNS_8LCRegionEEE@Base 3.2.1
 _ZN8casacore14LCIntersectionC1Ev@Base 3.2.1
 _ZN8casacore14LCIntersectionC2ERKNS_8LCRegionES3_@Base 3.2.1
 _ZN8casacore14LCIntersectionC2ERKS0_@Base 3.2.1
 _ZN8casacore14LCIntersectionC2EbPKNS_8LCRegionES3_S3_S3_S3_S3_S3_S3_S3_S3_@Base 3.2.1
 _ZN8casacore14LCIntersectionC2EbRKNS_8PtrBlockIPKNS_8LCRegionEEE@Base 3.2.1
 _ZN8casacore14LCIntersectionC2Ev@Base 3.2.1
 _ZN8casacore14LCIntersectionD0Ev@Base 3.2.1
 _ZN8casacore14LCIntersectionD1Ev@Base 3.2.1
 _ZN8casacore14LCIntersectionD2Ev@Base 3.2.1
 _ZN8casacore14LCIntersectionaSERKS0_@Base 3.2.1
 _ZN8casacore14LCRegionSingle10doGetSliceERNS_5ArrayIbEERKNS_6SlicerE@Base 3.2.1
 _ZN8casacore14LCRegionSingle10doPutSliceERKNS_5ArrayIbEERKNS_9IPositionES7_@Base 3.2.1
 _ZN8casacore14LCRegionSingle10setMaskPtrERNS_7LatticeIbEE@Base 3.2.1
 _ZN8casacore14LCRegionSingle3setERKb@Base 3.2.1
 _ZN8casacore14LCRegionSingle5applyEPFbRKbE@Base 3.2.1
 _ZN8casacore14LCRegionSingle5applyEPFbbE@Base 3.2.1
 _ZN8casacore14LCRegionSingle5applyERKNS_10FunctionalIbbEE@Base 3.2.1
 _ZN8casacore14LCRegionSingle5putAtERKbRKNS_9IPositionE@Base 3.2.1
 _ZN8casacore14LCRegionSingle8copyDataERKNS_7LatticeIbEE@Base 3.2.1
 _ZN8casacore14LCRegionSingleC1ERKNS_9IPositionE@Base 3.2.1
 _ZN8casacore14LCRegionSingleC1ERKS0_@Base 3.2.1
 _ZN8casacore14LCRegionSingleC1Ev@Base 3.2.1
 _ZN8casacore14LCRegionSingleC2ERKNS_9IPositionE@Base 3.2.1
 _ZN8casacore14LCRegionSingleC2ERKS0_@Base 3.2.1
 _ZN8casacore14LCRegionSingleC2Ev@Base 3.2.1
 _ZN8casacore14LCRegionSingleD0Ev@Base 3.2.1
 _ZN8casacore14LCRegionSingleD1Ev@Base 3.2.1
 _ZN8casacore14LCRegionSingleD2Ev@Base 3.2.1
 _ZN8casacore14LCRegionSingleaSERKS0_@Base 3.2.1
 _ZN8casacore14LELCoordinatesC1EPNS_16LELLattCoordBaseE@Base 3.2.1
 _ZN8casacore14LELCoordinatesC1ERKS0_@Base 3.2.1
 _ZN8casacore14LELCoordinatesC1Ev@Base 3.2.1
 _ZN8casacore14LELCoordinatesC2EPNS_16LELLattCoordBaseE@Base 3.2.1
 _ZN8casacore14LELCoordinatesC2ERKS0_@Base 3.2.1
 _ZN8casacore14LELCoordinatesC2Ev@Base 3.2.1
 _ZN8casacore14LELCoordinatesD1Ev@Base 3.2.1
 _ZN8casacore14LELCoordinatesD2Ev@Base 3.2.1
 _ZN8casacore14LELCoordinatesaSERKS0_@Base 3.2.1
 _ZN8casacore14LatticeIndexer10subSectionERKNS_9IPositionES3_@Base 3.2.1
 _ZN8casacore14LatticeIndexer10subSectionERKNS_9IPositionES3_S3_@Base 3.2.1
 _ZN8casacore14LatticeIndexer6resizeERKNS_9IPositionE@Base 3.2.1
 _ZN8casacore14LatticeIndexer8fullSizeEv@Base 3.2.1
 _ZN8casacore14LatticeIndexerC1ERKNS_9IPositionE@Base 3.2.1
 _ZN8casacore14LatticeIndexerC1ERKNS_9IPositionES3_S3_S3_@Base 3.2.1
 _ZN8casacore14LatticeIndexerC1ERKS0_@Base 3.2.1
 _ZN8casacore14LatticeIndexerC1Ev@Base 3.2.1
 _ZN8casacore14LatticeIndexerC2ERKNS_9IPositionE@Base 3.2.1
 _ZN8casacore14LatticeIndexerC2ERKNS_9IPositionES3_S3_S3_@Base 3.2.1
 _ZN8casacore14LatticeIndexerC2ERKS0_@Base 3.2.1
 _ZN8casacore14LatticeIndexerC2Ev@Base 3.2.1
 _ZN8casacore14LatticeIndexerD1Ev@Base 3.2.1
 _ZN8casacore14LatticeIndexerD2Ev@Base 3.2.1
 _ZN8casacore14LatticeIndexeraSERKS0_@Base 3.2.1
 _ZN8casacore14LatticeStepper10subSectionERKNS_9IPositionES3_@Base 3.2.1
 _ZN8casacore14LatticeStepper10subSectionERKNS_9IPositionES3_S3_@Base 3.2.1
 _ZN8casacore14LatticeStepper14setCursorShapeERKNS_9IPositionE@Base 3.2.1
 _ZN8casacore14LatticeStepper14setCursorShapeERKNS_9IPositionES3_@Base 3.2.1
 _ZN8casacore14LatticeStepper5resetEv@Base 3.2.1
 _ZN8casacore14LatticeStepperC1ERKNS_9IPositionES3_S3_S3_j@Base 3.2.1
 _ZN8casacore14LatticeStepperC1ERKNS_9IPositionES3_S3_j@Base 3.2.1
 _ZN8casacore14LatticeStepperC1ERKNS_9IPositionES3_j@Base 3.2.1
 _ZN8casacore14LatticeStepperC1ERKS0_@Base 3.2.1
 _ZN8casacore14LatticeStepperC2ERKNS_9IPositionES3_S3_S3_j@Base 3.2.1
 _ZN8casacore14LatticeStepperC2ERKNS_9IPositionES3_S3_j@Base 3.2.1
 _ZN8casacore14LatticeStepperC2ERKNS_9IPositionES3_j@Base 3.2.1
 _ZN8casacore14LatticeStepperC2ERKS0_@Base 3.2.1
 _ZN8casacore14LatticeStepperD0Ev@Base 3.2.1
 _ZN8casacore14LatticeStepperD1Ev@Base 3.2.1
 _ZN8casacore14LatticeStepperD2Ev@Base 3.2.1
 _ZN8casacore14LatticeStepperaSERKS0_@Base 3.2.1
 _ZN8casacore14LatticeSteppermmEi@Base 3.2.1
 _ZN8casacore14LatticeStepperppEi@Base 3.2.1
 _ZN8casacore14NonLinearFitLMIdE5fitItERNS_6VectorIdEERKNS_5ArrayIdEERKS3_PS9_PKNS2_IbEE@Base 3.2.1
 _ZN8casacore14NonLinearFitLMIdED0Ev@Base 3.2.1
 _ZN8casacore14NonLinearFitLMIdED1Ev@Base 3.2.1
 _ZN8casacore14NonLinearFitLMIdED2Ev@Base 3.2.1
 _ZN8casacore14StatsHistogramIdEC1Eddj@Base 3.2.1
 _ZN8casacore14StatsHistogramIdEC2Eddj@Base 3.2.1
 _ZN8casacore14VectorIteratorIdEC1ERNS_5ArrayIdEEj@Base 3.2.1
 _ZN8casacore14VectorIteratorIdEC2ERNS_5ArrayIdEEj@Base 3.2.1
 _ZN8casacore14VectorIteratorIdED0Ev@Base 3.2.1
 _ZN8casacore14VectorIteratorIdED1Ev@Base 3.2.1
 _ZN8casacore14VectorIteratorIdED2Ev@Base 3.2.1
 _ZN8casacore14arrayTransformIdddNS_3MaxIdddEEEEvRKNS_5ArrayIT_EERKNS3_IT0_EERNS3_IT1_EET2_@Base 3.2.1
 _ZN8casacore14arrayTransformIdddNS_3MaxIdddEEEEvRKNS_5ArrayIT_EET0_RNS3_IT1_EET2_@Base 3.2.1
 _ZN8casacore14arrayTransformIdddNS_3MinIdddEEEEvRKNS_5ArrayIT_EERKNS3_IT0_EERNS3_IT1_EET2_@Base 3.2.1
 _ZN8casacore14arrayTransformIdddNS_3MinIdddEEEEvRKNS_5ArrayIT_EET0_RNS3_IT1_EET2_@Base 3.2.1
 _ZN8casacore14arrayTransformIfffNS_3MaxIfffEEEEvRKNS_5ArrayIT_EERKNS3_IT0_EERNS3_IT1_EET2_@Base 3.2.1
 _ZN8casacore14arrayTransformIfffNS_3MaxIfffEEEEvRKNS_5ArrayIT_EET0_RNS3_IT1_EET2_@Base 3.2.1
 _ZN8casacore14arrayTransformIfffNS_3MinIfffEEEEvRKNS_5ArrayIT_EERKNS3_IT0_EERNS3_IT1_EET2_@Base 3.2.1
 _ZN8casacore14arrayTransformIfffNS_3MinIfffEEEEvRKNS_5ArrayIT_EET0_RNS3_IT1_EET2_@Base 3.2.1
 _ZN8casacore15Gaussian1DParamINS_8AutoDiffIfEEEC1ERKS3_@Base 3.2.1
 _ZN8casacore15Gaussian1DParamINS_8AutoDiffIfEEEC1IfEERKNS0_IT_EE@Base 3.2.1
 _ZN8casacore15Gaussian1DParamINS_8AutoDiffIfEEEC2ERKS3_@Base 3.2.1
 _ZN8casacore15Gaussian1DParamINS_8AutoDiffIfEEEC2IfEERKNS0_IT_EE@Base 3.2.1
 _ZN8casacore15Gaussian1DParamINS_8AutoDiffIfEEED0Ev@Base 3.2.1
 _ZN8casacore15Gaussian1DParamINS_8AutoDiffIfEEED1Ev@Base 3.2.1
 _ZN8casacore15Gaussian1DParamINS_8AutoDiffIfEEED2Ev@Base 3.2.1
 _ZN8casacore15Gaussian1DParamIfEC1ERKfS3_S3_@Base 3.2.1
 _ZN8casacore15Gaussian1DParamIfEC2ERKfS3_S3_@Base 3.2.1
 _ZN8casacore15Gaussian2DParamINS_8AutoDiffIdEEE5setPAERKS2_@Base 3.2.1
 _ZN8casacore15Gaussian2DParamINS_8AutoDiffIdEEEC1ERKS3_@Base 3.2.1
 _ZN8casacore15Gaussian2DParamINS_8AutoDiffIdEEEC1Ev@Base 3.2.1
 _ZN8casacore15Gaussian2DParamINS_8AutoDiffIdEEEC1IdEERKNS0_IT_EE@Base 3.2.1
 _ZN8casacore15Gaussian2DParamINS_8AutoDiffIdEEEC2ERKS3_@Base 3.2.1
 _ZN8casacore15Gaussian2DParamINS_8AutoDiffIdEEEC2Ev@Base 3.2.1
 _ZN8casacore15Gaussian2DParamINS_8AutoDiffIdEEEC2IdEERKNS0_IT_EE@Base 3.2.1
 _ZN8casacore15Gaussian2DParamINS_8AutoDiffIdEEED0Ev@Base 3.2.1
 _ZN8casacore15Gaussian2DParamINS_8AutoDiffIdEEED1Ev@Base 3.2.1
 _ZN8casacore15Gaussian2DParamINS_8AutoDiffIdEEED2Ev@Base 3.2.1
 _ZN8casacore15Gaussian2DParamIdE5setPAERKd@Base 3.2.1
 _ZN8casacore15GenSortIndirectIlE10insSortAscEPjPKlii@Base 3.2.1
 _ZN8casacore15GenSortIndirectIlE11heapSortAscEPjPKli@Base 3.2.1
 _ZN8casacore15GenSortIndirectIlE12quickSortAscEPjPKlibi@Base 3.2.1
 _ZN8casacore15GenSortIndirectIlE15heapAscSiftDownEPjiiPKl@Base 3.2.1
 _ZN8casacore15GenSortIndirectIlE15insSortAscNoDupEPjPKli@Base 3.2.1
 _ZN8casacore15GenSortIndirectIlE5mergeEPKlPjS4_jS4_j@Base 3.2.1
 _ZN8casacore15GenSortIndirectIlE7parSortEPjPKljNS_4Sort5OrderEii@Base 3.2.1
 _ZN8casacore15LCConcatenation10fromRecordERKNS_11TableRecordERKNS_6StringE@Base 3.2.1
 _ZN8casacore15LCConcatenation13multiGetSliceERNS_5ArrayIbEERKNS_6SlicerE@Base 3.2.1
 _ZN8casacore15LCConcatenation14fillRegionAxesEv@Base 3.2.1
 _ZN8casacore15LCConcatenation4fillEv@Base 3.2.1
 _ZN8casacore15LCConcatenation9classNameEv@Base 3.2.1
 _ZN8casacore15LCConcatenationC1ERKS0_@Base 3.2.1
 _ZN8casacore15LCConcatenationC1EbRKNS_8PtrBlockIPKNS_8LCRegionEEEi@Base 3.2.1
 _ZN8casacore15LCConcatenationC1EbRKNS_8PtrBlockIPKNS_8LCRegionEEEiRKNS_5LCBoxE@Base 3.2.1
 _ZN8casacore15LCConcatenationC1Ev@Base 3.2.1
 _ZN8casacore15LCConcatenationC2ERKS0_@Base 3.2.1
 _ZN8casacore15LCConcatenationC2EbRKNS_8PtrBlockIPKNS_8LCRegionEEEi@Base 3.2.1
 _ZN8casacore15LCConcatenationC2EbRKNS_8PtrBlockIPKNS_8LCRegionEEEiRKNS_5LCBoxE@Base 3.2.1
 _ZN8casacore15LCConcatenationC2Ev@Base 3.2.1
 _ZN8casacore15LCConcatenationD0Ev@Base 3.2.1
 _ZN8casacore15LCConcatenationD1Ev@Base 3.2.1
 _ZN8casacore15LCConcatenationD2Ev@Base 3.2.1
 _ZN8casacore15LCConcatenationaSERKS0_@Base 3.2.1
 _ZN8casacore15LELFunctionBool17prepareScalarExprEv@Base 3.2.1
 _ZN8casacore15LELFunctionBool4lockENS_10FileLocker8LockTypeEj@Base 3.2.1
 _ZN8casacore15LELFunctionBool6resyncEv@Base 3.2.1
 _ZN8casacore15LELFunctionBool6unlockEv@Base 3.2.1
 _ZN8casacore15LELFunctionBoolC1ENS_16LELFunctionEnums8FunctionERKNS_5BlockINS_15LatticeExprNodeEEE@Base 3.2.1
 _ZN8casacore15LELFunctionBoolC2ENS_16LELFunctionEnums8FunctionERKNS_5BlockINS_15LatticeExprNodeEEE@Base 3.2.1
 _ZN8casacore15LELFunctionBoolD0Ev@Base 3.2.1
 _ZN8casacore15LELFunctionBoolD1Ev@Base 3.2.1
 _ZN8casacore15LELFunctionBoolD2Ev@Base 3.2.1
 _ZN8casacore15LELRegionAsBool17prepareScalarExprEv@Base 3.2.1
 _ZN8casacore15LELRegionAsBoolC1ERKNS_9LELRegionE@Base 3.2.1
 _ZN8casacore15LELRegionAsBoolC2ERKNS_9LELRegionE@Base 3.2.1
 _ZN8casacore15LELRegionAsBoolD0Ev@Base 3.2.1
 _ZN8casacore15LELRegionAsBoolD1Ev@Base 3.2.1
 _ZN8casacore15LELRegionAsBoolD2Ev@Base 3.2.1
 _ZN8casacore15LatticeAddNoise15addNoiseToArrayERNS_5ArrayISt7complexIdEEE@Base 3.2.1
 _ZN8casacore15LatticeAddNoise15addNoiseToArrayERNS_5ArrayISt7complexIfEEE@Base 3.2.1
 _ZN8casacore15LatticeAddNoise15addNoiseToArrayERNS_5ArrayIdEE@Base 3.2.1
 _ZN8casacore15LatticeAddNoise15addNoiseToArrayERNS_5ArrayIfEE@Base 3.2.1
 _ZN8casacore15LatticeAddNoise16makeDistributionEv@Base 3.2.1
 _ZN8casacore15LatticeAddNoise3setENS_6Random5TypesERKNS_6VectorIdEE@Base 3.2.1
 _ZN8casacore15LatticeAddNoiseC1ENS_6Random5TypesERKNS_6VectorIdEEii@Base 3.2.1
 _ZN8casacore15LatticeAddNoiseC1ERKS0_@Base 3.2.1
 _ZN8casacore15LatticeAddNoiseC1Ev@Base 3.2.1
 _ZN8casacore15LatticeAddNoiseC2ENS_6Random5TypesERKNS_6VectorIdEEii@Base 3.2.1
 _ZN8casacore15LatticeAddNoiseC2ERKS0_@Base 3.2.1
 _ZN8casacore15LatticeAddNoiseC2Ev@Base 3.2.1
 _ZN8casacore15LatticeAddNoiseD1Ev@Base 3.2.1
 _ZN8casacore15LatticeAddNoiseD2Ev@Base 3.2.1
 _ZN8casacore15LatticeAddNoiseaSERKS0_@Base 3.2.1
 _ZN8casacore15LatticeExprNode10areRegionsERKS0_S2_@Base 3.2.1
 _ZN8casacore15LatticeExprNode11newNumUnaryENS_13LELUnaryEnums9OperationERKS0_@Base 3.2.1
 _ZN8casacore15LatticeExprNode12makeEqualDimERS0_S1_@Base 3.2.1
 _ZN8casacore15LatticeExprNode12newBinaryCmpENS_14LELBinaryEnums9OperationERKS0_S4_@Base 3.2.1
 _ZN8casacore15LatticeExprNode12newLogBinaryENS_14LELBinaryEnums9OperationERKS0_S4_@Base 3.2.1
 _ZN8casacore15LatticeExprNode12newNumBinaryENS_14LELBinaryEnums9OperationERKS0_S4_@Base 3.2.1
 _ZN8casacore15LatticeExprNode12newNumFunc1DENS_16LELFunctionEnums8FunctionERKS0_@Base 3.2.1
 _ZN8casacore15LatticeExprNode12newNumFunc2DENS_16LELFunctionEnums8FunctionERKS0_S4_@Base 3.2.1
 _ZN8casacore15LatticeExprNode12newNumReal1DENS_16LELFunctionEnums8FunctionERKS0_@Base 3.2.1
 _ZN8casacore15LatticeExprNode13newRealFunc1DENS_16LELFunctionEnums8FunctionERKS0_@Base 3.2.1
 _ZN8casacore15LatticeExprNode14resultDataTypeENS_8DataTypeES1_@Base 3.2.1
 _ZN8casacore15LatticeExprNode16newComplexFunc1DENS_16LELFunctionEnums8FunctionERKS0_@Base 3.2.1
 _ZN8casacore15LatticeExprNode17replaceScalarExprEv@Base 3.2.1
 _ZN8casacore15LatticeExprNode4lockENS_10FileLocker8LockTypeEj@Base 3.2.1
 _ZN8casacore15LatticeExprNode6resyncEv@Base 3.2.1
 _ZN8casacore15LatticeExprNode6unlockEv@Base 3.2.1
 _ZN8casacore15LatticeExprNode8checkArgERKNS_5BlockIS0_EERKNS1_IiEEbb@Base 3.2.1
 _ZN8casacore15LatticeExprNodeC1EPNS_12LELInterfaceISt7complexIdEEE@Base 3.2.1
 _ZN8casacore15LatticeExprNodeC1EPNS_12LELInterfaceISt7complexIfEEE@Base 3.2.1
 _ZN8casacore15LatticeExprNodeC1EPNS_12LELInterfaceIbEE@Base 3.2.1
 _ZN8casacore15LatticeExprNodeC1EPNS_12LELInterfaceIdEE@Base 3.2.1
 _ZN8casacore15LatticeExprNodeC1EPNS_12LELInterfaceIfEE@Base 3.2.1
 _ZN8casacore15LatticeExprNodeC1ERKNS_10CountedPtrINS_12LELInterfaceISt7complexIdEEEEE@Base 3.2.1
 _ZN8casacore15LatticeExprNodeC1ERKNS_10CountedPtrINS_12LELInterfaceISt7complexIfEEEEE@Base 3.2.1
 _ZN8casacore15LatticeExprNodeC1ERKNS_10CountedPtrINS_12LELInterfaceIbEEEE@Base 3.2.1
 _ZN8casacore15LatticeExprNodeC1ERKNS_10CountedPtrINS_12LELInterfaceIdEEEE@Base 3.2.1
 _ZN8casacore15LatticeExprNodeC1ERKNS_10CountedPtrINS_12LELInterfaceIfEEEE@Base 3.2.1
 _ZN8casacore15LatticeExprNodeC1ERKNS_13MaskedLatticeISt7complexIdEEE@Base 3.2.1
 _ZN8casacore15LatticeExprNodeC1ERKNS_13MaskedLatticeISt7complexIfEEE@Base 3.2.1
 _ZN8casacore15LatticeExprNodeC1ERKNS_13MaskedLatticeIbEE@Base 3.2.1
 _ZN8casacore15LatticeExprNodeC1ERKNS_13MaskedLatticeIdEE@Base 3.2.1
 _ZN8casacore15LatticeExprNodeC1ERKNS_13MaskedLatticeIfEE@Base 3.2.1
 _ZN8casacore15LatticeExprNodeC1ERKNS_16LattRegionHolderE@Base 3.2.1
 _ZN8casacore15LatticeExprNodeC1ERKNS_6SlicerE@Base 3.2.1
 _ZN8casacore15LatticeExprNodeC1ERKNS_7LatticeISt7complexIdEEE@Base 3.2.1
 _ZN8casacore15LatticeExprNodeC1ERKNS_7LatticeISt7complexIfEEE@Base 3.2.1
 _ZN8casacore15LatticeExprNodeC1ERKNS_7LatticeIbEE@Base 3.2.1
 _ZN8casacore15LatticeExprNodeC1ERKNS_7LatticeIdEE@Base 3.2.1
 _ZN8casacore15LatticeExprNodeC1ERKNS_7LatticeIfEE@Base 3.2.1
 _ZN8casacore15LatticeExprNodeC1ERKNS_8LCRegionE@Base 3.2.1
 _ZN8casacore15LatticeExprNodeC1ERKNS_9IPositionE@Base 3.2.1
 _ZN8casacore15LatticeExprNodeC1ERKS0_@Base 3.2.1
 _ZN8casacore15LatticeExprNodeC1ERKSt7complexIdE@Base 3.2.1
 _ZN8casacore15LatticeExprNodeC1ERKSt7complexIfE@Base 3.2.1
 _ZN8casacore15LatticeExprNodeC1Eb@Base 3.2.1
 _ZN8casacore15LatticeExprNodeC1Ed@Base 3.2.1
 _ZN8casacore15LatticeExprNodeC1Ef@Base 3.2.1
 _ZN8casacore15LatticeExprNodeC1Ei@Base 3.2.1
 _ZN8casacore15LatticeExprNodeC1Ej@Base 3.2.1
 _ZN8casacore15LatticeExprNodeC1El@Base 3.2.1
 _ZN8casacore15LatticeExprNodeC1Ev@Base 3.2.1
 _ZN8casacore15LatticeExprNodeC1Ex@Base 3.2.1
 _ZN8casacore15LatticeExprNodeC2EPNS_12LELInterfaceISt7complexIdEEE@Base 3.2.1
 _ZN8casacore15LatticeExprNodeC2EPNS_12LELInterfaceISt7complexIfEEE@Base 3.2.1
 _ZN8casacore15LatticeExprNodeC2EPNS_12LELInterfaceIbEE@Base 3.2.1
 _ZN8casacore15LatticeExprNodeC2EPNS_12LELInterfaceIdEE@Base 3.2.1
 _ZN8casacore15LatticeExprNodeC2EPNS_12LELInterfaceIfEE@Base 3.2.1
 _ZN8casacore15LatticeExprNodeC2ERKNS_10CountedPtrINS_12LELInterfaceISt7complexIdEEEEE@Base 3.2.1
 _ZN8casacore15LatticeExprNodeC2ERKNS_10CountedPtrINS_12LELInterfaceISt7complexIfEEEEE@Base 3.2.1
 _ZN8casacore15LatticeExprNodeC2ERKNS_10CountedPtrINS_12LELInterfaceIbEEEE@Base 3.2.1
 _ZN8casacore15LatticeExprNodeC2ERKNS_10CountedPtrINS_12LELInterfaceIdEEEE@Base 3.2.1
 _ZN8casacore15LatticeExprNodeC2ERKNS_10CountedPtrINS_12LELInterfaceIfEEEE@Base 3.2.1
 _ZN8casacore15LatticeExprNodeC2ERKNS_13MaskedLatticeISt7complexIdEEE@Base 3.2.1
 _ZN8casacore15LatticeExprNodeC2ERKNS_13MaskedLatticeISt7complexIfEEE@Base 3.2.1
 _ZN8casacore15LatticeExprNodeC2ERKNS_13MaskedLatticeIbEE@Base 3.2.1
 _ZN8casacore15LatticeExprNodeC2ERKNS_13MaskedLatticeIdEE@Base 3.2.1
 _ZN8casacore15LatticeExprNodeC2ERKNS_13MaskedLatticeIfEE@Base 3.2.1
 _ZN8casacore15LatticeExprNodeC2ERKNS_16LattRegionHolderE@Base 3.2.1
 _ZN8casacore15LatticeExprNodeC2ERKNS_6SlicerE@Base 3.2.1
 _ZN8casacore15LatticeExprNodeC2ERKNS_7LatticeISt7complexIdEEE@Base 3.2.1
 _ZN8casacore15LatticeExprNodeC2ERKNS_7LatticeISt7complexIfEEE@Base 3.2.1
 _ZN8casacore15LatticeExprNodeC2ERKNS_7LatticeIbEE@Base 3.2.1
 _ZN8casacore15LatticeExprNodeC2ERKNS_7LatticeIdEE@Base 3.2.1
 _ZN8casacore15LatticeExprNodeC2ERKNS_7LatticeIfEE@Base 3.2.1
 _ZN8casacore15LatticeExprNodeC2ERKNS_8LCRegionE@Base 3.2.1
 _ZN8casacore15LatticeExprNodeC2ERKNS_9IPositionE@Base 3.2.1
 _ZN8casacore15LatticeExprNodeC2ERKS0_@Base 3.2.1
 _ZN8casacore15LatticeExprNodeC2ERKSt7complexIdE@Base 3.2.1
 _ZN8casacore15LatticeExprNodeC2ERKSt7complexIfE@Base 3.2.1
 _ZN8casacore15LatticeExprNodeC2Eb@Base 3.2.1
 _ZN8casacore15LatticeExprNodeC2Ed@Base 3.2.1
 _ZN8casacore15LatticeExprNodeC2Ef@Base 3.2.1
 _ZN8casacore15LatticeExprNodeC2Ei@Base 3.2.1
 _ZN8casacore15LatticeExprNodeC2Ej@Base 3.2.1
 _ZN8casacore15LatticeExprNodeC2El@Base 3.2.1
 _ZN8casacore15LatticeExprNodeC2Ev@Base 3.2.1
 _ZN8casacore15LatticeExprNodeC2Ex@Base 3.2.1
 _ZN8casacore15LatticeExprNodeD0Ev@Base 3.2.1
 _ZN8casacore15LatticeExprNodeD1Ev@Base 3.2.1
 _ZN8casacore15LatticeExprNodeD2Ev@Base 3.2.1
 _ZN8casacore15LatticeExprNodeaSERKS0_@Base 3.2.1
 _ZN8casacore15LatticeFractileIdE14maskedFractileERKNS_13MaskedLatticeIdEEfj@Base 3.2.1
 _ZN8casacore15LatticeFractileIdE15maskedFractilesERKNS_13MaskedLatticeIdEEffj@Base 3.2.1
 _ZN8casacore15LatticeFractileIdE15maskedHistogramERdS2_S2_S2_RNS_5BlockIjEERNS3_IdEERKNS_13MaskedLatticeIdEE@Base 3.2.1
 _ZN8casacore15LatticeFractileIdE16unmaskedFractileERKNS_7LatticeIdEEfj@Base 3.2.1
 _ZN8casacore15LatticeFractileIdE17unmaskedFractilesERKNS_7LatticeIdEEffj@Base 3.2.1
 _ZN8casacore15LatticeFractileIdE17unmaskedHistogramERdS2_S2_S2_RNS_5BlockIjEERNS3_IdEERKNS_7LatticeIdEE@Base 3.2.1
 _ZN8casacore15LatticeFractileIdE19smallMaskedFractileERKNS_13MaskedLatticeIdEEf@Base 3.2.1
 _ZN8casacore15LatticeFractileIdE20smallMaskedFractilesERKNS_13MaskedLatticeIdEEff@Base 3.2.1
 _ZN8casacore15LatticeFractileIdE7findBinERjRdS3_ddRKNS_5BlockIjEERKNS4_IdEE@Base 3.2.1
 _ZN8casacore15LatticeFractileIfE14maskedFractileERKNS_13MaskedLatticeIfEEfj@Base 3.2.1
 _ZN8casacore15LatticeFractileIfE15maskedFractilesERKNS_13MaskedLatticeIfEEffj@Base 3.2.1
 _ZN8casacore15LatticeFractileIfE15maskedHistogramERfS2_S2_S2_RNS_5BlockIjEERNS3_IfEERKNS_13MaskedLatticeIfEE@Base 3.2.1
 _ZN8casacore15LatticeFractileIfE16unmaskedFractileERKNS_7LatticeIfEEfj@Base 3.2.1
 _ZN8casacore15LatticeFractileIfE17unmaskedFractilesERKNS_7LatticeIfEEffj@Base 3.2.1
 _ZN8casacore15LatticeFractileIfE17unmaskedHistogramERfS2_S2_S2_RNS_5BlockIjEERNS3_IfEERKNS_7LatticeIfEE@Base 3.2.1
 _ZN8casacore15LatticeFractileIfE19smallMaskedFractileERKNS_13MaskedLatticeIfEEf@Base 3.2.1
 _ZN8casacore15LatticeFractileIfE20smallMaskedFractilesERKNS_13MaskedLatticeIfEEff@Base 3.2.1
 _ZN8casacore15LatticeFractileIfE7findBinERjRfS3_ffRKNS_5BlockIjEERKNS4_IfEE@Base 3.2.1
 _ZN8casacore15LatticeIteratorISt7complexIdEEC1ERNS_7LatticeIS2_EERKNS_16LatticeNavigatorEb@Base 3.2.1
 _ZN8casacore15LatticeIteratorISt7complexIdEEC1ERNS_7LatticeIS2_EEb@Base 3.2.1
 _ZN8casacore15LatticeIteratorISt7complexIdEEC2ERNS_7LatticeIS2_EERKNS_16LatticeNavigatorEb@Base 3.2.1
 _ZN8casacore15LatticeIteratorISt7complexIdEEC2ERNS_7LatticeIS2_EEb@Base 3.2.1
 _ZN8casacore15LatticeIteratorISt7complexIfEEC1ERNS_7LatticeIS2_EERKNS_16LatticeNavigatorEb@Base 3.2.1
 _ZN8casacore15LatticeIteratorISt7complexIfEEC1ERNS_7LatticeIS2_EEb@Base 3.2.1
 _ZN8casacore15LatticeIteratorISt7complexIfEEC2ERNS_7LatticeIS2_EERKNS_16LatticeNavigatorEb@Base 3.2.1
 _ZN8casacore15LatticeIteratorISt7complexIfEEC2ERNS_7LatticeIS2_EEb@Base 3.2.1
 _ZN8casacore15LatticeIteratorIbEC1ERNS_7LatticeIbEERKNS_16LatticeNavigatorEb@Base 3.2.1
 _ZN8casacore15LatticeIteratorIbEC1ERNS_7LatticeIbEEb@Base 3.2.1
 _ZN8casacore15LatticeIteratorIbEC2ERNS_7LatticeIbEERKNS_16LatticeNavigatorEb@Base 3.2.1
 _ZN8casacore15LatticeIteratorIbEC2ERNS_7LatticeIbEEb@Base 3.2.1
 _ZN8casacore15LatticeIteratorIdEC1ERNS_7LatticeIdEERKNS_16LatticeNavigatorEb@Base 3.2.1
 _ZN8casacore15LatticeIteratorIdEC1ERNS_7LatticeIdEEb@Base 3.2.1
 _ZN8casacore15LatticeIteratorIdEC2ERNS_7LatticeIdEERKNS_16LatticeNavigatorEb@Base 3.2.1
 _ZN8casacore15LatticeIteratorIdEC2ERNS_7LatticeIdEEb@Base 3.2.1
 _ZN8casacore15LatticeIteratorIfEC1ERNS_7LatticeIfEERKNS_16LatticeNavigatorEb@Base 3.2.1
 _ZN8casacore15LatticeIteratorIfEC1ERNS_7LatticeIfEEb@Base 3.2.1
 _ZN8casacore15LatticeIteratorIfEC2ERNS_7LatticeIfEERKNS_16LatticeNavigatorEb@Base 3.2.1
 _ZN8casacore15LatticeIteratorIfEC2ERNS_7LatticeIfEEb@Base 3.2.1
 _ZN8casacore15LatticeProgress10nstepsDoneEj@Base 3.2.1
 _ZN8casacore15LatticeProgress11initDerivedEv@Base 3.2.1
 _ZN8casacore15LatticeProgress4doneEv@Base 3.2.1
 _ZN8casacore15LatticeProgress4initEj@Base 3.2.1
 _ZN8casacore15LatticeProgressD0Ev@Base 3.2.1
 _ZN8casacore15LatticeProgressD1Ev@Base 3.2.1
 _ZN8casacore15LatticeProgressD2Ev@Base 3.2.1
 _ZN8casacore15NewDelAllocatorINS_6VectorIdEEE5valueE@Base 3.2.1
 _ZN8casacore15NewDelAllocatorINS_6VectorIdEEED0Ev@Base 3.2.1
 _ZN8casacore15NewDelAllocatorINS_6VectorIdEEED1Ev@Base 3.2.1
 _ZN8casacore15NewDelAllocatorINS_6VectorIdEEED2Ev@Base 3.2.1
 _ZN8casacore15NewDelAllocatorINS_8AutoDiffIdEEE5valueE@Base 3.2.1
 _ZN8casacore15NewDelAllocatorINS_8AutoDiffIdEEED0Ev@Base 3.2.1
 _ZN8casacore15NewDelAllocatorINS_8AutoDiffIdEEED1Ev@Base 3.2.1
 _ZN8casacore15NewDelAllocatorINS_8AutoDiffIdEEED2Ev@Base 3.2.1
 _ZN8casacore15NewDelAllocatorINS_8AutoDiffIfEEE5valueE@Base 3.2.1
 _ZN8casacore15NewDelAllocatorINS_8AutoDiffIfEEED0Ev@Base 3.2.1
 _ZN8casacore15NewDelAllocatorINS_8AutoDiffIfEEED1Ev@Base 3.2.1
 _ZN8casacore15NewDelAllocatorINS_8AutoDiffIfEEED2Ev@Base 3.2.1
 _ZN8casacore15NewDelAllocatorIPNS_6SlicerEE5valueE@Base 3.2.1
 _ZN8casacore15NewDelAllocatorIPNS_6SlicerEED0Ev@Base 3.2.1
 _ZN8casacore15NewDelAllocatorIPNS_6SlicerEED1Ev@Base 3.2.1
 _ZN8casacore15NewDelAllocatorIPNS_6SlicerEED2Ev@Base 3.2.1
 _ZN8casacore15TempLatticeImplIbE4initERKNS_10TiledShapeEd@Base 3.2.1
 _ZN8casacore15TempLatticeImplIbED1Ev@Base 3.2.1
 _ZN8casacore15TempLatticeImplIbED2Ev@Base 3.2.1
 _ZN8casacore15TempLatticeImplIdE4initERKNS_10TiledShapeEd@Base 3.2.1
 _ZN8casacore15TempLatticeImplIdED1Ev@Base 3.2.1
 _ZN8casacore15TempLatticeImplIdED2Ev@Base 3.2.1
 _ZN8casacore15arrayCompareAllIbSt8equal_toIbEEEbRKNS_5ArrayIT_EES4_T0_@Base 3.2.1
 _ZN8casacore15arrayCompareAllIfSt8equal_toIfEEEbRKNS_5ArrayIT_EES7_T0_@Base 3.2.1
 _ZN8casacore15arrayCompareAllIiSt8equal_toIiEEEbRKNS_5ArrayIT_EES7_T0_@Base 3.2.1
 _ZN8casacore15arrayCompareAnyIbSt12not_equal_toIbEEEbRKNS_5ArrayIT_EES7_T0_@Base 3.2.1
 _ZN8casacore15arrayCompareAnyIbSt8equal_toIbEEEbRKNS_5ArrayIT_EES4_T0_@Base 3.2.1
 _ZN8casacore16CompoundFunctionINS_8AutoDiffIdEEE9toParam_pEv@Base 3.2.1
 _ZN8casacore16CompoundFunctionINS_8AutoDiffIdEEED0Ev@Base 3.2.1
 _ZN8casacore16CompoundFunctionINS_8AutoDiffIdEEED1Ev@Base 3.2.1
 _ZN8casacore16CompoundFunctionINS_8AutoDiffIdEEED2Ev@Base 3.2.1
 _ZN8casacore16CompoundFunctionIdED0Ev@Base 3.2.1
 _ZN8casacore16CompoundFunctionIdED1Ev@Base 3.2.1
 _ZN8casacore16CompoundFunctionIdED2Ev@Base 3.2.1
 _ZN8casacore16DefaultAllocatorINS_6VectorIdEEE5valueE@Base 3.2.1
 _ZN8casacore16DefaultAllocatorINS_6VectorIdEEED0Ev@Base 3.2.1
 _ZN8casacore16DefaultAllocatorINS_6VectorIdEEED1Ev@Base 3.2.1
 _ZN8casacore16DefaultAllocatorINS_6VectorIdEEED2Ev@Base 3.2.1
 _ZN8casacore16DefaultAllocatorINS_8AutoDiffIdEEE5valueE@Base 3.2.1
 _ZN8casacore16DefaultAllocatorINS_8AutoDiffIdEEED0Ev@Base 3.2.1
 _ZN8casacore16DefaultAllocatorINS_8AutoDiffIdEEED1Ev@Base 3.2.1
 _ZN8casacore16DefaultAllocatorINS_8AutoDiffIdEEED2Ev@Base 3.2.1
 _ZN8casacore16DefaultAllocatorINS_8AutoDiffIfEEE5valueE@Base 3.2.1
 _ZN8casacore16DefaultAllocatorINS_8AutoDiffIfEEED0Ev@Base 3.2.1
 _ZN8casacore16DefaultAllocatorINS_8AutoDiffIfEEED1Ev@Base 3.2.1
 _ZN8casacore16DefaultAllocatorINS_8AutoDiffIfEEED2Ev@Base 3.2.1
 _ZN8casacore16DefaultAllocatorIPNS_6SlicerEE5valueE@Base 3.2.1
 _ZN8casacore16DefaultAllocatorIPNS_6SlicerEED0Ev@Base 3.2.1
 _ZN8casacore16DefaultAllocatorIPNS_6SlicerEED1Ev@Base 3.2.1
 _ZN8casacore16DefaultAllocatorIPNS_6SlicerEED2Ev@Base 3.2.1
 _ZN8casacore16LELFunctionFloat17prepareScalarExprEv@Base 3.2.1
 _ZN8casacore16LELFunctionFloat4lockENS_10FileLocker8LockTypeEj@Base 3.2.1
 _ZN8casacore16LELFunctionFloat6resyncEv@Base 3.2.1
 _ZN8casacore16LELFunctionFloat6unlockEv@Base 3.2.1
 _ZN8casacore16LELFunctionFloatC1ENS_16LELFunctionEnums8FunctionERKNS_5BlockINS_15LatticeExprNodeEEE@Base 3.2.1
 _ZN8casacore16LELFunctionFloatC2ENS_16LELFunctionEnums8FunctionERKNS_5BlockINS_15LatticeExprNodeEEE@Base 3.2.1
 _ZN8casacore16LELFunctionFloatD0Ev@Base 3.2.1
 _ZN8casacore16LELFunctionFloatD1Ev@Base 3.2.1
 _ZN8casacore16LELFunctionFloatD2Ev@Base 3.2.1
 _ZN8casacore16LELLattCoordBaseD0Ev@Base 3.2.1
 _ZN8casacore16LELLattCoordBaseD1Ev@Base 3.2.1
 _ZN8casacore16LELLattCoordBaseD2Ev@Base 3.2.1
 _ZN8casacore16LELSpectralIndexIdE17prepareScalarExprEv@Base 3.2.1
 _ZN8casacore16LELSpectralIndexIdE4lockENS_10FileLocker8LockTypeEj@Base 3.2.1
 _ZN8casacore16LELSpectralIndexIdE6resyncEv@Base 3.2.1
 _ZN8casacore16LELSpectralIndexIdE6unlockEv@Base 3.2.1
 _ZN8casacore16LELSpectralIndexIdEC1ERKNS_5BlockINS_15LatticeExprNodeEEE@Base 3.2.1
 _ZN8casacore16LELSpectralIndexIdEC2ERKNS_5BlockINS_15LatticeExprNodeEEE@Base 3.2.1
 _ZN8casacore16LELSpectralIndexIdED0Ev@Base 3.2.1
 _ZN8casacore16LELSpectralIndexIdED1Ev@Base 3.2.1
 _ZN8casacore16LELSpectralIndexIdED2Ev@Base 3.2.1
 _ZN8casacore16LELSpectralIndexIfE17prepareScalarExprEv@Base 3.2.1
 _ZN8casacore16LELSpectralIndexIfE4lockENS_10FileLocker8LockTypeEj@Base 3.2.1
 _ZN8casacore16LELSpectralIndexIfE6resyncEv@Base 3.2.1
 _ZN8casacore16LELSpectralIndexIfE6unlockEv@Base 3.2.1
 _ZN8casacore16LELSpectralIndexIfEC1ERKNS_5BlockINS_15LatticeExprNodeEEE@Base 3.2.1
 _ZN8casacore16LELSpectralIndexIfEC2ERKNS_5BlockINS_15LatticeExprNodeEEE@Base 3.2.1
 _ZN8casacore16LELSpectralIndexIfED0Ev@Base 3.2.1
 _ZN8casacore16LELSpectralIndexIfED1Ev@Base 3.2.1
 _ZN8casacore16LELSpectralIndexIfED2Ev@Base 3.2.1
 _ZN8casacore16LattRegionHolderC1EPNS_8LCRegionE@Base 3.2.1
 _ZN8casacore16LattRegionHolderC1EPNS_8LCSlicerE@Base 3.2.1
 _ZN8casacore16LattRegionHolderC1ERKNS_8LCRegionE@Base 3.2.1
 _ZN8casacore16LattRegionHolderC1ERKNS_8LCSlicerE@Base 3.2.1
 _ZN8casacore16LattRegionHolderC1ERKS0_@Base 3.2.1
 _ZN8casacore16LattRegionHolderC1Ej@Base 3.2.1
 _ZN8casacore16LattRegionHolderC2EPNS_8LCRegionE@Base 3.2.1
 _ZN8casacore16LattRegionHolderC2EPNS_8LCSlicerE@Base 3.2.1
 _ZN8casacore16LattRegionHolderC2ERKNS_8LCRegionE@Base 3.2.1
 _ZN8casacore16LattRegionHolderC2ERKNS_8LCSlicerE@Base 3.2.1
 _ZN8casacore16LattRegionHolderC2ERKS0_@Base 3.2.1
 _ZN8casacore16LattRegionHolderC2Ej@Base 3.2.1
 _ZN8casacore16LattRegionHolderD0Ev@Base 3.2.1
 _ZN8casacore16LattRegionHolderD1Ev@Base 3.2.1
 _ZN8casacore16LattRegionHolderD2Ev@Base 3.2.1
 _ZN8casacore16LattRegionHolderaSERKS0_@Base 3.2.1
 _ZN8casacore16LatticeNavigator10subSectionERKNS_9IPositionES3_@Base 3.2.1
 _ZN8casacore16LatticeNavigator10subSectionERKNS_9IPositionES3_S3_@Base 3.2.1
 _ZN8casacore16LatticeNavigatorD0Ev@Base 3.2.1
 _ZN8casacore16LatticeNavigatorD1Ev@Base 3.2.1
 _ZN8casacore16LatticeNavigatorD2Ev@Base 3.2.1
 _ZN8casacore16LatticeStatsBase13quartileFracsEv@Base 3.2.1
 _ZN8casacore16LatticeStatsBase13stretchMinMaxERfS1_@Base 3.2.1
 _ZN8casacore16LatticeStatsBase15toStatisticNameENS0_15StatisticsTypesE@Base 3.2.1
 _ZN8casacore16LatticeStatsBase15toStatisticNameEi@Base 3.2.1
 _ZN8casacore16LatticeStatsBase15toStatisticTypeERKNS_6StringE@Base 3.2.1
 _ZN8casacore16LatticeStatsBase16toStatisticTypesERKNS_6StringERKNS_5RegexE@Base 3.2.1
 _ZN8casacore16LatticeStatsBase16toStatisticTypesERKNS_6VectorINS_6StringEEE@Base 3.2.1
 _ZN8casacore16LatticeStatsBase20setStorageImageShapeERNS_9IPositionERKbRKiRKNS_6VectorIiEERKS1_@Base 3.2.1
 _ZN8casacore16LatticeStatsBase6setNxyERNS_6VectorIiEERSo@Base 3.2.1
 _ZN8casacore16TiledLineStepper10subSectionERKNS_9IPositionES3_@Base 3.2.1
 _ZN8casacore16TiledLineStepper10subSectionERKNS_9IPositionES3_S3_@Base 3.2.1
 _ZN8casacore16TiledLineStepper5resetEv@Base 3.2.1
 _ZN8casacore16TiledLineStepperC1ERKNS_9IPositionES3_j@Base 3.2.1
 _ZN8casacore16TiledLineStepperC1ERKS0_@Base 3.2.1
 _ZN8casacore16TiledLineStepperC2ERKNS_9IPositionES3_j@Base 3.2.1
 _ZN8casacore16TiledLineStepperC2ERKS0_@Base 3.2.1
 _ZN8casacore16TiledLineStepperD0Ev@Base 3.2.1
 _ZN8casacore16TiledLineStepperD1Ev@Base 3.2.1
 _ZN8casacore16TiledLineStepperD2Ev@Base 3.2.1
 _ZN8casacore16TiledLineStepperaSERKS0_@Base 3.2.1
 _ZN8casacore16TiledLineSteppermmEi@Base 3.2.1
 _ZN8casacore16TiledLineStepperppEi@Base 3.2.1
 _ZN8casacore16checkArrayShapesERKNS_9ArrayBaseES2_PKc@Base 3.2.1
 _ZN8casacore17Allocator_private17BulkAllocatorImplINS_17new_del_allocatorINS_6VectorIdEEEEE10deallocateEPS4_m@Base 3.2.1
 _ZN8casacore17Allocator_private17BulkAllocatorImplINS_17new_del_allocatorINS_6VectorIdEEEEE7destroyEPS4_m@Base 3.2.1
 _ZN8casacore17Allocator_private17BulkAllocatorImplINS_17new_del_allocatorINS_6VectorIdEEEEE8allocateEmPKv@Base 3.2.1
 _ZN8casacore17Allocator_private17BulkAllocatorImplINS_17new_del_allocatorINS_6VectorIdEEEEE9allocatorE@Base 3.2.1
 _ZN8casacore17Allocator_private17BulkAllocatorImplINS_17new_del_allocatorINS_6VectorIdEEEEE9constructEPS4_m@Base 3.2.1
 _ZN8casacore17Allocator_private17BulkAllocatorImplINS_17new_del_allocatorINS_6VectorIdEEEEE9constructEPS4_mPKS4_@Base 3.2.1
 _ZN8casacore17Allocator_private17BulkAllocatorImplINS_17new_del_allocatorINS_6VectorIdEEEEE9constructEPS4_mRKS4_@Base 3.2.1
 _ZN8casacore17Allocator_private17BulkAllocatorImplINS_17new_del_allocatorINS_6VectorIdEEEEED0Ev@Base 3.2.1
 _ZN8casacore17Allocator_private17BulkAllocatorImplINS_17new_del_allocatorINS_6VectorIdEEEEED1Ev@Base 3.2.1
 _ZN8casacore17Allocator_private17BulkAllocatorImplINS_17new_del_allocatorINS_6VectorIdEEEEED2Ev@Base 3.2.1
 _ZN8casacore17Allocator_private17BulkAllocatorImplINS_17new_del_allocatorINS_8AutoDiffIdEEEEE10deallocateEPS4_m@Base 3.2.1
 _ZN8casacore17Allocator_private17BulkAllocatorImplINS_17new_del_allocatorINS_8AutoDiffIdEEEEE7destroyEPS4_m@Base 3.2.1
 _ZN8casacore17Allocator_private17BulkAllocatorImplINS_17new_del_allocatorINS_8AutoDiffIdEEEEE8allocateEmPKv@Base 3.2.1
 _ZN8casacore17Allocator_private17BulkAllocatorImplINS_17new_del_allocatorINS_8AutoDiffIdEEEEE9allocatorE@Base 3.2.1
 _ZN8casacore17Allocator_private17BulkAllocatorImplINS_17new_del_allocatorINS_8AutoDiffIdEEEEE9constructEPS4_m@Base 3.2.1
 _ZN8casacore17Allocator_private17BulkAllocatorImplINS_17new_del_allocatorINS_8AutoDiffIdEEEEE9constructEPS4_mPKS4_@Base 3.2.1
 _ZN8casacore17Allocator_private17BulkAllocatorImplINS_17new_del_allocatorINS_8AutoDiffIdEEEEE9constructEPS4_mRKS4_@Base 3.2.1
 _ZN8casacore17Allocator_private17BulkAllocatorImplINS_17new_del_allocatorINS_8AutoDiffIdEEEEED0Ev@Base 3.2.1
 _ZN8casacore17Allocator_private17BulkAllocatorImplINS_17new_del_allocatorINS_8AutoDiffIdEEEEED1Ev@Base 3.2.1
 _ZN8casacore17Allocator_private17BulkAllocatorImplINS_17new_del_allocatorINS_8AutoDiffIdEEEEED2Ev@Base 3.2.1
 _ZN8casacore17Allocator_private17BulkAllocatorImplINS_17new_del_allocatorINS_8AutoDiffIfEEEEE10deallocateEPS4_m@Base 3.2.1
 _ZN8casacore17Allocator_private17BulkAllocatorImplINS_17new_del_allocatorINS_8AutoDiffIfEEEEE7destroyEPS4_m@Base 3.2.1
 _ZN8casacore17Allocator_private17BulkAllocatorImplINS_17new_del_allocatorINS_8AutoDiffIfEEEEE8allocateEmPKv@Base 3.2.1
 _ZN8casacore17Allocator_private17BulkAllocatorImplINS_17new_del_allocatorINS_8AutoDiffIfEEEEE9allocatorE@Base 3.2.1
 _ZN8casacore17Allocator_private17BulkAllocatorImplINS_17new_del_allocatorINS_8AutoDiffIfEEEEE9constructEPS4_m@Base 3.2.1
 _ZN8casacore17Allocator_private17BulkAllocatorImplINS_17new_del_allocatorINS_8AutoDiffIfEEEEE9constructEPS4_mPKS4_@Base 3.2.1
 _ZN8casacore17Allocator_private17BulkAllocatorImplINS_17new_del_allocatorINS_8AutoDiffIfEEEEE9constructEPS4_mRKS4_@Base 3.2.1
 _ZN8casacore17Allocator_private17BulkAllocatorImplINS_17new_del_allocatorINS_8AutoDiffIfEEEEED0Ev@Base 3.2.1
 _ZN8casacore17Allocator_private17BulkAllocatorImplINS_17new_del_allocatorINS_8AutoDiffIfEEEEED1Ev@Base 3.2.1
 _ZN8casacore17Allocator_private17BulkAllocatorImplINS_17new_del_allocatorINS_8AutoDiffIfEEEEED2Ev@Base 3.2.1
 _ZN8casacore17Allocator_private17BulkAllocatorImplINS_17new_del_allocatorIPNS_6SlicerEEEE10deallocateEPS4_m@Base 3.2.1
 _ZN8casacore17Allocator_private17BulkAllocatorImplINS_17new_del_allocatorIPNS_6SlicerEEEE7destroyEPS4_m@Base 3.2.1
 _ZN8casacore17Allocator_private17BulkAllocatorImplINS_17new_del_allocatorIPNS_6SlicerEEEE8allocateEmPKv@Base 3.2.1
 _ZN8casacore17Allocator_private17BulkAllocatorImplINS_17new_del_allocatorIPNS_6SlicerEEEE9allocatorE@Base 3.2.1
 _ZN8casacore17Allocator_private17BulkAllocatorImplINS_17new_del_allocatorIPNS_6SlicerEEEE9constructEPS4_m@Base 3.2.1
 _ZN8casacore17Allocator_private17BulkAllocatorImplINS_17new_del_allocatorIPNS_6SlicerEEEE9constructEPS4_mPKS4_@Base 3.2.1
 _ZN8casacore17Allocator_private17BulkAllocatorImplINS_17new_del_allocatorIPNS_6SlicerEEEE9constructEPS4_mRKS4_@Base 3.2.1
 _ZN8casacore17Allocator_private17BulkAllocatorImplINS_17new_del_allocatorIPNS_6SlicerEEEED0Ev@Base 3.2.1
 _ZN8casacore17Allocator_private17BulkAllocatorImplINS_17new_del_allocatorIPNS_6SlicerEEEED1Ev@Base 3.2.1
 _ZN8casacore17Allocator_private17BulkAllocatorImplINS_17new_del_allocatorIPNS_6SlicerEEEED2Ev@Base 3.2.1
 _ZN8casacore17Allocator_private17BulkAllocatorImplINS_18casacore_allocatorINS_15LatticeExprNodeELm32EEEE10deallocateEPS3_m@Base 3.2.1
 _ZN8casacore17Allocator_private17BulkAllocatorImplINS_18casacore_allocatorINS_15LatticeExprNodeELm32EEEE7destroyEPS3_m@Base 3.2.1
 _ZN8casacore17Allocator_private17BulkAllocatorImplINS_18casacore_allocatorINS_15LatticeExprNodeELm32EEEE8allocateEmPKv@Base 3.2.1
 _ZN8casacore17Allocator_private17BulkAllocatorImplINS_18casacore_allocatorINS_15LatticeExprNodeELm32EEEE9allocatorE@Base 3.2.1
 _ZN8casacore17Allocator_private17BulkAllocatorImplINS_18casacore_allocatorINS_15LatticeExprNodeELm32EEEE9constructEPS3_m@Base 3.2.1
 _ZN8casacore17Allocator_private17BulkAllocatorImplINS_18casacore_allocatorINS_15LatticeExprNodeELm32EEEE9constructEPS3_mPKS3_@Base 3.2.1
 _ZN8casacore17Allocator_private17BulkAllocatorImplINS_18casacore_allocatorINS_15LatticeExprNodeELm32EEEE9constructEPS3_mRKS3_@Base 3.2.1
 _ZN8casacore17Allocator_private17BulkAllocatorImplINS_18casacore_allocatorINS_15LatticeExprNodeELm32EEEED0Ev@Base 3.2.1
 _ZN8casacore17Allocator_private17BulkAllocatorImplINS_18casacore_allocatorINS_15LatticeExprNodeELm32EEEED1Ev@Base 3.2.1
 _ZN8casacore17Allocator_private17BulkAllocatorImplINS_18casacore_allocatorINS_15LatticeExprNodeELm32EEEED2Ev@Base 3.2.1
 _ZN8casacore17Allocator_private17BulkAllocatorImplINS_18casacore_allocatorINS_6StringELm32EEEE9allocatorE@Base 3.2.1
 _ZN8casacore17Allocator_private17BulkAllocatorImplINS_18casacore_allocatorINS_6VectorIdEELm32EEEE10deallocateEPS4_m@Base 3.2.1
 _ZN8casacore17Allocator_private17BulkAllocatorImplINS_18casacore_allocatorINS_6VectorIdEELm32EEEE7destroyEPS4_m@Base 3.2.1
 _ZN8casacore17Allocator_private17BulkAllocatorImplINS_18casacore_allocatorINS_6VectorIdEELm32EEEE8allocateEmPKv@Base 3.2.1
 _ZN8casacore17Allocator_private17BulkAllocatorImplINS_18casacore_allocatorINS_6VectorIdEELm32EEEE9allocatorE@Base 3.2.1
 _ZN8casacore17Allocator_private17BulkAllocatorImplINS_18casacore_allocatorINS_6VectorIdEELm32EEEE9constructEPS4_m@Base 3.2.1
 _ZN8casacore17Allocator_private17BulkAllocatorImplINS_18casacore_allocatorINS_6VectorIdEELm32EEEE9constructEPS4_mPKS4_@Base 3.2.1
 _ZN8casacore17Allocator_private17BulkAllocatorImplINS_18casacore_allocatorINS_6VectorIdEELm32EEEE9constructEPS4_mRKS4_@Base 3.2.1
 _ZN8casacore17Allocator_private17BulkAllocatorImplINS_18casacore_allocatorINS_6VectorIdEELm32EEEED0Ev@Base 3.2.1
 _ZN8casacore17Allocator_private17BulkAllocatorImplINS_18casacore_allocatorINS_6VectorIdEELm32EEEED1Ev@Base 3.2.1
 _ZN8casacore17Allocator_private17BulkAllocatorImplINS_18casacore_allocatorINS_6VectorIdEELm32EEEED2Ev@Base 3.2.1
 _ZN8casacore17Allocator_private17BulkAllocatorImplINS_18casacore_allocatorINS_8AutoDiffIdEELm32EEEE10deallocateEPS4_m@Base 3.2.1
 _ZN8casacore17Allocator_private17BulkAllocatorImplINS_18casacore_allocatorINS_8AutoDiffIdEELm32EEEE7destroyEPS4_m@Base 3.2.1
 _ZN8casacore17Allocator_private17BulkAllocatorImplINS_18casacore_allocatorINS_8AutoDiffIdEELm32EEEE8allocateEmPKv@Base 3.2.1
 _ZN8casacore17Allocator_private17BulkAllocatorImplINS_18casacore_allocatorINS_8AutoDiffIdEELm32EEEE9allocatorE@Base 3.2.1
 _ZN8casacore17Allocator_private17BulkAllocatorImplINS_18casacore_allocatorINS_8AutoDiffIdEELm32EEEE9constructEPS4_m@Base 3.2.1
 _ZN8casacore17Allocator_private17BulkAllocatorImplINS_18casacore_allocatorINS_8AutoDiffIdEELm32EEEE9constructEPS4_mPKS4_@Base 3.2.1
 _ZN8casacore17Allocator_private17BulkAllocatorImplINS_18casacore_allocatorINS_8AutoDiffIdEELm32EEEE9constructEPS4_mRKS4_@Base 3.2.1
 _ZN8casacore17Allocator_private17BulkAllocatorImplINS_18casacore_allocatorINS_8AutoDiffIdEELm32EEEED0Ev@Base 3.2.1
 _ZN8casacore17Allocator_private17BulkAllocatorImplINS_18casacore_allocatorINS_8AutoDiffIdEELm32EEEED1Ev@Base 3.2.1
 _ZN8casacore17Allocator_private17BulkAllocatorImplINS_18casacore_allocatorINS_8AutoDiffIdEELm32EEEED2Ev@Base 3.2.1
 _ZN8casacore17Allocator_private17BulkAllocatorImplINS_18casacore_allocatorINS_8AutoDiffIfEELm32EEEE10deallocateEPS4_m@Base 3.2.1
 _ZN8casacore17Allocator_private17BulkAllocatorImplINS_18casacore_allocatorINS_8AutoDiffIfEELm32EEEE7destroyEPS4_m@Base 3.2.1
 _ZN8casacore17Allocator_private17BulkAllocatorImplINS_18casacore_allocatorINS_8AutoDiffIfEELm32EEEE8allocateEmPKv@Base 3.2.1
 _ZN8casacore17Allocator_private17BulkAllocatorImplINS_18casacore_allocatorINS_8AutoDiffIfEELm32EEEE9allocatorE@Base 3.2.1
 _ZN8casacore17Allocator_private17BulkAllocatorImplINS_18casacore_allocatorINS_8AutoDiffIfEELm32EEEE9constructEPS4_m@Base 3.2.1
 _ZN8casacore17Allocator_private17BulkAllocatorImplINS_18casacore_allocatorINS_8AutoDiffIfEELm32EEEE9constructEPS4_mPKS4_@Base 3.2.1
 _ZN8casacore17Allocator_private17BulkAllocatorImplINS_18casacore_allocatorINS_8AutoDiffIfEELm32EEEE9constructEPS4_mRKS4_@Base 3.2.1
 _ZN8casacore17Allocator_private17BulkAllocatorImplINS_18casacore_allocatorINS_8AutoDiffIfEELm32EEEED0Ev@Base 3.2.1
 _ZN8casacore17Allocator_private17BulkAllocatorImplINS_18casacore_allocatorINS_8AutoDiffIfEELm32EEEED1Ev@Base 3.2.1
 _ZN8casacore17Allocator_private17BulkAllocatorImplINS_18casacore_allocatorINS_8AutoDiffIfEELm32EEEED2Ev@Base 3.2.1
 _ZN8casacore17Allocator_private17BulkAllocatorImplINS_18casacore_allocatorINS_9IPositionELm32EEEE10deallocateEPS3_m@Base 3.2.1
 _ZN8casacore17Allocator_private17BulkAllocatorImplINS_18casacore_allocatorINS_9IPositionELm32EEEE7destroyEPS3_m@Base 3.2.1
 _ZN8casacore17Allocator_private17BulkAllocatorImplINS_18casacore_allocatorINS_9IPositionELm32EEEE8allocateEmPKv@Base 3.2.1
 _ZN8casacore17Allocator_private17BulkAllocatorImplINS_18casacore_allocatorINS_9IPositionELm32EEEE9allocatorE@Base 3.2.1
 _ZN8casacore17Allocator_private17BulkAllocatorImplINS_18casacore_allocatorINS_9IPositionELm32EEEE9constructEPS3_m@Base 3.2.1
 _ZN8casacore17Allocator_private17BulkAllocatorImplINS_18casacore_allocatorINS_9IPositionELm32EEEE9constructEPS3_mPKS3_@Base 3.2.1
 _ZN8casacore17Allocator_private17BulkAllocatorImplINS_18casacore_allocatorINS_9IPositionELm32EEEE9constructEPS3_mRKS3_@Base 3.2.1
 _ZN8casacore17Allocator_private17BulkAllocatorImplINS_18casacore_allocatorINS_9IPositionELm32EEEED0Ev@Base 3.2.1
 _ZN8casacore17Allocator_private17BulkAllocatorImplINS_18casacore_allocatorINS_9IPositionELm32EEEED1Ev@Base 3.2.1
 _ZN8casacore17Allocator_private17BulkAllocatorImplINS_18casacore_allocatorINS_9IPositionELm32EEEED2Ev@Base 3.2.1
 _ZN8casacore17Allocator_private17BulkAllocatorImplINS_18casacore_allocatorIPNS_6SlicerELm32EEEE10deallocateEPS4_m@Base 3.2.1
 _ZN8casacore17Allocator_private17BulkAllocatorImplINS_18casacore_allocatorIPNS_6SlicerELm32EEEE7destroyEPS4_m@Base 3.2.1
 _ZN8casacore17Allocator_private17BulkAllocatorImplINS_18casacore_allocatorIPNS_6SlicerELm32EEEE8allocateEmPKv@Base 3.2.1
 _ZN8casacore17Allocator_private17BulkAllocatorImplINS_18casacore_allocatorIPNS_6SlicerELm32EEEE9allocatorE@Base 3.2.1
 _ZN8casacore17Allocator_private17BulkAllocatorImplINS_18casacore_allocatorIPNS_6SlicerELm32EEEE9constructEPS4_m@Base 3.2.1
 _ZN8casacore17Allocator_private17BulkAllocatorImplINS_18casacore_allocatorIPNS_6SlicerELm32EEEE9constructEPS4_mPKS4_@Base 3.2.1
 _ZN8casacore17Allocator_private17BulkAllocatorImplINS_18casacore_allocatorIPNS_6SlicerELm32EEEE9constructEPS4_mRKS4_@Base 3.2.1
 _ZN8casacore17Allocator_private17BulkAllocatorImplINS_18casacore_allocatorIPNS_6SlicerELm32EEEED0Ev@Base 3.2.1
 _ZN8casacore17Allocator_private17BulkAllocatorImplINS_18casacore_allocatorIPNS_6SlicerELm32EEEED1Ev@Base 3.2.1
 _ZN8casacore17Allocator_private17BulkAllocatorImplINS_18casacore_allocatorIPNS_6SlicerELm32EEEED2Ev@Base 3.2.1
 _ZN8casacore17Allocator_private17BulkAllocatorImplINS_18casacore_allocatorIPvLm32EEEE10deallocateEPS3_m@Base 3.2.1
 _ZN8casacore17Allocator_private17BulkAllocatorImplINS_18casacore_allocatorIPvLm32EEEE7destroyEPS3_m@Base 3.2.1
 _ZN8casacore17Allocator_private17BulkAllocatorImplINS_18casacore_allocatorIPvLm32EEEE8allocateEmPKv@Base 3.2.1
 _ZN8casacore17Allocator_private17BulkAllocatorImplINS_18casacore_allocatorIPvLm32EEEE9allocatorE@Base 3.2.1
 _ZN8casacore17Allocator_private17BulkAllocatorImplINS_18casacore_allocatorIPvLm32EEEE9constructEPS3_m@Base 3.2.1
 _ZN8casacore17Allocator_private17BulkAllocatorImplINS_18casacore_allocatorIPvLm32EEEE9constructEPS3_mPKS3_@Base 3.2.1
 _ZN8casacore17Allocator_private17BulkAllocatorImplINS_18casacore_allocatorIPvLm32EEEE9constructEPS3_mRKS3_@Base 3.2.1
 _ZN8casacore17Allocator_private17BulkAllocatorImplINS_18casacore_allocatorIPvLm32EEEED0Ev@Base 3.2.1
 _ZN8casacore17Allocator_private17BulkAllocatorImplINS_18casacore_allocatorIPvLm32EEEED1Ev@Base 3.2.1
 _ZN8casacore17Allocator_private17BulkAllocatorImplINS_18casacore_allocatorIPvLm32EEEED2Ev@Base 3.2.1
 _ZN8casacore17Allocator_private17BulkAllocatorImplINS_18casacore_allocatorISt7complexIdELm32EEEE10deallocateEPS4_m@Base 3.2.1
 _ZN8casacore17Allocator_private17BulkAllocatorImplINS_18casacore_allocatorISt7complexIdELm32EEEE7destroyEPS4_m@Base 3.2.1
 _ZN8casacore17Allocator_private17BulkAllocatorImplINS_18casacore_allocatorISt7complexIdELm32EEEE8allocateEmPKv@Base 3.2.1
 _ZN8casacore17Allocator_private17BulkAllocatorImplINS_18casacore_allocatorISt7complexIdELm32EEEE9allocatorE@Base 3.2.1
 _ZN8casacore17Allocator_private17BulkAllocatorImplINS_18casacore_allocatorISt7complexIdELm32EEEE9constructEPS4_m@Base 3.2.1
 _ZN8casacore17Allocator_private17BulkAllocatorImplINS_18casacore_allocatorISt7complexIdELm32EEEE9constructEPS4_mPKS4_@Base 3.2.1
 _ZN8casacore17Allocator_private17BulkAllocatorImplINS_18casacore_allocatorISt7complexIdELm32EEEE9constructEPS4_mRKS4_@Base 3.2.1
 _ZN8casacore17Allocator_private17BulkAllocatorImplINS_18casacore_allocatorISt7complexIdELm32EEEED0Ev@Base 3.2.1
 _ZN8casacore17Allocator_private17BulkAllocatorImplINS_18casacore_allocatorISt7complexIdELm32EEEED1Ev@Base 3.2.1
 _ZN8casacore17Allocator_private17BulkAllocatorImplINS_18casacore_allocatorISt7complexIdELm32EEEED2Ev@Base 3.2.1
 _ZN8casacore17Allocator_private17BulkAllocatorImplINS_18casacore_allocatorIbLm32EEEE10deallocateEPbm@Base 3.2.1
 _ZN8casacore17Allocator_private17BulkAllocatorImplINS_18casacore_allocatorIbLm32EEEE7destroyEPbm@Base 3.2.1
 _ZN8casacore17Allocator_private17BulkAllocatorImplINS_18casacore_allocatorIbLm32EEEE8allocateEmPKv@Base 3.2.1
 _ZN8casacore17Allocator_private17BulkAllocatorImplINS_18casacore_allocatorIbLm32EEEE9allocatorE@Base 3.2.1
 _ZN8casacore17Allocator_private17BulkAllocatorImplINS_18casacore_allocatorIbLm32EEEE9constructEPbm@Base 3.2.1
 _ZN8casacore17Allocator_private17BulkAllocatorImplINS_18casacore_allocatorIbLm32EEEE9constructEPbmPKb@Base 3.2.1
 _ZN8casacore17Allocator_private17BulkAllocatorImplINS_18casacore_allocatorIbLm32EEEE9constructEPbmRKb@Base 3.2.1
 _ZN8casacore17Allocator_private17BulkAllocatorImplINS_18casacore_allocatorIbLm32EEEED0Ev@Base 3.2.1
 _ZN8casacore17Allocator_private17BulkAllocatorImplINS_18casacore_allocatorIbLm32EEEED1Ev@Base 3.2.1
 _ZN8casacore17Allocator_private17BulkAllocatorImplINS_18casacore_allocatorIbLm32EEEED2Ev@Base 3.2.1
 _ZN8casacore17Allocator_private17BulkAllocatorImplINS_18casacore_allocatorIdLm32EEEE10deallocateEPdm@Base 3.2.1
 _ZN8casacore17Allocator_private17BulkAllocatorImplINS_18casacore_allocatorIdLm32EEEE7destroyEPdm@Base 3.2.1
 _ZN8casacore17Allocator_private17BulkAllocatorImplINS_18casacore_allocatorIdLm32EEEE8allocateEmPKv@Base 3.2.1
 _ZN8casacore17Allocator_private17BulkAllocatorImplINS_18casacore_allocatorIdLm32EEEE9allocatorE@Base 3.2.1
 _ZN8casacore17Allocator_private17BulkAllocatorImplINS_18casacore_allocatorIdLm32EEEE9constructEPdm@Base 3.2.1
 _ZN8casacore17Allocator_private17BulkAllocatorImplINS_18casacore_allocatorIdLm32EEEE9constructEPdmPKd@Base 3.2.1
 _ZN8casacore17Allocator_private17BulkAllocatorImplINS_18casacore_allocatorIdLm32EEEE9constructEPdmRKd@Base 3.2.1
 _ZN8casacore17Allocator_private17BulkAllocatorImplINS_18casacore_allocatorIdLm32EEEED0Ev@Base 3.2.1
 _ZN8casacore17Allocator_private17BulkAllocatorImplINS_18casacore_allocatorIdLm32EEEED1Ev@Base 3.2.1
 _ZN8casacore17Allocator_private17BulkAllocatorImplINS_18casacore_allocatorIdLm32EEEED2Ev@Base 3.2.1
 _ZN8casacore17Allocator_private17BulkAllocatorImplINS_18casacore_allocatorIfLm32EEEE10deallocateEPfm@Base 3.2.1
 _ZN8casacore17Allocator_private17BulkAllocatorImplINS_18casacore_allocatorIfLm32EEEE7destroyEPfm@Base 3.2.1
 _ZN8casacore17Allocator_private17BulkAllocatorImplINS_18casacore_allocatorIfLm32EEEE8allocateEmPKv@Base 3.2.1
 _ZN8casacore17Allocator_private17BulkAllocatorImplINS_18casacore_allocatorIfLm32EEEE9allocatorE@Base 3.2.1
 _ZN8casacore17Allocator_private17BulkAllocatorImplINS_18casacore_allocatorIfLm32EEEE9constructEPfm@Base 3.2.1
 _ZN8casacore17Allocator_private17BulkAllocatorImplINS_18casacore_allocatorIfLm32EEEE9constructEPfmPKf@Base 3.2.1
 _ZN8casacore17Allocator_private17BulkAllocatorImplINS_18casacore_allocatorIfLm32EEEE9constructEPfmRKf@Base 3.2.1
 _ZN8casacore17Allocator_private17BulkAllocatorImplINS_18casacore_allocatorIfLm32EEEED0Ev@Base 3.2.1
 _ZN8casacore17Allocator_private17BulkAllocatorImplINS_18casacore_allocatorIfLm32EEEED1Ev@Base 3.2.1
 _ZN8casacore17Allocator_private17BulkAllocatorImplINS_18casacore_allocatorIfLm32EEEED2Ev@Base 3.2.1
 _ZN8casacore17Allocator_private17BulkAllocatorImplINS_18casacore_allocatorIiLm32EEEE10deallocateEPim@Base 3.2.1
 _ZN8casacore17Allocator_private17BulkAllocatorImplINS_18casacore_allocatorIiLm32EEEE7destroyEPim@Base 3.2.1
 _ZN8casacore17Allocator_private17BulkAllocatorImplINS_18casacore_allocatorIiLm32EEEE8allocateEmPKv@Base 3.2.1
 _ZN8casacore17Allocator_private17BulkAllocatorImplINS_18casacore_allocatorIiLm32EEEE9allocatorE@Base 3.2.1
 _ZN8casacore17Allocator_private17BulkAllocatorImplINS_18casacore_allocatorIiLm32EEEE9constructEPim@Base 3.2.1
 _ZN8casacore17Allocator_private17BulkAllocatorImplINS_18casacore_allocatorIiLm32EEEE9constructEPimPKi@Base 3.2.1
 _ZN8casacore17Allocator_private17BulkAllocatorImplINS_18casacore_allocatorIiLm32EEEE9constructEPimRKi@Base 3.2.1
 _ZN8casacore17Allocator_private17BulkAllocatorImplINS_18casacore_allocatorIiLm32EEEED0Ev@Base 3.2.1
 _ZN8casacore17Allocator_private17BulkAllocatorImplINS_18casacore_allocatorIiLm32EEEED1Ev@Base 3.2.1
 _ZN8casacore17Allocator_private17BulkAllocatorImplINS_18casacore_allocatorIiLm32EEEED2Ev@Base 3.2.1
 _ZN8casacore17Allocator_private17BulkAllocatorImplINS_18casacore_allocatorIjLm32EEEE10deallocateEPjm@Base 3.2.1
 _ZN8casacore17Allocator_private17BulkAllocatorImplINS_18casacore_allocatorIjLm32EEEE7destroyEPjm@Base 3.2.1
 _ZN8casacore17Allocator_private17BulkAllocatorImplINS_18casacore_allocatorIjLm32EEEE8allocateEmPKv@Base 3.2.1
 _ZN8casacore17Allocator_private17BulkAllocatorImplINS_18casacore_allocatorIjLm32EEEE9allocatorE@Base 3.2.1
 _ZN8casacore17Allocator_private17BulkAllocatorImplINS_18casacore_allocatorIjLm32EEEE9constructEPjm@Base 3.2.1
 _ZN8casacore17Allocator_private17BulkAllocatorImplINS_18casacore_allocatorIjLm32EEEE9constructEPjmPKj@Base 3.2.1
 _ZN8casacore17Allocator_private17BulkAllocatorImplINS_18casacore_allocatorIjLm32EEEE9constructEPjmRKj@Base 3.2.1
 _ZN8casacore17Allocator_private17BulkAllocatorImplINS_18casacore_allocatorIjLm32EEEED0Ev@Base 3.2.1
 _ZN8casacore17Allocator_private17BulkAllocatorImplINS_18casacore_allocatorIjLm32EEEED1Ev@Base 3.2.1
 _ZN8casacore17Allocator_private17BulkAllocatorImplINS_18casacore_allocatorIjLm32EEEED2Ev@Base 3.2.1
 _ZN8casacore17Allocator_private17get_allocator_rawINS_18casacore_allocatorIdLm32EEEEEPNS0_17BulkAllocatorImplIT_EEv@Base 3.2.1
 _ZN8casacore17Allocator_private17get_allocator_rawINS_18casacore_allocatorIfLm32EEEEEPNS0_17BulkAllocatorImplIT_EEv@Base 3.2.1
 _ZN8casacore17Allocator_private17get_allocator_rawINS_18casacore_allocatorIjLm32EEEEEPNS0_17BulkAllocatorImplIT_EEv@Base 3.2.1
 _ZN8casacore17LELFunctionDouble17prepareScalarExprEv@Base 3.2.1
 _ZN8casacore17LELFunctionDouble4lockENS_10FileLocker8LockTypeEj@Base 3.2.1
 _ZN8casacore17LELFunctionDouble6resyncEv@Base 3.2.1
 _ZN8casacore17LELFunctionDouble6unlockEv@Base 3.2.1
 _ZN8casacore17LELFunctionDoubleC1ENS_16LELFunctionEnums8FunctionERKNS_5BlockINS_15LatticeExprNodeEEE@Base 3.2.1
 _ZN8casacore17LELFunctionDoubleC2ENS_16LELFunctionEnums8FunctionERKNS_5BlockINS_15LatticeExprNodeEEE@Base 3.2.1
 _ZN8casacore17LELFunctionDoubleD0Ev@Base 3.2.1
 _ZN8casacore17LELFunctionDoubleD1Ev@Base 3.2.1
 _ZN8casacore17LELFunctionDoubleD2Ev@Base 3.2.1
 _ZN8casacore17LELFunctionReal1DIdE17prepareScalarExprEv@Base 3.2.1
 _ZN8casacore17LELFunctionReal1DIdE4lockENS_10FileLocker8LockTypeEj@Base 3.2.1
 _ZN8casacore17LELFunctionReal1DIdE6resyncEv@Base 3.2.1
 _ZN8casacore17LELFunctionReal1DIdE6unlockEv@Base 3.2.1
 _ZN8casacore17LELFunctionReal1DIdED0Ev@Base 3.2.1
 _ZN8casacore17LELFunctionReal1DIdED1Ev@Base 3.2.1
 _ZN8casacore17LELFunctionReal1DIdED2Ev@Base 3.2.1
 _ZN8casacore17LELFunctionReal1DIfE17prepareScalarExprEv@Base 3.2.1
 _ZN8casacore17LELFunctionReal1DIfE4lockENS_10FileLocker8LockTypeEj@Base 3.2.1
 _ZN8casacore17LELFunctionReal1DIfE6resyncEv@Base 3.2.1
 _ZN8casacore17LELFunctionReal1DIfE6unlockEv@Base 3.2.1
 _ZN8casacore17LELFunctionReal1DIfED0Ev@Base 3.2.1
 _ZN8casacore17LELFunctionReal1DIfED1Ev@Base 3.2.1
 _ZN8casacore17LELFunctionReal1DIfED2Ev@Base 3.2.1
 _ZN8casacore17LattStatsProgress10nstepsDoneEj@Base 3.2.1
 _ZN8casacore17LattStatsProgress11initDerivedEv@Base 3.2.1
 _ZN8casacore17LattStatsProgress4doneEv@Base 3.2.1
 _ZN8casacore17LattStatsProgressD0Ev@Base 3.2.1
 _ZN8casacore17LattStatsProgressD1Ev@Base 3.2.1
 _ZN8casacore17LattStatsProgressD2Ev@Base 3.2.1
 _ZN8casacore17LattStatsProgressppEi@Base 3.2.1
 _ZN8casacore17LatticeStatisticsIfE10listMinMaxERNSt7__cxx1119basic_ostringstreamIcSt11char_traitsIcESaIcEEES8_iNS_8DataTypeE@Base 3.2.1
 _ZN8casacore17LatticeStatisticsIfE10resetErrorEv@Base 3.2.1
 _ZN8casacore17LatticeStatisticsIfE12_computeFluxERNS_5ArrayIdEERKS3_S6_@Base 3.2.1
 _ZN8casacore17LatticeStatisticsIfE12_computeFluxERNS_7QuantumIdEEdRKNS_9IPositionEb@Base 3.2.1
 _ZN8casacore17LatticeStatisticsIfE12_doStatsLoopEjNS_10CountedPtrINS_17LattStatsProgressEEE@Base 3.2.1
 _ZN8casacore17LatticeStatisticsIfE12displayStatsEdddddddddddddd@Base 3.2.1
 _ZN8casacore17LatticeStatisticsIfE12getMinMaxPosERNS_9IPositionES3_@Base 3.2.1
 _ZN8casacore17LatticeStatisticsIfE12getStatisticERNS_5ArrayIdEENS_16LatticeStatsBase15StatisticsTypesEb@Base 3.2.1
 _ZN8casacore17LatticeStatisticsIfE13getFullMinMaxERfS2_@Base 3.2.1
 _ZN8casacore17LatticeStatisticsIfE13getLayerStatsERNS_6StringEdiiii@Base 3.2.1
 _ZN8casacore17LatticeStatisticsIfE13getLayerStatsERNSt7__cxx114listISt4pairINS_6StringES5_ESaIS6_EEEdiiii@Base 3.2.1
 _ZN8casacore17LatticeStatisticsIfE13setNewLatticeERKNS_13MaskedLatticeIfEEb@Base 3.2.1
 _ZN8casacore17LatticeStatisticsIfE14generateRobustEv@Base 3.2.1
 _ZN8casacore17LatticeStatisticsIfE14listLayerStatsERKNS_6MatrixIdEERNSt7__cxx1119basic_ostringstreamIcSt11char_traitsIcESaIcEEEi@Base 3.2.1
 _ZN8casacore17LatticeStatisticsIfE14someGoodPointsEv@Base 3.2.1
 _ZN8casacore17LatticeStatisticsIfE16_updateMinMaxPosERfS2_ffRKNS_9IPositionES5_bRKNS_10SubLatticeIfEE@Base 3.2.1
 _ZN8casacore17LatticeStatisticsIfE17_setDefaultCoeffsEv@Base 3.2.1
 _ZN8casacore17LatticeStatisticsIfE17configureBiweightEid@Base 3.2.1
 _ZN8casacore17LatticeStatisticsIfE17setInExCludeRangeERKNS_6VectorIfEES5_b@Base 3.2.1
 _ZN8casacore17LatticeStatisticsIfE18calculateStatisticERNS_5ArrayIdEENS_16LatticeStatsBase15StatisticsTypesEb@Base 3.2.1
 _ZN8casacore17LatticeStatisticsIfE18configureChauvenetEdi@Base 3.2.1
 _ZN8casacore17LatticeStatisticsIfE18configureClassicalEdddd@Base 3.2.1
 _ZN8casacore17LatticeStatisticsIfE18configureClassicalEv@Base 3.2.1
 _ZN8casacore17LatticeStatisticsIfE18configureFitToHalfENS_23FitToHalfStatisticsData6CENTERENS2_8USE_DATAEd@Base 3.2.1
 _ZN8casacore17LatticeStatisticsIfE19_fillStorageLatticeEffRKNS_9IPositionERKNS_9StatsDataIdEEbdd@Base 3.2.1
 _ZN8casacore17LatticeStatisticsIfE19setComputeQuantilesEb@Base 3.2.1
 _ZN8casacore17LatticeStatisticsIfE21configureHingesFencesEd@Base 3.2.1
 _ZN8casacore17LatticeStatisticsIfE21getConvertedStatisticERNS_5ArrayIfEENS_16LatticeStatsBase15StatisticsTypesEb@Base 3.2.1
 _ZN8casacore17LatticeStatisticsIfE22generateStorageLatticeEv@Base 3.2.1
 _ZN8casacore17LatticeStatisticsIfE23_latticePosToStoragePosERNS_9IPositionERKS2_@Base 3.2.1
 _ZN8casacore17LatticeStatisticsIfE24_computeStatsUsingArraysENS_10SubLatticeIfEENS_10CountedPtrINS_17LattStatsProgressEEERKNS_9IPositionE@Base 3.2.1
 _ZN8casacore17LatticeStatisticsIfE24retrieveStorageStatisticERNS_5ArrayIdEENS_16LatticeStatsBase15StatisticsTypesEb@Base 3.2.1
 _ZN8casacore17LatticeStatisticsIfE24retrieveStorageStatisticERNS_6VectorIdEERKNS_9IPositionEb@Base 3.2.1
 _ZN8casacore17LatticeStatisticsIfE25_doComputationUsingArraysERSt6vectorINS_10CountedPtrINS_19StatisticsAlgorithmIdNS_5ArrayIfE16ConstIteratorSTLENS5_IbE16ConstIteratorSTLES7_EEEESaISB_EERfSF_RNS_9IPositionERS2_IS6_SaIS6_EERS2_IS8_SaIS8_EERS2_ISG_SaISG_EEjRKNS_10SubLatticeIfEEbbbNS3_IKS2_ISt4pairIddESaISW_EEEE@Base 3.2.1
 _ZN8casacore17LatticeStatisticsIfE27forceUseOldTiledApplyMethodEv@Base 3.2.1
 _ZN8casacore17LatticeStatisticsIfE33forceUseStatsFrameworkUsingArraysEv@Base 3.2.1
 _ZN8casacore17LatticeStatisticsIfE35_computeStatsUsingLattDataProvidersERNS_14LatticeStepperENS_10SubLatticeIfEERNS_6SlicerENS_10CountedPtrINS_17LattStatsProgressEEEj@Base 3.2.1
 _ZN8casacore17LatticeStatisticsIfE39forceAllowCodeDecideWhichAlgortihmToUseEv@Base 3.2.1
 _ZN8casacore17LatticeStatisticsIfE40forceUseStatsFrameworkUsingDataProvidersEv@Base 3.2.1
 _ZN8casacore17LatticeStatisticsIfE4_rmsERKdS3_@Base 3.2.1
 _ZN8casacore17LatticeStatisticsIfE5_meanERKdS3_@Base 3.2.1
 _ZN8casacore17LatticeStatisticsIfE7displayEv@Base 3.2.1
 _ZN8casacore17LatticeStatisticsIfE7setAxesERKNS_6VectorIiEE@Base 3.2.1
 _ZN8casacore17LatticeStatisticsIfE7setListERKb@Base 3.2.1
 _ZN8casacore17LatticeStatisticsIfE8getStatsERNS_6VectorIdEERKNS_9IPositionEb@Base 3.2.1
 _ZN8casacore17LatticeStatisticsIfE9listStatsEbRKNS_9IPositionERKNS_6MatrixIdEE@Base 3.2.1
 _ZN8casacore17LatticeStatisticsIfE9setStreamERSoi@Base 3.2.1
 _ZN8casacore17LatticeStatisticsIfE9summStatsEv@Base 3.2.1
 _ZN8casacore17LatticeStatisticsIfEC1ERKNS_13MaskedLatticeIfEERNS_5LogIOEbbb@Base 3.2.1
 _ZN8casacore17LatticeStatisticsIfEC1ERKNS_13MaskedLatticeIfEEbbb@Base 3.2.1
 _ZN8casacore17LatticeStatisticsIfEC1ERKS1_@Base 3.2.1
 _ZN8casacore17LatticeStatisticsIfEC2ERKNS_13MaskedLatticeIfEERNS_5LogIOEbbb@Base 3.2.1
 _ZN8casacore17LatticeStatisticsIfEC2ERKNS_13MaskedLatticeIfEEbbb@Base 3.2.1
 _ZN8casacore17LatticeStatisticsIfEC2ERKS1_@Base 3.2.1
 _ZN8casacore17LatticeStatisticsIfED0Ev@Base 3.2.1
 _ZN8casacore17LatticeStatisticsIfED1Ev@Base 3.2.1
 _ZN8casacore17LatticeStatisticsIfED2Ev@Base 3.2.1
 _ZN8casacore17LatticeStatisticsIfEaSERKS1_@Base 3.2.1
 _ZN8casacore17StatisticsDatasetIdNS_5ArrayIfE16ConstIteratorSTLENS1_IbE16ConstIteratorSTLES3_E12initLoopVarsEv@Base 3.2.1
 _ZN8casacore17StatisticsDatasetIdNS_5ArrayIfE16ConstIteratorSTLENS1_IbE16ConstIteratorSTLES3_E13initIteratorsEv@Base 3.2.1
 _ZN8casacore17StatisticsDatasetIdNS_5ArrayIfE16ConstIteratorSTLENS1_IbE16ConstIteratorSTLES3_E15setDataProviderEPNS_17StatsDataProviderIdS3_S5_S3_EE@Base 3.2.1
 _ZN8casacore17StatisticsDatasetIdNS_5ArrayIfE16ConstIteratorSTLENS1_IbE16ConstIteratorSTLES3_E5resetEv@Base 3.2.1
 _ZN8casacore17StatisticsDatasetIdNS_5ArrayIfE16ConstIteratorSTLENS1_IbE16ConstIteratorSTLES3_E7addDataERKS3_jRKSt6vectorISt4pairIddESaISB_EEbjb@Base 3.2.1
 _ZN8casacore17StatisticsDatasetIdNS_5ArrayIfE16ConstIteratorSTLENS1_IbE16ConstIteratorSTLES3_E7addDataERKS3_jjb@Base 3.2.1
 _ZN8casacore17StatisticsDatasetIdNS_5ArrayIfE16ConstIteratorSTLENS1_IbE16ConstIteratorSTLES3_E9incrementEb@Base 3.2.1
 _ZN8casacore17StatisticsDatasetIdNS_5ArrayIfE16ConstIteratorSTLENS1_IbE16ConstIteratorSTLES3_EC1ERKS6_@Base 3.2.1
 _ZN8casacore17StatisticsDatasetIdNS_5ArrayIfE16ConstIteratorSTLENS1_IbE16ConstIteratorSTLES3_EC1Ev@Base 3.2.1
 _ZN8casacore17StatisticsDatasetIdNS_5ArrayIfE16ConstIteratorSTLENS1_IbE16ConstIteratorSTLES3_EC2ERKS6_@Base 3.2.1
 _ZN8casacore17StatisticsDatasetIdNS_5ArrayIfE16ConstIteratorSTLENS1_IbE16ConstIteratorSTLES3_EC2Ev@Base 3.2.1
 _ZN8casacore17StatisticsDatasetIdNS_5ArrayIfE16ConstIteratorSTLENS1_IbE16ConstIteratorSTLES3_ED1Ev@Base 3.2.1
 _ZN8casacore17StatisticsDatasetIdNS_5ArrayIfE16ConstIteratorSTLENS1_IbE16ConstIteratorSTLES3_ED2Ev@Base 3.2.1
 _ZN8casacore17StatisticsDatasetIdPKfPKbS2_E12initLoopVarsEv@Base 3.2.1
 _ZN8casacore17StatisticsDatasetIdPKfPKbS2_E13initIteratorsEv@Base 3.2.1
 _ZN8casacore17StatisticsDatasetIdPKfPKbS2_E15setDataProviderEPNS_17StatsDataProviderIdS2_S4_S2_EE@Base 3.2.1
 _ZN8casacore17StatisticsDatasetIdPKfPKbS2_E5resetEv@Base 3.2.1
 _ZN8casacore17StatisticsDatasetIdPKfPKbS2_E9incrementEb@Base 3.2.1
 _ZN8casacore17StatisticsDatasetIdPKfPKbS2_EC1ERKS5_@Base 3.2.1
 _ZN8casacore17StatisticsDatasetIdPKfPKbS2_EC1Ev@Base 3.2.1
 _ZN8casacore17StatisticsDatasetIdPKfPKbS2_EC2ERKS5_@Base 3.2.1
 _ZN8casacore17StatisticsDatasetIdPKfPKbS2_EC2Ev@Base 3.2.1
 _ZN8casacore17StatsDataProviderIdNS_5ArrayIfE16ConstIteratorSTLENS1_IbE16ConstIteratorSTLES3_E12updateMaxPosERKSt4pairIxxE@Base 3.2.1
 _ZN8casacore17StatsDataProviderIdNS_5ArrayIfE16ConstIteratorSTLENS1_IbE16ConstIteratorSTLES3_E12updateMinPosERKSt4pairIxxE@Base 3.2.1
 _ZN8casacore17StatsDataProviderIdPKfPKbS2_E12updateMaxPosERKSt4pairIxxE@Base 3.2.1
 _ZN8casacore17StatsDataProviderIdPKfPKbS2_E12updateMinPosERKSt4pairIxxE@Base 3.2.1
 _ZN8casacore17new_del_allocatorINS_6VectorIdEEED1Ev@Base 3.2.1
 _ZN8casacore17new_del_allocatorINS_6VectorIdEEED2Ev@Base 3.2.1
 _ZN8casacore17new_del_allocatorINS_8AutoDiffIdEEED1Ev@Base 3.2.1
 _ZN8casacore17new_del_allocatorINS_8AutoDiffIdEEED2Ev@Base 3.2.1
 _ZN8casacore17new_del_allocatorINS_8AutoDiffIfEEED1Ev@Base 3.2.1
 _ZN8casacore17new_del_allocatorINS_8AutoDiffIfEEED2Ev@Base 3.2.1
 _ZN8casacore17new_del_allocatorIPNS_6SlicerEED1Ev@Base 3.2.1
 _ZN8casacore17new_del_allocatorIPNS_6SlicerEED2Ev@Base 3.2.1
 _ZN8casacore18BiweightStatisticsIdNS_5ArrayIfE16ConstIteratorSTLENS1_IbE16ConstIteratorSTLES3_E11_doLocationEv@Base 3.2.1
 _ZN8casacore18BiweightStatisticsIdNS_5ArrayIfE16ConstIteratorSTLENS1_IbE16ConstIteratorSTLES3_E12getQuantilesERKSt3setIdSt4lessIdESaIdEENS_10CountedPtrIyEENSE_IdEESG_jbj@Base 3.2.1
 _ZN8casacore18BiweightStatisticsIdNS_5ArrayIfE16ConstIteratorSTLENS1_IbE16ConstIteratorSTLES3_E13_computeStatsEv@Base 3.2.1
 _ZN8casacore18BiweightStatisticsIdNS_5ArrayIfE16ConstIteratorSTLENS1_IbE16ConstIteratorSTLES3_E14_getStatisticsEv@Base 3.2.1
 _ZN8casacore18BiweightStatisticsIdNS_5ArrayIfE16ConstIteratorSTLENS1_IbE16ConstIteratorSTLES3_E17getStatisticIndexENS_14StatisticsData5STATSE@Base 3.2.1
 _ZN8casacore18BiweightStatisticsIdNS_5ArrayIfE16ConstIteratorSTLENS1_IbE16ConstIteratorSTLES3_E18getMedianAbsDevMedENS_10CountedPtrIyEENS7_IdEES9_jbj@Base 3.2.1
 _ZN8casacore18BiweightStatisticsIdNS_5ArrayIfE16ConstIteratorSTLENS1_IbE16ConstIteratorSTLES3_E19_doLocationAndScaleEv@Base 3.2.1
 _ZN8casacore18BiweightStatisticsIdNS_5ArrayIfE16ConstIteratorSTLENS1_IbE16ConstIteratorSTLES3_E19setCalculateAsAddedEb@Base 3.2.1
 _ZN8casacore18BiweightStatisticsIdNS_5ArrayIfE16ConstIteratorSTLENS1_IbE16ConstIteratorSTLES3_E19setStatsToCalculateERSt3setINS_14StatisticsData5STATSESt4lessIS9_ESaIS9_EE@Base 3.2.1
 _ZN8casacore18BiweightStatisticsIdNS_5ArrayIfE16ConstIteratorSTLENS1_IbE16ConstIteratorSTLES3_E20_computeLocationSumsERdS7_S3_S5_S3_yRKNS_17StatisticsDatasetIdS3_S5_S3_E9ChunkDataE@Base 3.2.1
 _ZN8casacore18BiweightStatisticsIdNS_5ArrayIfE16ConstIteratorSTLENS1_IbE16ConstIteratorSTLES3_E21getMedianAndQuantilesERSt3mapIddSt4lessIdESaISt4pairIKddEEERKSt3setIdS9_SaIdEENS_10CountedPtrIyEENSL_IdEESN_jbj@Base 3.2.1
 _ZN8casacore18BiweightStatisticsIdNS_5ArrayIfE16ConstIteratorSTLENS1_IbE16ConstIteratorSTLES3_E28_computeLocationAndScaleSumsERdS7_S7_S7_S3_S5_S3_yRKNS_17StatisticsDatasetIdS3_S5_S3_E9ChunkDataE@Base 3.2.1
 _ZN8casacore18BiweightStatisticsIdNS_5ArrayIfE16ConstIteratorSTLENS1_IbE16ConstIteratorSTLES3_E5resetEv@Base 3.2.1
 _ZN8casacore18BiweightStatisticsIdNS_5ArrayIfE16ConstIteratorSTLENS1_IbE16ConstIteratorSTLES3_E8_doScaleEv@Base 3.2.1
 _ZN8casacore18BiweightStatisticsIdNS_5ArrayIfE16ConstIteratorSTLENS1_IbE16ConstIteratorSTLES3_E9getMedianENS_10CountedPtrIyEENS7_IdEES9_jbj@Base 3.2.1
 _ZN8casacore18BiweightStatisticsIdNS_5ArrayIfE16ConstIteratorSTLENS1_IbE16ConstIteratorSTLES3_ED0Ev@Base 3.2.1
 _ZN8casacore18BiweightStatisticsIdNS_5ArrayIfE16ConstIteratorSTLENS1_IbE16ConstIteratorSTLES3_ED1Ev@Base 3.2.1
 _ZN8casacore18BiweightStatisticsIdNS_5ArrayIfE16ConstIteratorSTLENS1_IbE16ConstIteratorSTLES3_ED2Ev@Base 3.2.1
 _ZN8casacore18BiweightStatisticsIdPKfPKbS2_E11_doLocationEv@Base 3.2.1
 _ZN8casacore18BiweightStatisticsIdPKfPKbS2_E12getQuantilesERKSt3setIdSt4lessIdESaIdEENS_10CountedPtrIyEENSD_IdEESF_jbj@Base 3.2.1
 _ZN8casacore18BiweightStatisticsIdPKfPKbS2_E13_computeStatsEv@Base 3.2.1
 _ZN8casacore18BiweightStatisticsIdPKfPKbS2_E14_getStatisticsEv@Base 3.2.1
 _ZN8casacore18BiweightStatisticsIdPKfPKbS2_E17getStatisticIndexENS_14StatisticsData5STATSE@Base 3.2.1
 _ZN8casacore18BiweightStatisticsIdPKfPKbS2_E18getMedianAbsDevMedENS_10CountedPtrIyEENS6_IdEES8_jbj@Base 3.2.1
 _ZN8casacore18BiweightStatisticsIdPKfPKbS2_E19_doLocationAndScaleEv@Base 3.2.1
 _ZN8casacore18BiweightStatisticsIdPKfPKbS2_E19setCalculateAsAddedEb@Base 3.2.1
 _ZN8casacore18BiweightStatisticsIdPKfPKbS2_E19setStatsToCalculateERSt3setINS_14StatisticsData5STATSESt4lessIS8_ESaIS8_EE@Base 3.2.1
 _ZN8casacore18BiweightStatisticsIdPKfPKbS2_E20_computeLocationSumsERdS6_S2_S4_S2_yRKNS_17StatisticsDatasetIdS2_S4_S2_E9ChunkDataE@Base 3.2.1
 _ZN8casacore18BiweightStatisticsIdPKfPKbS2_E21getMedianAndQuantilesERSt3mapIddSt4lessIdESaISt4pairIKddEEERKSt3setIdS8_SaIdEENS_10CountedPtrIyEENSK_IdEESM_jbj@Base 3.2.1
 _ZN8casacore18BiweightStatisticsIdPKfPKbS2_E28_computeLocationAndScaleSumsERdS6_S6_S6_S2_S4_S2_yRKNS_17StatisticsDatasetIdS2_S4_S2_E9ChunkDataE@Base 3.2.1
 _ZN8casacore18BiweightStatisticsIdPKfPKbS2_E5resetEv@Base 3.2.1
 _ZN8casacore18BiweightStatisticsIdPKfPKbS2_E8_doScaleEv@Base 3.2.1
 _ZN8casacore18BiweightStatisticsIdPKfPKbS2_E9getMedianENS_10CountedPtrIyEENS6_IdEES8_jbj@Base 3.2.1
 _ZN8casacore18BiweightStatisticsIdPKfPKbS2_ED0Ev@Base 3.2.1
 _ZN8casacore18BiweightStatisticsIdPKfPKbS2_ED1Ev@Base 3.2.1
 _ZN8casacore18BiweightStatisticsIdPKfPKbS2_ED2Ev@Base 3.2.1
 _ZN8casacore18LELFunctionComplex17prepareScalarExprEv@Base 3.2.1
 _ZN8casacore18LELFunctionComplex4lockENS_10FileLocker8LockTypeEj@Base 3.2.1
 _ZN8casacore18LELFunctionComplex6resyncEv@Base 3.2.1
 _ZN8casacore18LELFunctionComplex6unlockEv@Base 3.2.1
 _ZN8casacore18LELFunctionComplexC1ENS_16LELFunctionEnums8FunctionERKNS_5BlockINS_15LatticeExprNodeEEE@Base 3.2.1
 _ZN8casacore18LELFunctionComplexC2ENS_16LELFunctionEnums8FunctionERKNS_5BlockINS_15LatticeExprNodeEEE@Base 3.2.1
 _ZN8casacore18LELFunctionComplexD0Ev@Base 3.2.1
 _ZN8casacore18LELFunctionComplexD1Ev@Base 3.2.1
 _ZN8casacore18LELFunctionComplexD2Ev@Base 3.2.1
 _ZN8casacore18RO_LatticeIteratorISt7complexIdEEC1ERKNS_7LatticeIS2_EERKNS_16LatticeNavigatorEb@Base 3.2.1
 _ZN8casacore18RO_LatticeIteratorISt7complexIdEEC1ERKNS_7LatticeIS2_EEb@Base 3.2.1
 _ZN8casacore18RO_LatticeIteratorISt7complexIdEEC2ERKNS_7LatticeIS2_EERKNS_16LatticeNavigatorEb@Base 3.2.1
 _ZN8casacore18RO_LatticeIteratorISt7complexIdEEC2ERKNS_7LatticeIS2_EEb@Base 3.2.1
 _ZN8casacore18RO_LatticeIteratorISt7complexIfEEC1ERKNS_7LatticeIS2_EERKNS_16LatticeNavigatorEb@Base 3.2.1
 _ZN8casacore18RO_LatticeIteratorISt7complexIfEEC1ERKNS_7LatticeIS2_EEb@Base 3.2.1
 _ZN8casacore18RO_LatticeIteratorISt7complexIfEEC2ERKNS_7LatticeIS2_EERKNS_16LatticeNavigatorEb@Base 3.2.1
 _ZN8casacore18RO_LatticeIteratorISt7complexIfEEC2ERKNS_7LatticeIS2_EEb@Base 3.2.1
 _ZN8casacore18RO_LatticeIteratorIbEC1ERKNS_7LatticeIbEERKNS_16LatticeNavigatorEb@Base 3.2.1
 _ZN8casacore18RO_LatticeIteratorIbEC1ERKNS_7LatticeIbEERKNS_9IPositionEb@Base 3.2.1
 _ZN8casacore18RO_LatticeIteratorIbEC1ERKNS_7LatticeIbEEb@Base 3.2.1
 _ZN8casacore18RO_LatticeIteratorIbEC2ERKNS_7LatticeIbEERKNS_16LatticeNavigatorEb@Base 3.2.1
 _ZN8casacore18RO_LatticeIteratorIbEC2ERKNS_7LatticeIbEERKNS_9IPositionEb@Base 3.2.1
 _ZN8casacore18RO_LatticeIteratorIbEC2ERKNS_7LatticeIbEEb@Base 3.2.1
 _ZN8casacore18RO_LatticeIteratorIdEC1ERKNS_7LatticeIdEERKNS_16LatticeNavigatorEb@Base 3.2.1
 _ZN8casacore18RO_LatticeIteratorIdEC1ERKNS_7LatticeIdEEb@Base 3.2.1
 _ZN8casacore18RO_LatticeIteratorIdEC2ERKNS_7LatticeIdEERKNS_16LatticeNavigatorEb@Base 3.2.1
 _ZN8casacore18RO_LatticeIteratorIdEC2ERKNS_7LatticeIdEEb@Base 3.2.1
 _ZN8casacore18RO_LatticeIteratorIfEC1ERKNS_7LatticeIfEERKNS_16LatticeNavigatorEb@Base 3.2.1
 _ZN8casacore18RO_LatticeIteratorIfEC1ERKNS_7LatticeIfEERKNS_9IPositionEb@Base 3.2.1
 _ZN8casacore18RO_LatticeIteratorIfEC1ERKNS_7LatticeIfEEb@Base 3.2.1
 _ZN8casacore18RO_LatticeIteratorIfEC2ERKNS_7LatticeIfEERKNS_16LatticeNavigatorEb@Base 3.2.1
 _ZN8casacore18RO_LatticeIteratorIfEC2ERKNS_7LatticeIfEERKNS_9IPositionEb@Base 3.2.1
 _ZN8casacore18RO_LatticeIteratorIfEC2ERKNS_7LatticeIfEEb@Base 3.2.1
 _ZN8casacore18arrayContTransformIddNS_3LogIddEEEEvRKNS_5ArrayIT_EERNS3_IT0_EET1_@Base 3.2.1
 _ZN8casacore18casacore_allocatorINS_15LatticeExprNodeELm32EED1Ev@Base 3.2.1
 _ZN8casacore18casacore_allocatorINS_15LatticeExprNodeELm32EED2Ev@Base 3.2.1
 _ZN8casacore18casacore_allocatorINS_6StringELm32EED1Ev@Base 3.2.1
 _ZN8casacore18casacore_allocatorINS_6StringELm32EED2Ev@Base 3.2.1
 _ZN8casacore18casacore_allocatorINS_6VectorIdEELm32EED1Ev@Base 3.2.1
 _ZN8casacore18casacore_allocatorINS_6VectorIdEELm32EED2Ev@Base 3.2.1
 _ZN8casacore18casacore_allocatorINS_8AutoDiffIdEELm32EED1Ev@Base 3.2.1
 _ZN8casacore18casacore_allocatorINS_8AutoDiffIdEELm32EED2Ev@Base 3.2.1
 _ZN8casacore18casacore_allocatorINS_8AutoDiffIfEELm32EED1Ev@Base 3.2.1
 _ZN8casacore18casacore_allocatorINS_8AutoDiffIfEELm32EED2Ev@Base 3.2.1
 _ZN8casacore18casacore_allocatorINS_9IPositionELm32EED1Ev@Base 3.2.1
 _ZN8casacore18casacore_allocatorINS_9IPositionELm32EED2Ev@Base 3.2.1
 _ZN8casacore18casacore_allocatorIPNS_6SlicerELm32EED1Ev@Base 3.2.1
 _ZN8casacore18casacore_allocatorIPNS_6SlicerELm32EED2Ev@Base 3.2.1
 _ZN8casacore18casacore_allocatorIPvLm32EED1Ev@Base 3.2.1
 _ZN8casacore18casacore_allocatorIPvLm32EED2Ev@Base 3.2.1
 _ZN8casacore18casacore_allocatorISt7complexIdELm32EED1Ev@Base 3.2.1
 _ZN8casacore18casacore_allocatorISt7complexIdELm32EED2Ev@Base 3.2.1
 _ZN8casacore18casacore_allocatorIbLm32EED1Ev@Base 3.2.1
 _ZN8casacore18casacore_allocatorIbLm32EED2Ev@Base 3.2.1
 _ZN8casacore18casacore_allocatorIdLm32EED1Ev@Base 3.2.1
 _ZN8casacore18casacore_allocatorIdLm32EED2Ev@Base 3.2.1
 _ZN8casacore18casacore_allocatorIfLm32EED1Ev@Base 3.2.1
 _ZN8casacore18casacore_allocatorIfLm32EED2Ev@Base 3.2.1
 _ZN8casacore18casacore_allocatorIiLm32EED1Ev@Base 3.2.1
 _ZN8casacore18casacore_allocatorIiLm32EED2Ev@Base 3.2.1
 _ZN8casacore18casacore_allocatorIjLm32EED1Ev@Base 3.2.1
 _ZN8casacore18casacore_allocatorIjLm32EED2Ev@Base 3.2.1
 _ZN8casacore19ClassicalStatisticsIdNS_5ArrayIfE16ConstIteratorSTLENS1_IbE16ConstIteratorSTLES3_E11_accumulateERNS_9StatsDataIdEERKdRKSt4pairIxxE@Base 3.2.1
 _ZN8casacore19ClassicalStatisticsIdNS_5ArrayIfE16ConstIteratorSTLENS1_IbE16ConstIteratorSTLES3_E11_clearStatsEv@Base 3.2.1
 _ZN8casacore19ClassicalStatisticsIdNS_5ArrayIfE16ConstIteratorSTLENS1_IbE16ConstIteratorSTLES3_E12_computeNptsERyS3_S5_S3_yRKNS_17StatisticsDatasetIdS3_S5_S3_E9ChunkDataE@Base 3.2.1
 _ZN8casacore19ClassicalStatisticsIdNS_5ArrayIfE16ConstIteratorSTLENS1_IbE16ConstIteratorSTLES3_E12getQuantilesERKSt3setIdSt4lessIdESaIdEENS_10CountedPtrIyEENSE_IdEESG_jbj@Base 3.2.1
 _ZN8casacore19ClassicalStatisticsIdNS_5ArrayIfE16ConstIteratorSTLENS1_IbE16ConstIteratorSTLES3_E13_computeStatsERNS_9StatsDataIdEERyRSt4pairIxxES3_S5_S3_yRKNS_17StatisticsDatasetIdS3_S5_S3_E9ChunkDataE@Base 3.2.1
 _ZN8casacore19ClassicalStatisticsIdNS_5ArrayIfE16ConstIteratorSTLENS1_IbE16ConstIteratorSTLES3_E13_doMinMaxNptsERdS7_@Base 3.2.1
 _ZN8casacore19ClassicalStatisticsIdNS_5ArrayIfE16ConstIteratorSTLENS1_IbE16ConstIteratorSTLES3_E13_doNptsMinMaxERyRdS8_NS_10CountedPtrIyEENS9_IdEESB_@Base 3.2.1
 _ZN8casacore19ClassicalStatisticsIdNS_5ArrayIfE16ConstIteratorSTLENS1_IbE16ConstIteratorSTLES3_E13_getStatisticENS_14StatisticsData5STATSE@Base 3.2.1
 _ZN8casacore19ClassicalStatisticsIdNS_5ArrayIfE16ConstIteratorSTLENS1_IbE16ConstIteratorSTLES3_E13_getStatsDataEv@Base 3.2.1
 _ZN8casacore19ClassicalStatisticsIdNS_5ArrayIfE16ConstIteratorSTLENS1_IbE16ConstIteratorSTLES3_E13getMinMaxNptsERyRdS8_@Base 3.2.1
 _ZN8casacore19ClassicalStatisticsIdNS_5ArrayIfE16ConstIteratorSTLENS1_IbE16ConstIteratorSTLES3_E14_computeMinMaxERNS_10CountedPtrIdEES9_S3_S5_S3_yRKNS_17StatisticsDatasetIdS3_S5_S3_E9ChunkDataE@Base 3.2.1
 _ZN8casacore19ClassicalStatisticsIdNS_5ArrayIfE16ConstIteratorSTLENS1_IbE16ConstIteratorSTLES3_E14_getStatisticsEv@Base 3.2.1
 _ZN8casacore19ClassicalStatisticsIdNS_5ArrayIfE16ConstIteratorSTLENS1_IbE16ConstIteratorSTLES3_E14_weightedStatsERNS_9StatsDataIdEERSt4pairIxxERKS3_SE_yj@Base 3.2.1
 _ZN8casacore19ClassicalStatisticsIdNS_5ArrayIfE16ConstIteratorSTLENS1_IbE16ConstIteratorSTLES3_E14_weightedStatsERNS_9StatsDataIdEERSt4pairIxxERKS3_SE_yjRKS5_j@Base 3.2.1
 _ZN8casacore19ClassicalStatisticsIdNS_5ArrayIfE16ConstIteratorSTLENS1_IbE16ConstIteratorSTLES3_E14_weightedStatsERNS_9StatsDataIdEERSt4pairIxxERKS3_SE_yjRKS5_jRKSt6vectorISA_IddESaISI_EEb@Base 3.2.1
 _ZN8casacore19ClassicalStatisticsIdNS_5ArrayIfE16ConstIteratorSTLENS1_IbE16ConstIteratorSTLES3_E14_weightedStatsERNS_9StatsDataIdEERSt4pairIxxERKS3_SE_yjRKSt6vectorISA_IddESaISG_EEb@Base 3.2.1
 _ZN8casacore19ClassicalStatisticsIdNS_5ArrayIfE16ConstIteratorSTLENS1_IbE16ConstIteratorSTLES3_E15setDataProviderEPNS_17StatsDataProviderIdS3_S5_S3_EE@Base 3.2.1
 _ZN8casacore19ClassicalStatisticsIdNS_5ArrayIfE16ConstIteratorSTLENS1_IbE16ConstIteratorSTLES3_E16_unweightedStatsERNS_9StatsDataIdEERyRSt4pairIxxERKS3_yj@Base 3.2.1
 _ZN8casacore19ClassicalStatisticsIdNS_5ArrayIfE16ConstIteratorSTLENS1_IbE16ConstIteratorSTLES3_E16_unweightedStatsERNS_9StatsDataIdEERyRSt4pairIxxERKS3_yjRKS5_j@Base 3.2.1
 _ZN8casacore19ClassicalStatisticsIdNS_5ArrayIfE16ConstIteratorSTLENS1_IbE16ConstIteratorSTLES3_E16_unweightedStatsERNS_9StatsDataIdEERyRSt4pairIxxERKS3_yjRKS5_jRKSt6vectorISB_IddESaISJ_EEb@Base 3.2.1
 _ZN8casacore19ClassicalStatisticsIdNS_5ArrayIfE16ConstIteratorSTLENS1_IbE16ConstIteratorSTLES3_E16_unweightedStatsERNS_9StatsDataIdEERyRSt4pairIxxERKS3_yjRKSt6vectorISB_IddESaISH_EEb@Base 3.2.1
 _ZN8casacore19ClassicalStatisticsIdNS_5ArrayIfE16ConstIteratorSTLENS1_IbE16ConstIteratorSTLES3_E17getStatisticIndexENS_14StatisticsData5STATSE@Base 3.2.1
 _ZN8casacore19ClassicalStatisticsIdNS_5ArrayIfE16ConstIteratorSTLENS1_IbE16ConstIteratorSTLES3_E18_computeMinMaxNptsERyRNS_10CountedPtrIdEESA_S3_S5_S3_yRKNS_17StatisticsDatasetIdS3_S5_S3_E9ChunkDataE@Base 3.2.1
 _ZN8casacore19ClassicalStatisticsIdNS_5ArrayIfE16ConstIteratorSTLENS1_IbE16ConstIteratorSTLES3_E18getMedianAbsDevMedENS_10CountedPtrIyEENS7_IdEES9_jbj@Base 3.2.1
 _ZN8casacore19ClassicalStatisticsIdNS_5ArrayIfE16ConstIteratorSTLENS1_IbE16ConstIteratorSTLES3_E19setCalculateAsAddedEb@Base 3.2.1
 _ZN8casacore19ClassicalStatisticsIdNS_5ArrayIfE16ConstIteratorSTLENS1_IbE16ConstIteratorSTLES3_E19setStatsToCalculateERSt3setINS_14StatisticsData5STATSESt4lessIS9_ESaIS9_EE@Base 3.2.1
 _ZN8casacore19ClassicalStatisticsIdNS_5ArrayIfE16ConstIteratorSTLENS1_IbE16ConstIteratorSTLES3_E21getMedianAndQuantilesERSt3mapIddSt4lessIdESaISt4pairIKddEEERKSt3setIdS9_SaIdEENS_10CountedPtrIyEENSL_IdEESN_jbj@Base 3.2.1
 _ZN8casacore19ClassicalStatisticsIdNS_5ArrayIfE16ConstIteratorSTLENS1_IbE16ConstIteratorSTLES3_E25_updateDataProviderMaxMinERKNS_9StatsDataIdEE@Base 3.2.1
 _ZN8casacore19ClassicalStatisticsIdNS_5ArrayIfE16ConstIteratorSTLENS1_IbE16ConstIteratorSTLES3_E5resetEv@Base 3.2.1
 _ZN8casacore19ClassicalStatisticsIdNS_5ArrayIfE16ConstIteratorSTLENS1_IbE16ConstIteratorSTLES3_E7_doNptsEv@Base 3.2.1
 _ZN8casacore19ClassicalStatisticsIdNS_5ArrayIfE16ConstIteratorSTLENS1_IbE16ConstIteratorSTLES3_E7getNPtsEv@Base 3.2.1
 _ZN8casacore19ClassicalStatisticsIdNS_5ArrayIfE16ConstIteratorSTLENS1_IbE16ConstIteratorSTLES3_E8_addDataEv@Base 3.2.1
 _ZN8casacore19ClassicalStatisticsIdNS_5ArrayIfE16ConstIteratorSTLENS1_IbE16ConstIteratorSTLES3_E9_doMinMaxERdS7_@Base 3.2.1
 _ZN8casacore19ClassicalStatisticsIdNS_5ArrayIfE16ConstIteratorSTLENS1_IbE16ConstIteratorSTLES3_E9getMedianENS_10CountedPtrIyEENS7_IdEES9_jbj@Base 3.2.1
 _ZN8casacore19ClassicalStatisticsIdNS_5ArrayIfE16ConstIteratorSTLENS1_IbE16ConstIteratorSTLES3_E9getMinMaxERdS7_@Base 3.2.1
 _ZN8casacore19ClassicalStatisticsIdNS_5ArrayIfE16ConstIteratorSTLENS1_IbE16ConstIteratorSTLES3_EC1ERKS6_@Base 3.2.1
 _ZN8casacore19ClassicalStatisticsIdNS_5ArrayIfE16ConstIteratorSTLENS1_IbE16ConstIteratorSTLES3_EC1Ev@Base 3.2.1
 _ZN8casacore19ClassicalStatisticsIdNS_5ArrayIfE16ConstIteratorSTLENS1_IbE16ConstIteratorSTLES3_EC2ERKS6_@Base 3.2.1
 _ZN8casacore19ClassicalStatisticsIdNS_5ArrayIfE16ConstIteratorSTLENS1_IbE16ConstIteratorSTLES3_EC2Ev@Base 3.2.1
 _ZN8casacore19ClassicalStatisticsIdNS_5ArrayIfE16ConstIteratorSTLENS1_IbE16ConstIteratorSTLES3_ED0Ev@Base 3.2.1
 _ZN8casacore19ClassicalStatisticsIdNS_5ArrayIfE16ConstIteratorSTLENS1_IbE16ConstIteratorSTLES3_ED1Ev@Base 3.2.1
 _ZN8casacore19ClassicalStatisticsIdNS_5ArrayIfE16ConstIteratorSTLENS1_IbE16ConstIteratorSTLES3_ED2Ev@Base 3.2.1
 _ZN8casacore19ClassicalStatisticsIdPKfPKbS2_E11_accumulateERNS_9StatsDataIdEERKdRKSt4pairIxxE@Base 3.2.1
 _ZN8casacore19ClassicalStatisticsIdPKfPKbS2_E11_clearStatsEv@Base 3.2.1
 _ZN8casacore19ClassicalStatisticsIdPKfPKbS2_E12_computeNptsERyS2_S4_S2_yRKNS_17StatisticsDatasetIdS2_S4_S2_E9ChunkDataE@Base 3.2.1
 _ZN8casacore19ClassicalStatisticsIdPKfPKbS2_E12getQuantilesERKSt3setIdSt4lessIdESaIdEENS_10CountedPtrIyEENSD_IdEESF_jbj@Base 3.2.1
 _ZN8casacore19ClassicalStatisticsIdPKfPKbS2_E13_computeStatsERNS_9StatsDataIdEERyRSt4pairIxxES2_S4_S2_yRKNS_17StatisticsDatasetIdS2_S4_S2_E9ChunkDataE@Base 3.2.1
 _ZN8casacore19ClassicalStatisticsIdPKfPKbS2_E13_doMinMaxNptsERdS6_@Base 3.2.1
 _ZN8casacore19ClassicalStatisticsIdPKfPKbS2_E13_doNptsMinMaxERyRdS7_NS_10CountedPtrIyEENS8_IdEESA_@Base 3.2.1
 _ZN8casacore19ClassicalStatisticsIdPKfPKbS2_E13_getStatisticENS_14StatisticsData5STATSE@Base 3.2.1
 _ZN8casacore19ClassicalStatisticsIdPKfPKbS2_E13_getStatsDataEv@Base 3.2.1
 _ZN8casacore19ClassicalStatisticsIdPKfPKbS2_E13getMinMaxNptsERyRdS7_@Base 3.2.1
 _ZN8casacore19ClassicalStatisticsIdPKfPKbS2_E14_computeMinMaxERNS_10CountedPtrIdEES8_S2_S4_S2_yRKNS_17StatisticsDatasetIdS2_S4_S2_E9ChunkDataE@Base 3.2.1
 _ZN8casacore19ClassicalStatisticsIdPKfPKbS2_E14_getStatisticsEv@Base 3.2.1
 _ZN8casacore19ClassicalStatisticsIdPKfPKbS2_E14_weightedStatsERNS_9StatsDataIdEERSt4pairIxxERKS2_SD_yj@Base 3.2.1
 _ZN8casacore19ClassicalStatisticsIdPKfPKbS2_E14_weightedStatsERNS_9StatsDataIdEERSt4pairIxxERKS2_SD_yjRKS4_j@Base 3.2.1
 _ZN8casacore19ClassicalStatisticsIdPKfPKbS2_E14_weightedStatsERNS_9StatsDataIdEERSt4pairIxxERKS2_SD_yjRKS4_jRKSt6vectorIS9_IddESaISH_EEb@Base 3.2.1
 _ZN8casacore19ClassicalStatisticsIdPKfPKbS2_E14_weightedStatsERNS_9StatsDataIdEERSt4pairIxxERKS2_SD_yjRKSt6vectorIS9_IddESaISF_EEb@Base 3.2.1
 _ZN8casacore19ClassicalStatisticsIdPKfPKbS2_E15setDataProviderEPNS_17StatsDataProviderIdS2_S4_S2_EE@Base 3.2.1
 _ZN8casacore19ClassicalStatisticsIdPKfPKbS2_E16_unweightedStatsERNS_9StatsDataIdEERyRSt4pairIxxERKS2_yj@Base 3.2.1
 _ZN8casacore19ClassicalStatisticsIdPKfPKbS2_E16_unweightedStatsERNS_9StatsDataIdEERyRSt4pairIxxERKS2_yjRKS4_j@Base 3.2.1
 _ZN8casacore19ClassicalStatisticsIdPKfPKbS2_E16_unweightedStatsERNS_9StatsDataIdEERyRSt4pairIxxERKS2_yjRKS4_jRKSt6vectorISA_IddESaISI_EEb@Base 3.2.1
 _ZN8casacore19ClassicalStatisticsIdPKfPKbS2_E16_unweightedStatsERNS_9StatsDataIdEERyRSt4pairIxxERKS2_yjRKSt6vectorISA_IddESaISG_EEb@Base 3.2.1
 _ZN8casacore19ClassicalStatisticsIdPKfPKbS2_E17getStatisticIndexENS_14StatisticsData5STATSE@Base 3.2.1
 _ZN8casacore19ClassicalStatisticsIdPKfPKbS2_E18_computeMinMaxNptsERyRNS_10CountedPtrIdEES9_S2_S4_S2_yRKNS_17StatisticsDatasetIdS2_S4_S2_E9ChunkDataE@Base 3.2.1
 _ZN8casacore19ClassicalStatisticsIdPKfPKbS2_E18getMedianAbsDevMedENS_10CountedPtrIyEENS6_IdEES8_jbj@Base 3.2.1
 _ZN8casacore19ClassicalStatisticsIdPKfPKbS2_E19setCalculateAsAddedEb@Base 3.2.1
 _ZN8casacore19ClassicalStatisticsIdPKfPKbS2_E19setStatsToCalculateERSt3setINS_14StatisticsData5STATSESt4lessIS8_ESaIS8_EE@Base 3.2.1
 _ZN8casacore19ClassicalStatisticsIdPKfPKbS2_E21getMedianAndQuantilesERSt3mapIddSt4lessIdESaISt4pairIKddEEERKSt3setIdS8_SaIdEENS_10CountedPtrIyEENSK_IdEESM_jbj@Base 3.2.1
 _ZN8casacore19ClassicalStatisticsIdPKfPKbS2_E25_updateDataProviderMaxMinERKNS_9StatsDataIdEE@Base 3.2.1
 _ZN8casacore19ClassicalStatisticsIdPKfPKbS2_E5resetEv@Base 3.2.1
 _ZN8casacore19ClassicalStatisticsIdPKfPKbS2_E7_doNptsEv@Base 3.2.1
 _ZN8casacore19ClassicalStatisticsIdPKfPKbS2_E7getNPtsEv@Base 3.2.1
 _ZN8casacore19ClassicalStatisticsIdPKfPKbS2_E8_addDataEv@Base 3.2.1
 _ZN8casacore19ClassicalStatisticsIdPKfPKbS2_E9_doMinMaxERdS6_@Base 3.2.1
 _ZN8casacore19ClassicalStatisticsIdPKfPKbS2_E9getMedianENS_10CountedPtrIyEENS6_IdEES8_jbj@Base 3.2.1
 _ZN8casacore19ClassicalStatisticsIdPKfPKbS2_E9getMinMaxERdS6_@Base 3.2.1
 _ZN8casacore19ClassicalStatisticsIdPKfPKbS2_EC1ERKS5_@Base 3.2.1
 _ZN8casacore19ClassicalStatisticsIdPKfPKbS2_EC1Ev@Base 3.2.1
 _ZN8casacore19ClassicalStatisticsIdPKfPKbS2_EC2ERKS5_@Base 3.2.1
 _ZN8casacore19ClassicalStatisticsIdPKfPKbS2_EC2Ev@Base 3.2.1
 _ZN8casacore19ClassicalStatisticsIdPKfPKbS2_ED0Ev@Base 3.2.1
 _ZN8casacore19ClassicalStatisticsIdPKfPKbS2_ED1Ev@Base 3.2.1
 _ZN8casacore19ClassicalStatisticsIdPKfPKbS2_ED2Ev@Base 3.2.1
 _ZN8casacore19FitToHalfStatisticsIdNS_5ArrayIfE16ConstIteratorSTLENS1_IbE16ConstIteratorSTLES3_E12getQuantilesERKSt3setIdSt4lessIdESaIdEENS_10CountedPtrIyEENSE_IdEESG_jbj@Base 3.2.1
 _ZN8casacore19FitToHalfStatisticsIdNS_5ArrayIfE16ConstIteratorSTLENS1_IbE16ConstIteratorSTLES3_E13_getStatsDataEv@Base 3.2.1
 _ZN8casacore19FitToHalfStatisticsIdNS_5ArrayIfE16ConstIteratorSTLENS1_IbE16ConstIteratorSTLES3_E14_getRealMinMaxERdS7_@Base 3.2.1
 _ZN8casacore19FitToHalfStatisticsIdNS_5ArrayIfE16ConstIteratorSTLENS1_IbE16ConstIteratorSTLES3_E14_getStatisticsEv@Base 3.2.1
 _ZN8casacore19FitToHalfStatisticsIdNS_5ArrayIfE16ConstIteratorSTLENS1_IbE16ConstIteratorSTLES3_E14_weightedStatsERNS_9StatsDataIdEERSt4pairIxxERKS3_SE_yj@Base 3.2.1
 _ZN8casacore19FitToHalfStatisticsIdNS_5ArrayIfE16ConstIteratorSTLENS1_IbE16ConstIteratorSTLES3_E14_weightedStatsERNS_9StatsDataIdEERSt4pairIxxERKS3_SE_yjRKS5_j@Base 3.2.1
 _ZN8casacore19FitToHalfStatisticsIdNS_5ArrayIfE16ConstIteratorSTLENS1_IbE16ConstIteratorSTLES3_E14_weightedStatsERNS_9StatsDataIdEERSt4pairIxxERKS3_SE_yjRKS5_jRKSt6vectorISA_IddESaISI_EEb@Base 3.2.1
 _ZN8casacore19FitToHalfStatisticsIdNS_5ArrayIfE16ConstIteratorSTLENS1_IbE16ConstIteratorSTLES3_E14_weightedStatsERNS_9StatsDataIdEERSt4pairIxxERKS3_SE_yjRKSt6vectorISA_IddESaISG_EEb@Base 3.2.1
 _ZN8casacore19FitToHalfStatisticsIdNS_5ArrayIfE16ConstIteratorSTLENS1_IbE16ConstIteratorSTLES3_E16_unweightedStatsERNS_9StatsDataIdEERyRSt4pairIxxERKS3_yj@Base 3.2.1
 _ZN8casacore19FitToHalfStatisticsIdNS_5ArrayIfE16ConstIteratorSTLENS1_IbE16ConstIteratorSTLES3_E16_unweightedStatsERNS_9StatsDataIdEERyRSt4pairIxxERKS3_yjRKS5_j@Base 3.2.1
 _ZN8casacore19FitToHalfStatisticsIdNS_5ArrayIfE16ConstIteratorSTLENS1_IbE16ConstIteratorSTLES3_E16_unweightedStatsERNS_9StatsDataIdEERyRSt4pairIxxERKS3_yjRKS5_jRKSt6vectorISB_IddESaISJ_EEb@Base 3.2.1
 _ZN8casacore19FitToHalfStatisticsIdNS_5ArrayIfE16ConstIteratorSTLENS1_IbE16ConstIteratorSTLES3_E16_unweightedStatsERNS_9StatsDataIdEERyRSt4pairIxxERKS3_yjRKSt6vectorISB_IddESaISH_EEb@Base 3.2.1
 _ZN8casacore19FitToHalfStatisticsIdNS_5ArrayIfE16ConstIteratorSTLENS1_IbE16ConstIteratorSTLES3_E18getMedianAbsDevMedENS_10CountedPtrIyEENS7_IdEES9_jbj@Base 3.2.1
 _ZN8casacore19FitToHalfStatisticsIdNS_5ArrayIfE16ConstIteratorSTLENS1_IbE16ConstIteratorSTLES3_E19setCalculateAsAddedEb@Base 3.2.1
 _ZN8casacore19FitToHalfStatisticsIdNS_5ArrayIfE16ConstIteratorSTLENS1_IbE16ConstIteratorSTLES3_E19setStatsToCalculateERSt3setINS_14StatisticsData5STATSESt4lessIS9_ESaIS9_EE@Base 3.2.1
 _ZN8casacore19FitToHalfStatisticsIdNS_5ArrayIfE16ConstIteratorSTLENS1_IbE16ConstIteratorSTLES3_E21getMedianAndQuantilesERSt3mapIddSt4lessIdESaISt4pairIKddEEERKSt3setIdS9_SaIdEENS_10CountedPtrIyEENSL_IdEESN_jbj@Base 3.2.1
 _ZN8casacore19FitToHalfStatisticsIdNS_5ArrayIfE16ConstIteratorSTLENS1_IbE16ConstIteratorSTLES3_E25_updateDataProviderMaxMinERKNS_9StatsDataIdEE@Base 3.2.1
 _ZN8casacore19FitToHalfStatisticsIdNS_5ArrayIfE16ConstIteratorSTLENS1_IbE16ConstIteratorSTLES3_E5resetEv@Base 3.2.1
 _ZN8casacore19FitToHalfStatisticsIdNS_5ArrayIfE16ConstIteratorSTLENS1_IbE16ConstIteratorSTLES3_E7getNPtsEv@Base 3.2.1
 _ZN8casacore19FitToHalfStatisticsIdNS_5ArrayIfE16ConstIteratorSTLENS1_IbE16ConstIteratorSTLES3_E9_setRangeEv@Base 3.2.1
 _ZN8casacore19FitToHalfStatisticsIdNS_5ArrayIfE16ConstIteratorSTLENS1_IbE16ConstIteratorSTLES3_E9getMedianENS_10CountedPtrIyEENS7_IdEES9_jbj@Base 3.2.1
 _ZN8casacore19FitToHalfStatisticsIdNS_5ArrayIfE16ConstIteratorSTLENS1_IbE16ConstIteratorSTLES3_E9getMinMaxERdS7_@Base 3.2.1
 _ZN8casacore19FitToHalfStatisticsIdNS_5ArrayIfE16ConstIteratorSTLENS1_IbE16ConstIteratorSTLES3_EC1ENS_23FitToHalfStatisticsData6CENTERENS7_8USE_DATAEd@Base 3.2.1
 _ZN8casacore19FitToHalfStatisticsIdNS_5ArrayIfE16ConstIteratorSTLENS1_IbE16ConstIteratorSTLES3_EC2ENS_23FitToHalfStatisticsData6CENTERENS7_8USE_DATAEd@Base 3.2.1
 _ZN8casacore19FitToHalfStatisticsIdNS_5ArrayIfE16ConstIteratorSTLENS1_IbE16ConstIteratorSTLES3_ED0Ev@Base 3.2.1
 _ZN8casacore19FitToHalfStatisticsIdNS_5ArrayIfE16ConstIteratorSTLENS1_IbE16ConstIteratorSTLES3_ED1Ev@Base 3.2.1
 _ZN8casacore19FitToHalfStatisticsIdNS_5ArrayIfE16ConstIteratorSTLENS1_IbE16ConstIteratorSTLES3_ED2Ev@Base 3.2.1
 _ZN8casacore19FitToHalfStatisticsIdPKfPKbS2_E12getQuantilesERKSt3setIdSt4lessIdESaIdEENS_10CountedPtrIyEENSD_IdEESF_jbj@Base 3.2.1
 _ZN8casacore19FitToHalfStatisticsIdPKfPKbS2_E13_getStatsDataEv@Base 3.2.1
 _ZN8casacore19FitToHalfStatisticsIdPKfPKbS2_E14_getRealMinMaxERdS6_@Base 3.2.1
 _ZN8casacore19FitToHalfStatisticsIdPKfPKbS2_E14_getStatisticsEv@Base 3.2.1
 _ZN8casacore19FitToHalfStatisticsIdPKfPKbS2_E14_weightedStatsERNS_9StatsDataIdEERSt4pairIxxERKS2_SD_yj@Base 3.2.1
 _ZN8casacore19FitToHalfStatisticsIdPKfPKbS2_E14_weightedStatsERNS_9StatsDataIdEERSt4pairIxxERKS2_SD_yjRKS4_j@Base 3.2.1
 _ZN8casacore19FitToHalfStatisticsIdPKfPKbS2_E14_weightedStatsERNS_9StatsDataIdEERSt4pairIxxERKS2_SD_yjRKS4_jRKSt6vectorIS9_IddESaISH_EEb@Base 3.2.1
 _ZN8casacore19FitToHalfStatisticsIdPKfPKbS2_E14_weightedStatsERNS_9StatsDataIdEERSt4pairIxxERKS2_SD_yjRKSt6vectorIS9_IddESaISF_EEb@Base 3.2.1
 _ZN8casacore19FitToHalfStatisticsIdPKfPKbS2_E16_unweightedStatsERNS_9StatsDataIdEERyRSt4pairIxxERKS2_yj@Base 3.2.1
 _ZN8casacore19FitToHalfStatisticsIdPKfPKbS2_E16_unweightedStatsERNS_9StatsDataIdEERyRSt4pairIxxERKS2_yjRKS4_j@Base 3.2.1
 _ZN8casacore19FitToHalfStatisticsIdPKfPKbS2_E16_unweightedStatsERNS_9StatsDataIdEERyRSt4pairIxxERKS2_yjRKS4_jRKSt6vectorISA_IddESaISI_EEb@Base 3.2.1
 _ZN8casacore19FitToHalfStatisticsIdPKfPKbS2_E16_unweightedStatsERNS_9StatsDataIdEERyRSt4pairIxxERKS2_yjRKSt6vectorISA_IddESaISG_EEb@Base 3.2.1
 _ZN8casacore19FitToHalfStatisticsIdPKfPKbS2_E18getMedianAbsDevMedENS_10CountedPtrIyEENS6_IdEES8_jbj@Base 3.2.1
 _ZN8casacore19FitToHalfStatisticsIdPKfPKbS2_E19setCalculateAsAddedEb@Base 3.2.1
 _ZN8casacore19FitToHalfStatisticsIdPKfPKbS2_E19setStatsToCalculateERSt3setINS_14StatisticsData5STATSESt4lessIS8_ESaIS8_EE@Base 3.2.1
 _ZN8casacore19FitToHalfStatisticsIdPKfPKbS2_E21getMedianAndQuantilesERSt3mapIddSt4lessIdESaISt4pairIKddEEERKSt3setIdS8_SaIdEENS_10CountedPtrIyEENSK_IdEESM_jbj@Base 3.2.1
 _ZN8casacore19FitToHalfStatisticsIdPKfPKbS2_E25_updateDataProviderMaxMinERKNS_9StatsDataIdEE@Base 3.2.1
 _ZN8casacore19FitToHalfStatisticsIdPKfPKbS2_E5resetEv@Base 3.2.1
 _ZN8casacore19FitToHalfStatisticsIdPKfPKbS2_E7getNPtsEv@Base 3.2.1
 _ZN8casacore19FitToHalfStatisticsIdPKfPKbS2_E9_setRangeEv@Base 3.2.1
 _ZN8casacore19FitToHalfStatisticsIdPKfPKbS2_E9getMedianENS_10CountedPtrIyEENS6_IdEES8_jbj@Base 3.2.1
 _ZN8casacore19FitToHalfStatisticsIdPKfPKbS2_E9getMinMaxERdS6_@Base 3.2.1
 _ZN8casacore19FitToHalfStatisticsIdPKfPKbS2_EC1ENS_23FitToHalfStatisticsData6CENTERENS6_8USE_DATAEd@Base 3.2.1
 _ZN8casacore19FitToHalfStatisticsIdPKfPKbS2_EC2ENS_23FitToHalfStatisticsData6CENTERENS6_8USE_DATAEd@Base 3.2.1
 _ZN8casacore19FitToHalfStatisticsIdPKfPKbS2_ED0Ev@Base 3.2.1
 _ZN8casacore19FitToHalfStatisticsIdPKfPKbS2_ED1Ev@Base 3.2.1
 _ZN8casacore19FitToHalfStatisticsIdPKfPKbS2_ED2Ev@Base 3.2.1
 _ZN8casacore19LELFunctionDComplex17prepareScalarExprEv@Base 3.2.1
 _ZN8casacore19LELFunctionDComplex4lockENS_10FileLocker8LockTypeEj@Base 3.2.1
 _ZN8casacore19LELFunctionDComplex6resyncEv@Base 3.2.1
 _ZN8casacore19LELFunctionDComplex6unlockEv@Base 3.2.1
 _ZN8casacore19LELFunctionDComplexC1ENS_16LELFunctionEnums8FunctionERKNS_5BlockINS_15LatticeExprNodeEEE@Base 3.2.1
 _ZN8casacore19LELFunctionDComplexC2ENS_16LELFunctionEnums8FunctionERKNS_5BlockINS_15LatticeExprNodeEEE@Base 3.2.1
 _ZN8casacore19LELFunctionDComplexD0Ev@Base 3.2.1
 _ZN8casacore19LELFunctionDComplexD1Ev@Base 3.2.1
 _ZN8casacore19LELFunctionDComplexD2Ev@Base 3.2.1
 _ZN8casacore19LattStatsSpecialize10accumulateERSt7complexIdES3_S3_S3_S3_S3_RS1_IfES5_RKiS7_RbbS4_RKjS4_@Base 3.2.1
 _ZN8casacore19LattStatsSpecialize10accumulateERdS1_S1_S1_S1_S1_RfS2_RiS3_RbbfRKjf@Base 3.2.1
 _ZN8casacore19LattStatsSpecialize11getVarianceESt7complexIdES2_S2_@Base 3.2.1
 _ZN8casacore19LattStatsSpecialize11getVarianceEddd@Base 3.2.1
 _ZN8casacore19LattStatsSpecialize11usePixelExcESt7complexIfES2_S2_@Base 3.2.1
 _ZN8casacore19LattStatsSpecialize11usePixelExcEfff@Base 3.2.1
 _ZN8casacore19LattStatsSpecialize11usePixelIncESt7complexIfES2_S2_@Base 3.2.1
 _ZN8casacore19LattStatsSpecialize11usePixelIncEfff@Base 3.2.1
 _ZN8casacore19LattStatsSpecialize12setUseItTrueERSt7complexIfE@Base 3.2.1
 _ZN8casacore19LattStatsSpecialize12setUseItTrueERf@Base 3.2.1
 _ZN8casacore19LattStatsSpecialize13hasSomePointsESt7complexIdE@Base 3.2.1
 _ZN8casacore19LattStatsSpecialize13hasSomePointsEd@Base 3.2.1
 _ZN8casacore19LattStatsSpecialize17setIncludeExcludeERNS_6StringERNS_6VectorISt7complexIfEEERbS8_RKS6_SA_@Base 3.2.1
 _ZN8casacore19LattStatsSpecialize17setIncludeExcludeIfEEbRNS_6StringERNS_6VectorIT_EERbS8_RKS6_SA_@Base 3.2.1
 _ZN8casacore19LattStatsSpecialize18getNodeScalarValueERKNS_15LatticeExprNodeESt7complexIfE@Base 3.2.1
 _ZN8casacore19LattStatsSpecialize18getNodeScalarValueERKNS_15LatticeExprNodeEf@Base 3.2.1
 _ZN8casacore19LattStatsSpecialize3maxESt7complexIfES2_@Base 3.2.1
 _ZN8casacore19LattStatsSpecialize3maxEff@Base 3.2.1
 _ZN8casacore19LattStatsSpecialize3minESt7complexIfES2_@Base 3.2.1
 _ZN8casacore19LattStatsSpecialize3minEff@Base 3.2.1
 _ZN8casacore19LattStatsSpecialize6getRmsESt7complexIdES2_@Base 3.2.1
 _ZN8casacore19LattStatsSpecialize6getRmsEdd@Base 3.2.1
 _ZN8casacore19LattStatsSpecialize6minMaxERSt7complexIfES3_PKNS_13MaskedLatticeIS2_EERKNS_6VectorIS2_EEbb@Base 3.2.1
 _ZN8casacore19LattStatsSpecialize6minMaxERfS1_PKNS_13MaskedLatticeIfEERKNS_6VectorIfEEbb@Base 3.2.1
 _ZN8casacore19LattStatsSpecialize7getMeanESt7complexIdES2_@Base 3.2.1
 _ZN8casacore19LattStatsSpecialize7getMeanEdd@Base 3.2.1
 _ZN8casacore19LattStatsSpecialize8getSigmaESt7complexIdE@Base 3.2.1
 _ZN8casacore19LattStatsSpecialize8getSigmaESt7complexIdES2_S2_@Base 3.2.1
 _ZN8casacore19LattStatsSpecialize8getSigmaEd@Base 3.2.1
 _ZN8casacore19LattStatsSpecialize8getSigmaEddd@Base 3.2.1
 _ZN8casacore19LatticeHistProgress10nstepsDoneEj@Base 3.2.1
 _ZN8casacore19LatticeHistProgress11initDerivedEv@Base 3.2.1
 _ZN8casacore19LatticeHistProgress4doneEv@Base 3.2.1
 _ZN8casacore19LatticeHistProgressD0Ev@Base 3.2.1
 _ZN8casacore19LatticeHistProgressD1Ev@Base 3.2.1
 _ZN8casacore19LatticeHistProgressD2Ev@Base 3.2.1
 _ZN8casacore19StatisticsAlgorithmIdNS_5ArrayIfE16ConstIteratorSTLENS1_IbE16ConstIteratorSTLES3_E12getStatisticENS_14StatisticsData5STATSE@Base 3.2.1
 _ZN8casacore19StatisticsAlgorithmIdNS_5ArrayIfE16ConstIteratorSTLENS1_IbE16ConstIteratorSTLES3_E15setDataProviderEPNS_17StatsDataProviderIdS3_S5_S3_EE@Base 3.2.1
 _ZN8casacore19StatisticsAlgorithmIdNS_5ArrayIfE16ConstIteratorSTLENS1_IbE16ConstIteratorSTLES3_E19setStatsToCalculateERSt3setINS_14StatisticsData5STATSESt4lessIS9_ESaIS9_EE@Base 3.2.1
 _ZN8casacore19StatisticsAlgorithmIdNS_5ArrayIfE16ConstIteratorSTLENS1_IbE16ConstIteratorSTLES3_E5resetEv@Base 3.2.1
 _ZN8casacore19StatisticsAlgorithmIdNS_5ArrayIfE16ConstIteratorSTLENS1_IbE16ConstIteratorSTLES3_E8_addDataEv@Base 3.2.1
 _ZN8casacore19StatisticsAlgorithmIdNS_5ArrayIfE16ConstIteratorSTLENS1_IbE16ConstIteratorSTLES3_ED0Ev@Base 3.2.1
 _ZN8casacore19StatisticsAlgorithmIdNS_5ArrayIfE16ConstIteratorSTLENS1_IbE16ConstIteratorSTLES3_ED1Ev@Base 3.2.1
 _ZN8casacore19StatisticsAlgorithmIdNS_5ArrayIfE16ConstIteratorSTLENS1_IbE16ConstIteratorSTLES3_ED2Ev@Base 3.2.1
 _ZN8casacore19StatisticsAlgorithmIdPKfPKbS2_E12getStatisticENS_14StatisticsData5STATSE@Base 3.2.1
 _ZN8casacore19StatisticsAlgorithmIdPKfPKbS2_E15setDataProviderEPNS_17StatsDataProviderIdS2_S4_S2_EE@Base 3.2.1
 _ZN8casacore19StatisticsAlgorithmIdPKfPKbS2_E19setStatsToCalculateERSt3setINS_14StatisticsData5STATSESt4lessIS8_ESaIS8_EE@Base 3.2.1
 _ZN8casacore19StatisticsAlgorithmIdPKfPKbS2_E5resetEv@Base 3.2.1
 _ZN8casacore19StatisticsAlgorithmIdPKfPKbS2_E8_addDataEv@Base 3.2.1
 _ZN8casacore19StatisticsAlgorithmIdPKfPKbS2_ED0Ev@Base 3.2.1
 _ZN8casacore19StatisticsAlgorithmIdPKfPKbS2_ED1Ev@Base 3.2.1
 _ZN8casacore19StatisticsAlgorithmIdPKfPKbS2_ED2Ev@Base 3.2.1
 _ZN8casacore19StatisticsUtilitiesIdE11nThreadsMaxINS_5ArrayIfE16ConstIteratorSTLENS3_IbE16ConstIteratorSTLES5_EEjPKNS_17StatsDataProviderIdT_T0_T1_EE@Base 3.2.1
 _ZN8casacore19StatisticsUtilitiesIdE11nThreadsMaxIPKfPKbS4_EEjPKNS_17StatsDataProviderIdT_T0_T1_EE@Base 3.2.1
 _ZN8casacore19StatisticsUtilitiesIdE12mergeResultsERSt6vectorIS2_IySaIyEESaIS4_EERS2_INS_10CountedPtrIdEESaIS9_EERS2_IbSaIbEERKNS_9PtrHolderIS6_EERKNSG_ISB_EERKNSG_ISE_EEj@Base 3.2.1
 _ZN8casacore19StatisticsUtilitiesIdE14waccumulateSymISt4pairIxxEEEvRdS5_S5_S5_S5_S5_RT_S7_RKdS9_RKS6_S9_@Base 3.2.1
 _ZN8casacore19StatisticsUtilitiesIdE15indicesToValuesERSt6vectorIdSaIdEERKSt3setIySt4lessIyESaIyEE@Base 3.2.1
 _ZN8casacore19StatisticsUtilitiesIdE7combineERKSt6vectorINS_9StatsDataIdEESaIS4_EE@Base 3.2.1
 _ZN8casacore19StatsTiledCollapserIfdE14endAccumulatorERNS_5ArrayIdEERNS2_IbEERKNS_9IPositionE@Base 3.2.1
 _ZN8casacore19StatsTiledCollapserIfdE15initAccumulatorEyy@Base 3.2.1
 _ZN8casacore19StatsTiledCollapserIfdE4initEj@Base 3.2.1
 _ZN8casacore19StatsTiledCollapserIfdE7processEjjPKfPKbjjjRKNS_9IPositionES8_@Base 3.2.1
 _ZN8casacore19StatsTiledCollapserIfdED0Ev@Base 3.2.1
 _ZN8casacore19StatsTiledCollapserIfdED1Ev@Base 3.2.1
 _ZN8casacore19StatsTiledCollapserIfdED2Ev@Base 3.2.1
 _ZN8casacore19initializeStatsDataIdEENS_9StatsDataIT_EEv@Base 3.2.1
 _ZN8casacore20LatticeCleanProgress10basicSetUpEb@Base 3.2.1
 _ZN8casacore20LatticeCleanProgress10initializeEjRKfj@Base 3.2.1
 _ZN8casacore20LatticeCleanProgress17resizeDataStorageEv@Base 3.2.1
 _ZN8casacore20LatticeCleanProgress4infoEbiiRKNS_6VectorIfEERKNS_5BlockINS_9IPositionEEEfiRKS6_RKfS4_b@Base 3.2.1
 _ZN8casacore20LatticeCleanProgress7plotOneEiRKNS_6VectorIfEES4_@Base 3.2.1
 _ZN8casacore20LatticeCleanProgressC1EPNS_9PGPlotterE@Base 3.2.1
 _ZN8casacore20LatticeCleanProgressC2EPNS_9PGPlotterE@Base 3.2.1
 _ZN8casacore20LatticeCleanProgressD0Ev@Base 3.2.1
 _ZN8casacore20LatticeCleanProgressD1Ev@Base 3.2.1
 _ZN8casacore20LatticeCleanProgressD2Ev@Base 3.2.1
 _ZN8casacore20LatticeIterInterfaceISt7complexIdEE10cubeCursorEbb@Base 3.2.1
 _ZN8casacore20LatticeIterInterfaceISt7complexIdEE11rewriteDataEv@Base 3.2.1
 _ZN8casacore20LatticeIterInterfaceISt7complexIdEE12cursorUpdateEv@Base 3.2.1
 _ZN8casacore20LatticeIterInterfaceISt7complexIdEE12matrixCursorEbb@Base 3.2.1
 _ZN8casacore20LatticeIterInterfaceISt7complexIdEE12vectorCursorEbb@Base 3.2.1
 _ZN8casacore20LatticeIterInterfaceISt7complexIdEE14allocateBufferEv@Base 3.2.1
 _ZN8casacore20LatticeIterInterfaceISt7complexIdEE14allocateCurPtrEv@Base 3.2.1
 _ZN8casacore20LatticeIterInterfaceISt7complexIdEE16setCurPtr2CursorEv@Base 3.2.1
 _ZN8casacore20LatticeIterInterfaceISt7complexIdEE5resetEv@Base 3.2.1
 _ZN8casacore20LatticeIterInterfaceISt7complexIdEE6cursorEbb@Base 3.2.1
 _ZN8casacore20LatticeIterInterfaceISt7complexIdEE8copyBaseERKS3_@Base 3.2.1
 _ZN8casacore20LatticeIterInterfaceISt7complexIdEE8readDataEb@Base 3.2.1
 _ZN8casacore20LatticeIterInterfaceISt7complexIdEEC1ERKNS_7LatticeIS2_EERKNS_16LatticeNavigatorEb@Base 3.2.1
 _ZN8casacore20LatticeIterInterfaceISt7complexIdEEC2ERKNS_7LatticeIS2_EERKNS_16LatticeNavigatorEb@Base 3.2.1
 _ZN8casacore20LatticeIterInterfaceISt7complexIdEED0Ev@Base 3.2.1
 _ZN8casacore20LatticeIterInterfaceISt7complexIdEED1Ev@Base 3.2.1
 _ZN8casacore20LatticeIterInterfaceISt7complexIdEED2Ev@Base 3.2.1
 _ZN8casacore20LatticeIterInterfaceISt7complexIfEE10cubeCursorEbb@Base 3.2.1
 _ZN8casacore20LatticeIterInterfaceISt7complexIfEE11rewriteDataEv@Base 3.2.1
 _ZN8casacore20LatticeIterInterfaceISt7complexIfEE12cursorUpdateEv@Base 3.2.1
 _ZN8casacore20LatticeIterInterfaceISt7complexIfEE12matrixCursorEbb@Base 3.2.1
 _ZN8casacore20LatticeIterInterfaceISt7complexIfEE12vectorCursorEbb@Base 3.2.1
 _ZN8casacore20LatticeIterInterfaceISt7complexIfEE14allocateBufferEv@Base 3.2.1
 _ZN8casacore20LatticeIterInterfaceISt7complexIfEE14allocateCurPtrEv@Base 3.2.1
 _ZN8casacore20LatticeIterInterfaceISt7complexIfEE16setCurPtr2CursorEv@Base 3.2.1
 _ZN8casacore20LatticeIterInterfaceISt7complexIfEE5resetEv@Base 3.2.1
 _ZN8casacore20LatticeIterInterfaceISt7complexIfEE6cursorEbb@Base 3.2.1
 _ZN8casacore20LatticeIterInterfaceISt7complexIfEE8copyBaseERKS3_@Base 3.2.1
 _ZN8casacore20LatticeIterInterfaceISt7complexIfEE8readDataEb@Base 3.2.1
 _ZN8casacore20LatticeIterInterfaceISt7complexIfEEC1ERKNS_7LatticeIS2_EERKNS_16LatticeNavigatorEb@Base 3.2.1
 _ZN8casacore20LatticeIterInterfaceISt7complexIfEEC1ERKS3_@Base 3.2.1
 _ZN8casacore20LatticeIterInterfaceISt7complexIfEEC2ERKNS_7LatticeIS2_EERKNS_16LatticeNavigatorEb@Base 3.2.1
 _ZN8casacore20LatticeIterInterfaceISt7complexIfEEC2ERKS3_@Base 3.2.1
 _ZN8casacore20LatticeIterInterfaceISt7complexIfEED0Ev@Base 3.2.1
 _ZN8casacore20LatticeIterInterfaceISt7complexIfEED1Ev@Base 3.2.1
 _ZN8casacore20LatticeIterInterfaceISt7complexIfEED2Ev@Base 3.2.1
 _ZN8casacore20LatticeIterInterfaceIbE10cubeCursorEbb@Base 3.2.1
 _ZN8casacore20LatticeIterInterfaceIbE11rewriteDataEv@Base 3.2.1
 _ZN8casacore20LatticeIterInterfaceIbE12cursorUpdateEv@Base 3.2.1
 _ZN8casacore20LatticeIterInterfaceIbE12matrixCursorEbb@Base 3.2.1
 _ZN8casacore20LatticeIterInterfaceIbE12vectorCursorEbb@Base 3.2.1
 _ZN8casacore20LatticeIterInterfaceIbE14allocateBufferEv@Base 3.2.1
 _ZN8casacore20LatticeIterInterfaceIbE14allocateCurPtrEv@Base 3.2.1
 _ZN8casacore20LatticeIterInterfaceIbE16setCurPtr2CursorEv@Base 3.2.1
 _ZN8casacore20LatticeIterInterfaceIbE5resetEv@Base 3.2.1
 _ZN8casacore20LatticeIterInterfaceIbE6cursorEbb@Base 3.2.1
 _ZN8casacore20LatticeIterInterfaceIbE8copyBaseERKS1_@Base 3.2.1
 _ZN8casacore20LatticeIterInterfaceIbE8readDataEb@Base 3.2.1
 _ZN8casacore20LatticeIterInterfaceIbEC1ERKNS_7LatticeIbEERKNS_16LatticeNavigatorEb@Base 3.2.1
 _ZN8casacore20LatticeIterInterfaceIbEC1ERKS1_@Base 3.2.1
 _ZN8casacore20LatticeIterInterfaceIbEC2ERKNS_7LatticeIbEERKNS_16LatticeNavigatorEb@Base 3.2.1
 _ZN8casacore20LatticeIterInterfaceIbEC2ERKS1_@Base 3.2.1
 _ZN8casacore20LatticeIterInterfaceIbED0Ev@Base 3.2.1
 _ZN8casacore20LatticeIterInterfaceIbED1Ev@Base 3.2.1
 _ZN8casacore20LatticeIterInterfaceIbED2Ev@Base 3.2.1
 _ZN8casacore20LatticeIterInterfaceIdE10cubeCursorEbb@Base 3.2.1
 _ZN8casacore20LatticeIterInterfaceIdE11rewriteDataEv@Base 3.2.1
 _ZN8casacore20LatticeIterInterfaceIdE12cursorUpdateEv@Base 3.2.1
 _ZN8casacore20LatticeIterInterfaceIdE12matrixCursorEbb@Base 3.2.1
 _ZN8casacore20LatticeIterInterfaceIdE12vectorCursorEbb@Base 3.2.1
 _ZN8casacore20LatticeIterInterfaceIdE14allocateBufferEv@Base 3.2.1
 _ZN8casacore20LatticeIterInterfaceIdE14allocateCurPtrEv@Base 3.2.1
 _ZN8casacore20LatticeIterInterfaceIdE16setCurPtr2CursorEv@Base 3.2.1
 _ZN8casacore20LatticeIterInterfaceIdE5resetEv@Base 3.2.1
 _ZN8casacore20LatticeIterInterfaceIdE6cursorEbb@Base 3.2.1
 _ZN8casacore20LatticeIterInterfaceIdE8copyBaseERKS1_@Base 3.2.1
 _ZN8casacore20LatticeIterInterfaceIdE8readDataEb@Base 3.2.1
 _ZN8casacore20LatticeIterInterfaceIdEC1ERKNS_7LatticeIdEERKNS_16LatticeNavigatorEb@Base 3.2.1
 _ZN8casacore20LatticeIterInterfaceIdEC1ERKS1_@Base 3.2.1
 _ZN8casacore20LatticeIterInterfaceIdEC2ERKNS_7LatticeIdEERKNS_16LatticeNavigatorEb@Base 3.2.1
 _ZN8casacore20LatticeIterInterfaceIdEC2ERKS1_@Base 3.2.1
 _ZN8casacore20LatticeIterInterfaceIdED0Ev@Base 3.2.1
 _ZN8casacore20LatticeIterInterfaceIdED1Ev@Base 3.2.1
 _ZN8casacore20LatticeIterInterfaceIdED2Ev@Base 3.2.1
 _ZN8casacore20LatticeIterInterfaceIfE10cubeCursorEbb@Base 3.2.1
 _ZN8casacore20LatticeIterInterfaceIfE11rewriteDataEv@Base 3.2.1
 _ZN8casacore20LatticeIterInterfaceIfE12cursorUpdateEv@Base 3.2.1
 _ZN8casacore20LatticeIterInterfaceIfE12matrixCursorEbb@Base 3.2.1
 _ZN8casacore20LatticeIterInterfaceIfE12vectorCursorEbb@Base 3.2.1
 _ZN8casacore20LatticeIterInterfaceIfE14allocateBufferEv@Base 3.2.1
 _ZN8casacore20LatticeIterInterfaceIfE14allocateCurPtrEv@Base 3.2.1
 _ZN8casacore20LatticeIterInterfaceIfE16setCurPtr2CursorEv@Base 3.2.1
 _ZN8casacore20LatticeIterInterfaceIfE5resetEv@Base 3.2.1
 _ZN8casacore20LatticeIterInterfaceIfE6cursorEbb@Base 3.2.1
 _ZN8casacore20LatticeIterInterfaceIfE7latticeEv@Base 3.2.1
 _ZN8casacore20LatticeIterInterfaceIfE8copyBaseERKS1_@Base 3.2.1
 _ZN8casacore20LatticeIterInterfaceIfE8readDataEb@Base 3.2.1
 _ZN8casacore20LatticeIterInterfaceIfEC1ERKNS_7LatticeIfEERKNS_16LatticeNavigatorEb@Base 3.2.1
 _ZN8casacore20LatticeIterInterfaceIfEC1ERKS1_@Base 3.2.1
 _ZN8casacore20LatticeIterInterfaceIfEC1Ev@Base 3.2.1
 _ZN8casacore20LatticeIterInterfaceIfEC2ERKNS_7LatticeIfEERKNS_16LatticeNavigatorEb@Base 3.2.1
 _ZN8casacore20LatticeIterInterfaceIfEC2ERKS1_@Base 3.2.1
 _ZN8casacore20LatticeIterInterfaceIfEC2Ev@Base 3.2.1
 _ZN8casacore20LatticeIterInterfaceIfED0Ev@Base 3.2.1
 _ZN8casacore20LatticeIterInterfaceIfED1Ev@Base 3.2.1
 _ZN8casacore20LatticeIterInterfaceIfED2Ev@Base 3.2.1
 _ZN8casacore20LatticeIterInterfaceIfEaSERKS1_@Base 3.2.1
 _ZN8casacore20LatticeIterInterfaceIfEmmEi@Base 3.2.1
 _ZN8casacore20LatticeIterInterfaceIfEmmEv@Base 3.2.1
 _ZN8casacore20LatticeIterInterfaceIfEppEi@Base 3.2.1
 _ZN8casacore20LatticeIterInterfaceIfEppEv@Base 3.2.1
 _ZN8casacore21ArrayPositionIteratorD0Ev@Base 3.2.1
 _ZN8casacore21ArrayPositionIteratorD1Ev@Base 3.2.1
 _ZN8casacore21ArrayPositionIteratorD2Ev@Base 3.2.1
 _ZN8casacore21LatticeHistSpecialize11setBinWidthESt7complexIfES2_j@Base 3.2.1
 _ZN8casacore21LatticeHistSpecialize11setBinWidthEffj@Base 3.2.1
 _ZN8casacore21LatticeHistSpecialize14makeCumulativeERNS_6VectorISt7complexIfEEERS3_jf@Base 3.2.1
 _ZN8casacore21LatticeHistSpecialize15makeLogarithmicERNS_6VectorISt7complexIfEEERS3_j@Base 3.2.1
 _ZN8casacore21LatticeHistSpecialize3binEfffj@Base 3.2.1
 _ZN8casacore21LatticeHistSpecialize3mulESt7complexIfES2_@Base 3.2.1
 _ZN8casacore21LatticeHistSpecialize3mulEff@Base 3.2.1
 _ZN8casacore21LatticeHistSpecialize4plotERNS_9PGPlotterEbbbSt7complexIfES4_S4_RKNS_6VectorIS4_EES8_S8_jjb@Base 3.2.1
 _ZN8casacore21LatticeHistSpecialize4plotERNS_9PGPlotterEbbbfffRKNS_6VectorIfEES6_S6_jjb@Base 3.2.1
 _ZN8casacore21LatticeHistSpecialize7processEPKSt7complexIfEPKbPNS_5BlockIS2_EERKNS_6VectorIS2_EES2_jjjjj@Base 3.2.1
 _ZN8casacore21LatticeHistSpecialize8plotHistERKNS_6VectorIfEES4_RNS_9PGPlotterE@Base 3.2.1
 _ZN8casacore21LatticeHistSpecialize9makeGaussERjRfRNS_6VectorIfEES5_ffffffbb@Base 3.2.1
 _ZN8casacore21arrayTransformInPlaceISt7complexIdES2_St10multipliesIS2_EEEvRNS_5ArrayIT_EERKNS5_IT0_EET1_@Base 3.2.1
 _ZN8casacore21arrayTransformInPlaceISt7complexIdES2_St10multipliesIS2_EEEvRNS_5ArrayIT_EET0_T1_@Base 3.2.1
 _ZN8casacore21arrayTransformInPlaceISt7complexIdES2_St4plusIS2_EEEvRNS_5ArrayIT_EERKNS5_IT0_EET1_@Base 3.2.1
 _ZN8casacore21arrayTransformInPlaceISt7complexIdES2_St4plusIS2_EEEvRNS_5ArrayIT_EET0_T1_@Base 3.2.1
 _ZN8casacore21arrayTransformInPlaceISt7complexIdES2_St5minusIS2_EEEvRNS_5ArrayIT_EERKNS5_IT0_EET1_@Base 3.2.1
 _ZN8casacore21arrayTransformInPlaceISt7complexIdES2_St7dividesIS2_EEEvRNS_5ArrayIT_EERKNS5_IT0_EET1_@Base 3.2.1
 _ZN8casacore21arrayTransformInPlaceISt7complexIfES2_St10multipliesIS2_EEEvRNS_5ArrayIT_EET0_T1_@Base 3.2.1
 _ZN8casacore21arrayTransformInPlaceISt7complexIfES2_St4plusIS2_EEEvRNS_5ArrayIT_EET0_T1_@Base 3.2.1
 _ZN8casacore21arrayTransformInPlaceISt7complexIfES2_St5minusIS2_EEEvRNS_5ArrayIT_EET0_T1_@Base 3.2.1
 _ZN8casacore21arrayTransformInPlaceISt7complexIfES2_St7dividesIS2_EEEvRNS_5ArrayIT_EET0_T1_@Base 3.2.1
 _ZN8casacore21arrayTransformInPlaceIddSt10multipliesIdEEEvRNS_5ArrayIT_EERKNS3_IT0_EET1_@Base 3.2.1
 _ZN8casacore21arrayTransformInPlaceIddSt10multipliesIdEEEvRNS_5ArrayIT_EET0_T1_@Base 3.2.1
 _ZN8casacore21arrayTransformInPlaceIddSt4plusIdEEEvRNS_5ArrayIT_EERKNS3_IT0_EET1_@Base 3.2.1
 _ZN8casacore21arrayTransformInPlaceIddSt4plusIdEEEvRNS_5ArrayIT_EET0_T1_@Base 3.2.1
 _ZN8casacore21arrayTransformInPlaceIddSt5minusIdEEEvRNS_5ArrayIT_EERKNS3_IT0_EET1_@Base 3.2.1
 _ZN8casacore21arrayTransformInPlaceIddSt5minusIdEEEvRNS_5ArrayIT_EET0_T1_@Base 3.2.1
 _ZN8casacore21arrayTransformInPlaceIddSt7dividesIdEEEvRNS_5ArrayIT_EERKNS3_IT0_EET1_@Base 3.2.1
 _ZN8casacore21arrayTransformInPlaceIddSt7dividesIdEEEvRNS_5ArrayIT_EET0_T1_@Base 3.2.1
 _ZN8casacore21arrayTransformInPlaceIffSt10multipliesIfEEEvRNS_5ArrayIT_EET0_T1_@Base 3.2.1
 _ZN8casacore21arrayTransformInPlaceIffSt4plusIfEEEvRNS_5ArrayIT_EET0_T1_@Base 3.2.1
 _ZN8casacore21arrayTransformInPlaceIffSt5minusIfEEEvRNS_5ArrayIT_EET0_T1_@Base 3.2.1
 _ZN8casacore21arrayTransformInPlaceIffSt7dividesIfEEEvRNS_5ArrayIT_EET0_T1_@Base 3.2.1
 _ZN8casacore22HingesFencesStatisticsIdNS_5ArrayIfE16ConstIteratorSTLENS1_IbE16ConstIteratorSTLES3_E14_weightedStatsERNS_9StatsDataIdEERSt4pairIxxERKS3_SE_yj@Base 3.2.1
 _ZN8casacore22HingesFencesStatisticsIdNS_5ArrayIfE16ConstIteratorSTLENS1_IbE16ConstIteratorSTLES3_E14_weightedStatsERNS_9StatsDataIdEERSt4pairIxxERKS3_SE_yjRKS5_j@Base 3.2.1
 _ZN8casacore22HingesFencesStatisticsIdNS_5ArrayIfE16ConstIteratorSTLENS1_IbE16ConstIteratorSTLES3_E14_weightedStatsERNS_9StatsDataIdEERSt4pairIxxERKS3_SE_yjRKS5_jRKSt6vectorISA_IddESaISI_EEb@Base 3.2.1
 _ZN8casacore22HingesFencesStatisticsIdNS_5ArrayIfE16ConstIteratorSTLENS1_IbE16ConstIteratorSTLES3_E14_weightedStatsERNS_9StatsDataIdEERSt4pairIxxERKS3_SE_yjRKSt6vectorISA_IddESaISG_EEb@Base 3.2.1
 _ZN8casacore22HingesFencesStatisticsIdNS_5ArrayIfE16ConstIteratorSTLENS1_IbE16ConstIteratorSTLES3_E16_unweightedStatsERNS_9StatsDataIdEERyRSt4pairIxxERKS3_yj@Base 3.2.1
 _ZN8casacore22HingesFencesStatisticsIdNS_5ArrayIfE16ConstIteratorSTLENS1_IbE16ConstIteratorSTLES3_E16_unweightedStatsERNS_9StatsDataIdEERyRSt4pairIxxERKS3_yjRKS5_j@Base 3.2.1
 _ZN8casacore22HingesFencesStatisticsIdNS_5ArrayIfE16ConstIteratorSTLENS1_IbE16ConstIteratorSTLES3_E16_unweightedStatsERNS_9StatsDataIdEERyRSt4pairIxxERKS3_yjRKS5_jRKSt6vectorISB_IddESaISJ_EEb@Base 3.2.1
 _ZN8casacore22HingesFencesStatisticsIdNS_5ArrayIfE16ConstIteratorSTLENS1_IbE16ConstIteratorSTLES3_E16_unweightedStatsERNS_9StatsDataIdEERyRSt4pairIxxERKS3_yjRKSt6vectorISB_IddESaISH_EEb@Base 3.2.1
 _ZN8casacore22HingesFencesStatisticsIdNS_5ArrayIfE16ConstIteratorSTLENS1_IbE16ConstIteratorSTLES3_E19setCalculateAsAddedEb@Base 3.2.1
 _ZN8casacore22HingesFencesStatisticsIdNS_5ArrayIfE16ConstIteratorSTLENS1_IbE16ConstIteratorSTLES3_E5resetEv@Base 3.2.1
 _ZN8casacore22HingesFencesStatisticsIdNS_5ArrayIfE16ConstIteratorSTLENS1_IbE16ConstIteratorSTLES3_E9_setRangeEv@Base 3.2.1
 _ZN8casacore22HingesFencesStatisticsIdNS_5ArrayIfE16ConstIteratorSTLENS1_IbE16ConstIteratorSTLES3_EC1Ed@Base 3.2.1
 _ZN8casacore22HingesFencesStatisticsIdNS_5ArrayIfE16ConstIteratorSTLENS1_IbE16ConstIteratorSTLES3_EC2Ed@Base 3.2.1
 _ZN8casacore22HingesFencesStatisticsIdNS_5ArrayIfE16ConstIteratorSTLENS1_IbE16ConstIteratorSTLES3_ED0Ev@Base 3.2.1
 _ZN8casacore22HingesFencesStatisticsIdNS_5ArrayIfE16ConstIteratorSTLENS1_IbE16ConstIteratorSTLES3_ED1Ev@Base 3.2.1
 _ZN8casacore22HingesFencesStatisticsIdNS_5ArrayIfE16ConstIteratorSTLENS1_IbE16ConstIteratorSTLES3_ED2Ev@Base 3.2.1
 _ZN8casacore22HingesFencesStatisticsIdPKfPKbS2_E14_weightedStatsERNS_9StatsDataIdEERSt4pairIxxERKS2_SD_yj@Base 3.2.1
 _ZN8casacore22HingesFencesStatisticsIdPKfPKbS2_E14_weightedStatsERNS_9StatsDataIdEERSt4pairIxxERKS2_SD_yjRKS4_j@Base 3.2.1
 _ZN8casacore22HingesFencesStatisticsIdPKfPKbS2_E14_weightedStatsERNS_9StatsDataIdEERSt4pairIxxERKS2_SD_yjRKS4_jRKSt6vectorIS9_IddESaISH_EEb@Base 3.2.1
 _ZN8casacore22HingesFencesStatisticsIdPKfPKbS2_E14_weightedStatsERNS_9StatsDataIdEERSt4pairIxxERKS2_SD_yjRKSt6vectorIS9_IddESaISF_EEb@Base 3.2.1
 _ZN8casacore22HingesFencesStatisticsIdPKfPKbS2_E16_unweightedStatsERNS_9StatsDataIdEERyRSt4pairIxxERKS2_yj@Base 3.2.1
 _ZN8casacore22HingesFencesStatisticsIdPKfPKbS2_E16_unweightedStatsERNS_9StatsDataIdEERyRSt4pairIxxERKS2_yjRKS4_j@Base 3.2.1
 _ZN8casacore22HingesFencesStatisticsIdPKfPKbS2_E16_unweightedStatsERNS_9StatsDataIdEERyRSt4pairIxxERKS2_yjRKS4_jRKSt6vectorISA_IddESaISI_EEb@Base 3.2.1
 _ZN8casacore22HingesFencesStatisticsIdPKfPKbS2_E16_unweightedStatsERNS_9StatsDataIdEERyRSt4pairIxxERKS2_yjRKSt6vectorISA_IddESaISG_EEb@Base 3.2.1
 _ZN8casacore22HingesFencesStatisticsIdPKfPKbS2_E19setCalculateAsAddedEb@Base 3.2.1
 _ZN8casacore22HingesFencesStatisticsIdPKfPKbS2_E5resetEv@Base 3.2.1
 _ZN8casacore22HingesFencesStatisticsIdPKfPKbS2_E9_setRangeEv@Base 3.2.1
 _ZN8casacore22HingesFencesStatisticsIdPKfPKbS2_EC1Ed@Base 3.2.1
 _ZN8casacore22HingesFencesStatisticsIdPKfPKbS2_EC2Ed@Base 3.2.1
 _ZN8casacore22HingesFencesStatisticsIdPKfPKbS2_ED0Ev@Base 3.2.1
 _ZN8casacore22HingesFencesStatisticsIdPKfPKbS2_ED1Ev@Base 3.2.1
 _ZN8casacore22HingesFencesStatisticsIdPKfPKbS2_ED2Ev@Base 3.2.1
 _ZN8casacore24LatticeStatsDataProviderIfE10setLatticeERKNS_7LatticeIfEEj@Base 3.2.1
 _ZN8casacore24LatticeStatsDataProviderIfE12updateMaxPosERKSt4pairIxxE@Base 3.2.1
 _ZN8casacore24LatticeStatsDataProviderIfE12updateMinPosERKSt4pairIxxE@Base 3.2.1
 _ZN8casacore24LatticeStatsDataProviderIfE5resetEv@Base 3.2.1
 _ZN8casacore24LatticeStatsDataProviderIfE7getDataEv@Base 3.2.1
 _ZN8casacore24LatticeStatsDataProviderIfE7getMaskEv@Base 3.2.1
 _ZN8casacore24LatticeStatsDataProviderIfE8finalizeEv@Base 3.2.1
 _ZN8casacore24LatticeStatsDataProviderIfE8getCountEv@Base 3.2.1
 _ZN8casacore24LatticeStatsDataProviderIfEC1Ev@Base 3.2.1
 _ZN8casacore24LatticeStatsDataProviderIfEC2Ev@Base 3.2.1
 _ZN8casacore24LatticeStatsDataProviderIfED0Ev@Base 3.2.1
 _ZN8casacore24LatticeStatsDataProviderIfED1Ev@Base 3.2.1
 _ZN8casacore24LatticeStatsDataProviderIfED2Ev@Base 3.2.1
 _ZN8casacore24LatticeStatsDataProviderIfEppEv@Base 3.2.1
 _ZN8casacore24RO_MaskedLatticeIteratorISt7complexIdEE7fillPtrERKNS_13MaskedLatticeIS2_EE@Base 3.2.1
 _ZN8casacore24RO_MaskedLatticeIteratorISt7complexIdEEC1ERKNS_13MaskedLatticeIS2_EEb@Base 3.2.1
 _ZN8casacore24RO_MaskedLatticeIteratorISt7complexIdEEC2ERKNS_13MaskedLatticeIS2_EEb@Base 3.2.1
 _ZN8casacore24RO_MaskedLatticeIteratorISt7complexIdEED1Ev@Base 3.2.1
 _ZN8casacore24RO_MaskedLatticeIteratorISt7complexIdEED2Ev@Base 3.2.1
 _ZN8casacore24RO_MaskedLatticeIteratorISt7complexIfEE7fillPtrERKNS_13MaskedLatticeIS2_EE@Base 3.2.1
 _ZN8casacore24RO_MaskedLatticeIteratorISt7complexIfEEC1ERKNS_13MaskedLatticeIS2_EEb@Base 3.2.1
 _ZN8casacore24RO_MaskedLatticeIteratorISt7complexIfEEC2ERKNS_13MaskedLatticeIS2_EEb@Base 3.2.1
 _ZN8casacore24RO_MaskedLatticeIteratorISt7complexIfEED1Ev@Base 3.2.1
 _ZN8casacore24RO_MaskedLatticeIteratorISt7complexIfEED2Ev@Base 3.2.1
 _ZN8casacore24RO_MaskedLatticeIteratorIbE7fillPtrERKNS_13MaskedLatticeIbEE@Base 3.2.1
 _ZN8casacore24RO_MaskedLatticeIteratorIbEC1ERKNS_13MaskedLatticeIbEEb@Base 3.2.1
 _ZN8casacore24RO_MaskedLatticeIteratorIbEC2ERKNS_13MaskedLatticeIbEEb@Base 3.2.1
 _ZN8casacore24RO_MaskedLatticeIteratorIbED1Ev@Base 3.2.1
 _ZN8casacore24RO_MaskedLatticeIteratorIbED2Ev@Base 3.2.1
 _ZN8casacore24RO_MaskedLatticeIteratorIdE7fillPtrERKNS_13MaskedLatticeIdEE@Base 3.2.1
 _ZN8casacore24RO_MaskedLatticeIteratorIdEC1ERKNS_13MaskedLatticeIdEEb@Base 3.2.1
 _ZN8casacore24RO_MaskedLatticeIteratorIdEC2ERKNS_13MaskedLatticeIdEEb@Base 3.2.1
 _ZN8casacore24RO_MaskedLatticeIteratorIdED1Ev@Base 3.2.1
 _ZN8casacore24RO_MaskedLatticeIteratorIdED2Ev@Base 3.2.1
 _ZN8casacore24RO_MaskedLatticeIteratorIfE7fillPtrERKNS_13MaskedLatticeIfEE@Base 3.2.1
 _ZN8casacore24RO_MaskedLatticeIteratorIfEC1ERKNS_13MaskedLatticeIfEERKNS_16LatticeNavigatorEb@Base 3.2.1
 _ZN8casacore24RO_MaskedLatticeIteratorIfEC1ERKNS_13MaskedLatticeIfEEb@Base 3.2.1
 _ZN8casacore24RO_MaskedLatticeIteratorIfEC2ERKNS_13MaskedLatticeIfEERKNS_16LatticeNavigatorEb@Base 3.2.1
 _ZN8casacore24RO_MaskedLatticeIteratorIfEC2ERKNS_13MaskedLatticeIfEEb@Base 3.2.1
 _ZN8casacore24RO_MaskedLatticeIteratorIfED1Ev@Base 3.2.1
 _ZN8casacore24RO_MaskedLatticeIteratorIfED2Ev@Base 3.2.1
 _ZN8casacore25ClassicalQuantileComputerIdNS_5ArrayIfE16ConstIteratorSTLENS1_IbE16ConstIteratorSTLES3_E10_binCountsERSt6vectorINS_10CountedPtrIdEESaIS9_EERKS7_INS_14StatsHistogramIdEESaISE_EE@Base 3.2.1
 _ZN8casacore25ClassicalQuantileComputerIdNS_5ArrayIfE16ConstIteratorSTLENS1_IbE16ConstIteratorSTLES3_E12_computeBinsERSt6vectorIS7_IySaIyEESaIS9_EERS7_INS_10CountedPtrIdEESaISE_EERS7_IbSaIbEES3_S5_S3_yRKS7_INS_14StatsHistogramIdEESaISM_EERKS7_IdSaIdEERKNS_17StatisticsDatasetIdS3_S5_S3_E9ChunkDataE@Base 3.2.1
 _ZN8casacore25ClassicalQuantileComputerIdNS_5ArrayIfE16ConstIteratorSTLENS1_IbE16ConstIteratorSTLES3_E12getQuantilesERKSt3setIdSt4lessIdESaIdEEyddjbj@Base 3.2.1
 _ZN8casacore25ClassicalQuantileComputerIdNS_5ArrayIfE16ConstIteratorSTLENS1_IbE16ConstIteratorSTLES3_E14_medianIndicesEy@Base 3.2.1
 _ZN8casacore25ClassicalQuantileComputerIdNS_5ArrayIfE16ConstIteratorSTLENS1_IbE16ConstIteratorSTLES3_E16_createDataArrayERSt6vectorIdSaIdEE@Base 3.2.1
 _ZN8casacore25ClassicalQuantileComputerIdNS_5ArrayIfE16ConstIteratorSTLENS1_IbE16ConstIteratorSTLES3_E16_indicesToValuesEyddyRKSt3setIySt4lessIyESaIyEEbj@Base 3.2.1
 _ZN8casacore25ClassicalQuantileComputerIdNS_5ArrayIfE16ConstIteratorSTLENS1_IbE16ConstIteratorSTLES3_E17_computeDataArrayERSt6vectorIdSaIdEES3_S5_S3_yRKNS_17StatisticsDatasetIdS3_S5_S3_E9ChunkDataE@Base 3.2.1
 _ZN8casacore25ClassicalQuantileComputerIdNS_5ArrayIfE16ConstIteratorSTLENS1_IbE16ConstIteratorSTLES3_E17_createDataArraysERSt6vectorIS7_IdSaIdEESaIS9_EERKS7_ISt4pairIddESaISE_EEy@Base 3.2.1
 _ZN8casacore25ClassicalQuantileComputerIdNS_5ArrayIfE16ConstIteratorSTLENS1_IbE16ConstIteratorSTLES3_E18_computeDataArraysERSt6vectorIS7_IdSaIdEESaIS9_EERyS3_S5_S3_yRKS7_ISt4pairIddESaISF_EEyRKNS_17StatisticsDatasetIdS3_S5_S3_E9ChunkDataE@Base 3.2.1
 _ZN8casacore25ClassicalQuantileComputerIdNS_5ArrayIfE16ConstIteratorSTLENS1_IbE16ConstIteratorSTLES3_E18getMedianAbsDevMedEyddjbj@Base 3.2.1
 _ZN8casacore25ClassicalQuantileComputerIdNS_5ArrayIfE16ConstIteratorSTLENS1_IbE16ConstIteratorSTLES3_E19_dataFromSingleBinsERKSt6vectorIySaIyEEyRKS7_ISt4pairIddESaISD_EERKS7_ISt3setIySt4lessIyES8_ESaISL_EEj@Base 3.2.1
 _ZN8casacore25ClassicalQuantileComputerIdNS_5ArrayIfE16ConstIteratorSTLENS1_IbE16ConstIteratorSTLES3_E21_dataFromMultipleBinsERKSt6vectorINS_14StatsHistogramIdEESaIS9_EEyRKS7_ISt3setIySt4lessIyESaIyEESaISI_EEj@Base 3.2.1
 _ZN8casacore25ClassicalQuantileComputerIdNS_5ArrayIfE16ConstIteratorSTLENS1_IbE16ConstIteratorSTLES3_E21getMedianAndQuantilesERSt3mapIddSt4lessIdESaISt4pairIKddEEERKSt3setIdS9_SaIdEEyddjbj@Base 3.2.1
 _ZN8casacore25ClassicalQuantileComputerIdNS_5ArrayIfE16ConstIteratorSTLENS1_IbE16ConstIteratorSTLES3_E22_valuesFromSortedArrayERSt3mapIydSt4lessIyESaISt4pairIKydEEEyRKSt3setIyS9_SaIyEEyb@Base 3.2.1
 _ZN8casacore25ClassicalQuantileComputerIdNS_5ArrayIfE16ConstIteratorSTLENS1_IbE16ConstIteratorSTLES3_E5resetEv@Base 3.2.1
 _ZN8casacore25ClassicalQuantileComputerIdNS_5ArrayIfE16ConstIteratorSTLENS1_IbE16ConstIteratorSTLES3_E9getMedianEyddjbj@Base 3.2.1
 _ZN8casacore25ClassicalQuantileComputerIdNS_5ArrayIfE16ConstIteratorSTLENS1_IbE16ConstIteratorSTLES3_ED0Ev@Base 3.2.1
 _ZN8casacore25ClassicalQuantileComputerIdNS_5ArrayIfE16ConstIteratorSTLENS1_IbE16ConstIteratorSTLES3_ED1Ev@Base 3.2.1
 _ZN8casacore25ClassicalQuantileComputerIdNS_5ArrayIfE16ConstIteratorSTLENS1_IbE16ConstIteratorSTLES3_ED2Ev@Base 3.2.1
 _ZN8casacore25ClassicalQuantileComputerIdPKfPKbS2_E10_binCountsERSt6vectorINS_10CountedPtrIdEESaIS8_EERKS6_INS_14StatsHistogramIdEESaISD_EE@Base 3.2.1
 _ZN8casacore25ClassicalQuantileComputerIdPKfPKbS2_E12_computeBinsERSt6vectorIS6_IySaIyEESaIS8_EERS6_INS_10CountedPtrIdEESaISD_EERS6_IbSaIbEES2_S4_S2_yRKS6_INS_14StatsHistogramIdEESaISL_EERKS6_IdSaIdEERKNS_17StatisticsDatasetIdS2_S4_S2_E9ChunkDataE@Base 3.2.1
 _ZN8casacore25ClassicalQuantileComputerIdPKfPKbS2_E12getQuantilesERKSt3setIdSt4lessIdESaIdEEyddjbj@Base 3.2.1
 _ZN8casacore25ClassicalQuantileComputerIdPKfPKbS2_E14_medianIndicesEy@Base 3.2.1
 _ZN8casacore25ClassicalQuantileComputerIdPKfPKbS2_E16_createDataArrayERSt6vectorIdSaIdEE@Base 3.2.1
 _ZN8casacore25ClassicalQuantileComputerIdPKfPKbS2_E16_indicesToValuesEyddyRKSt3setIySt4lessIyESaIyEEbj@Base 3.2.1
 _ZN8casacore25ClassicalQuantileComputerIdPKfPKbS2_E17_computeDataArrayERSt6vectorIdSaIdEES2_S4_S2_yRKNS_17StatisticsDatasetIdS2_S4_S2_E9ChunkDataE@Base 3.2.1
 _ZN8casacore25ClassicalQuantileComputerIdPKfPKbS2_E17_createDataArraysERSt6vectorIS6_IdSaIdEESaIS8_EERKS6_ISt4pairIddESaISD_EEy@Base 3.2.1
 _ZN8casacore25ClassicalQuantileComputerIdPKfPKbS2_E18_computeDataArraysERSt6vectorIS6_IdSaIdEESaIS8_EERyS2_S4_S2_yRKS6_ISt4pairIddESaISE_EEyRKNS_17StatisticsDatasetIdS2_S4_S2_E9ChunkDataE@Base 3.2.1
 _ZN8casacore25ClassicalQuantileComputerIdPKfPKbS2_E18getMedianAbsDevMedEyddjbj@Base 3.2.1
 _ZN8casacore25ClassicalQuantileComputerIdPKfPKbS2_E19_dataFromSingleBinsERKSt6vectorIySaIyEEyRKS6_ISt4pairIddESaISC_EERKS6_ISt3setIySt4lessIyES7_ESaISK_EEj@Base 3.2.1
 _ZN8casacore25ClassicalQuantileComputerIdPKfPKbS2_E21_dataFromMultipleBinsERKSt6vectorINS_14StatsHistogramIdEESaIS8_EEyRKS6_ISt3setIySt4lessIyESaIyEESaISH_EEj@Base 3.2.1
 _ZN8casacore25ClassicalQuantileComputerIdPKfPKbS2_E21getMedianAndQuantilesERSt3mapIddSt4lessIdESaISt4pairIKddEEERKSt3setIdS8_SaIdEEyddjbj@Base 3.2.1
 _ZN8casacore25ClassicalQuantileComputerIdPKfPKbS2_E22_valuesFromSortedArrayERSt3mapIydSt4lessIyESaISt4pairIKydEEEyRKSt3setIyS8_SaIyEEyb@Base 3.2.1
 _ZN8casacore25ClassicalQuantileComputerIdPKfPKbS2_E5resetEv@Base 3.2.1
 _ZN8casacore25ClassicalQuantileComputerIdPKfPKbS2_E9getMedianEyddjbj@Base 3.2.1
 _ZN8casacore25ClassicalQuantileComputerIdPKfPKbS2_ED0Ev@Base 3.2.1
 _ZN8casacore25ClassicalQuantileComputerIdPKfPKbS2_ED1Ev@Base 3.2.1
 _ZN8casacore25ClassicalQuantileComputerIdPKfPKbS2_ED2Ev@Base 3.2.1
 _ZN8casacore26ConstrainedRangeStatisticsIdNS_5ArrayIfE16ConstIteratorSTLENS1_IbE16ConstIteratorSTLES3_E12getQuantilesERKSt3setIdSt4lessIdESaIdEENS_10CountedPtrIyEENSE_IdEESG_jbj@Base 3.2.1
 _ZN8casacore26ConstrainedRangeStatisticsIdNS_5ArrayIfE16ConstIteratorSTLENS1_IbE16ConstIteratorSTLES3_E13_getStatisticENS_14StatisticsData5STATSE@Base 3.2.1
 _ZN8casacore26ConstrainedRangeStatisticsIdNS_5ArrayIfE16ConstIteratorSTLENS1_IbE16ConstIteratorSTLES3_E14_getStatisticsEv@Base 3.2.1
 _ZN8casacore26ConstrainedRangeStatisticsIdNS_5ArrayIfE16ConstIteratorSTLENS1_IbE16ConstIteratorSTLES3_E14_weightedStatsERNS_9StatsDataIdEERSt4pairIxxERKS3_SE_yj@Base 3.2.1
 _ZN8casacore26ConstrainedRangeStatisticsIdNS_5ArrayIfE16ConstIteratorSTLENS1_IbE16ConstIteratorSTLES3_E14_weightedStatsERNS_9StatsDataIdEERSt4pairIxxERKS3_SE_yjRKS5_j@Base 3.2.1
 _ZN8casacore26ConstrainedRangeStatisticsIdNS_5ArrayIfE16ConstIteratorSTLENS1_IbE16ConstIteratorSTLES3_E14_weightedStatsERNS_9StatsDataIdEERSt4pairIxxERKS3_SE_yjRKS5_jRKSt6vectorISA_IddESaISI_EEb@Base 3.2.1
 _ZN8casacore26ConstrainedRangeStatisticsIdNS_5ArrayIfE16ConstIteratorSTLENS1_IbE16ConstIteratorSTLES3_E14_weightedStatsERNS_9StatsDataIdEERSt4pairIxxERKS3_SE_yjRKSt6vectorISA_IddESaISG_EEb@Base 3.2.1
 _ZN8casacore26ConstrainedRangeStatisticsIdNS_5ArrayIfE16ConstIteratorSTLENS1_IbE16ConstIteratorSTLES3_E16_unweightedStatsERNS_9StatsDataIdEERyRSt4pairIxxERKS3_yj@Base 3.2.1
 _ZN8casacore26ConstrainedRangeStatisticsIdNS_5ArrayIfE16ConstIteratorSTLENS1_IbE16ConstIteratorSTLES3_E16_unweightedStatsERNS_9StatsDataIdEERyRSt4pairIxxERKS3_yjRKS5_j@Base 3.2.1
 _ZN8casacore26ConstrainedRangeStatisticsIdNS_5ArrayIfE16ConstIteratorSTLENS1_IbE16ConstIteratorSTLES3_E16_unweightedStatsERNS_9StatsDataIdEERyRSt4pairIxxERKS3_yjRKS5_jRKSt6vectorISB_IddESaISJ_EEb@Base 3.2.1
 _ZN8casacore26ConstrainedRangeStatisticsIdNS_5ArrayIfE16ConstIteratorSTLENS1_IbE16ConstIteratorSTLES3_E16_unweightedStatsERNS_9StatsDataIdEERyRSt4pairIxxERKS3_yjRKSt6vectorISB_IddESaISH_EEb@Base 3.2.1
 _ZN8casacore26ConstrainedRangeStatisticsIdNS_5ArrayIfE16ConstIteratorSTLENS1_IbE16ConstIteratorSTLES3_E17getStatisticIndexENS_14StatisticsData5STATSE@Base 3.2.1
 _ZN8casacore26ConstrainedRangeStatisticsIdNS_5ArrayIfE16ConstIteratorSTLENS1_IbE16ConstIteratorSTLES3_E18getMedianAbsDevMedENS_10CountedPtrIyEENS7_IdEES9_jbj@Base 3.2.1
 _ZN8casacore26ConstrainedRangeStatisticsIdNS_5ArrayIfE16ConstIteratorSTLENS1_IbE16ConstIteratorSTLES3_E21getMedianAndQuantilesERSt3mapIddSt4lessIdESaISt4pairIKddEEERKSt3setIdS9_SaIdEENS_10CountedPtrIyEENSL_IdEESN_jbj@Base 3.2.1
 _ZN8casacore26ConstrainedRangeStatisticsIdNS_5ArrayIfE16ConstIteratorSTLENS1_IbE16ConstIteratorSTLES3_E5resetEv@Base 3.2.1
 _ZN8casacore26ConstrainedRangeStatisticsIdNS_5ArrayIfE16ConstIteratorSTLENS1_IbE16ConstIteratorSTLES3_E7getNPtsEv@Base 3.2.1
 _ZN8casacore26ConstrainedRangeStatisticsIdNS_5ArrayIfE16ConstIteratorSTLENS1_IbE16ConstIteratorSTLES3_E9_setRangeENS_10CountedPtrISt4pairIddEEE@Base 3.2.1
 _ZN8casacore26ConstrainedRangeStatisticsIdNS_5ArrayIfE16ConstIteratorSTLENS1_IbE16ConstIteratorSTLES3_E9getMedianENS_10CountedPtrIyEENS7_IdEES9_jbj@Base 3.2.1
 _ZN8casacore26ConstrainedRangeStatisticsIdNS_5ArrayIfE16ConstIteratorSTLENS1_IbE16ConstIteratorSTLES3_E9getMinMaxERdS7_@Base 3.2.1
 _ZN8casacore26ConstrainedRangeStatisticsIdNS_5ArrayIfE16ConstIteratorSTLENS1_IbE16ConstIteratorSTLES3_EC1ENS_10CountedPtrINS_32ConstrainedRangeQuantileComputerIdS3_S5_S3_EEEE@Base 3.2.1
 _ZN8casacore26ConstrainedRangeStatisticsIdNS_5ArrayIfE16ConstIteratorSTLENS1_IbE16ConstIteratorSTLES3_EC2ENS_10CountedPtrINS_32ConstrainedRangeQuantileComputerIdS3_S5_S3_EEEE@Base 3.2.1
 _ZN8casacore26ConstrainedRangeStatisticsIdNS_5ArrayIfE16ConstIteratorSTLENS1_IbE16ConstIteratorSTLES3_ED0Ev@Base 3.2.1
 _ZN8casacore26ConstrainedRangeStatisticsIdNS_5ArrayIfE16ConstIteratorSTLENS1_IbE16ConstIteratorSTLES3_ED1Ev@Base 3.2.1
 _ZN8casacore26ConstrainedRangeStatisticsIdNS_5ArrayIfE16ConstIteratorSTLENS1_IbE16ConstIteratorSTLES3_ED2Ev@Base 3.2.1
 _ZN8casacore26ConstrainedRangeStatisticsIdPKfPKbS2_E12getQuantilesERKSt3setIdSt4lessIdESaIdEENS_10CountedPtrIyEENSD_IdEESF_jbj@Base 3.2.1
 _ZN8casacore26ConstrainedRangeStatisticsIdPKfPKbS2_E13_getStatisticENS_14StatisticsData5STATSE@Base 3.2.1
 _ZN8casacore26ConstrainedRangeStatisticsIdPKfPKbS2_E14_getStatisticsEv@Base 3.2.1
 _ZN8casacore26ConstrainedRangeStatisticsIdPKfPKbS2_E14_weightedStatsERNS_9StatsDataIdEERSt4pairIxxERKS2_SD_yj@Base 3.2.1
 _ZN8casacore26ConstrainedRangeStatisticsIdPKfPKbS2_E14_weightedStatsERNS_9StatsDataIdEERSt4pairIxxERKS2_SD_yjRKS4_j@Base 3.2.1
 _ZN8casacore26ConstrainedRangeStatisticsIdPKfPKbS2_E14_weightedStatsERNS_9StatsDataIdEERSt4pairIxxERKS2_SD_yjRKS4_jRKSt6vectorIS9_IddESaISH_EEb@Base 3.2.1
 _ZN8casacore26ConstrainedRangeStatisticsIdPKfPKbS2_E14_weightedStatsERNS_9StatsDataIdEERSt4pairIxxERKS2_SD_yjRKSt6vectorIS9_IddESaISF_EEb@Base 3.2.1
 _ZN8casacore26ConstrainedRangeStatisticsIdPKfPKbS2_E16_unweightedStatsERNS_9StatsDataIdEERyRSt4pairIxxERKS2_yj@Base 3.2.1
 _ZN8casacore26ConstrainedRangeStatisticsIdPKfPKbS2_E16_unweightedStatsERNS_9StatsDataIdEERyRSt4pairIxxERKS2_yjRKS4_j@Base 3.2.1
 _ZN8casacore26ConstrainedRangeStatisticsIdPKfPKbS2_E16_unweightedStatsERNS_9StatsDataIdEERyRSt4pairIxxERKS2_yjRKS4_jRKSt6vectorISA_IddESaISI_EEb@Base 3.2.1
 _ZN8casacore26ConstrainedRangeStatisticsIdPKfPKbS2_E16_unweightedStatsERNS_9StatsDataIdEERyRSt4pairIxxERKS2_yjRKSt6vectorISA_IddESaISG_EEb@Base 3.2.1
 _ZN8casacore26ConstrainedRangeStatisticsIdPKfPKbS2_E17getStatisticIndexENS_14StatisticsData5STATSE@Base 3.2.1
 _ZN8casacore26ConstrainedRangeStatisticsIdPKfPKbS2_E18getMedianAbsDevMedENS_10CountedPtrIyEENS6_IdEES8_jbj@Base 3.2.1
 _ZN8casacore26ConstrainedRangeStatisticsIdPKfPKbS2_E21getMedianAndQuantilesERSt3mapIddSt4lessIdESaISt4pairIKddEEERKSt3setIdS8_SaIdEENS_10CountedPtrIyEENSK_IdEESM_jbj@Base 3.2.1
 _ZN8casacore26ConstrainedRangeStatisticsIdPKfPKbS2_E5resetEv@Base 3.2.1
 _ZN8casacore26ConstrainedRangeStatisticsIdPKfPKbS2_E7getNPtsEv@Base 3.2.1
 _ZN8casacore26ConstrainedRangeStatisticsIdPKfPKbS2_E9_setRangeENS_10CountedPtrISt4pairIddEEE@Base 3.2.1
 _ZN8casacore26ConstrainedRangeStatisticsIdPKfPKbS2_E9getMedianENS_10CountedPtrIyEENS6_IdEES8_jbj@Base 3.2.1
 _ZN8casacore26ConstrainedRangeStatisticsIdPKfPKbS2_E9getMinMaxERdS6_@Base 3.2.1
 _ZN8casacore26ConstrainedRangeStatisticsIdPKfPKbS2_EC1ENS_10CountedPtrINS_32ConstrainedRangeQuantileComputerIdS2_S4_S2_EEEE@Base 3.2.1
 _ZN8casacore26ConstrainedRangeStatisticsIdPKfPKbS2_EC2ENS_10CountedPtrINS_32ConstrainedRangeQuantileComputerIdS2_S4_S2_EEEE@Base 3.2.1
 _ZN8casacore26ConstrainedRangeStatisticsIdPKfPKbS2_ED0Ev@Base 3.2.1
 _ZN8casacore26ConstrainedRangeStatisticsIdPKfPKbS2_ED1Ev@Base 3.2.1
 _ZN8casacore26ConstrainedRangeStatisticsIdPKfPKbS2_ED2Ev@Base 3.2.1
 _ZN8casacore26UnitVal_static_initializerC1Ev@Base 3.2.1
 _ZN8casacore26UnitVal_static_initializerC2Ev@Base 3.2.1
 _ZN8casacore28ChauvenetCriterionStatisticsIdNS_5ArrayIfE16ConstIteratorSTLENS1_IbE16ConstIteratorSTLES3_E19setCalculateAsAddedEb@Base 3.2.1
 _ZN8casacore28ChauvenetCriterionStatisticsIdNS_5ArrayIfE16ConstIteratorSTLENS1_IbE16ConstIteratorSTLES3_E5resetEv@Base 3.2.1
 _ZN8casacore28ChauvenetCriterionStatisticsIdNS_5ArrayIfE16ConstIteratorSTLENS1_IbE16ConstIteratorSTLES3_E9_setRangeEv@Base 3.2.1
 _ZN8casacore28ChauvenetCriterionStatisticsIdNS_5ArrayIfE16ConstIteratorSTLENS1_IbE16ConstIteratorSTLES3_EC1Edi@Base 3.2.1
 _ZN8casacore28ChauvenetCriterionStatisticsIdNS_5ArrayIfE16ConstIteratorSTLENS1_IbE16ConstIteratorSTLES3_EC2Edi@Base 3.2.1
 _ZN8casacore28ChauvenetCriterionStatisticsIdNS_5ArrayIfE16ConstIteratorSTLENS1_IbE16ConstIteratorSTLES3_ED0Ev@Base 3.2.1
 _ZN8casacore28ChauvenetCriterionStatisticsIdNS_5ArrayIfE16ConstIteratorSTLENS1_IbE16ConstIteratorSTLES3_ED1Ev@Base 3.2.1
 _ZN8casacore28ChauvenetCriterionStatisticsIdNS_5ArrayIfE16ConstIteratorSTLENS1_IbE16ConstIteratorSTLES3_ED2Ev@Base 3.2.1
 _ZN8casacore28ChauvenetCriterionStatisticsIdPKfPKbS2_E19setCalculateAsAddedEb@Base 3.2.1
 _ZN8casacore28ChauvenetCriterionStatisticsIdPKfPKbS2_E5resetEv@Base 3.2.1
 _ZN8casacore28ChauvenetCriterionStatisticsIdPKfPKbS2_E9_setRangeEv@Base 3.2.1
 _ZN8casacore28ChauvenetCriterionStatisticsIdPKfPKbS2_EC1Edi@Base 3.2.1
 _ZN8casacore28ChauvenetCriterionStatisticsIdPKfPKbS2_EC2Edi@Base 3.2.1
 _ZN8casacore28ChauvenetCriterionStatisticsIdPKfPKbS2_ED0Ev@Base 3.2.1
 _ZN8casacore28ChauvenetCriterionStatisticsIdPKfPKbS2_ED1Ev@Base 3.2.1
 _ZN8casacore28ChauvenetCriterionStatisticsIdPKfPKbS2_ED2Ev@Base 3.2.1
 _ZN8casacore28HingesFencesQuantileComputerIdNS_5ArrayIfE16ConstIteratorSTLENS1_IbE16ConstIteratorSTLES3_E5resetEv@Base 3.2.1
 _ZN8casacore28HingesFencesQuantileComputerIdNS_5ArrayIfE16ConstIteratorSTLENS1_IbE16ConstIteratorSTLES3_ED0Ev@Base 3.2.1
 _ZN8casacore28HingesFencesQuantileComputerIdNS_5ArrayIfE16ConstIteratorSTLENS1_IbE16ConstIteratorSTLES3_ED1Ev@Base 3.2.1
 _ZN8casacore28HingesFencesQuantileComputerIdNS_5ArrayIfE16ConstIteratorSTLENS1_IbE16ConstIteratorSTLES3_ED2Ev@Base 3.2.1
 _ZN8casacore28HingesFencesQuantileComputerIdPKfPKbS2_E5resetEv@Base 3.2.1
 _ZN8casacore28HingesFencesQuantileComputerIdPKfPKbS2_ED0Ev@Base 3.2.1
 _ZN8casacore28HingesFencesQuantileComputerIdPKfPKbS2_ED1Ev@Base 3.2.1
 _ZN8casacore28HingesFencesQuantileComputerIdPKfPKbS2_ED2Ev@Base 3.2.1
 _ZN8casacore28LatticeStatsDataProviderBaseIfE10getWeightsEv@Base 3.2.1
 _ZN8casacore28LatticeStatsDataProviderBaseIfE13getMaskStrideEv@Base 3.2.1
 _ZN8casacore28LatticeStatsDataProviderBaseIfE5resetEv@Base 3.2.1
 _ZN8casacore28LatticeStatsDataProviderBaseIfE8finalizeEv@Base 3.2.1
 _ZN8casacore28LatticeStatsDataProviderBaseIfE9getRangesEv@Base 3.2.1
 _ZN8casacore28LatticeStatsDataProviderBaseIfE9getStrideEv@Base 3.2.1
 _ZN8casacore28LatticeStatsDataProviderBaseIfEC1Ev@Base 3.2.1
 _ZN8casacore28LatticeStatsDataProviderBaseIfEC2Ev@Base 3.2.1
 _ZN8casacore28LatticeStatsDataProviderBaseIfED0Ev@Base 3.2.1
 _ZN8casacore28LatticeStatsDataProviderBaseIfED1Ev@Base 3.2.1
 _ZN8casacore28LatticeStatsDataProviderBaseIfED2Ev@Base 3.2.1
 _ZN8casacore2paERKNS_15LatticeExprNodeES2_@Base 3.2.1
 _ZN8casacore30MaskedLatticeStatsDataProviderIfE10setLatticeERKNS_13MaskedLatticeIfEEj@Base 3.2.1
 _ZN8casacore30MaskedLatticeStatsDataProviderIfE12_freeStorageEv@Base 3.2.1
 _ZN8casacore30MaskedLatticeStatsDataProviderIfE12updateMaxPosERKSt4pairIxxE@Base 3.2.1
 _ZN8casacore30MaskedLatticeStatsDataProviderIfE12updateMinPosERKSt4pairIxxE@Base 3.2.1
 _ZN8casacore30MaskedLatticeStatsDataProviderIfE5resetEv@Base 3.2.1
 _ZN8casacore30MaskedLatticeStatsDataProviderIfE7getDataEv@Base 3.2.1
 _ZN8casacore30MaskedLatticeStatsDataProviderIfE7getMaskEv@Base 3.2.1
 _ZN8casacore30MaskedLatticeStatsDataProviderIfE8finalizeEv@Base 3.2.1
 _ZN8casacore30MaskedLatticeStatsDataProviderIfE8getCountEv@Base 3.2.1
 _ZN8casacore30MaskedLatticeStatsDataProviderIfEC1Ev@Base 3.2.1
 _ZN8casacore30MaskedLatticeStatsDataProviderIfEC2Ev@Base 3.2.1
 _ZN8casacore30MaskedLatticeStatsDataProviderIfED0Ev@Base 3.2.1
 _ZN8casacore30MaskedLatticeStatsDataProviderIfED1Ev@Base 3.2.1
 _ZN8casacore30MaskedLatticeStatsDataProviderIfED2Ev@Base 3.2.1
 _ZN8casacore30MaskedLatticeStatsDataProviderIfEppEv@Base 3.2.1
 _ZN8casacore32ConstrainedRangeQuantileComputerIdNS_5ArrayIfE16ConstIteratorSTLENS1_IbE16ConstIteratorSTLES3_E18getMedianAbsDevMedEyddjbj@Base 3.2.1
 _ZN8casacore32ConstrainedRangeQuantileComputerIdNS_5ArrayIfE16ConstIteratorSTLENS1_IbE16ConstIteratorSTLES3_E9getMedianEyddjbj@Base 3.2.1
 _ZN8casacore32ConstrainedRangeQuantileComputerIdNS_5ArrayIfE16ConstIteratorSTLENS1_IbE16ConstIteratorSTLES3_ED0Ev@Base 3.2.1
 _ZN8casacore32ConstrainedRangeQuantileComputerIdNS_5ArrayIfE16ConstIteratorSTLENS1_IbE16ConstIteratorSTLES3_ED1Ev@Base 3.2.1
 _ZN8casacore32ConstrainedRangeQuantileComputerIdNS_5ArrayIfE16ConstIteratorSTLENS1_IbE16ConstIteratorSTLES3_ED2Ev@Base 3.2.1
 _ZN8casacore32ConstrainedRangeQuantileComputerIdPKfPKbS2_E18getMedianAbsDevMedEyddjbj@Base 3.2.1
 _ZN8casacore32ConstrainedRangeQuantileComputerIdPKfPKbS2_E9getMedianEyddjbj@Base 3.2.1
 _ZN8casacore32ConstrainedRangeQuantileComputerIdPKfPKbS2_ED0Ev@Base 3.2.1
 _ZN8casacore32ConstrainedRangeQuantileComputerIdPKfPKbS2_ED1Ev@Base 3.2.1
 _ZN8casacore32ConstrainedRangeQuantileComputerIdPKfPKbS2_ED2Ev@Base 3.2.1
 _ZN8casacore35StatisticsAlgorithmQuantileComputerIdNS_5ArrayIfE16ConstIteratorSTLENS1_IbE16ConstIteratorSTLES3_E5resetEv@Base 3.2.1
 _ZN8casacore35StatisticsAlgorithmQuantileComputerIdNS_5ArrayIfE16ConstIteratorSTLENS1_IbE16ConstIteratorSTLES3_EC1ERKS6_@Base 3.2.1
 _ZN8casacore35StatisticsAlgorithmQuantileComputerIdNS_5ArrayIfE16ConstIteratorSTLENS1_IbE16ConstIteratorSTLES3_EC2ERKS6_@Base 3.2.1
 _ZN8casacore35StatisticsAlgorithmQuantileComputerIdNS_5ArrayIfE16ConstIteratorSTLENS1_IbE16ConstIteratorSTLES3_ED0Ev@Base 3.2.1
 _ZN8casacore35StatisticsAlgorithmQuantileComputerIdNS_5ArrayIfE16ConstIteratorSTLENS1_IbE16ConstIteratorSTLES3_ED1Ev@Base 3.2.1
 _ZN8casacore35StatisticsAlgorithmQuantileComputerIdNS_5ArrayIfE16ConstIteratorSTLENS1_IbE16ConstIteratorSTLES3_ED2Ev@Base 3.2.1
 _ZN8casacore35StatisticsAlgorithmQuantileComputerIdPKfPKbS2_E5resetEv@Base 3.2.1
 _ZN8casacore35StatisticsAlgorithmQuantileComputerIdPKfPKbS2_EC1ERKS5_@Base 3.2.1
 _ZN8casacore35StatisticsAlgorithmQuantileComputerIdPKfPKbS2_EC2ERKS5_@Base 3.2.1
 _ZN8casacore35StatisticsAlgorithmQuantileComputerIdPKfPKbS2_ED0Ev@Base 3.2.1
 _ZN8casacore35StatisticsAlgorithmQuantileComputerIdPKfPKbS2_ED1Ev@Base 3.2.1
 _ZN8casacore35StatisticsAlgorithmQuantileComputerIdPKfPKbS2_ED2Ev@Base 3.2.1
 _ZN8casacore3absERKNS_15LatticeExprNodeE@Base 3.2.1
 _ZN8casacore3absIdEENS_8AutoDiffIT_EERKS3_@Base 3.2.1
 _ZN8casacore3allERKNS_15LatticeExprNodeE@Base 3.2.1
 _ZN8casacore3ampERKNS_15LatticeExprNodeES2_@Base 3.2.1
 _ZN8casacore3anyERKNS_15LatticeExprNodeE@Base 3.2.1
 _ZN8casacore3argERKNS_15LatticeExprNodeE@Base 3.2.1
 _ZN8casacore3cosERKNS_15LatticeExprNodeE@Base 3.2.1
 _ZN8casacore3cosIdEENS_8AutoDiffIT_EERKS3_@Base 3.2.1
 _ZN8casacore3expERKNS_15LatticeExprNodeE@Base 3.2.1
 _ZN8casacore3iifERKNS_15LatticeExprNodeES2_S2_@Base 3.2.1
 _ZN8casacore3logERKNS_15LatticeExprNodeE@Base 3.2.1
 _ZN8casacore3logIdEENS_8AutoDiffIT_EERKS3_@Base 3.2.1
 _ZN8casacore3logIfEENS_8AutoDiffIT_EERKS3_@Base 3.2.1
 _ZN8casacore3maxERKNS_15LatticeExprNodeE@Base 3.2.1
 _ZN8casacore3maxERKNS_15LatticeExprNodeES2_@Base 3.2.1
 _ZN8casacore3maxIdEEvRNS_5ArrayIT_EERKS3_RKS2_@Base 3.2.1
 _ZN8casacore3maxIfEEvRNS_5ArrayIT_EERKS3_RKS2_@Base 3.2.1
 _ZN8casacore3minERKNS_15LatticeExprNodeE@Base 3.2.1
 _ZN8casacore3minERKNS_15LatticeExprNodeES2_@Base 3.2.1
 _ZN8casacore3minIdEEvRNS_5ArrayIT_EERKS3_RKS2_@Base 3.2.1
 _ZN8casacore3minIfEEvRNS_5ArrayIT_EERKS3_RKS2_@Base 3.2.1
 _ZN8casacore3powERKNS_15LatticeExprNodeES2_@Base 3.2.1
 _ZN8casacore3sinERKNS_15LatticeExprNodeE@Base 3.2.1
 _ZN8casacore3sinIdEENS_8AutoDiffIT_EERKS3_@Base 3.2.1
 _ZN8casacore3sumERKNS_15LatticeExprNodeE@Base 3.2.1
 _ZN8casacore3sumISt7complexIdEEET_RKNS_5ArrayIS3_EE@Base 3.2.1
 _ZN8casacore3sumISt7complexIfEEET_RKNS_5ArrayIS3_EE@Base 3.2.1
 _ZN8casacore3sumIdEET_RKNS_5ArrayIS1_EE@Base 3.2.1
 _ZN8casacore3sumIfEET_RKNS_5ArrayIS1_EE@Base 3.2.1
 _ZN8casacore3tanERKNS_15LatticeExprNodeE@Base 3.2.1
 _ZN8casacore4CubeISt7complexIdEE14preTakeStorageERKNS_9IPositionE@Base 3.2.1
 _ZN8casacore4CubeISt7complexIdEE15doNonDegenerateERKNS_5ArrayIS2_EERKNS_9IPositionE@Base 3.2.1
 _ZN8casacore4CubeISt7complexIdEE15postTakeStorageEv@Base 3.2.1
 _ZN8casacore4CubeISt7complexIdEE6assignERKNS_5ArrayIS2_EE@Base 3.2.1
 _ZN8casacore4CubeISt7complexIdEE6resizeERKNS_9IPositionEbNS_15ArrayInitPolicyE@Base 3.2.1
 _ZN8casacore4CubeISt7complexIdEE6resizeEv@Base 3.2.1
 _ZN8casacore4CubeISt7complexIdEE9referenceERKNS_5ArrayIS2_EE@Base 3.2.1
 _ZN8casacore4CubeISt7complexIdEED0Ev@Base 3.2.1
 _ZN8casacore4CubeISt7complexIdEED1Ev@Base 3.2.1
 _ZN8casacore4CubeISt7complexIdEED2Ev@Base 3.2.1
 _ZN8casacore4CubeISt7complexIdEEaSERKNS_5ArrayIS2_EE@Base 3.2.1
 _ZN8casacore4CubeISt7complexIfEE14preTakeStorageERKNS_9IPositionE@Base 3.2.1
 _ZN8casacore4CubeISt7complexIfEE15doNonDegenerateERKNS_5ArrayIS2_EERKNS_9IPositionE@Base 3.2.1
 _ZN8casacore4CubeISt7complexIfEE15postTakeStorageEv@Base 3.2.1
 _ZN8casacore4CubeISt7complexIfEE6assignERKNS_5ArrayIS2_EE@Base 3.2.1
 _ZN8casacore4CubeISt7complexIfEE6resizeERKNS_9IPositionEbNS_15ArrayInitPolicyE@Base 3.2.1
 _ZN8casacore4CubeISt7complexIfEE6resizeEv@Base 3.2.1
 _ZN8casacore4CubeISt7complexIfEE9referenceERKNS_5ArrayIS2_EE@Base 3.2.1
 _ZN8casacore4CubeISt7complexIfEED0Ev@Base 3.2.1
 _ZN8casacore4CubeISt7complexIfEED1Ev@Base 3.2.1
 _ZN8casacore4CubeISt7complexIfEED2Ev@Base 3.2.1
 _ZN8casacore4CubeISt7complexIfEEaSERKNS_5ArrayIS2_EE@Base 3.2.1
 _ZN8casacore4CubeIbE14preTakeStorageERKNS_9IPositionE@Base 3.2.1
 _ZN8casacore4CubeIbE15doNonDegenerateERKNS_5ArrayIbEERKNS_9IPositionE@Base 3.2.1
 _ZN8casacore4CubeIbE15postTakeStorageEv@Base 3.2.1
 _ZN8casacore4CubeIbE6assignERKNS_5ArrayIbEE@Base 3.2.1
 _ZN8casacore4CubeIbE6resizeERKNS_9IPositionEbNS_15ArrayInitPolicyE@Base 3.2.1
 _ZN8casacore4CubeIbE6resizeEv@Base 3.2.1
 _ZN8casacore4CubeIbE9referenceERKNS_5ArrayIbEE@Base 3.2.1
 _ZN8casacore4CubeIbED0Ev@Base 3.2.1
 _ZN8casacore4CubeIbED1Ev@Base 3.2.1
 _ZN8casacore4CubeIbED2Ev@Base 3.2.1
 _ZN8casacore4CubeIbEaSERKNS_5ArrayIbEE@Base 3.2.1
 _ZN8casacore4CubeIdE14preTakeStorageERKNS_9IPositionE@Base 3.2.1
 _ZN8casacore4CubeIdE15doNonDegenerateERKNS_5ArrayIdEERKNS_9IPositionE@Base 3.2.1
 _ZN8casacore4CubeIdE15postTakeStorageEv@Base 3.2.1
 _ZN8casacore4CubeIdE6assignERKNS_5ArrayIdEE@Base 3.2.1
 _ZN8casacore4CubeIdE6resizeERKNS_9IPositionEbNS_15ArrayInitPolicyE@Base 3.2.1
 _ZN8casacore4CubeIdE6resizeEv@Base 3.2.1
 _ZN8casacore4CubeIdE9referenceERKNS_5ArrayIdEE@Base 3.2.1
 _ZN8casacore4CubeIdED0Ev@Base 3.2.1
 _ZN8casacore4CubeIdED1Ev@Base 3.2.1
 _ZN8casacore4CubeIdED2Ev@Base 3.2.1
 _ZN8casacore4CubeIdEaSERKNS_5ArrayIdEE@Base 3.2.1
 _ZN8casacore4CubeIfE14preTakeStorageERKNS_9IPositionE@Base 3.2.1
 _ZN8casacore4CubeIfE15doNonDegenerateERKNS_5ArrayIfEERKNS_9IPositionE@Base 3.2.1
 _ZN8casacore4CubeIfE15postTakeStorageEv@Base 3.2.1
 _ZN8casacore4CubeIfE6assignERKNS_5ArrayIfEE@Base 3.2.1
 _ZN8casacore4CubeIfE6resizeERKNS_9IPositionEbNS_15ArrayInitPolicyE@Base 3.2.1
 _ZN8casacore4CubeIfE6resizeEv@Base 3.2.1
 _ZN8casacore4CubeIfE9referenceERKNS_5ArrayIfEE@Base 3.2.1
 _ZN8casacore4CubeIfED0Ev@Base 3.2.1
 _ZN8casacore4CubeIfED1Ev@Base 3.2.1
 _ZN8casacore4CubeIfED2Ev@Base 3.2.1
 _ZN8casacore4CubeIfEaSERKNS_5ArrayIfEE@Base 3.2.1
 _ZN8casacore4acosERKNS_15LatticeExprNodeE@Base 3.2.1
 _ZN8casacore4asinERKNS_15LatticeExprNodeE@Base 3.2.1
 _ZN8casacore4atanERKNS_15LatticeExprNodeE@Base 3.2.1
 _ZN8casacore4ceilERKNS_15LatticeExprNodeE@Base 3.2.1
 _ZN8casacore4conjERKNS_15LatticeExprNodeE@Base 3.2.1
 _ZN8casacore4copyIdEENS_9StatsDataIT_EERKS3_@Base 3.2.1
 _ZN8casacore4coshERKNS_15LatticeExprNodeE@Base 3.2.1
 _ZN8casacore4fmodERKNS_15LatticeExprNodeES2_@Base 3.2.1
 _ZN8casacore4imagERKNS_15LatticeExprNodeE@Base 3.2.1
 _ZN8casacore4maskERKNS_15LatticeExprNodeE@Base 3.2.1
 _ZN8casacore4meanERKNS_15LatticeExprNodeE@Base 3.2.1
 _ZN8casacore4ndimERKNS_15LatticeExprNodeE@Base 3.2.1
 _ZN8casacore4realERKNS_15LatticeExprNodeE@Base 3.2.1
 _ZN8casacore4signERKNS_15LatticeExprNodeE@Base 3.2.1
 _ZN8casacore4sinhERKNS_15LatticeExprNodeE@Base 3.2.1
 _ZN8casacore4sqrtERKNS_15LatticeExprNodeE@Base 3.2.1
 _ZN8casacore4sqrtIdEENS_8AutoDiffIT_EERKS3_@Base 3.2.1
 _ZN8casacore4sqrtIfEENS_8AutoDiffIT_EERKS3_@Base 3.2.1
 _ZN8casacore4tanhERKNS_15LatticeExprNodeE@Base 3.2.1
 _ZN8casacore5ArrayINS_6VectorIdEEE10assignBaseERKNS_9ArrayBaseEb@Base 3.2.1
 _ZN8casacore5ArrayINS_6VectorIdEEE10getStorageERb@Base 3.2.1
 _ZN8casacore5ArrayINS_6VectorIdEEE10putStorageERPS2_b@Base 3.2.1
 _ZN8casacore5ArrayINS_6VectorIdEEE11getVStorageERb@Base 3.2.1
 _ZN8casacore5ArrayINS_6VectorIdEEE11putVStorageERPvb@Base 3.2.1
 _ZN8casacore5ArrayINS_6VectorIdEEE11takeStorageERKNS_9IPositionEPKS2_@Base 3.2.1
 _ZN8casacore5ArrayINS_6VectorIdEEE11takeStorageERKNS_9IPositionEPKS2_RKNS_17AbstractAllocatorIS2_EE@Base 3.2.1
 _ZN8casacore5ArrayINS_6VectorIdEEE11takeStorageERKNS_9IPositionEPS2_NS_17StorageInitPolicyE@Base 3.2.1
 _ZN8casacore5ArrayINS_6VectorIdEEE11takeStorageERKNS_9IPositionEPS2_NS_17StorageInitPolicyERKNS_17AbstractAllocatorIS2_EE@Base 3.2.1
 _ZN8casacore5ArrayINS_6VectorIdEEE14preTakeStorageERKNS_9IPositionE@Base 3.2.1
 _ZN8casacore5ArrayINS_6VectorIdEEE15BaseIteratorSTL9incrementEv@Base 3.2.1
 _ZN8casacore5ArrayINS_6VectorIdEEE15BaseIteratorSTLC1ERKS3_@Base 3.2.1
 _ZN8casacore5ArrayINS_6VectorIdEEE15BaseIteratorSTLC2ERKS3_@Base 3.2.1
 _ZN8casacore5ArrayINS_6VectorIdEEE15doNonDegenerateERKS3_RKNS_9IPositionE@Base 3.2.1
 _ZN8casacore5ArrayINS_6VectorIdEEE15postTakeStorageEv@Base 3.2.1
 _ZN8casacore5ArrayINS_6VectorIdEEE16copyMatchingPartERKS3_@Base 3.2.1
 _ZN8casacore5ArrayINS_6VectorIdEEE23copyToContiguousStorageEPS2_RKS3_NS_15ArrayInitPolicyE@Base 3.2.1
 _ZN8casacore5ArrayINS_6VectorIdEEE6assignERKS3_@Base 3.2.1
 _ZN8casacore5ArrayINS_6VectorIdEEE6resizeERKNS_9IPositionEb@Base 3.2.1
 _ZN8casacore5ArrayINS_6VectorIdEEE6resizeERKNS_9IPositionEbNS_15ArrayInitPolicyE@Base 3.2.1
 _ZN8casacore5ArrayINS_6VectorIdEEE6resizeEv@Base 3.2.1
 _ZN8casacore5ArrayINS_6VectorIdEEE9referenceERKS3_@Base 3.2.1
 _ZN8casacore5ArrayINS_6VectorIdEEEC1ERKNS_9IPositionENS_15ArrayInitPolicyEPNS_17Allocator_private13BulkAllocatorIS2_EE@Base 3.2.1
 _ZN8casacore5ArrayINS_6VectorIdEEEC1ERKS3_@Base 3.2.1
 _ZN8casacore5ArrayINS_6VectorIdEEEC1Ev@Base 3.2.1
 _ZN8casacore5ArrayINS_6VectorIdEEEC2ERKNS_9IPositionENS_15ArrayInitPolicyEPNS_17Allocator_private13BulkAllocatorIS2_EE@Base 3.2.1
 _ZN8casacore5ArrayINS_6VectorIdEEEC2ERKS3_@Base 3.2.1
 _ZN8casacore5ArrayINS_6VectorIdEEEC2Ev@Base 3.2.1
 _ZN8casacore5ArrayINS_6VectorIdEEED0Ev@Base 3.2.1
 _ZN8casacore5ArrayINS_6VectorIdEEED1Ev@Base 3.2.1
 _ZN8casacore5ArrayINS_6VectorIdEEED2Ev@Base 3.2.1
 _ZN8casacore5ArrayINS_6VectorIdEEEaSERKS3_@Base 3.2.1
 _ZN8casacore5ArrayINS_6VectorIdEEEclERKNS_6SlicerE@Base 3.2.1
 _ZN8casacore5ArrayINS_6VectorIdEEEclERKNS_9IPositionES6_@Base 3.2.1
 _ZN8casacore5ArrayINS_6VectorIdEEEclERKNS_9IPositionES6_S6_@Base 3.2.1
 _ZN8casacore5ArrayINS_8AutoDiffIdEEE10assignBaseERKNS_9ArrayBaseEb@Base 3.2.1
 _ZN8casacore5ArrayINS_8AutoDiffIdEEE10getStorageERb@Base 3.2.1
 _ZN8casacore5ArrayINS_8AutoDiffIdEEE10putStorageERPS2_b@Base 3.2.1
 _ZN8casacore5ArrayINS_8AutoDiffIdEEE11getVStorageERb@Base 3.2.1
 _ZN8casacore5ArrayINS_8AutoDiffIdEEE11putVStorageERPvb@Base 3.2.1
 _ZN8casacore5ArrayINS_8AutoDiffIdEEE11takeStorageERKNS_9IPositionEPKS2_@Base 3.2.1
 _ZN8casacore5ArrayINS_8AutoDiffIdEEE11takeStorageERKNS_9IPositionEPKS2_RKNS_17AbstractAllocatorIS2_EE@Base 3.2.1
 _ZN8casacore5ArrayINS_8AutoDiffIdEEE11takeStorageERKNS_9IPositionEPS2_NS_17StorageInitPolicyE@Base 3.2.1
 _ZN8casacore5ArrayINS_8AutoDiffIdEEE11takeStorageERKNS_9IPositionEPS2_NS_17StorageInitPolicyERKNS_17AbstractAllocatorIS2_EE@Base 3.2.1
 _ZN8casacore5ArrayINS_8AutoDiffIdEEE14preTakeStorageERKNS_9IPositionE@Base 3.2.1
 _ZN8casacore5ArrayINS_8AutoDiffIdEEE15BaseIteratorSTL9incrementEv@Base 3.2.1
 _ZN8casacore5ArrayINS_8AutoDiffIdEEE15BaseIteratorSTLC1ERKS3_@Base 3.2.1
 _ZN8casacore5ArrayINS_8AutoDiffIdEEE15BaseIteratorSTLC2ERKS3_@Base 3.2.1
 _ZN8casacore5ArrayINS_8AutoDiffIdEEE15doNonDegenerateERKS3_RKNS_9IPositionE@Base 3.2.1
 _ZN8casacore5ArrayINS_8AutoDiffIdEEE15postTakeStorageEv@Base 3.2.1
 _ZN8casacore5ArrayINS_8AutoDiffIdEEE16copyMatchingPartERKS3_@Base 3.2.1
 _ZN8casacore5ArrayINS_8AutoDiffIdEEE23copyToContiguousStorageEPS2_RKS3_NS_15ArrayInitPolicyE@Base 3.2.1
 _ZN8casacore5ArrayINS_8AutoDiffIdEEE6assignERKS3_@Base 3.2.1
 _ZN8casacore5ArrayINS_8AutoDiffIdEEE6resizeERKNS_9IPositionEb@Base 3.2.1
 _ZN8casacore5ArrayINS_8AutoDiffIdEEE6resizeERKNS_9IPositionEbNS_15ArrayInitPolicyE@Base 3.2.1
 _ZN8casacore5ArrayINS_8AutoDiffIdEEE6resizeEv@Base 3.2.1
 _ZN8casacore5ArrayINS_8AutoDiffIdEEE9referenceERKS3_@Base 3.2.1
 _ZN8casacore5ArrayINS_8AutoDiffIdEEEC1ERKNS_9IPositionENS_15ArrayInitPolicyEPNS_17Allocator_private13BulkAllocatorIS2_EE@Base 3.2.1
 _ZN8casacore5ArrayINS_8AutoDiffIdEEEC1ERKS3_@Base 3.2.1
 _ZN8casacore5ArrayINS_8AutoDiffIdEEEC1Ev@Base 3.2.1
 _ZN8casacore5ArrayINS_8AutoDiffIdEEEC2ERKNS_9IPositionENS_15ArrayInitPolicyEPNS_17Allocator_private13BulkAllocatorIS2_EE@Base 3.2.1
 _ZN8casacore5ArrayINS_8AutoDiffIdEEEC2ERKS3_@Base 3.2.1
 _ZN8casacore5ArrayINS_8AutoDiffIdEEEC2Ev@Base 3.2.1
 _ZN8casacore5ArrayINS_8AutoDiffIdEEED0Ev@Base 3.2.1
 _ZN8casacore5ArrayINS_8AutoDiffIdEEED1Ev@Base 3.2.1
 _ZN8casacore5ArrayINS_8AutoDiffIdEEED2Ev@Base 3.2.1
 _ZN8casacore5ArrayINS_8AutoDiffIdEEEaSERKS3_@Base 3.2.1
 _ZN8casacore5ArrayINS_8AutoDiffIdEEEclERKNS_6SlicerE@Base 3.2.1
 _ZN8casacore5ArrayINS_8AutoDiffIdEEEclERKNS_9IPositionES6_@Base 3.2.1
 _ZN8casacore5ArrayINS_8AutoDiffIdEEEclERKNS_9IPositionES6_S6_@Base 3.2.1
 _ZN8casacore5ArrayINS_8AutoDiffIfEEE10assignBaseERKNS_9ArrayBaseEb@Base 3.2.1
 _ZN8casacore5ArrayINS_8AutoDiffIfEEE10getStorageERb@Base 3.2.1
 _ZN8casacore5ArrayINS_8AutoDiffIfEEE10putStorageERPS2_b@Base 3.2.1
 _ZN8casacore5ArrayINS_8AutoDiffIfEEE11getVStorageERb@Base 3.2.1
 _ZN8casacore5ArrayINS_8AutoDiffIfEEE11putVStorageERPvb@Base 3.2.1
 _ZN8casacore5ArrayINS_8AutoDiffIfEEE11takeStorageERKNS_9IPositionEPKS2_@Base 3.2.1
 _ZN8casacore5ArrayINS_8AutoDiffIfEEE11takeStorageERKNS_9IPositionEPKS2_RKNS_17AbstractAllocatorIS2_EE@Base 3.2.1
 _ZN8casacore5ArrayINS_8AutoDiffIfEEE11takeStorageERKNS_9IPositionEPS2_NS_17StorageInitPolicyE@Base 3.2.1
 _ZN8casacore5ArrayINS_8AutoDiffIfEEE11takeStorageERKNS_9IPositionEPS2_NS_17StorageInitPolicyERKNS_17AbstractAllocatorIS2_EE@Base 3.2.1
 _ZN8casacore5ArrayINS_8AutoDiffIfEEE14preTakeStorageERKNS_9IPositionE@Base 3.2.1
 _ZN8casacore5ArrayINS_8AutoDiffIfEEE15BaseIteratorSTL9incrementEv@Base 3.2.1
 _ZN8casacore5ArrayINS_8AutoDiffIfEEE15BaseIteratorSTLC1ERKS3_@Base 3.2.1
 _ZN8casacore5ArrayINS_8AutoDiffIfEEE15BaseIteratorSTLC2ERKS3_@Base 3.2.1
 _ZN8casacore5ArrayINS_8AutoDiffIfEEE15doNonDegenerateERKS3_RKNS_9IPositionE@Base 3.2.1
 _ZN8casacore5ArrayINS_8AutoDiffIfEEE15postTakeStorageEv@Base 3.2.1
 _ZN8casacore5ArrayINS_8AutoDiffIfEEE16copyMatchingPartERKS3_@Base 3.2.1
 _ZN8casacore5ArrayINS_8AutoDiffIfEEE23copyToContiguousStorageEPS2_RKS3_NS_15ArrayInitPolicyE@Base 3.2.1
 _ZN8casacore5ArrayINS_8AutoDiffIfEEE6assignERKS3_@Base 3.2.1
 _ZN8casacore5ArrayINS_8AutoDiffIfEEE6resizeERKNS_9IPositionEb@Base 3.2.1
 _ZN8casacore5ArrayINS_8AutoDiffIfEEE6resizeERKNS_9IPositionEbNS_15ArrayInitPolicyE@Base 3.2.1
 _ZN8casacore5ArrayINS_8AutoDiffIfEEE6resizeEv@Base 3.2.1
 _ZN8casacore5ArrayINS_8AutoDiffIfEEE9referenceERKS3_@Base 3.2.1
 _ZN8casacore5ArrayINS_8AutoDiffIfEEEC1ERKNS_9IPositionENS_15ArrayInitPolicyEPNS_17Allocator_private13BulkAllocatorIS2_EE@Base 3.2.1
 _ZN8casacore5ArrayINS_8AutoDiffIfEEEC1ERKS3_@Base 3.2.1
 _ZN8casacore5ArrayINS_8AutoDiffIfEEEC1Ev@Base 3.2.1
 _ZN8casacore5ArrayINS_8AutoDiffIfEEEC2ERKNS_9IPositionENS_15ArrayInitPolicyEPNS_17Allocator_private13BulkAllocatorIS2_EE@Base 3.2.1
 _ZN8casacore5ArrayINS_8AutoDiffIfEEEC2ERKS3_@Base 3.2.1
 _ZN8casacore5ArrayINS_8AutoDiffIfEEEC2Ev@Base 3.2.1
 _ZN8casacore5ArrayINS_8AutoDiffIfEEED0Ev@Base 3.2.1
 _ZN8casacore5ArrayINS_8AutoDiffIfEEED1Ev@Base 3.2.1
 _ZN8casacore5ArrayINS_8AutoDiffIfEEED2Ev@Base 3.2.1
 _ZN8casacore5ArrayINS_8AutoDiffIfEEEaSERKS3_@Base 3.2.1
 _ZN8casacore5ArrayINS_8AutoDiffIfEEEclERKNS_6SlicerE@Base 3.2.1
 _ZN8casacore5ArrayINS_8AutoDiffIfEEEclERKNS_9IPositionES6_@Base 3.2.1
 _ZN8casacore5ArrayINS_8AutoDiffIfEEEclERKNS_9IPositionES6_S6_@Base 3.2.1
 _ZN8casacore5ArrayIbE15BaseIteratorSTLC1ERKS2_@Base 3.2.1
 _ZN8casacore5ArrayIbE15BaseIteratorSTLC2ERKS2_@Base 3.2.1
 _ZN8casacore5ArrayIfE15BaseIteratorSTLC1ERKS2_@Base 3.2.1
 _ZN8casacore5ArrayIfE15BaseIteratorSTLC2ERKS2_@Base 3.2.1
 _ZN8casacore5BlockINS_15LatticeExprNodeEE4initENS_15ArrayInitPolicyE@Base 3.2.1
 _ZN8casacore5BlockINS_15LatticeExprNodeEE6deinitEv@Base 3.2.1
 _ZN8casacore5BlockINS_15LatticeExprNodeEE7deallocEv@Base 3.2.1
 _ZN8casacore5BlockINS_15LatticeExprNodeEEC1EmRKS1_@Base 3.2.1
 _ZN8casacore5BlockINS_15LatticeExprNodeEEC2EmRKS1_@Base 3.2.1
 _ZN8casacore5BlockINS_6VectorIdEEE4initENS_15ArrayInitPolicyE@Base 3.2.1
 _ZN8casacore5BlockINS_6VectorIdEEE6deinitEv@Base 3.2.1
 _ZN8casacore5BlockINS_8AutoDiffIdEEE4initENS_15ArrayInitPolicyE@Base 3.2.1
 _ZN8casacore5BlockINS_8AutoDiffIdEEE6deinitEv@Base 3.2.1
 _ZN8casacore5BlockINS_8AutoDiffIfEEE6deinitEv@Base 3.2.1
 _ZN8casacore5BlockINS_8AutoDiffIfEEE7deallocEv@Base 3.2.1
 _ZN8casacore5BlockINS_9IPositionEE6deinitEv@Base 3.2.1
 _ZN8casacore5Fit2D10resetRangeEv@Base 3.2.1
 _ZN8casacore5Fit2D11convertMaskENS_6StringENS0_5TypesE@Base 3.2.1
 _ZN8casacore5Fit2D11nParametersENS0_5TypesE@Base 3.2.1
 _ZN8casacore5Fit2D15setExcludeRangeEdd@Base 3.2.1
 _ZN8casacore5Fit2D15setIncludeRangeEdd@Base 3.2.1
 _ZN8casacore5Fit2D4typeENS0_5TypesE@Base 3.2.1
 _ZN8casacore5Fit2D4typeERKNS_6StringE@Base 3.2.1
 _ZN8casacore5Fit2D4typeEj@Base 3.2.1
 _ZN8casacore5Fit2D7fitDataERKNS_6VectorIdEERKNS_6MatrixIdEES4_@Base 3.2.1
 _ZN8casacore5Fit2D8addModelENS0_5TypesERKNS_6VectorIdEE@Base 3.2.1
 _ZN8casacore5Fit2D8addModelENS0_5TypesERKNS_6VectorIdEERKNS2_IbEE@Base 3.2.1
 _ZN8casacore5Fit2D8residualERNS_5ArrayIfEES3_RKNS_13MaskedLatticeIfEE@Base 3.2.1
 _ZN8casacore5Fit2D8residualERNS_5ArrayIfEES3_RKNS_7LatticeIfEE@Base 3.2.1
 _ZN8casacore5Fit2D9setParamsERKNS_6VectorIdEEj@Base 3.2.1
 _ZN8casacore5Fit2DC1ERKS0_@Base 3.2.1
 _ZN8casacore5Fit2DC1ERNS_5LogIOE@Base 3.2.1
 _ZN8casacore5Fit2DC2ERKS0_@Base 3.2.1
 _ZN8casacore5Fit2DC2ERNS_5LogIOE@Base 3.2.1
 _ZN8casacore5Fit2DD1Ev@Base 3.2.1
 _ZN8casacore5Fit2DD2Ev@Base 3.2.1
 _ZN8casacore5Fit2DaSERKS0_@Base 3.2.1
 _ZN8casacore5LCBox10fillBlcTrcEv@Base 3.2.1
 _ZN8casacore5LCBox10fromRecordERKNS_11TableRecordERKNS_6StringE@Base 3.2.1
 _ZN8casacore5LCBox12setSlicerBoxERKNS_9IPositionES3_@Base 3.2.1
 _ZN8casacore5LCBox6verifyERNS_9IPositionES2_S2_RKS1_@Base 3.2.1
 _ZN8casacore5LCBox9classNameEv@Base 3.2.1
 _ZN8casacore5LCBoxC1ERKNS_6SlicerERKNS_9IPositionE@Base 3.2.1
 _ZN8casacore5LCBoxC1ERKNS_6VectorIdEES4_RKNS_9IPositionE@Base 3.2.1
 _ZN8casacore5LCBoxC1ERKNS_6VectorIfEES4_RKNS_9IPositionE@Base 3.2.1
 _ZN8casacore5LCBoxC1ERKNS_9IPositionE@Base 3.2.1
 _ZN8casacore5LCBoxC1ERKNS_9IPositionES3_S3_@Base 3.2.1
 _ZN8casacore5LCBoxC1ERKS0_@Base 3.2.1
 _ZN8casacore5LCBoxC1Ev@Base 3.2.1
 _ZN8casacore5LCBoxC2ERKNS_6SlicerERKNS_9IPositionE@Base 3.2.1
 _ZN8casacore5LCBoxC2ERKNS_6VectorIdEES4_RKNS_9IPositionE@Base 3.2.1
 _ZN8casacore5LCBoxC2ERKNS_6VectorIfEES4_RKNS_9IPositionE@Base 3.2.1
 _ZN8casacore5LCBoxC2ERKNS_9IPositionE@Base 3.2.1
 _ZN8casacore5LCBoxC2ERKNS_9IPositionES3_S3_@Base 3.2.1
 _ZN8casacore5LCBoxC2ERKS0_@Base 3.2.1
 _ZN8casacore5LCBoxC2Ev@Base 3.2.1
 _ZN8casacore5LCBoxD0Ev@Base 3.2.1
 _ZN8casacore5LCBoxD1Ev@Base 3.2.1
 _ZN8casacore5LCBoxD2Ev@Base 3.2.1
 _ZN8casacore5LCBoxaSERKS0_@Base 3.2.1
 _ZN8casacore5atan2ERKNS_15LatticeExprNodeES2_@Base 3.2.1
 _ZN8casacore5avdevERKNS_15LatticeExprNodeE@Base 3.2.1
 _ZN8casacore5floorERKNS_15LatticeExprNodeE@Base 3.2.1
 _ZN8casacore5isNaNERKNS_15LatticeExprNodeE@Base 3.2.1
 _ZN8casacore5log10ERKNS_15LatticeExprNodeE@Base 3.2.1
 _ZN8casacore5ntrueERKNS_15LatticeExprNodeE@Base 3.2.1
 _ZN8casacore5rebinERKNS_15LatticeExprNodeES2_@Base 3.2.1
 _ZN8casacore5roundERKNS_15LatticeExprNodeE@Base 3.2.1
 _ZN8casacore5valueERKNS_15LatticeExprNodeE@Base 3.2.1
 _ZN8casacore6LCMask10clearCacheEv@Base 3.2.1
 _ZN8casacore6LCMask19setCacheSizeInTilesEj@Base 3.2.1
 _ZN8casacore6LCMask19setMaximumCacheSizeEj@Base 3.2.1
 _ZN8casacore6LCMask20setCacheSizeFromPathERKNS_9IPositionES3_S3_S3_@Base 3.2.1
 _ZN8casacore6LCMask4lockENS_10FileLocker8LockTypeEj@Base 3.2.1
 _ZN8casacore6LCMask5flushEv@Base 3.2.1
 _ZN8casacore6LCMask6reopenEv@Base 3.2.1
 _ZN8casacore6LCMask6resyncEv@Base 3.2.1
 _ZN8casacore6LCMask6unlockEv@Base 3.2.1
 _ZN8casacore6LCMask9classNameEv@Base 3.2.1
 _ZN8casacore6LCMask9tempCloseEv@Base 3.2.1
 _ZN8casacore6LCMaskC1ERKNS_9IPositionE@Base 3.2.1
 _ZN8casacore6LCMaskC1ERKNS_9IPositionERKNS_5LCBoxE@Base 3.2.1
 _ZN8casacore6LCMaskC1ERKS0_@Base 3.2.1
 _ZN8casacore6LCMaskC1ERNS_7LatticeIbEE@Base 3.2.1
 _ZN8casacore6LCMaskC1ERNS_7LatticeIbEERKNS_5LCBoxE@Base 3.2.1
 _ZN8casacore6LCMaskC1Ev@Base 3.2.1
 _ZN8casacore6LCMaskC2ERKNS_9IPositionE@Base 3.2.1
 _ZN8casacore6LCMaskC2ERKNS_9IPositionERKNS_5LCBoxE@Base 3.2.1
 _ZN8casacore6LCMaskC2ERKS0_@Base 3.2.1
 _ZN8casacore6LCMaskC2ERNS_7LatticeIbEE@Base 3.2.1
 _ZN8casacore6LCMaskC2ERNS_7LatticeIbEERKNS_5LCBoxE@Base 3.2.1
 _ZN8casacore6LCMaskC2Ev@Base 3.2.1
 _ZN8casacore6LCMaskD0Ev@Base 3.2.1
 _ZN8casacore6LCMaskD1Ev@Base 3.2.1
 _ZN8casacore6LCMaskD2Ev@Base 3.2.1
 _ZN8casacore6LCMaskaSERKS0_@Base 3.2.1
 _ZN8casacore6SlicerD1Ev@Base 3.2.1
 _ZN8casacore6SlicerD2Ev@Base 3.2.1
 _ZN8casacore6String8toStringINS_14StatisticsData9ALGORITHMEEES0_RKT_@Base 3.2.1
 _ZN8casacore6String8toStringIdEES0_RKT_@Base 3.2.1
 _ZN8casacore6String8toStringImEES0_RKT_@Base 3.2.1
 _ZN8casacore6String8toStringIyEES0_RKT_@Base 3.2.1
 _ZN8casacore6StringD1Ev@Base 3.2.1
 _ZN8casacore6StringD2Ev@Base 3.2.1
 _ZN8casacore6VectorINS0_IdEEE14preTakeStorageERKNS_9IPositionE@Base 3.2.1
 _ZN8casacore6VectorINS0_IdEEE15doNonDegenerateERKNS_5ArrayIS1_EERKNS_9IPositionE@Base 3.2.1
 _ZN8casacore6VectorINS0_IdEEE6assignERKNS_5ArrayIS1_EE@Base 3.2.1
 _ZN8casacore6VectorINS0_IdEEE6resizeERKNS_9IPositionEbNS_15ArrayInitPolicyE@Base 3.2.1
 _ZN8casacore6VectorINS0_IdEEE6resizeEv@Base 3.2.1
 _ZN8casacore6VectorINS0_IdEEE9referenceERKNS_5ArrayIS1_EE@Base 3.2.1
 _ZN8casacore6VectorINS0_IdEEEC1Em@Base 3.2.1
 _ZN8casacore6VectorINS0_IdEEEC2Em@Base 3.2.1
 _ZN8casacore6VectorINS0_IdEEED0Ev@Base 3.2.1
 _ZN8casacore6VectorINS0_IdEEED1Ev@Base 3.2.1
 _ZN8casacore6VectorINS0_IdEEED2Ev@Base 3.2.1
 _ZN8casacore6VectorINS0_IdEEEaSERKNS_5ArrayIS1_EE@Base 3.2.1
 _ZN8casacore6VectorINS0_IdEEEaSERKS2_@Base 3.2.1
 _ZN8casacore6VectorINS_8AutoDiffIdEEE14preTakeStorageERKNS_9IPositionE@Base 3.2.1
 _ZN8casacore6VectorINS_8AutoDiffIdEEE15doNonDegenerateERKNS_5ArrayIS2_EERKNS_9IPositionE@Base 3.2.1
 _ZN8casacore6VectorINS_8AutoDiffIdEEE6assignERKNS_5ArrayIS2_EE@Base 3.2.1
 _ZN8casacore6VectorINS_8AutoDiffIdEEE6resizeERKNS_9IPositionEbNS_15ArrayInitPolicyE@Base 3.2.1
 _ZN8casacore6VectorINS_8AutoDiffIdEEE6resizeEv@Base 3.2.1
 _ZN8casacore6VectorINS_8AutoDiffIdEEE9referenceERKNS_5ArrayIS2_EE@Base 3.2.1
 _ZN8casacore6VectorINS_8AutoDiffIdEEEC1Em@Base 3.2.1
 _ZN8casacore6VectorINS_8AutoDiffIdEEEC2Em@Base 3.2.1
 _ZN8casacore6VectorINS_8AutoDiffIdEEED0Ev@Base 3.2.1
 _ZN8casacore6VectorINS_8AutoDiffIdEEED1Ev@Base 3.2.1
 _ZN8casacore6VectorINS_8AutoDiffIdEEED2Ev@Base 3.2.1
 _ZN8casacore6VectorINS_8AutoDiffIdEEEaSERKNS_5ArrayIS2_EE@Base 3.2.1
 _ZN8casacore6VectorINS_8AutoDiffIdEEEaSERKS3_@Base 3.2.1
 _ZN8casacore6VectorINS_8AutoDiffIfEEE14preTakeStorageERKNS_9IPositionE@Base 3.2.1
 _ZN8casacore6VectorINS_8AutoDiffIfEEE15doNonDegenerateERKNS_5ArrayIS2_EERKNS_9IPositionE@Base 3.2.1
 _ZN8casacore6VectorINS_8AutoDiffIfEEE6assignERKNS_5ArrayIS2_EE@Base 3.2.1
 _ZN8casacore6VectorINS_8AutoDiffIfEEE6resizeERKNS_9IPositionEbNS_15ArrayInitPolicyE@Base 3.2.1
 _ZN8casacore6VectorINS_8AutoDiffIfEEE6resizeEv@Base 3.2.1
 _ZN8casacore6VectorINS_8AutoDiffIfEEE9referenceERKNS_5ArrayIS2_EE@Base 3.2.1
 _ZN8casacore6VectorINS_8AutoDiffIfEEEC1Em@Base 3.2.1
 _ZN8casacore6VectorINS_8AutoDiffIfEEEC2Em@Base 3.2.1
 _ZN8casacore6VectorINS_8AutoDiffIfEEED0Ev@Base 3.2.1
 _ZN8casacore6VectorINS_8AutoDiffIfEEED1Ev@Base 3.2.1
 _ZN8casacore6VectorINS_8AutoDiffIfEEED2Ev@Base 3.2.1
 _ZN8casacore6VectorINS_8AutoDiffIfEEEaSERKNS_5ArrayIS2_EE@Base 3.2.1
 _ZN8casacore6VectorINS_8AutoDiffIfEEEaSERKS3_@Base 3.2.1
 _ZN8casacore6indgenIfEEvRNS_5ArrayIT_EES2_S2_@Base 3.2.1
 _ZN8casacore6indgenIjEEvRNS_5ArrayIT_EES2_S2_@Base 3.2.1
 _ZN8casacore6lengthERKNS_15LatticeExprNodeES2_@Base 3.2.1
 _ZN8casacore6medianERKNS_15LatticeExprNodeE@Base 3.2.1
 _ZN8casacore6medianIdEET_RKNS_5ArrayIS1_EERNS_5BlockIS1_EEbbb@Base 3.2.1
 _ZN8casacore6medianIdEET_RKNS_5ArrayIS1_EEbbb@Base 3.2.1
 _ZN8casacore6medianIfEET_RKNS_5ArrayIS1_EERNS_5BlockIS1_EEbbb@Base 3.2.1
 _ZN8casacore6medianIfEET_RKNS_5ArrayIS1_EEbbb@Base 3.2.1
 _ZN8casacore6minMaxISt7complexIdEEEvRT_S4_RKNS_5ArrayIS3_EE@Base 3.2.1
 _ZN8casacore6minMaxISt7complexIfEEEvRT_S4_RKNS_5ArrayIS3_EE@Base 3.2.1
 _ZN8casacore6minMaxIdEEvRT_S2_RKNS_5ArrayIS1_EE@Base 3.2.1
 _ZN8casacore6minMaxIfEEvRT_S2_RKNS_5ArrayIS1_EE@Base 3.2.1
 _ZN8casacore6nfalseERKNS_15LatticeExprNodeE@Base 3.2.1
 _ZN8casacore6stddevERKNS_15LatticeExprNodeE@Base 3.2.1
 _ZN8casacore6toBoolERKNS_15LatticeExprNodeE@Base 3.2.1
 _ZN8casacore7GenSortIdE10insSortAscEPdii@Base 3.2.1
 _ZN8casacore7GenSortIdE10kthLargestEPdjj@Base 3.2.1
 _ZN8casacore7GenSortIdE11heapSortAscEPdi@Base 3.2.1
 _ZN8casacore7GenSortIdE12quickSortAscEPdibi@Base 3.2.1
 _ZN8casacore7GenSortIdE15heapAscSiftDownEiiPd@Base 3.2.1
 _ZN8casacore7GenSortIdE4sortEPdjNS_4Sort5OrderEi@Base 3.2.1
 _ZN8casacore7GenSortIdE5mergeEPdS2_jPjj@Base 3.2.1
 _ZN8casacore7GenSortIdE7parSortEPdjNS_4Sort5OrderEii@Base 3.2.1
 _ZN8casacore7GenSortIdE7reverseEPdPKdj@Base 3.2.1
 _ZN8casacore7GenSortIfE10insSortAscEPfii@Base 3.2.1
 _ZN8casacore7GenSortIfE10kthLargestEPfjj@Base 3.2.1
 _ZN8casacore7GenSortIfE11heapSortAscEPfi@Base 3.2.1
 _ZN8casacore7GenSortIfE12quickSortAscEPfibi@Base 3.2.1
 _ZN8casacore7GenSortIfE15heapAscSiftDownEiiPf@Base 3.2.1
 _ZN8casacore7GenSortIfE4sortEPfjNS_4Sort5OrderEi@Base 3.2.1
 _ZN8casacore7GenSortIfE5mergeEPfS2_jPjj@Base 3.2.1
 _ZN8casacore7GenSortIfE7parSortEPfjNS_4Sort5OrderEii@Base 3.2.1
 _ZN8casacore7GenSortIfE7reverseEPfPKfj@Base 3.2.1
 _ZN8casacore7GenSortIiE10insSortAscEPiii@Base 3.2.1
 _ZN8casacore7GenSortIiE11heapSortAscEPii@Base 3.2.1
 _ZN8casacore7GenSortIiE12quickSortAscEPiibi@Base 3.2.1
 _ZN8casacore7GenSortIiE15heapAscSiftDownEiiPi@Base 3.2.1
 _ZN8casacore7GenSortIiE5mergeEPiS2_jPjj@Base 3.2.1
 _ZN8casacore7GenSortIiE7parSortEPijNS_4Sort5OrderEii@Base 3.2.1
 _ZN8casacore7GenSortIiE7reverseEPiPKij@Base 3.2.1
 _ZN8casacore7GenSortIjE7reverseEPjPKjj@Base 3.2.1
 _ZN8casacore7LCUnion10fromRecordERKNS_11TableRecordERKNS_6StringE@Base 3.2.1
 _ZN8casacore7LCUnion13multiGetSliceERNS_5ArrayIbEERKNS_6SlicerE@Base 3.2.1
 _ZN8casacore7LCUnion9classNameEv@Base 3.2.1
 _ZN8casacore7LCUnion9defineBoxEv@Base 3.2.1
 _ZN8casacore7LCUnionC1ERKNS_8LCRegionES3_@Base 3.2.1
 _ZN8casacore7LCUnionC1ERKS0_@Base 3.2.1
 _ZN8casacore7LCUnionC1EbPKNS_8LCRegionES3_S3_S3_S3_S3_S3_S3_S3_S3_@Base 3.2.1
 _ZN8casacore7LCUnionC1EbRKNS_8PtrBlockIPKNS_8LCRegionEEE@Base 3.2.1
 _ZN8casacore7LCUnionC1Ev@Base 3.2.1
 _ZN8casacore7LCUnionC2ERKNS_8LCRegionES3_@Base 3.2.1
 _ZN8casacore7LCUnionC2ERKS0_@Base 3.2.1
 _ZN8casacore7LCUnionC2EbPKNS_8LCRegionES3_S3_S3_S3_S3_S3_S3_S3_S3_@Base 3.2.1
 _ZN8casacore7LCUnionC2EbRKNS_8PtrBlockIPKNS_8LCRegionEEE@Base 3.2.1
 _ZN8casacore7LCUnionC2Ev@Base 3.2.1
 _ZN8casacore7LCUnionD0Ev@Base 3.2.1
 _ZN8casacore7LCUnionD1Ev@Base 3.2.1
 _ZN8casacore7LCUnionD2Ev@Base 3.2.1
 _ZN8casacore7LCUnionaSERKS0_@Base 3.2.1
 _ZN8casacore7LatticeISt7complexIdEE10handleMathERKS3_i@Base 3.2.1
 _ZN8casacore7LatticeISt7complexIdEE3setERKS2_@Base 3.2.1
 _ZN8casacore7LatticeISt7complexIdEE5applyEPFS2_RKS2_E@Base 3.2.1
 _ZN8casacore7LatticeISt7complexIdEE5applyEPFS2_S2_E@Base 3.2.1
 _ZN8casacore7LatticeISt7complexIdEE5applyERKNS_10FunctionalIS2_S2_EE@Base 3.2.1
 _ZN8casacore7LatticeISt7complexIdEE5putAtERKS2_RKNS_9IPositionE@Base 3.2.1
 _ZN8casacore7LatticeISt7complexIdEE8copyDataERKS3_@Base 3.2.1
 _ZN8casacore7LatticeISt7complexIdEE8getSliceERNS_5ArrayIS2_EERKNS_6SlicerEb@Base 3.2.1
 _ZN8casacore7LatticeISt7complexIdEE8getSliceERNS_5ArrayIS2_EERKNS_9IPositionES9_S9_b@Base 3.2.1
 _ZN8casacore7LatticeISt7complexIdEE8putSliceERKNS_5ArrayIS2_EERKNS_9IPositionE@Base 3.2.1
 _ZN8casacore7LatticeISt7complexIfEE10handleMathERKS3_i@Base 3.2.1
 _ZN8casacore7LatticeISt7complexIfEE3getERNS_5ArrayIS2_EEb@Base 3.2.1
 _ZN8casacore7LatticeISt7complexIfEE3putERKNS_5ArrayIS2_EE@Base 3.2.1
 _ZN8casacore7LatticeISt7complexIfEE3setERKS2_@Base 3.2.1
 _ZN8casacore7LatticeISt7complexIfEE5applyEPFS2_RKS2_E@Base 3.2.1
 _ZN8casacore7LatticeISt7complexIfEE5applyEPFS2_S2_E@Base 3.2.1
 _ZN8casacore7LatticeISt7complexIfEE5applyERKNS_10FunctionalIS2_S2_EE@Base 3.2.1
 _ZN8casacore7LatticeISt7complexIfEE5putAtERKS2_RKNS_9IPositionE@Base 3.2.1
 _ZN8casacore7LatticeISt7complexIfEE8copyDataERKS3_@Base 3.2.1
 _ZN8casacore7LatticeISt7complexIfEE8getSliceERNS_5ArrayIS2_EERKNS_6SlicerEb@Base 3.2.1
 _ZN8casacore7LatticeISt7complexIfEE8getSliceERNS_5ArrayIS2_EERKNS_9IPositionES9_S9_b@Base 3.2.1
 _ZN8casacore7LatticeISt7complexIfEE8getSliceERNS_5ArrayIS2_EERKNS_9IPositionES9_b@Base 3.2.1
 _ZN8casacore7LatticeISt7complexIfEE8putSliceERKNS_5ArrayIS2_EERKNS_9IPositionE@Base 3.2.1
 _ZN8casacore7LatticeISt7complexIfEE8putSliceERKNS_5ArrayIS2_EERKNS_9IPositionESA_@Base 3.2.1
 _ZN8casacore7LatticeISt7complexIfEEC1ERKS3_@Base 3.2.1
 _ZN8casacore7LatticeISt7complexIfEEC1Ev@Base 3.2.1
 _ZN8casacore7LatticeISt7complexIfEEC2ERKS3_@Base 3.2.1
 _ZN8casacore7LatticeISt7complexIfEEC2Ev@Base 3.2.1
 _ZN8casacore7LatticeISt7complexIfEED0Ev@Base 3.2.1
 _ZN8casacore7LatticeISt7complexIfEED1Ev@Base 3.2.1
 _ZN8casacore7LatticeISt7complexIfEED2Ev@Base 3.2.1
 _ZN8casacore7LatticeISt7complexIfEEaSERKS3_@Base 3.2.1
 _ZN8casacore7LatticeISt7complexIfEEdVERKS3_@Base 3.2.1
 _ZN8casacore7LatticeISt7complexIfEEmIERKS3_@Base 3.2.1
 _ZN8casacore7LatticeISt7complexIfEEmLERKS3_@Base 3.2.1
 _ZN8casacore7LatticeISt7complexIfEEpLERKS3_@Base 3.2.1
 _ZN8casacore7LatticeIbE10handleMathERKS1_i@Base 3.2.1
 _ZN8casacore7LatticeIbE3setERKb@Base 3.2.1
 _ZN8casacore7LatticeIbE5applyEPFbRKbE@Base 3.2.1
 _ZN8casacore7LatticeIbE5applyEPFbbE@Base 3.2.1
 _ZN8casacore7LatticeIbE5applyERKNS_10FunctionalIbbEE@Base 3.2.1
 _ZN8casacore7LatticeIbE5putAtERKbRKNS_9IPositionE@Base 3.2.1
 _ZN8casacore7LatticeIbE8copyDataERKS1_@Base 3.2.1
 _ZN8casacore7LatticeIbE8getSliceERNS_5ArrayIbEERKNS_6SlicerEb@Base 3.2.1
 _ZN8casacore7LatticeIbE8getSliceERNS_5ArrayIbEERKNS_9IPositionES7_S7_b@Base 3.2.1
 _ZN8casacore7LatticeIbE8putSliceERKNS_5ArrayIbEERKNS_9IPositionE@Base 3.2.1
 _ZN8casacore7LatticeIdE10handleMathERKS1_i@Base 3.2.1
 _ZN8casacore7LatticeIdE3setERKd@Base 3.2.1
 _ZN8casacore7LatticeIdE5applyEPFdRKdE@Base 3.2.1
 _ZN8casacore7LatticeIdE5applyEPFddE@Base 3.2.1
 _ZN8casacore7LatticeIdE5applyERKNS_10FunctionalIddEE@Base 3.2.1
 _ZN8casacore7LatticeIdE5putAtERKdRKNS_9IPositionE@Base 3.2.1
 _ZN8casacore7LatticeIdE8copyDataERKS1_@Base 3.2.1
 _ZN8casacore7LatticeIdE8getSliceERNS_5ArrayIdEERKNS_6SlicerEb@Base 3.2.1
 _ZN8casacore7LatticeIdE8getSliceERNS_5ArrayIdEERKNS_9IPositionES7_S7_b@Base 3.2.1
 _ZN8casacore7LatticeIdE8putSliceERKNS_5ArrayIdEERKNS_9IPositionE@Base 3.2.1
 _ZN8casacore7LatticeIfE10handleMathERKS1_i@Base 3.2.1
 _ZN8casacore7LatticeIfE3getERNS_5ArrayIfEEb@Base 3.2.1
 _ZN8casacore7LatticeIfE3putERKNS_5ArrayIfEE@Base 3.2.1
 _ZN8casacore7LatticeIfE3setERKf@Base 3.2.1
 _ZN8casacore7LatticeIfE5applyEPFfRKfE@Base 3.2.1
 _ZN8casacore7LatticeIfE5applyEPFffE@Base 3.2.1
 _ZN8casacore7LatticeIfE5applyERKNS_10FunctionalIffEE@Base 3.2.1
 _ZN8casacore7LatticeIfE5putAtERKfRKNS_9IPositionE@Base 3.2.1
 _ZN8casacore7LatticeIfE8copyDataERKS1_@Base 3.2.1
 _ZN8casacore7LatticeIfE8getSliceERNS_5ArrayIfEERKNS_6SlicerEb@Base 3.2.1
 _ZN8casacore7LatticeIfE8getSliceERNS_5ArrayIfEERKNS_9IPositionES7_S7_b@Base 3.2.1
 _ZN8casacore7LatticeIfE8getSliceERNS_5ArrayIfEERKNS_9IPositionES7_b@Base 3.2.1
 _ZN8casacore7LatticeIfE8putSliceERKNS_5ArrayIfEERKNS_9IPositionE@Base 3.2.1
 _ZN8casacore7LatticeIfE8putSliceERKNS_5ArrayIfEERKNS_9IPositionES8_@Base 3.2.1
 _ZN8casacore7LatticeIfEC1ERKS1_@Base 3.2.1
 _ZN8casacore7LatticeIfEC1Ev@Base 3.2.1
 _ZN8casacore7LatticeIfEC2ERKS1_@Base 3.2.1
 _ZN8casacore7LatticeIfEC2Ev@Base 3.2.1
 _ZN8casacore7LatticeIfED0Ev@Base 3.2.1
 _ZN8casacore7LatticeIfED1Ev@Base 3.2.1
 _ZN8casacore7LatticeIfED2Ev@Base 3.2.1
 _ZN8casacore7LatticeIfEaSERKS1_@Base 3.2.1
 _ZN8casacore7LatticeIfEdVERKS1_@Base 3.2.1
 _ZN8casacore7LatticeIfEmIERKS1_@Base 3.2.1
 _ZN8casacore7LatticeIfEmLERKS1_@Base 3.2.1
 _ZN8casacore7LatticeIfEpLERKS1_@Base 3.2.1
 _ZN8casacore7assert_INS_10ArrayErrorEEC1EiPKcS4_i@Base 3.2.1
 _ZN8casacore7assert_INS_10ArrayErrorEEC2EiPKcS4_i@Base 3.2.1
 _ZN8casacore7assert_INS_9AipsErrorEEC1EiPKcS4_i@Base 3.2.1
 _ZN8casacore7assert_INS_9AipsErrorEEC2EiPKcS4_i@Base 3.2.1
 _ZN8casacore7indexinERKNS_15LatticeExprNodeES2_@Base 3.2.1
 _ZN8casacore7objcopyINS_6VectorIdEEEEvPT_PKS3_m@Base 3.2.1
 _ZN8casacore7objcopyINS_6VectorIdEEEEvPT_PKS3_mmm@Base 3.2.1
 _ZN8casacore7objcopyINS_8AutoDiffIdEEEEvPT_PKS3_m@Base 3.2.1
 _ZN8casacore7objcopyINS_8AutoDiffIdEEEEvPT_PKS3_mmm@Base 3.2.1
 _ZN8casacore7objcopyINS_8AutoDiffIfEEEEvPT_PKS3_m@Base 3.2.1
 _ZN8casacore7objcopyINS_8AutoDiffIfEEEEvPT_PKS3_mmm@Base 3.2.1
 _ZN8casacore7objcopyIdEEvPT_PKS1_m@Base 3.2.1
 _ZN8casacore7objcopyIfEEvPT_PKS1_m@Base 3.2.1
 _ZN8casacore7replaceERKNS_15LatticeExprNodeES2_@Base 3.2.1
 _ZN8casacore7toFloatERKNS_15LatticeExprNodeE@Base 3.2.1
 _ZN8casacore8AutoDiffIdEC1ERKS1_@Base 3.2.1
 _ZN8casacore8AutoDiffIdEC1ERKdj@Base 3.2.1
 _ZN8casacore8AutoDiffIdEC1ERKdjj@Base 3.2.1
 _ZN8casacore8AutoDiffIdEC2ERKS1_@Base 3.2.1
 _ZN8casacore8AutoDiffIdEC2ERKdj@Base 3.2.1
 _ZN8casacore8AutoDiffIdEC2ERKdjj@Base 3.2.1
 _ZN8casacore8AutoDiffIdEdVERKS1_@Base 3.2.1
 _ZN8casacore8AutoDiffIdEmIERKS1_@Base 3.2.1
 _ZN8casacore8AutoDiffIdEmLERKS1_@Base 3.2.1
 _ZN8casacore8AutoDiffIdEpLERKS1_@Base 3.2.1
 _ZN8casacore8AutoDiffIfEC1ERKS1_@Base 3.2.1
 _ZN8casacore8AutoDiffIfEC2ERKS1_@Base 3.2.1
 _ZN8casacore8AutoDiffIfEdVERKS1_@Base 3.2.1
 _ZN8casacore8FITSMask10doGetSliceERNS_5ArrayIbEERKNS_6SlicerE@Base 3.2.1
 _ZN8casacore8FITSMask10doPutSliceERKNS_5ArrayIbEERKNS_9IPositionES7_@Base 3.2.1
 _ZN8casacore8FITSMask13filterZeroNaNEPbPKfj@Base 3.2.1
 _ZN8casacore8FITSMask13setFilterZeroEb@Base 3.2.1
 _ZN8casacore8FITSMask9filterNaNEPbPKfj@Base 3.2.1
 _ZN8casacore8FITSMaskC1EPNS_15TiledFileAccessE@Base 3.2.1
 _ZN8casacore8FITSMaskC1EPNS_15TiledFileAccessEffhb@Base 3.2.1
 _ZN8casacore8FITSMaskC1EPNS_15TiledFileAccessEffib@Base 3.2.1
 _ZN8casacore8FITSMaskC1EPNS_15TiledFileAccessEffsb@Base 3.2.1
 _ZN8casacore8FITSMaskC1ERKS0_@Base 3.2.1
 _ZN8casacore8FITSMaskC2EPNS_15TiledFileAccessE@Base 3.2.1
 _ZN8casacore8FITSMaskC2EPNS_15TiledFileAccessEffhb@Base 3.2.1
 _ZN8casacore8FITSMaskC2EPNS_15TiledFileAccessEffib@Base 3.2.1
 _ZN8casacore8FITSMaskC2EPNS_15TiledFileAccessEffsb@Base 3.2.1
 _ZN8casacore8FITSMaskC2ERKS0_@Base 3.2.1
 _ZN8casacore8FITSMaskD0Ev@Base 3.2.1
 _ZN8casacore8FITSMaskD1Ev@Base 3.2.1
 _ZN8casacore8FITSMaskD2Ev@Base 3.2.1
 _ZN8casacore8FITSMaskaSERKS0_@Base 3.2.1
 _ZN8casacore8FunctionINS_8AutoDiffIdEES2_E7setModeERKNS_15RecordInterfaceE@Base 3.2.1
 _ZN8casacore8FunctionINS_8AutoDiffIfEES2_E7setModeERKNS_15RecordInterfaceE@Base 3.2.1
 _ZN8casacore8FunctionIddE7setModeERKNS_15RecordInterfaceE@Base 3.2.1
 _ZN8casacore8FunctionIffE7setModeERKNS_15RecordInterfaceE@Base 3.2.1
 _ZN8casacore8LCRegion10doPutSliceERKNS_5ArrayIbEERKNS_9IPositionES7_@Base 3.2.1
 _ZN8casacore8LCRegion10fromRecordERKNS_11TableRecordERKNS_6StringE@Base 3.2.1
 _ZN8casacore8LCRegion12handleDeleteEv@Base 3.2.1
 _ZN8casacore8LCRegion12handleRenameERKNS_6StringEb@Base 3.2.1
 _ZN8casacore8LCRegion14setBoundingBoxERKNS_6SlicerE@Base 3.2.1
 _ZN8casacore8LCRegion22setShapeAndBoundingBoxERKNS_9IPositionERKNS_6SlicerE@Base 3.2.1
 _ZN8casacore8LCRegion3setERKb@Base 3.2.1
 _ZN8casacore8LCRegion5applyEPFbRKbE@Base 3.2.1
 _ZN8casacore8LCRegion5applyEPFbbE@Base 3.2.1
 _ZN8casacore8LCRegion5applyERKNS_10FunctionalIbbEE@Base 3.2.1
 _ZN8casacore8LCRegion5putAtERKbRKNS_9IPositionE@Base 3.2.1
 _ZN8casacore8LCRegion8copyDataERKNS_7LatticeIbEE@Base 3.2.1
 _ZN8casacore8LCRegionC1ERKNS_9IPositionE@Base 3.2.1
 _ZN8casacore8LCRegionC1ERKS0_@Base 3.2.1
 _ZN8casacore8LCRegionC1Ev@Base 3.2.1
 _ZN8casacore8LCRegionC2ERKNS_9IPositionE@Base 3.2.1
 _ZN8casacore8LCRegionC2ERKS0_@Base 3.2.1
 _ZN8casacore8LCRegionC2Ev@Base 3.2.1
 _ZN8casacore8LCRegionD0Ev@Base 3.2.1
 _ZN8casacore8LCRegionD1Ev@Base 3.2.1
 _ZN8casacore8LCRegionD2Ev@Base 3.2.1
 _ZN8casacore8LCRegionaSERKS0_@Base 3.2.1
 _ZN8casacore8LCSlicer10fromRecordERKNS_11TableRecordERKNS_6StringE@Base 3.2.1
 _ZN8casacore8LCSlicer14fillFromDoubleERKNS_6VectorIdEES4_S4_@Base 3.2.1
 _ZN8casacore8LCSlicer17fillFromIPositionERKNS_9IPositionES3_S3_@Base 3.2.1
 _ZN8casacore8LCSlicer4fillEv@Base 3.2.1
 _ZN8casacore8LCSlicer9classNameEv@Base 3.2.1
 _ZN8casacore8LCSlicer9fillFlagsEbijjj@Base 3.2.1
 _ZN8casacore8LCSlicerC1ERKNS_6SlicerE@Base 3.2.1
 _ZN8casacore8LCSlicerC1ERKNS_6VectorIdEES4_S4_RKNS1_IbEES7_S7_RKNS1_IiEESA_@Base 3.2.1
 _ZN8casacore8LCSlicerC1ERKNS_6VectorIdEES4_S4_bNS_10RegionType10AbsRelTypeE@Base 3.2.1
 _ZN8casacore8LCSlicerC1ERKNS_6VectorIdEES4_bNS_10RegionType10AbsRelTypeE@Base 3.2.1
 _ZN8casacore8LCSlicerC1ERKNS_6VectorIfEES4_S4_RKNS1_IbEES7_S7_RKNS1_IiEESA_@Base 3.2.1
 _ZN8casacore8LCSlicerC1ERKNS_6VectorIfEES4_S4_bNS_10RegionType10AbsRelTypeE@Base 3.2.1
 _ZN8casacore8LCSlicerC1ERKNS_6VectorIfEES4_bNS_10RegionType10AbsRelTypeE@Base 3.2.1
 _ZN8casacore8LCSlicerC1ERKNS_9IPositionES3_NS_10RegionType10AbsRelTypeE@Base 3.2.1
 _ZN8casacore8LCSlicerC1ERKNS_9IPositionES3_S3_NS_10RegionType10AbsRelTypeE@Base 3.2.1
 _ZN8casacore8LCSlicerC1ERKNS_9IPositionES3_S3_RKNS_6VectorIiEES7_@Base 3.2.1
 _ZN8casacore8LCSlicerC1ERKS0_@Base 3.2.1
 _ZN8casacore8LCSlicerC1Ev@Base 3.2.1
 _ZN8casacore8LCSlicerC2ERKNS_6SlicerE@Base 3.2.1
 _ZN8casacore8LCSlicerC2ERKNS_6VectorIdEES4_S4_RKNS1_IbEES7_S7_RKNS1_IiEESA_@Base 3.2.1
 _ZN8casacore8LCSlicerC2ERKNS_6VectorIdEES4_S4_bNS_10RegionType10AbsRelTypeE@Base 3.2.1
 _ZN8casacore8LCSlicerC2ERKNS_6VectorIdEES4_bNS_10RegionType10AbsRelTypeE@Base 3.2.1
 _ZN8casacore8LCSlicerC2ERKNS_6VectorIfEES4_S4_RKNS1_IbEES7_S7_RKNS1_IiEESA_@Base 3.2.1
 _ZN8casacore8LCSlicerC2ERKNS_6VectorIfEES4_S4_bNS_10RegionType10AbsRelTypeE@Base 3.2.1
 _ZN8casacore8LCSlicerC2ERKNS_6VectorIfEES4_bNS_10RegionType10AbsRelTypeE@Base 3.2.1
 _ZN8casacore8LCSlicerC2ERKNS_9IPositionES3_NS_10RegionType10AbsRelTypeE@Base 3.2.1
 _ZN8casacore8LCSlicerC2ERKNS_9IPositionES3_S3_NS_10RegionType10AbsRelTypeE@Base 3.2.1
 _ZN8casacore8LCSlicerC2ERKNS_9IPositionES3_S3_RKNS_6VectorIiEES7_@Base 3.2.1
 _ZN8casacore8LCSlicerC2ERKS0_@Base 3.2.1
 _ZN8casacore8LCSlicerC2Ev@Base 3.2.1
 _ZN8casacore8LCSlicerD1Ev@Base 3.2.1
 _ZN8casacore8LCSlicerD2Ev@Base 3.2.1
 _ZN8casacore8LCSliceraSERKS0_@Base 3.2.1
 _ZN8casacore8LELArrayISt7complexIdEEC1ERKNS_9IPositionE@Base 3.2.1
 _ZN8casacore8LELArrayISt7complexIdEEC2ERKNS_9IPositionE@Base 3.2.1
 _ZN8casacore8LELArrayISt7complexIfEEC1ERKNS_9IPositionE@Base 3.2.1
 _ZN8casacore8LELArrayISt7complexIfEEC2ERKNS_9IPositionE@Base 3.2.1
 _ZN8casacore8LELArrayIbEC1ERKNS_9IPositionE@Base 3.2.1
 _ZN8casacore8LELArrayIbEC2ERKNS_9IPositionE@Base 3.2.1
 _ZN8casacore8LELArrayIdEC1ERKNS_9IPositionE@Base 3.2.1
 _ZN8casacore8LELArrayIdEC2ERKNS_9IPositionE@Base 3.2.1
 _ZN8casacore8LELArrayIfEC1ERKNS_9IPositionE@Base 3.2.1
 _ZN8casacore8LELArrayIfEC2ERKNS_9IPositionE@Base 3.2.1
 _ZN8casacore8LELUnaryISt7complexIdEE17prepareScalarExprEv@Base 3.2.1
 _ZN8casacore8LELUnaryISt7complexIdEE4lockENS_10FileLocker8LockTypeEj@Base 3.2.1
 _ZN8casacore8LELUnaryISt7complexIdEE6resyncEv@Base 3.2.1
 _ZN8casacore8LELUnaryISt7complexIdEE6unlockEv@Base 3.2.1
 _ZN8casacore8LELUnaryISt7complexIdEED0Ev@Base 3.2.1
 _ZN8casacore8LELUnaryISt7complexIdEED1Ev@Base 3.2.1
 _ZN8casacore8LELUnaryISt7complexIdEED2Ev@Base 3.2.1
 _ZN8casacore8LELUnaryISt7complexIfEE17prepareScalarExprEv@Base 3.2.1
 _ZN8casacore8LELUnaryISt7complexIfEE4lockENS_10FileLocker8LockTypeEj@Base 3.2.1
 _ZN8casacore8LELUnaryISt7complexIfEE6resyncEv@Base 3.2.1
 _ZN8casacore8LELUnaryISt7complexIfEE6unlockEv@Base 3.2.1
 _ZN8casacore8LELUnaryISt7complexIfEED0Ev@Base 3.2.1
 _ZN8casacore8LELUnaryISt7complexIfEED1Ev@Base 3.2.1
 _ZN8casacore8LELUnaryISt7complexIfEED2Ev@Base 3.2.1
 _ZN8casacore8LELUnaryIdE17prepareScalarExprEv@Base 3.2.1
 _ZN8casacore8LELUnaryIdE4lockENS_10FileLocker8LockTypeEj@Base 3.2.1
 _ZN8casacore8LELUnaryIdE6resyncEv@Base 3.2.1
 _ZN8casacore8LELUnaryIdE6unlockEv@Base 3.2.1
 _ZN8casacore8LELUnaryIdED0Ev@Base 3.2.1
 _ZN8casacore8LELUnaryIdED1Ev@Base 3.2.1
 _ZN8casacore8LELUnaryIdED2Ev@Base 3.2.1
 _ZN8casacore8LELUnaryIfE17prepareScalarExprEv@Base 3.2.1
 _ZN8casacore8LELUnaryIfE4lockENS_10FileLocker8LockTypeEj@Base 3.2.1
 _ZN8casacore8LELUnaryIfE6resyncEv@Base 3.2.1
 _ZN8casacore8LELUnaryIfE6unlockEv@Base 3.2.1
 _ZN8casacore8LELUnaryIfED0Ev@Base 3.2.1
 _ZN8casacore8LELUnaryIfED1Ev@Base 3.2.1
 _ZN8casacore8LELUnaryIfED2Ev@Base 3.2.1
 _ZN8casacore8fractileERKNS_15LatticeExprNodeES2_@Base 3.2.1
 _ZN8casacore8fractileIdEET_RKNS_5ArrayIS1_EERNS_5BlockIS1_EEfbb@Base 3.2.1
 _ZN8casacore8fractileIfEET_RKNS_5ArrayIS1_EERNS_5BlockIS1_EEfbb@Base 3.2.1
 _ZN8casacore8toDoubleERKNS_15LatticeExprNodeE@Base 3.2.1
 _ZN8casacore8toRecordIdEENS_6RecordERKNS_9StatsDataIT_EE@Base 3.2.1
 _ZN8casacore8varianceERKNS_15LatticeExprNodeE@Base 3.2.1
 _ZN8casacore9LCLELMask4lockENS_10FileLocker8LockTypeEj@Base 3.2.1
 _ZN8casacore9LCLELMask6reopenEv@Base 3.2.1
 _ZN8casacore9LCLELMask6resyncEv@Base 3.2.1
 _ZN8casacore9LCLELMask6unlockEv@Base 3.2.1
 _ZN8casacore9LCLELMask9classNameEv@Base 3.2.1
 _ZN8casacore9LCLELMask9tempCloseEv@Base 3.2.1
 _ZN8casacore9LCLELMaskC1ERKNS_11LatticeExprIbEE@Base 3.2.1
 _ZN8casacore9LCLELMaskC1ERKS0_@Base 3.2.1
 _ZN8casacore9LCLELMaskC1Ev@Base 3.2.1
 _ZN8casacore9LCLELMaskC2ERKNS_11LatticeExprIbEE@Base 3.2.1
 _ZN8casacore9LCLELMaskC2ERKS0_@Base 3.2.1
 _ZN8casacore9LCLELMaskC2Ev@Base 3.2.1
 _ZN8casacore9LCLELMaskD0Ev@Base 3.2.1
 _ZN8casacore9LCLELMaskD1Ev@Base 3.2.1
 _ZN8casacore9LCLELMaskD2Ev@Base 3.2.1
 _ZN8casacore9LCLELMaskaSERKS0_@Base 3.2.1
 _ZN8casacore9LCPolygon10defineMaskEv@Base 3.2.1
 _ZN8casacore9LCPolygon10fromRecordERKNS_11TableRecordERKNS_6StringE@Base 3.2.1
 _ZN8casacore9LCPolygon11truncateEndEfi@Base 3.2.1
 _ZN8casacore9LCPolygon13truncateStartEf@Base 3.2.1
 _ZN8casacore9LCPolygon7_isNearEff@Base 3.2.1
 _ZN8casacore9LCPolygon8fillMaskEPbiiiiPKfS3_j@Base 3.2.1
 _ZN8casacore9LCPolygon9classNameEv@Base 3.2.1
 _ZN8casacore9LCPolygon9defineBoxEv@Base 3.2.1
 _ZN8casacore9LCPolygonC1ERKNS_6VectorIdEES4_RKNS_9IPositionE@Base 3.2.1
 _ZN8casacore9LCPolygonC1ERKNS_6VectorIfEES4_RKNS_9IPositionE@Base 3.2.1
 _ZN8casacore9LCPolygonC1ERKS0_@Base 3.2.1
 _ZN8casacore9LCPolygonC1Ev@Base 3.2.1
 _ZN8casacore9LCPolygonC2ERKNS_6VectorIdEES4_RKNS_9IPositionE@Base 3.2.1
 _ZN8casacore9LCPolygonC2ERKNS_6VectorIfEES4_RKNS_9IPositionE@Base 3.2.1
 _ZN8casacore9LCPolygonC2ERKS0_@Base 3.2.1
 _ZN8casacore9LCPolygonC2Ev@Base 3.2.1
 _ZN8casacore9LCPolygonD0Ev@Base 3.2.1
 _ZN8casacore9LCPolygonD1Ev@Base 3.2.1
 _ZN8casacore9LCPolygonD2Ev@Base 3.2.1
 _ZN8casacore9LCPolygonaSERKS0_@Base 3.2.1
 _ZN8casacore9LCStretch10fromRecordERKNS_11TableRecordERKNS_6StringE@Base 3.2.1
 _ZN8casacore9LCStretch13multiGetSliceERNS_5ArrayIbEERKNS_6SlicerE@Base 3.2.1
 _ZN8casacore9LCStretch4fillERKNS_9IPositionERKNS_5LCBoxE@Base 3.2.1
 _ZN8casacore9LCStretch9classNameEv@Base 3.2.1
 _ZN8casacore9LCStretchC1ERKNS_8LCRegionERKNS_9IPositionERKNS_5LCBoxE@Base 3.2.1
 _ZN8casacore9LCStretchC1ERKS0_@Base 3.2.1
 _ZN8casacore9LCStretchC1EbPKNS_8LCRegionERKNS_9IPositionERKNS_5LCBoxE@Base 3.2.1
 _ZN8casacore9LCStretchC1Ev@Base 3.2.1
 _ZN8casacore9LCStretchC2ERKNS_8LCRegionERKNS_9IPositionERKNS_5LCBoxE@Base 3.2.1
 _ZN8casacore9LCStretchC2ERKS0_@Base 3.2.1
 _ZN8casacore9LCStretchC2EbPKNS_8LCRegionERKNS_9IPositionERKNS_5LCBoxE@Base 3.2.1
 _ZN8casacore9LCStretchC2Ev@Base 3.2.1
 _ZN8casacore9LCStretchD0Ev@Base 3.2.1
 _ZN8casacore9LCStretchD1Ev@Base 3.2.1
 _ZN8casacore9LCStretchD2Ev@Base 3.2.1
 _ZN8casacore9LCStretchaSERKS0_@Base 3.2.1
 _ZN8casacore9LELBinaryISt7complexIdEE17prepareScalarExprEv@Base 3.2.1
 _ZN8casacore9LELBinaryISt7complexIdEE4lockENS_10FileLocker8LockTypeEj@Base 3.2.1
 _ZN8casacore9LELBinaryISt7complexIdEE6resyncEv@Base 3.2.1
 _ZN8casacore9LELBinaryISt7complexIdEE6unlockEv@Base 3.2.1
 _ZN8casacore9LELBinaryISt7complexIdEED0Ev@Base 3.2.1
 _ZN8casacore9LELBinaryISt7complexIdEED1Ev@Base 3.2.1
 _ZN8casacore9LELBinaryISt7complexIdEED2Ev@Base 3.2.1
 _ZN8casacore9LELBinaryISt7complexIfEE17prepareScalarExprEv@Base 3.2.1
 _ZN8casacore9LELBinaryISt7complexIfEE4lockENS_10FileLocker8LockTypeEj@Base 3.2.1
 _ZN8casacore9LELBinaryISt7complexIfEE6resyncEv@Base 3.2.1
 _ZN8casacore9LELBinaryISt7complexIfEE6unlockEv@Base 3.2.1
 _ZN8casacore9LELBinaryISt7complexIfEED0Ev@Base 3.2.1
 _ZN8casacore9LELBinaryISt7complexIfEED1Ev@Base 3.2.1
 _ZN8casacore9LELBinaryISt7complexIfEED2Ev@Base 3.2.1
 _ZN8casacore9LELBinaryIdE17prepareScalarExprEv@Base 3.2.1
 _ZN8casacore9LELBinaryIdE4lockENS_10FileLocker8LockTypeEj@Base 3.2.1
 _ZN8casacore9LELBinaryIdE6resyncEv@Base 3.2.1
 _ZN8casacore9LELBinaryIdE6unlockEv@Base 3.2.1
 _ZN8casacore9LELBinaryIdED0Ev@Base 3.2.1
 _ZN8casacore9LELBinaryIdED1Ev@Base 3.2.1
 _ZN8casacore9LELBinaryIdED2Ev@Base 3.2.1
 _ZN8casacore9LELBinaryIfE17prepareScalarExprEv@Base 3.2.1
 _ZN8casacore9LELBinaryIfE4lockENS_10FileLocker8LockTypeEj@Base 3.2.1
 _ZN8casacore9LELBinaryIfE6resyncEv@Base 3.2.1
 _ZN8casacore9LELBinaryIfE6unlockEv@Base 3.2.1
 _ZN8casacore9LELBinaryIfED0Ev@Base 3.2.1
 _ZN8casacore9LELBinaryIfED1Ev@Base 3.2.1
 _ZN8casacore9LELBinaryIfED2Ev@Base 3.2.1
 _ZN8casacore9LELRegion10checkTypesERKNS_16LattRegionHolderES3_@Base 3.2.1
 _ZN8casacore9LELRegion14makeComplementERKNS_12LELInterfaceIbEE@Base 3.2.1
 _ZN8casacore9LELRegion14makeDifferenceERKNS_12LELInterfaceIbEES4_@Base 3.2.1
 _ZN8casacore9LELRegion16makeIntersectionERKNS_12LELInterfaceIbEES4_@Base 3.2.1
 _ZN8casacore9LELRegion17prepareScalarExprEv@Base 3.2.1
 _ZN8casacore9LELRegion6regionERKNS_12LELInterfaceIbEE@Base 3.2.1
 _ZN8casacore9LELRegion9makeUnionERKNS_12LELInterfaceIbEES4_@Base 3.2.1
 _ZN8casacore9LELRegionC1EPNS_16LattRegionHolderE@Base 3.2.1
 _ZN8casacore9LELRegionC1ERKNS_16LattRegionHolderE@Base 3.2.1
 _ZN8casacore9LELRegionC2EPNS_16LattRegionHolderE@Base 3.2.1
 _ZN8casacore9LELRegionC2ERKNS_16LattRegionHolderE@Base 3.2.1
 _ZN8casacore9LELRegionD0Ev@Base 3.2.1
 _ZN8casacore9LELRegionD1Ev@Base 3.2.1
 _ZN8casacore9LELRegionD2Ev@Base 3.2.1
 _ZN8casacore9PtrHolderINS_10CountedPtrIdEEE27delete_pointer_if_necessaryEv@Base 3.2.1
 _ZN8casacore9PtrHolderINS_17LatticeStatisticsIfE21LatticeStatsAlgorithmEE27delete_pointer_if_necessaryEv@Base 3.2.1
 _ZN8casacore9PtrHolderINS_5ArrayIfE16ConstIteratorSTLEE27delete_pointer_if_necessaryEv@Base 3.2.1
 _ZN8casacore9PtrHolderINS_9StatsDataIdEEE27delete_pointer_if_necessaryEv@Base 3.2.1
 _ZN8casacore9PtrHolderIPKfE27delete_pointer_if_necessaryEv@Base 3.2.1
 _ZN8casacore9PtrHolderISt4pairINS_5ArrayIbE16ConstIteratorSTLEjEE27delete_pointer_if_necessaryEv@Base 3.2.1
 _ZN8casacore9PtrHolderISt4pairIPKbjEE27delete_pointer_if_necessaryEv@Base 3.2.1
 _ZN8casacore9PtrHolderISt4pairISt6vectorIS1_IddESaIS3_EEbEE27delete_pointer_if_necessaryEv@Base 3.2.1
 _ZN8casacore9PtrHolderISt6vectorINS_10CountedPtrIdEESaIS3_EEE27delete_pointer_if_necessaryEv@Base 3.2.1
 _ZN8casacore9PtrHolderISt6vectorIS1_IdSaIdEESaIS3_EEE27delete_pointer_if_necessaryEv@Base 3.2.1
 _ZN8casacore9PtrHolderISt6vectorIS1_IySaIyEESaIS3_EEE27delete_pointer_if_necessaryEv@Base 3.2.1
 _ZN8casacore9PtrHolderISt6vectorIbSaIbEEE27delete_pointer_if_necessaryEv@Base 3.2.1
 _ZN8casacore9PtrHolderISt6vectorIdSaIdEEE27delete_pointer_if_necessaryEv@Base 3.2.1
 _ZN8casacore9PtrHolderIdE27delete_pointer_if_necessaryEv@Base 3.2.1
 _ZN8casacore9PtrHolderIyE27delete_pointer_if_necessaryEv@Base 3.2.1
 _ZN8casacore9StatsDataIdEC1ERKS1_@Base 3.2.1
 _ZN8casacore9StatsDataIdEC2ERKS1_@Base 3.2.1
 _ZN8casacore9StatsDataIdED1Ev@Base 3.2.1
 _ZN8casacore9StatsDataIdED2Ev@Base 3.2.1
 _ZN8casacore9StatsDataIdEaSEOS1_@Base 3.2.1
 _ZN8casacore9nelementsERKNS_15LatticeExprNodeE@Base 3.2.1
 _ZN8casacore9toComplexERKNS_15LatticeExprNodeE@Base 3.2.1
 _ZN8casacoreaaERKNS_15LatticeExprNodeES2_@Base 3.2.1
 _ZN8casacoredVISt7complexIdEEEvRNS_5ArrayIT_EERKS5_@Base 3.2.1
 _ZN8casacoredVIdEEvRNS_5ArrayIT_EERKS3_@Base 3.2.1
 _ZN8casacoredvERKNS_15LatticeExprNodeES2_@Base 3.2.1
 _ZN8casacoreeqERKNS_15LatticeExprNodeES2_@Base 3.2.1
 _ZN8casacoregeERKNS_15LatticeExprNodeES2_@Base 3.2.1
 _ZN8casacoregtERKNS_15LatticeExprNodeES2_@Base 3.2.1
 _ZN8casacoreleERKNS_15LatticeExprNodeES2_@Base 3.2.1
 _ZN8casacorelsIddEERSoS1_RKSt4pairIT_T0_E@Base 3.2.1
 _ZN8casacorelsIfEERSoS1_RKNS_5ArrayIT_EE@Base 3.2.1
 _ZN8casacorelsIiEERSoS1_RKNS_5ArrayIT_EE@Base 3.2.1
 _ZN8casacoreltERKNS_15LatticeExprNodeES2_@Base 3.2.1
 _ZN8casacoremIISt7complexIdEEEvRNS_5ArrayIT_EERKS5_@Base 3.2.1
 _ZN8casacoremIIdEEvRNS_5ArrayIT_EERKS3_@Base 3.2.1
 _ZN8casacoremLISt7complexIdEEEvRNS_5ArrayIT_EERKS5_@Base 3.2.1
 _ZN8casacoremLIdEEvRNS_5ArrayIT_EERKS3_@Base 3.2.1
 _ZN8casacoremiERKNS_15LatticeExprNodeES2_@Base 3.2.1
 _ZN8casacoremlERKNS_15LatticeExprNodeES2_@Base 3.2.1
 _ZN8casacoreneERKNS_15LatticeExprNodeES2_@Base 3.2.1
 _ZN8casacorengERKNS_15LatticeExprNodeE@Base 3.2.1
 _ZN8casacorentERKNS_15LatticeExprNodeE@Base 3.2.1
 _ZN8casacoreooERKNS_15LatticeExprNodeES2_@Base 3.2.1
 _ZN8casacorepLISt7complexIdEEEvRNS_5ArrayIT_EERKS5_@Base 3.2.1
 _ZN8casacorepLIdEEvRNS_5ArrayIT_EERKS3_@Base 3.2.1
 _ZN8casacoreplEPKcRKNS_6StringE@Base 3.2.1
 _ZN8casacoreplERKNS_15LatticeExprNodeES2_@Base 3.2.1
 _ZN8casacoreplERKNS_6StringEPKc@Base 3.2.1
 _ZN8casacoreplERKNS_6StringES2_@Base 3.2.1
 _ZN8casacorepsERKNS_15LatticeExprNodeE@Base 3.2.1
 _ZNK8casacore10ConstantNDINS_8AutoDiffIdEEE10cloneNonADEv@Base 3.2.1
 _ZNK8casacore10ConstantNDINS_8AutoDiffIdEEE4evalEPKd@Base 3.2.1
 _ZNK8casacore10ConstantNDINS_8AutoDiffIdEEE5cloneEv@Base 3.2.1
 _ZNK8casacore10ConstantNDINS_8AutoDiffIdEEE7cloneADEv@Base 3.2.1
 _ZNK8casacore10ConstantNDIdE10cloneNonADEv@Base 3.2.1
 _ZNK8casacore10ConstantNDIdE4evalEPKd@Base 3.2.1
 _ZNK8casacore10ConstantNDIdE5cloneEv@Base 3.2.1
 _ZNK8casacore10ConstantNDIdE7cloneADEv@Base 3.2.1
 _ZNK8casacore10CountedPtrINS_15TempLatticeImplIbEEE7DeleterIS2_EclEPS2_@Base 3.2.1
 _ZNK8casacore10CountedPtrINS_5BlockINS_6VectorIdEEEEE7DeleterIS4_EclEPS4_@Base 3.2.1
 _ZNK8casacore10CountedPtrINS_5BlockINS_8AutoDiffIdEEEEE7DeleterIS4_EclEPS4_@Base 3.2.1
 _ZNK8casacore10CountedPtrINS_5BlockINS_8AutoDiffIfEEEEE7DeleterIS4_EclEPS4_@Base 3.2.1
 _ZNK8casacore10Function1DINS_8AutoDiffIfEES2_E4ndimEv@Base 3.2.1
 _ZNK8casacore10Function1DIffE4ndimEv@Base 3.2.1
 _ZNK8casacore10Gaussian1DINS_8AutoDiffIfEEE10cloneNonADEv@Base 3.2.1
 _ZNK8casacore10Gaussian1DINS_8AutoDiffIfEEE4evalEPKf@Base 3.2.1
 _ZNK8casacore10Gaussian1DINS_8AutoDiffIfEEE5cloneEv@Base 3.2.1
 _ZNK8casacore10Gaussian1DINS_8AutoDiffIfEEE7cloneADEv@Base 3.2.1
 _ZNK8casacore10Gaussian1DIfE10cloneNonADEv@Base 3.2.1
 _ZNK8casacore10Gaussian1DIfE4evalEPKf@Base 3.2.1
 _ZNK8casacore10Gaussian1DIfE5cloneEv@Base 3.2.1
 _ZNK8casacore10Gaussian1DIfE7cloneADEv@Base 3.2.1
 _ZNK8casacore10Gaussian2DINS_8AutoDiffIdEEE10cloneNonADEv@Base 3.2.1
 _ZNK8casacore10Gaussian2DINS_8AutoDiffIdEEE4evalEPKd@Base 3.2.1
 _ZNK8casacore10Gaussian2DINS_8AutoDiffIdEEE5cloneEv@Base 3.2.1
 _ZNK8casacore10Gaussian2DINS_8AutoDiffIdEEE7cloneADEv@Base 3.2.1
 _ZNK8casacore10Gaussian2DIdE10cloneNonADEv@Base 3.2.1
 _ZNK8casacore10Gaussian2DIdE4evalEPKd@Base 3.2.1
 _ZNK8casacore10Gaussian2DIdE5cloneEv@Base 3.2.1
 _ZNK8casacore10Gaussian2DIdE7cloneADEv@Base 3.2.1
 _ZNK8casacore10HyperPlaneINS_8AutoDiffIdEEE10cloneNonADEv@Base 3.2.1
 _ZNK8casacore10HyperPlaneINS_8AutoDiffIdEEE4evalEPKd@Base 3.2.1
 _ZNK8casacore10HyperPlaneINS_8AutoDiffIdEEE5cloneEv@Base 3.2.1
 _ZNK8casacore10HyperPlaneINS_8AutoDiffIdEEE7cloneADEv@Base 3.2.1
 _ZNK8casacore10HyperPlaneIdE10cloneNonADEv@Base 3.2.1
 _ZNK8casacore10HyperPlaneIdE4evalEPKd@Base 3.2.1
 _ZNK8casacore10HyperPlaneIdE5cloneEv@Base 3.2.1
 _ZNK8casacore10HyperPlaneIdE7cloneADEv@Base 3.2.1
 _ZNK8casacore10LCHDF5Mask10isWritableEv@Base 3.2.1
 _ZNK8casacore10LCHDF5Mask11cloneRegionEv@Base 3.2.1
 _ZNK8casacore10LCHDF5Mask11doTranslateERKNS_6VectorIfEERKNS_9IPositionE@Base 3.2.1
 _ZNK8casacore10LCHDF5Mask16advisedMaxPixelsEv@Base 3.2.1
 _ZNK8casacore10LCHDF5Mask17doNiceCursorShapeEj@Base 3.2.1
 _ZNK8casacore10LCHDF5Mask4typeEv@Base 3.2.1
 _ZNK8casacore10LCHDF5Mask8makeIterERKNS_16LatticeNavigatorEb@Base 3.2.1
 _ZNK8casacore10LCHDF5Mask8toRecordERKNS_6StringE@Base 3.2.1
 _ZNK8casacore10LCHDF5MaskeqERKNS_8LCRegionE@Base 3.2.1
 _ZNK8casacore10LCPixelSet11cloneRegionEv@Base 3.2.1
 _ZNK8casacore10LCPixelSet11doTranslateERKNS_6VectorIfEERKNS_9IPositionE@Base 3.2.1
 _ZNK8casacore10LCPixelSet4typeEv@Base 3.2.1
 _ZNK8casacore10LCPixelSet8toRecordERKNS_6StringE@Base 3.2.1
 _ZNK8casacore10LCPixelSeteqERKNS_8LCRegionE@Base 3.2.1
 _ZNK8casacore10LELConvertISt7complexIdES1_IfEE4evalERNS_8LELArrayIS2_EERKNS_6SlicerE@Base 3.2.1
 _ZNK8casacore10LELConvertISt7complexIdES1_IfEE7hasLockENS_10FileLocker8LockTypeE@Base 3.2.1
 _ZNK8casacore10LELConvertISt7complexIdES1_IfEE9classNameEv@Base 3.2.1
 _ZNK8casacore10LELConvertISt7complexIdES1_IfEE9getScalarEv@Base 3.2.1
 _ZNK8casacore10LELConvertISt7complexIdEdE4evalERNS_8LELArrayIS2_EERKNS_6SlicerE@Base 3.2.1
 _ZNK8casacore10LELConvertISt7complexIdEdE7hasLockENS_10FileLocker8LockTypeE@Base 3.2.1
 _ZNK8casacore10LELConvertISt7complexIdEdE9classNameEv@Base 3.2.1
 _ZNK8casacore10LELConvertISt7complexIdEdE9getScalarEv@Base 3.2.1
 _ZNK8casacore10LELConvertISt7complexIdEfE4evalERNS_8LELArrayIS2_EERKNS_6SlicerE@Base 3.2.1
 _ZNK8casacore10LELConvertISt7complexIdEfE7hasLockENS_10FileLocker8LockTypeE@Base 3.2.1
 _ZNK8casacore10LELConvertISt7complexIdEfE9classNameEv@Base 3.2.1
 _ZNK8casacore10LELConvertISt7complexIdEfE9getScalarEv@Base 3.2.1
 _ZNK8casacore10LELConvertISt7complexIfES1_IdEE4evalERNS_8LELArrayIS2_EERKNS_6SlicerE@Base 3.2.1
 _ZNK8casacore10LELConvertISt7complexIfES1_IdEE7hasLockENS_10FileLocker8LockTypeE@Base 3.2.1
 _ZNK8casacore10LELConvertISt7complexIfES1_IdEE9classNameEv@Base 3.2.1
 _ZNK8casacore10LELConvertISt7complexIfES1_IdEE9getScalarEv@Base 3.2.1
 _ZNK8casacore10LELConvertISt7complexIfEdE4evalERNS_8LELArrayIS2_EERKNS_6SlicerE@Base 3.2.1
 _ZNK8casacore10LELConvertISt7complexIfEdE7hasLockENS_10FileLocker8LockTypeE@Base 3.2.1
 _ZNK8casacore10LELConvertISt7complexIfEdE9classNameEv@Base 3.2.1
 _ZNK8casacore10LELConvertISt7complexIfEdE9getScalarEv@Base 3.2.1
 _ZNK8casacore10LELConvertISt7complexIfEfE4evalERNS_8LELArrayIS2_EERKNS_6SlicerE@Base 3.2.1
 _ZNK8casacore10LELConvertISt7complexIfEfE7hasLockENS_10FileLocker8LockTypeE@Base 3.2.1
 _ZNK8casacore10LELConvertISt7complexIfEfE9classNameEv@Base 3.2.1
 _ZNK8casacore10LELConvertISt7complexIfEfE9getScalarEv@Base 3.2.1
 _ZNK8casacore10LELConvertIdfE4evalERNS_8LELArrayIdEERKNS_6SlicerE@Base 3.2.1
 _ZNK8casacore10LELConvertIdfE7hasLockENS_10FileLocker8LockTypeE@Base 3.2.1
 _ZNK8casacore10LELConvertIdfE9classNameEv@Base 3.2.1
 _ZNK8casacore10LELConvertIdfE9getScalarEv@Base 3.2.1
 _ZNK8casacore10LELConvertIfdE4evalERNS_8LELArrayIfEERKNS_6SlicerE@Base 3.2.1
 _ZNK8casacore10LELConvertIfdE7hasLockENS_10FileLocker8LockTypeE@Base 3.2.1
 _ZNK8casacore10LELConvertIfdE9classNameEv@Base 3.2.1
 _ZNK8casacore10LELConvertIfdE9getScalarEv@Base 3.2.1
 _ZNK8casacore10LELLatticeISt7complexIdEE4evalERNS_8LELArrayIS2_EERKNS_6SlicerE@Base 3.2.1
 _ZNK8casacore10LELLatticeISt7complexIdEE7evalRefERNS_11LELArrayRefIS2_EERKNS_6SlicerE@Base 3.2.1
 _ZNK8casacore10LELLatticeISt7complexIdEE7hasLockENS_10FileLocker8LockTypeE@Base 3.2.1
 _ZNK8casacore10LELLatticeISt7complexIdEE9classNameEv@Base 3.2.1
 _ZNK8casacore10LELLatticeISt7complexIdEE9getScalarEv@Base 3.2.1
 _ZNK8casacore10LELLatticeISt7complexIfEE4evalERNS_8LELArrayIS2_EERKNS_6SlicerE@Base 3.2.1
 _ZNK8casacore10LELLatticeISt7complexIfEE7evalRefERNS_11LELArrayRefIS2_EERKNS_6SlicerE@Base 3.2.1
 _ZNK8casacore10LELLatticeISt7complexIfEE7hasLockENS_10FileLocker8LockTypeE@Base 3.2.1
 _ZNK8casacore10LELLatticeISt7complexIfEE9classNameEv@Base 3.2.1
 _ZNK8casacore10LELLatticeISt7complexIfEE9getScalarEv@Base 3.2.1
 _ZNK8casacore10LELLatticeIbE4evalERNS_8LELArrayIbEERKNS_6SlicerE@Base 3.2.1
 _ZNK8casacore10LELLatticeIbE7evalRefERNS_11LELArrayRefIbEERKNS_6SlicerE@Base 3.2.1
 _ZNK8casacore10LELLatticeIbE7hasLockENS_10FileLocker8LockTypeE@Base 3.2.1
 _ZNK8casacore10LELLatticeIbE9classNameEv@Base 3.2.1
 _ZNK8casacore10LELLatticeIbE9getScalarEv@Base 3.2.1
 _ZNK8casacore10LELLatticeIdE4evalERNS_8LELArrayIdEERKNS_6SlicerE@Base 3.2.1
 _ZNK8casacore10LELLatticeIdE7evalRefERNS_11LELArrayRefIdEERKNS_6SlicerE@Base 3.2.1
 _ZNK8casacore10LELLatticeIdE7hasLockENS_10FileLocker8LockTypeE@Base 3.2.1
 _ZNK8casacore10LELLatticeIdE9classNameEv@Base 3.2.1
 _ZNK8casacore10LELLatticeIdE9getScalarEv@Base 3.2.1
 _ZNK8casacore10LELLatticeIfE4evalERNS_8LELArrayIfEERKNS_6SlicerE@Base 3.2.1
 _ZNK8casacore10LELLatticeIfE7evalRefERNS_11LELArrayRefIfEERKNS_6SlicerE@Base 3.2.1
 _ZNK8casacore10LELLatticeIfE7hasLockENS_10FileLocker8LockTypeE@Base 3.2.1
 _ZNK8casacore10LELLatticeIfE9classNameEv@Base 3.2.1
 _ZNK8casacore10LELLatticeIfE9getScalarEv@Base 3.2.1
 _ZNK8casacore10PagedArrayISt7complexIfEE10columnNameEv@Base 3.2.1
 _ZNK8casacore10PagedArrayISt7complexIfEE10isWritableEv@Base 3.2.1
 _ZNK8casacore10PagedArrayISt7complexIfEE10tempReopenEv@Base 3.2.1
 _ZNK8casacore10PagedArrayISt7complexIfEE12isPersistentEv@Base 3.2.1
 _ZNK8casacore10PagedArrayISt7complexIfEE16advisedMaxPixelsEv@Base 3.2.1
 _ZNK8casacore10PagedArrayISt7complexIfEE16maximumCacheSizeEv@Base 3.2.1
 _ZNK8casacore10PagedArrayISt7complexIfEE17doNiceCursorShapeEj@Base 3.2.1
 _ZNK8casacore10PagedArrayISt7complexIfEE19showCacheStatisticsERSo@Base 3.2.1
 _ZNK8casacore10PagedArrayISt7complexIfEE2okEv@Base 3.2.1
 _ZNK8casacore10PagedArrayISt7complexIfEE4nameEb@Base 3.2.1
 _ZNK8casacore10PagedArrayISt7complexIfEE5cloneEv@Base 3.2.1
 _ZNK8casacore10PagedArrayISt7complexIfEE5getAtERKNS_9IPositionE@Base 3.2.1
 _ZNK8casacore10PagedArrayISt7complexIfEE5shapeEv@Base 3.2.1
 _ZNK8casacore10PagedArrayISt7complexIfEE5tableEv@Base 3.2.1
 _ZNK8casacore10PagedArrayISt7complexIfEE7hasLockENS_10FileLocker8LockTypeE@Base 3.2.1
 _ZNK8casacore10PagedArrayISt7complexIfEE7isPagedEv@Base 3.2.1
 _ZNK8casacore10PagedArrayISt7complexIfEE8accessorEv@Base 3.2.1
 _ZNK8casacore10PagedArrayISt7complexIfEE8doReopenEv@Base 3.2.1
 _ZNK8casacore10PagedArrayISt7complexIfEE8makeIterERKNS_16LatticeNavigatorEb@Base 3.2.1
 _ZNK8casacore10PagedArrayISt7complexIfEE9rowNumberEv@Base 3.2.1
 _ZNK8casacore10PagedArrayISt7complexIfEE9tableNameEv@Base 3.2.1
 _ZNK8casacore10PagedArrayISt7complexIfEE9tileShapeEv@Base 3.2.1
 _ZNK8casacore10PagedArrayIbE10isWritableEv@Base 3.2.1
 _ZNK8casacore10PagedArrayIbE10tempReopenEv@Base 3.2.1
 _ZNK8casacore10PagedArrayIbE12isPersistentEv@Base 3.2.1
 _ZNK8casacore10PagedArrayIbE16advisedMaxPixelsEv@Base 3.2.1
 _ZNK8casacore10PagedArrayIbE16maximumCacheSizeEv@Base 3.2.1
 _ZNK8casacore10PagedArrayIbE17doNiceCursorShapeEj@Base 3.2.1
 _ZNK8casacore10PagedArrayIbE19showCacheStatisticsERSo@Base 3.2.1
 _ZNK8casacore10PagedArrayIbE2okEv@Base 3.2.1
 _ZNK8casacore10PagedArrayIbE4nameEb@Base 3.2.1
 _ZNK8casacore10PagedArrayIbE5cloneEv@Base 3.2.1
 _ZNK8casacore10PagedArrayIbE5getAtERKNS_9IPositionE@Base 3.2.1
 _ZNK8casacore10PagedArrayIbE5shapeEv@Base 3.2.1
 _ZNK8casacore10PagedArrayIbE7hasLockENS_10FileLocker8LockTypeE@Base 3.2.1
 _ZNK8casacore10PagedArrayIbE7isPagedEv@Base 3.2.1
 _ZNK8casacore10PagedArrayIbE8makeIterERKNS_16LatticeNavigatorEb@Base 3.2.1
 _ZNK8casacore10PagedArrayIbE9tileShapeEv@Base 3.2.1
 _ZNK8casacore10PagedArrayIdE10isWritableEv@Base 3.2.1
 _ZNK8casacore10PagedArrayIdE10tempReopenEv@Base 3.2.1
 _ZNK8casacore10PagedArrayIdE12isPersistentEv@Base 3.2.1
 _ZNK8casacore10PagedArrayIdE16advisedMaxPixelsEv@Base 3.2.1
 _ZNK8casacore10PagedArrayIdE16maximumCacheSizeEv@Base 3.2.1
 _ZNK8casacore10PagedArrayIdE17doNiceCursorShapeEj@Base 3.2.1
 _ZNK8casacore10PagedArrayIdE19showCacheStatisticsERSo@Base 3.2.1
 _ZNK8casacore10PagedArrayIdE2okEv@Base 3.2.1
 _ZNK8casacore10PagedArrayIdE4nameEb@Base 3.2.1
 _ZNK8casacore10PagedArrayIdE5cloneEv@Base 3.2.1
 _ZNK8casacore10PagedArrayIdE5getAtERKNS_9IPositionE@Base 3.2.1
 _ZNK8casacore10PagedArrayIdE5shapeEv@Base 3.2.1
 _ZNK8casacore10PagedArrayIdE7hasLockENS_10FileLocker8LockTypeE@Base 3.2.1
 _ZNK8casacore10PagedArrayIdE7isPagedEv@Base 3.2.1
 _ZNK8casacore10PagedArrayIdE8makeIterERKNS_16LatticeNavigatorEb@Base 3.2.1
 _ZNK8casacore10PagedArrayIdE9tileShapeEv@Base 3.2.1
 _ZNK8casacore10PagedArrayIfE10columnNameEv@Base 3.2.1
 _ZNK8casacore10PagedArrayIfE10isWritableEv@Base 3.2.1
 _ZNK8casacore10PagedArrayIfE10tempReopenEv@Base 3.2.1
 _ZNK8casacore10PagedArrayIfE12isPersistentEv@Base 3.2.1
 _ZNK8casacore10PagedArrayIfE16advisedMaxPixelsEv@Base 3.2.1
 _ZNK8casacore10PagedArrayIfE16maximumCacheSizeEv@Base 3.2.1
 _ZNK8casacore10PagedArrayIfE17doNiceCursorShapeEj@Base 3.2.1
 _ZNK8casacore10PagedArrayIfE19showCacheStatisticsERSo@Base 3.2.1
 _ZNK8casacore10PagedArrayIfE2okEv@Base 3.2.1
 _ZNK8casacore10PagedArrayIfE4nameEb@Base 3.2.1
 _ZNK8casacore10PagedArrayIfE5cloneEv@Base 3.2.1
 _ZNK8casacore10PagedArrayIfE5getAtERKNS_9IPositionE@Base 3.2.1
 _ZNK8casacore10PagedArrayIfE5shapeEv@Base 3.2.1
 _ZNK8casacore10PagedArrayIfE5tableEv@Base 3.2.1
 _ZNK8casacore10PagedArrayIfE7hasLockENS_10FileLocker8LockTypeE@Base 3.2.1
 _ZNK8casacore10PagedArrayIfE7isPagedEv@Base 3.2.1
 _ZNK8casacore10PagedArrayIfE8accessorEv@Base 3.2.1
 _ZNK8casacore10PagedArrayIfE8doReopenEv@Base 3.2.1
 _ZNK8casacore10PagedArrayIfE8makeIterERKNS_16LatticeNavigatorEb@Base 3.2.1
 _ZNK8casacore10PagedArrayIfE9rowNumberEv@Base 3.2.1
 _ZNK8casacore10PagedArrayIfE9tableNameEv@Base 3.2.1
 _ZNK8casacore10PagedArrayIfE9tileShapeEv@Base 3.2.1
 _ZNK8casacore10SubLatticeISt7complexIdEE10isWritableEv@Base 3.2.1
 _ZNK8casacore10SubLatticeISt7complexIdEE12getRegionPtrEv@Base 3.2.1
 _ZNK8casacore10SubLatticeISt7complexIdEE12hasPixelMaskEv@Base 3.2.1
 _ZNK8casacore10SubLatticeISt7complexIdEE12isPersistentEv@Base 3.2.1
 _ZNK8casacore10SubLatticeISt7complexIdEE16advisedMaxPixelsEv@Base 3.2.1
 _ZNK8casacore10SubLatticeISt7complexIdEE17canReferenceArrayEv@Base 3.2.1
 _ZNK8casacore10SubLatticeISt7complexIdEE17doNiceCursorShapeEj@Base 3.2.1
 _ZNK8casacore10SubLatticeISt7complexIdEE2okEv@Base 3.2.1
 _ZNK8casacore10SubLatticeISt7complexIdEE4nameEb@Base 3.2.1
 _ZNK8casacore10SubLatticeISt7complexIdEE5getAtERKNS_9IPositionE@Base 3.2.1
 _ZNK8casacore10SubLatticeISt7complexIdEE5shapeEv@Base 3.2.1
 _ZNK8casacore10SubLatticeISt7complexIdEE7andMaskERNS_5ArrayIbEEbRKS5_@Base 3.2.1
 _ZNK8casacore10SubLatticeISt7complexIdEE7cloneMLEv@Base 3.2.1
 _ZNK8casacore10SubLatticeISt7complexIdEE7hasLockENS_10FileLocker8LockTypeE@Base 3.2.1
 _ZNK8casacore10SubLatticeISt7complexIdEE7isPagedEv@Base 3.2.1
 _ZNK8casacore10SubLatticeISt7complexIdEE8isMaskedEv@Base 3.2.1
 _ZNK8casacore10SubLatticeISt7complexIdEE8makeIterERKNS_16LatticeNavigatorEb@Base 3.2.1
 _ZNK8casacore10SubLatticeISt7complexIdEE9pixelMaskEv@Base 3.2.1
 _ZNK8casacore10SubLatticeISt7complexIfEE10isWritableEv@Base 3.2.1
 _ZNK8casacore10SubLatticeISt7complexIfEE12getRegionPtrEv@Base 3.2.1
 _ZNK8casacore10SubLatticeISt7complexIfEE12hasPixelMaskEv@Base 3.2.1
 _ZNK8casacore10SubLatticeISt7complexIfEE12isPersistentEv@Base 3.2.1
 _ZNK8casacore10SubLatticeISt7complexIfEE16advisedMaxPixelsEv@Base 3.2.1
 _ZNK8casacore10SubLatticeISt7complexIfEE17canReferenceArrayEv@Base 3.2.1
 _ZNK8casacore10SubLatticeISt7complexIfEE17doNiceCursorShapeEj@Base 3.2.1
 _ZNK8casacore10SubLatticeISt7complexIfEE2okEv@Base 3.2.1
 _ZNK8casacore10SubLatticeISt7complexIfEE4nameEb@Base 3.2.1
 _ZNK8casacore10SubLatticeISt7complexIfEE5getAtERKNS_9IPositionE@Base 3.2.1
 _ZNK8casacore10SubLatticeISt7complexIfEE5shapeEv@Base 3.2.1
 _ZNK8casacore10SubLatticeISt7complexIfEE7andMaskERNS_5ArrayIbEEbRKS5_@Base 3.2.1
 _ZNK8casacore10SubLatticeISt7complexIfEE7cloneMLEv@Base 3.2.1
 _ZNK8casacore10SubLatticeISt7complexIfEE7hasLockENS_10FileLocker8LockTypeE@Base 3.2.1
 _ZNK8casacore10SubLatticeISt7complexIfEE7isPagedEv@Base 3.2.1
 _ZNK8casacore10SubLatticeISt7complexIfEE8isMaskedEv@Base 3.2.1
 _ZNK8casacore10SubLatticeISt7complexIfEE8makeIterERKNS_16LatticeNavigatorEb@Base 3.2.1
 _ZNK8casacore10SubLatticeISt7complexIfEE9pixelMaskEv@Base 3.2.1
 _ZNK8casacore10SubLatticeIbE10getAxesMapEv@Base 3.2.1
 _ZNK8casacore10SubLatticeIbE10isWritableEv@Base 3.2.1
 _ZNK8casacore10SubLatticeIbE12getRegionPtrEv@Base 3.2.1
 _ZNK8casacore10SubLatticeIbE12hasPixelMaskEv@Base 3.2.1
 _ZNK8casacore10SubLatticeIbE12isPersistentEv@Base 3.2.1
 _ZNK8casacore10SubLatticeIbE16advisedMaxPixelsEv@Base 3.2.1
 _ZNK8casacore10SubLatticeIbE16positionInParentERKNS_9IPositionE@Base 3.2.1
 _ZNK8casacore10SubLatticeIbE17canReferenceArrayEv@Base 3.2.1
 _ZNK8casacore10SubLatticeIbE17doNiceCursorShapeEj@Base 3.2.1
 _ZNK8casacore10SubLatticeIbE2okEv@Base 3.2.1
 _ZNK8casacore10SubLatticeIbE4nameEb@Base 3.2.1
 _ZNK8casacore10SubLatticeIbE5getAtERKNS_9IPositionE@Base 3.2.1
 _ZNK8casacore10SubLatticeIbE5shapeEv@Base 3.2.1
 _ZNK8casacore10SubLatticeIbE7andMaskERNS_5ArrayIbEEbRKS3_@Base 3.2.1
 _ZNK8casacore10SubLatticeIbE7cloneMLEv@Base 3.2.1
 _ZNK8casacore10SubLatticeIbE7hasLockENS_10FileLocker8LockTypeE@Base 3.2.1
 _ZNK8casacore10SubLatticeIbE7isPagedEv@Base 3.2.1
 _ZNK8casacore10SubLatticeIbE8isMaskedEv@Base 3.2.1
 _ZNK8casacore10SubLatticeIbE8makeIterERKNS_16LatticeNavigatorEb@Base 3.2.1
 _ZNK8casacore10SubLatticeIbE9pixelMaskEv@Base 3.2.1
 _ZNK8casacore10SubLatticeIdE10isWritableEv@Base 3.2.1
 _ZNK8casacore10SubLatticeIdE12getRegionPtrEv@Base 3.2.1
 _ZNK8casacore10SubLatticeIdE12hasPixelMaskEv@Base 3.2.1
 _ZNK8casacore10SubLatticeIdE12isPersistentEv@Base 3.2.1
 _ZNK8casacore10SubLatticeIdE16advisedMaxPixelsEv@Base 3.2.1
 _ZNK8casacore10SubLatticeIdE17canReferenceArrayEv@Base 3.2.1
 _ZNK8casacore10SubLatticeIdE17doNiceCursorShapeEj@Base 3.2.1
 _ZNK8casacore10SubLatticeIdE2okEv@Base 3.2.1
 _ZNK8casacore10SubLatticeIdE4nameEb@Base 3.2.1
 _ZNK8casacore10SubLatticeIdE5getAtERKNS_9IPositionE@Base 3.2.1
 _ZNK8casacore10SubLatticeIdE5shapeEv@Base 3.2.1
 _ZNK8casacore10SubLatticeIdE7andMaskERNS_5ArrayIbEEbRKS3_@Base 3.2.1
 _ZNK8casacore10SubLatticeIdE7cloneMLEv@Base 3.2.1
 _ZNK8casacore10SubLatticeIdE7hasLockENS_10FileLocker8LockTypeE@Base 3.2.1
 _ZNK8casacore10SubLatticeIdE7isPagedEv@Base 3.2.1
 _ZNK8casacore10SubLatticeIdE8isMaskedEv@Base 3.2.1
 _ZNK8casacore10SubLatticeIdE8makeIterERKNS_16LatticeNavigatorEb@Base 3.2.1
 _ZNK8casacore10SubLatticeIdE9pixelMaskEv@Base 3.2.1
 _ZNK8casacore10SubLatticeIfE10getAxesMapEv@Base 3.2.1
 _ZNK8casacore10SubLatticeIfE10isWritableEv@Base 3.2.1
 _ZNK8casacore10SubLatticeIfE12getRegionPtrEv@Base 3.2.1
 _ZNK8casacore10SubLatticeIfE12hasPixelMaskEv@Base 3.2.1
 _ZNK8casacore10SubLatticeIfE12isPersistentEv@Base 3.2.1
 _ZNK8casacore10SubLatticeIfE16advisedMaxPixelsEv@Base 3.2.1
 _ZNK8casacore10SubLatticeIfE16positionInParentERKNS_9IPositionE@Base 3.2.1
 _ZNK8casacore10SubLatticeIfE17canReferenceArrayEv@Base 3.2.1
 _ZNK8casacore10SubLatticeIfE17doNiceCursorShapeEj@Base 3.2.1
 _ZNK8casacore10SubLatticeIfE2okEv@Base 3.2.1
 _ZNK8casacore10SubLatticeIfE4nameEb@Base 3.2.1
 _ZNK8casacore10SubLatticeIfE5getAtERKNS_9IPositionE@Base 3.2.1
 _ZNK8casacore10SubLatticeIfE5shapeEv@Base 3.2.1
 _ZNK8casacore10SubLatticeIfE7andMaskERNS_5ArrayIbEEbRKS3_@Base 3.2.1
 _ZNK8casacore10SubLatticeIfE7cloneMLEv@Base 3.2.1
 _ZNK8casacore10SubLatticeIfE7hasLockENS_10FileLocker8LockTypeE@Base 3.2.1
 _ZNK8casacore10SubLatticeIfE7isPagedEv@Base 3.2.1
 _ZNK8casacore10SubLatticeIfE8isMaskedEv@Base 3.2.1
 _ZNK8casacore10SubLatticeIfE8makeIterERKNS_16LatticeNavigatorEb@Base 3.2.1
 _ZNK8casacore10SubLatticeIfE9pixelMaskEv@Base 3.2.1
 _ZNK8casacore10TiledShape16defaultTileShapeEjRKNS_6VectorIdEES4_@Base 3.2.1
 _ZNK8casacore10TiledShape16defaultTileShapeEjd@Base 3.2.1
 _ZNK8casacore11HDF5LatticeIbE10isWritableEv@Base 3.2.1
 _ZNK8casacore11HDF5LatticeIbE12isPersistentEv@Base 3.2.1
 _ZNK8casacore11HDF5LatticeIbE13checkWritableEv@Base 3.2.1
 _ZNK8casacore11HDF5LatticeIbE16advisedMaxPixelsEv@Base 3.2.1
 _ZNK8casacore11HDF5LatticeIbE17doNiceCursorShapeEj@Base 3.2.1
 _ZNK8casacore11HDF5LatticeIbE2okEv@Base 3.2.1
 _ZNK8casacore11HDF5LatticeIbE4nameEb@Base 3.2.1
 _ZNK8casacore11HDF5LatticeIbE5cloneEv@Base 3.2.1
 _ZNK8casacore11HDF5LatticeIbE5getAtERKNS_9IPositionE@Base 3.2.1
 _ZNK8casacore11HDF5LatticeIbE5shapeEv@Base 3.2.1
 _ZNK8casacore11HDF5LatticeIbE7isPagedEv@Base 3.2.1
 _ZNK8casacore11HDF5LatticeIbE8makeIterERKNS_16LatticeNavigatorEb@Base 3.2.1
 _ZNK8casacore11LCEllipsoid11cloneRegionEv@Base 3.2.1
 _ZNK8casacore11LCEllipsoid11doTranslateERKNS_6VectorIfEERKNS_9IPositionE@Base 3.2.1
 _ZNK8casacore11LCEllipsoid4typeEv@Base 3.2.1
 _ZNK8casacore11LCEllipsoid5thetaEv@Base 3.2.1
 _ZNK8casacore11LCEllipsoid8toRecordERKNS_6StringE@Base 3.2.1
 _ZNK8casacore11LCEllipsoideqERKNS_8LCRegionE@Base 3.2.1
 _ZNK8casacore11LCExtension11cloneRegionEv@Base 3.2.1
 _ZNK8casacore11LCExtension11doTranslateERKNS_6VectorIfEERKNS_9IPositionE@Base 3.2.1
 _ZNK8casacore11LCExtension17doNiceCursorShapeEj@Base 3.2.1
 _ZNK8casacore11LCExtension4typeEv@Base 3.2.1
 _ZNK8casacore11LCExtension8toRecordERKNS_6StringE@Base 3.2.1
 _ZNK8casacore11LCExtensioneqERKNS_8LCRegionE@Base 3.2.1
 _ZNK8casacore11LCPagedMask10isWritableEv@Base 3.2.1
 _ZNK8casacore11LCPagedMask11cloneRegionEv@Base 3.2.1
 _ZNK8casacore11LCPagedMask11doTranslateERKNS_6VectorIfEERKNS_9IPositionE@Base 3.2.1
 _ZNK8casacore11LCPagedMask16advisedMaxPixelsEv@Base 3.2.1
 _ZNK8casacore11LCPagedMask16maximumCacheSizeEv@Base 3.2.1
 _ZNK8casacore11LCPagedMask17doNiceCursorShapeEj@Base 3.2.1
 _ZNK8casacore11LCPagedMask19showCacheStatisticsERSo@Base 3.2.1
 _ZNK8casacore11LCPagedMask4typeEv@Base 3.2.1
 _ZNK8casacore11LCPagedMask7hasLockENS_10FileLocker8LockTypeE@Base 3.2.1
 _ZNK8casacore11LCPagedMask8makeIterERKNS_16LatticeNavigatorEb@Base 3.2.1
 _ZNK8casacore11LCPagedMask8toRecordERKNS_6StringE@Base 3.2.1
 _ZNK8casacore11LCPagedMaskeqERKNS_8LCRegionE@Base 3.2.1
 _ZNK8casacore11LatticeBase10isWritableEv@Base 3.2.1
 _ZNK8casacore11LatticeBase12isPersistentEv@Base 3.2.1
 _ZNK8casacore11LatticeBase13throwBoolMathEv@Base 3.2.1
 _ZNK8casacore11LatticeBase14lelCoordinatesEv@Base 3.2.1
 _ZNK8casacore11LatticeBase16maximumCacheSizeEv@Base 3.2.1
 _ZNK8casacore11LatticeBase17canReferenceArrayEv@Base 3.2.1
 _ZNK8casacore11LatticeBase17doNiceCursorShapeEj@Base 3.2.1
 _ZNK8casacore11LatticeBase19showCacheStatisticsERSo@Base 3.2.1
 _ZNK8casacore11LatticeBase2okEv@Base 3.2.1
 _ZNK8casacore11LatticeBase4nameEb@Base 3.2.1
 _ZNK8casacore11LatticeBase4ndimEv@Base 3.2.1
 _ZNK8casacore11LatticeBase4saveERKNS_6StringE@Base 3.2.1
 _ZNK8casacore11LatticeBase7hasLockENS_10FileLocker8LockTypeE@Base 3.2.1
 _ZNK8casacore11LatticeBase7isPagedEv@Base 3.2.1
 _ZNK8casacore11LatticeBase9imageTypeEv@Base 3.2.1
 _ZNK8casacore11LatticeBase9nelementsEv@Base 3.2.1
 _ZNK8casacore11LatticeExprISt7complexIdEE10copyDataToERNS_7LatticeIS2_EE@Base 3.2.1
 _ZNK8casacore11LatticeExprISt7complexIdEE10isWritableEv@Base 3.2.1
 _ZNK8casacore11LatticeExprISt7complexIdEE12getRegionPtrEv@Base 3.2.1
 _ZNK8casacore11LatticeExprISt7complexIdEE12handleMathToERNS_7LatticeIS2_EEi@Base 3.2.1
 _ZNK8casacore11LatticeExprISt7complexIdEE14lelCoordinatesEv@Base 3.2.1
 _ZNK8casacore11LatticeExprISt7complexIdEE17doNiceCursorShapeEj@Base 3.2.1
 _ZNK8casacore11LatticeExprISt7complexIdEE5shapeEv@Base 3.2.1
 _ZNK8casacore11LatticeExprISt7complexIdEE7cloneMLEv@Base 3.2.1
 _ZNK8casacore11LatticeExprISt7complexIdEE7hasLockENS_10FileLocker8LockTypeE@Base 3.2.1
 _ZNK8casacore11LatticeExprISt7complexIdEE8isMaskedEv@Base 3.2.1
 _ZNK8casacore11LatticeExprISt7complexIfEE10copyDataToERNS_7LatticeIS2_EE@Base 3.2.1
 _ZNK8casacore11LatticeExprISt7complexIfEE10isWritableEv@Base 3.2.1
 _ZNK8casacore11LatticeExprISt7complexIfEE12getRegionPtrEv@Base 3.2.1
 _ZNK8casacore11LatticeExprISt7complexIfEE12handleMathToERNS_7LatticeIS2_EEi@Base 3.2.1
 _ZNK8casacore11LatticeExprISt7complexIfEE14lelCoordinatesEv@Base 3.2.1
 _ZNK8casacore11LatticeExprISt7complexIfEE17doNiceCursorShapeEj@Base 3.2.1
 _ZNK8casacore11LatticeExprISt7complexIfEE5shapeEv@Base 3.2.1
 _ZNK8casacore11LatticeExprISt7complexIfEE7cloneMLEv@Base 3.2.1
 _ZNK8casacore11LatticeExprISt7complexIfEE7hasLockENS_10FileLocker8LockTypeE@Base 3.2.1
 _ZNK8casacore11LatticeExprISt7complexIfEE8isMaskedEv@Base 3.2.1
 _ZNK8casacore11LatticeExprIbE10copyDataToERNS_7LatticeIbEE@Base 3.2.1
 _ZNK8casacore11LatticeExprIbE10isWritableEv@Base 3.2.1
 _ZNK8casacore11LatticeExprIbE12getRegionPtrEv@Base 3.2.1
 _ZNK8casacore11LatticeExprIbE12handleMathToERNS_7LatticeIbEEi@Base 3.2.1
 _ZNK8casacore11LatticeExprIbE14lelCoordinatesEv@Base 3.2.1
 _ZNK8casacore11LatticeExprIbE17doNiceCursorShapeEj@Base 3.2.1
 _ZNK8casacore11LatticeExprIbE5shapeEv@Base 3.2.1
 _ZNK8casacore11LatticeExprIbE7cloneMLEv@Base 3.2.1
 _ZNK8casacore11LatticeExprIbE7hasLockENS_10FileLocker8LockTypeE@Base 3.2.1
 _ZNK8casacore11LatticeExprIbE8isMaskedEv@Base 3.2.1
 _ZNK8casacore11LatticeExprIdE10copyDataToERNS_7LatticeIdEE@Base 3.2.1
 _ZNK8casacore11LatticeExprIdE10isWritableEv@Base 3.2.1
 _ZNK8casacore11LatticeExprIdE12getRegionPtrEv@Base 3.2.1
 _ZNK8casacore11LatticeExprIdE12handleMathToERNS_7LatticeIdEEi@Base 3.2.1
 _ZNK8casacore11LatticeExprIdE14lelCoordinatesEv@Base 3.2.1
 _ZNK8casacore11LatticeExprIdE17doNiceCursorShapeEj@Base 3.2.1
 _ZNK8casacore11LatticeExprIdE5shapeEv@Base 3.2.1
 _ZNK8casacore11LatticeExprIdE7cloneMLEv@Base 3.2.1
 _ZNK8casacore11LatticeExprIdE7hasLockENS_10FileLocker8LockTypeE@Base 3.2.1
 _ZNK8casacore11LatticeExprIdE8isMaskedEv@Base 3.2.1
 _ZNK8casacore11LatticeExprIfE10copyDataToERNS_7LatticeIfEE@Base 3.2.1
 _ZNK8casacore11LatticeExprIfE10isWritableEv@Base 3.2.1
 _ZNK8casacore11LatticeExprIfE12getRegionPtrEv@Base 3.2.1
 _ZNK8casacore11LatticeExprIfE12handleMathToERNS_7LatticeIfEEi@Base 3.2.1
 _ZNK8casacore11LatticeExprIfE14lelCoordinatesEv@Base 3.2.1
 _ZNK8casacore11LatticeExprIfE17doNiceCursorShapeEj@Base 3.2.1
 _ZNK8casacore11LatticeExprIfE5shapeEv@Base 3.2.1
 _ZNK8casacore11LatticeExprIfE7cloneMLEv@Base 3.2.1
 _ZNK8casacore11LatticeExprIfE7hasLockENS_10FileLocker8LockTypeE@Base 3.2.1
 _ZNK8casacore11LatticeExprIfE8isMaskedEv@Base 3.2.1
 _ZNK8casacore11TempLatticeIbE10isWritableEv@Base 3.2.1
 _ZNK8casacore11TempLatticeIbE16advisedMaxPixelsEv@Base 3.2.1
 _ZNK8casacore11TempLatticeIbE16maximumCacheSizeEv@Base 3.2.1
 _ZNK8casacore11TempLatticeIbE17canReferenceArrayEv@Base 3.2.1
 _ZNK8casacore11TempLatticeIbE17doNiceCursorShapeEj@Base 3.2.1
 _ZNK8casacore11TempLatticeIbE19showCacheStatisticsERSo@Base 3.2.1
 _ZNK8casacore11TempLatticeIbE2okEv@Base 3.2.1
 _ZNK8casacore11TempLatticeIbE5cloneEv@Base 3.2.1
 _ZNK8casacore11TempLatticeIbE5getAtERKNS_9IPositionE@Base 3.2.1
 _ZNK8casacore11TempLatticeIbE5shapeEv@Base 3.2.1
 _ZNK8casacore11TempLatticeIbE7isPagedEv@Base 3.2.1
 _ZNK8casacore11TempLatticeIbE8makeIterERKNS_16LatticeNavigatorEb@Base 3.2.1
 _ZNK8casacore11TempLatticeIdE10isWritableEv@Base 3.2.1
 _ZNK8casacore11TempLatticeIdE16advisedMaxPixelsEv@Base 3.2.1
 _ZNK8casacore11TempLatticeIdE16maximumCacheSizeEv@Base 3.2.1
 _ZNK8casacore11TempLatticeIdE17canReferenceArrayEv@Base 3.2.1
 _ZNK8casacore11TempLatticeIdE17doNiceCursorShapeEj@Base 3.2.1
 _ZNK8casacore11TempLatticeIdE19showCacheStatisticsERSo@Base 3.2.1
 _ZNK8casacore11TempLatticeIdE2okEv@Base 3.2.1
 _ZNK8casacore11TempLatticeIdE5cloneEv@Base 3.2.1
 _ZNK8casacore11TempLatticeIdE5getAtERKNS_9IPositionE@Base 3.2.1
 _ZNK8casacore11TempLatticeIdE5shapeEv@Base 3.2.1
 _ZNK8casacore11TempLatticeIdE7isPagedEv@Base 3.2.1
 _ZNK8casacore11TempLatticeIdE8makeIterERKNS_16LatticeNavigatorEb@Base 3.2.1
 _ZNK8casacore11TileStepper10cursorAxesEv@Base 3.2.1
 _ZNK8casacore11TileStepper11cursorShapeEv@Base 3.2.1
 _ZNK8casacore11TileStepper11endPositionEv@Base 3.2.1
 _ZNK8casacore11TileStepper12latticeShapeEv@Base 3.2.1
 _ZNK8casacore11TileStepper13calcCacheSizeERKNS_9IPositionES3_jj@Base 3.2.1
 _ZNK8casacore11TileStepper15subLatticeShapeEv@Base 3.2.1
 _ZNK8casacore11TileStepper2okEv@Base 3.2.1
 _ZNK8casacore11TileStepper3blcEv@Base 3.2.1
 _ZNK8casacore11TileStepper3trcEv@Base 3.2.1
 _ZNK8casacore11TileStepper5atEndEv@Base 3.2.1
 _ZNK8casacore11TileStepper5cloneEv@Base 3.2.1
 _ZNK8casacore11TileStepper6nstepsEv@Base 3.2.1
 _ZNK8casacore11TileStepper7atStartEv@Base 3.2.1
 _ZNK8casacore11TileStepper8axisPathEv@Base 3.2.1
 _ZNK8casacore11TileStepper8hangOverEv@Base 3.2.1
 _ZNK8casacore11TileStepper8positionEv@Base 3.2.1
 _ZNK8casacore11TileStepper9incrementEv@Base 3.2.1
 _ZNK8casacore11TileStepper9tileShapeEv@Base 3.2.1
 _ZNK8casacore12ArrayLatticeISt7complexIdEE10isWritableEv@Base 3.2.1
 _ZNK8casacore12ArrayLatticeISt7complexIdEE16advisedMaxPixelsEv@Base 3.2.1
 _ZNK8casacore12ArrayLatticeISt7complexIdEE17canReferenceArrayEv@Base 3.2.1
 _ZNK8casacore12ArrayLatticeISt7complexIdEE2okEv@Base 3.2.1
 _ZNK8casacore12ArrayLatticeISt7complexIdEE5cloneEv@Base 3.2.1
 _ZNK8casacore12ArrayLatticeISt7complexIdEE5getAtERKNS_9IPositionE@Base 3.2.1
 _ZNK8casacore12ArrayLatticeISt7complexIdEE5shapeEv@Base 3.2.1
 _ZNK8casacore12ArrayLatticeISt7complexIfEE10isWritableEv@Base 3.2.1
 _ZNK8casacore12ArrayLatticeISt7complexIfEE16advisedMaxPixelsEv@Base 3.2.1
 _ZNK8casacore12ArrayLatticeISt7complexIfEE17canReferenceArrayEv@Base 3.2.1
 _ZNK8casacore12ArrayLatticeISt7complexIfEE2okEv@Base 3.2.1
 _ZNK8casacore12ArrayLatticeISt7complexIfEE5cloneEv@Base 3.2.1
 _ZNK8casacore12ArrayLatticeISt7complexIfEE5getAtERKNS_9IPositionE@Base 3.2.1
 _ZNK8casacore12ArrayLatticeISt7complexIfEE5shapeEv@Base 3.2.1
 _ZNK8casacore12ArrayLatticeIbE10isWritableEv@Base 3.2.1
 _ZNK8casacore12ArrayLatticeIbE16advisedMaxPixelsEv@Base 3.2.1
 _ZNK8casacore12ArrayLatticeIbE17canReferenceArrayEv@Base 3.2.1
 _ZNK8casacore12ArrayLatticeIbE2okEv@Base 3.2.1
 _ZNK8casacore12ArrayLatticeIbE5cloneEv@Base 3.2.1
 _ZNK8casacore12ArrayLatticeIbE5getAtERKNS_9IPositionE@Base 3.2.1
 _ZNK8casacore12ArrayLatticeIbE5shapeEv@Base 3.2.1
 _ZNK8casacore12ArrayLatticeIdE10isWritableEv@Base 3.2.1
 _ZNK8casacore12ArrayLatticeIdE16advisedMaxPixelsEv@Base 3.2.1
 _ZNK8casacore12ArrayLatticeIdE17canReferenceArrayEv@Base 3.2.1
 _ZNK8casacore12ArrayLatticeIdE2okEv@Base 3.2.1
 _ZNK8casacore12ArrayLatticeIdE5cloneEv@Base 3.2.1
 _ZNK8casacore12ArrayLatticeIdE5getAtERKNS_9IPositionE@Base 3.2.1
 _ZNK8casacore12ArrayLatticeIdE5shapeEv@Base 3.2.1
 _ZNK8casacore12ArrayLatticeIfE10isWritableEv@Base 3.2.1
 _ZNK8casacore12ArrayLatticeIfE16advisedMaxPixelsEv@Base 3.2.1
 _ZNK8casacore12ArrayLatticeIfE17canReferenceArrayEv@Base 3.2.1
 _ZNK8casacore12ArrayLatticeIfE2okEv@Base 3.2.1
 _ZNK8casacore12ArrayLatticeIfE5cloneEv@Base 3.2.1
 _ZNK8casacore12ArrayLatticeIfE5getAtERKNS_9IPositionE@Base 3.2.1
 _ZNK8casacore12ArrayLatticeIfE5shapeEv@Base 3.2.1
 _ZNK8casacore12GenericL2FitIdE6errorsEv@Base 3.2.1
 _ZNK8casacore12GenericL2FitIdE8getVal_pERKNS_5ArrayIdEEjj@Base 3.2.1
 _ZNK8casacore12HDF5LattIterIbE5cloneEv@Base 3.2.1
 _ZNK8casacore12LCComplement11cloneRegionEv@Base 3.2.1
 _ZNK8casacore12LCComplement11doTranslateERKNS_6VectorIfEERKNS_9IPositionE@Base 3.2.1
 _ZNK8casacore12LCComplement4typeEv@Base 3.2.1
 _ZNK8casacore12LCComplement8toRecordERKNS_6StringE@Base 3.2.1
 _ZNK8casacore12LCComplementeqERKNS_8LCRegionE@Base 3.2.1
 _ZNK8casacore12LCDifference11cloneRegionEv@Base 3.2.1
 _ZNK8casacore12LCDifference11doTranslateERKNS_6VectorIfEERKNS_9IPositionE@Base 3.2.1
 _ZNK8casacore12LCDifference4typeEv@Base 3.2.1
 _ZNK8casacore12LCDifference8toRecordERKNS_6StringE@Base 3.2.1
 _ZNK8casacore12LCDifferenceeqERKNS_8LCRegionE@Base 3.2.1
 _ZNK8casacore12LELAttribute12compareCoordERKS0_@Base 3.2.1
 _ZNK8casacore12LELBinaryCmpISt7complexIdEE4evalERNS_8LELArrayIbEERKNS_6SlicerE@Base 3.2.1
 _ZNK8casacore12LELBinaryCmpISt7complexIdEE7hasLockENS_10FileLocker8LockTypeE@Base 3.2.1
 _ZNK8casacore12LELBinaryCmpISt7complexIdEE9classNameEv@Base 3.2.1
 _ZNK8casacore12LELBinaryCmpISt7complexIdEE9getScalarEv@Base 3.2.1
 _ZNK8casacore12LELBinaryCmpISt7complexIfEE4evalERNS_8LELArrayIbEERKNS_6SlicerE@Base 3.2.1
 _ZNK8casacore12LELBinaryCmpISt7complexIfEE7hasLockENS_10FileLocker8LockTypeE@Base 3.2.1
 _ZNK8casacore12LELBinaryCmpISt7complexIfEE9classNameEv@Base 3.2.1
 _ZNK8casacore12LELBinaryCmpISt7complexIfEE9getScalarEv@Base 3.2.1
 _ZNK8casacore12LELBinaryCmpIdE4evalERNS_8LELArrayIbEERKNS_6SlicerE@Base 3.2.1
 _ZNK8casacore12LELBinaryCmpIdE7hasLockENS_10FileLocker8LockTypeE@Base 3.2.1
 _ZNK8casacore12LELBinaryCmpIdE9classNameEv@Base 3.2.1
 _ZNK8casacore12LELBinaryCmpIdE9getScalarEv@Base 3.2.1
 _ZNK8casacore12LELBinaryCmpIfE4evalERNS_8LELArrayIbEERKNS_6SlicerE@Base 3.2.1
 _ZNK8casacore12LELBinaryCmpIfE7hasLockENS_10FileLocker8LockTypeE@Base 3.2.1
 _ZNK8casacore12LELBinaryCmpIfE9classNameEv@Base 3.2.1
 _ZNK8casacore12LELBinaryCmpIfE9getScalarEv@Base 3.2.1
 _ZNK8casacore12LELConditionISt7complexIdEE4evalERNS_8LELArrayIS2_EERKNS_6SlicerE@Base 3.2.1
 _ZNK8casacore12LELConditionISt7complexIdEE7hasLockENS_10FileLocker8LockTypeE@Base 3.2.1
 _ZNK8casacore12LELConditionISt7complexIdEE9classNameEv@Base 3.2.1
 _ZNK8casacore12LELConditionISt7complexIdEE9getScalarEv@Base 3.2.1
 _ZNK8casacore12LELConditionISt7complexIfEE4evalERNS_8LELArrayIS2_EERKNS_6SlicerE@Base 3.2.1
 _ZNK8casacore12LELConditionISt7complexIfEE7hasLockENS_10FileLocker8LockTypeE@Base 3.2.1
 _ZNK8casacore12LELConditionISt7complexIfEE9classNameEv@Base 3.2.1
 _ZNK8casacore12LELConditionISt7complexIfEE9getScalarEv@Base 3.2.1
 _ZNK8casacore12LELConditionIbE4evalERNS_8LELArrayIbEERKNS_6SlicerE@Base 3.2.1
 _ZNK8casacore12LELConditionIbE7hasLockENS_10FileLocker8LockTypeE@Base 3.2.1
 _ZNK8casacore12LELConditionIbE9classNameEv@Base 3.2.1
 _ZNK8casacore12LELConditionIbE9getScalarEv@Base 3.2.1
 _ZNK8casacore12LELConditionIdE4evalERNS_8LELArrayIdEERKNS_6SlicerE@Base 3.2.1
 _ZNK8casacore12LELConditionIdE7hasLockENS_10FileLocker8LockTypeE@Base 3.2.1
 _ZNK8casacore12LELConditionIdE9classNameEv@Base 3.2.1
 _ZNK8casacore12LELConditionIdE9getScalarEv@Base 3.2.1
 _ZNK8casacore12LELConditionIfE4evalERNS_8LELArrayIfEERKNS_6SlicerE@Base 3.2.1
 _ZNK8casacore12LELConditionIfE7hasLockENS_10FileLocker8LockTypeE@Base 3.2.1
 _ZNK8casacore12LELConditionIfE9classNameEv@Base 3.2.1
 _ZNK8casacore12LELConditionIfE9getScalarEv@Base 3.2.1
 _ZNK8casacore12LELInterfaceISt7complexIdEE7evalRefERNS_11LELArrayRefIS2_EERKNS_6SlicerE@Base 3.2.1
 _ZNK8casacore12LELInterfaceISt7complexIdEE7hasLockENS_10FileLocker8LockTypeE@Base 3.2.1
 _ZNK8casacore12LELInterfaceISt7complexIdEE8getArrayEv@Base 3.2.1
 _ZNK8casacore12LELInterfaceISt7complexIfEE7evalRefERNS_11LELArrayRefIS2_EERKNS_6SlicerE@Base 3.2.1
 _ZNK8casacore12LELInterfaceISt7complexIfEE7hasLockENS_10FileLocker8LockTypeE@Base 3.2.1
 _ZNK8casacore12LELInterfaceISt7complexIfEE8getArrayEv@Base 3.2.1
 _ZNK8casacore12LELInterfaceIbE7evalRefERNS_11LELArrayRefIbEERKNS_6SlicerE@Base 3.2.1
 _ZNK8casacore12LELInterfaceIbE7hasLockENS_10FileLocker8LockTypeE@Base 3.2.1
 _ZNK8casacore12LELInterfaceIbE8getArrayEv@Base 3.2.1
 _ZNK8casacore12LELInterfaceIdE7evalRefERNS_11LELArrayRefIdEERKNS_6SlicerE@Base 3.2.1
 _ZNK8casacore12LELInterfaceIdE7hasLockENS_10FileLocker8LockTypeE@Base 3.2.1
 _ZNK8casacore12LELInterfaceIdE8getArrayEv@Base 3.2.1
 _ZNK8casacore12LELInterfaceIfE7evalRefERNS_11LELArrayRefIfEERKNS_6SlicerE@Base 3.2.1
 _ZNK8casacore12LELInterfaceIfE7hasLockENS_10FileLocker8LockTypeE@Base 3.2.1
 _ZNK8casacore12LELInterfaceIfE8getArrayEv@Base 3.2.1
 _ZNK8casacore12LELLattCoord14hasCoordinatesEv@Base 3.2.1
 _ZNK8casacore12LELLattCoord14makeSubLatticeERKNS_15LatticeExprNodeERKNS_16LattRegionHolderE@Base 3.2.1
 _ZNK8casacore12LELLattCoord15getSpectralInfoERNS_6VectorIdEERKNS_9IPositionE@Base 3.2.1
 _ZNK8casacore12LELLattCoord16makeRebinLatticeERKNS_15LatticeExprNodeERKNS_9IPositionE@Base 3.2.1
 _ZNK8casacore12LELLattCoord17makeExtendLatticeERKNS_15LatticeExprNodeERKNS_9IPositionERKNS_16LELLattCoordBaseE@Base 3.2.1
 _ZNK8casacore12LELLattCoord7compareERKNS_16LELLattCoordBaseE@Base 3.2.1
 _ZNK8casacore12LELLattCoord9classnameEv@Base 3.2.1
 _ZNK8casacore12LELLattCoord9doCompareERKNS_13LELImageCoordE@Base 3.2.1
 _ZNK8casacore12LELUnaryBool4evalERNS_8LELArrayIbEERKNS_6SlicerE@Base 3.2.1
 _ZNK8casacore12LELUnaryBool7hasLockENS_10FileLocker8LockTypeE@Base 3.2.1
 _ZNK8casacore12LELUnaryBool9classNameEv@Base 3.2.1
 _ZNK8casacore12LELUnaryBool9getScalarEv@Base 3.2.1
 _ZNK8casacore12PagedArrIterISt7complexIfEE5cloneEv@Base 3.2.1
 _ZNK8casacore12PagedArrIterIbE5cloneEv@Base 3.2.1
 _ZNK8casacore12PagedArrIterIdE5cloneEv@Base 3.2.1
 _ZNK8casacore12PagedArrIterIfE5cloneEv@Base 3.2.1
 _ZNK8casacore12PixelCurve1D13getPixelCoordERNS_6VectorIfEES3_jjj@Base 3.2.1
 _ZNK8casacore12RebinLatticeISt7complexIdEE10isWritableEv@Base 3.2.1
 _ZNK8casacore12RebinLatticeISt7complexIdEE12getRegionPtrEv@Base 3.2.1
 _ZNK8casacore12RebinLatticeISt7complexIdEE16advisedMaxPixelsEv@Base 3.2.1
 _ZNK8casacore12RebinLatticeISt7complexIdEE18findOriginalSlicerERKNS_6SlicerE@Base 3.2.1
 _ZNK8casacore12RebinLatticeISt7complexIdEE2okEv@Base 3.2.1
 _ZNK8casacore12RebinLatticeISt7complexIdEE4nameEb@Base 3.2.1
 _ZNK8casacore12RebinLatticeISt7complexIdEE5shapeEv@Base 3.2.1
 _ZNK8casacore12RebinLatticeISt7complexIdEE7cloneMLEv@Base 3.2.1
 _ZNK8casacore12RebinLatticeISt7complexIdEE7hasLockENS_10FileLocker8LockTypeE@Base 3.2.1
 _ZNK8casacore12RebinLatticeISt7complexIdEE7isPagedEv@Base 3.2.1
 _ZNK8casacore12RebinLatticeISt7complexIdEE8isMaskedEv@Base 3.2.1
 _ZNK8casacore12RebinLatticeISt7complexIfEE10isWritableEv@Base 3.2.1
 _ZNK8casacore12RebinLatticeISt7complexIfEE12getRegionPtrEv@Base 3.2.1
 _ZNK8casacore12RebinLatticeISt7complexIfEE16advisedMaxPixelsEv@Base 3.2.1
 _ZNK8casacore12RebinLatticeISt7complexIfEE18findOriginalSlicerERKNS_6SlicerE@Base 3.2.1
 _ZNK8casacore12RebinLatticeISt7complexIfEE2okEv@Base 3.2.1
 _ZNK8casacore12RebinLatticeISt7complexIfEE4nameEb@Base 3.2.1
 _ZNK8casacore12RebinLatticeISt7complexIfEE5shapeEv@Base 3.2.1
 _ZNK8casacore12RebinLatticeISt7complexIfEE7cloneMLEv@Base 3.2.1
 _ZNK8casacore12RebinLatticeISt7complexIfEE7hasLockENS_10FileLocker8LockTypeE@Base 3.2.1
 _ZNK8casacore12RebinLatticeISt7complexIfEE7isPagedEv@Base 3.2.1
 _ZNK8casacore12RebinLatticeISt7complexIfEE8isMaskedEv@Base 3.2.1
 _ZNK8casacore12RebinLatticeIdE10isWritableEv@Base 3.2.1
 _ZNK8casacore12RebinLatticeIdE12getRegionPtrEv@Base 3.2.1
 _ZNK8casacore12RebinLatticeIdE16advisedMaxPixelsEv@Base 3.2.1
 _ZNK8casacore12RebinLatticeIdE18findOriginalSlicerERKNS_6SlicerE@Base 3.2.1
 _ZNK8casacore12RebinLatticeIdE2okEv@Base 3.2.1
 _ZNK8casacore12RebinLatticeIdE4nameEb@Base 3.2.1
 _ZNK8casacore12RebinLatticeIdE5shapeEv@Base 3.2.1
 _ZNK8casacore12RebinLatticeIdE7cloneMLEv@Base 3.2.1
 _ZNK8casacore12RebinLatticeIdE7hasLockENS_10FileLocker8LockTypeE@Base 3.2.1
 _ZNK8casacore12RebinLatticeIdE7isPagedEv@Base 3.2.1
 _ZNK8casacore12RebinLatticeIdE8isMaskedEv@Base 3.2.1
 _ZNK8casacore12RebinLatticeIfE10isWritableEv@Base 3.2.1
 _ZNK8casacore12RebinLatticeIfE12getRegionPtrEv@Base 3.2.1
 _ZNK8casacore12RebinLatticeIfE16advisedMaxPixelsEv@Base 3.2.1
 _ZNK8casacore12RebinLatticeIfE18findOriginalSlicerERKNS_6SlicerE@Base 3.2.1
 _ZNK8casacore12RebinLatticeIfE2okEv@Base 3.2.1
 _ZNK8casacore12RebinLatticeIfE4nameEb@Base 3.2.1
 _ZNK8casacore12RebinLatticeIfE5shapeEv@Base 3.2.1
 _ZNK8casacore12RebinLatticeIfE7cloneMLEv@Base 3.2.1
 _ZNK8casacore12RebinLatticeIfE7hasLockENS_10FileLocker8LockTypeE@Base 3.2.1
 _ZNK8casacore12RebinLatticeIfE7isPagedEv@Base 3.2.1
 _ZNK8casacore12RebinLatticeIfE8isMaskedEv@Base 3.2.1
 _ZNK8casacore13BaseAllocatorINS_6VectorIdEENS_15NewDelAllocatorIS2_EEE12getAllocatorEv@Base 3.2.1
 _ZNK8casacore13BaseAllocatorINS_6VectorIdEENS_16AlignedAllocatorIS2_Lm32EEEE12getAllocatorEv@Base 3.2.1
 _ZNK8casacore13BaseAllocatorINS_8AutoDiffIdEENS_15NewDelAllocatorIS2_EEE12getAllocatorEv@Base 3.2.1
 _ZNK8casacore13BaseAllocatorINS_8AutoDiffIdEENS_16AlignedAllocatorIS2_Lm32EEEE12getAllocatorEv@Base 3.2.1
 _ZNK8casacore13BaseAllocatorINS_8AutoDiffIfEENS_15NewDelAllocatorIS2_EEE12getAllocatorEv@Base 3.2.1
 _ZNK8casacore13BaseAllocatorINS_8AutoDiffIfEENS_16AlignedAllocatorIS2_Lm32EEEE12getAllocatorEv@Base 3.2.1
 _ZNK8casacore13BaseAllocatorIPNS_6SlicerENS_15NewDelAllocatorIS2_EEE12getAllocatorEv@Base 3.2.1
 _ZNK8casacore13BaseAllocatorIPNS_6SlicerENS_16AlignedAllocatorIS2_Lm32EEEE12getAllocatorEv@Base 3.2.1
 _ZNK8casacore13CompoundParamINS_8AutoDiffIdEEE4nameEv@Base 3.2.1
 _ZNK8casacore13CompoundParamINS_8AutoDiffIdEEE4ndimEv@Base 3.2.1
 _ZNK8casacore13CompoundParamIdE4nameEv@Base 3.2.1
 _ZNK8casacore13CompoundParamIdE4ndimEv@Base 3.2.1
 _ZNK8casacore13FunctionParamINS_8AutoDiffIdEEE15createMaskedPtrEv@Base 3.2.1
 _ZNK8casacore13LCRegionFixed7getMaskEv@Base 3.2.1
 _ZNK8casacore13LCRegionFixedeqERKNS_8LCRegionE@Base 3.2.1
 _ZNK8casacore13LCRegionMulti10makeRecordERKNS_6StringE@Base 3.2.1
 _ZNK8casacore13LCRegionMulti14multiTranslateERNS_8PtrBlockIPKNS_8LCRegionEEERKNS_6VectorIfEERKNS_9IPositionE@Base 3.2.1
 _ZNK8casacore13LCRegionMulti17doNiceCursorShapeEj@Base 3.2.1
 _ZNK8casacore13LCRegionMulti7hasMaskEv@Base 3.2.1
 _ZNK8casacore13LCRegionMulti9findAreasERNS_9IPositionES2_S2_S2_RKNS_6SlicerEj@Base 3.2.1
 _ZNK8casacore13LCRegionMultieqERKNS_8LCRegionE@Base 3.2.1
 _ZNK8casacore13LELBinaryBool4evalERNS_8LELArrayIbEERKNS_6SlicerE@Base 3.2.1
 _ZNK8casacore13LELBinaryBool7hasLockENS_10FileLocker8LockTypeE@Base 3.2.1
 _ZNK8casacore13LELBinaryBool9classNameEv@Base 3.2.1
 _ZNK8casacore13LELBinaryBool9getScalarEv@Base 3.2.1
 _ZNK8casacore13LELFunction1DISt7complexIdEE4evalERNS_8LELArrayIS2_EERKNS_6SlicerE@Base 3.2.1
 _ZNK8casacore13LELFunction1DISt7complexIdEE7hasLockENS_10FileLocker8LockTypeE@Base 3.2.1
 _ZNK8casacore13LELFunction1DISt7complexIdEE9classNameEv@Base 3.2.1
 _ZNK8casacore13LELFunction1DISt7complexIdEE9getScalarEv@Base 3.2.1
 _ZNK8casacore13LELFunction1DISt7complexIfEE4evalERNS_8LELArrayIS2_EERKNS_6SlicerE@Base 3.2.1
 _ZNK8casacore13LELFunction1DISt7complexIfEE7hasLockENS_10FileLocker8LockTypeE@Base 3.2.1
 _ZNK8casacore13LELFunction1DISt7complexIfEE9classNameEv@Base 3.2.1
 _ZNK8casacore13LELFunction1DISt7complexIfEE9getScalarEv@Base 3.2.1
 _ZNK8casacore13LELFunction1DIdE4evalERNS_8LELArrayIdEERKNS_6SlicerE@Base 3.2.1
 _ZNK8casacore13LELFunction1DIdE7hasLockENS_10FileLocker8LockTypeE@Base 3.2.1
 _ZNK8casacore13LELFunction1DIdE9classNameEv@Base 3.2.1
 _ZNK8casacore13LELFunction1DIdE9getScalarEv@Base 3.2.1
 _ZNK8casacore13LELFunction1DIfE4evalERNS_8LELArrayIfEERKNS_6SlicerE@Base 3.2.1
 _ZNK8casacore13LELFunction1DIfE7hasLockENS_10FileLocker8LockTypeE@Base 3.2.1
 _ZNK8casacore13LELFunction1DIfE9classNameEv@Base 3.2.1
 _ZNK8casacore13LELFunction1DIfE9getScalarEv@Base 3.2.1
 _ZNK8casacore13LELFunctionNDISt7complexIdEE4evalERNS_8LELArrayIS2_EERKNS_6SlicerE@Base 3.2.1
 _ZNK8casacore13LELFunctionNDISt7complexIdEE7hasLockENS_10FileLocker8LockTypeE@Base 3.2.1
 _ZNK8casacore13LELFunctionNDISt7complexIdEE9classNameEv@Base 3.2.1
 _ZNK8casacore13LELFunctionNDISt7complexIdEE9getScalarEv@Base 3.2.1
 _ZNK8casacore13LELFunctionNDISt7complexIfEE4evalERNS_8LELArrayIS2_EERKNS_6SlicerE@Base 3.2.1
 _ZNK8casacore13LELFunctionNDISt7complexIfEE7hasLockENS_10FileLocker8LockTypeE@Base 3.2.1
 _ZNK8casacore13LELFunctionNDISt7complexIfEE9classNameEv@Base 3.2.1
 _ZNK8casacore13LELFunctionNDISt7complexIfEE9getScalarEv@Base 3.2.1
 _ZNK8casacore13LELFunctionNDIbE4evalERNS_8LELArrayIbEERKNS_6SlicerE@Base 3.2.1
 _ZNK8casacore13LELFunctionNDIbE7hasLockENS_10FileLocker8LockTypeE@Base 3.2.1
 _ZNK8casacore13LELFunctionNDIbE9classNameEv@Base 3.2.1
 _ZNK8casacore13LELFunctionNDIbE9getScalarEv@Base 3.2.1
 _ZNK8casacore13LELFunctionNDIdE4evalERNS_8LELArrayIdEERKNS_6SlicerE@Base 3.2.1
 _ZNK8casacore13LELFunctionNDIdE7hasLockENS_10FileLocker8LockTypeE@Base 3.2.1
 _ZNK8casacore13LELFunctionNDIdE9classNameEv@Base 3.2.1
 _ZNK8casacore13LELFunctionNDIdE9getScalarEv@Base 3.2.1
 _ZNK8casacore13LELFunctionNDIfE4evalERNS_8LELArrayIfEERKNS_6SlicerE@Base 3.2.1
 _ZNK8casacore13LELFunctionNDIfE7hasLockENS_10FileLocker8LockTypeE@Base 3.2.1
 _ZNK8casacore13LELFunctionNDIfE9classNameEv@Base 3.2.1
 _ZNK8casacore13LELFunctionNDIfE9getScalarEv@Base 3.2.1
 _ZNK8casacore13LELUnaryConstISt7complexIdEE4evalERNS_8LELArrayIS2_EERKNS_6SlicerE@Base 3.2.1
 _ZNK8casacore13LELUnaryConstISt7complexIdEE9classNameEv@Base 3.2.1
 _ZNK8casacore13LELUnaryConstISt7complexIdEE9getScalarEv@Base 3.2.1
 _ZNK8casacore13LELUnaryConstISt7complexIfEE4evalERNS_8LELArrayIS2_EERKNS_6SlicerE@Base 3.2.1
 _ZNK8casacore13LELUnaryConstISt7complexIfEE9classNameEv@Base 3.2.1
 _ZNK8casacore13LELUnaryConstISt7complexIfEE9getScalarEv@Base 3.2.1
 _ZNK8casacore13LELUnaryConstIbE4evalERNS_8LELArrayIbEERKNS_6SlicerE@Base 3.2.1
 _ZNK8casacore13LELUnaryConstIbE9classNameEv@Base 3.2.1
 _ZNK8casacore13LELUnaryConstIbE9getScalarEv@Base 3.2.1
 _ZNK8casacore13LELUnaryConstIdE4evalERNS_8LELArrayIdEERKNS_6SlicerE@Base 3.2.1
 _ZNK8casacore13LELUnaryConstIdE9classNameEv@Base 3.2.1
 _ZNK8casacore13LELUnaryConstIdE9getScalarEv@Base 3.2.1
 _ZNK8casacore13LELUnaryConstIfE4evalERNS_8LELArrayIfEERKNS_6SlicerE@Base 3.2.1
 _ZNK8casacore13LELUnaryConstIfE9classNameEv@Base 3.2.1
 _ZNK8casacore13LELUnaryConstIfE9getScalarEv@Base 3.2.1
 _ZNK8casacore13LatticeRegion10isWritableEv@Base 3.2.1
 _ZNK8casacore13LatticeRegion16advisedMaxPixelsEv@Base 3.2.1
 _ZNK8casacore13LatticeRegion16maximumCacheSizeEv@Base 3.2.1
 _ZNK8casacore13LatticeRegion17doNiceCursorShapeEj@Base 3.2.1
 _ZNK8casacore13LatticeRegion19showCacheStatisticsERSo@Base 3.2.1
 _ZNK8casacore13LatticeRegion2okEv@Base 3.2.1
 _ZNK8casacore13LatticeRegion4ndimEv@Base 3.2.1
 _ZNK8casacore13LatticeRegion5cloneEv@Base 3.2.1
 _ZNK8casacore13LatticeRegion5shapeEv@Base 3.2.1
 _ZNK8casacore13LatticeRegion7convertERKNS_6SlicerE@Base 3.2.1
 _ZNK8casacore13LatticeRegion7convertERKNS_9IPositionE@Base 3.2.1
 _ZNK8casacore13LatticeRegion7hasLockENS_10FileLocker8LockTypeE@Base 3.2.1
 _ZNK8casacore13LatticeRegion8makeIterERKNS_16LatticeNavigatorEb@Base 3.2.1
 _ZNK8casacore13LatticeRegion9nelementsEv@Base 3.2.1
 _ZNK8casacore13MaskedLatticeISt7complexIdEE12getMaskSliceERKNS_6SlicerEb@Base 3.2.1
 _ZNK8casacore13MaskedLatticeISt7complexIdEE12hasPixelMaskEv@Base 3.2.1
 _ZNK8casacore13MaskedLatticeISt7complexIdEE5cloneEv@Base 3.2.1
 _ZNK8casacore13MaskedLatticeISt7complexIdEE8isMaskedEv@Base 3.2.1
 _ZNK8casacore13MaskedLatticeISt7complexIdEE9pixelMaskEv@Base 3.2.1
 _ZNK8casacore13MaskedLatticeISt7complexIfEE12getMaskSliceERKNS_6SlicerEb@Base 3.2.1
 _ZNK8casacore13MaskedLatticeISt7complexIfEE12hasPixelMaskEv@Base 3.2.1
 _ZNK8casacore13MaskedLatticeISt7complexIfEE5cloneEv@Base 3.2.1
 _ZNK8casacore13MaskedLatticeISt7complexIfEE8isMaskedEv@Base 3.2.1
 _ZNK8casacore13MaskedLatticeISt7complexIfEE9pixelMaskEv@Base 3.2.1
 _ZNK8casacore13MaskedLatticeIbE12getMaskSliceERKNS_6SlicerEb@Base 3.2.1
 _ZNK8casacore13MaskedLatticeIbE12hasPixelMaskEv@Base 3.2.1
 _ZNK8casacore13MaskedLatticeIbE5cloneEv@Base 3.2.1
 _ZNK8casacore13MaskedLatticeIbE8isMaskedEv@Base 3.2.1
 _ZNK8casacore13MaskedLatticeIbE9pixelMaskEv@Base 3.2.1
 _ZNK8casacore13MaskedLatticeIdE12getMaskSliceERKNS_6SlicerEb@Base 3.2.1
 _ZNK8casacore13MaskedLatticeIdE12hasPixelMaskEv@Base 3.2.1
 _ZNK8casacore13MaskedLatticeIdE5cloneEv@Base 3.2.1
 _ZNK8casacore13MaskedLatticeIdE8isMaskedEv@Base 3.2.1
 _ZNK8casacore13MaskedLatticeIdE9pixelMaskEv@Base 3.2.1
 _ZNK8casacore13MaskedLatticeIfE12getMaskSliceERKNS_6SlicerEb@Base 3.2.1
 _ZNK8casacore13MaskedLatticeIfE12hasPixelMaskEv@Base 3.2.1
 _ZNK8casacore13MaskedLatticeIfE5cloneEv@Base 3.2.1
 _ZNK8casacore13MaskedLatticeIfE6regionEv@Base 3.2.1
 _ZNK8casacore13MaskedLatticeIfE8isMaskedEv@Base 3.2.1
 _ZNK8casacore13MaskedLatticeIfE9pixelMaskEv@Base 3.2.1
 _ZNK8casacore14LCIntersection11cloneRegionEv@Base 3.2.1
 _ZNK8casacore14LCIntersection11doTranslateERKNS_6VectorIfEERKNS_9IPositionE@Base 3.2.1
 _ZNK8casacore14LCIntersection4typeEv@Base 3.2.1
 _ZNK8casacore14LCIntersection8toRecordERKNS_6StringE@Base 3.2.1
 _ZNK8casacore14LCIntersectioneqERKNS_8LCRegionE@Base 3.2.1
 _ZNK8casacore14LCRegionSingle10masksEqualERKNS_8LCRegionE@Base 3.2.1
 _ZNK8casacore14LCRegionSingle17doNiceCursorShapeEj@Base 3.2.1
 _ZNK8casacore14LCRegionSingle7hasMaskEv@Base 3.2.1
 _ZNK8casacore14LCRegionSingle8makeIterERKNS_16LatticeNavigatorEb@Base 3.2.1
 _ZNK8casacore14LCRegionSingle9maskArrayEv@Base 3.2.1
 _ZNK8casacore14LELCoordinates11coordinatesEv@Base 3.2.1
 _ZNK8casacore14LELCoordinates14hasCoordinatesEv@Base 3.2.1
 _ZNK8casacore14LELCoordinates7compareERKS0_@Base 3.2.1
 _ZNK8casacore14LatticeIndexer15tiledCursorMoveEbRNS_9IPositionERKS1_S4_@Base 3.2.1
 _ZNK8casacore14LatticeIndexer16absolutePositionERKNS_9IPositionE@Base 3.2.1
 _ZNK8casacore14LatticeIndexer2okEv@Base 3.2.1
 _ZNK8casacore14LatticeIndexer5shapeEj@Base 3.2.1
 _ZNK8casacore14LatticeIndexer6offsetEj@Base 3.2.1
 _ZNK8casacore14LatticeIndexer8isInsideERKNS_9IPositionE@Base 3.2.1
 _ZNK8casacore14LatticeIndexer9fullShapeEj@Base 3.2.1
 _ZNK8casacore14LatticeIndexer9incrementEj@Base 3.2.1
 _ZNK8casacore14LatticeStepper10cursorAxesEv@Base 3.2.1
 _ZNK8casacore14LatticeStepper11cursorShapeEv@Base 3.2.1
 _ZNK8casacore14LatticeStepper11endPositionEv@Base 3.2.1
 _ZNK8casacore14LatticeStepper12latticeShapeEv@Base 3.2.1
 _ZNK8casacore14LatticeStepper13calcCacheSizeERKNS_9IPositionES3_jj@Base 3.2.1
 _ZNK8casacore14LatticeStepper15subLatticeShapeEv@Base 3.2.1
 _ZNK8casacore14LatticeStepper16relativePositionEv@Base 3.2.1
 _ZNK8casacore14LatticeStepper19relativeEndPositionEv@Base 3.2.1
 _ZNK8casacore14LatticeStepper2okEv@Base 3.2.1
 _ZNK8casacore14LatticeStepper3blcEv@Base 3.2.1
 _ZNK8casacore14LatticeStepper3trcEv@Base 3.2.1
 _ZNK8casacore14LatticeStepper5atEndEv@Base 3.2.1
 _ZNK8casacore14LatticeStepper5cloneEv@Base 3.2.1
 _ZNK8casacore14LatticeStepper6nstepsEv@Base 3.2.1
 _ZNK8casacore14LatticeStepper7atStartEv@Base 3.2.1
 _ZNK8casacore14LatticeStepper7niceFitEv@Base 3.2.1
 _ZNK8casacore14LatticeStepper8axisPathEv@Base 3.2.1
 _ZNK8casacore14LatticeStepper8hangOverEv@Base 3.2.1
 _ZNK8casacore14LatticeStepper8positionEv@Base 3.2.1
 _ZNK8casacore14LatticeStepper9incrementEv@Base 3.2.1
 _ZNK8casacore14StatsHistogramIdE8getIndexEd@Base 3.2.1
 _ZNK8casacore15ConstantNDParamINS_8AutoDiffIdEEE4nameEv@Base 3.2.1
 _ZNK8casacore15ConstantNDParamINS_8AutoDiffIdEEE4ndimEv@Base 3.2.1
 _ZNK8casacore15ConstantNDParamIdE4nameEv@Base 3.2.1
 _ZNK8casacore15ConstantNDParamIdE4ndimEv@Base 3.2.1
 _ZNK8casacore15Gaussian1DParamINS_8AutoDiffIfEEE4nameEv@Base 3.2.1
 _ZNK8casacore15Gaussian1DParamIfE4nameEv@Base 3.2.1
 _ZNK8casacore15Gaussian2DParamINS_8AutoDiffIdEEE2PAEv@Base 3.2.1
 _ZNK8casacore15Gaussian2DParamINS_8AutoDiffIdEEE4nameEv@Base 3.2.1
 _ZNK8casacore15Gaussian2DParamINS_8AutoDiffIdEEE4ndimEv@Base 3.2.1
 _ZNK8casacore15Gaussian2DParamINS_8AutoDiffIdEEE9majorAxisEv@Base 3.2.1
 _ZNK8casacore15Gaussian2DParamIdE2PAEv@Base 3.2.1
 _ZNK8casacore15Gaussian2DParamIdE4nameEv@Base 3.2.1
 _ZNK8casacore15Gaussian2DParamIdE4ndimEv@Base 3.2.1
 _ZNK8casacore15HyperPlaneParamINS_8AutoDiffIdEEE4nameEv@Base 3.2.1
 _ZNK8casacore15HyperPlaneParamINS_8AutoDiffIdEEE4ndimEv@Base 3.2.1
 _ZNK8casacore15HyperPlaneParamIdE4nameEv@Base 3.2.1
 _ZNK8casacore15HyperPlaneParamIdE4ndimEv@Base 3.2.1
 _ZNK8casacore15LCConcatenation11cloneRegionEv@Base 3.2.1
 _ZNK8casacore15LCConcatenation11doTranslateERKNS_6VectorIfEERKNS_9IPositionE@Base 3.2.1
 _ZNK8casacore15LCConcatenation17doNiceCursorShapeEj@Base 3.2.1
 _ZNK8casacore15LCConcatenation4typeEv@Base 3.2.1
 _ZNK8casacore15LCConcatenation8toRecordERKNS_6StringE@Base 3.2.1
 _ZNK8casacore15LCConcatenationeqERKNS_8LCRegionE@Base 3.2.1
 _ZNK8casacore15LELFunctionBool4evalERNS_8LELArrayIbEERKNS_6SlicerE@Base 3.2.1
 _ZNK8casacore15LELFunctionBool7hasLockENS_10FileLocker8LockTypeE@Base 3.2.1
 _ZNK8casacore15LELFunctionBool9classNameEv@Base 3.2.1
 _ZNK8casacore15LELFunctionBool9getScalarEv@Base 3.2.1
 _ZNK8casacore15LELRegionAsBool4evalERNS_8LELArrayIbEERKNS_6SlicerE@Base 3.2.1
 _ZNK8casacore15LELRegionAsBool9classNameEv@Base 3.2.1
 _ZNK8casacore15LELRegionAsBool9getScalarEv@Base 3.2.1
 _ZNK8casacore15LatticeExprNode10getComplexEv@Base 3.2.1
 _ZNK8casacore15LatticeExprNode10makeDoubleEv@Base 3.2.1
 _ZNK8casacore15LatticeExprNode11getDComplexEv@Base 3.2.1
 _ZNK8casacore15LatticeExprNode11makeComplexEv@Base 3.2.1
 _ZNK8casacore15LatticeExprNode12getArrayBoolEv@Base 3.2.1
 _ZNK8casacore15LatticeExprNode12getIPositionEv@Base 3.2.1
 _ZNK8casacore15LatticeExprNode12makeDComplexEv@Base 3.2.1
 _ZNK8casacore15LatticeExprNode13getArrayFloatEv@Base 3.2.1
 _ZNK8casacore15LatticeExprNode14getArrayDoubleEv@Base 3.2.1
 _ZNK8casacore15LatticeExprNode15getArrayComplexEv@Base 3.2.1
 _ZNK8casacore15LatticeExprNode16getArrayDComplexEv@Base 3.2.1
 _ZNK8casacore15LatticeExprNode4evalERNS_8LELArrayISt7complexIdEEERKNS_6SlicerE@Base 3.2.1
 _ZNK8casacore15LatticeExprNode4evalERNS_8LELArrayISt7complexIfEEERKNS_6SlicerE@Base 3.2.1
 _ZNK8casacore15LatticeExprNode4evalERNS_8LELArrayIbEERKNS_6SlicerE@Base 3.2.1
 _ZNK8casacore15LatticeExprNode4evalERNS_8LELArrayIdEERKNS_6SlicerE@Base 3.2.1
 _ZNK8casacore15LatticeExprNode4evalERNS_8LELArrayIfEERKNS_6SlicerE@Base 3.2.1
 _ZNK8casacore15LatticeExprNode4evalERSt7complexIdE@Base 3.2.1
 _ZNK8casacore15LatticeExprNode4evalERSt7complexIfE@Base 3.2.1
 _ZNK8casacore15LatticeExprNode4evalERb@Base 3.2.1
 _ZNK8casacore15LatticeExprNode4evalERd@Base 3.2.1
 _ZNK8casacore15LatticeExprNode4evalERf@Base 3.2.1
 _ZNK8casacore15LatticeExprNode7getBoolEv@Base 3.2.1
 _ZNK8casacore15LatticeExprNode7hasLockENS_10FileLocker8LockTypeE@Base 3.2.1
 _ZNK8casacore15LatticeExprNode8getFloatEv@Base 3.2.1
 _ZNK8casacore15LatticeExprNode8makeBoolEv@Base 3.2.1
 _ZNK8casacore15LatticeExprNode9doPrepareEv@Base 3.2.1
 _ZNK8casacore15LatticeExprNode9getDoubleEv@Base 3.2.1
 _ZNK8casacore15LatticeExprNode9makeFloatEv@Base 3.2.1
 _ZNK8casacore15LatticeExprNodeixERKS0_@Base 3.2.1
 _ZNK8casacore15TempLatticeImplIbE10tempReopenEv@Base 3.2.1
 _ZNK8casacore15TempLatticeImplIdE10tempReopenEv@Base 3.2.1
 _ZNK8casacore16CompoundFunctionINS_8AutoDiffIdEEE10cloneNonADEv@Base 3.2.1
 _ZNK8casacore16CompoundFunctionINS_8AutoDiffIdEEE11fromParam_pEv@Base 3.2.1
 _ZNK8casacore16CompoundFunctionINS_8AutoDiffIdEEE4evalEPKd@Base 3.2.1
 _ZNK8casacore16CompoundFunctionINS_8AutoDiffIdEEE5cloneEv@Base 3.2.1
 _ZNK8casacore16CompoundFunctionINS_8AutoDiffIdEEE7cloneADEv@Base 3.2.1
 _ZNK8casacore16CompoundFunctionIdE10cloneNonADEv@Base 3.2.1
 _ZNK8casacore16CompoundFunctionIdE11fromParam_pEv@Base 3.2.1
 _ZNK8casacore16CompoundFunctionIdE4evalEPKd@Base 3.2.1
 _ZNK8casacore16CompoundFunctionIdE5cloneEv@Base 3.2.1
 _ZNK8casacore16CompoundFunctionIdE7cloneADEv@Base 3.2.1
 _ZNK8casacore16LELFunctionFloat4evalERNS_8LELArrayIfEERKNS_6SlicerE@Base 3.2.1
 _ZNK8casacore16LELFunctionFloat7hasLockENS_10FileLocker8LockTypeE@Base 3.2.1
 _ZNK8casacore16LELFunctionFloat9classNameEv@Base 3.2.1
 _ZNK8casacore16LELFunctionFloat9getScalarEv@Base 3.2.1
 _ZNK8casacore16LELSpectralIndexIdE4evalERNS_8LELArrayIdEERKNS_6SlicerE@Base 3.2.1
 _ZNK8casacore16LELSpectralIndexIdE7hasLockENS_10FileLocker8LockTypeE@Base 3.2.1
 _ZNK8casacore16LELSpectralIndexIdE9classNameEv@Base 3.2.1
 _ZNK8casacore16LELSpectralIndexIdE9getScalarEv@Base 3.2.1
 _ZNK8casacore16LELSpectralIndexIfE4evalERNS_8LELArrayIfEERKNS_6SlicerE@Base 3.2.1
 _ZNK8casacore16LELSpectralIndexIfE7hasLockENS_10FileLocker8LockTypeE@Base 3.2.1
 _ZNK8casacore16LELSpectralIndexIfE9classNameEv@Base 3.2.1
 _ZNK8casacore16LELSpectralIndexIfE9getScalarEv@Base 3.2.1
 _ZNK8casacore16LattRegionHolder10isWCRegionEv@Base 3.2.1
 _ZNK8casacore16LattRegionHolder13asLCRegionPtrEv@Base 3.2.1
 _ZNK8casacore16LattRegionHolder13asLCSlicerPtrEv@Base 3.2.1
 _ZNK8casacore16LattRegionHolder13asWCRegionPtrEv@Base 3.2.1
 _ZNK8casacore16LattRegionHolder14makeComplementEv@Base 3.2.1
 _ZNK8casacore16LattRegionHolder14makeDifferenceERKS0_@Base 3.2.1
 _ZNK8casacore16LattRegionHolder15toLatticeRegionERKNS_16CoordinateSystemERKNS_9IPositionE@Base 3.2.1
 _ZNK8casacore16LattRegionHolder15toLatticeRegionERKNS_9IPositionE@Base 3.2.1
 _ZNK8casacore16LattRegionHolder16makeIntersectionERKS0_@Base 3.2.1
 _ZNK8casacore16LattRegionHolder5cloneEv@Base 3.2.1
 _ZNK8casacore16LattRegionHolder9makeUnionERKS0_@Base 3.2.1
 _ZNK8casacore16LattRegionHoldereqERKS0_@Base 3.2.1
 _ZNK8casacore16LatticeNavigator11hangOverBlcEv@Base 3.2.1
 _ZNK8casacore16LatticeNavigator11hangOverTrcEv@Base 3.2.1
 _ZNK8casacore16LatticeNavigator15subLatticeShapeEv@Base 3.2.1
 _ZNK8casacore16LatticeNavigator16relativePositionEv@Base 3.2.1
 _ZNK8casacore16LatticeNavigator19relativeEndPositionEv@Base 3.2.1
 _ZNK8casacore16LatticeNavigator2okEv@Base 3.2.1
 _ZNK8casacore16LatticeNavigator3blcEv@Base 3.2.1
 _ZNK8casacore16LatticeNavigator3trcEv@Base 3.2.1
 _ZNK8casacore16LatticeNavigator9incrementEv@Base 3.2.1
 _ZNK8casacore16TiledLineStepper10cursorAxesEv@Base 3.2.1
 _ZNK8casacore16TiledLineStepper11cursorShapeEv@Base 3.2.1
 _ZNK8casacore16TiledLineStepper11endPositionEv@Base 3.2.1
 _ZNK8casacore16TiledLineStepper12latticeShapeEv@Base 3.2.1
 _ZNK8casacore16TiledLineStepper13calcCacheSizeERKNS_9IPositionES3_jj@Base 3.2.1
 _ZNK8casacore16TiledLineStepper15subLatticeShapeEv@Base 3.2.1
 _ZNK8casacore16TiledLineStepper2okEv@Base 3.2.1
 _ZNK8casacore16TiledLineStepper3blcEv@Base 3.2.1
 _ZNK8casacore16TiledLineStepper3trcEv@Base 3.2.1
 _ZNK8casacore16TiledLineStepper5atEndEv@Base 3.2.1
 _ZNK8casacore16TiledLineStepper5cloneEv@Base 3.2.1
 _ZNK8casacore16TiledLineStepper6nstepsEv@Base 3.2.1
 _ZNK8casacore16TiledLineStepper7atStartEv@Base 3.2.1
 _ZNK8casacore16TiledLineStepper8axisPathEv@Base 3.2.1
 _ZNK8casacore16TiledLineStepper8hangOverEv@Base 3.2.1
 _ZNK8casacore16TiledLineStepper8positionEv@Base 3.2.1
 _ZNK8casacore16TiledLineStepper9incrementEv@Base 3.2.1
 _ZNK8casacore16TiledLineStepper9tileShapeEv@Base 3.2.1
 _ZNK8casacore17Allocator_private17BulkAllocatorImplINS_17new_del_allocatorINS_6VectorIdEEEEE16allocator_typeidEv@Base 3.2.1
 _ZNK8casacore17Allocator_private17BulkAllocatorImplINS_17new_del_allocatorINS_8AutoDiffIdEEEEE16allocator_typeidEv@Base 3.2.1
 _ZNK8casacore17Allocator_private17BulkAllocatorImplINS_17new_del_allocatorINS_8AutoDiffIfEEEEE16allocator_typeidEv@Base 3.2.1
 _ZNK8casacore17Allocator_private17BulkAllocatorImplINS_17new_del_allocatorIPNS_6SlicerEEEE16allocator_typeidEv@Base 3.2.1
 _ZNK8casacore17Allocator_private17BulkAllocatorImplINS_18casacore_allocatorINS_15LatticeExprNodeELm32EEEE16allocator_typeidEv@Base 3.2.1
 _ZNK8casacore17Allocator_private17BulkAllocatorImplINS_18casacore_allocatorINS_6VectorIdEELm32EEEE16allocator_typeidEv@Base 3.2.1
 _ZNK8casacore17Allocator_private17BulkAllocatorImplINS_18casacore_allocatorINS_8AutoDiffIdEELm32EEEE16allocator_typeidEv@Base 3.2.1
 _ZNK8casacore17Allocator_private17BulkAllocatorImplINS_18casacore_allocatorINS_8AutoDiffIfEELm32EEEE16allocator_typeidEv@Base 3.2.1
 _ZNK8casacore17Allocator_private17BulkAllocatorImplINS_18casacore_allocatorINS_9IPositionELm32EEEE16allocator_typeidEv@Base 3.2.1
 _ZNK8casacore17Allocator_private17BulkAllocatorImplINS_18casacore_allocatorIPNS_6SlicerELm32EEEE16allocator_typeidEv@Base 3.2.1
 _ZNK8casacore17Allocator_private17BulkAllocatorImplINS_18casacore_allocatorIPvLm32EEEE16allocator_typeidEv@Base 3.2.1
 _ZNK8casacore17Allocator_private17BulkAllocatorImplINS_18casacore_allocatorISt7complexIdELm32EEEE16allocator_typeidEv@Base 3.2.1
 _ZNK8casacore17Allocator_private17BulkAllocatorImplINS_18casacore_allocatorIbLm32EEEE16allocator_typeidEv@Base 3.2.1
 _ZNK8casacore17Allocator_private17BulkAllocatorImplINS_18casacore_allocatorIdLm32EEEE16allocator_typeidEv@Base 3.2.1
 _ZNK8casacore17Allocator_private17BulkAllocatorImplINS_18casacore_allocatorIfLm32EEEE16allocator_typeidEv@Base 3.2.1
 _ZNK8casacore17Allocator_private17BulkAllocatorImplINS_18casacore_allocatorIiLm32EEEE16allocator_typeidEv@Base 3.2.1
 _ZNK8casacore17Allocator_private17BulkAllocatorImplINS_18casacore_allocatorIjLm32EEEE16allocator_typeidEv@Base 3.2.1
 _ZNK8casacore17LELFunctionDouble15nMaskedElementsERKNS_15LatticeExprNodeE@Base 3.2.1
 _ZNK8casacore17LELFunctionDouble4evalERNS_8LELArrayIdEERKNS_6SlicerE@Base 3.2.1
 _ZNK8casacore17LELFunctionDouble7hasLockENS_10FileLocker8LockTypeE@Base 3.2.1
 _ZNK8casacore17LELFunctionDouble9classNameEv@Base 3.2.1
 _ZNK8casacore17LELFunctionDouble9getScalarEv@Base 3.2.1
 _ZNK8casacore17LELFunctionDouble9nMaskedOnERKNS_5ArrayIbEE@Base 3.2.1
 _ZNK8casacore17LELFunctionReal1DIdE4evalERNS_8LELArrayIdEERKNS_6SlicerE@Base 3.2.1
 _ZNK8casacore17LELFunctionReal1DIdE7hasLockENS_10FileLocker8LockTypeE@Base 3.2.1
 _ZNK8casacore17LELFunctionReal1DIdE9classNameEv@Base 3.2.1
 _ZNK8casacore17LELFunctionReal1DIdE9getScalarEv@Base 3.2.1
 _ZNK8casacore17LELFunctionReal1DIfE4evalERNS_8LELArrayIfEERKNS_6SlicerE@Base 3.2.1
 _ZNK8casacore17LELFunctionReal1DIfE7hasLockENS_10FileLocker8LockTypeE@Base 3.2.1
 _ZNK8casacore17LELFunctionReal1DIfE9classNameEv@Base 3.2.1
 _ZNK8casacore17LELFunctionReal1DIfE9getScalarEv@Base 3.2.1
 _ZNK8casacore17LatticeStatisticsIfE10_canDoFluxEv@Base 3.2.1
 _ZNK8casacore17LatticeStatisticsIfE11displayAxesEv@Base 3.2.1
 _ZNK8casacore17LatticeStatisticsIfE12errorMessageEv@Base 3.2.1
 _ZNK8casacore17LatticeStatisticsIfE12locInLatticeERKNS_9IPositionEb@Base 3.2.1
 _ZNK8casacore17LatticeStatisticsIfE13_getAlgorithmEv@Base 3.2.1
 _ZNK8casacore17LatticeStatisticsIfE13stretchMinMaxERdS2_@Base 3.2.1
 _ZNK8casacore17LatticeStatisticsIfE15statsSliceShapeEv@Base 3.2.1
 _ZNK8casacore17LatticeStatisticsIfE17_computeQuantilesINS_5ArrayIfE16ConstIteratorSTLENS3_IbE16ConstIteratorSTLEEEvRdS8_S8_S8_NS_10CountedPtrINS_19StatisticsAlgorithmIdT_T0_SB_EEEEydd@Base 3.2.1
 _ZNK8casacore17LatticeStatisticsIfE17_computeQuantilesIPKfPKbEEvRdS7_S7_S7_NS_10CountedPtrINS_19StatisticsAlgorithmIdT_T0_SA_EEEEydd@Base 3.2.1
 _ZNK8casacore17LatticeStatisticsIfE17getChauvenetNiterEv@Base 3.2.1
 _ZNK8casacore17LatticeStatisticsIfE19locInStorageLatticeERKNS_9IPositionENS_16LatticeStatsBase15StatisticsTypesE@Base 3.2.1
 _ZNK8casacore17LatticeStatisticsIfE20_storageLatticeShapeEv@Base 3.2.1
 _ZNK8casacore17LatticeStatisticsIfE23_configureDataProvidersERNS_24LatticeStatsDataProviderIfEERNS_30MaskedLatticeStatsDataProviderIfEE@Base 3.2.1
 _ZNK8casacore17LatticeStatisticsIfE26_cursorShapeForArrayMethodEy@Base 3.2.1
 _ZNK8casacore17LatticeStatisticsIfE34_computeQuantilesForStatsFrameworkINS_5ArrayIfE16ConstIteratorSTLENS3_IbE16ConstIteratorSTLEEEvRNS_9StatsDataIdEERdSB_NS_10CountedPtrINS_19StatisticsAlgorithmIdT_T0_SE_EEEE@Base 3.2.1
 _ZNK8casacore17LatticeStatisticsIfE34_computeQuantilesForStatsFrameworkIPKfPKbEEvRNS_9StatsDataIdEERdSA_NS_10CountedPtrINS_19StatisticsAlgorithmIdT_T0_SD_EEEE@Base 3.2.1
 _ZNK8casacore17LatticeStatisticsIfE5_fluxERbdd@Base 3.2.1
 _ZNK8casacore17LatticeStatisticsIfE6minMaxERbRdS3_RKNS_6VectorIdEES7_@Base 3.2.1
 _ZNK8casacore17LatticeStatisticsIfE9hasLoggerEv@Base 3.2.1
 _ZNK8casacore17StatisticsDatasetIdNS_5ArrayIfE16ConstIteratorSTLENS1_IbE16ConstIteratorSTLES3_E14initThreadVarsERjRyS7_RSt10unique_ptrIA_S3_St14default_deleteISA_EERS9_IA_S5_SB_ISF_EESE_RS9_IA_ySB_ISJ_EEj@Base 3.2.1
 _ZNK8casacore17StatisticsDatasetIdNS_5ArrayIfE16ConstIteratorSTLENS1_IbE16ConstIteratorSTLES3_E20incrementThreadItersERS3_RS5_S7_Ryj@Base 3.2.1
 _ZNK8casacore17StatisticsDatasetIdPKfPKbS2_E14initThreadVarsERjRyS6_RSt10unique_ptrIA_S2_St14default_deleteIS9_EERS8_IA_S4_SA_ISE_EESD_RS8_IA_ySA_ISI_EEj@Base 3.2.1
 _ZNK8casacore17StatisticsDatasetIdPKfPKbS2_E20incrementThreadItersERS2_RS4_S6_Ryj@Base 3.2.1
 _ZNK8casacore17StatsDataProviderIdNS_5ArrayIfE16ConstIteratorSTLENS1_IbE16ConstIteratorSTLES3_E14getNMaxThreadsEv@Base 3.2.1
 _ZNK8casacore17StatsDataProviderIdPKfPKbS2_E14getNMaxThreadsEv@Base 3.2.1
 _ZNK8casacore18BiweightStatisticsIdNS_5ArrayIfE16ConstIteratorSTLENS1_IbE16ConstIteratorSTLES3_E10_scaleSumsERdS7_RKS3_S9_yj@Base 3.2.1
 _ZNK8casacore18BiweightStatisticsIdNS_5ArrayIfE16ConstIteratorSTLENS1_IbE16ConstIteratorSTLES3_E10_scaleSumsERdS7_RKS3_S9_yjRKS5_j@Base 3.2.1
 _ZNK8casacore18BiweightStatisticsIdNS_5ArrayIfE16ConstIteratorSTLENS1_IbE16ConstIteratorSTLES3_E10_scaleSumsERdS7_RKS3_S9_yjRKS5_jRKSt6vectorISt4pairIddESaISE_EEb@Base 3.2.1
 _ZNK8casacore18BiweightStatisticsIdNS_5ArrayIfE16ConstIteratorSTLENS1_IbE16ConstIteratorSTLES3_E10_scaleSumsERdS7_RKS3_S9_yjRKSt6vectorISt4pairIddESaISC_EEb@Base 3.2.1
 _ZNK8casacore18BiweightStatisticsIdNS_5ArrayIfE16ConstIteratorSTLENS1_IbE16ConstIteratorSTLES3_E10_scaleSumsERdS7_RKS3_yjRKS5_j@Base 3.2.1
 _ZNK8casacore18BiweightStatisticsIdNS_5ArrayIfE16ConstIteratorSTLENS1_IbE16ConstIteratorSTLES3_E10_scaleSumsERdS7_RKS3_yjRKS5_jRKSt6vectorISt4pairIddESaISE_EEb@Base 3.2.1
 _ZNK8casacore18BiweightStatisticsIdNS_5ArrayIfE16ConstIteratorSTLENS1_IbE16ConstIteratorSTLES3_E13_locationSumsERdS7_RKS3_S9_yj@Base 3.2.1
 _ZNK8casacore18BiweightStatisticsIdNS_5ArrayIfE16ConstIteratorSTLENS1_IbE16ConstIteratorSTLES3_E13_locationSumsERdS7_RKS3_S9_yjRKS5_j@Base 3.2.1
 _ZNK8casacore18BiweightStatisticsIdNS_5ArrayIfE16ConstIteratorSTLENS1_IbE16ConstIteratorSTLES3_E13_locationSumsERdS7_RKS3_S9_yjRKS5_jRKSt6vectorISt4pairIddESaISE_EEb@Base 3.2.1
 _ZNK8casacore18BiweightStatisticsIdNS_5ArrayIfE16ConstIteratorSTLENS1_IbE16ConstIteratorSTLES3_E13_locationSumsERdS7_RKS3_S9_yjRKSt6vectorISt4pairIddESaISC_EEb@Base 3.2.1
 _ZNK8casacore18BiweightStatisticsIdNS_5ArrayIfE16ConstIteratorSTLENS1_IbE16ConstIteratorSTLES3_E13_locationSumsERdS7_RKS3_yjRKS5_j@Base 3.2.1
 _ZNK8casacore18BiweightStatisticsIdNS_5ArrayIfE16ConstIteratorSTLENS1_IbE16ConstIteratorSTLES3_E13_locationSumsERdS7_RKS3_yjRKS5_jRKSt6vectorISt4pairIddESaISE_EEb@Base 3.2.1
 _ZNK8casacore18BiweightStatisticsIdNS_5ArrayIfE16ConstIteratorSTLENS1_IbE16ConstIteratorSTLES3_E17_computeScaleSumsERdS7_S3_S5_S3_yRKNS_17StatisticsDatasetIdS3_S5_S3_E9ChunkDataE@Base 3.2.1
 _ZNK8casacore18BiweightStatisticsIdNS_5ArrayIfE16ConstIteratorSTLENS1_IbE16ConstIteratorSTLES3_E21_locationAndScaleSumsERdS7_S7_S7_RKS3_S9_yj@Base 3.2.1
 _ZNK8casacore18BiweightStatisticsIdNS_5ArrayIfE16ConstIteratorSTLENS1_IbE16ConstIteratorSTLES3_E21_locationAndScaleSumsERdS7_S7_S7_RKS3_S9_yjRKS5_j@Base 3.2.1
 _ZNK8casacore18BiweightStatisticsIdNS_5ArrayIfE16ConstIteratorSTLENS1_IbE16ConstIteratorSTLES3_E21_locationAndScaleSumsERdS7_S7_S7_RKS3_S9_yjRKS5_jRKSt6vectorISt4pairIddESaISE_EEb@Base 3.2.1
 _ZNK8casacore18BiweightStatisticsIdNS_5ArrayIfE16ConstIteratorSTLENS1_IbE16ConstIteratorSTLES3_E21_locationAndScaleSumsERdS7_S7_S7_RKS3_S9_yjRKSt6vectorISt4pairIddESaISC_EEb@Base 3.2.1
 _ZNK8casacore18BiweightStatisticsIdNS_5ArrayIfE16ConstIteratorSTLENS1_IbE16ConstIteratorSTLES3_E21_locationAndScaleSumsERdS7_S7_S7_RKS3_yjRKS5_j@Base 3.2.1
 _ZNK8casacore18BiweightStatisticsIdNS_5ArrayIfE16ConstIteratorSTLENS1_IbE16ConstIteratorSTLES3_E21_locationAndScaleSumsERdS7_S7_S7_RKS3_yjRKS5_jRKSt6vectorISt4pairIddESaISE_EEb@Base 3.2.1
 _ZNK8casacore18BiweightStatisticsIdNS_5ArrayIfE16ConstIteratorSTLENS1_IbE16ConstIteratorSTLES3_E5cloneEv@Base 3.2.1
 _ZNK8casacore18BiweightStatisticsIdNS_5ArrayIfE16ConstIteratorSTLENS1_IbE16ConstIteratorSTLES3_E9algorithmEv@Base 3.2.1
 _ZNK8casacore18BiweightStatisticsIdPKfPKbS2_E17_computeScaleSumsERdS6_S2_S4_S2_yRKNS_17StatisticsDatasetIdS2_S4_S2_E9ChunkDataE@Base 3.2.1
 _ZNK8casacore18BiweightStatisticsIdPKfPKbS2_E5cloneEv@Base 3.2.1
 _ZNK8casacore18BiweightStatisticsIdPKfPKbS2_E9algorithmEv@Base 3.2.1
 _ZNK8casacore18LELFunctionComplex4evalERNS_8LELArrayISt7complexIfEEERKNS_6SlicerE@Base 3.2.1
 _ZNK8casacore18LELFunctionComplex7hasLockENS_10FileLocker8LockTypeE@Base 3.2.1
 _ZNK8casacore18LELFunctionComplex9classNameEv@Base 3.2.1
 _ZNK8casacore18LELFunctionComplex9getScalarEv@Base 3.2.1
 _ZNK8casacore19ClassicalStatisticsIdNS_5ArrayIfE16ConstIteratorSTLENS1_IbE16ConstIteratorSTLES3_E10_accumNptsERyRKS3_S9_yj@Base 3.2.1
 _ZNK8casacore19ClassicalStatisticsIdNS_5ArrayIfE16ConstIteratorSTLENS1_IbE16ConstIteratorSTLES3_E10_accumNptsERyRKS3_S9_yjRKS5_j@Base 3.2.1
 _ZNK8casacore19ClassicalStatisticsIdNS_5ArrayIfE16ConstIteratorSTLENS1_IbE16ConstIteratorSTLES3_E10_accumNptsERyRKS3_S9_yjRKS5_jRKSt6vectorISt4pairIddESaISE_EEb@Base 3.2.1
 _ZNK8casacore19ClassicalStatisticsIdNS_5ArrayIfE16ConstIteratorSTLENS1_IbE16ConstIteratorSTLES3_E10_accumNptsERyRKS3_S9_yjRKSt6vectorISt4pairIddESaISC_EEb@Base 3.2.1
 _ZNK8casacore19ClassicalStatisticsIdNS_5ArrayIfE16ConstIteratorSTLENS1_IbE16ConstIteratorSTLES3_E10_accumNptsERyRKS3_yj@Base 3.2.1
 _ZNK8casacore19ClassicalStatisticsIdNS_5ArrayIfE16ConstIteratorSTLENS1_IbE16ConstIteratorSTLES3_E10_accumNptsERyRKS3_yjRKS5_j@Base 3.2.1
 _ZNK8casacore19ClassicalStatisticsIdNS_5ArrayIfE16ConstIteratorSTLENS1_IbE16ConstIteratorSTLES3_E10_accumNptsERyRKS3_yjRKS5_jRKSt6vectorISt4pairIddESaISE_EEb@Base 3.2.1
 _ZNK8casacore19ClassicalStatisticsIdNS_5ArrayIfE16ConstIteratorSTLENS1_IbE16ConstIteratorSTLES3_E10_accumNptsERyRKS3_yjRKSt6vectorISt4pairIddESaISC_EEb@Base 3.2.1
 _ZNK8casacore19ClassicalStatisticsIdNS_5ArrayIfE16ConstIteratorSTLENS1_IbE16ConstIteratorSTLES3_E11_minMaxNptsERyRNS_10CountedPtrIdEESA_RKS3_SC_yj@Base 3.2.1
 _ZNK8casacore19ClassicalStatisticsIdNS_5ArrayIfE16ConstIteratorSTLENS1_IbE16ConstIteratorSTLES3_E11_minMaxNptsERyRNS_10CountedPtrIdEESA_RKS3_SC_yjRKS5_j@Base 3.2.1
 _ZNK8casacore19ClassicalStatisticsIdNS_5ArrayIfE16ConstIteratorSTLENS1_IbE16ConstIteratorSTLES3_E11_minMaxNptsERyRNS_10CountedPtrIdEESA_RKS3_SC_yjRKS5_jRKSt6vectorISt4pairIddESaISH_EEb@Base 3.2.1
 _ZNK8casacore19ClassicalStatisticsIdNS_5ArrayIfE16ConstIteratorSTLENS1_IbE16ConstIteratorSTLES3_E11_minMaxNptsERyRNS_10CountedPtrIdEESA_RKS3_SC_yjRKSt6vectorISt4pairIddESaISF_EEb@Base 3.2.1
 _ZNK8casacore19ClassicalStatisticsIdNS_5ArrayIfE16ConstIteratorSTLENS1_IbE16ConstIteratorSTLES3_E11_minMaxNptsERyRNS_10CountedPtrIdEESA_RKS3_yj@Base 3.2.1
 _ZNK8casacore19ClassicalStatisticsIdNS_5ArrayIfE16ConstIteratorSTLENS1_IbE16ConstIteratorSTLES3_E11_minMaxNptsERyRNS_10CountedPtrIdEESA_RKS3_yjRKS5_j@Base 3.2.1
 _ZNK8casacore19ClassicalStatisticsIdNS_5ArrayIfE16ConstIteratorSTLENS1_IbE16ConstIteratorSTLES3_E11_minMaxNptsERyRNS_10CountedPtrIdEESA_RKS3_yjRKS5_jRKSt6vectorISt4pairIddESaISH_EEb@Base 3.2.1
 _ZNK8casacore19ClassicalStatisticsIdNS_5ArrayIfE16ConstIteratorSTLENS1_IbE16ConstIteratorSTLES3_E11_minMaxNptsERyRNS_10CountedPtrIdEESA_RKS3_yjRKSt6vectorISt4pairIddESaISF_EEb@Base 3.2.1
 _ZNK8casacore19ClassicalStatisticsIdNS_5ArrayIfE16ConstIteratorSTLENS1_IbE16ConstIteratorSTLES3_E13_getStatsDataEv@Base 3.2.1
 _ZNK8casacore19ClassicalStatisticsIdNS_5ArrayIfE16ConstIteratorSTLENS1_IbE16ConstIteratorSTLES3_E16_getInitialStatsEv@Base 3.2.1
 _ZNK8casacore19ClassicalStatisticsIdNS_5ArrayIfE16ConstIteratorSTLENS1_IbE16ConstIteratorSTLES3_E5cloneEv@Base 3.2.1
 _ZNK8casacore19ClassicalStatisticsIdNS_5ArrayIfE16ConstIteratorSTLENS1_IbE16ConstIteratorSTLES3_E7_minMaxERNS_10CountedPtrIdEES9_RKS3_SB_yj@Base 3.2.1
 _ZNK8casacore19ClassicalStatisticsIdNS_5ArrayIfE16ConstIteratorSTLENS1_IbE16ConstIteratorSTLES3_E7_minMaxERNS_10CountedPtrIdEES9_RKS3_SB_yjRKS5_j@Base 3.2.1
 _ZNK8casacore19ClassicalStatisticsIdNS_5ArrayIfE16ConstIteratorSTLENS1_IbE16ConstIteratorSTLES3_E7_minMaxERNS_10CountedPtrIdEES9_RKS3_SB_yjRKS5_jRKSt6vectorISt4pairIddESaISG_EEb@Base 3.2.1
 _ZNK8casacore19ClassicalStatisticsIdNS_5ArrayIfE16ConstIteratorSTLENS1_IbE16ConstIteratorSTLES3_E7_minMaxERNS_10CountedPtrIdEES9_RKS3_SB_yjRKSt6vectorISt4pairIddESaISE_EEb@Base 3.2.1
 _ZNK8casacore19ClassicalStatisticsIdNS_5ArrayIfE16ConstIteratorSTLENS1_IbE16ConstIteratorSTLES3_E7_minMaxERNS_10CountedPtrIdEES9_RKS3_yj@Base 3.2.1
 _ZNK8casacore19ClassicalStatisticsIdNS_5ArrayIfE16ConstIteratorSTLENS1_IbE16ConstIteratorSTLES3_E7_minMaxERNS_10CountedPtrIdEES9_RKS3_yjRKS5_j@Base 3.2.1
 _ZNK8casacore19ClassicalStatisticsIdNS_5ArrayIfE16ConstIteratorSTLENS1_IbE16ConstIteratorSTLES3_E7_minMaxERNS_10CountedPtrIdEES9_RKS3_yjRKS5_jRKSt6vectorISt4pairIddESaISG_EEb@Base 3.2.1
 _ZNK8casacore19ClassicalStatisticsIdNS_5ArrayIfE16ConstIteratorSTLENS1_IbE16ConstIteratorSTLES3_E7_minMaxERNS_10CountedPtrIdEES9_RKS3_yjRKSt6vectorISt4pairIddESaISE_EEb@Base 3.2.1
 _ZNK8casacore19ClassicalStatisticsIdNS_5ArrayIfE16ConstIteratorSTLENS1_IbE16ConstIteratorSTLES3_E9algorithmEv@Base 3.2.1
 _ZNK8casacore19ClassicalStatisticsIdPKfPKbS2_E10_accumNptsERyRKS2_S8_yj@Base 3.2.1
 _ZNK8casacore19ClassicalStatisticsIdPKfPKbS2_E10_accumNptsERyRKS2_S8_yjRKS4_j@Base 3.2.1
 _ZNK8casacore19ClassicalStatisticsIdPKfPKbS2_E10_accumNptsERyRKS2_S8_yjRKS4_jRKSt6vectorISt4pairIddESaISD_EEb@Base 3.2.1
 _ZNK8casacore19ClassicalStatisticsIdPKfPKbS2_E10_accumNptsERyRKS2_S8_yjRKSt6vectorISt4pairIddESaISB_EEb@Base 3.2.1
 _ZNK8casacore19ClassicalStatisticsIdPKfPKbS2_E10_accumNptsERyRKS2_yj@Base 3.2.1
 _ZNK8casacore19ClassicalStatisticsIdPKfPKbS2_E10_accumNptsERyRKS2_yjRKS4_j@Base 3.2.1
 _ZNK8casacore19ClassicalStatisticsIdPKfPKbS2_E10_accumNptsERyRKS2_yjRKS4_jRKSt6vectorISt4pairIddESaISD_EEb@Base 3.2.1
 _ZNK8casacore19ClassicalStatisticsIdPKfPKbS2_E10_accumNptsERyRKS2_yjRKSt6vectorISt4pairIddESaISB_EEb@Base 3.2.1
 _ZNK8casacore19ClassicalStatisticsIdPKfPKbS2_E11_minMaxNptsERyRNS_10CountedPtrIdEES9_RKS2_SB_yj@Base 3.2.1
 _ZNK8casacore19ClassicalStatisticsIdPKfPKbS2_E11_minMaxNptsERyRNS_10CountedPtrIdEES9_RKS2_SB_yjRKS4_j@Base 3.2.1
 _ZNK8casacore19ClassicalStatisticsIdPKfPKbS2_E11_minMaxNptsERyRNS_10CountedPtrIdEES9_RKS2_SB_yjRKS4_jRKSt6vectorISt4pairIddESaISG_EEb@Base 3.2.1
 _ZNK8casacore19ClassicalStatisticsIdPKfPKbS2_E11_minMaxNptsERyRNS_10CountedPtrIdEES9_RKS2_SB_yjRKSt6vectorISt4pairIddESaISE_EEb@Base 3.2.1
 _ZNK8casacore19ClassicalStatisticsIdPKfPKbS2_E11_minMaxNptsERyRNS_10CountedPtrIdEES9_RKS2_yj@Base 3.2.1
 _ZNK8casacore19ClassicalStatisticsIdPKfPKbS2_E11_minMaxNptsERyRNS_10CountedPtrIdEES9_RKS2_yjRKS4_j@Base 3.2.1
 _ZNK8casacore19ClassicalStatisticsIdPKfPKbS2_E11_minMaxNptsERyRNS_10CountedPtrIdEES9_RKS2_yjRKS4_jRKSt6vectorISt4pairIddESaISG_EEb@Base 3.2.1
 _ZNK8casacore19ClassicalStatisticsIdPKfPKbS2_E11_minMaxNptsERyRNS_10CountedPtrIdEES9_RKS2_yjRKSt6vectorISt4pairIddESaISE_EEb@Base 3.2.1
 _ZNK8casacore19ClassicalStatisticsIdPKfPKbS2_E13_getStatsDataEv@Base 3.2.1
 _ZNK8casacore19ClassicalStatisticsIdPKfPKbS2_E16_getInitialStatsEv@Base 3.2.1
 _ZNK8casacore19ClassicalStatisticsIdPKfPKbS2_E5cloneEv@Base 3.2.1
 _ZNK8casacore19ClassicalStatisticsIdPKfPKbS2_E7_minMaxERNS_10CountedPtrIdEES8_RKS2_SA_yj@Base 3.2.1
 _ZNK8casacore19ClassicalStatisticsIdPKfPKbS2_E7_minMaxERNS_10CountedPtrIdEES8_RKS2_SA_yjRKS4_j@Base 3.2.1
 _ZNK8casacore19ClassicalStatisticsIdPKfPKbS2_E7_minMaxERNS_10CountedPtrIdEES8_RKS2_SA_yjRKS4_jRKSt6vectorISt4pairIddESaISF_EEb@Base 3.2.1
 _ZNK8casacore19ClassicalStatisticsIdPKfPKbS2_E7_minMaxERNS_10CountedPtrIdEES8_RKS2_SA_yjRKSt6vectorISt4pairIddESaISD_EEb@Base 3.2.1
 _ZNK8casacore19ClassicalStatisticsIdPKfPKbS2_E7_minMaxERNS_10CountedPtrIdEES8_RKS2_yj@Base 3.2.1
 _ZNK8casacore19ClassicalStatisticsIdPKfPKbS2_E7_minMaxERNS_10CountedPtrIdEES8_RKS2_yjRKS4_j@Base 3.2.1
 _ZNK8casacore19ClassicalStatisticsIdPKfPKbS2_E7_minMaxERNS_10CountedPtrIdEES8_RKS2_yjRKS4_jRKSt6vectorISt4pairIddESaISF_EEb@Base 3.2.1
 _ZNK8casacore19ClassicalStatisticsIdPKfPKbS2_E7_minMaxERNS_10CountedPtrIdEES8_RKS2_yjRKSt6vectorISt4pairIddESaISD_EEb@Base 3.2.1
 _ZNK8casacore19ClassicalStatisticsIdPKfPKbS2_E9algorithmEv@Base 3.2.1
 _ZNK8casacore19FitToHalfStatisticsIdNS_5ArrayIfE16ConstIteratorSTLENS1_IbE16ConstIteratorSTLES3_E13_getStatsDataEv@Base 3.2.1
 _ZNK8casacore19FitToHalfStatisticsIdNS_5ArrayIfE16ConstIteratorSTLENS1_IbE16ConstIteratorSTLES3_E16_getInitialStatsEv@Base 3.2.1
 _ZNK8casacore19FitToHalfStatisticsIdNS_5ArrayIfE16ConstIteratorSTLENS1_IbE16ConstIteratorSTLES3_E5cloneEv@Base 3.2.1
 _ZNK8casacore19FitToHalfStatisticsIdNS_5ArrayIfE16ConstIteratorSTLENS1_IbE16ConstIteratorSTLES3_E9algorithmEv@Base 3.2.1
 _ZNK8casacore19FitToHalfStatisticsIdPKfPKbS2_E13_getStatsDataEv@Base 3.2.1
 _ZNK8casacore19FitToHalfStatisticsIdPKfPKbS2_E16_getInitialStatsEv@Base 3.2.1
 _ZNK8casacore19FitToHalfStatisticsIdPKfPKbS2_E5cloneEv@Base 3.2.1
 _ZNK8casacore19FitToHalfStatisticsIdPKfPKbS2_E9algorithmEv@Base 3.2.1
 _ZNK8casacore19LELFunctionDComplex4evalERNS_8LELArrayISt7complexIdEEERKNS_6SlicerE@Base 3.2.1
 _ZNK8casacore19LELFunctionDComplex7hasLockENS_10FileLocker8LockTypeE@Base 3.2.1
 _ZNK8casacore19LELFunctionDComplex9classNameEv@Base 3.2.1
 _ZNK8casacore19LELFunctionDComplex9getScalarEv@Base 3.2.1
 _ZNK8casacore19StatisticsAlgorithmIdNS_5ArrayIfE16ConstIteratorSTLENS1_IbE16ConstIteratorSTLES3_E25_getUnsupportedStatisticsEv@Base 3.2.1
 _ZNK8casacore19StatisticsAlgorithmIdPKfPKbS2_E25_getUnsupportedStatisticsEv@Base 3.2.1
 _ZNK8casacore19StatsTiledCollapserIfdE17canHandleNullMaskEv@Base 3.2.1
 _ZNK8casacore20LatticeIterInterfaceISt7complexIdEE5cloneEv@Base 3.2.1
 _ZNK8casacore20LatticeIterInterfaceISt7complexIfEE5cloneEv@Base 3.2.1
 _ZNK8casacore20LatticeIterInterfaceIbE5cloneEv@Base 3.2.1
 _ZNK8casacore20LatticeIterInterfaceIdE5cloneEv@Base 3.2.1
 _ZNK8casacore20LatticeIterInterfaceIfE11cursorShapeEv@Base 3.2.1
 _ZNK8casacore20LatticeIterInterfaceIfE11endPositionEv@Base 3.2.1
 _ZNK8casacore20LatticeIterInterfaceIfE12latticeShapeEv@Base 3.2.1
 _ZNK8casacore20LatticeIterInterfaceIfE2okEv@Base 3.2.1
 _ZNK8casacore20LatticeIterInterfaceIfE5atEndEv@Base 3.2.1
 _ZNK8casacore20LatticeIterInterfaceIfE5cloneEv@Base 3.2.1
 _ZNK8casacore20LatticeIterInterfaceIfE6nstepsEv@Base 3.2.1
 _ZNK8casacore20LatticeIterInterfaceIfE7atStartEv@Base 3.2.1
 _ZNK8casacore20LatticeIterInterfaceIfE8positionEv@Base 3.2.1
 _ZNK8casacore22HingesFencesStatisticsIdNS_5ArrayIfE16ConstIteratorSTLENS1_IbE16ConstIteratorSTLES3_E10_accumNptsERyRKS3_S9_yj@Base 3.2.1
 _ZNK8casacore22HingesFencesStatisticsIdNS_5ArrayIfE16ConstIteratorSTLENS1_IbE16ConstIteratorSTLES3_E10_accumNptsERyRKS3_S9_yjRKS5_j@Base 3.2.1
 _ZNK8casacore22HingesFencesStatisticsIdNS_5ArrayIfE16ConstIteratorSTLENS1_IbE16ConstIteratorSTLES3_E10_accumNptsERyRKS3_S9_yjRKS5_jRKSt6vectorISt4pairIddESaISE_EEb@Base 3.2.1
 _ZNK8casacore22HingesFencesStatisticsIdNS_5ArrayIfE16ConstIteratorSTLENS1_IbE16ConstIteratorSTLES3_E10_accumNptsERyRKS3_S9_yjRKSt6vectorISt4pairIddESaISC_EEb@Base 3.2.1
 _ZNK8casacore22HingesFencesStatisticsIdNS_5ArrayIfE16ConstIteratorSTLENS1_IbE16ConstIteratorSTLES3_E10_accumNptsERyRKS3_yj@Base 3.2.1
 _ZNK8casacore22HingesFencesStatisticsIdNS_5ArrayIfE16ConstIteratorSTLENS1_IbE16ConstIteratorSTLES3_E10_accumNptsERyRKS3_yjRKS5_j@Base 3.2.1
 _ZNK8casacore22HingesFencesStatisticsIdNS_5ArrayIfE16ConstIteratorSTLENS1_IbE16ConstIteratorSTLES3_E10_accumNptsERyRKS3_yjRKS5_jRKSt6vectorISt4pairIddESaISE_EEb@Base 3.2.1
 _ZNK8casacore22HingesFencesStatisticsIdNS_5ArrayIfE16ConstIteratorSTLENS1_IbE16ConstIteratorSTLES3_E10_accumNptsERyRKS3_yjRKSt6vectorISt4pairIddESaISC_EEb@Base 3.2.1
 _ZNK8casacore22HingesFencesStatisticsIdNS_5ArrayIfE16ConstIteratorSTLENS1_IbE16ConstIteratorSTLES3_E11_minMaxNptsERyRNS_10CountedPtrIdEESA_RKS3_SC_yj@Base 3.2.1
 _ZNK8casacore22HingesFencesStatisticsIdNS_5ArrayIfE16ConstIteratorSTLENS1_IbE16ConstIteratorSTLES3_E11_minMaxNptsERyRNS_10CountedPtrIdEESA_RKS3_SC_yjRKS5_j@Base 3.2.1
 _ZNK8casacore22HingesFencesStatisticsIdNS_5ArrayIfE16ConstIteratorSTLENS1_IbE16ConstIteratorSTLES3_E11_minMaxNptsERyRNS_10CountedPtrIdEESA_RKS3_SC_yjRKS5_jRKSt6vectorISt4pairIddESaISH_EEb@Base 3.2.1
 _ZNK8casacore22HingesFencesStatisticsIdNS_5ArrayIfE16ConstIteratorSTLENS1_IbE16ConstIteratorSTLES3_E11_minMaxNptsERyRNS_10CountedPtrIdEESA_RKS3_SC_yjRKSt6vectorISt4pairIddESaISF_EEb@Base 3.2.1
 _ZNK8casacore22HingesFencesStatisticsIdNS_5ArrayIfE16ConstIteratorSTLENS1_IbE16ConstIteratorSTLES3_E11_minMaxNptsERyRNS_10CountedPtrIdEESA_RKS3_yj@Base 3.2.1
 _ZNK8casacore22HingesFencesStatisticsIdNS_5ArrayIfE16ConstIteratorSTLENS1_IbE16ConstIteratorSTLES3_E11_minMaxNptsERyRNS_10CountedPtrIdEESA_RKS3_yjRKS5_j@Base 3.2.1
 _ZNK8casacore22HingesFencesStatisticsIdNS_5ArrayIfE16ConstIteratorSTLENS1_IbE16ConstIteratorSTLES3_E11_minMaxNptsERyRNS_10CountedPtrIdEESA_RKS3_yjRKS5_jRKSt6vectorISt4pairIddESaISH_EEb@Base 3.2.1
 _ZNK8casacore22HingesFencesStatisticsIdNS_5ArrayIfE16ConstIteratorSTLENS1_IbE16ConstIteratorSTLES3_E11_minMaxNptsERyRNS_10CountedPtrIdEESA_RKS3_yjRKSt6vectorISt4pairIddESaISF_EEb@Base 3.2.1
 _ZNK8casacore22HingesFencesStatisticsIdNS_5ArrayIfE16ConstIteratorSTLENS1_IbE16ConstIteratorSTLES3_E5cloneEv@Base 3.2.1
 _ZNK8casacore22HingesFencesStatisticsIdNS_5ArrayIfE16ConstIteratorSTLENS1_IbE16ConstIteratorSTLES3_E7_minMaxERNS_10CountedPtrIdEES9_RKS3_SB_yj@Base 3.2.1
 _ZNK8casacore22HingesFencesStatisticsIdNS_5ArrayIfE16ConstIteratorSTLENS1_IbE16ConstIteratorSTLES3_E7_minMaxERNS_10CountedPtrIdEES9_RKS3_SB_yjRKS5_j@Base 3.2.1
 _ZNK8casacore22HingesFencesStatisticsIdNS_5ArrayIfE16ConstIteratorSTLENS1_IbE16ConstIteratorSTLES3_E7_minMaxERNS_10CountedPtrIdEES9_RKS3_SB_yjRKS5_jRKSt6vectorISt4pairIddESaISG_EEb@Base 3.2.1
 _ZNK8casacore22HingesFencesStatisticsIdNS_5ArrayIfE16ConstIteratorSTLENS1_IbE16ConstIteratorSTLES3_E7_minMaxERNS_10CountedPtrIdEES9_RKS3_SB_yjRKSt6vectorISt4pairIddESaISE_EEb@Base 3.2.1
 _ZNK8casacore22HingesFencesStatisticsIdNS_5ArrayIfE16ConstIteratorSTLENS1_IbE16ConstIteratorSTLES3_E7_minMaxERNS_10CountedPtrIdEES9_RKS3_yj@Base 3.2.1
 _ZNK8casacore22HingesFencesStatisticsIdNS_5ArrayIfE16ConstIteratorSTLENS1_IbE16ConstIteratorSTLES3_E7_minMaxERNS_10CountedPtrIdEES9_RKS3_yjRKS5_j@Base 3.2.1
 _ZNK8casacore22HingesFencesStatisticsIdNS_5ArrayIfE16ConstIteratorSTLENS1_IbE16ConstIteratorSTLES3_E7_minMaxERNS_10CountedPtrIdEES9_RKS3_yjRKS5_jRKSt6vectorISt4pairIddESaISG_EEb@Base 3.2.1
 _ZNK8casacore22HingesFencesStatisticsIdNS_5ArrayIfE16ConstIteratorSTLENS1_IbE16ConstIteratorSTLES3_E7_minMaxERNS_10CountedPtrIdEES9_RKS3_yjRKSt6vectorISt4pairIddESaISE_EEb@Base 3.2.1
 _ZNK8casacore22HingesFencesStatisticsIdNS_5ArrayIfE16ConstIteratorSTLENS1_IbE16ConstIteratorSTLES3_E9algorithmEv@Base 3.2.1
 _ZNK8casacore22HingesFencesStatisticsIdPKfPKbS2_E10_accumNptsERyRKS2_S8_yj@Base 3.2.1
 _ZNK8casacore22HingesFencesStatisticsIdPKfPKbS2_E10_accumNptsERyRKS2_S8_yjRKS4_j@Base 3.2.1
 _ZNK8casacore22HingesFencesStatisticsIdPKfPKbS2_E10_accumNptsERyRKS2_S8_yjRKS4_jRKSt6vectorISt4pairIddESaISD_EEb@Base 3.2.1
 _ZNK8casacore22HingesFencesStatisticsIdPKfPKbS2_E10_accumNptsERyRKS2_S8_yjRKSt6vectorISt4pairIddESaISB_EEb@Base 3.2.1
 _ZNK8casacore22HingesFencesStatisticsIdPKfPKbS2_E10_accumNptsERyRKS2_yj@Base 3.2.1
 _ZNK8casacore22HingesFencesStatisticsIdPKfPKbS2_E10_accumNptsERyRKS2_yjRKS4_j@Base 3.2.1
 _ZNK8casacore22HingesFencesStatisticsIdPKfPKbS2_E10_accumNptsERyRKS2_yjRKS4_jRKSt6vectorISt4pairIddESaISD_EEb@Base 3.2.1
 _ZNK8casacore22HingesFencesStatisticsIdPKfPKbS2_E10_accumNptsERyRKS2_yjRKSt6vectorISt4pairIddESaISB_EEb@Base 3.2.1
 _ZNK8casacore22HingesFencesStatisticsIdPKfPKbS2_E11_minMaxNptsERyRNS_10CountedPtrIdEES9_RKS2_SB_yj@Base 3.2.1
 _ZNK8casacore22HingesFencesStatisticsIdPKfPKbS2_E11_minMaxNptsERyRNS_10CountedPtrIdEES9_RKS2_SB_yjRKS4_j@Base 3.2.1
 _ZNK8casacore22HingesFencesStatisticsIdPKfPKbS2_E11_minMaxNptsERyRNS_10CountedPtrIdEES9_RKS2_SB_yjRKS4_jRKSt6vectorISt4pairIddESaISG_EEb@Base 3.2.1
 _ZNK8casacore22HingesFencesStatisticsIdPKfPKbS2_E11_minMaxNptsERyRNS_10CountedPtrIdEES9_RKS2_SB_yjRKSt6vectorISt4pairIddESaISE_EEb@Base 3.2.1
 _ZNK8casacore22HingesFencesStatisticsIdPKfPKbS2_E11_minMaxNptsERyRNS_10CountedPtrIdEES9_RKS2_yj@Base 3.2.1
 _ZNK8casacore22HingesFencesStatisticsIdPKfPKbS2_E11_minMaxNptsERyRNS_10CountedPtrIdEES9_RKS2_yjRKS4_j@Base 3.2.1
 _ZNK8casacore22HingesFencesStatisticsIdPKfPKbS2_E11_minMaxNptsERyRNS_10CountedPtrIdEES9_RKS2_yjRKS4_jRKSt6vectorISt4pairIddESaISG_EEb@Base 3.2.1
 _ZNK8casacore22HingesFencesStatisticsIdPKfPKbS2_E11_minMaxNptsERyRNS_10CountedPtrIdEES9_RKS2_yjRKSt6vectorISt4pairIddESaISE_EEb@Base 3.2.1
 _ZNK8casacore22HingesFencesStatisticsIdPKfPKbS2_E5cloneEv@Base 3.2.1
 _ZNK8casacore22HingesFencesStatisticsIdPKfPKbS2_E7_minMaxERNS_10CountedPtrIdEES8_RKS2_SA_yj@Base 3.2.1
 _ZNK8casacore22HingesFencesStatisticsIdPKfPKbS2_E7_minMaxERNS_10CountedPtrIdEES8_RKS2_SA_yjRKS4_j@Base 3.2.1
 _ZNK8casacore22HingesFencesStatisticsIdPKfPKbS2_E7_minMaxERNS_10CountedPtrIdEES8_RKS2_SA_yjRKS4_jRKSt6vectorISt4pairIddESaISF_EEb@Base 3.2.1
 _ZNK8casacore22HingesFencesStatisticsIdPKfPKbS2_E7_minMaxERNS_10CountedPtrIdEES8_RKS2_SA_yjRKSt6vectorISt4pairIddESaISD_EEb@Base 3.2.1
 _ZNK8casacore22HingesFencesStatisticsIdPKfPKbS2_E7_minMaxERNS_10CountedPtrIdEES8_RKS2_yj@Base 3.2.1
 _ZNK8casacore22HingesFencesStatisticsIdPKfPKbS2_E7_minMaxERNS_10CountedPtrIdEES8_RKS2_yjRKS4_j@Base 3.2.1
 _ZNK8casacore22HingesFencesStatisticsIdPKfPKbS2_E7_minMaxERNS_10CountedPtrIdEES8_RKS2_yjRKS4_jRKSt6vectorISt4pairIddESaISF_EEb@Base 3.2.1
 _ZNK8casacore22HingesFencesStatisticsIdPKfPKbS2_E7_minMaxERNS_10CountedPtrIdEES8_RKS2_yjRKSt6vectorISt4pairIddESaISD_EEb@Base 3.2.1
 _ZNK8casacore22HingesFencesStatisticsIdPKfPKbS2_E9algorithmEv@Base 3.2.1
 _ZNK8casacore24LatticeStatsDataProviderIfE14estimatedStepsEv@Base 3.2.1
 _ZNK8casacore24LatticeStatsDataProviderIfE14getNMaxThreadsEv@Base 3.2.1
 _ZNK8casacore24LatticeStatsDataProviderIfE5atEndEv@Base 3.2.1
 _ZNK8casacore24LatticeStatsDataProviderIfE7hasMaskEv@Base 3.2.1
 _ZNK8casacore24RO_MaskedLatticeIteratorISt7complexIdEE7getMaskERNS_5ArrayIbEEb@Base 3.2.1
 _ZNK8casacore24RO_MaskedLatticeIteratorISt7complexIfEE7getMaskERNS_5ArrayIbEEb@Base 3.2.1
 _ZNK8casacore24RO_MaskedLatticeIteratorIbE7getMaskERNS_5ArrayIbEEb@Base 3.2.1
 _ZNK8casacore24RO_MaskedLatticeIteratorIdE7getMaskERNS_5ArrayIbEEb@Base 3.2.1
 _ZNK8casacore24RO_MaskedLatticeIteratorIdE7getMaskERNS_6COWPtrINS_5ArrayIbEEEEb@Base 3.2.1
 _ZNK8casacore24RO_MaskedLatticeIteratorIfE7getMaskERNS_5ArrayIbEEb@Base 3.2.1
 _ZNK8casacore24RO_MaskedLatticeIteratorIfE7getMaskERNS_6COWPtrINS_5ArrayIbEEEEb@Base 3.2.1
 _ZNK8casacore24RO_MaskedLatticeIteratorIfE7getMaskEb@Base 3.2.1
 _ZNK8casacore25ClassicalQuantileComputerIdNS_5ArrayIfE16ConstIteratorSTLENS1_IbE16ConstIteratorSTLES3_E14_populateArrayERSt6vectorIdSaIdEERKS3_SC_yj@Base 3.2.1
 _ZNK8casacore25ClassicalQuantileComputerIdNS_5ArrayIfE16ConstIteratorSTLENS1_IbE16ConstIteratorSTLES3_E14_populateArrayERSt6vectorIdSaIdEERKS3_SC_yjRKS5_j@Base 3.2.1
 _ZNK8casacore25ClassicalQuantileComputerIdNS_5ArrayIfE16ConstIteratorSTLENS1_IbE16ConstIteratorSTLES3_E14_populateArrayERSt6vectorIdSaIdEERKS3_SC_yjRKS5_jRKS7_ISt4pairIddESaISG_EEb@Base 3.2.1
 _ZNK8casacore25ClassicalQuantileComputerIdNS_5ArrayIfE16ConstIteratorSTLENS1_IbE16ConstIteratorSTLES3_E14_populateArrayERSt6vectorIdSaIdEERKS3_SC_yjRKS7_ISt4pairIddESaISE_EEb@Base 3.2.1
 _ZNK8casacore25ClassicalQuantileComputerIdNS_5ArrayIfE16ConstIteratorSTLENS1_IbE16ConstIteratorSTLES3_E14_populateArrayERSt6vectorIdSaIdEERKS3_yj@Base 3.2.1
 _ZNK8casacore25ClassicalQuantileComputerIdNS_5ArrayIfE16ConstIteratorSTLENS1_IbE16ConstIteratorSTLES3_E14_populateArrayERSt6vectorIdSaIdEERKS3_yjRKS5_j@Base 3.2.1
 _ZNK8casacore25ClassicalQuantileComputerIdNS_5ArrayIfE16ConstIteratorSTLENS1_IbE16ConstIteratorSTLES3_E14_populateArrayERSt6vectorIdSaIdEERKS3_yjRKS5_jRKS7_ISt4pairIddESaISG_EEb@Base 3.2.1
 _ZNK8casacore25ClassicalQuantileComputerIdNS_5ArrayIfE16ConstIteratorSTLENS1_IbE16ConstIteratorSTLES3_E14_populateArrayERSt6vectorIdSaIdEERKS3_yjRKS7_ISt4pairIddESaISE_EEb@Base 3.2.1
 _ZNK8casacore25ClassicalQuantileComputerIdNS_5ArrayIfE16ConstIteratorSTLENS1_IbE16ConstIteratorSTLES3_E15_populateArraysERSt6vectorIS7_IdSaIdEESaIS9_EERyRKS3_SF_yjRKS5_jRKS7_ISt4pairIddESaISJ_EEbSN_y@Base 3.2.1
 _ZNK8casacore25ClassicalQuantileComputerIdNS_5ArrayIfE16ConstIteratorSTLENS1_IbE16ConstIteratorSTLES3_E15_populateArraysERSt6vectorIS7_IdSaIdEESaIS9_EERyRKS3_SF_yjRKS5_jRKS7_ISt4pairIddESaISJ_EEy@Base 3.2.1
 _ZNK8casacore25ClassicalQuantileComputerIdNS_5ArrayIfE16ConstIteratorSTLENS1_IbE16ConstIteratorSTLES3_E15_populateArraysERSt6vectorIS7_IdSaIdEESaIS9_EERyRKS3_SF_yjRKS7_ISt4pairIddESaISH_EEbSL_y@Base 3.2.1
 _ZNK8casacore25ClassicalQuantileComputerIdNS_5ArrayIfE16ConstIteratorSTLENS1_IbE16ConstIteratorSTLES3_E15_populateArraysERSt6vectorIS7_IdSaIdEESaIS9_EERyRKS3_SF_yjRKS7_ISt4pairIddESaISH_EEy@Base 3.2.1
 _ZNK8casacore25ClassicalQuantileComputerIdNS_5ArrayIfE16ConstIteratorSTLENS1_IbE16ConstIteratorSTLES3_E15_populateArraysERSt6vectorIS7_IdSaIdEESaIS9_EERyRKS3_yjRKS5_jRKS7_ISt4pairIddESaISJ_EEbSN_y@Base 3.2.1
 _ZNK8casacore25ClassicalQuantileComputerIdNS_5ArrayIfE16ConstIteratorSTLENS1_IbE16ConstIteratorSTLES3_E15_populateArraysERSt6vectorIS7_IdSaIdEESaIS9_EERyRKS3_yjRKS5_jRKS7_ISt4pairIddESaISJ_EEy@Base 3.2.1
 _ZNK8casacore25ClassicalQuantileComputerIdNS_5ArrayIfE16ConstIteratorSTLENS1_IbE16ConstIteratorSTLES3_E15_populateArraysERSt6vectorIS7_IdSaIdEESaIS9_EERyRKS3_yjRKS7_ISt4pairIddESaISH_EEbSL_y@Base 3.2.1
 _ZNK8casacore25ClassicalQuantileComputerIdNS_5ArrayIfE16ConstIteratorSTLENS1_IbE16ConstIteratorSTLES3_E15_populateArraysERSt6vectorIS7_IdSaIdEESaIS9_EERyRKS3_yjRKS7_ISt4pairIddESaISH_EEy@Base 3.2.1
 _ZNK8casacore25ClassicalQuantileComputerIdNS_5ArrayIfE16ConstIteratorSTLENS1_IbE16ConstIteratorSTLES3_E18_populateTestArrayERSt6vectorIdSaIdEERKS3_SC_yjRKS5_jRKS7_ISt4pairIddESaISG_EEbj@Base 3.2.1
 _ZNK8casacore25ClassicalQuantileComputerIdNS_5ArrayIfE16ConstIteratorSTLENS1_IbE16ConstIteratorSTLES3_E18_populateTestArrayERSt6vectorIdSaIdEERKS3_SC_yjRKS5_jj@Base 3.2.1
 _ZNK8casacore25ClassicalQuantileComputerIdNS_5ArrayIfE16ConstIteratorSTLENS1_IbE16ConstIteratorSTLES3_E18_populateTestArrayERSt6vectorIdSaIdEERKS3_SC_yjRKS7_ISt4pairIddESaISE_EEbj@Base 3.2.1
 _ZNK8casacore25ClassicalQuantileComputerIdNS_5ArrayIfE16ConstIteratorSTLENS1_IbE16ConstIteratorSTLES3_E18_populateTestArrayERSt6vectorIdSaIdEERKS3_SC_yjj@Base 3.2.1
 _ZNK8casacore25ClassicalQuantileComputerIdNS_5ArrayIfE16ConstIteratorSTLENS1_IbE16ConstIteratorSTLES3_E18_populateTestArrayERSt6vectorIdSaIdEERKS3_yjRKS5_jRKS7_ISt4pairIddESaISG_EEbj@Base 3.2.1
 _ZNK8casacore25ClassicalQuantileComputerIdNS_5ArrayIfE16ConstIteratorSTLENS1_IbE16ConstIteratorSTLES3_E18_populateTestArrayERSt6vectorIdSaIdEERKS3_yjRKS5_jj@Base 3.2.1
 _ZNK8casacore25ClassicalQuantileComputerIdNS_5ArrayIfE16ConstIteratorSTLENS1_IbE16ConstIteratorSTLES3_E18_populateTestArrayERSt6vectorIdSaIdEERKS3_yjRKS7_ISt4pairIddESaISE_EEbj@Base 3.2.1
 _ZNK8casacore25ClassicalQuantileComputerIdNS_5ArrayIfE16ConstIteratorSTLENS1_IbE16ConstIteratorSTLES3_E18_populateTestArrayERSt6vectorIdSaIdEERKS3_yjj@Base 3.2.1
 _ZNK8casacore25ClassicalQuantileComputerIdNS_5ArrayIfE16ConstIteratorSTLENS1_IbE16ConstIteratorSTLES3_E5cloneEv@Base 3.2.1
 _ZNK8casacore25ClassicalQuantileComputerIdNS_5ArrayIfE16ConstIteratorSTLENS1_IbE16ConstIteratorSTLES3_E9_findBinsERSt6vectorIS7_IySaIyEESaIS9_EERS7_INS_10CountedPtrIdEESaISE_EERS7_IbSaIbEERKS3_SM_yjRKS5_jRKS7_INS_14StatsHistogramIdEESaISQ_EERKS7_IdSaIdEE@Base 3.2.1
 _ZNK8casacore25ClassicalQuantileComputerIdNS_5ArrayIfE16ConstIteratorSTLENS1_IbE16ConstIteratorSTLES3_E9_findBinsERSt6vectorIS7_IySaIyEESaIS9_EERS7_INS_10CountedPtrIdEESaISE_EERS7_IbSaIbEERKS3_SM_yjRKS5_jRKS7_ISt4pairIddESaISQ_EEbRKS7_INS_14StatsHistogramIdEESaISW_EERKS7_IdSaIdEE@Base 3.2.1
 _ZNK8casacore25ClassicalQuantileComputerIdNS_5ArrayIfE16ConstIteratorSTLENS1_IbE16ConstIteratorSTLES3_E9_findBinsERSt6vectorIS7_IySaIyEESaIS9_EERS7_INS_10CountedPtrIdEESaISE_EERS7_IbSaIbEERKS3_SM_yjRKS7_INS_14StatsHistogramIdEESaISO_EERKS7_IdSaIdEE@Base 3.2.1
 _ZNK8casacore25ClassicalQuantileComputerIdNS_5ArrayIfE16ConstIteratorSTLENS1_IbE16ConstIteratorSTLES3_E9_findBinsERSt6vectorIS7_IySaIyEESaIS9_EERS7_INS_10CountedPtrIdEESaISE_EERS7_IbSaIbEERKS3_SM_yjRKS7_ISt4pairIddESaISO_EEbRKS7_INS_14StatsHistogramIdEESaISU_EERKS7_IdSaIdEE@Base 3.2.1
 _ZNK8casacore25ClassicalQuantileComputerIdNS_5ArrayIfE16ConstIteratorSTLENS1_IbE16ConstIteratorSTLES3_E9_findBinsERSt6vectorIS7_IySaIyEESaIS9_EERS7_INS_10CountedPtrIdEESaISE_EERS7_IbSaIbEERKS3_yjRKS5_jRKS7_INS_14StatsHistogramIdEESaISQ_EERKS7_IdSaIdEE@Base 3.2.1
 _ZNK8casacore25ClassicalQuantileComputerIdNS_5ArrayIfE16ConstIteratorSTLENS1_IbE16ConstIteratorSTLES3_E9_findBinsERSt6vectorIS7_IySaIyEESaIS9_EERS7_INS_10CountedPtrIdEESaISE_EERS7_IbSaIbEERKS3_yjRKS5_jRKS7_ISt4pairIddESaISQ_EEbRKS7_INS_14StatsHistogramIdEESaISW_EERKS7_IdSaIdEE@Base 3.2.1
 _ZNK8casacore25ClassicalQuantileComputerIdNS_5ArrayIfE16ConstIteratorSTLENS1_IbE16ConstIteratorSTLES3_E9_findBinsERSt6vectorIS7_IySaIyEESaIS9_EERS7_INS_10CountedPtrIdEESaISE_EERS7_IbSaIbEERKS3_yjRKS7_INS_14StatsHistogramIdEESaISO_EERKS7_IdSaIdEE@Base 3.2.1
 _ZNK8casacore25ClassicalQuantileComputerIdNS_5ArrayIfE16ConstIteratorSTLENS1_IbE16ConstIteratorSTLES3_E9_findBinsERSt6vectorIS7_IySaIyEESaIS9_EERS7_INS_10CountedPtrIdEESaISE_EERS7_IbSaIbEERKS3_yjRKS7_ISt4pairIddESaISO_EEbRKS7_INS_14StatsHistogramIdEESaISU_EERKS7_IdSaIdEE@Base 3.2.1
 _ZNK8casacore25ClassicalQuantileComputerIdPKfPKbS2_E14_populateArrayERSt6vectorIdSaIdEERKS2_SB_yj@Base 3.2.1
 _ZNK8casacore25ClassicalQuantileComputerIdPKfPKbS2_E14_populateArrayERSt6vectorIdSaIdEERKS2_SB_yjRKS4_j@Base 3.2.1
 _ZNK8casacore25ClassicalQuantileComputerIdPKfPKbS2_E14_populateArrayERSt6vectorIdSaIdEERKS2_SB_yjRKS4_jRKS6_ISt4pairIddESaISF_EEb@Base 3.2.1
 _ZNK8casacore25ClassicalQuantileComputerIdPKfPKbS2_E14_populateArrayERSt6vectorIdSaIdEERKS2_SB_yjRKS6_ISt4pairIddESaISD_EEb@Base 3.2.1
 _ZNK8casacore25ClassicalQuantileComputerIdPKfPKbS2_E14_populateArrayERSt6vectorIdSaIdEERKS2_yj@Base 3.2.1
 _ZNK8casacore25ClassicalQuantileComputerIdPKfPKbS2_E14_populateArrayERSt6vectorIdSaIdEERKS2_yjRKS4_j@Base 3.2.1
 _ZNK8casacore25ClassicalQuantileComputerIdPKfPKbS2_E14_populateArrayERSt6vectorIdSaIdEERKS2_yjRKS4_jRKS6_ISt4pairIddESaISF_EEb@Base 3.2.1
 _ZNK8casacore25ClassicalQuantileComputerIdPKfPKbS2_E14_populateArrayERSt6vectorIdSaIdEERKS2_yjRKS6_ISt4pairIddESaISD_EEb@Base 3.2.1
 _ZNK8casacore25ClassicalQuantileComputerIdPKfPKbS2_E15_populateArraysERSt6vectorIS6_IdSaIdEESaIS8_EERyRKS2_SE_yjRKS4_jRKS6_ISt4pairIddESaISI_EEbSM_y@Base 3.2.1
 _ZNK8casacore25ClassicalQuantileComputerIdPKfPKbS2_E15_populateArraysERSt6vectorIS6_IdSaIdEESaIS8_EERyRKS2_SE_yjRKS4_jRKS6_ISt4pairIddESaISI_EEy@Base 3.2.1
 _ZNK8casacore25ClassicalQuantileComputerIdPKfPKbS2_E15_populateArraysERSt6vectorIS6_IdSaIdEESaIS8_EERyRKS2_SE_yjRKS6_ISt4pairIddESaISG_EEbSK_y@Base 3.2.1
 _ZNK8casacore25ClassicalQuantileComputerIdPKfPKbS2_E15_populateArraysERSt6vectorIS6_IdSaIdEESaIS8_EERyRKS2_SE_yjRKS6_ISt4pairIddESaISG_EEy@Base 3.2.1
 _ZNK8casacore25ClassicalQuantileComputerIdPKfPKbS2_E15_populateArraysERSt6vectorIS6_IdSaIdEESaIS8_EERyRKS2_yjRKS4_jRKS6_ISt4pairIddESaISI_EEbSM_y@Base 3.2.1
 _ZNK8casacore25ClassicalQuantileComputerIdPKfPKbS2_E15_populateArraysERSt6vectorIS6_IdSaIdEESaIS8_EERyRKS2_yjRKS4_jRKS6_ISt4pairIddESaISI_EEy@Base 3.2.1
 _ZNK8casacore25ClassicalQuantileComputerIdPKfPKbS2_E15_populateArraysERSt6vectorIS6_IdSaIdEESaIS8_EERyRKS2_yjRKS6_ISt4pairIddESaISG_EEbSK_y@Base 3.2.1
 _ZNK8casacore25ClassicalQuantileComputerIdPKfPKbS2_E15_populateArraysERSt6vectorIS6_IdSaIdEESaIS8_EERyRKS2_yjRKS6_ISt4pairIddESaISG_EEy@Base 3.2.1
 _ZNK8casacore25ClassicalQuantileComputerIdPKfPKbS2_E18_populateTestArrayERSt6vectorIdSaIdEERKS2_SB_yjRKS4_jRKS6_ISt4pairIddESaISF_EEbj@Base 3.2.1
 _ZNK8casacore25ClassicalQuantileComputerIdPKfPKbS2_E18_populateTestArrayERSt6vectorIdSaIdEERKS2_SB_yjRKS4_jj@Base 3.2.1
 _ZNK8casacore25ClassicalQuantileComputerIdPKfPKbS2_E18_populateTestArrayERSt6vectorIdSaIdEERKS2_SB_yjRKS6_ISt4pairIddESaISD_EEbj@Base 3.2.1
 _ZNK8casacore25ClassicalQuantileComputerIdPKfPKbS2_E18_populateTestArrayERSt6vectorIdSaIdEERKS2_SB_yjj@Base 3.2.1
 _ZNK8casacore25ClassicalQuantileComputerIdPKfPKbS2_E18_populateTestArrayERSt6vectorIdSaIdEERKS2_yjRKS4_jRKS6_ISt4pairIddESaISF_EEbj@Base 3.2.1
 _ZNK8casacore25ClassicalQuantileComputerIdPKfPKbS2_E18_populateTestArrayERSt6vectorIdSaIdEERKS2_yjRKS4_jj@Base 3.2.1
 _ZNK8casacore25ClassicalQuantileComputerIdPKfPKbS2_E18_populateTestArrayERSt6vectorIdSaIdEERKS2_yjRKS6_ISt4pairIddESaISD_EEbj@Base 3.2.1
 _ZNK8casacore25ClassicalQuantileComputerIdPKfPKbS2_E18_populateTestArrayERSt6vectorIdSaIdEERKS2_yjj@Base 3.2.1
 _ZNK8casacore25ClassicalQuantileComputerIdPKfPKbS2_E5cloneEv@Base 3.2.1
 _ZNK8casacore25ClassicalQuantileComputerIdPKfPKbS2_E9_findBinsERSt6vectorIS6_IySaIyEESaIS8_EERS6_INS_10CountedPtrIdEESaISD_EERS6_IbSaIbEERKS2_SL_yjRKS4_jRKS6_INS_14StatsHistogramIdEESaISP_EERKS6_IdSaIdEE@Base 3.2.1
 _ZNK8casacore25ClassicalQuantileComputerIdPKfPKbS2_E9_findBinsERSt6vectorIS6_IySaIyEESaIS8_EERS6_INS_10CountedPtrIdEESaISD_EERS6_IbSaIbEERKS2_SL_yjRKS4_jRKS6_ISt4pairIddESaISP_EEbRKS6_INS_14StatsHistogramIdEESaISV_EERKS6_IdSaIdEE@Base 3.2.1
 _ZNK8casacore25ClassicalQuantileComputerIdPKfPKbS2_E9_findBinsERSt6vectorIS6_IySaIyEESaIS8_EERS6_INS_10CountedPtrIdEESaISD_EERS6_IbSaIbEERKS2_SL_yjRKS6_INS_14StatsHistogramIdEESaISN_EERKS6_IdSaIdEE@Base 3.2.1
 _ZNK8casacore25ClassicalQuantileComputerIdPKfPKbS2_E9_findBinsERSt6vectorIS6_IySaIyEESaIS8_EERS6_INS_10CountedPtrIdEESaISD_EERS6_IbSaIbEERKS2_SL_yjRKS6_ISt4pairIddESaISN_EEbRKS6_INS_14StatsHistogramIdEESaIST_EERKS6_IdSaIdEE@Base 3.2.1
 _ZNK8casacore25ClassicalQuantileComputerIdPKfPKbS2_E9_findBinsERSt6vectorIS6_IySaIyEESaIS8_EERS6_INS_10CountedPtrIdEESaISD_EERS6_IbSaIbEERKS2_yjRKS4_jRKS6_INS_14StatsHistogramIdEESaISP_EERKS6_IdSaIdEE@Base 3.2.1
 _ZNK8casacore25ClassicalQuantileComputerIdPKfPKbS2_E9_findBinsERSt6vectorIS6_IySaIyEESaIS8_EERS6_INS_10CountedPtrIdEESaISD_EERS6_IbSaIbEERKS2_yjRKS4_jRKS6_ISt4pairIddESaISP_EEbRKS6_INS_14StatsHistogramIdEESaISV_EERKS6_IdSaIdEE@Base 3.2.1
 _ZNK8casacore25ClassicalQuantileComputerIdPKfPKbS2_E9_findBinsERSt6vectorIS6_IySaIyEESaIS8_EERS6_INS_10CountedPtrIdEESaISD_EERS6_IbSaIbEERKS2_yjRKS6_INS_14StatsHistogramIdEESaISN_EERKS6_IdSaIdEE@Base 3.2.1
 _ZNK8casacore25ClassicalQuantileComputerIdPKfPKbS2_E9_findBinsERSt6vectorIS6_IySaIyEESaIS8_EERS6_INS_10CountedPtrIdEESaISD_EERS6_IbSaIbEERKS2_yjRKS6_ISt4pairIddESaISN_EEbRKS6_INS_14StatsHistogramIdEESaIST_EERKS6_IdSaIdEE@Base 3.2.1
 _ZNK8casacore26ConstrainedRangeStatisticsIdNS_5ArrayIfE16ConstIteratorSTLENS1_IbE16ConstIteratorSTLES3_E10_accumNptsERyRKS3_S9_yj@Base 3.2.1
 _ZNK8casacore26ConstrainedRangeStatisticsIdNS_5ArrayIfE16ConstIteratorSTLENS1_IbE16ConstIteratorSTLES3_E10_accumNptsERyRKS3_S9_yjRKS5_j@Base 3.2.1
 _ZNK8casacore26ConstrainedRangeStatisticsIdNS_5ArrayIfE16ConstIteratorSTLENS1_IbE16ConstIteratorSTLES3_E10_accumNptsERyRKS3_S9_yjRKS5_jRKSt6vectorISt4pairIddESaISE_EEb@Base 3.2.1
 _ZNK8casacore26ConstrainedRangeStatisticsIdNS_5ArrayIfE16ConstIteratorSTLENS1_IbE16ConstIteratorSTLES3_E10_accumNptsERyRKS3_S9_yjRKSt6vectorISt4pairIddESaISC_EEb@Base 3.2.1
 _ZNK8casacore26ConstrainedRangeStatisticsIdNS_5ArrayIfE16ConstIteratorSTLENS1_IbE16ConstIteratorSTLES3_E10_accumNptsERyRKS3_yj@Base 3.2.1
 _ZNK8casacore26ConstrainedRangeStatisticsIdNS_5ArrayIfE16ConstIteratorSTLENS1_IbE16ConstIteratorSTLES3_E10_accumNptsERyRKS3_yjRKS5_j@Base 3.2.1
 _ZNK8casacore26ConstrainedRangeStatisticsIdNS_5ArrayIfE16ConstIteratorSTLENS1_IbE16ConstIteratorSTLES3_E10_accumNptsERyRKS3_yjRKS5_jRKSt6vectorISt4pairIddESaISE_EEb@Base 3.2.1
 _ZNK8casacore26ConstrainedRangeStatisticsIdNS_5ArrayIfE16ConstIteratorSTLENS1_IbE16ConstIteratorSTLES3_E10_accumNptsERyRKS3_yjRKSt6vectorISt4pairIddESaISC_EEb@Base 3.2.1
 _ZNK8casacore26ConstrainedRangeStatisticsIdNS_5ArrayIfE16ConstIteratorSTLENS1_IbE16ConstIteratorSTLES3_E11_minMaxNptsERyRNS_10CountedPtrIdEESA_RKS3_SC_yj@Base 3.2.1
 _ZNK8casacore26ConstrainedRangeStatisticsIdNS_5ArrayIfE16ConstIteratorSTLENS1_IbE16ConstIteratorSTLES3_E11_minMaxNptsERyRNS_10CountedPtrIdEESA_RKS3_SC_yjRKS5_j@Base 3.2.1
 _ZNK8casacore26ConstrainedRangeStatisticsIdNS_5ArrayIfE16ConstIteratorSTLENS1_IbE16ConstIteratorSTLES3_E11_minMaxNptsERyRNS_10CountedPtrIdEESA_RKS3_SC_yjRKS5_jRKSt6vectorISt4pairIddESaISH_EEb@Base 3.2.1
 _ZNK8casacore26ConstrainedRangeStatisticsIdNS_5ArrayIfE16ConstIteratorSTLENS1_IbE16ConstIteratorSTLES3_E11_minMaxNptsERyRNS_10CountedPtrIdEESA_RKS3_SC_yjRKSt6vectorISt4pairIddESaISF_EEb@Base 3.2.1
 _ZNK8casacore26ConstrainedRangeStatisticsIdNS_5ArrayIfE16ConstIteratorSTLENS1_IbE16ConstIteratorSTLES3_E11_minMaxNptsERyRNS_10CountedPtrIdEESA_RKS3_yj@Base 3.2.1
 _ZNK8casacore26ConstrainedRangeStatisticsIdNS_5ArrayIfE16ConstIteratorSTLENS1_IbE16ConstIteratorSTLES3_E11_minMaxNptsERyRNS_10CountedPtrIdEESA_RKS3_yjRKS5_j@Base 3.2.1
 _ZNK8casacore26ConstrainedRangeStatisticsIdNS_5ArrayIfE16ConstIteratorSTLENS1_IbE16ConstIteratorSTLES3_E11_minMaxNptsERyRNS_10CountedPtrIdEESA_RKS3_yjRKS5_jRKSt6vectorISt4pairIddESaISH_EEb@Base 3.2.1
 _ZNK8casacore26ConstrainedRangeStatisticsIdNS_5ArrayIfE16ConstIteratorSTLENS1_IbE16ConstIteratorSTLES3_E11_minMaxNptsERyRNS_10CountedPtrIdEESA_RKS3_yjRKSt6vectorISt4pairIddESaISF_EEb@Base 3.2.1
 _ZNK8casacore26ConstrainedRangeStatisticsIdNS_5ArrayIfE16ConstIteratorSTLENS1_IbE16ConstIteratorSTLES3_E7_minMaxERNS_10CountedPtrIdEES9_RKS3_SB_yj@Base 3.2.1
 _ZNK8casacore26ConstrainedRangeStatisticsIdNS_5ArrayIfE16ConstIteratorSTLENS1_IbE16ConstIteratorSTLES3_E7_minMaxERNS_10CountedPtrIdEES9_RKS3_SB_yjRKS5_j@Base 3.2.1
 _ZNK8casacore26ConstrainedRangeStatisticsIdNS_5ArrayIfE16ConstIteratorSTLENS1_IbE16ConstIteratorSTLES3_E7_minMaxERNS_10CountedPtrIdEES9_RKS3_SB_yjRKS5_jRKSt6vectorISt4pairIddESaISG_EEb@Base 3.2.1
 _ZNK8casacore26ConstrainedRangeStatisticsIdNS_5ArrayIfE16ConstIteratorSTLENS1_IbE16ConstIteratorSTLES3_E7_minMaxERNS_10CountedPtrIdEES9_RKS3_SB_yjRKSt6vectorISt4pairIddESaISE_EEb@Base 3.2.1
 _ZNK8casacore26ConstrainedRangeStatisticsIdNS_5ArrayIfE16ConstIteratorSTLENS1_IbE16ConstIteratorSTLES3_E7_minMaxERNS_10CountedPtrIdEES9_RKS3_yj@Base 3.2.1
 _ZNK8casacore26ConstrainedRangeStatisticsIdNS_5ArrayIfE16ConstIteratorSTLENS1_IbE16ConstIteratorSTLES3_E7_minMaxERNS_10CountedPtrIdEES9_RKS3_yjRKS5_j@Base 3.2.1
 _ZNK8casacore26ConstrainedRangeStatisticsIdNS_5ArrayIfE16ConstIteratorSTLENS1_IbE16ConstIteratorSTLES3_E7_minMaxERNS_10CountedPtrIdEES9_RKS3_yjRKS5_jRKSt6vectorISt4pairIddESaISG_EEb@Base 3.2.1
 _ZNK8casacore26ConstrainedRangeStatisticsIdNS_5ArrayIfE16ConstIteratorSTLENS1_IbE16ConstIteratorSTLES3_E7_minMaxERNS_10CountedPtrIdEES9_RKS3_yjRKSt6vectorISt4pairIddESaISE_EEb@Base 3.2.1
 _ZNK8casacore26ConstrainedRangeStatisticsIdPKfPKbS2_E10_accumNptsERyRKS2_S8_yj@Base 3.2.1
 _ZNK8casacore26ConstrainedRangeStatisticsIdPKfPKbS2_E10_accumNptsERyRKS2_S8_yjRKS4_j@Base 3.2.1
 _ZNK8casacore26ConstrainedRangeStatisticsIdPKfPKbS2_E10_accumNptsERyRKS2_S8_yjRKS4_jRKSt6vectorISt4pairIddESaISD_EEb@Base 3.2.1
 _ZNK8casacore26ConstrainedRangeStatisticsIdPKfPKbS2_E10_accumNptsERyRKS2_S8_yjRKSt6vectorISt4pairIddESaISB_EEb@Base 3.2.1
 _ZNK8casacore26ConstrainedRangeStatisticsIdPKfPKbS2_E10_accumNptsERyRKS2_yj@Base 3.2.1
 _ZNK8casacore26ConstrainedRangeStatisticsIdPKfPKbS2_E10_accumNptsERyRKS2_yjRKS4_j@Base 3.2.1
 _ZNK8casacore26ConstrainedRangeStatisticsIdPKfPKbS2_E10_accumNptsERyRKS2_yjRKS4_jRKSt6vectorISt4pairIddESaISD_EEb@Base 3.2.1
 _ZNK8casacore26ConstrainedRangeStatisticsIdPKfPKbS2_E10_accumNptsERyRKS2_yjRKSt6vectorISt4pairIddESaISB_EEb@Base 3.2.1
 _ZNK8casacore26ConstrainedRangeStatisticsIdPKfPKbS2_E11_minMaxNptsERyRNS_10CountedPtrIdEES9_RKS2_SB_yj@Base 3.2.1
 _ZNK8casacore26ConstrainedRangeStatisticsIdPKfPKbS2_E11_minMaxNptsERyRNS_10CountedPtrIdEES9_RKS2_SB_yjRKS4_j@Base 3.2.1
 _ZNK8casacore26ConstrainedRangeStatisticsIdPKfPKbS2_E11_minMaxNptsERyRNS_10CountedPtrIdEES9_RKS2_SB_yjRKS4_jRKSt6vectorISt4pairIddESaISG_EEb@Base 3.2.1
 _ZNK8casacore26ConstrainedRangeStatisticsIdPKfPKbS2_E11_minMaxNptsERyRNS_10CountedPtrIdEES9_RKS2_SB_yjRKSt6vectorISt4pairIddESaISE_EEb@Base 3.2.1
 _ZNK8casacore26ConstrainedRangeStatisticsIdPKfPKbS2_E11_minMaxNptsERyRNS_10CountedPtrIdEES9_RKS2_yj@Base 3.2.1
 _ZNK8casacore26ConstrainedRangeStatisticsIdPKfPKbS2_E11_minMaxNptsERyRNS_10CountedPtrIdEES9_RKS2_yjRKS4_j@Base 3.2.1
 _ZNK8casacore26ConstrainedRangeStatisticsIdPKfPKbS2_E11_minMaxNptsERyRNS_10CountedPtrIdEES9_RKS2_yjRKS4_jRKSt6vectorISt4pairIddESaISG_EEb@Base 3.2.1
 _ZNK8casacore26ConstrainedRangeStatisticsIdPKfPKbS2_E11_minMaxNptsERyRNS_10CountedPtrIdEES9_RKS2_yjRKSt6vectorISt4pairIddESaISE_EEb@Base 3.2.1
 _ZNK8casacore26ConstrainedRangeStatisticsIdPKfPKbS2_E7_minMaxERNS_10CountedPtrIdEES8_RKS2_SA_yj@Base 3.2.1
 _ZNK8casacore26ConstrainedRangeStatisticsIdPKfPKbS2_E7_minMaxERNS_10CountedPtrIdEES8_RKS2_SA_yjRKS4_j@Base 3.2.1
 _ZNK8casacore26ConstrainedRangeStatisticsIdPKfPKbS2_E7_minMaxERNS_10CountedPtrIdEES8_RKS2_SA_yjRKS4_jRKSt6vectorISt4pairIddESaISF_EEb@Base 3.2.1
 _ZNK8casacore26ConstrainedRangeStatisticsIdPKfPKbS2_E7_minMaxERNS_10CountedPtrIdEES8_RKS2_SA_yjRKSt6vectorISt4pairIddESaISD_EEb@Base 3.2.1
 _ZNK8casacore26ConstrainedRangeStatisticsIdPKfPKbS2_E7_minMaxERNS_10CountedPtrIdEES8_RKS2_yj@Base 3.2.1
 _ZNK8casacore26ConstrainedRangeStatisticsIdPKfPKbS2_E7_minMaxERNS_10CountedPtrIdEES8_RKS2_yjRKS4_j@Base 3.2.1
 _ZNK8casacore26ConstrainedRangeStatisticsIdPKfPKbS2_E7_minMaxERNS_10CountedPtrIdEES8_RKS2_yjRKS4_jRKSt6vectorISt4pairIddESaISF_EEb@Base 3.2.1
 _ZNK8casacore26ConstrainedRangeStatisticsIdPKfPKbS2_E7_minMaxERNS_10CountedPtrIdEES8_RKS2_yjRKSt6vectorISt4pairIddESaISD_EEb@Base 3.2.1
 _ZNK8casacore26StatisticsAlgorithmFactoryIdNS_5ArrayIfE16ConstIteratorSTLENS1_IbE16ConstIteratorSTLES3_E20createStatsAlgorithmEv@Base 3.2.1
 _ZNK8casacore26StatisticsAlgorithmFactoryIdPKfPKbS2_E20createStatsAlgorithmEv@Base 3.2.1
 _ZNK8casacore28ChauvenetCriterionStatisticsIdNS_5ArrayIfE16ConstIteratorSTLENS1_IbE16ConstIteratorSTLES3_E5cloneEv@Base 3.2.1
 _ZNK8casacore28ChauvenetCriterionStatisticsIdNS_5ArrayIfE16ConstIteratorSTLENS1_IbE16ConstIteratorSTLES3_E9algorithmEv@Base 3.2.1
 _ZNK8casacore28ChauvenetCriterionStatisticsIdPKfPKbS2_E5cloneEv@Base 3.2.1
 _ZNK8casacore28ChauvenetCriterionStatisticsIdPKfPKbS2_E9algorithmEv@Base 3.2.1
 _ZNK8casacore28HingesFencesQuantileComputerIdNS_5ArrayIfE16ConstIteratorSTLENS1_IbE16ConstIteratorSTLES3_E14_populateArrayERSt6vectorIdSaIdEERKS3_SC_yj@Base 3.2.1
 _ZNK8casacore28HingesFencesQuantileComputerIdNS_5ArrayIfE16ConstIteratorSTLENS1_IbE16ConstIteratorSTLES3_E14_populateArrayERSt6vectorIdSaIdEERKS3_SC_yjRKS5_j@Base 3.2.1
 _ZNK8casacore28HingesFencesQuantileComputerIdNS_5ArrayIfE16ConstIteratorSTLENS1_IbE16ConstIteratorSTLES3_E14_populateArrayERSt6vectorIdSaIdEERKS3_SC_yjRKS5_jRKS7_ISt4pairIddESaISG_EEb@Base 3.2.1
 _ZNK8casacore28HingesFencesQuantileComputerIdNS_5ArrayIfE16ConstIteratorSTLENS1_IbE16ConstIteratorSTLES3_E14_populateArrayERSt6vectorIdSaIdEERKS3_SC_yjRKS7_ISt4pairIddESaISE_EEb@Base 3.2.1
 _ZNK8casacore28HingesFencesQuantileComputerIdNS_5ArrayIfE16ConstIteratorSTLENS1_IbE16ConstIteratorSTLES3_E14_populateArrayERSt6vectorIdSaIdEERKS3_yj@Base 3.2.1
 _ZNK8casacore28HingesFencesQuantileComputerIdNS_5ArrayIfE16ConstIteratorSTLENS1_IbE16ConstIteratorSTLES3_E14_populateArrayERSt6vectorIdSaIdEERKS3_yjRKS5_j@Base 3.2.1
 _ZNK8casacore28HingesFencesQuantileComputerIdNS_5ArrayIfE16ConstIteratorSTLENS1_IbE16ConstIteratorSTLES3_E14_populateArrayERSt6vectorIdSaIdEERKS3_yjRKS5_jRKS7_ISt4pairIddESaISG_EEb@Base 3.2.1
 _ZNK8casacore28HingesFencesQuantileComputerIdNS_5ArrayIfE16ConstIteratorSTLENS1_IbE16ConstIteratorSTLES3_E14_populateArrayERSt6vectorIdSaIdEERKS3_yjRKS7_ISt4pairIddESaISE_EEb@Base 3.2.1
 _ZNK8casacore28HingesFencesQuantileComputerIdNS_5ArrayIfE16ConstIteratorSTLENS1_IbE16ConstIteratorSTLES3_E15_populateArraysERSt6vectorIS7_IdSaIdEESaIS9_EERyRKS3_SF_yjRKS5_jRKS7_ISt4pairIddESaISJ_EEbSN_y@Base 3.2.1
 _ZNK8casacore28HingesFencesQuantileComputerIdNS_5ArrayIfE16ConstIteratorSTLENS1_IbE16ConstIteratorSTLES3_E15_populateArraysERSt6vectorIS7_IdSaIdEESaIS9_EERyRKS3_SF_yjRKS5_jRKS7_ISt4pairIddESaISJ_EEy@Base 3.2.1
 _ZNK8casacore28HingesFencesQuantileComputerIdNS_5ArrayIfE16ConstIteratorSTLENS1_IbE16ConstIteratorSTLES3_E15_populateArraysERSt6vectorIS7_IdSaIdEESaIS9_EERyRKS3_SF_yjRKS7_ISt4pairIddESaISH_EEbSL_y@Base 3.2.1
 _ZNK8casacore28HingesFencesQuantileComputerIdNS_5ArrayIfE16ConstIteratorSTLENS1_IbE16ConstIteratorSTLES3_E15_populateArraysERSt6vectorIS7_IdSaIdEESaIS9_EERyRKS3_SF_yjRKS7_ISt4pairIddESaISH_EEy@Base 3.2.1
 _ZNK8casacore28HingesFencesQuantileComputerIdNS_5ArrayIfE16ConstIteratorSTLENS1_IbE16ConstIteratorSTLES3_E15_populateArraysERSt6vectorIS7_IdSaIdEESaIS9_EERyRKS3_yjRKS5_jRKS7_ISt4pairIddESaISJ_EEbSN_y@Base 3.2.1
 _ZNK8casacore28HingesFencesQuantileComputerIdNS_5ArrayIfE16ConstIteratorSTLENS1_IbE16ConstIteratorSTLES3_E15_populateArraysERSt6vectorIS7_IdSaIdEESaIS9_EERyRKS3_yjRKS5_jRKS7_ISt4pairIddESaISJ_EEy@Base 3.2.1
 _ZNK8casacore28HingesFencesQuantileComputerIdNS_5ArrayIfE16ConstIteratorSTLENS1_IbE16ConstIteratorSTLES3_E15_populateArraysERSt6vectorIS7_IdSaIdEESaIS9_EERyRKS3_yjRKS7_ISt4pairIddESaISH_EEbSL_y@Base 3.2.1
 _ZNK8casacore28HingesFencesQuantileComputerIdNS_5ArrayIfE16ConstIteratorSTLENS1_IbE16ConstIteratorSTLES3_E15_populateArraysERSt6vectorIS7_IdSaIdEESaIS9_EERyRKS3_yjRKS7_ISt4pairIddESaISH_EEy@Base 3.2.1
 _ZNK8casacore28HingesFencesQuantileComputerIdNS_5ArrayIfE16ConstIteratorSTLENS1_IbE16ConstIteratorSTLES3_E18_populateTestArrayERSt6vectorIdSaIdEERKS3_SC_yjRKS5_jRKS7_ISt4pairIddESaISG_EEbj@Base 3.2.1
 _ZNK8casacore28HingesFencesQuantileComputerIdNS_5ArrayIfE16ConstIteratorSTLENS1_IbE16ConstIteratorSTLES3_E18_populateTestArrayERSt6vectorIdSaIdEERKS3_SC_yjRKS5_jj@Base 3.2.1
 _ZNK8casacore28HingesFencesQuantileComputerIdNS_5ArrayIfE16ConstIteratorSTLENS1_IbE16ConstIteratorSTLES3_E18_populateTestArrayERSt6vectorIdSaIdEERKS3_SC_yjRKS7_ISt4pairIddESaISE_EEbj@Base 3.2.1
 _ZNK8casacore28HingesFencesQuantileComputerIdNS_5ArrayIfE16ConstIteratorSTLENS1_IbE16ConstIteratorSTLES3_E18_populateTestArrayERSt6vectorIdSaIdEERKS3_SC_yjj@Base 3.2.1
 _ZNK8casacore28HingesFencesQuantileComputerIdNS_5ArrayIfE16ConstIteratorSTLENS1_IbE16ConstIteratorSTLES3_E18_populateTestArrayERSt6vectorIdSaIdEERKS3_yjRKS5_jRKS7_ISt4pairIddESaISG_EEbj@Base 3.2.1
 _ZNK8casacore28HingesFencesQuantileComputerIdNS_5ArrayIfE16ConstIteratorSTLENS1_IbE16ConstIteratorSTLES3_E18_populateTestArrayERSt6vectorIdSaIdEERKS3_yjRKS5_jj@Base 3.2.1
 _ZNK8casacore28HingesFencesQuantileComputerIdNS_5ArrayIfE16ConstIteratorSTLENS1_IbE16ConstIteratorSTLES3_E18_populateTestArrayERSt6vectorIdSaIdEERKS3_yjRKS7_ISt4pairIddESaISE_EEbj@Base 3.2.1
 _ZNK8casacore28HingesFencesQuantileComputerIdNS_5ArrayIfE16ConstIteratorSTLENS1_IbE16ConstIteratorSTLES3_E18_populateTestArrayERSt6vectorIdSaIdEERKS3_yjj@Base 3.2.1
 _ZNK8casacore28HingesFencesQuantileComputerIdNS_5ArrayIfE16ConstIteratorSTLENS1_IbE16ConstIteratorSTLES3_E5cloneEv@Base 3.2.1
 _ZNK8casacore28HingesFencesQuantileComputerIdNS_5ArrayIfE16ConstIteratorSTLENS1_IbE16ConstIteratorSTLES3_E9_findBinsERSt6vectorIS7_IySaIyEESaIS9_EERS7_INS_10CountedPtrIdEESaISE_EERS7_IbSaIbEERKS3_SM_yjRKS5_jRKS7_INS_14StatsHistogramIdEESaISQ_EERKS7_IdSaIdEE@Base 3.2.1
 _ZNK8casacore28HingesFencesQuantileComputerIdNS_5ArrayIfE16ConstIteratorSTLENS1_IbE16ConstIteratorSTLES3_E9_findBinsERSt6vectorIS7_IySaIyEESaIS9_EERS7_INS_10CountedPtrIdEESaISE_EERS7_IbSaIbEERKS3_SM_yjRKS5_jRKS7_ISt4pairIddESaISQ_EEbRKS7_INS_14StatsHistogramIdEESaISW_EERKS7_IdSaIdEE@Base 3.2.1
 _ZNK8casacore28HingesFencesQuantileComputerIdNS_5ArrayIfE16ConstIteratorSTLENS1_IbE16ConstIteratorSTLES3_E9_findBinsERSt6vectorIS7_IySaIyEESaIS9_EERS7_INS_10CountedPtrIdEESaISE_EERS7_IbSaIbEERKS3_SM_yjRKS7_INS_14StatsHistogramIdEESaISO_EERKS7_IdSaIdEE@Base 3.2.1
 _ZNK8casacore28HingesFencesQuantileComputerIdNS_5ArrayIfE16ConstIteratorSTLENS1_IbE16ConstIteratorSTLES3_E9_findBinsERSt6vectorIS7_IySaIyEESaIS9_EERS7_INS_10CountedPtrIdEESaISE_EERS7_IbSaIbEERKS3_SM_yjRKS7_ISt4pairIddESaISO_EEbRKS7_INS_14StatsHistogramIdEESaISU_EERKS7_IdSaIdEE@Base 3.2.1
 _ZNK8casacore28HingesFencesQuantileComputerIdNS_5ArrayIfE16ConstIteratorSTLENS1_IbE16ConstIteratorSTLES3_E9_findBinsERSt6vectorIS7_IySaIyEESaIS9_EERS7_INS_10CountedPtrIdEESaISE_EERS7_IbSaIbEERKS3_yjRKS5_jRKS7_INS_14StatsHistogramIdEESaISQ_EERKS7_IdSaIdEE@Base 3.2.1
 _ZNK8casacore28HingesFencesQuantileComputerIdNS_5ArrayIfE16ConstIteratorSTLENS1_IbE16ConstIteratorSTLES3_E9_findBinsERSt6vectorIS7_IySaIyEESaIS9_EERS7_INS_10CountedPtrIdEESaISE_EERS7_IbSaIbEERKS3_yjRKS5_jRKS7_ISt4pairIddESaISQ_EEbRKS7_INS_14StatsHistogramIdEESaISW_EERKS7_IdSaIdEE@Base 3.2.1
 _ZNK8casacore28HingesFencesQuantileComputerIdNS_5ArrayIfE16ConstIteratorSTLENS1_IbE16ConstIteratorSTLES3_E9_findBinsERSt6vectorIS7_IySaIyEESaIS9_EERS7_INS_10CountedPtrIdEESaISE_EERS7_IbSaIbEERKS3_yjRKS7_INS_14StatsHistogramIdEESaISO_EERKS7_IdSaIdEE@Base 3.2.1
 _ZNK8casacore28HingesFencesQuantileComputerIdNS_5ArrayIfE16ConstIteratorSTLENS1_IbE16ConstIteratorSTLES3_E9_findBinsERSt6vectorIS7_IySaIyEESaIS9_EERS7_INS_10CountedPtrIdEESaISE_EERS7_IbSaIbEERKS3_yjRKS7_ISt4pairIddESaISO_EEbRKS7_INS_14StatsHistogramIdEESaISU_EERKS7_IdSaIdEE@Base 3.2.1
 _ZNK8casacore28HingesFencesQuantileComputerIdPKfPKbS2_E14_populateArrayERSt6vectorIdSaIdEERKS2_SB_yj@Base 3.2.1
 _ZNK8casacore28HingesFencesQuantileComputerIdPKfPKbS2_E14_populateArrayERSt6vectorIdSaIdEERKS2_SB_yjRKS4_j@Base 3.2.1
 _ZNK8casacore28HingesFencesQuantileComputerIdPKfPKbS2_E14_populateArrayERSt6vectorIdSaIdEERKS2_SB_yjRKS4_jRKS6_ISt4pairIddESaISF_EEb@Base 3.2.1
 _ZNK8casacore28HingesFencesQuantileComputerIdPKfPKbS2_E14_populateArrayERSt6vectorIdSaIdEERKS2_SB_yjRKS6_ISt4pairIddESaISD_EEb@Base 3.2.1
 _ZNK8casacore28HingesFencesQuantileComputerIdPKfPKbS2_E14_populateArrayERSt6vectorIdSaIdEERKS2_yj@Base 3.2.1
 _ZNK8casacore28HingesFencesQuantileComputerIdPKfPKbS2_E14_populateArrayERSt6vectorIdSaIdEERKS2_yjRKS4_j@Base 3.2.1
 _ZNK8casacore28HingesFencesQuantileComputerIdPKfPKbS2_E14_populateArrayERSt6vectorIdSaIdEERKS2_yjRKS4_jRKS6_ISt4pairIddESaISF_EEb@Base 3.2.1
 _ZNK8casacore28HingesFencesQuantileComputerIdPKfPKbS2_E14_populateArrayERSt6vectorIdSaIdEERKS2_yjRKS6_ISt4pairIddESaISD_EEb@Base 3.2.1
 _ZNK8casacore28HingesFencesQuantileComputerIdPKfPKbS2_E15_populateArraysERSt6vectorIS6_IdSaIdEESaIS8_EERyRKS2_SE_yjRKS4_jRKS6_ISt4pairIddESaISI_EEbSM_y@Base 3.2.1
 _ZNK8casacore28HingesFencesQuantileComputerIdPKfPKbS2_E15_populateArraysERSt6vectorIS6_IdSaIdEESaIS8_EERyRKS2_SE_yjRKS4_jRKS6_ISt4pairIddESaISI_EEy@Base 3.2.1
 _ZNK8casacore28HingesFencesQuantileComputerIdPKfPKbS2_E15_populateArraysERSt6vectorIS6_IdSaIdEESaIS8_EERyRKS2_SE_yjRKS6_ISt4pairIddESaISG_EEbSK_y@Base 3.2.1
 _ZNK8casacore28HingesFencesQuantileComputerIdPKfPKbS2_E15_populateArraysERSt6vectorIS6_IdSaIdEESaIS8_EERyRKS2_SE_yjRKS6_ISt4pairIddESaISG_EEy@Base 3.2.1
 _ZNK8casacore28HingesFencesQuantileComputerIdPKfPKbS2_E15_populateArraysERSt6vectorIS6_IdSaIdEESaIS8_EERyRKS2_yjRKS4_jRKS6_ISt4pairIddESaISI_EEbSM_y@Base 3.2.1
 _ZNK8casacore28HingesFencesQuantileComputerIdPKfPKbS2_E15_populateArraysERSt6vectorIS6_IdSaIdEESaIS8_EERyRKS2_yjRKS4_jRKS6_ISt4pairIddESaISI_EEy@Base 3.2.1
 _ZNK8casacore28HingesFencesQuantileComputerIdPKfPKbS2_E15_populateArraysERSt6vectorIS6_IdSaIdEESaIS8_EERyRKS2_yjRKS6_ISt4pairIddESaISG_EEbSK_y@Base 3.2.1
 _ZNK8casacore28HingesFencesQuantileComputerIdPKfPKbS2_E15_populateArraysERSt6vectorIS6_IdSaIdEESaIS8_EERyRKS2_yjRKS6_ISt4pairIddESaISG_EEy@Base 3.2.1
 _ZNK8casacore28HingesFencesQuantileComputerIdPKfPKbS2_E18_populateTestArrayERSt6vectorIdSaIdEERKS2_SB_yjRKS4_jRKS6_ISt4pairIddESaISF_EEbj@Base 3.2.1
 _ZNK8casacore28HingesFencesQuantileComputerIdPKfPKbS2_E18_populateTestArrayERSt6vectorIdSaIdEERKS2_SB_yjRKS4_jj@Base 3.2.1
 _ZNK8casacore28HingesFencesQuantileComputerIdPKfPKbS2_E18_populateTestArrayERSt6vectorIdSaIdEERKS2_SB_yjRKS6_ISt4pairIddESaISD_EEbj@Base 3.2.1
 _ZNK8casacore28HingesFencesQuantileComputerIdPKfPKbS2_E18_populateTestArrayERSt6vectorIdSaIdEERKS2_SB_yjj@Base 3.2.1
 _ZNK8casacore28HingesFencesQuantileComputerIdPKfPKbS2_E18_populateTestArrayERSt6vectorIdSaIdEERKS2_yjRKS4_jRKS6_ISt4pairIddESaISF_EEbj@Base 3.2.1
 _ZNK8casacore28HingesFencesQuantileComputerIdPKfPKbS2_E18_populateTestArrayERSt6vectorIdSaIdEERKS2_yjRKS4_jj@Base 3.2.1
 _ZNK8casacore28HingesFencesQuantileComputerIdPKfPKbS2_E18_populateTestArrayERSt6vectorIdSaIdEERKS2_yjRKS6_ISt4pairIddESaISD_EEbj@Base 3.2.1
 _ZNK8casacore28HingesFencesQuantileComputerIdPKfPKbS2_E18_populateTestArrayERSt6vectorIdSaIdEERKS2_yjj@Base 3.2.1
 _ZNK8casacore28HingesFencesQuantileComputerIdPKfPKbS2_E5cloneEv@Base 3.2.1
 _ZNK8casacore28HingesFencesQuantileComputerIdPKfPKbS2_E9_findBinsERSt6vectorIS6_IySaIyEESaIS8_EERS6_INS_10CountedPtrIdEESaISD_EERS6_IbSaIbEERKS2_SL_yjRKS4_jRKS6_INS_14StatsHistogramIdEESaISP_EERKS6_IdSaIdEE@Base 3.2.1
 _ZNK8casacore28HingesFencesQuantileComputerIdPKfPKbS2_E9_findBinsERSt6vectorIS6_IySaIyEESaIS8_EERS6_INS_10CountedPtrIdEESaISD_EERS6_IbSaIbEERKS2_SL_yjRKS4_jRKS6_ISt4pairIddESaISP_EEbRKS6_INS_14StatsHistogramIdEESaISV_EERKS6_IdSaIdEE@Base 3.2.1
 _ZNK8casacore28HingesFencesQuantileComputerIdPKfPKbS2_E9_findBinsERSt6vectorIS6_IySaIyEESaIS8_EERS6_INS_10CountedPtrIdEESaISD_EERS6_IbSaIbEERKS2_SL_yjRKS6_INS_14StatsHistogramIdEESaISN_EERKS6_IdSaIdEE@Base 3.2.1
 _ZNK8casacore28HingesFencesQuantileComputerIdPKfPKbS2_E9_findBinsERSt6vectorIS6_IySaIyEESaIS8_EERS6_INS_10CountedPtrIdEESaISD_EERS6_IbSaIbEERKS2_SL_yjRKS6_ISt4pairIddESaISN_EEbRKS6_INS_14StatsHistogramIdEESaIST_EERKS6_IdSaIdEE@Base 3.2.1
 _ZNK8casacore28HingesFencesQuantileComputerIdPKfPKbS2_E9_findBinsERSt6vectorIS6_IySaIyEESaIS8_EERS6_INS_10CountedPtrIdEESaISD_EERS6_IbSaIbEERKS2_yjRKS4_jRKS6_INS_14StatsHistogramIdEESaISP_EERKS6_IdSaIdEE@Base 3.2.1
 _ZNK8casacore28HingesFencesQuantileComputerIdPKfPKbS2_E9_findBinsERSt6vectorIS6_IySaIyEESaIS8_EERS6_INS_10CountedPtrIdEESaISD_EERS6_IbSaIbEERKS2_yjRKS4_jRKS6_ISt4pairIddESaISP_EEbRKS6_INS_14StatsHistogramIdEESaISV_EERKS6_IdSaIdEE@Base 3.2.1
 _ZNK8casacore28HingesFencesQuantileComputerIdPKfPKbS2_E9_findBinsERSt6vectorIS6_IySaIyEESaIS8_EERS6_INS_10CountedPtrIdEESaISD_EERS6_IbSaIbEERKS2_yjRKS6_INS_14StatsHistogramIdEESaISN_EERKS6_IdSaIdEE@Base 3.2.1
 _ZNK8casacore28HingesFencesQuantileComputerIdPKfPKbS2_E9_findBinsERSt6vectorIS6_IySaIyEESaIS8_EERS6_INS_10CountedPtrIdEESaISD_EERS6_IbSaIbEERKS2_yjRKS6_ISt4pairIddESaISN_EEbRKS6_INS_14StatsHistogramIdEESaIST_EERKS6_IdSaIdEE@Base 3.2.1
 _ZNK8casacore28LatticeStatsDataProviderBaseIfE10hasWeightsEv@Base 3.2.1
 _ZNK8casacore28LatticeStatsDataProviderBaseIfE9hasRangesEv@Base 3.2.1
 _ZNK8casacore28LatticeStatsDataProviderBaseIfE9isIncludeEv@Base 3.2.1
 _ZNK8casacore30MaskedLatticeStatsDataProviderIfE14estimatedStepsEv@Base 3.2.1
 _ZNK8casacore30MaskedLatticeStatsDataProviderIfE14getNMaxThreadsEv@Base 3.2.1
 _ZNK8casacore30MaskedLatticeStatsDataProviderIfE5atEndEv@Base 3.2.1
 _ZNK8casacore30MaskedLatticeStatsDataProviderIfE7hasMaskEv@Base 3.2.1
 _ZNK8casacore32ConstrainedRangeQuantileComputerIdNS_5ArrayIfE16ConstIteratorSTLENS1_IbE16ConstIteratorSTLES3_E14_populateArrayERSt6vectorIdSaIdEERKS3_SC_yj@Base 3.2.1
 _ZNK8casacore32ConstrainedRangeQuantileComputerIdNS_5ArrayIfE16ConstIteratorSTLENS1_IbE16ConstIteratorSTLES3_E14_populateArrayERSt6vectorIdSaIdEERKS3_SC_yjRKS5_j@Base 3.2.1
 _ZNK8casacore32ConstrainedRangeQuantileComputerIdNS_5ArrayIfE16ConstIteratorSTLENS1_IbE16ConstIteratorSTLES3_E14_populateArrayERSt6vectorIdSaIdEERKS3_SC_yjRKS5_jRKS7_ISt4pairIddESaISG_EEb@Base 3.2.1
 _ZNK8casacore32ConstrainedRangeQuantileComputerIdNS_5ArrayIfE16ConstIteratorSTLENS1_IbE16ConstIteratorSTLES3_E14_populateArrayERSt6vectorIdSaIdEERKS3_SC_yjRKS7_ISt4pairIddESaISE_EEb@Base 3.2.1
 _ZNK8casacore32ConstrainedRangeQuantileComputerIdNS_5ArrayIfE16ConstIteratorSTLENS1_IbE16ConstIteratorSTLES3_E14_populateArrayERSt6vectorIdSaIdEERKS3_yj@Base 3.2.1
 _ZNK8casacore32ConstrainedRangeQuantileComputerIdNS_5ArrayIfE16ConstIteratorSTLENS1_IbE16ConstIteratorSTLES3_E14_populateArrayERSt6vectorIdSaIdEERKS3_yjRKS5_j@Base 3.2.1
 _ZNK8casacore32ConstrainedRangeQuantileComputerIdNS_5ArrayIfE16ConstIteratorSTLENS1_IbE16ConstIteratorSTLES3_E14_populateArrayERSt6vectorIdSaIdEERKS3_yjRKS5_jRKS7_ISt4pairIddESaISG_EEb@Base 3.2.1
 _ZNK8casacore32ConstrainedRangeQuantileComputerIdNS_5ArrayIfE16ConstIteratorSTLENS1_IbE16ConstIteratorSTLES3_E14_populateArrayERSt6vectorIdSaIdEERKS3_yjRKS7_ISt4pairIddESaISE_EEb@Base 3.2.1
 _ZNK8casacore32ConstrainedRangeQuantileComputerIdNS_5ArrayIfE16ConstIteratorSTLENS1_IbE16ConstIteratorSTLES3_E15_populateArraysERSt6vectorIS7_IdSaIdEESaIS9_EERyRKS3_SF_yjRKS5_jRKS7_ISt4pairIddESaISJ_EEbSN_y@Base 3.2.1
 _ZNK8casacore32ConstrainedRangeQuantileComputerIdNS_5ArrayIfE16ConstIteratorSTLENS1_IbE16ConstIteratorSTLES3_E15_populateArraysERSt6vectorIS7_IdSaIdEESaIS9_EERyRKS3_SF_yjRKS5_jRKS7_ISt4pairIddESaISJ_EEy@Base 3.2.1
 _ZNK8casacore32ConstrainedRangeQuantileComputerIdNS_5ArrayIfE16ConstIteratorSTLENS1_IbE16ConstIteratorSTLES3_E15_populateArraysERSt6vectorIS7_IdSaIdEESaIS9_EERyRKS3_SF_yjRKS7_ISt4pairIddESaISH_EEbSL_y@Base 3.2.1
 _ZNK8casacore32ConstrainedRangeQuantileComputerIdNS_5ArrayIfE16ConstIteratorSTLENS1_IbE16ConstIteratorSTLES3_E15_populateArraysERSt6vectorIS7_IdSaIdEESaIS9_EERyRKS3_SF_yjRKS7_ISt4pairIddESaISH_EEy@Base 3.2.1
 _ZNK8casacore32ConstrainedRangeQuantileComputerIdNS_5ArrayIfE16ConstIteratorSTLENS1_IbE16ConstIteratorSTLES3_E15_populateArraysERSt6vectorIS7_IdSaIdEESaIS9_EERyRKS3_yjRKS5_jRKS7_ISt4pairIddESaISJ_EEbSN_y@Base 3.2.1
 _ZNK8casacore32ConstrainedRangeQuantileComputerIdNS_5ArrayIfE16ConstIteratorSTLENS1_IbE16ConstIteratorSTLES3_E15_populateArraysERSt6vectorIS7_IdSaIdEESaIS9_EERyRKS3_yjRKS5_jRKS7_ISt4pairIddESaISJ_EEy@Base 3.2.1
 _ZNK8casacore32ConstrainedRangeQuantileComputerIdNS_5ArrayIfE16ConstIteratorSTLENS1_IbE16ConstIteratorSTLES3_E15_populateArraysERSt6vectorIS7_IdSaIdEESaIS9_EERyRKS3_yjRKS7_ISt4pairIddESaISH_EEbSL_y@Base 3.2.1
 _ZNK8casacore32ConstrainedRangeQuantileComputerIdNS_5ArrayIfE16ConstIteratorSTLENS1_IbE16ConstIteratorSTLES3_E15_populateArraysERSt6vectorIS7_IdSaIdEESaIS9_EERyRKS3_yjRKS7_ISt4pairIddESaISH_EEy@Base 3.2.1
 _ZNK8casacore32ConstrainedRangeQuantileComputerIdNS_5ArrayIfE16ConstIteratorSTLENS1_IbE16ConstIteratorSTLES3_E18_populateTestArrayERSt6vectorIdSaIdEERKS3_SC_yjRKS5_jRKS7_ISt4pairIddESaISG_EEbj@Base 3.2.1
 _ZNK8casacore32ConstrainedRangeQuantileComputerIdNS_5ArrayIfE16ConstIteratorSTLENS1_IbE16ConstIteratorSTLES3_E18_populateTestArrayERSt6vectorIdSaIdEERKS3_SC_yjRKS5_jj@Base 3.2.1
 _ZNK8casacore32ConstrainedRangeQuantileComputerIdNS_5ArrayIfE16ConstIteratorSTLENS1_IbE16ConstIteratorSTLES3_E18_populateTestArrayERSt6vectorIdSaIdEERKS3_SC_yjRKS7_ISt4pairIddESaISE_EEbj@Base 3.2.1
 _ZNK8casacore32ConstrainedRangeQuantileComputerIdNS_5ArrayIfE16ConstIteratorSTLENS1_IbE16ConstIteratorSTLES3_E18_populateTestArrayERSt6vectorIdSaIdEERKS3_SC_yjj@Base 3.2.1
 _ZNK8casacore32ConstrainedRangeQuantileComputerIdNS_5ArrayIfE16ConstIteratorSTLENS1_IbE16ConstIteratorSTLES3_E18_populateTestArrayERSt6vectorIdSaIdEERKS3_yjRKS5_jRKS7_ISt4pairIddESaISG_EEbj@Base 3.2.1
 _ZNK8casacore32ConstrainedRangeQuantileComputerIdNS_5ArrayIfE16ConstIteratorSTLENS1_IbE16ConstIteratorSTLES3_E18_populateTestArrayERSt6vectorIdSaIdEERKS3_yjRKS5_jj@Base 3.2.1
 _ZNK8casacore32ConstrainedRangeQuantileComputerIdNS_5ArrayIfE16ConstIteratorSTLENS1_IbE16ConstIteratorSTLES3_E18_populateTestArrayERSt6vectorIdSaIdEERKS3_yjRKS7_ISt4pairIddESaISE_EEbj@Base 3.2.1
 _ZNK8casacore32ConstrainedRangeQuantileComputerIdNS_5ArrayIfE16ConstIteratorSTLENS1_IbE16ConstIteratorSTLES3_E18_populateTestArrayERSt6vectorIdSaIdEERKS3_yjj@Base 3.2.1
 _ZNK8casacore32ConstrainedRangeQuantileComputerIdNS_5ArrayIfE16ConstIteratorSTLENS1_IbE16ConstIteratorSTLES3_E5cloneEv@Base 3.2.1
 _ZNK8casacore32ConstrainedRangeQuantileComputerIdNS_5ArrayIfE16ConstIteratorSTLENS1_IbE16ConstIteratorSTLES3_E9_findBinsERSt6vectorIS7_IySaIyEESaIS9_EERS7_INS_10CountedPtrIdEESaISE_EERS7_IbSaIbEERKS3_SM_yjRKS5_jRKS7_INS_14StatsHistogramIdEESaISQ_EERKS7_IdSaIdEE@Base 3.2.1
 _ZNK8casacore32ConstrainedRangeQuantileComputerIdNS_5ArrayIfE16ConstIteratorSTLENS1_IbE16ConstIteratorSTLES3_E9_findBinsERSt6vectorIS7_IySaIyEESaIS9_EERS7_INS_10CountedPtrIdEESaISE_EERS7_IbSaIbEERKS3_SM_yjRKS5_jRKS7_ISt4pairIddESaISQ_EEbRKS7_INS_14StatsHistogramIdEESaISW_EERKS7_IdSaIdEE@Base 3.2.1
 _ZNK8casacore32ConstrainedRangeQuantileComputerIdNS_5ArrayIfE16ConstIteratorSTLENS1_IbE16ConstIteratorSTLES3_E9_findBinsERSt6vectorIS7_IySaIyEESaIS9_EERS7_INS_10CountedPtrIdEESaISE_EERS7_IbSaIbEERKS3_SM_yjRKS7_INS_14StatsHistogramIdEESaISO_EERKS7_IdSaIdEE@Base 3.2.1
 _ZNK8casacore32ConstrainedRangeQuantileComputerIdNS_5ArrayIfE16ConstIteratorSTLENS1_IbE16ConstIteratorSTLES3_E9_findBinsERSt6vectorIS7_IySaIyEESaIS9_EERS7_INS_10CountedPtrIdEESaISE_EERS7_IbSaIbEERKS3_SM_yjRKS7_ISt4pairIddESaISO_EEbRKS7_INS_14StatsHistogramIdEESaISU_EERKS7_IdSaIdEE@Base 3.2.1
 _ZNK8casacore32ConstrainedRangeQuantileComputerIdNS_5ArrayIfE16ConstIteratorSTLENS1_IbE16ConstIteratorSTLES3_E9_findBinsERSt6vectorIS7_IySaIyEESaIS9_EERS7_INS_10CountedPtrIdEESaISE_EERS7_IbSaIbEERKS3_yjRKS5_jRKS7_INS_14StatsHistogramIdEESaISQ_EERKS7_IdSaIdEE@Base 3.2.1
 _ZNK8casacore32ConstrainedRangeQuantileComputerIdNS_5ArrayIfE16ConstIteratorSTLENS1_IbE16ConstIteratorSTLES3_E9_findBinsERSt6vectorIS7_IySaIyEESaIS9_EERS7_INS_10CountedPtrIdEESaISE_EERS7_IbSaIbEERKS3_yjRKS5_jRKS7_ISt4pairIddESaISQ_EEbRKS7_INS_14StatsHistogramIdEESaISW_EERKS7_IdSaIdEE@Base 3.2.1
 _ZNK8casacore32ConstrainedRangeQuantileComputerIdNS_5ArrayIfE16ConstIteratorSTLENS1_IbE16ConstIteratorSTLES3_E9_findBinsERSt6vectorIS7_IySaIyEESaIS9_EERS7_INS_10CountedPtrIdEESaISE_EERS7_IbSaIbEERKS3_yjRKS7_INS_14StatsHistogramIdEESaISO_EERKS7_IdSaIdEE@Base 3.2.1
 _ZNK8casacore32ConstrainedRangeQuantileComputerIdNS_5ArrayIfE16ConstIteratorSTLENS1_IbE16ConstIteratorSTLES3_E9_findBinsERSt6vectorIS7_IySaIyEESaIS9_EERS7_INS_10CountedPtrIdEESaISE_EERS7_IbSaIbEERKS3_yjRKS7_ISt4pairIddESaISO_EEbRKS7_INS_14StatsHistogramIdEESaISU_EERKS7_IdSaIdEE@Base 3.2.1
 _ZNK8casacore32ConstrainedRangeQuantileComputerIdPKfPKbS2_E14_populateArrayERSt6vectorIdSaIdEERKS2_SB_yj@Base 3.2.1
 _ZNK8casacore32ConstrainedRangeQuantileComputerIdPKfPKbS2_E14_populateArrayERSt6vectorIdSaIdEERKS2_SB_yjRKS4_j@Base 3.2.1
 _ZNK8casacore32ConstrainedRangeQuantileComputerIdPKfPKbS2_E14_populateArrayERSt6vectorIdSaIdEERKS2_SB_yjRKS4_jRKS6_ISt4pairIddESaISF_EEb@Base 3.2.1
 _ZNK8casacore32ConstrainedRangeQuantileComputerIdPKfPKbS2_E14_populateArrayERSt6vectorIdSaIdEERKS2_SB_yjRKS6_ISt4pairIddESaISD_EEb@Base 3.2.1
 _ZNK8casacore32ConstrainedRangeQuantileComputerIdPKfPKbS2_E14_populateArrayERSt6vectorIdSaIdEERKS2_yj@Base 3.2.1
 _ZNK8casacore32ConstrainedRangeQuantileComputerIdPKfPKbS2_E14_populateArrayERSt6vectorIdSaIdEERKS2_yjRKS4_j@Base 3.2.1
 _ZNK8casacore32ConstrainedRangeQuantileComputerIdPKfPKbS2_E14_populateArrayERSt6vectorIdSaIdEERKS2_yjRKS4_jRKS6_ISt4pairIddESaISF_EEb@Base 3.2.1
 _ZNK8casacore32ConstrainedRangeQuantileComputerIdPKfPKbS2_E14_populateArrayERSt6vectorIdSaIdEERKS2_yjRKS6_ISt4pairIddESaISD_EEb@Base 3.2.1
 _ZNK8casacore32ConstrainedRangeQuantileComputerIdPKfPKbS2_E15_populateArraysERSt6vectorIS6_IdSaIdEESaIS8_EERyRKS2_SE_yjRKS4_jRKS6_ISt4pairIddESaISI_EEbSM_y@Base 3.2.1
 _ZNK8casacore32ConstrainedRangeQuantileComputerIdPKfPKbS2_E15_populateArraysERSt6vectorIS6_IdSaIdEESaIS8_EERyRKS2_SE_yjRKS4_jRKS6_ISt4pairIddESaISI_EEy@Base 3.2.1
 _ZNK8casacore32ConstrainedRangeQuantileComputerIdPKfPKbS2_E15_populateArraysERSt6vectorIS6_IdSaIdEESaIS8_EERyRKS2_SE_yjRKS6_ISt4pairIddESaISG_EEbSK_y@Base 3.2.1
 _ZNK8casacore32ConstrainedRangeQuantileComputerIdPKfPKbS2_E15_populateArraysERSt6vectorIS6_IdSaIdEESaIS8_EERyRKS2_SE_yjRKS6_ISt4pairIddESaISG_EEy@Base 3.2.1
 _ZNK8casacore32ConstrainedRangeQuantileComputerIdPKfPKbS2_E15_populateArraysERSt6vectorIS6_IdSaIdEESaIS8_EERyRKS2_yjRKS4_jRKS6_ISt4pairIddESaISI_EEbSM_y@Base 3.2.1
 _ZNK8casacore32ConstrainedRangeQuantileComputerIdPKfPKbS2_E15_populateArraysERSt6vectorIS6_IdSaIdEESaIS8_EERyRKS2_yjRKS4_jRKS6_ISt4pairIddESaISI_EEy@Base 3.2.1
 _ZNK8casacore32ConstrainedRangeQuantileComputerIdPKfPKbS2_E15_populateArraysERSt6vectorIS6_IdSaIdEESaIS8_EERyRKS2_yjRKS6_ISt4pairIddESaISG_EEbSK_y@Base 3.2.1
 _ZNK8casacore32ConstrainedRangeQuantileComputerIdPKfPKbS2_E15_populateArraysERSt6vectorIS6_IdSaIdEESaIS8_EERyRKS2_yjRKS6_ISt4pairIddESaISG_EEy@Base 3.2.1
 _ZNK8casacore32ConstrainedRangeQuantileComputerIdPKfPKbS2_E18_populateTestArrayERSt6vectorIdSaIdEERKS2_SB_yjRKS4_jRKS6_ISt4pairIddESaISF_EEbj@Base 3.2.1
 _ZNK8casacore32ConstrainedRangeQuantileComputerIdPKfPKbS2_E18_populateTestArrayERSt6vectorIdSaIdEERKS2_SB_yjRKS4_jj@Base 3.2.1
 _ZNK8casacore32ConstrainedRangeQuantileComputerIdPKfPKbS2_E18_populateTestArrayERSt6vectorIdSaIdEERKS2_SB_yjRKS6_ISt4pairIddESaISD_EEbj@Base 3.2.1
 _ZNK8casacore32ConstrainedRangeQuantileComputerIdPKfPKbS2_E18_populateTestArrayERSt6vectorIdSaIdEERKS2_SB_yjj@Base 3.2.1
 _ZNK8casacore32ConstrainedRangeQuantileComputerIdPKfPKbS2_E18_populateTestArrayERSt6vectorIdSaIdEERKS2_yjRKS4_jRKS6_ISt4pairIddESaISF_EEbj@Base 3.2.1
 _ZNK8casacore32ConstrainedRangeQuantileComputerIdPKfPKbS2_E18_populateTestArrayERSt6vectorIdSaIdEERKS2_yjRKS4_jj@Base 3.2.1
 _ZNK8casacore32ConstrainedRangeQuantileComputerIdPKfPKbS2_E18_populateTestArrayERSt6vectorIdSaIdEERKS2_yjRKS6_ISt4pairIddESaISD_EEbj@Base 3.2.1
 _ZNK8casacore32ConstrainedRangeQuantileComputerIdPKfPKbS2_E18_populateTestArrayERSt6vectorIdSaIdEERKS2_yjj@Base 3.2.1
 _ZNK8casacore32ConstrainedRangeQuantileComputerIdPKfPKbS2_E5cloneEv@Base 3.2.1
 _ZNK8casacore32ConstrainedRangeQuantileComputerIdPKfPKbS2_E9_findBinsERSt6vectorIS6_IySaIyEESaIS8_EERS6_INS_10CountedPtrIdEESaISD_EERS6_IbSaIbEERKS2_SL_yjRKS4_jRKS6_INS_14StatsHistogramIdEESaISP_EERKS6_IdSaIdEE@Base 3.2.1
 _ZNK8casacore32ConstrainedRangeQuantileComputerIdPKfPKbS2_E9_findBinsERSt6vectorIS6_IySaIyEESaIS8_EERS6_INS_10CountedPtrIdEESaISD_EERS6_IbSaIbEERKS2_SL_yjRKS4_jRKS6_ISt4pairIddESaISP_EEbRKS6_INS_14StatsHistogramIdEESaISV_EERKS6_IdSaIdEE@Base 3.2.1
 _ZNK8casacore32ConstrainedRangeQuantileComputerIdPKfPKbS2_E9_findBinsERSt6vectorIS6_IySaIyEESaIS8_EERS6_INS_10CountedPtrIdEESaISD_EERS6_IbSaIbEERKS2_SL_yjRKS6_INS_14StatsHistogramIdEESaISN_EERKS6_IdSaIdEE@Base 3.2.1
 _ZNK8casacore32ConstrainedRangeQuantileComputerIdPKfPKbS2_E9_findBinsERSt6vectorIS6_IySaIyEESaIS8_EERS6_INS_10CountedPtrIdEESaISD_EERS6_IbSaIbEERKS2_SL_yjRKS6_ISt4pairIddESaISN_EEbRKS6_INS_14StatsHistogramIdEESaIST_EERKS6_IdSaIdEE@Base 3.2.1
 _ZNK8casacore32ConstrainedRangeQuantileComputerIdPKfPKbS2_E9_findBinsERSt6vectorIS6_IySaIyEESaIS8_EERS6_INS_10CountedPtrIdEESaISD_EERS6_IbSaIbEERKS2_yjRKS4_jRKS6_INS_14StatsHistogramIdEESaISP_EERKS6_IdSaIdEE@Base 3.2.1
 _ZNK8casacore32ConstrainedRangeQuantileComputerIdPKfPKbS2_E9_findBinsERSt6vectorIS6_IySaIyEESaIS8_EERS6_INS_10CountedPtrIdEESaISD_EERS6_IbSaIbEERKS2_yjRKS4_jRKS6_ISt4pairIddESaISP_EEbRKS6_INS_14StatsHistogramIdEESaISV_EERKS6_IdSaIdEE@Base 3.2.1
 _ZNK8casacore32ConstrainedRangeQuantileComputerIdPKfPKbS2_E9_findBinsERSt6vectorIS6_IySaIyEESaIS8_EERS6_INS_10CountedPtrIdEESaISD_EERS6_IbSaIbEERKS2_yjRKS6_INS_14StatsHistogramIdEESaISN_EERKS6_IdSaIdEE@Base 3.2.1
 _ZNK8casacore32ConstrainedRangeQuantileComputerIdPKfPKbS2_E9_findBinsERSt6vectorIS6_IySaIyEESaIS8_EERS6_INS_10CountedPtrIdEESaISD_EERS6_IbSaIbEERKS2_yjRKS6_ISt4pairIddESaISN_EEbRKS6_INS_14StatsHistogramIdEESaIST_EERKS6_IdSaIdEE@Base 3.2.1
 _ZNK8casacore4CubeISt7complexIdEE2okEv@Base 3.2.1
 _ZNK8casacore4CubeISt7complexIfEE2okEv@Base 3.2.1
 _ZNK8casacore4CubeIbE2okEv@Base 3.2.1
 _ZNK8casacore4CubeIdE2okEv@Base 3.2.1
 _ZNK8casacore4CubeIfE2okEv@Base 3.2.1
 _ZNK8casacore5ArrayINS_6VectorIdEEE10getSectionERKNS_6SlicerE@Base 3.2.1
 _ZNK8casacore5ArrayINS_6VectorIdEEE11freeStorageERPKS2_b@Base 3.2.1
 _ZNK8casacore5ArrayINS_6VectorIdEEE11getVStorageERb@Base 3.2.1
 _ZNK8casacore5ArrayINS_6VectorIdEEE12freeVStorageERPKvb@Base 3.2.1
 _ZNK8casacore5ArrayINS_6VectorIdEEE12makeIteratorEj@Base 3.2.1
 _ZNK8casacore5ArrayINS_6VectorIdEEE18nonNewDelAllocatorEv@Base 3.2.1
 _ZNK8casacore5ArrayINS_6VectorIdEEE2okEv@Base 3.2.1
 _ZNK8casacore5ArrayINS_6VectorIdEEE9makeArrayEv@Base 3.2.1
 _ZNK8casacore5ArrayINS_8AutoDiffIdEEE10getSectionERKNS_6SlicerE@Base 3.2.1
 _ZNK8casacore5ArrayINS_8AutoDiffIdEEE11freeStorageERPKS2_b@Base 3.2.1
 _ZNK8casacore5ArrayINS_8AutoDiffIdEEE11getVStorageERb@Base 3.2.1
 _ZNK8casacore5ArrayINS_8AutoDiffIdEEE12freeVStorageERPKvb@Base 3.2.1
 _ZNK8casacore5ArrayINS_8AutoDiffIdEEE12makeIteratorEj@Base 3.2.1
 _ZNK8casacore5ArrayINS_8AutoDiffIdEEE18nonNewDelAllocatorEv@Base 3.2.1
 _ZNK8casacore5ArrayINS_8AutoDiffIdEEE2okEv@Base 3.2.1
 _ZNK8casacore5ArrayINS_8AutoDiffIdEEE9makeArrayEv@Base 3.2.1
 _ZNK8casacore5ArrayINS_8AutoDiffIfEEE10getSectionERKNS_6SlicerE@Base 3.2.1
 _ZNK8casacore5ArrayINS_8AutoDiffIfEEE11freeStorageERPKS2_b@Base 3.2.1
 _ZNK8casacore5ArrayINS_8AutoDiffIfEEE11getVStorageERb@Base 3.2.1
 _ZNK8casacore5ArrayINS_8AutoDiffIfEEE12freeVStorageERPKvb@Base 3.2.1
 _ZNK8casacore5ArrayINS_8AutoDiffIfEEE12makeIteratorEj@Base 3.2.1
 _ZNK8casacore5ArrayINS_8AutoDiffIfEEE18nonNewDelAllocatorEv@Base 3.2.1
 _ZNK8casacore5ArrayINS_8AutoDiffIfEEE2okEv@Base 3.2.1
 _ZNK8casacore5ArrayINS_8AutoDiffIfEEE9makeArrayEv@Base 3.2.1
 _ZNK8casacore5Fit2D10chiSquaredEv@Base 3.2.1
 _ZNK8casacore5Fit2D12errorMessageEv@Base 3.2.1
 _ZNK8casacore5Fit2D12numberPointsEv@Base 3.2.1
 _ZNK8casacore5Fit2D15availableErrorsERjj@Base 3.2.1
 _ZNK8casacore5Fit2D15availableErrorsEj@Base 3.2.1
 _ZNK8casacore5Fit2D15availableErrorsEv@Base 3.2.1
 _ZNK8casacore5Fit2D16numberIterationsEv@Base 3.2.1
 _ZNK8casacore5Fit2D17availableSolutionERjj@Base 3.2.1
 _ZNK8casacore5Fit2D17availableSolutionEj@Base 3.2.1
 _ZNK8casacore5Fit2D17availableSolutionEv@Base 3.2.1
 _ZNK8casacore5Fit2D7nModelsEv@Base 3.2.1
 _ZNK8casacore5Fit2D7piRangeERd@Base 3.2.1
 _ZNK8casacore5Fit2D8residualIfEENS0_10ErrorTypesERNS_5ArrayIT_EES6_RKS5_ii@Base 3.2.1
 _ZNK8casacore5Fit2D9getParamsEj@Base 3.2.1
 _ZNK8casacore5LCBox11cloneRegionEv@Base 3.2.1
 _ZNK8casacore5LCBox11doTranslateERKNS_6VectorIfEERKNS_9IPositionE@Base 3.2.1
 _ZNK8casacore5LCBox4typeEv@Base 3.2.1
 _ZNK8casacore5LCBox8toRecordERKNS_6StringE@Base 3.2.1
 _ZNK8casacore5LCBoxeqERKNS_8LCRegionE@Base 3.2.1
 _ZNK8casacore6LCMask10isWritableEv@Base 3.2.1
 _ZNK8casacore6LCMask11cloneRegionEv@Base 3.2.1
 _ZNK8casacore6LCMask11doTranslateERKNS_6VectorIfEERKNS_9IPositionE@Base 3.2.1
 _ZNK8casacore6LCMask16advisedMaxPixelsEv@Base 3.2.1
 _ZNK8casacore6LCMask16maximumCacheSizeEv@Base 3.2.1
 _ZNK8casacore6LCMask17doNiceCursorShapeEj@Base 3.2.1
 _ZNK8casacore6LCMask19showCacheStatisticsERSo@Base 3.2.1
 _ZNK8casacore6LCMask4typeEv@Base 3.2.1
 _ZNK8casacore6LCMask7hasLockENS_10FileLocker8LockTypeE@Base 3.2.1
 _ZNK8casacore6LCMask8makeIterERKNS_16LatticeNavigatorEb@Base 3.2.1
 _ZNK8casacore6LCMask8toRecordERKNS_6StringE@Base 3.2.1
 _ZNK8casacore6LCMaskeqERKNS_8LCRegionE@Base 3.2.1
 _ZNK8casacore6String8containsEPKc@Base 3.2.1
 _ZNK8casacore6VectorINS0_IdEEE2okEv@Base 3.2.1
 _ZNK8casacore6VectorINS_8AutoDiffIdEEE2okEv@Base 3.2.1
 _ZNK8casacore6VectorINS_8AutoDiffIfEEE2okEv@Base 3.2.1
 _ZNK8casacore7LCUnion11cloneRegionEv@Base 3.2.1
 _ZNK8casacore7LCUnion11doTranslateERKNS_6VectorIfEERKNS_9IPositionE@Base 3.2.1
 _ZNK8casacore7LCUnion4typeEv@Base 3.2.1
 _ZNK8casacore7LCUnion8toRecordERKNS_6StringE@Base 3.2.1
 _ZNK8casacore7LCUnioneqERKNS_8LCRegionE@Base 3.2.1
 _ZNK8casacore7LatticeISt7complexIdEE10copyDataToERS3_@Base 3.2.1
 _ZNK8casacore7LatticeISt7complexIdEE12handleMathToERS3_i@Base 3.2.1
 _ZNK8casacore7LatticeISt7complexIdEE16advisedMaxPixelsEv@Base 3.2.1
 _ZNK8casacore7LatticeISt7complexIdEE5getAtERKNS_9IPositionE@Base 3.2.1
 _ZNK8casacore7LatticeISt7complexIdEE8dataTypeEv@Base 3.2.1
 _ZNK8casacore7LatticeISt7complexIdEE8makeIterERKNS_16LatticeNavigatorEb@Base 3.2.1
 _ZNK8casacore7LatticeISt7complexIfEE10copyDataToERS3_@Base 3.2.1
 _ZNK8casacore7LatticeISt7complexIfEE12handleMathToERS3_i@Base 3.2.1
 _ZNK8casacore7LatticeISt7complexIfEE16advisedMaxPixelsEv@Base 3.2.1
 _ZNK8casacore7LatticeISt7complexIfEE3getERNS_6COWPtrINS_5ArrayIS2_EEEEb@Base 3.2.1
 _ZNK8casacore7LatticeISt7complexIfEE3getEb@Base 3.2.1
 _ZNK8casacore7LatticeISt7complexIfEE5getAtERKNS_9IPositionE@Base 3.2.1
 _ZNK8casacore7LatticeISt7complexIfEE8dataTypeEv@Base 3.2.1
 _ZNK8casacore7LatticeISt7complexIfEE8getSliceERKNS_6SlicerEb@Base 3.2.1
 _ZNK8casacore7LatticeISt7complexIfEE8getSliceERKNS_9IPositionES6_S6_b@Base 3.2.1
 _ZNK8casacore7LatticeISt7complexIfEE8getSliceERKNS_9IPositionES6_b@Base 3.2.1
 _ZNK8casacore7LatticeISt7complexIfEE8getSliceERNS_6COWPtrINS_5ArrayIS2_EEEERKNS_6SlicerEb@Base 3.2.1
 _ZNK8casacore7LatticeISt7complexIfEE8getSliceERNS_6COWPtrINS_5ArrayIS2_EEEERKNS_9IPositionESB_SB_b@Base 3.2.1
 _ZNK8casacore7LatticeISt7complexIfEE8getSliceERNS_6COWPtrINS_5ArrayIS2_EEEERKNS_9IPositionESB_b@Base 3.2.1
 _ZNK8casacore7LatticeISt7complexIfEE8makeIterERKNS_16LatticeNavigatorEb@Base 3.2.1
 _ZNK8casacore7LatticeISt7complexIfEEclERKNS_9IPositionE@Base 3.2.1
 _ZNK8casacore7LatticeIbE10copyDataToERS1_@Base 3.2.1
 _ZNK8casacore7LatticeIbE12handleMathToERS1_i@Base 3.2.1
 _ZNK8casacore7LatticeIbE16advisedMaxPixelsEv@Base 3.2.1
 _ZNK8casacore7LatticeIbE3getERNS_6COWPtrINS_5ArrayIbEEEEb@Base 3.2.1
 _ZNK8casacore7LatticeIbE5getAtERKNS_9IPositionE@Base 3.2.1
 _ZNK8casacore7LatticeIbE8dataTypeEv@Base 3.2.1
 _ZNK8casacore7LatticeIbE8getSliceERKNS_6SlicerEb@Base 3.2.1
 _ZNK8casacore7LatticeIbE8makeIterERKNS_16LatticeNavigatorEb@Base 3.2.1
 _ZNK8casacore7LatticeIdE10copyDataToERS1_@Base 3.2.1
 _ZNK8casacore7LatticeIdE12handleMathToERS1_i@Base 3.2.1
 _ZNK8casacore7LatticeIdE16advisedMaxPixelsEv@Base 3.2.1
 _ZNK8casacore7LatticeIdE3getEb@Base 3.2.1
 _ZNK8casacore7LatticeIdE5getAtERKNS_9IPositionE@Base 3.2.1
 _ZNK8casacore7LatticeIdE8dataTypeEv@Base 3.2.1
 _ZNK8casacore7LatticeIdE8getSliceERKNS_6SlicerEb@Base 3.2.1
 _ZNK8casacore7LatticeIdE8makeIterERKNS_16LatticeNavigatorEb@Base 3.2.1
 _ZNK8casacore7LatticeIfE10copyDataToERS1_@Base 3.2.1
 _ZNK8casacore7LatticeIfE12handleMathToERS1_i@Base 3.2.1
 _ZNK8casacore7LatticeIfE16advisedMaxPixelsEv@Base 3.2.1
 _ZNK8casacore7LatticeIfE3getERNS_6COWPtrINS_5ArrayIfEEEEb@Base 3.2.1
 _ZNK8casacore7LatticeIfE3getEb@Base 3.2.1
 _ZNK8casacore7LatticeIfE5getAtERKNS_9IPositionE@Base 3.2.1
 _ZNK8casacore7LatticeIfE8dataTypeEv@Base 3.2.1
 _ZNK8casacore7LatticeIfE8getSliceERKNS_6SlicerEb@Base 3.2.1
 _ZNK8casacore7LatticeIfE8getSliceERKNS_9IPositionES4_S4_b@Base 3.2.1
 _ZNK8casacore7LatticeIfE8getSliceERKNS_9IPositionES4_b@Base 3.2.1
 _ZNK8casacore7LatticeIfE8getSliceERNS_6COWPtrINS_5ArrayIfEEEERKNS_6SlicerEb@Base 3.2.1
 _ZNK8casacore7LatticeIfE8getSliceERNS_6COWPtrINS_5ArrayIfEEEERKNS_9IPositionES9_S9_b@Base 3.2.1
 _ZNK8casacore7LatticeIfE8getSliceERNS_6COWPtrINS_5ArrayIfEEEERKNS_9IPositionES9_b@Base 3.2.1
 _ZNK8casacore7LatticeIfE8makeIterERKNS_16LatticeNavigatorEb@Base 3.2.1
 _ZNK8casacore7LatticeIfEclERKNS_9IPositionE@Base 3.2.1
 _ZNK8casacore8AutoDiffIdE11derivativesERNS_6VectorIdEE@Base 3.2.1
 _ZNK8casacore8FITSMask10isWritableEv@Base 3.2.1
 _ZNK8casacore8FITSMask5cloneEv@Base 3.2.1
 _ZNK8casacore8FITSMask5shapeEv@Base 3.2.1
 _ZNK8casacore8FunctionINS_8AutoDiffIdEES2_E10cloneNonADEv@Base 3.2.1
 _ZNK8casacore8FunctionINS_8AutoDiffIdEES2_E4nameEv@Base 3.2.1
 _ZNK8casacore8FunctionINS_8AutoDiffIdEES2_E7cloneADEv@Base 3.2.1
 _ZNK8casacore8FunctionINS_8AutoDiffIdEES2_E7getModeERNS_15RecordInterfaceE@Base 3.2.1
 _ZNK8casacore8FunctionINS_8AutoDiffIdEES2_E7hasModeEv@Base 3.2.1
 _ZNK8casacore8FunctionINS_8AutoDiffIdEES2_EclEPKd@Base 3.2.1
 _ZNK8casacore8FunctionINS_8AutoDiffIdEES2_EclERKNS_6VectorIdEE@Base 3.2.1
 _ZNK8casacore8FunctionINS_8AutoDiffIdEES2_EclERKd@Base 3.2.1
 _ZNK8casacore8FunctionINS_8AutoDiffIdEES2_EclERKdS5_@Base 3.2.1
 _ZNK8casacore8FunctionINS_8AutoDiffIdEES2_EclERKdS5_S5_@Base 3.2.1
 _ZNK8casacore8FunctionINS_8AutoDiffIdEES2_EclEv@Base 3.2.1
 _ZNK8casacore8FunctionINS_8AutoDiffIfEES2_E10cloneNonADEv@Base 3.2.1
 _ZNK8casacore8FunctionINS_8AutoDiffIfEES2_E4nameEv@Base 3.2.1
 _ZNK8casacore8FunctionINS_8AutoDiffIfEES2_E7cloneADEv@Base 3.2.1
 _ZNK8casacore8FunctionINS_8AutoDiffIfEES2_E7getModeERNS_15RecordInterfaceE@Base 3.2.1
 _ZNK8casacore8FunctionINS_8AutoDiffIfEES2_E7hasModeEv@Base 3.2.1
 _ZNK8casacore8FunctionINS_8AutoDiffIfEES2_EclEPKf@Base 3.2.1
 _ZNK8casacore8FunctionINS_8AutoDiffIfEES2_EclERKNS_6VectorIfEE@Base 3.2.1
 _ZNK8casacore8FunctionINS_8AutoDiffIfEES2_EclERKf@Base 3.2.1
 _ZNK8casacore8FunctionINS_8AutoDiffIfEES2_EclERKfS5_@Base 3.2.1
 _ZNK8casacore8FunctionINS_8AutoDiffIfEES2_EclERKfS5_S5_@Base 3.2.1
 _ZNK8casacore8FunctionINS_8AutoDiffIfEES2_EclEv@Base 3.2.1
 _ZNK8casacore8FunctionIddE10cloneNonADEv@Base 3.2.1
 _ZNK8casacore8FunctionIddE4nameEv@Base 3.2.1
 _ZNK8casacore8FunctionIddE7cloneADEv@Base 3.2.1
 _ZNK8casacore8FunctionIddE7getModeERNS_15RecordInterfaceE@Base 3.2.1
 _ZNK8casacore8FunctionIddE7hasModeEv@Base 3.2.1
 _ZNK8casacore8FunctionIddEclEPKd@Base 3.2.1
 _ZNK8casacore8FunctionIddEclERKNS_6VectorIdEE@Base 3.2.1
 _ZNK8casacore8FunctionIddEclERKd@Base 3.2.1
 _ZNK8casacore8FunctionIddEclERKdS3_@Base 3.2.1
 _ZNK8casacore8FunctionIddEclERKdS3_S3_@Base 3.2.1
 _ZNK8casacore8FunctionIddEclEv@Base 3.2.1
 _ZNK8casacore8FunctionIffE10cloneNonADEv@Base 3.2.1
 _ZNK8casacore8FunctionIffE4nameEv@Base 3.2.1
 _ZNK8casacore8FunctionIffE7cloneADEv@Base 3.2.1
 _ZNK8casacore8FunctionIffE7getModeERNS_15RecordInterfaceE@Base 3.2.1
 _ZNK8casacore8FunctionIffE7hasModeEv@Base 3.2.1
 _ZNK8casacore8FunctionIffEclEPKf@Base 3.2.1
 _ZNK8casacore8FunctionIffEclERKNS_6VectorIfEE@Base 3.2.1
 _ZNK8casacore8FunctionIffEclERKf@Base 3.2.1
 _ZNK8casacore8FunctionIffEclERKfS3_@Base 3.2.1
 _ZNK8casacore8FunctionIffEclERKfS3_S3_@Base 3.2.1
 _ZNK8casacore8FunctionIffEclEv@Base 3.2.1
 _ZNK8casacore8LCRegion10isWritableEv@Base 3.2.1
 _ZNK8casacore8LCRegion18defineRecordFieldsERNS_15RecordInterfaceERKNS_6StringE@Base 3.2.1
 _ZNK8casacore8LCRegion4ndimEv@Base 3.2.1
 _ZNK8casacore8LCRegion5cloneEv@Base 3.2.1
 _ZNK8casacore8LCRegion5shapeEv@Base 3.2.1
 _ZNK8casacore8LCRegion6expandERKNS_6SlicerE@Base 3.2.1
 _ZNK8casacore8LCRegion6expandERKNS_9IPositionE@Base 3.2.1
 _ZNK8casacore8LCRegion9translateERKNS_6VectorIfEERKNS_9IPositionE@Base 3.2.1
 _ZNK8casacore8LCRegion9translateERKNS_9IPositionES3_@Base 3.2.1
 _ZNK8casacore8LCRegioneqERKS0_@Base 3.2.1
 _ZNK8casacore8LCSlicer10isCompleteEv@Base 3.2.1
 _ZNK8casacore8LCSlicer4typeEv@Base 3.2.1
 _ZNK8casacore8LCSlicer8toRecordERKNS_6StringE@Base 3.2.1
 _ZNK8casacore8LCSlicer8toSlicerERKNS_6VectorIdEERKNS_9IPositionE@Base 3.2.1
 _ZNK8casacore8LCSlicer8toSlicerERKNS_6VectorIfEERKNS_9IPositionE@Base 3.2.1
 _ZNK8casacore8LCSlicer8toSlicerERKNS_9IPositionES3_@Base 3.2.1
 _ZNK8casacore8LCSlicereqERKS0_@Base 3.2.1
 _ZNK8casacore8LELUnaryISt7complexIdEE4evalERNS_8LELArrayIS2_EERKNS_6SlicerE@Base 3.2.1
 _ZNK8casacore8LELUnaryISt7complexIdEE7hasLockENS_10FileLocker8LockTypeE@Base 3.2.1
 _ZNK8casacore8LELUnaryISt7complexIdEE9classNameEv@Base 3.2.1
 _ZNK8casacore8LELUnaryISt7complexIdEE9getScalarEv@Base 3.2.1
 _ZNK8casacore8LELUnaryISt7complexIfEE4evalERNS_8LELArrayIS2_EERKNS_6SlicerE@Base 3.2.1
 _ZNK8casacore8LELUnaryISt7complexIfEE7hasLockENS_10FileLocker8LockTypeE@Base 3.2.1
 _ZNK8casacore8LELUnaryISt7complexIfEE9classNameEv@Base 3.2.1
 _ZNK8casacore8LELUnaryISt7complexIfEE9getScalarEv@Base 3.2.1
 _ZNK8casacore8LELUnaryIdE4evalERNS_8LELArrayIdEERKNS_6SlicerE@Base 3.2.1
 _ZNK8casacore8LELUnaryIdE7hasLockENS_10FileLocker8LockTypeE@Base 3.2.1
 _ZNK8casacore8LELUnaryIdE9classNameEv@Base 3.2.1
 _ZNK8casacore8LELUnaryIdE9getScalarEv@Base 3.2.1
 _ZNK8casacore8LELUnaryIfE4evalERNS_8LELArrayIfEERKNS_6SlicerE@Base 3.2.1
 _ZNK8casacore8LELUnaryIfE7hasLockENS_10FileLocker8LockTypeE@Base 3.2.1
 _ZNK8casacore8LELUnaryIfE9classNameEv@Base 3.2.1
 _ZNK8casacore8LELUnaryIfE9getScalarEv@Base 3.2.1
 _ZNK8casacore9LCLELMask11cloneRegionEv@Base 3.2.1
 _ZNK8casacore9LCLELMask11doTranslateERKNS_6VectorIfEERKNS_9IPositionE@Base 3.2.1
 _ZNK8casacore9LCLELMask4typeEv@Base 3.2.1
 _ZNK8casacore9LCLELMask7hasLockENS_10FileLocker8LockTypeE@Base 3.2.1
 _ZNK8casacore9LCLELMask8toRecordERKNS_6StringE@Base 3.2.1
 _ZNK8casacore9LCLELMaskeqERKNS_8LCRegionE@Base 3.2.1
 _ZNK8casacore9LCPolygon11cloneRegionEv@Base 3.2.1
 _ZNK8casacore9LCPolygon11doTranslateERKNS_6VectorIfEERKNS_9IPositionE@Base 3.2.1
 _ZNK8casacore9LCPolygon4typeEv@Base 3.2.1
 _ZNK8casacore9LCPolygon8toRecordERKNS_6StringE@Base 3.2.1
 _ZNK8casacore9LCPolygoneqERKNS_8LCRegionE@Base 3.2.1
 _ZNK8casacore9LCStretch11cloneRegionEv@Base 3.2.1
 _ZNK8casacore9LCStretch11doTranslateERKNS_6VectorIfEERKNS_9IPositionE@Base 3.2.1
 _ZNK8casacore9LCStretch17doNiceCursorShapeEj@Base 3.2.1
 _ZNK8casacore9LCStretch4typeEv@Base 3.2.1
 _ZNK8casacore9LCStretch8toRecordERKNS_6StringE@Base 3.2.1
 _ZNK8casacore9LCStretcheqERKNS_8LCRegionE@Base 3.2.1
 _ZNK8casacore9LELBinaryISt7complexIdEE4evalERNS_8LELArrayIS2_EERKNS_6SlicerE@Base 3.2.1
 _ZNK8casacore9LELBinaryISt7complexIdEE7hasLockENS_10FileLocker8LockTypeE@Base 3.2.1
 _ZNK8casacore9LELBinaryISt7complexIdEE9classNameEv@Base 3.2.1
 _ZNK8casacore9LELBinaryISt7complexIdEE9getScalarEv@Base 3.2.1
 _ZNK8casacore9LELBinaryISt7complexIfEE4evalERNS_8LELArrayIS2_EERKNS_6SlicerE@Base 3.2.1
 _ZNK8casacore9LELBinaryISt7complexIfEE7hasLockENS_10FileLocker8LockTypeE@Base 3.2.1
 _ZNK8casacore9LELBinaryISt7complexIfEE9classNameEv@Base 3.2.1
 _ZNK8casacore9LELBinaryISt7complexIfEE9getScalarEv@Base 3.2.1
 _ZNK8casacore9LELBinaryIdE4evalERNS_8LELArrayIdEERKNS_6SlicerE@Base 3.2.1
 _ZNK8casacore9LELBinaryIdE7hasLockENS_10FileLocker8LockTypeE@Base 3.2.1
 _ZNK8casacore9LELBinaryIdE9classNameEv@Base 3.2.1
 _ZNK8casacore9LELBinaryIdE9getScalarEv@Base 3.2.1
 _ZNK8casacore9LELBinaryIfE4evalERNS_8LELArrayIfEERKNS_6SlicerE@Base 3.2.1
 _ZNK8casacore9LELBinaryIfE7hasLockENS_10FileLocker8LockTypeE@Base 3.2.1
 _ZNK8casacore9LELBinaryIfE9classNameEv@Base 3.2.1
 _ZNK8casacore9LELBinaryIfE9getScalarEv@Base 3.2.1
 _ZNK8casacore9LELRegion4evalERNS_8LELArrayIbEERKNS_6SlicerE@Base 3.2.1
 _ZNK8casacore9LELRegion9classNameEv@Base 3.2.1
 _ZNK8casacore9LELRegion9getScalarEv@Base 3.2.1
 _ZNKSt5ctypeIcE8do_widenEc@Base 3.2.1
 _ZNKSt8_Rb_treeIN8casacore6StringESt4pairIKS1_NS0_10CountedPtrINS0_10ColumnDescEEEESt10_Select1stIS7_ESt4lessIS1_ESaIS7_EE4findERS3_@Base 3.2.1
 _ZNSt12__shared_ptrIdLN9__gnu_cxx12_Lock_policyE2EEC1ERKS2_@Base 3.2.1
 _ZNSt12__shared_ptrIdLN9__gnu_cxx12_Lock_policyE2EEC2ERKS2_@Base 3.2.1
 _ZNSt12__shared_ptrIyLN9__gnu_cxx12_Lock_policyE2EEC1ERKS2_@Base 3.2.1
 _ZNSt12__shared_ptrIyLN9__gnu_cxx12_Lock_policyE2EEC2ERKS2_@Base 3.2.1
 _ZNSt13_Bvector_baseISaIbEE13_M_deallocateEv@Base 3.2.1
 _ZNSt14__shared_countILN9__gnu_cxx12_Lock_policyE2EEC1IPN8casacore5ArrayIbEENS4_10CountedPtrIS6_E7DeleterIS6_EESaIvEEET_T0_T1_@Base 3.2.1
 _ZNSt14__shared_countILN9__gnu_cxx12_Lock_policyE2EEC1IPyN8casacore10CountedPtrIyE7DeleterIyEESaIvEEET_T0_T1_@Base 3.2.1
 _ZNSt14__shared_countILN9__gnu_cxx12_Lock_policyE2EEC2IPN8casacore5ArrayIbEENS4_10CountedPtrIS6_E7DeleterIS6_EESaIvEEET_T0_T1_@Base 3.2.1
 _ZNSt14__shared_countILN9__gnu_cxx12_Lock_policyE2EEC2IPyN8casacore10CountedPtrIyE7DeleterIyEESaIvEEET_T0_T1_@Base 3.2.1
 _ZNSt14__shared_countILN9__gnu_cxx12_Lock_policyE2EEaSERKS2_@Base 3.2.1
 _ZNSt15_Sp_counted_ptrIPN8casacore11HDF5DataSetELN9__gnu_cxx12_Lock_policyE2EE10_M_destroyEv@Base 3.2.1
 _ZNSt15_Sp_counted_ptrIPN8casacore11HDF5DataSetELN9__gnu_cxx12_Lock_policyE2EE10_M_disposeEv@Base 3.2.1
 _ZNSt15_Sp_counted_ptrIPN8casacore11HDF5DataSetELN9__gnu_cxx12_Lock_policyE2EE14_M_get_deleterERKSt9type_info@Base 3.2.1
 _ZNSt15_Sp_counted_ptrIPN8casacore11HDF5DataSetELN9__gnu_cxx12_Lock_policyE2EED0Ev@Base 3.2.1
 _ZNSt15_Sp_counted_ptrIPN8casacore11HDF5DataSetELN9__gnu_cxx12_Lock_policyE2EED1Ev@Base 3.2.1
 _ZNSt15_Sp_counted_ptrIPN8casacore11HDF5DataSetELN9__gnu_cxx12_Lock_policyE2EED2Ev@Base 3.2.1
 _ZNSt15_Sp_counted_ptrIPN8casacore11TempLatticeIdEELN9__gnu_cxx12_Lock_policyE2EE10_M_destroyEv@Base 3.2.1
 _ZNSt15_Sp_counted_ptrIPN8casacore11TempLatticeIdEELN9__gnu_cxx12_Lock_policyE2EE10_M_disposeEv@Base 3.2.1
 _ZNSt15_Sp_counted_ptrIPN8casacore11TempLatticeIdEELN9__gnu_cxx12_Lock_policyE2EE14_M_get_deleterERKSt9type_info@Base 3.2.1
 _ZNSt15_Sp_counted_ptrIPN8casacore11TempLatticeIdEELN9__gnu_cxx12_Lock_policyE2EED0Ev@Base 3.2.1
 _ZNSt15_Sp_counted_ptrIPN8casacore11TempLatticeIdEELN9__gnu_cxx12_Lock_policyE2EED1Ev@Base 3.2.1
 _ZNSt15_Sp_counted_ptrIPN8casacore11TempLatticeIdEELN9__gnu_cxx12_Lock_policyE2EED2Ev@Base 3.2.1
 _ZNSt15_Sp_counted_ptrIPN8casacore12LELInterfaceISt7complexIdEEELN9__gnu_cxx12_Lock_policyE2EE10_M_destroyEv@Base 3.2.1
 _ZNSt15_Sp_counted_ptrIPN8casacore12LELInterfaceISt7complexIdEEELN9__gnu_cxx12_Lock_policyE2EE10_M_disposeEv@Base 3.2.1
 _ZNSt15_Sp_counted_ptrIPN8casacore12LELInterfaceISt7complexIdEEELN9__gnu_cxx12_Lock_policyE2EE14_M_get_deleterERKSt9type_info@Base 3.2.1
 _ZNSt15_Sp_counted_ptrIPN8casacore12LELInterfaceISt7complexIdEEELN9__gnu_cxx12_Lock_policyE2EED0Ev@Base 3.2.1
 _ZNSt15_Sp_counted_ptrIPN8casacore12LELInterfaceISt7complexIdEEELN9__gnu_cxx12_Lock_policyE2EED1Ev@Base 3.2.1
 _ZNSt15_Sp_counted_ptrIPN8casacore12LELInterfaceISt7complexIdEEELN9__gnu_cxx12_Lock_policyE2EED2Ev@Base 3.2.1
 _ZNSt15_Sp_counted_ptrIPN8casacore12LELInterfaceISt7complexIfEEELN9__gnu_cxx12_Lock_policyE2EE10_M_destroyEv@Base 3.2.1
 _ZNSt15_Sp_counted_ptrIPN8casacore12LELInterfaceISt7complexIfEEELN9__gnu_cxx12_Lock_policyE2EE10_M_disposeEv@Base 3.2.1
 _ZNSt15_Sp_counted_ptrIPN8casacore12LELInterfaceISt7complexIfEEELN9__gnu_cxx12_Lock_policyE2EE14_M_get_deleterERKSt9type_info@Base 3.2.1
 _ZNSt15_Sp_counted_ptrIPN8casacore12LELInterfaceISt7complexIfEEELN9__gnu_cxx12_Lock_policyE2EED0Ev@Base 3.2.1
 _ZNSt15_Sp_counted_ptrIPN8casacore12LELInterfaceISt7complexIfEEELN9__gnu_cxx12_Lock_policyE2EED1Ev@Base 3.2.1
 _ZNSt15_Sp_counted_ptrIPN8casacore12LELInterfaceISt7complexIfEEELN9__gnu_cxx12_Lock_policyE2EED2Ev@Base 3.2.1
 _ZNSt15_Sp_counted_ptrIPN8casacore12LELInterfaceIbEELN9__gnu_cxx12_Lock_policyE2EE10_M_destroyEv@Base 3.2.1
 _ZNSt15_Sp_counted_ptrIPN8casacore12LELInterfaceIbEELN9__gnu_cxx12_Lock_policyE2EE10_M_disposeEv@Base 3.2.1
 _ZNSt15_Sp_counted_ptrIPN8casacore12LELInterfaceIbEELN9__gnu_cxx12_Lock_policyE2EE14_M_get_deleterERKSt9type_info@Base 3.2.1
 _ZNSt15_Sp_counted_ptrIPN8casacore12LELInterfaceIbEELN9__gnu_cxx12_Lock_policyE2EED0Ev@Base 3.2.1
 _ZNSt15_Sp_counted_ptrIPN8casacore12LELInterfaceIbEELN9__gnu_cxx12_Lock_policyE2EED1Ev@Base 3.2.1
 _ZNSt15_Sp_counted_ptrIPN8casacore12LELInterfaceIbEELN9__gnu_cxx12_Lock_policyE2EED2Ev@Base 3.2.1
 _ZNSt15_Sp_counted_ptrIPN8casacore12LELInterfaceIdEELN9__gnu_cxx12_Lock_policyE2EE10_M_destroyEv@Base 3.2.1
 _ZNSt15_Sp_counted_ptrIPN8casacore12LELInterfaceIdEELN9__gnu_cxx12_Lock_policyE2EE10_M_disposeEv@Base 3.2.1
 _ZNSt15_Sp_counted_ptrIPN8casacore12LELInterfaceIdEELN9__gnu_cxx12_Lock_policyE2EE14_M_get_deleterERKSt9type_info@Base 3.2.1
 _ZNSt15_Sp_counted_ptrIPN8casacore12LELInterfaceIdEELN9__gnu_cxx12_Lock_policyE2EED0Ev@Base 3.2.1
 _ZNSt15_Sp_counted_ptrIPN8casacore12LELInterfaceIdEELN9__gnu_cxx12_Lock_policyE2EED1Ev@Base 3.2.1
 _ZNSt15_Sp_counted_ptrIPN8casacore12LELInterfaceIdEELN9__gnu_cxx12_Lock_policyE2EED2Ev@Base 3.2.1
 _ZNSt15_Sp_counted_ptrIPN8casacore12LELInterfaceIfEELN9__gnu_cxx12_Lock_policyE2EE10_M_destroyEv@Base 3.2.1
 _ZNSt15_Sp_counted_ptrIPN8casacore12LELInterfaceIfEELN9__gnu_cxx12_Lock_policyE2EE10_M_disposeEv@Base 3.2.1
 _ZNSt15_Sp_counted_ptrIPN8casacore12LELInterfaceIfEELN9__gnu_cxx12_Lock_policyE2EE14_M_get_deleterERKSt9type_info@Base 3.2.1
 _ZNSt15_Sp_counted_ptrIPN8casacore12LELInterfaceIfEELN9__gnu_cxx12_Lock_policyE2EED0Ev@Base 3.2.1
 _ZNSt15_Sp_counted_ptrIPN8casacore12LELInterfaceIfEELN9__gnu_cxx12_Lock_policyE2EED1Ev@Base 3.2.1
 _ZNSt15_Sp_counted_ptrIPN8casacore12LELInterfaceIfEELN9__gnu_cxx12_Lock_policyE2EED2Ev@Base 3.2.1
 _ZNSt15_Sp_counted_ptrIPN8casacore13MaskedLatticeISt7complexIdEEELN9__gnu_cxx12_Lock_policyE2EE10_M_destroyEv@Base 3.2.1
 _ZNSt15_Sp_counted_ptrIPN8casacore13MaskedLatticeISt7complexIdEEELN9__gnu_cxx12_Lock_policyE2EE10_M_disposeEv@Base 3.2.1
 _ZNSt15_Sp_counted_ptrIPN8casacore13MaskedLatticeISt7complexIdEEELN9__gnu_cxx12_Lock_policyE2EE14_M_get_deleterERKSt9type_info@Base 3.2.1
 _ZNSt15_Sp_counted_ptrIPN8casacore13MaskedLatticeISt7complexIdEEELN9__gnu_cxx12_Lock_policyE2EED0Ev@Base 3.2.1
 _ZNSt15_Sp_counted_ptrIPN8casacore13MaskedLatticeISt7complexIdEEELN9__gnu_cxx12_Lock_policyE2EED1Ev@Base 3.2.1
 _ZNSt15_Sp_counted_ptrIPN8casacore13MaskedLatticeISt7complexIdEEELN9__gnu_cxx12_Lock_policyE2EED2Ev@Base 3.2.1
 _ZNSt15_Sp_counted_ptrIPN8casacore13MaskedLatticeISt7complexIfEEELN9__gnu_cxx12_Lock_policyE2EE10_M_destroyEv@Base 3.2.1
 _ZNSt15_Sp_counted_ptrIPN8casacore13MaskedLatticeISt7complexIfEEELN9__gnu_cxx12_Lock_policyE2EE10_M_disposeEv@Base 3.2.1
 _ZNSt15_Sp_counted_ptrIPN8casacore13MaskedLatticeISt7complexIfEEELN9__gnu_cxx12_Lock_policyE2EE14_M_get_deleterERKSt9type_info@Base 3.2.1
 _ZNSt15_Sp_counted_ptrIPN8casacore13MaskedLatticeISt7complexIfEEELN9__gnu_cxx12_Lock_policyE2EED0Ev@Base 3.2.1
 _ZNSt15_Sp_counted_ptrIPN8casacore13MaskedLatticeISt7complexIfEEELN9__gnu_cxx12_Lock_policyE2EED1Ev@Base 3.2.1
 _ZNSt15_Sp_counted_ptrIPN8casacore13MaskedLatticeISt7complexIfEEELN9__gnu_cxx12_Lock_policyE2EED2Ev@Base 3.2.1
 _ZNSt15_Sp_counted_ptrIPN8casacore13MaskedLatticeIbEELN9__gnu_cxx12_Lock_policyE2EE10_M_destroyEv@Base 3.2.1
 _ZNSt15_Sp_counted_ptrIPN8casacore13MaskedLatticeIbEELN9__gnu_cxx12_Lock_policyE2EE10_M_disposeEv@Base 3.2.1
 _ZNSt15_Sp_counted_ptrIPN8casacore13MaskedLatticeIbEELN9__gnu_cxx12_Lock_policyE2EE14_M_get_deleterERKSt9type_info@Base 3.2.1
 _ZNSt15_Sp_counted_ptrIPN8casacore13MaskedLatticeIbEELN9__gnu_cxx12_Lock_policyE2EED0Ev@Base 3.2.1
 _ZNSt15_Sp_counted_ptrIPN8casacore13MaskedLatticeIbEELN9__gnu_cxx12_Lock_policyE2EED1Ev@Base 3.2.1
 _ZNSt15_Sp_counted_ptrIPN8casacore13MaskedLatticeIbEELN9__gnu_cxx12_Lock_policyE2EED2Ev@Base 3.2.1
 _ZNSt15_Sp_counted_ptrIPN8casacore13MaskedLatticeIdEELN9__gnu_cxx12_Lock_policyE2EE10_M_destroyEv@Base 3.2.1
 _ZNSt15_Sp_counted_ptrIPN8casacore13MaskedLatticeIdEELN9__gnu_cxx12_Lock_policyE2EE10_M_disposeEv@Base 3.2.1
 _ZNSt15_Sp_counted_ptrIPN8casacore13MaskedLatticeIdEELN9__gnu_cxx12_Lock_policyE2EE14_M_get_deleterERKSt9type_info@Base 3.2.1
 _ZNSt15_Sp_counted_ptrIPN8casacore13MaskedLatticeIdEELN9__gnu_cxx12_Lock_policyE2EED0Ev@Base 3.2.1
 _ZNSt15_Sp_counted_ptrIPN8casacore13MaskedLatticeIdEELN9__gnu_cxx12_Lock_policyE2EED1Ev@Base 3.2.1
 _ZNSt15_Sp_counted_ptrIPN8casacore13MaskedLatticeIdEELN9__gnu_cxx12_Lock_policyE2EED2Ev@Base 3.2.1
 _ZNSt15_Sp_counted_ptrIPN8casacore13MaskedLatticeIfEELN9__gnu_cxx12_Lock_policyE2EE10_M_destroyEv@Base 3.2.1
 _ZNSt15_Sp_counted_ptrIPN8casacore13MaskedLatticeIfEELN9__gnu_cxx12_Lock_policyE2EE10_M_disposeEv@Base 3.2.1
 _ZNSt15_Sp_counted_ptrIPN8casacore13MaskedLatticeIfEELN9__gnu_cxx12_Lock_policyE2EE14_M_get_deleterERKSt9type_info@Base 3.2.1
 _ZNSt15_Sp_counted_ptrIPN8casacore13MaskedLatticeIfEELN9__gnu_cxx12_Lock_policyE2EED0Ev@Base 3.2.1
 _ZNSt15_Sp_counted_ptrIPN8casacore13MaskedLatticeIfEELN9__gnu_cxx12_Lock_policyE2EED1Ev@Base 3.2.1
 _ZNSt15_Sp_counted_ptrIPN8casacore13MaskedLatticeIfEELN9__gnu_cxx12_Lock_policyE2EED2Ev@Base 3.2.1
 _ZNSt15_Sp_counted_ptrIPN8casacore13ProgressMeterELN9__gnu_cxx12_Lock_policyE2EE10_M_destroyEv@Base 3.2.1
 _ZNSt15_Sp_counted_ptrIPN8casacore13ProgressMeterELN9__gnu_cxx12_Lock_policyE2EE10_M_disposeEv@Base 3.2.1
 _ZNSt15_Sp_counted_ptrIPN8casacore13ProgressMeterELN9__gnu_cxx12_Lock_policyE2EE14_M_get_deleterERKSt9type_info@Base 3.2.1
 _ZNSt15_Sp_counted_ptrIPN8casacore13ProgressMeterELN9__gnu_cxx12_Lock_policyE2EED0Ev@Base 3.2.1
 _ZNSt15_Sp_counted_ptrIPN8casacore13ProgressMeterELN9__gnu_cxx12_Lock_policyE2EED1Ev@Base 3.2.1
 _ZNSt15_Sp_counted_ptrIPN8casacore13ProgressMeterELN9__gnu_cxx12_Lock_policyE2EED2Ev@Base 3.2.1
 _ZNSt15_Sp_counted_ptrIPN8casacore18RO_LatticeIteratorIfEELN9__gnu_cxx12_Lock_policyE2EE10_M_destroyEv@Base 3.2.1
 _ZNSt15_Sp_counted_ptrIPN8casacore18RO_LatticeIteratorIfEELN9__gnu_cxx12_Lock_policyE2EE10_M_disposeEv@Base 3.2.1
 _ZNSt15_Sp_counted_ptrIPN8casacore18RO_LatticeIteratorIfEELN9__gnu_cxx12_Lock_policyE2EE14_M_get_deleterERKSt9type_info@Base 3.2.1
 _ZNSt15_Sp_counted_ptrIPN8casacore18RO_LatticeIteratorIfEELN9__gnu_cxx12_Lock_policyE2EED0Ev@Base 3.2.1
 _ZNSt15_Sp_counted_ptrIPN8casacore18RO_LatticeIteratorIfEELN9__gnu_cxx12_Lock_policyE2EED1Ev@Base 3.2.1
 _ZNSt15_Sp_counted_ptrIPN8casacore18RO_LatticeIteratorIfEELN9__gnu_cxx12_Lock_policyE2EED2Ev@Base 3.2.1
 _ZNSt15_Sp_counted_ptrIPN8casacore24RO_MaskedLatticeIteratorIfEELN9__gnu_cxx12_Lock_policyE2EE10_M_destroyEv@Base 3.2.1
 _ZNSt15_Sp_counted_ptrIPN8casacore24RO_MaskedLatticeIteratorIfEELN9__gnu_cxx12_Lock_policyE2EE10_M_disposeEv@Base 3.2.1
 _ZNSt15_Sp_counted_ptrIPN8casacore24RO_MaskedLatticeIteratorIfEELN9__gnu_cxx12_Lock_policyE2EE14_M_get_deleterERKSt9type_info@Base 3.2.1
 _ZNSt15_Sp_counted_ptrIPN8casacore24RO_MaskedLatticeIteratorIfEELN9__gnu_cxx12_Lock_policyE2EED0Ev@Base 3.2.1
 _ZNSt15_Sp_counted_ptrIPN8casacore24RO_MaskedLatticeIteratorIfEELN9__gnu_cxx12_Lock_policyE2EED1Ev@Base 3.2.1
 _ZNSt15_Sp_counted_ptrIPN8casacore24RO_MaskedLatticeIteratorIfEELN9__gnu_cxx12_Lock_policyE2EED2Ev@Base 3.2.1
 _ZNSt15_Sp_counted_ptrIPN8casacore5BlockINS0_6VectorIdEEEELN9__gnu_cxx12_Lock_policyE2EE10_M_destroyEv@Base 3.2.1
 _ZNSt15_Sp_counted_ptrIPN8casacore5BlockINS0_6VectorIdEEEELN9__gnu_cxx12_Lock_policyE2EE10_M_disposeEv@Base 3.2.1
 _ZNSt15_Sp_counted_ptrIPN8casacore5BlockINS0_6VectorIdEEEELN9__gnu_cxx12_Lock_policyE2EE14_M_get_deleterERKSt9type_info@Base 3.2.1
 _ZNSt15_Sp_counted_ptrIPN8casacore5BlockINS0_6VectorIdEEEELN9__gnu_cxx12_Lock_policyE2EED0Ev@Base 3.2.1
 _ZNSt15_Sp_counted_ptrIPN8casacore5BlockINS0_6VectorIdEEEELN9__gnu_cxx12_Lock_policyE2EED1Ev@Base 3.2.1
 _ZNSt15_Sp_counted_ptrIPN8casacore5BlockINS0_6VectorIdEEEELN9__gnu_cxx12_Lock_policyE2EED2Ev@Base 3.2.1
 _ZNSt15_Sp_counted_ptrIPN8casacore5BlockINS0_8AutoDiffIdEEEELN9__gnu_cxx12_Lock_policyE2EE10_M_destroyEv@Base 3.2.1
 _ZNSt15_Sp_counted_ptrIPN8casacore5BlockINS0_8AutoDiffIdEEEELN9__gnu_cxx12_Lock_policyE2EE10_M_disposeEv@Base 3.2.1
 _ZNSt15_Sp_counted_ptrIPN8casacore5BlockINS0_8AutoDiffIdEEEELN9__gnu_cxx12_Lock_policyE2EE14_M_get_deleterERKSt9type_info@Base 3.2.1
 _ZNSt15_Sp_counted_ptrIPN8casacore5BlockINS0_8AutoDiffIdEEEELN9__gnu_cxx12_Lock_policyE2EED0Ev@Base 3.2.1
 _ZNSt15_Sp_counted_ptrIPN8casacore5BlockINS0_8AutoDiffIdEEEELN9__gnu_cxx12_Lock_policyE2EED1Ev@Base 3.2.1
 _ZNSt15_Sp_counted_ptrIPN8casacore5BlockINS0_8AutoDiffIdEEEELN9__gnu_cxx12_Lock_policyE2EED2Ev@Base 3.2.1
 _ZNSt15_Sp_counted_ptrIPN8casacore5BlockINS0_8AutoDiffIfEEEELN9__gnu_cxx12_Lock_policyE2EE10_M_destroyEv@Base 3.2.1
 _ZNSt15_Sp_counted_ptrIPN8casacore5BlockINS0_8AutoDiffIfEEEELN9__gnu_cxx12_Lock_policyE2EE10_M_disposeEv@Base 3.2.1
 _ZNSt15_Sp_counted_ptrIPN8casacore5BlockINS0_8AutoDiffIfEEEELN9__gnu_cxx12_Lock_policyE2EE14_M_get_deleterERKSt9type_info@Base 3.2.1
 _ZNSt15_Sp_counted_ptrIPN8casacore5BlockINS0_8AutoDiffIfEEEELN9__gnu_cxx12_Lock_policyE2EED0Ev@Base 3.2.1
 _ZNSt15_Sp_counted_ptrIPN8casacore5BlockINS0_8AutoDiffIfEEEELN9__gnu_cxx12_Lock_policyE2EED1Ev@Base 3.2.1
 _ZNSt15_Sp_counted_ptrIPN8casacore5BlockINS0_8AutoDiffIfEEEELN9__gnu_cxx12_Lock_policyE2EED2Ev@Base 3.2.1
 _ZNSt15_Sp_counted_ptrIPN8casacore5BlockISt7complexIdEEELN9__gnu_cxx12_Lock_policyE2EE10_M_destroyEv@Base 3.2.1
 _ZNSt15_Sp_counted_ptrIPN8casacore5BlockISt7complexIdEEELN9__gnu_cxx12_Lock_policyE2EE10_M_disposeEv@Base 3.2.1
 _ZNSt15_Sp_counted_ptrIPN8casacore5BlockISt7complexIdEEELN9__gnu_cxx12_Lock_policyE2EE14_M_get_deleterERKSt9type_info@Base 3.2.1
 _ZNSt15_Sp_counted_ptrIPN8casacore5BlockISt7complexIdEEELN9__gnu_cxx12_Lock_policyE2EED0Ev@Base 3.2.1
 _ZNSt15_Sp_counted_ptrIPN8casacore5BlockISt7complexIdEEELN9__gnu_cxx12_Lock_policyE2EED1Ev@Base 3.2.1
 _ZNSt15_Sp_counted_ptrIPN8casacore5BlockISt7complexIdEEELN9__gnu_cxx12_Lock_policyE2EED2Ev@Base 3.2.1
 _ZNSt15_Sp_counted_ptrIPN8casacore5BlockIbEELN9__gnu_cxx12_Lock_policyE2EE10_M_destroyEv@Base 3.2.1
 _ZNSt15_Sp_counted_ptrIPN8casacore5BlockIbEELN9__gnu_cxx12_Lock_policyE2EE10_M_disposeEv@Base 3.2.1
 _ZNSt15_Sp_counted_ptrIPN8casacore5BlockIbEELN9__gnu_cxx12_Lock_policyE2EE14_M_get_deleterERKSt9type_info@Base 3.2.1
 _ZNSt15_Sp_counted_ptrIPN8casacore5BlockIbEELN9__gnu_cxx12_Lock_policyE2EED0Ev@Base 3.2.1
 _ZNSt15_Sp_counted_ptrIPN8casacore5BlockIbEELN9__gnu_cxx12_Lock_policyE2EED1Ev@Base 3.2.1
 _ZNSt15_Sp_counted_ptrIPN8casacore5BlockIbEELN9__gnu_cxx12_Lock_policyE2EED2Ev@Base 3.2.1
 _ZNSt15_Sp_counted_ptrIPN8casacore5BlockIdEELN9__gnu_cxx12_Lock_policyE2EE10_M_destroyEv@Base 3.2.1
 _ZNSt15_Sp_counted_ptrIPN8casacore5BlockIdEELN9__gnu_cxx12_Lock_policyE2EE10_M_disposeEv@Base 3.2.1
 _ZNSt15_Sp_counted_ptrIPN8casacore5BlockIdEELN9__gnu_cxx12_Lock_policyE2EE14_M_get_deleterERKSt9type_info@Base 3.2.1
 _ZNSt15_Sp_counted_ptrIPN8casacore5BlockIdEELN9__gnu_cxx12_Lock_policyE2EED0Ev@Base 3.2.1
 _ZNSt15_Sp_counted_ptrIPN8casacore5BlockIdEELN9__gnu_cxx12_Lock_policyE2EED1Ev@Base 3.2.1
 _ZNSt15_Sp_counted_ptrIPN8casacore5BlockIdEELN9__gnu_cxx12_Lock_policyE2EED2Ev@Base 3.2.1
 _ZNSt15_Sp_counted_ptrIPN8casacore5BlockIfEELN9__gnu_cxx12_Lock_policyE2EE10_M_destroyEv@Base 3.2.1
 _ZNSt15_Sp_counted_ptrIPN8casacore5BlockIfEELN9__gnu_cxx12_Lock_policyE2EE10_M_disposeEv@Base 3.2.1
 _ZNSt15_Sp_counted_ptrIPN8casacore5BlockIfEELN9__gnu_cxx12_Lock_policyE2EE14_M_get_deleterERKSt9type_info@Base 3.2.1
 _ZNSt15_Sp_counted_ptrIPN8casacore5BlockIfEELN9__gnu_cxx12_Lock_policyE2EED0Ev@Base 3.2.1
 _ZNSt15_Sp_counted_ptrIPN8casacore5BlockIfEELN9__gnu_cxx12_Lock_policyE2EED1Ev@Base 3.2.1
 _ZNSt15_Sp_counted_ptrIPN8casacore5BlockIfEELN9__gnu_cxx12_Lock_policyE2EED2Ev@Base 3.2.1
 _ZNSt15_Sp_counted_ptrIPN8casacore7LatticeIbEELN9__gnu_cxx12_Lock_policyE2EE10_M_destroyEv@Base 3.2.1
 _ZNSt15_Sp_counted_ptrIPN8casacore7LatticeIbEELN9__gnu_cxx12_Lock_policyE2EE10_M_disposeEv@Base 3.2.1
 _ZNSt15_Sp_counted_ptrIPN8casacore7LatticeIbEELN9__gnu_cxx12_Lock_policyE2EE14_M_get_deleterERKSt9type_info@Base 3.2.1
 _ZNSt15_Sp_counted_ptrIPN8casacore7LatticeIbEELN9__gnu_cxx12_Lock_policyE2EED0Ev@Base 3.2.1
 _ZNSt15_Sp_counted_ptrIPN8casacore7LatticeIbEELN9__gnu_cxx12_Lock_policyE2EED1Ev@Base 3.2.1
 _ZNSt15_Sp_counted_ptrIPN8casacore7LatticeIbEELN9__gnu_cxx12_Lock_policyE2EED2Ev@Base 3.2.1
 _ZNSt15_Sp_counted_ptrIPN8casacore7LatticeIdEELN9__gnu_cxx12_Lock_policyE2EE10_M_destroyEv@Base 3.2.1
 _ZNSt15_Sp_counted_ptrIPN8casacore7LatticeIdEELN9__gnu_cxx12_Lock_policyE2EE10_M_disposeEv@Base 3.2.1
 _ZNSt15_Sp_counted_ptrIPN8casacore7LatticeIdEELN9__gnu_cxx12_Lock_policyE2EE14_M_get_deleterERKSt9type_info@Base 3.2.1
 _ZNSt15_Sp_counted_ptrIPN8casacore7LatticeIdEELN9__gnu_cxx12_Lock_policyE2EED0Ev@Base 3.2.1
 _ZNSt15_Sp_counted_ptrIPN8casacore7LatticeIdEELN9__gnu_cxx12_Lock_policyE2EED1Ev@Base 3.2.1
 _ZNSt15_Sp_counted_ptrIPN8casacore7LatticeIdEELN9__gnu_cxx12_Lock_policyE2EED2Ev@Base 3.2.1
 _ZNSt15_Sp_counted_ptrIPN8casacore8HDF5FileELN9__gnu_cxx12_Lock_policyE2EE10_M_destroyEv@Base 3.2.1
 _ZNSt15_Sp_counted_ptrIPN8casacore8HDF5FileELN9__gnu_cxx12_Lock_policyE2EE10_M_disposeEv@Base 3.2.1
 _ZNSt15_Sp_counted_ptrIPN8casacore8HDF5FileELN9__gnu_cxx12_Lock_policyE2EE14_M_get_deleterERKSt9type_info@Base 3.2.1
 _ZNSt15_Sp_counted_ptrIPN8casacore8HDF5FileELN9__gnu_cxx12_Lock_policyE2EED0Ev@Base 3.2.1
 _ZNSt15_Sp_counted_ptrIPN8casacore8HDF5FileELN9__gnu_cxx12_Lock_policyE2EED1Ev@Base 3.2.1
 _ZNSt15_Sp_counted_ptrIPN8casacore8HDF5FileELN9__gnu_cxx12_Lock_policyE2EED2Ev@Base 3.2.1
 _ZNSt15_Sp_counted_ptrIPN8casacore9HDF5GroupELN9__gnu_cxx12_Lock_policyE2EE10_M_destroyEv@Base 3.2.1
 _ZNSt15_Sp_counted_ptrIPN8casacore9HDF5GroupELN9__gnu_cxx12_Lock_policyE2EE10_M_disposeEv@Base 3.2.1
 _ZNSt15_Sp_counted_ptrIPN8casacore9HDF5GroupELN9__gnu_cxx12_Lock_policyE2EE14_M_get_deleterERKSt9type_info@Base 3.2.1
 _ZNSt15_Sp_counted_ptrIPN8casacore9HDF5GroupELN9__gnu_cxx12_Lock_policyE2EED0Ev@Base 3.2.1
 _ZNSt15_Sp_counted_ptrIPN8casacore9HDF5GroupELN9__gnu_cxx12_Lock_policyE2EED1Ev@Base 3.2.1
 _ZNSt15_Sp_counted_ptrIPN8casacore9HDF5GroupELN9__gnu_cxx12_Lock_policyE2EED2Ev@Base 3.2.1
 _ZNSt15_Sp_counted_ptrIPSt4pairIddELN9__gnu_cxx12_Lock_policyE2EE10_M_destroyEv@Base 3.2.1
 _ZNSt15_Sp_counted_ptrIPSt4pairIddELN9__gnu_cxx12_Lock_policyE2EE10_M_disposeEv@Base 3.2.1
 _ZNSt15_Sp_counted_ptrIPSt4pairIddELN9__gnu_cxx12_Lock_policyE2EE14_M_get_deleterERKSt9type_info@Base 3.2.1
 _ZNSt15_Sp_counted_ptrIPSt4pairIddELN9__gnu_cxx12_Lock_policyE2EED0Ev@Base 3.2.1
 _ZNSt15_Sp_counted_ptrIPSt4pairIddELN9__gnu_cxx12_Lock_policyE2EED1Ev@Base 3.2.1
 _ZNSt15_Sp_counted_ptrIPSt4pairIddELN9__gnu_cxx12_Lock_policyE2EED2Ev@Base 3.2.1
 _ZNSt15_Sp_counted_ptrIPdLN9__gnu_cxx12_Lock_policyE2EE10_M_destroyEv@Base 3.2.1
 _ZNSt15_Sp_counted_ptrIPdLN9__gnu_cxx12_Lock_policyE2EE10_M_disposeEv@Base 3.2.1
 _ZNSt15_Sp_counted_ptrIPdLN9__gnu_cxx12_Lock_policyE2EE14_M_get_deleterERKSt9type_info@Base 3.2.1
 _ZNSt15_Sp_counted_ptrIPdLN9__gnu_cxx12_Lock_policyE2EED0Ev@Base 3.2.1
 _ZNSt15_Sp_counted_ptrIPdLN9__gnu_cxx12_Lock_policyE2EED1Ev@Base 3.2.1
 _ZNSt15_Sp_counted_ptrIPdLN9__gnu_cxx12_Lock_policyE2EED2Ev@Base 3.2.1
 _ZNSt16_Sp_counted_baseILN9__gnu_cxx12_Lock_policyE2EE10_M_releaseEv@Base 3.2.1
 _ZNSt19_Sp_counted_deleterIPN8casacore11TempLatticeIdEENS0_10CountedPtrIS2_E7DeleterIS2_EESaIvELN9__gnu_cxx12_Lock_policyE2EE10_M_destroyEv@Base 3.2.1
 _ZNSt19_Sp_counted_deleterIPN8casacore11TempLatticeIdEENS0_10CountedPtrIS2_E7DeleterIS2_EESaIvELN9__gnu_cxx12_Lock_policyE2EE10_M_disposeEv@Base 3.2.1
 _ZNSt19_Sp_counted_deleterIPN8casacore11TempLatticeIdEENS0_10CountedPtrIS2_E7DeleterIS2_EESaIvELN9__gnu_cxx12_Lock_policyE2EE14_M_get_deleterERKSt9type_info@Base 3.2.1
 _ZNSt19_Sp_counted_deleterIPN8casacore11TempLatticeIdEENS0_10CountedPtrIS2_E7DeleterIS2_EESaIvELN9__gnu_cxx12_Lock_policyE2EED0Ev@Base 3.2.1
 _ZNSt19_Sp_counted_deleterIPN8casacore11TempLatticeIdEENS0_10CountedPtrIS2_E7DeleterIS2_EESaIvELN9__gnu_cxx12_Lock_policyE2EED1Ev@Base 3.2.1
 _ZNSt19_Sp_counted_deleterIPN8casacore11TempLatticeIdEENS0_10CountedPtrIS2_E7DeleterIS2_EESaIvELN9__gnu_cxx12_Lock_policyE2EED2Ev@Base 3.2.1
 _ZNSt19_Sp_counted_deleterIPN8casacore12LELInterfaceISt7complexIdEEENS0_10CountedPtrIS4_E7DeleterIS4_EESaIvELN9__gnu_cxx12_Lock_policyE2EE10_M_destroyEv@Base 3.2.1
 _ZNSt19_Sp_counted_deleterIPN8casacore12LELInterfaceISt7complexIdEEENS0_10CountedPtrIS4_E7DeleterIS4_EESaIvELN9__gnu_cxx12_Lock_policyE2EE10_M_disposeEv@Base 3.2.1
 _ZNSt19_Sp_counted_deleterIPN8casacore12LELInterfaceISt7complexIdEEENS0_10CountedPtrIS4_E7DeleterIS4_EESaIvELN9__gnu_cxx12_Lock_policyE2EE14_M_get_deleterERKSt9type_info@Base 3.2.1
 _ZNSt19_Sp_counted_deleterIPN8casacore12LELInterfaceISt7complexIdEEENS0_10CountedPtrIS4_E7DeleterIS4_EESaIvELN9__gnu_cxx12_Lock_policyE2EED0Ev@Base 3.2.1
 _ZNSt19_Sp_counted_deleterIPN8casacore12LELInterfaceISt7complexIdEEENS0_10CountedPtrIS4_E7DeleterIS4_EESaIvELN9__gnu_cxx12_Lock_policyE2EED1Ev@Base 3.2.1
 _ZNSt19_Sp_counted_deleterIPN8casacore12LELInterfaceISt7complexIdEEENS0_10CountedPtrIS4_E7DeleterIS4_EESaIvELN9__gnu_cxx12_Lock_policyE2EED2Ev@Base 3.2.1
 _ZNSt19_Sp_counted_deleterIPN8casacore12LELInterfaceISt7complexIfEEENS0_10CountedPtrIS4_E7DeleterIS4_EESaIvELN9__gnu_cxx12_Lock_policyE2EE10_M_destroyEv@Base 3.2.1
 _ZNSt19_Sp_counted_deleterIPN8casacore12LELInterfaceISt7complexIfEEENS0_10CountedPtrIS4_E7DeleterIS4_EESaIvELN9__gnu_cxx12_Lock_policyE2EE10_M_disposeEv@Base 3.2.1
 _ZNSt19_Sp_counted_deleterIPN8casacore12LELInterfaceISt7complexIfEEENS0_10CountedPtrIS4_E7DeleterIS4_EESaIvELN9__gnu_cxx12_Lock_policyE2EE14_M_get_deleterERKSt9type_info@Base 3.2.1
 _ZNSt19_Sp_counted_deleterIPN8casacore12LELInterfaceISt7complexIfEEENS0_10CountedPtrIS4_E7DeleterIS4_EESaIvELN9__gnu_cxx12_Lock_policyE2EED0Ev@Base 3.2.1
 _ZNSt19_Sp_counted_deleterIPN8casacore12LELInterfaceISt7complexIfEEENS0_10CountedPtrIS4_E7DeleterIS4_EESaIvELN9__gnu_cxx12_Lock_policyE2EED1Ev@Base 3.2.1
 _ZNSt19_Sp_counted_deleterIPN8casacore12LELInterfaceISt7complexIfEEENS0_10CountedPtrIS4_E7DeleterIS4_EESaIvELN9__gnu_cxx12_Lock_policyE2EED2Ev@Base 3.2.1
 _ZNSt19_Sp_counted_deleterIPN8casacore12LELInterfaceIbEENS0_10CountedPtrIS2_E7DeleterIS2_EESaIvELN9__gnu_cxx12_Lock_policyE2EE10_M_destroyEv@Base 3.2.1
 _ZNSt19_Sp_counted_deleterIPN8casacore12LELInterfaceIbEENS0_10CountedPtrIS2_E7DeleterIS2_EESaIvELN9__gnu_cxx12_Lock_policyE2EE10_M_disposeEv@Base 3.2.1
 _ZNSt19_Sp_counted_deleterIPN8casacore12LELInterfaceIbEENS0_10CountedPtrIS2_E7DeleterIS2_EESaIvELN9__gnu_cxx12_Lock_policyE2EE14_M_get_deleterERKSt9type_info@Base 3.2.1
 _ZNSt19_Sp_counted_deleterIPN8casacore12LELInterfaceIbEENS0_10CountedPtrIS2_E7DeleterIS2_EESaIvELN9__gnu_cxx12_Lock_policyE2EED0Ev@Base 3.2.1
 _ZNSt19_Sp_counted_deleterIPN8casacore12LELInterfaceIbEENS0_10CountedPtrIS2_E7DeleterIS2_EESaIvELN9__gnu_cxx12_Lock_policyE2EED1Ev@Base 3.2.1
 _ZNSt19_Sp_counted_deleterIPN8casacore12LELInterfaceIbEENS0_10CountedPtrIS2_E7DeleterIS2_EESaIvELN9__gnu_cxx12_Lock_policyE2EED2Ev@Base 3.2.1
 _ZNSt19_Sp_counted_deleterIPN8casacore12LELInterfaceIdEENS0_10CountedPtrIS2_E7DeleterIS2_EESaIvELN9__gnu_cxx12_Lock_policyE2EE10_M_destroyEv@Base 3.2.1
 _ZNSt19_Sp_counted_deleterIPN8casacore12LELInterfaceIdEENS0_10CountedPtrIS2_E7DeleterIS2_EESaIvELN9__gnu_cxx12_Lock_policyE2EE10_M_disposeEv@Base 3.2.1
 _ZNSt19_Sp_counted_deleterIPN8casacore12LELInterfaceIdEENS0_10CountedPtrIS2_E7DeleterIS2_EESaIvELN9__gnu_cxx12_Lock_policyE2EE14_M_get_deleterERKSt9type_info@Base 3.2.1
 _ZNSt19_Sp_counted_deleterIPN8casacore12LELInterfaceIdEENS0_10CountedPtrIS2_E7DeleterIS2_EESaIvELN9__gnu_cxx12_Lock_policyE2EED0Ev@Base 3.2.1
 _ZNSt19_Sp_counted_deleterIPN8casacore12LELInterfaceIdEENS0_10CountedPtrIS2_E7DeleterIS2_EESaIvELN9__gnu_cxx12_Lock_policyE2EED1Ev@Base 3.2.1
 _ZNSt19_Sp_counted_deleterIPN8casacore12LELInterfaceIdEENS0_10CountedPtrIS2_E7DeleterIS2_EESaIvELN9__gnu_cxx12_Lock_policyE2EED2Ev@Base 3.2.1
 _ZNSt19_Sp_counted_deleterIPN8casacore12LELInterfaceIfEENS0_10CountedPtrIS2_E7DeleterIS2_EESaIvELN9__gnu_cxx12_Lock_policyE2EE10_M_destroyEv@Base 3.2.1
 _ZNSt19_Sp_counted_deleterIPN8casacore12LELInterfaceIfEENS0_10CountedPtrIS2_E7DeleterIS2_EESaIvELN9__gnu_cxx12_Lock_policyE2EE10_M_disposeEv@Base 3.2.1
 _ZNSt19_Sp_counted_deleterIPN8casacore12LELInterfaceIfEENS0_10CountedPtrIS2_E7DeleterIS2_EESaIvELN9__gnu_cxx12_Lock_policyE2EE14_M_get_deleterERKSt9type_info@Base 3.2.1
 _ZNSt19_Sp_counted_deleterIPN8casacore12LELInterfaceIfEENS0_10CountedPtrIS2_E7DeleterIS2_EESaIvELN9__gnu_cxx12_Lock_policyE2EED0Ev@Base 3.2.1
 _ZNSt19_Sp_counted_deleterIPN8casacore12LELInterfaceIfEENS0_10CountedPtrIS2_E7DeleterIS2_EESaIvELN9__gnu_cxx12_Lock_policyE2EED1Ev@Base 3.2.1
 _ZNSt19_Sp_counted_deleterIPN8casacore12LELInterfaceIfEENS0_10CountedPtrIS2_E7DeleterIS2_EESaIvELN9__gnu_cxx12_Lock_policyE2EED2Ev@Base 3.2.1
 _ZNSt19_Sp_counted_deleterIPN8casacore13MaskedLatticeISt7complexIdEEENS0_10CountedPtrIS4_E7DeleterIS4_EESaIvELN9__gnu_cxx12_Lock_policyE2EE10_M_destroyEv@Base 3.2.1
 _ZNSt19_Sp_counted_deleterIPN8casacore13MaskedLatticeISt7complexIdEEENS0_10CountedPtrIS4_E7DeleterIS4_EESaIvELN9__gnu_cxx12_Lock_policyE2EE10_M_disposeEv@Base 3.2.1
 _ZNSt19_Sp_counted_deleterIPN8casacore13MaskedLatticeISt7complexIdEEENS0_10CountedPtrIS4_E7DeleterIS4_EESaIvELN9__gnu_cxx12_Lock_policyE2EE14_M_get_deleterERKSt9type_info@Base 3.2.1
 _ZNSt19_Sp_counted_deleterIPN8casacore13MaskedLatticeISt7complexIdEEENS0_10CountedPtrIS4_E7DeleterIS4_EESaIvELN9__gnu_cxx12_Lock_policyE2EED0Ev@Base 3.2.1
 _ZNSt19_Sp_counted_deleterIPN8casacore13MaskedLatticeISt7complexIdEEENS0_10CountedPtrIS4_E7DeleterIS4_EESaIvELN9__gnu_cxx12_Lock_policyE2EED1Ev@Base 3.2.1
 _ZNSt19_Sp_counted_deleterIPN8casacore13MaskedLatticeISt7complexIdEEENS0_10CountedPtrIS4_E7DeleterIS4_EESaIvELN9__gnu_cxx12_Lock_policyE2EED2Ev@Base 3.2.1
 _ZNSt19_Sp_counted_deleterIPN8casacore13MaskedLatticeISt7complexIfEEENS0_10CountedPtrIS4_E7DeleterIS4_EESaIvELN9__gnu_cxx12_Lock_policyE2EE10_M_destroyEv@Base 3.2.1
 _ZNSt19_Sp_counted_deleterIPN8casacore13MaskedLatticeISt7complexIfEEENS0_10CountedPtrIS4_E7DeleterIS4_EESaIvELN9__gnu_cxx12_Lock_policyE2EE10_M_disposeEv@Base 3.2.1
 _ZNSt19_Sp_counted_deleterIPN8casacore13MaskedLatticeISt7complexIfEEENS0_10CountedPtrIS4_E7DeleterIS4_EESaIvELN9__gnu_cxx12_Lock_policyE2EE14_M_get_deleterERKSt9type_info@Base 3.2.1
 _ZNSt19_Sp_counted_deleterIPN8casacore13MaskedLatticeISt7complexIfEEENS0_10CountedPtrIS4_E7DeleterIS4_EESaIvELN9__gnu_cxx12_Lock_policyE2EED0Ev@Base 3.2.1
 _ZNSt19_Sp_counted_deleterIPN8casacore13MaskedLatticeISt7complexIfEEENS0_10CountedPtrIS4_E7DeleterIS4_EESaIvELN9__gnu_cxx12_Lock_policyE2EED1Ev@Base 3.2.1
 _ZNSt19_Sp_counted_deleterIPN8casacore13MaskedLatticeISt7complexIfEEENS0_10CountedPtrIS4_E7DeleterIS4_EESaIvELN9__gnu_cxx12_Lock_policyE2EED2Ev@Base 3.2.1
 _ZNSt19_Sp_counted_deleterIPN8casacore13MaskedLatticeIbEENS0_10CountedPtrIS2_E7DeleterIS2_EESaIvELN9__gnu_cxx12_Lock_policyE2EE10_M_destroyEv@Base 3.2.1
 _ZNSt19_Sp_counted_deleterIPN8casacore13MaskedLatticeIbEENS0_10CountedPtrIS2_E7DeleterIS2_EESaIvELN9__gnu_cxx12_Lock_policyE2EE10_M_disposeEv@Base 3.2.1
 _ZNSt19_Sp_counted_deleterIPN8casacore13MaskedLatticeIbEENS0_10CountedPtrIS2_E7DeleterIS2_EESaIvELN9__gnu_cxx12_Lock_policyE2EE14_M_get_deleterERKSt9type_info@Base 3.2.1
 _ZNSt19_Sp_counted_deleterIPN8casacore13MaskedLatticeIbEENS0_10CountedPtrIS2_E7DeleterIS2_EESaIvELN9__gnu_cxx12_Lock_policyE2EED0Ev@Base 3.2.1
 _ZNSt19_Sp_counted_deleterIPN8casacore13MaskedLatticeIbEENS0_10CountedPtrIS2_E7DeleterIS2_EESaIvELN9__gnu_cxx12_Lock_policyE2EED1Ev@Base 3.2.1
 _ZNSt19_Sp_counted_deleterIPN8casacore13MaskedLatticeIbEENS0_10CountedPtrIS2_E7DeleterIS2_EESaIvELN9__gnu_cxx12_Lock_policyE2EED2Ev@Base 3.2.1
 _ZNSt19_Sp_counted_deleterIPN8casacore13MaskedLatticeIdEENS0_10CountedPtrIS2_E7DeleterIS2_EESaIvELN9__gnu_cxx12_Lock_policyE2EE10_M_destroyEv@Base 3.2.1
 _ZNSt19_Sp_counted_deleterIPN8casacore13MaskedLatticeIdEENS0_10CountedPtrIS2_E7DeleterIS2_EESaIvELN9__gnu_cxx12_Lock_policyE2EE10_M_disposeEv@Base 3.2.1
 _ZNSt19_Sp_counted_deleterIPN8casacore13MaskedLatticeIdEENS0_10CountedPtrIS2_E7DeleterIS2_EESaIvELN9__gnu_cxx12_Lock_policyE2EE14_M_get_deleterERKSt9type_info@Base 3.2.1
 _ZNSt19_Sp_counted_deleterIPN8casacore13MaskedLatticeIdEENS0_10CountedPtrIS2_E7DeleterIS2_EESaIvELN9__gnu_cxx12_Lock_policyE2EED0Ev@Base 3.2.1
 _ZNSt19_Sp_counted_deleterIPN8casacore13MaskedLatticeIdEENS0_10CountedPtrIS2_E7DeleterIS2_EESaIvELN9__gnu_cxx12_Lock_policyE2EED1Ev@Base 3.2.1
 _ZNSt19_Sp_counted_deleterIPN8casacore13MaskedLatticeIdEENS0_10CountedPtrIS2_E7DeleterIS2_EESaIvELN9__gnu_cxx12_Lock_policyE2EED2Ev@Base 3.2.1
 _ZNSt19_Sp_counted_deleterIPN8casacore13MaskedLatticeIfEENS0_10CountedPtrIS2_E7DeleterIS2_EESaIvELN9__gnu_cxx12_Lock_policyE2EE10_M_destroyEv@Base 3.2.1
 _ZNSt19_Sp_counted_deleterIPN8casacore13MaskedLatticeIfEENS0_10CountedPtrIS2_E7DeleterIS2_EESaIvELN9__gnu_cxx12_Lock_policyE2EE10_M_disposeEv@Base 3.2.1
 _ZNSt19_Sp_counted_deleterIPN8casacore13MaskedLatticeIfEENS0_10CountedPtrIS2_E7DeleterIS2_EESaIvELN9__gnu_cxx12_Lock_policyE2EE14_M_get_deleterERKSt9type_info@Base 3.2.1
 _ZNSt19_Sp_counted_deleterIPN8casacore13MaskedLatticeIfEENS0_10CountedPtrIS2_E7DeleterIS2_EESaIvELN9__gnu_cxx12_Lock_policyE2EED0Ev@Base 3.2.1
 _ZNSt19_Sp_counted_deleterIPN8casacore13MaskedLatticeIfEENS0_10CountedPtrIS2_E7DeleterIS2_EESaIvELN9__gnu_cxx12_Lock_policyE2EED1Ev@Base 3.2.1
 _ZNSt19_Sp_counted_deleterIPN8casacore13MaskedLatticeIfEENS0_10CountedPtrIS2_E7DeleterIS2_EESaIvELN9__gnu_cxx12_Lock_policyE2EED2Ev@Base 3.2.1
 _ZNSt19_Sp_counted_deleterIPN8casacore15TempLatticeImplIbEENS0_10CountedPtrIS2_E7DeleterIS2_EESaIvELN9__gnu_cxx12_Lock_policyE2EE10_M_destroyEv@Base 3.2.1
 _ZNSt19_Sp_counted_deleterIPN8casacore15TempLatticeImplIbEENS0_10CountedPtrIS2_E7DeleterIS2_EESaIvELN9__gnu_cxx12_Lock_policyE2EE10_M_disposeEv@Base 3.2.1
 _ZNSt19_Sp_counted_deleterIPN8casacore15TempLatticeImplIbEENS0_10CountedPtrIS2_E7DeleterIS2_EESaIvELN9__gnu_cxx12_Lock_policyE2EE14_M_get_deleterERKSt9type_info@Base 3.2.1
 _ZNSt19_Sp_counted_deleterIPN8casacore15TempLatticeImplIbEENS0_10CountedPtrIS2_E7DeleterIS2_EESaIvELN9__gnu_cxx12_Lock_policyE2EED0Ev@Base 3.2.1
 _ZNSt19_Sp_counted_deleterIPN8casacore15TempLatticeImplIbEENS0_10CountedPtrIS2_E7DeleterIS2_EESaIvELN9__gnu_cxx12_Lock_policyE2EED1Ev@Base 3.2.1
 _ZNSt19_Sp_counted_deleterIPN8casacore15TempLatticeImplIbEENS0_10CountedPtrIS2_E7DeleterIS2_EESaIvELN9__gnu_cxx12_Lock_policyE2EED2Ev@Base 3.2.1
 _ZNSt19_Sp_counted_deleterIPN8casacore15TempLatticeImplIdEENS0_10CountedPtrIS2_E7DeleterIS2_EESaIvELN9__gnu_cxx12_Lock_policyE2EE10_M_destroyEv@Base 3.2.1
 _ZNSt19_Sp_counted_deleterIPN8casacore15TempLatticeImplIdEENS0_10CountedPtrIS2_E7DeleterIS2_EESaIvELN9__gnu_cxx12_Lock_policyE2EE10_M_disposeEv@Base 3.2.1
 _ZNSt19_Sp_counted_deleterIPN8casacore15TempLatticeImplIdEENS0_10CountedPtrIS2_E7DeleterIS2_EESaIvELN9__gnu_cxx12_Lock_policyE2EE14_M_get_deleterERKSt9type_info@Base 3.2.1
 _ZNSt19_Sp_counted_deleterIPN8casacore15TempLatticeImplIdEENS0_10CountedPtrIS2_E7DeleterIS2_EESaIvELN9__gnu_cxx12_Lock_policyE2EED0Ev@Base 3.2.1
 _ZNSt19_Sp_counted_deleterIPN8casacore15TempLatticeImplIdEENS0_10CountedPtrIS2_E7DeleterIS2_EESaIvELN9__gnu_cxx12_Lock_policyE2EED1Ev@Base 3.2.1
 _ZNSt19_Sp_counted_deleterIPN8casacore15TempLatticeImplIdEENS0_10CountedPtrIS2_E7DeleterIS2_EESaIvELN9__gnu_cxx12_Lock_policyE2EED2Ev@Base 3.2.1
 _ZNSt19_Sp_counted_deleterIPN8casacore16LELLattCoordBaseENS0_10CountedPtrIS1_E7DeleterIS1_EESaIvELN9__gnu_cxx12_Lock_policyE2EE10_M_destroyEv@Base 3.2.1
 _ZNSt19_Sp_counted_deleterIPN8casacore16LELLattCoordBaseENS0_10CountedPtrIS1_E7DeleterIS1_EESaIvELN9__gnu_cxx12_Lock_policyE2EE10_M_disposeEv@Base 3.2.1
 _ZNSt19_Sp_counted_deleterIPN8casacore16LELLattCoordBaseENS0_10CountedPtrIS1_E7DeleterIS1_EESaIvELN9__gnu_cxx12_Lock_policyE2EE14_M_get_deleterERKSt9type_info@Base 3.2.1
 _ZNSt19_Sp_counted_deleterIPN8casacore16LELLattCoordBaseENS0_10CountedPtrIS1_E7DeleterIS1_EESaIvELN9__gnu_cxx12_Lock_policyE2EED0Ev@Base 3.2.1
 _ZNSt19_Sp_counted_deleterIPN8casacore16LELLattCoordBaseENS0_10CountedPtrIS1_E7DeleterIS1_EESaIvELN9__gnu_cxx12_Lock_policyE2EED1Ev@Base 3.2.1
 _ZNSt19_Sp_counted_deleterIPN8casacore16LELLattCoordBaseENS0_10CountedPtrIS1_E7DeleterIS1_EESaIvELN9__gnu_cxx12_Lock_policyE2EED2Ev@Base 3.2.1
 _ZNSt19_Sp_counted_deleterIPN8casacore17LattStatsProgressENS0_10CountedPtrIS1_E7DeleterIS1_EESaIvELN9__gnu_cxx12_Lock_policyE2EE10_M_destroyEv@Base 3.2.1
 _ZNSt19_Sp_counted_deleterIPN8casacore17LattStatsProgressENS0_10CountedPtrIS1_E7DeleterIS1_EESaIvELN9__gnu_cxx12_Lock_policyE2EE10_M_disposeEv@Base 3.2.1
 _ZNSt19_Sp_counted_deleterIPN8casacore17LattStatsProgressENS0_10CountedPtrIS1_E7DeleterIS1_EESaIvELN9__gnu_cxx12_Lock_policyE2EE14_M_get_deleterERKSt9type_info@Base 3.2.1
 _ZNSt19_Sp_counted_deleterIPN8casacore17LattStatsProgressENS0_10CountedPtrIS1_E7DeleterIS1_EESaIvELN9__gnu_cxx12_Lock_policyE2EED0Ev@Base 3.2.1
 _ZNSt19_Sp_counted_deleterIPN8casacore17LattStatsProgressENS0_10CountedPtrIS1_E7DeleterIS1_EESaIvELN9__gnu_cxx12_Lock_policyE2EED1Ev@Base 3.2.1
 _ZNSt19_Sp_counted_deleterIPN8casacore17LattStatsProgressENS0_10CountedPtrIS1_E7DeleterIS1_EESaIvELN9__gnu_cxx12_Lock_policyE2EED2Ev@Base 3.2.1
 _ZNSt19_Sp_counted_deleterIPN8casacore19StatisticsAlgorithmIdNS0_5ArrayIfE16ConstIteratorSTLENS2_IbE16ConstIteratorSTLES4_EENS0_10CountedPtrIS7_E7DeleterIS7_EESaIvELN9__gnu_cxx12_Lock_policyE2EE10_M_destroyEv@Base 3.2.1
 _ZNSt19_Sp_counted_deleterIPN8casacore19StatisticsAlgorithmIdNS0_5ArrayIfE16ConstIteratorSTLENS2_IbE16ConstIteratorSTLES4_EENS0_10CountedPtrIS7_E7DeleterIS7_EESaIvELN9__gnu_cxx12_Lock_policyE2EE10_M_disposeEv@Base 3.2.1
 _ZNSt19_Sp_counted_deleterIPN8casacore19StatisticsAlgorithmIdNS0_5ArrayIfE16ConstIteratorSTLENS2_IbE16ConstIteratorSTLES4_EENS0_10CountedPtrIS7_E7DeleterIS7_EESaIvELN9__gnu_cxx12_Lock_policyE2EE14_M_get_deleterERKSt9type_info@Base 3.2.1
 _ZNSt19_Sp_counted_deleterIPN8casacore19StatisticsAlgorithmIdNS0_5ArrayIfE16ConstIteratorSTLENS2_IbE16ConstIteratorSTLES4_EENS0_10CountedPtrIS7_E7DeleterIS7_EESaIvELN9__gnu_cxx12_Lock_policyE2EED0Ev@Base 3.2.1
 _ZNSt19_Sp_counted_deleterIPN8casacore19StatisticsAlgorithmIdNS0_5ArrayIfE16ConstIteratorSTLENS2_IbE16ConstIteratorSTLES4_EENS0_10CountedPtrIS7_E7DeleterIS7_EESaIvELN9__gnu_cxx12_Lock_policyE2EED1Ev@Base 3.2.1
 _ZNSt19_Sp_counted_deleterIPN8casacore19StatisticsAlgorithmIdNS0_5ArrayIfE16ConstIteratorSTLENS2_IbE16ConstIteratorSTLES4_EENS0_10CountedPtrIS7_E7DeleterIS7_EESaIvELN9__gnu_cxx12_Lock_policyE2EED2Ev@Base 3.2.1
 _ZNSt19_Sp_counted_deleterIPN8casacore19StatisticsAlgorithmIdPKfPKbS3_EENS0_10CountedPtrIS6_E7DeleterIS6_EESaIvELN9__gnu_cxx12_Lock_policyE2EE10_M_destroyEv@Base 3.2.1
 _ZNSt19_Sp_counted_deleterIPN8casacore19StatisticsAlgorithmIdPKfPKbS3_EENS0_10CountedPtrIS6_E7DeleterIS6_EESaIvELN9__gnu_cxx12_Lock_policyE2EE10_M_disposeEv@Base 3.2.1
 _ZNSt19_Sp_counted_deleterIPN8casacore19StatisticsAlgorithmIdPKfPKbS3_EENS0_10CountedPtrIS6_E7DeleterIS6_EESaIvELN9__gnu_cxx12_Lock_policyE2EE14_M_get_deleterERKSt9type_info@Base 3.2.1
 _ZNSt19_Sp_counted_deleterIPN8casacore19StatisticsAlgorithmIdPKfPKbS3_EENS0_10CountedPtrIS6_E7DeleterIS6_EESaIvELN9__gnu_cxx12_Lock_policyE2EED0Ev@Base 3.2.1
 _ZNSt19_Sp_counted_deleterIPN8casacore19StatisticsAlgorithmIdPKfPKbS3_EENS0_10CountedPtrIS6_E7DeleterIS6_EESaIvELN9__gnu_cxx12_Lock_policyE2EED1Ev@Base 3.2.1
 _ZNSt19_Sp_counted_deleterIPN8casacore19StatisticsAlgorithmIdPKfPKbS3_EENS0_10CountedPtrIS6_E7DeleterIS6_EESaIvELN9__gnu_cxx12_Lock_policyE2EED2Ev@Base 3.2.1
 _ZNSt19_Sp_counted_deleterIPN8casacore20LatticeIterInterfaceISt7complexIdEEENS0_10CountedPtrIS4_E7DeleterIS4_EESaIvELN9__gnu_cxx12_Lock_policyE2EE10_M_destroyEv@Base 3.2.1
 _ZNSt19_Sp_counted_deleterIPN8casacore20LatticeIterInterfaceISt7complexIdEEENS0_10CountedPtrIS4_E7DeleterIS4_EESaIvELN9__gnu_cxx12_Lock_policyE2EE10_M_disposeEv@Base 3.2.1
 _ZNSt19_Sp_counted_deleterIPN8casacore20LatticeIterInterfaceISt7complexIdEEENS0_10CountedPtrIS4_E7DeleterIS4_EESaIvELN9__gnu_cxx12_Lock_policyE2EE14_M_get_deleterERKSt9type_info@Base 3.2.1
 _ZNSt19_Sp_counted_deleterIPN8casacore20LatticeIterInterfaceISt7complexIdEEENS0_10CountedPtrIS4_E7DeleterIS4_EESaIvELN9__gnu_cxx12_Lock_policyE2EED0Ev@Base 3.2.1
 _ZNSt19_Sp_counted_deleterIPN8casacore20LatticeIterInterfaceISt7complexIdEEENS0_10CountedPtrIS4_E7DeleterIS4_EESaIvELN9__gnu_cxx12_Lock_policyE2EED1Ev@Base 3.2.1
 _ZNSt19_Sp_counted_deleterIPN8casacore20LatticeIterInterfaceISt7complexIdEEENS0_10CountedPtrIS4_E7DeleterIS4_EESaIvELN9__gnu_cxx12_Lock_policyE2EED2Ev@Base 3.2.1
 _ZNSt19_Sp_counted_deleterIPN8casacore20LatticeIterInterfaceISt7complexIfEEENS0_10CountedPtrIS4_E7DeleterIS4_EESaIvELN9__gnu_cxx12_Lock_policyE2EE10_M_destroyEv@Base 3.2.1
 _ZNSt19_Sp_counted_deleterIPN8casacore20LatticeIterInterfaceISt7complexIfEEENS0_10CountedPtrIS4_E7DeleterIS4_EESaIvELN9__gnu_cxx12_Lock_policyE2EE10_M_disposeEv@Base 3.2.1
 _ZNSt19_Sp_counted_deleterIPN8casacore20LatticeIterInterfaceISt7complexIfEEENS0_10CountedPtrIS4_E7DeleterIS4_EESaIvELN9__gnu_cxx12_Lock_policyE2EE14_M_get_deleterERKSt9type_info@Base 3.2.1
 _ZNSt19_Sp_counted_deleterIPN8casacore20LatticeIterInterfaceISt7complexIfEEENS0_10CountedPtrIS4_E7DeleterIS4_EESaIvELN9__gnu_cxx12_Lock_policyE2EED0Ev@Base 3.2.1
 _ZNSt19_Sp_counted_deleterIPN8casacore20LatticeIterInterfaceISt7complexIfEEENS0_10CountedPtrIS4_E7DeleterIS4_EESaIvELN9__gnu_cxx12_Lock_policyE2EED1Ev@Base 3.2.1
 _ZNSt19_Sp_counted_deleterIPN8casacore20LatticeIterInterfaceISt7complexIfEEENS0_10CountedPtrIS4_E7DeleterIS4_EESaIvELN9__gnu_cxx12_Lock_policyE2EED2Ev@Base 3.2.1
 _ZNSt19_Sp_counted_deleterIPN8casacore20LatticeIterInterfaceIbEENS0_10CountedPtrIS2_E7DeleterIS2_EESaIvELN9__gnu_cxx12_Lock_policyE2EE10_M_destroyEv@Base 3.2.1
 _ZNSt19_Sp_counted_deleterIPN8casacore20LatticeIterInterfaceIbEENS0_10CountedPtrIS2_E7DeleterIS2_EESaIvELN9__gnu_cxx12_Lock_policyE2EE10_M_disposeEv@Base 3.2.1
 _ZNSt19_Sp_counted_deleterIPN8casacore20LatticeIterInterfaceIbEENS0_10CountedPtrIS2_E7DeleterIS2_EESaIvELN9__gnu_cxx12_Lock_policyE2EE14_M_get_deleterERKSt9type_info@Base 3.2.1
 _ZNSt19_Sp_counted_deleterIPN8casacore20LatticeIterInterfaceIbEENS0_10CountedPtrIS2_E7DeleterIS2_EESaIvELN9__gnu_cxx12_Lock_policyE2EED0Ev@Base 3.2.1
 _ZNSt19_Sp_counted_deleterIPN8casacore20LatticeIterInterfaceIbEENS0_10CountedPtrIS2_E7DeleterIS2_EESaIvELN9__gnu_cxx12_Lock_policyE2EED1Ev@Base 3.2.1
 _ZNSt19_Sp_counted_deleterIPN8casacore20LatticeIterInterfaceIbEENS0_10CountedPtrIS2_E7DeleterIS2_EESaIvELN9__gnu_cxx12_Lock_policyE2EED2Ev@Base 3.2.1
 _ZNSt19_Sp_counted_deleterIPN8casacore20LatticeIterInterfaceIdEENS0_10CountedPtrIS2_E7DeleterIS2_EESaIvELN9__gnu_cxx12_Lock_policyE2EE10_M_destroyEv@Base 3.2.1
 _ZNSt19_Sp_counted_deleterIPN8casacore20LatticeIterInterfaceIdEENS0_10CountedPtrIS2_E7DeleterIS2_EESaIvELN9__gnu_cxx12_Lock_policyE2EE10_M_disposeEv@Base 3.2.1
 _ZNSt19_Sp_counted_deleterIPN8casacore20LatticeIterInterfaceIdEENS0_10CountedPtrIS2_E7DeleterIS2_EESaIvELN9__gnu_cxx12_Lock_policyE2EE14_M_get_deleterERKSt9type_info@Base 3.2.1
 _ZNSt19_Sp_counted_deleterIPN8casacore20LatticeIterInterfaceIdEENS0_10CountedPtrIS2_E7DeleterIS2_EESaIvELN9__gnu_cxx12_Lock_policyE2EED0Ev@Base 3.2.1
 _ZNSt19_Sp_counted_deleterIPN8casacore20LatticeIterInterfaceIdEENS0_10CountedPtrIS2_E7DeleterIS2_EESaIvELN9__gnu_cxx12_Lock_policyE2EED1Ev@Base 3.2.1
 _ZNSt19_Sp_counted_deleterIPN8casacore20LatticeIterInterfaceIdEENS0_10CountedPtrIS2_E7DeleterIS2_EESaIvELN9__gnu_cxx12_Lock_policyE2EED2Ev@Base 3.2.1
 _ZNSt19_Sp_counted_deleterIPN8casacore20LatticeIterInterfaceIfEENS0_10CountedPtrIS2_E7DeleterIS2_EESaIvELN9__gnu_cxx12_Lock_policyE2EE10_M_destroyEv@Base 3.2.1
 _ZNSt19_Sp_counted_deleterIPN8casacore20LatticeIterInterfaceIfEENS0_10CountedPtrIS2_E7DeleterIS2_EESaIvELN9__gnu_cxx12_Lock_policyE2EE10_M_disposeEv@Base 3.2.1
 _ZNSt19_Sp_counted_deleterIPN8casacore20LatticeIterInterfaceIfEENS0_10CountedPtrIS2_E7DeleterIS2_EESaIvELN9__gnu_cxx12_Lock_policyE2EE14_M_get_deleterERKSt9type_info@Base 3.2.1
 _ZNSt19_Sp_counted_deleterIPN8casacore20LatticeIterInterfaceIfEENS0_10CountedPtrIS2_E7DeleterIS2_EESaIvELN9__gnu_cxx12_Lock_policyE2EED0Ev@Base 3.2.1
 _ZNSt19_Sp_counted_deleterIPN8casacore20LatticeIterInterfaceIfEENS0_10CountedPtrIS2_E7DeleterIS2_EESaIvELN9__gnu_cxx12_Lock_policyE2EED1Ev@Base 3.2.1
 _ZNSt19_Sp_counted_deleterIPN8casacore20LatticeIterInterfaceIfEENS0_10CountedPtrIS2_E7DeleterIS2_EESaIvELN9__gnu_cxx12_Lock_policyE2EED2Ev@Base 3.2.1
 _ZNSt19_Sp_counted_deleterIPN8casacore21ArrayPositionIteratorENS0_10CountedPtrIS1_E7DeleterIS1_EESaIvELN9__gnu_cxx12_Lock_policyE2EE10_M_destroyEv@Base 3.2.1
 _ZNSt19_Sp_counted_deleterIPN8casacore21ArrayPositionIteratorENS0_10CountedPtrIS1_E7DeleterIS1_EESaIvELN9__gnu_cxx12_Lock_policyE2EE10_M_disposeEv@Base 3.2.1
 _ZNSt19_Sp_counted_deleterIPN8casacore21ArrayPositionIteratorENS0_10CountedPtrIS1_E7DeleterIS1_EESaIvELN9__gnu_cxx12_Lock_policyE2EE14_M_get_deleterERKSt9type_info@Base 3.2.1
 _ZNSt19_Sp_counted_deleterIPN8casacore21ArrayPositionIteratorENS0_10CountedPtrIS1_E7DeleterIS1_EESaIvELN9__gnu_cxx12_Lock_policyE2EED0Ev@Base 3.2.1
 _ZNSt19_Sp_counted_deleterIPN8casacore21ArrayPositionIteratorENS0_10CountedPtrIS1_E7DeleterIS1_EESaIvELN9__gnu_cxx12_Lock_policyE2EED1Ev@Base 3.2.1
 _ZNSt19_Sp_counted_deleterIPN8casacore21ArrayPositionIteratorENS0_10CountedPtrIS1_E7DeleterIS1_EESaIvELN9__gnu_cxx12_Lock_policyE2EED2Ev@Base 3.2.1
 _ZNSt19_Sp_counted_deleterIPN8casacore25ClassicalQuantileComputerIdNS0_5ArrayIfE16ConstIteratorSTLENS2_IbE16ConstIteratorSTLES4_EENS0_10CountedPtrIS7_E7DeleterIS7_EESaIvELN9__gnu_cxx12_Lock_policyE2EE10_M_destroyEv@Base 3.2.1
 _ZNSt19_Sp_counted_deleterIPN8casacore25ClassicalQuantileComputerIdNS0_5ArrayIfE16ConstIteratorSTLENS2_IbE16ConstIteratorSTLES4_EENS0_10CountedPtrIS7_E7DeleterIS7_EESaIvELN9__gnu_cxx12_Lock_policyE2EE10_M_disposeEv@Base 3.2.1
 _ZNSt19_Sp_counted_deleterIPN8casacore25ClassicalQuantileComputerIdNS0_5ArrayIfE16ConstIteratorSTLENS2_IbE16ConstIteratorSTLES4_EENS0_10CountedPtrIS7_E7DeleterIS7_EESaIvELN9__gnu_cxx12_Lock_policyE2EE14_M_get_deleterERKSt9type_info@Base 3.2.1
 _ZNSt19_Sp_counted_deleterIPN8casacore25ClassicalQuantileComputerIdNS0_5ArrayIfE16ConstIteratorSTLENS2_IbE16ConstIteratorSTLES4_EENS0_10CountedPtrIS7_E7DeleterIS7_EESaIvELN9__gnu_cxx12_Lock_policyE2EED0Ev@Base 3.2.1
 _ZNSt19_Sp_counted_deleterIPN8casacore25ClassicalQuantileComputerIdNS0_5ArrayIfE16ConstIteratorSTLENS2_IbE16ConstIteratorSTLES4_EENS0_10CountedPtrIS7_E7DeleterIS7_EESaIvELN9__gnu_cxx12_Lock_policyE2EED1Ev@Base 3.2.1
 _ZNSt19_Sp_counted_deleterIPN8casacore25ClassicalQuantileComputerIdNS0_5ArrayIfE16ConstIteratorSTLENS2_IbE16ConstIteratorSTLES4_EENS0_10CountedPtrIS7_E7DeleterIS7_EESaIvELN9__gnu_cxx12_Lock_policyE2EED2Ev@Base 3.2.1
 _ZNSt19_Sp_counted_deleterIPN8casacore25ClassicalQuantileComputerIdPKfPKbS3_EENS0_10CountedPtrIS6_E7DeleterIS6_EESaIvELN9__gnu_cxx12_Lock_policyE2EE10_M_destroyEv@Base 3.2.1
 _ZNSt19_Sp_counted_deleterIPN8casacore25ClassicalQuantileComputerIdPKfPKbS3_EENS0_10CountedPtrIS6_E7DeleterIS6_EESaIvELN9__gnu_cxx12_Lock_policyE2EE10_M_disposeEv@Base 3.2.1
 _ZNSt19_Sp_counted_deleterIPN8casacore25ClassicalQuantileComputerIdPKfPKbS3_EENS0_10CountedPtrIS6_E7DeleterIS6_EESaIvELN9__gnu_cxx12_Lock_policyE2EE14_M_get_deleterERKSt9type_info@Base 3.2.1
 _ZNSt19_Sp_counted_deleterIPN8casacore25ClassicalQuantileComputerIdPKfPKbS3_EENS0_10CountedPtrIS6_E7DeleterIS6_EESaIvELN9__gnu_cxx12_Lock_policyE2EED0Ev@Base 3.2.1
 _ZNSt19_Sp_counted_deleterIPN8casacore25ClassicalQuantileComputerIdPKfPKbS3_EENS0_10CountedPtrIS6_E7DeleterIS6_EESaIvELN9__gnu_cxx12_Lock_policyE2EED1Ev@Base 3.2.1
 _ZNSt19_Sp_counted_deleterIPN8casacore25ClassicalQuantileComputerIdPKfPKbS3_EENS0_10CountedPtrIS6_E7DeleterIS6_EESaIvELN9__gnu_cxx12_Lock_policyE2EED2Ev@Base 3.2.1
 _ZNSt19_Sp_counted_deleterIPN8casacore28HingesFencesQuantileComputerIdNS0_5ArrayIfE16ConstIteratorSTLENS2_IbE16ConstIteratorSTLES4_EENS0_10CountedPtrIS7_E7DeleterIS7_EESaIvELN9__gnu_cxx12_Lock_policyE2EE10_M_destroyEv@Base 3.2.1
 _ZNSt19_Sp_counted_deleterIPN8casacore28HingesFencesQuantileComputerIdNS0_5ArrayIfE16ConstIteratorSTLENS2_IbE16ConstIteratorSTLES4_EENS0_10CountedPtrIS7_E7DeleterIS7_EESaIvELN9__gnu_cxx12_Lock_policyE2EE10_M_disposeEv@Base 3.2.1
 _ZNSt19_Sp_counted_deleterIPN8casacore28HingesFencesQuantileComputerIdNS0_5ArrayIfE16ConstIteratorSTLENS2_IbE16ConstIteratorSTLES4_EENS0_10CountedPtrIS7_E7DeleterIS7_EESaIvELN9__gnu_cxx12_Lock_policyE2EE14_M_get_deleterERKSt9type_info@Base 3.2.1
 _ZNSt19_Sp_counted_deleterIPN8casacore28HingesFencesQuantileComputerIdNS0_5ArrayIfE16ConstIteratorSTLENS2_IbE16ConstIteratorSTLES4_EENS0_10CountedPtrIS7_E7DeleterIS7_EESaIvELN9__gnu_cxx12_Lock_policyE2EED0Ev@Base 3.2.1
 _ZNSt19_Sp_counted_deleterIPN8casacore28HingesFencesQuantileComputerIdNS0_5ArrayIfE16ConstIteratorSTLENS2_IbE16ConstIteratorSTLES4_EENS0_10CountedPtrIS7_E7DeleterIS7_EESaIvELN9__gnu_cxx12_Lock_policyE2EED1Ev@Base 3.2.1
 _ZNSt19_Sp_counted_deleterIPN8casacore28HingesFencesQuantileComputerIdNS0_5ArrayIfE16ConstIteratorSTLENS2_IbE16ConstIteratorSTLES4_EENS0_10CountedPtrIS7_E7DeleterIS7_EESaIvELN9__gnu_cxx12_Lock_policyE2EED2Ev@Base 3.2.1
 _ZNSt19_Sp_counted_deleterIPN8casacore28HingesFencesQuantileComputerIdPKfPKbS3_EENS0_10CountedPtrIS6_E7DeleterIS6_EESaIvELN9__gnu_cxx12_Lock_policyE2EE10_M_destroyEv@Base 3.2.1
 _ZNSt19_Sp_counted_deleterIPN8casacore28HingesFencesQuantileComputerIdPKfPKbS3_EENS0_10CountedPtrIS6_E7DeleterIS6_EESaIvELN9__gnu_cxx12_Lock_policyE2EE10_M_disposeEv@Base 3.2.1
 _ZNSt19_Sp_counted_deleterIPN8casacore28HingesFencesQuantileComputerIdPKfPKbS3_EENS0_10CountedPtrIS6_E7DeleterIS6_EESaIvELN9__gnu_cxx12_Lock_policyE2EE14_M_get_deleterERKSt9type_info@Base 3.2.1
 _ZNSt19_Sp_counted_deleterIPN8casacore28HingesFencesQuantileComputerIdPKfPKbS3_EENS0_10CountedPtrIS6_E7DeleterIS6_EESaIvELN9__gnu_cxx12_Lock_policyE2EED0Ev@Base 3.2.1
 _ZNSt19_Sp_counted_deleterIPN8casacore28HingesFencesQuantileComputerIdPKfPKbS3_EENS0_10CountedPtrIS6_E7DeleterIS6_EESaIvELN9__gnu_cxx12_Lock_policyE2EED1Ev@Base 3.2.1
 _ZNSt19_Sp_counted_deleterIPN8casacore28HingesFencesQuantileComputerIdPKfPKbS3_EENS0_10CountedPtrIS6_E7DeleterIS6_EESaIvELN9__gnu_cxx12_Lock_policyE2EED2Ev@Base 3.2.1
 _ZNSt19_Sp_counted_deleterIPN8casacore32ConstrainedRangeQuantileComputerIdNS0_5ArrayIfE16ConstIteratorSTLENS2_IbE16ConstIteratorSTLES4_EENS0_10CountedPtrIS7_E7DeleterIS7_EESaIvELN9__gnu_cxx12_Lock_policyE2EE10_M_destroyEv@Base 3.2.1
 _ZNSt19_Sp_counted_deleterIPN8casacore32ConstrainedRangeQuantileComputerIdNS0_5ArrayIfE16ConstIteratorSTLENS2_IbE16ConstIteratorSTLES4_EENS0_10CountedPtrIS7_E7DeleterIS7_EESaIvELN9__gnu_cxx12_Lock_policyE2EE10_M_disposeEv@Base 3.2.1
 _ZNSt19_Sp_counted_deleterIPN8casacore32ConstrainedRangeQuantileComputerIdNS0_5ArrayIfE16ConstIteratorSTLENS2_IbE16ConstIteratorSTLES4_EENS0_10CountedPtrIS7_E7DeleterIS7_EESaIvELN9__gnu_cxx12_Lock_policyE2EE14_M_get_deleterERKSt9type_info@Base 3.2.1
 _ZNSt19_Sp_counted_deleterIPN8casacore32ConstrainedRangeQuantileComputerIdNS0_5ArrayIfE16ConstIteratorSTLENS2_IbE16ConstIteratorSTLES4_EENS0_10CountedPtrIS7_E7DeleterIS7_EESaIvELN9__gnu_cxx12_Lock_policyE2EED0Ev@Base 3.2.1
 _ZNSt19_Sp_counted_deleterIPN8casacore32ConstrainedRangeQuantileComputerIdNS0_5ArrayIfE16ConstIteratorSTLENS2_IbE16ConstIteratorSTLES4_EENS0_10CountedPtrIS7_E7DeleterIS7_EESaIvELN9__gnu_cxx12_Lock_policyE2EED1Ev@Base 3.2.1
 _ZNSt19_Sp_counted_deleterIPN8casacore32ConstrainedRangeQuantileComputerIdNS0_5ArrayIfE16ConstIteratorSTLENS2_IbE16ConstIteratorSTLES4_EENS0_10CountedPtrIS7_E7DeleterIS7_EESaIvELN9__gnu_cxx12_Lock_policyE2EED2Ev@Base 3.2.1
 _ZNSt19_Sp_counted_deleterIPN8casacore32ConstrainedRangeQuantileComputerIdPKfPKbS3_EENS0_10CountedPtrIS6_E7DeleterIS6_EESaIvELN9__gnu_cxx12_Lock_policyE2EE10_M_destroyEv@Base 3.2.1
 _ZNSt19_Sp_counted_deleterIPN8casacore32ConstrainedRangeQuantileComputerIdPKfPKbS3_EENS0_10CountedPtrIS6_E7DeleterIS6_EESaIvELN9__gnu_cxx12_Lock_policyE2EE10_M_disposeEv@Base 3.2.1
 _ZNSt19_Sp_counted_deleterIPN8casacore32ConstrainedRangeQuantileComputerIdPKfPKbS3_EENS0_10CountedPtrIS6_E7DeleterIS6_EESaIvELN9__gnu_cxx12_Lock_policyE2EE14_M_get_deleterERKSt9type_info@Base 3.2.1
 _ZNSt19_Sp_counted_deleterIPN8casacore32ConstrainedRangeQuantileComputerIdPKfPKbS3_EENS0_10CountedPtrIS6_E7DeleterIS6_EESaIvELN9__gnu_cxx12_Lock_policyE2EED0Ev@Base 3.2.1
 _ZNSt19_Sp_counted_deleterIPN8casacore32ConstrainedRangeQuantileComputerIdPKfPKbS3_EENS0_10CountedPtrIS6_E7DeleterIS6_EESaIvELN9__gnu_cxx12_Lock_policyE2EED1Ev@Base 3.2.1
 _ZNSt19_Sp_counted_deleterIPN8casacore32ConstrainedRangeQuantileComputerIdPKfPKbS3_EENS0_10CountedPtrIS6_E7DeleterIS6_EESaIvELN9__gnu_cxx12_Lock_policyE2EED2Ev@Base 3.2.1
 _ZNSt19_Sp_counted_deleterIPN8casacore5ArrayISt7complexIfEEENS0_10CountedPtrIS4_E7DeleterIS4_EESaIvELN9__gnu_cxx12_Lock_policyE2EE10_M_destroyEv@Base 3.2.1
 _ZNSt19_Sp_counted_deleterIPN8casacore5ArrayISt7complexIfEEENS0_10CountedPtrIS4_E7DeleterIS4_EESaIvELN9__gnu_cxx12_Lock_policyE2EE10_M_disposeEv@Base 3.2.1
 _ZNSt19_Sp_counted_deleterIPN8casacore5ArrayISt7complexIfEEENS0_10CountedPtrIS4_E7DeleterIS4_EESaIvELN9__gnu_cxx12_Lock_policyE2EE14_M_get_deleterERKSt9type_info@Base 3.2.1
 _ZNSt19_Sp_counted_deleterIPN8casacore5ArrayISt7complexIfEEENS0_10CountedPtrIS4_E7DeleterIS4_EESaIvELN9__gnu_cxx12_Lock_policyE2EED0Ev@Base 3.2.1
 _ZNSt19_Sp_counted_deleterIPN8casacore5ArrayISt7complexIfEEENS0_10CountedPtrIS4_E7DeleterIS4_EESaIvELN9__gnu_cxx12_Lock_policyE2EED1Ev@Base 3.2.1
 _ZNSt19_Sp_counted_deleterIPN8casacore5ArrayISt7complexIfEEENS0_10CountedPtrIS4_E7DeleterIS4_EESaIvELN9__gnu_cxx12_Lock_policyE2EED2Ev@Base 3.2.1
 _ZNSt19_Sp_counted_deleterIPN8casacore5ArrayIbEENS0_10CountedPtrIS2_E7DeleterIS2_EESaIvELN9__gnu_cxx12_Lock_policyE2EE10_M_destroyEv@Base 3.2.1
 _ZNSt19_Sp_counted_deleterIPN8casacore5ArrayIbEENS0_10CountedPtrIS2_E7DeleterIS2_EESaIvELN9__gnu_cxx12_Lock_policyE2EE10_M_disposeEv@Base 3.2.1
 _ZNSt19_Sp_counted_deleterIPN8casacore5ArrayIbEENS0_10CountedPtrIS2_E7DeleterIS2_EESaIvELN9__gnu_cxx12_Lock_policyE2EE14_M_get_deleterERKSt9type_info@Base 3.2.1
 _ZNSt19_Sp_counted_deleterIPN8casacore5ArrayIbEENS0_10CountedPtrIS2_E7DeleterIS2_EESaIvELN9__gnu_cxx12_Lock_policyE2EED0Ev@Base 3.2.1
 _ZNSt19_Sp_counted_deleterIPN8casacore5ArrayIbEENS0_10CountedPtrIS2_E7DeleterIS2_EESaIvELN9__gnu_cxx12_Lock_policyE2EED1Ev@Base 3.2.1
 _ZNSt19_Sp_counted_deleterIPN8casacore5ArrayIbEENS0_10CountedPtrIS2_E7DeleterIS2_EESaIvELN9__gnu_cxx12_Lock_policyE2EED2Ev@Base 3.2.1
 _ZNSt19_Sp_counted_deleterIPN8casacore5ArrayIfEENS0_10CountedPtrIS2_E7DeleterIS2_EESaIvELN9__gnu_cxx12_Lock_policyE2EE10_M_destroyEv@Base 3.2.1
 _ZNSt19_Sp_counted_deleterIPN8casacore5ArrayIfEENS0_10CountedPtrIS2_E7DeleterIS2_EESaIvELN9__gnu_cxx12_Lock_policyE2EE10_M_disposeEv@Base 3.2.1
 _ZNSt19_Sp_counted_deleterIPN8casacore5ArrayIfEENS0_10CountedPtrIS2_E7DeleterIS2_EESaIvELN9__gnu_cxx12_Lock_policyE2EE14_M_get_deleterERKSt9type_info@Base 3.2.1
 _ZNSt19_Sp_counted_deleterIPN8casacore5ArrayIfEENS0_10CountedPtrIS2_E7DeleterIS2_EESaIvELN9__gnu_cxx12_Lock_policyE2EED0Ev@Base 3.2.1
 _ZNSt19_Sp_counted_deleterIPN8casacore5ArrayIfEENS0_10CountedPtrIS2_E7DeleterIS2_EESaIvELN9__gnu_cxx12_Lock_policyE2EED1Ev@Base 3.2.1
 _ZNSt19_Sp_counted_deleterIPN8casacore5ArrayIfEENS0_10CountedPtrIS2_E7DeleterIS2_EESaIvELN9__gnu_cxx12_Lock_policyE2EED2Ev@Base 3.2.1
 _ZNSt19_Sp_counted_deleterIPN8casacore5BlockINS0_6VectorIdEEEENS0_10CountedPtrIS4_E7DeleterIS4_EESaIvELN9__gnu_cxx12_Lock_policyE2EE10_M_destroyEv@Base 3.2.1
 _ZNSt19_Sp_counted_deleterIPN8casacore5BlockINS0_6VectorIdEEEENS0_10CountedPtrIS4_E7DeleterIS4_EESaIvELN9__gnu_cxx12_Lock_policyE2EE10_M_disposeEv@Base 3.2.1
 _ZNSt19_Sp_counted_deleterIPN8casacore5BlockINS0_6VectorIdEEEENS0_10CountedPtrIS4_E7DeleterIS4_EESaIvELN9__gnu_cxx12_Lock_policyE2EE14_M_get_deleterERKSt9type_info@Base 3.2.1
 _ZNSt19_Sp_counted_deleterIPN8casacore5BlockINS0_6VectorIdEEEENS0_10CountedPtrIS4_E7DeleterIS4_EESaIvELN9__gnu_cxx12_Lock_policyE2EED0Ev@Base 3.2.1
 _ZNSt19_Sp_counted_deleterIPN8casacore5BlockINS0_6VectorIdEEEENS0_10CountedPtrIS4_E7DeleterIS4_EESaIvELN9__gnu_cxx12_Lock_policyE2EED1Ev@Base 3.2.1
 _ZNSt19_Sp_counted_deleterIPN8casacore5BlockINS0_6VectorIdEEEENS0_10CountedPtrIS4_E7DeleterIS4_EESaIvELN9__gnu_cxx12_Lock_policyE2EED2Ev@Base 3.2.1
 _ZNSt19_Sp_counted_deleterIPN8casacore5BlockINS0_8AutoDiffIdEEEENS0_10CountedPtrIS4_E7DeleterIS4_EESaIvELN9__gnu_cxx12_Lock_policyE2EE10_M_destroyEv@Base 3.2.1
 _ZNSt19_Sp_counted_deleterIPN8casacore5BlockINS0_8AutoDiffIdEEEENS0_10CountedPtrIS4_E7DeleterIS4_EESaIvELN9__gnu_cxx12_Lock_policyE2EE10_M_disposeEv@Base 3.2.1
 _ZNSt19_Sp_counted_deleterIPN8casacore5BlockINS0_8AutoDiffIdEEEENS0_10CountedPtrIS4_E7DeleterIS4_EESaIvELN9__gnu_cxx12_Lock_policyE2EE14_M_get_deleterERKSt9type_info@Base 3.2.1
 _ZNSt19_Sp_counted_deleterIPN8casacore5BlockINS0_8AutoDiffIdEEEENS0_10CountedPtrIS4_E7DeleterIS4_EESaIvELN9__gnu_cxx12_Lock_policyE2EED0Ev@Base 3.2.1
 _ZNSt19_Sp_counted_deleterIPN8casacore5BlockINS0_8AutoDiffIdEEEENS0_10CountedPtrIS4_E7DeleterIS4_EESaIvELN9__gnu_cxx12_Lock_policyE2EED1Ev@Base 3.2.1
 _ZNSt19_Sp_counted_deleterIPN8casacore5BlockINS0_8AutoDiffIdEEEENS0_10CountedPtrIS4_E7DeleterIS4_EESaIvELN9__gnu_cxx12_Lock_policyE2EED2Ev@Base 3.2.1
 _ZNSt19_Sp_counted_deleterIPN8casacore5BlockINS0_8AutoDiffIfEEEENS0_10CountedPtrIS4_E7DeleterIS4_EESaIvELN9__gnu_cxx12_Lock_policyE2EE10_M_destroyEv@Base 3.2.1
 _ZNSt19_Sp_counted_deleterIPN8casacore5BlockINS0_8AutoDiffIfEEEENS0_10CountedPtrIS4_E7DeleterIS4_EESaIvELN9__gnu_cxx12_Lock_policyE2EE10_M_disposeEv@Base 3.2.1
 _ZNSt19_Sp_counted_deleterIPN8casacore5BlockINS0_8AutoDiffIfEEEENS0_10CountedPtrIS4_E7DeleterIS4_EESaIvELN9__gnu_cxx12_Lock_policyE2EE14_M_get_deleterERKSt9type_info@Base 3.2.1
 _ZNSt19_Sp_counted_deleterIPN8casacore5BlockINS0_8AutoDiffIfEEEENS0_10CountedPtrIS4_E7DeleterIS4_EESaIvELN9__gnu_cxx12_Lock_policyE2EED0Ev@Base 3.2.1
 _ZNSt19_Sp_counted_deleterIPN8casacore5BlockINS0_8AutoDiffIfEEEENS0_10CountedPtrIS4_E7DeleterIS4_EESaIvELN9__gnu_cxx12_Lock_policyE2EED1Ev@Base 3.2.1
 _ZNSt19_Sp_counted_deleterIPN8casacore5BlockINS0_8AutoDiffIfEEEENS0_10CountedPtrIS4_E7DeleterIS4_EESaIvELN9__gnu_cxx12_Lock_policyE2EED2Ev@Base 3.2.1
 _ZNSt19_Sp_counted_deleterIPN8casacore9ArrayBaseENS0_10CountedPtrIS1_E7DeleterIS1_EESaIvELN9__gnu_cxx12_Lock_policyE2EE10_M_destroyEv@Base 3.2.1
 _ZNSt19_Sp_counted_deleterIPN8casacore9ArrayBaseENS0_10CountedPtrIS1_E7DeleterIS1_EESaIvELN9__gnu_cxx12_Lock_policyE2EE10_M_disposeEv@Base 3.2.1
 _ZNSt19_Sp_counted_deleterIPN8casacore9ArrayBaseENS0_10CountedPtrIS1_E7DeleterIS1_EESaIvELN9__gnu_cxx12_Lock_policyE2EE14_M_get_deleterERKSt9type_info@Base 3.2.1
 _ZNSt19_Sp_counted_deleterIPN8casacore9ArrayBaseENS0_10CountedPtrIS1_E7DeleterIS1_EESaIvELN9__gnu_cxx12_Lock_policyE2EED0Ev@Base 3.2.1
 _ZNSt19_Sp_counted_deleterIPN8casacore9ArrayBaseENS0_10CountedPtrIS1_E7DeleterIS1_EESaIvELN9__gnu_cxx12_Lock_policyE2EED1Ev@Base 3.2.1
 _ZNSt19_Sp_counted_deleterIPN8casacore9ArrayBaseENS0_10CountedPtrIS1_E7DeleterIS1_EESaIvELN9__gnu_cxx12_Lock_policyE2EED2Ev@Base 3.2.1
 _ZNSt19_Sp_counted_deleterIPSt4pairIddEN8casacore10CountedPtrIS1_E7DeleterIS1_EESaIvELN9__gnu_cxx12_Lock_policyE2EE10_M_destroyEv@Base 3.2.1
 _ZNSt19_Sp_counted_deleterIPSt4pairIddEN8casacore10CountedPtrIS1_E7DeleterIS1_EESaIvELN9__gnu_cxx12_Lock_policyE2EE10_M_disposeEv@Base 3.2.1
 _ZNSt19_Sp_counted_deleterIPSt4pairIddEN8casacore10CountedPtrIS1_E7DeleterIS1_EESaIvELN9__gnu_cxx12_Lock_policyE2EE14_M_get_deleterERKSt9type_info@Base 3.2.1
 _ZNSt19_Sp_counted_deleterIPSt4pairIddEN8casacore10CountedPtrIS1_E7DeleterIS1_EESaIvELN9__gnu_cxx12_Lock_policyE2EED0Ev@Base 3.2.1
 _ZNSt19_Sp_counted_deleterIPSt4pairIddEN8casacore10CountedPtrIS1_E7DeleterIS1_EESaIvELN9__gnu_cxx12_Lock_policyE2EED1Ev@Base 3.2.1
 _ZNSt19_Sp_counted_deleterIPSt4pairIddEN8casacore10CountedPtrIS1_E7DeleterIS1_EESaIvELN9__gnu_cxx12_Lock_policyE2EED2Ev@Base 3.2.1
 _ZNSt19_Sp_counted_deleterIPSt6vectorISt4pairIddESaIS2_EEN8casacore10CountedPtrIS4_E7DeleterIS4_EESaIvELN9__gnu_cxx12_Lock_policyE2EE10_M_destroyEv@Base 3.2.1
 _ZNSt19_Sp_counted_deleterIPSt6vectorISt4pairIddESaIS2_EEN8casacore10CountedPtrIS4_E7DeleterIS4_EESaIvELN9__gnu_cxx12_Lock_policyE2EE10_M_disposeEv@Base 3.2.1
 _ZNSt19_Sp_counted_deleterIPSt6vectorISt4pairIddESaIS2_EEN8casacore10CountedPtrIS4_E7DeleterIS4_EESaIvELN9__gnu_cxx12_Lock_policyE2EE14_M_get_deleterERKSt9type_info@Base 3.2.1
 _ZNSt19_Sp_counted_deleterIPSt6vectorISt4pairIddESaIS2_EEN8casacore10CountedPtrIS4_E7DeleterIS4_EESaIvELN9__gnu_cxx12_Lock_policyE2EED0Ev@Base 3.2.1
 _ZNSt19_Sp_counted_deleterIPSt6vectorISt4pairIddESaIS2_EEN8casacore10CountedPtrIS4_E7DeleterIS4_EESaIvELN9__gnu_cxx12_Lock_policyE2EED1Ev@Base 3.2.1
 _ZNSt19_Sp_counted_deleterIPSt6vectorISt4pairIddESaIS2_EEN8casacore10CountedPtrIS4_E7DeleterIS4_EESaIvELN9__gnu_cxx12_Lock_policyE2EED2Ev@Base 3.2.1
 _ZNSt19_Sp_counted_deleterIPdN8casacore10CountedPtrIdE7DeleterIdEESaIvELN9__gnu_cxx12_Lock_policyE2EE10_M_destroyEv@Base 3.2.1
 _ZNSt19_Sp_counted_deleterIPdN8casacore10CountedPtrIdE7DeleterIdEESaIvELN9__gnu_cxx12_Lock_policyE2EE10_M_disposeEv@Base 3.2.1
 _ZNSt19_Sp_counted_deleterIPdN8casacore10CountedPtrIdE7DeleterIdEESaIvELN9__gnu_cxx12_Lock_policyE2EE14_M_get_deleterERKSt9type_info@Base 3.2.1
 _ZNSt19_Sp_counted_deleterIPdN8casacore10CountedPtrIdE7DeleterIdEESaIvELN9__gnu_cxx12_Lock_policyE2EED0Ev@Base 3.2.1
 _ZNSt19_Sp_counted_deleterIPdN8casacore10CountedPtrIdE7DeleterIdEESaIvELN9__gnu_cxx12_Lock_policyE2EED1Ev@Base 3.2.1
 _ZNSt19_Sp_counted_deleterIPdN8casacore10CountedPtrIdE7DeleterIdEESaIvELN9__gnu_cxx12_Lock_policyE2EED2Ev@Base 3.2.1
 _ZNSt19_Sp_counted_deleterIPfN8casacore10CountedPtrIfE7DeleterIfEESaIvELN9__gnu_cxx12_Lock_policyE2EE10_M_destroyEv@Base 3.2.1
 _ZNSt19_Sp_counted_deleterIPfN8casacore10CountedPtrIfE7DeleterIfEESaIvELN9__gnu_cxx12_Lock_policyE2EE10_M_disposeEv@Base 3.2.1
 _ZNSt19_Sp_counted_deleterIPfN8casacore10CountedPtrIfE7DeleterIfEESaIvELN9__gnu_cxx12_Lock_policyE2EE14_M_get_deleterERKSt9type_info@Base 3.2.1
 _ZNSt19_Sp_counted_deleterIPfN8casacore10CountedPtrIfE7DeleterIfEESaIvELN9__gnu_cxx12_Lock_policyE2EED0Ev@Base 3.2.1
 _ZNSt19_Sp_counted_deleterIPfN8casacore10CountedPtrIfE7DeleterIfEESaIvELN9__gnu_cxx12_Lock_policyE2EED1Ev@Base 3.2.1
 _ZNSt19_Sp_counted_deleterIPfN8casacore10CountedPtrIfE7DeleterIfEESaIvELN9__gnu_cxx12_Lock_policyE2EED2Ev@Base 3.2.1
 _ZNSt19_Sp_counted_deleterIPyN8casacore10CountedPtrIyE7DeleterIyEESaIvELN9__gnu_cxx12_Lock_policyE2EE10_M_destroyEv@Base 3.2.1
 _ZNSt19_Sp_counted_deleterIPyN8casacore10CountedPtrIyE7DeleterIyEESaIvELN9__gnu_cxx12_Lock_policyE2EE10_M_disposeEv@Base 3.2.1
 _ZNSt19_Sp_counted_deleterIPyN8casacore10CountedPtrIyE7DeleterIyEESaIvELN9__gnu_cxx12_Lock_policyE2EE14_M_get_deleterERKSt9type_info@Base 3.2.1
 _ZNSt19_Sp_counted_deleterIPyN8casacore10CountedPtrIyE7DeleterIyEESaIvELN9__gnu_cxx12_Lock_policyE2EED0Ev@Base 3.2.1
 _ZNSt19_Sp_counted_deleterIPyN8casacore10CountedPtrIyE7DeleterIyEESaIvELN9__gnu_cxx12_Lock_policyE2EED1Ev@Base 3.2.1
 _ZNSt19_Sp_counted_deleterIPyN8casacore10CountedPtrIyE7DeleterIyEESaIvELN9__gnu_cxx12_Lock_policyE2EED2Ev@Base 3.2.1
 _ZNSt3mapIN8casacore16LatticeStatsBase15StatisticsTypesEdSt4lessIS2_ESaISt4pairIKS2_dEEEixEOS2_@Base 3.2.1
 _ZNSt3mapIddSt4lessIdESaISt4pairIKddEEEixEOd@Base 3.2.1
 _ZNSt3mapIddSt4lessIdESaISt4pairIKddEEEixERS3_@Base 3.2.1
 _ZNSt3mapIydSt4lessIyESaISt4pairIKydEEEixERS3_@Base 3.2.1
 _ZNSt3setIdSt4lessIdESaIdEED1Ev@Base 3.2.1
 _ZNSt3setIdSt4lessIdESaIdEED2Ev@Base 3.2.1
 _ZNSt4pairIN8casacore6StringES1_EC1IRA8_KcRA256_cLb1EEEOT_OT0_@Base 3.2.1
 _ZNSt4pairIN8casacore6StringES1_EC2IRA8_KcRA256_cLb1EEEOT_OT0_@Base 3.2.1
 _ZNSt4pairIN8casacore6StringES1_ED1Ev@Base 3.2.1
 _ZNSt4pairIN8casacore6StringES1_ED2Ev@Base 3.2.1
 _ZNSt6vectorIN8casacore10CountedPtrINS0_19StatisticsAlgorithmIdNS0_5ArrayIfE16ConstIteratorSTLENS3_IbE16ConstIteratorSTLES5_EEEESaIS9_EED1Ev@Base 3.2.1
 _ZNSt6vectorIN8casacore10CountedPtrINS0_19StatisticsAlgorithmIdNS0_5ArrayIfE16ConstIteratorSTLENS3_IbE16ConstIteratorSTLES5_EEEESaIS9_EED2Ev@Base 3.2.1
 _ZNSt6vectorIN8casacore10CountedPtrIdEESaIS2_EED1Ev@Base 3.2.1
 _ZNSt6vectorIN8casacore10CountedPtrIdEESaIS2_EED2Ev@Base 3.2.1
 _ZNSt6vectorIN8casacore10CountedPtrIdEESaIS2_EEaSERKS4_@Base 3.2.1
 _ZNSt6vectorIN8casacore14StatsHistogramIdEESaIS2_EE17_M_realloc_insertIJRKS2_EEEvN9__gnu_cxx17__normal_iteratorIPS2_S4_EEDpOT_@Base 3.2.1
 _ZNSt6vectorIN8casacore14StatsHistogramIdEESaIS2_EED1Ev@Base 3.2.1
 _ZNSt6vectorIN8casacore14StatsHistogramIdEESaIS2_EED2Ev@Base 3.2.1
 _ZNSt6vectorIN8casacore5ArrayIbEESaIS2_EE17_M_default_appendEm@Base 3.2.1
 _ZNSt6vectorIN8casacore5ArrayIfE16ConstIteratorSTLESaIS3_EE17_M_realloc_insertIJRKS3_EEEvN9__gnu_cxx17__normal_iteratorIPS3_S5_EEDpOT_@Base 3.2.1
 _ZNSt6vectorIN8casacore5ArrayIfEESaIS2_EE17_M_default_appendEm@Base 3.2.1
 _ZNSt6vectorIN8casacore9IPositionESaIS1_EE17_M_default_appendEm@Base 3.2.1
 _ZNSt6vectorIN8casacore9StatsDataIdEESaIS2_EE17_M_realloc_insertIJRKS2_EEEvN9__gnu_cxx17__normal_iteratorIPS2_S4_EEDpOT_@Base 3.2.1
 _ZNSt6vectorIN8casacore9StatsDataIdEESaIS2_EED1Ev@Base 3.2.1
 _ZNSt6vectorIN8casacore9StatsDataIdEESaIS2_EED2Ev@Base 3.2.1
 _ZNSt6vectorIS_IdSaIdEESaIS1_EED1Ev@Base 3.2.1
 _ZNSt6vectorIS_IdSaIdEESaIS1_EED2Ev@Base 3.2.1
 _ZNSt6vectorIS_IdSaIdEESaIS1_EEaSERKS3_@Base 3.2.1
 _ZNSt6vectorIS_IySaIyEESaIS1_EED1Ev@Base 3.2.1
 _ZNSt6vectorIS_IySaIyEESaIS1_EED2Ev@Base 3.2.1
 _ZNSt6vectorIS_IySaIyEESaIS1_EEaSERKS3_@Base 3.2.1
 _ZNSt6vectorISt3mapIydSt4lessIyESaISt4pairIKydEEESaIS7_EE17_M_realloc_insertIJRKS7_EEEvN9__gnu_cxx17__normal_iteratorIPS7_S9_EEDpOT_@Base 3.2.1
 _ZNSt6vectorISt3mapIydSt4lessIyESaISt4pairIKydEEESaIS7_EED1Ev@Base 3.2.1
 _ZNSt6vectorISt3mapIydSt4lessIyESaISt4pairIKydEEESaIS7_EED2Ev@Base 3.2.1
 _ZNSt6vectorISt3mapIyySt4lessIyESaISt4pairIKyyEEESaIS7_EE17_M_realloc_insertIJRKS7_EEEvN9__gnu_cxx17__normal_iteratorIPS7_S9_EEDpOT_@Base 3.2.1
 _ZNSt6vectorISt3mapIyySt4lessIyESaISt4pairIKyyEEESaIS7_EED1Ev@Base 3.2.1
 _ZNSt6vectorISt3mapIyySt4lessIyESaISt4pairIKyyEEESaIS7_EED2Ev@Base 3.2.1
 _ZNSt6vectorISt3setIySt4lessIyESaIyEESaIS4_EE17_M_realloc_insertIJRKS4_EEEvN9__gnu_cxx17__normal_iteratorIPS4_S6_EEDpOT_@Base 3.2.1
 _ZNSt6vectorISt3setIySt4lessIyESaIyEESaIS4_EED1Ev@Base 3.2.1
 _ZNSt6vectorISt3setIySt4lessIyESaIyEESaIS4_EED2Ev@Base 3.2.1
 _ZNSt6vectorISt4pairIddESaIS1_EE12emplace_backIJS1_EEEvDpOT_@Base 3.2.1
 _ZNSt6vectorISt4pairIddESaIS1_EE17_M_default_appendEm@Base 3.2.1
 _ZNSt6vectorISt4pairIddESaIS1_EE17_M_realloc_insertIJRKS1_EEEvN9__gnu_cxx17__normal_iteratorIPS1_S3_EEDpOT_@Base 3.2.1
 _ZNSt6vectorISt4pairIddESaIS1_EEaSERKS3_@Base 3.2.1
 _ZNSt6vectorIdSaIdEE12emplace_backIJdEEEvDpOT_@Base 3.2.1
 _ZNSt6vectorIdSaIdEE15_M_range_insertIN9__gnu_cxx17__normal_iteratorIPKdS1_EEEEvNS4_IPdS1_EET_SA_St20forward_iterator_tag@Base 3.2.1
 _ZNSt6vectorIdSaIdEE17_M_realloc_insertIJRKdEEEvN9__gnu_cxx17__normal_iteratorIPdS1_EEDpOT_@Base 3.2.1
 _ZNSt6vectorIdSaIdEE9push_backERKd@Base 3.2.1
 _ZNSt6vectorIdSaIdEEC1ERKS1_@Base 3.2.1
 _ZNSt6vectorIdSaIdEEC2ERKS1_@Base 3.2.1
 _ZNSt6vectorIdSaIdEEaSERKS1_@Base 3.2.1
 _ZNSt6vectorIjSaIjEE17_M_realloc_insertIJRKjEEEvN9__gnu_cxx17__normal_iteratorIPjS1_EEDpOT_@Base 3.2.1
 _ZNSt6vectorIxSaIxEE17_M_realloc_insertIJxEEEvN9__gnu_cxx17__normal_iteratorIPxS1_EEDpOT_@Base 3.2.1
 _ZNSt6vectorIySaIyEE17_M_realloc_insertIJRKyEEEvN9__gnu_cxx17__normal_iteratorIPyS1_EEDpOT_@Base 3.2.1
 _ZNSt6vectorIySaIyEEaSERKS1_@Base 3.2.1
 _ZNSt7__cxx1115basic_stringbufIcSt11char_traitsIcESaIcEED0Ev@Base 3.2.1
 _ZNSt7__cxx1115basic_stringbufIcSt11char_traitsIcESaIcEED1Ev@Base 3.2.1
 _ZNSt7__cxx1115basic_stringbufIcSt11char_traitsIcESaIcEED2Ev@Base 3.2.1
 _ZNSt7__cxx114listISt4pairIN8casacore6StringES3_ESaIS4_EE9push_backEOS4_@Base 3.2.1
 _ZNSt8_Rb_treeIN8casacore14StatisticsData5STATSES2_St9_IdentityIS2_ESt4lessIS2_ESaIS2_EE16_M_insert_uniqueIS2_EESt4pairISt17_Rb_tree_iteratorIS2_EbEOT_@Base 3.2.1
 _ZNSt8_Rb_treeIN8casacore14StatisticsData5STATSES2_St9_IdentityIS2_ESt4lessIS2_ESaIS2_EE7_M_copyINS8_11_Alloc_nodeEEEPSt13_Rb_tree_nodeIS2_EPKSC_PSt18_Rb_tree_node_baseRT_@Base 3.2.1
 _ZNSt8_Rb_treeIN8casacore14StatisticsData5STATSES2_St9_IdentityIS2_ESt4lessIS2_ESaIS2_EE7_M_copyINS8_20_Reuse_or_alloc_nodeEEEPSt13_Rb_tree_nodeIS2_EPKSC_PSt18_Rb_tree_node_baseRT_@Base 3.2.1
 _ZNSt8_Rb_treeIN8casacore14StatisticsData5STATSES2_St9_IdentityIS2_ESt4lessIS2_ESaIS2_EE8_M_eraseEPSt13_Rb_tree_nodeIS2_E@Base 3.2.1
 _ZNSt8_Rb_treeIN8casacore14StatisticsData5STATSES2_St9_IdentityIS2_ESt4lessIS2_ESaIS2_EEaSERKS8_@Base 3.2.1
 _ZNSt8_Rb_treeIN8casacore16LatticeStatsBase15StatisticsTypesESt4pairIKS2_dESt10_Select1stIS5_ESt4lessIS2_ESaIS5_EE24_M_get_insert_unique_posERS4_@Base 3.2.1
 _ZNSt8_Rb_treeIN8casacore16LatticeStatsBase15StatisticsTypesESt4pairIKS2_dESt10_Select1stIS5_ESt4lessIS2_ESaIS5_EE29_M_get_insert_hint_unique_posESt23_Rb_tree_const_iteratorIS5_ERS4_@Base 3.2.1
 _ZNSt8_Rb_treeIN8casacore16LatticeStatsBase15StatisticsTypesESt4pairIKS2_dESt10_Select1stIS5_ESt4lessIS2_ESaIS5_EE8_M_eraseEPSt13_Rb_tree_nodeIS5_E@Base 3.2.1
 _ZNSt8_Rb_treeIN8casacore6StringESt4pairIKS1_jESt10_Select1stIS4_ESt4lessIS1_ESaIS4_EE24_M_get_insert_unique_posERS3_@Base 3.2.1
 _ZNSt8_Rb_treeIN8casacore6StringESt4pairIKS1_jESt10_Select1stIS4_ESt4lessIS1_ESaIS4_EE29_M_get_insert_hint_unique_posESt23_Rb_tree_const_iteratorIS4_ERS3_@Base 3.2.1
 _ZNSt8_Rb_treeIN8casacore6StringESt4pairIKS1_jESt10_Select1stIS4_ESt4lessIS1_ESaIS4_EE7_M_copyINSA_11_Alloc_nodeEEEPSt13_Rb_tree_nodeIS4_EPKSE_PSt18_Rb_tree_node_baseRT_@Base 3.2.1
 _ZNSt8_Rb_treeIN8casacore6StringESt4pairIKS1_jESt10_Select1stIS4_ESt4lessIS1_ESaIS4_EE7_M_copyINSA_20_Reuse_or_alloc_nodeEEEPSt13_Rb_tree_nodeIS4_EPKSE_PSt18_Rb_tree_node_baseRT_@Base 3.2.1
 _ZNSt8_Rb_treeIN8casacore6StringESt4pairIKS1_jESt10_Select1stIS4_ESt4lessIS1_ESaIS4_EE8_M_eraseEPSt13_Rb_tree_nodeIS4_E@Base 3.2.1
 _ZNSt8_Rb_treeIN8casacore6StringESt4pairIKS1_jESt10_Select1stIS4_ESt4lessIS1_ESaIS4_EEaSERKSA_@Base 3.2.1
 _ZNSt8_Rb_treeIdSt4pairIKdSt3mapIydSt4lessIyESaIS0_IKydEEEESt10_Select1stIS9_ES3_IdESaIS9_EE14_M_insert_nodeEPSt18_Rb_tree_node_baseSG_PSt13_Rb_tree_nodeIS9_E@Base 3.2.1
 _ZNSt8_Rb_treeIdSt4pairIKdSt3mapIydSt4lessIyESaIS0_IKydEEEESt10_Select1stIS9_ES3_IdESaIS9_EE24_M_get_insert_unique_posERS1_@Base 3.2.1
 _ZNSt8_Rb_treeIdSt4pairIKdSt3mapIydSt4lessIyESaIS0_IKydEEEESt10_Select1stIS9_ES3_IdESaIS9_EE29_M_get_insert_hint_unique_posESt23_Rb_tree_const_iteratorIS9_ERS1_@Base 3.2.1
 _ZNSt8_Rb_treeIdSt4pairIKdSt3mapIydSt4lessIyESaIS0_IKydEEEESt10_Select1stIS9_ES3_IdESaIS9_EE8_M_eraseEPSt13_Rb_tree_nodeIS9_E@Base 3.2.1
 _ZNSt8_Rb_treeIdSt4pairIKddESt10_Select1stIS2_ESt4lessIdESaIS2_EE14_M_insert_nodeEPSt18_Rb_tree_node_baseSA_PSt13_Rb_tree_nodeIS2_E@Base 3.2.1
 _ZNSt8_Rb_treeIdSt4pairIKddESt10_Select1stIS2_ESt4lessIdESaIS2_EE24_M_get_insert_unique_posERS1_@Base 3.2.1
 _ZNSt8_Rb_treeIdSt4pairIKddESt10_Select1stIS2_ESt4lessIdESaIS2_EE29_M_get_insert_hint_unique_posESt23_Rb_tree_const_iteratorIS2_ERS1_@Base 3.2.1
 _ZNSt8_Rb_treeIdSt4pairIKddESt10_Select1stIS2_ESt4lessIdESaIS2_EE8_M_eraseEPSt13_Rb_tree_nodeIS2_E@Base 3.2.1
 _ZNSt8_Rb_treeIdSt4pairIKdyESt10_Select1stIS2_ESt4lessIdESaIS2_EE24_M_get_insert_unique_posERS1_@Base 3.2.1
 _ZNSt8_Rb_treeIdSt4pairIKdyESt10_Select1stIS2_ESt4lessIdESaIS2_EE29_M_get_insert_hint_unique_posESt23_Rb_tree_const_iteratorIS2_ERS1_@Base 3.2.1
 _ZNSt8_Rb_treeIdSt4pairIKdyESt10_Select1stIS2_ESt4lessIdESaIS2_EE8_M_eraseEPSt13_Rb_tree_nodeIS2_E@Base 3.2.1
 _ZNSt8_Rb_treeIddSt9_IdentityIdESt4lessIdESaIdEE16_M_insert_uniqueIRKdEESt4pairISt17_Rb_tree_iteratorIdEbEOT_@Base 3.2.1
 _ZNSt8_Rb_treeIddSt9_IdentityIdESt4lessIdESaIdEE16_M_insert_uniqueIdEESt4pairISt17_Rb_tree_iteratorIdEbEOT_@Base 3.2.1
 _ZNSt8_Rb_treeIddSt9_IdentityIdESt4lessIdESaIdEE24_M_get_insert_unique_posERKd@Base 3.2.1
 _ZNSt8_Rb_treeIddSt9_IdentityIdESt4lessIdESaIdEE29_M_get_insert_hint_unique_posESt23_Rb_tree_const_iteratorIdERKd@Base 3.2.1
 _ZNSt8_Rb_treeIddSt9_IdentityIdESt4lessIdESaIdEE8_M_eraseEPSt13_Rb_tree_nodeIdE@Base 3.2.1
 _ZNSt8_Rb_treeIjSt4pairIKjN8casacore5ArrayIbE16ConstIteratorSTLEESt10_Select1stIS6_ESt4lessIjESaIS6_EE24_M_get_insert_unique_posERS1_@Base 3.2.1
 _ZNSt8_Rb_treeIjSt4pairIKjN8casacore5ArrayIbE16ConstIteratorSTLEESt10_Select1stIS6_ESt4lessIjESaIS6_EE29_M_get_insert_hint_unique_posESt23_Rb_tree_const_iteratorIS6_ERS1_@Base 3.2.1
 _ZNSt8_Rb_treeIjSt4pairIKjN8casacore5ArrayIbE16ConstIteratorSTLEESt10_Select1stIS6_ESt4lessIjESaIS6_EE7_M_copyINSC_11_Alloc_nodeEEEPSt13_Rb_tree_nodeIS6_EPKSG_PSt18_Rb_tree_node_baseRT_@Base 3.2.1
 _ZNSt8_Rb_treeIjSt4pairIKjN8casacore5ArrayIbE16ConstIteratorSTLEESt10_Select1stIS6_ESt4lessIjESaIS6_EE8_M_eraseEPSt13_Rb_tree_nodeIS6_E@Base 3.2.1
 _ZNSt8_Rb_treeIjSt4pairIKjN8casacore5ArrayIfE16ConstIteratorSTLEESt10_Select1stIS6_ESt4lessIjESaIS6_EE7_M_copyINSC_11_Alloc_nodeEEEPSt13_Rb_tree_nodeIS6_EPKSG_PSt18_Rb_tree_node_baseRT_@Base 3.2.1
 _ZNSt8_Rb_treeIjSt4pairIKjN8casacore5ArrayIfE16ConstIteratorSTLEESt10_Select1stIS6_ESt4lessIjESaIS6_EE8_M_eraseEPSt13_Rb_tree_nodeIS6_E@Base 3.2.1
 _ZNSt8_Rb_treeIjSt4pairIKjPKbESt10_Select1stIS4_ESt4lessIjESaIS4_EE7_M_copyINSA_11_Alloc_nodeEEEPSt13_Rb_tree_nodeIS4_EPKSE_PSt18_Rb_tree_node_baseRT_@Base 3.2.1
 _ZNSt8_Rb_treeIjSt4pairIKjPKbESt10_Select1stIS4_ESt4lessIjESaIS4_EE8_M_eraseEPSt13_Rb_tree_nodeIS4_E@Base 3.2.1
 _ZNSt8_Rb_treeIjSt4pairIKjPKfESt10_Select1stIS4_ESt4lessIjESaIS4_EE7_M_copyINSA_11_Alloc_nodeEEEPSt13_Rb_tree_nodeIS4_EPKSE_PSt18_Rb_tree_node_baseRT_@Base 3.2.1
 _ZNSt8_Rb_treeIjSt4pairIKjPKfESt10_Select1stIS4_ESt4lessIjESaIS4_EE8_M_eraseEPSt13_Rb_tree_nodeIS4_E@Base 3.2.1
 _ZNSt8_Rb_treeIjSt4pairIKjSt6vectorIS0_IddESaIS3_EEESt10_Select1stIS6_ESt4lessIjESaIS6_EE24_M_get_insert_unique_posERS1_@Base 3.2.1
 _ZNSt8_Rb_treeIjSt4pairIKjSt6vectorIS0_IddESaIS3_EEESt10_Select1stIS6_ESt4lessIjESaIS6_EE29_M_get_insert_hint_unique_posESt23_Rb_tree_const_iteratorIS6_ERS1_@Base 3.2.1
 _ZNSt8_Rb_treeIjSt4pairIKjSt6vectorIS0_IddESaIS3_EEESt10_Select1stIS6_ESt4lessIjESaIS6_EE7_M_copyINSC_11_Alloc_nodeEEEPSt13_Rb_tree_nodeIS6_EPKSG_PSt18_Rb_tree_node_baseRT_@Base 3.2.1
 _ZNSt8_Rb_treeIjSt4pairIKjSt6vectorIS0_IddESaIS3_EEESt10_Select1stIS6_ESt4lessIjESaIS6_EE8_M_eraseEPSt13_Rb_tree_nodeIS6_E@Base 3.2.1
 _ZNSt8_Rb_treeIjSt4pairIKjbESt10_Select1stIS2_ESt4lessIjESaIS2_EE24_M_get_insert_unique_posERS1_@Base 3.2.1
 _ZNSt8_Rb_treeIjSt4pairIKjbESt10_Select1stIS2_ESt4lessIjESaIS2_EE29_M_get_insert_hint_unique_posESt23_Rb_tree_const_iteratorIS2_ERS1_@Base 3.2.1
 _ZNSt8_Rb_treeIjSt4pairIKjbESt10_Select1stIS2_ESt4lessIjESaIS2_EE7_M_copyINS8_11_Alloc_nodeEEEPSt13_Rb_tree_nodeIS2_EPKSC_PSt18_Rb_tree_node_baseRT_@Base 3.2.1
 _ZNSt8_Rb_treeIjSt4pairIKjbESt10_Select1stIS2_ESt4lessIjESaIS2_EE8_M_eraseEPSt13_Rb_tree_nodeIS2_E@Base 3.2.1
 _ZNSt8_Rb_treeIjSt4pairIKjjESt10_Select1stIS2_ESt4lessIjESaIS2_EE24_M_get_insert_unique_posERS1_@Base 3.2.1
 _ZNSt8_Rb_treeIjSt4pairIKjjESt10_Select1stIS2_ESt4lessIjESaIS2_EE29_M_get_insert_hint_unique_posESt23_Rb_tree_const_iteratorIS2_ERS1_@Base 3.2.1
 _ZNSt8_Rb_treeIjSt4pairIKjjESt10_Select1stIS2_ESt4lessIjESaIS2_EE7_M_copyINS8_11_Alloc_nodeEEEPSt13_Rb_tree_nodeIS2_EPKSC_PSt18_Rb_tree_node_baseRT_@Base 3.2.1
 _ZNSt8_Rb_treeIjSt4pairIKjjESt10_Select1stIS2_ESt4lessIjESaIS2_EE8_M_eraseEPSt13_Rb_tree_nodeIS2_E@Base 3.2.1
 _ZNSt8_Rb_treeIySt4pairIKydESt10_Select1stIS2_ESt4lessIyESaIS2_EE16_M_insert_uniqueISt17_Rb_tree_iteratorIS2_EEEvT_SC_@Base 3.2.1
 _ZNSt8_Rb_treeIySt4pairIKydESt10_Select1stIS2_ESt4lessIyESaIS2_EE24_M_get_insert_unique_posERS1_@Base 3.2.1
 _ZNSt8_Rb_treeIySt4pairIKydESt10_Select1stIS2_ESt4lessIyESaIS2_EE29_M_get_insert_hint_unique_posESt23_Rb_tree_const_iteratorIS2_ERS1_@Base 3.2.1
 _ZNSt8_Rb_treeIySt4pairIKydESt10_Select1stIS2_ESt4lessIyESaIS2_EE7_M_copyINS8_11_Alloc_nodeEEEPSt13_Rb_tree_nodeIS2_EPKSC_PSt18_Rb_tree_node_baseRT_@Base 3.2.1
 _ZNSt8_Rb_treeIySt4pairIKydESt10_Select1stIS2_ESt4lessIyESaIS2_EE7_M_copyINS8_20_Reuse_or_alloc_nodeEEEPSt13_Rb_tree_nodeIS2_EPKSC_PSt18_Rb_tree_node_baseRT_@Base 3.2.1
 _ZNSt8_Rb_treeIySt4pairIKydESt10_Select1stIS2_ESt4lessIyESaIS2_EE8_M_eraseEPSt13_Rb_tree_nodeIS2_E@Base 3.2.1
 _ZNSt8_Rb_treeIySt4pairIKydESt10_Select1stIS2_ESt4lessIyESaIS2_EEaSERKS8_@Base 3.2.1
 _ZNSt8_Rb_treeIySt4pairIKyyESt10_Select1stIS2_ESt4lessIyESaIS2_EE24_M_get_insert_unique_posERS1_@Base 3.2.1
 _ZNSt8_Rb_treeIySt4pairIKyyESt10_Select1stIS2_ESt4lessIyESaIS2_EE29_M_get_insert_hint_unique_posESt23_Rb_tree_const_iteratorIS2_ERS1_@Base 3.2.1
 _ZNSt8_Rb_treeIySt4pairIKyyESt10_Select1stIS2_ESt4lessIyESaIS2_EE7_M_copyINS8_11_Alloc_nodeEEEPSt13_Rb_tree_nodeIS2_EPKSC_PSt18_Rb_tree_node_baseRT_@Base 3.2.1
 _ZNSt8_Rb_treeIySt4pairIKyyESt10_Select1stIS2_ESt4lessIyESaIS2_EE8_M_eraseEPSt13_Rb_tree_nodeIS2_E@Base 3.2.1
 _ZNSt8_Rb_treeIyySt9_IdentityIyESt4lessIyESaIyEE16_M_insert_uniqueIRKyEESt4pairISt17_Rb_tree_iteratorIyEbEOT_@Base 3.2.1
 _ZNSt8_Rb_treeIyySt9_IdentityIyESt4lessIyESaIyEE16_M_insert_uniqueIyEESt4pairISt17_Rb_tree_iteratorIyEbEOT_@Base 3.2.1
 _ZNSt8_Rb_treeIyySt9_IdentityIyESt4lessIyESaIyEE24_M_get_insert_unique_posERKy@Base 3.2.1
 _ZNSt8_Rb_treeIyySt9_IdentityIyESt4lessIyESaIyEE7_M_copyINS5_11_Alloc_nodeEEEPSt13_Rb_tree_nodeIyEPKS9_PSt18_Rb_tree_node_baseRT_@Base 3.2.1
 _ZNSt8_Rb_treeIyySt9_IdentityIyESt4lessIyESaIyEE8_M_eraseEPSt13_Rb_tree_nodeIyE@Base 3.2.1
 _ZSt8for_eachISt23_Rb_tree_const_iteratorIdEZN8casacore19FitToHalfStatisticsIdNS2_5ArrayIfE16ConstIteratorSTLENS4_IbE16ConstIteratorSTLES6_E12getQuantilesERKSt3setIdSt4lessIdESaIdEENS2_10CountedPtrIyEENSH_IdEESJ_jbjEUldE0_ET0_T_SM_SL_@Base 3.2.1
 _ZSt8for_eachISt23_Rb_tree_const_iteratorIdEZN8casacore19FitToHalfStatisticsIdPKfPKbS5_E12getQuantilesERKSt3setIdSt4lessIdESaIdEENS2_10CountedPtrIyEENSG_IdEESI_jbjEUldE0_ET0_T_SL_SK_@Base 3.2.1
 _ZTIN8casacore10ConstantNDINS_8AutoDiffIdEEEE@Base 3.2.1
 _ZTIN8casacore10ConstantNDIdEE@Base 3.2.1
 _ZTIN8casacore10Function1DINS_8AutoDiffIfEES2_EE@Base 3.2.1
 _ZTIN8casacore10Function1DIffEE@Base 3.2.1
 _ZTIN8casacore10FunctionalINS_6VectorIdEENS_8AutoDiffIdEEEE@Base 3.2.1
 _ZTIN8casacore10FunctionalINS_6VectorIdEEdEE@Base 3.2.1
 _ZTIN8casacore10FunctionalINS_6VectorIfEENS_8AutoDiffIfEEEE@Base 3.2.1
 _ZTIN8casacore10FunctionalINS_6VectorIfEEfEE@Base 3.2.1
 _ZTIN8casacore10FunctionalIdNS_8AutoDiffIdEEEE@Base 3.2.1
 _ZTIN8casacore10FunctionalIddEE@Base 3.2.1
 _ZTIN8casacore10FunctionalIfNS_8AutoDiffIfEEEE@Base 3.2.1
 _ZTIN8casacore10FunctionalIffEE@Base 3.2.1
 _ZTIN8casacore10Gaussian1DINS_8AutoDiffIfEEEE@Base 3.2.1
 _ZTIN8casacore10Gaussian1DIfEE@Base 3.2.1
 _ZTIN8casacore10Gaussian2DINS_8AutoDiffIdEEEE@Base 3.2.1
 _ZTIN8casacore10Gaussian2DIdEE@Base 3.2.1
 _ZTIN8casacore10HyperPlaneINS_8AutoDiffIdEEEE@Base 3.2.1
 _ZTIN8casacore10HyperPlaneIdEE@Base 3.2.1
 _ZTIN8casacore10LCHDF5MaskE@Base 3.2.1
 _ZTIN8casacore10LCPixelSetE@Base 3.2.1
 _ZTIN8casacore10LELConvertISt7complexIdES1_IfEEE@Base 3.2.1
 _ZTIN8casacore10LELConvertISt7complexIdEdEE@Base 3.2.1
 _ZTIN8casacore10LELConvertISt7complexIdEfEE@Base 3.2.1
 _ZTIN8casacore10LELConvertISt7complexIfES1_IdEEE@Base 3.2.1
 _ZTIN8casacore10LELConvertISt7complexIfEdEE@Base 3.2.1
 _ZTIN8casacore10LELConvertISt7complexIfEfEE@Base 3.2.1
 _ZTIN8casacore10LELConvertIdfEE@Base 3.2.1
 _ZTIN8casacore10LELConvertIfdEE@Base 3.2.1
 _ZTIN8casacore10LELLatticeISt7complexIdEEE@Base 3.2.1
 _ZTIN8casacore10LELLatticeISt7complexIfEEE@Base 3.2.1
 _ZTIN8casacore10LELLatticeIbEE@Base 3.2.1
 _ZTIN8casacore10LELLatticeIdEE@Base 3.2.1
 _ZTIN8casacore10LELLatticeIfEE@Base 3.2.1
 _ZTIN8casacore10PagedArrayISt7complexIfEEE@Base 3.2.1
 _ZTIN8casacore10PagedArrayIbEE@Base 3.2.1
 _ZTIN8casacore10PagedArrayIdEE@Base 3.2.1
 _ZTIN8casacore10PagedArrayIfEE@Base 3.2.1
 _ZTIN8casacore10SubLatticeISt7complexIdEEE@Base 3.2.1
 _ZTIN8casacore10SubLatticeISt7complexIfEEE@Base 3.2.1
 _ZTIN8casacore10SubLatticeIbEE@Base 3.2.1
 _ZTIN8casacore10SubLatticeIdEE@Base 3.2.1
 _ZTIN8casacore10SubLatticeIfEE@Base 3.2.1
 _ZTIN8casacore11HDF5LatticeIbEE@Base 3.2.1
 _ZTIN8casacore11LCEllipsoidE@Base 3.2.1
 _ZTIN8casacore11LCExtensionE@Base 3.2.1
 _ZTIN8casacore11LCPagedMaskE@Base 3.2.1
 _ZTIN8casacore11LatticeBaseE@Base 3.2.1
 _ZTIN8casacore11LatticeExprISt7complexIdEEE@Base 3.2.1
 _ZTIN8casacore11LatticeExprISt7complexIfEEE@Base 3.2.1
 _ZTIN8casacore11LatticeExprIbEE@Base 3.2.1
 _ZTIN8casacore11LatticeExprIdEE@Base 3.2.1
 _ZTIN8casacore11LatticeExprIfEE@Base 3.2.1
 _ZTIN8casacore11TempLatticeIbEE@Base 3.2.1
 _ZTIN8casacore11TempLatticeIdEE@Base 3.2.1
 _ZTIN8casacore11TileStepperE@Base 3.2.1
 _ZTIN8casacore12ArrayLatticeISt7complexIdEEE@Base 3.2.1
 _ZTIN8casacore12ArrayLatticeISt7complexIfEEE@Base 3.2.1
 _ZTIN8casacore12ArrayLatticeIbEE@Base 3.2.1
 _ZTIN8casacore12ArrayLatticeIdEE@Base 3.2.1
 _ZTIN8casacore12ArrayLatticeIfEE@Base 3.2.1
 _ZTIN8casacore12GenericL2FitIdEE@Base 3.2.1
 _ZTIN8casacore12HDF5LattIterIbEE@Base 3.2.1
 _ZTIN8casacore12LCComplementE@Base 3.2.1
 _ZTIN8casacore12LCDifferenceE@Base 3.2.1
 _ZTIN8casacore12LELBinaryCmpISt7complexIdEEE@Base 3.2.1
 _ZTIN8casacore12LELBinaryCmpISt7complexIfEEE@Base 3.2.1
 _ZTIN8casacore12LELBinaryCmpIdEE@Base 3.2.1
 _ZTIN8casacore12LELBinaryCmpIfEE@Base 3.2.1
 _ZTIN8casacore12LELConditionISt7complexIdEEE@Base 3.2.1
 _ZTIN8casacore12LELConditionISt7complexIfEEE@Base 3.2.1
 _ZTIN8casacore12LELConditionIbEE@Base 3.2.1
 _ZTIN8casacore12LELConditionIdEE@Base 3.2.1
 _ZTIN8casacore12LELConditionIfEE@Base 3.2.1
 _ZTIN8casacore12LELInterfaceISt7complexIdEEE@Base 3.2.1
 _ZTIN8casacore12LELInterfaceISt7complexIfEEE@Base 3.2.1
 _ZTIN8casacore12LELInterfaceIbEE@Base 3.2.1
 _ZTIN8casacore12LELInterfaceIdEE@Base 3.2.1
 _ZTIN8casacore12LELInterfaceIfEE@Base 3.2.1
 _ZTIN8casacore12LELLattCoordE@Base 3.2.1
 _ZTIN8casacore12LELUnaryBoolE@Base 3.2.1
 _ZTIN8casacore12NonLinearFitIdEE@Base 3.2.1
 _ZTIN8casacore12PagedArrIterISt7complexIfEEE@Base 3.2.1
 _ZTIN8casacore12PagedArrIterIbEE@Base 3.2.1
 _ZTIN8casacore12PagedArrIterIdEE@Base 3.2.1
 _ZTIN8casacore12PagedArrIterIfEE@Base 3.2.1
 _ZTIN8casacore12RebinLatticeISt7complexIdEEE@Base 3.2.1
 _ZTIN8casacore12RebinLatticeISt7complexIfEEE@Base 3.2.1
 _ZTIN8casacore12RebinLatticeIdEE@Base 3.2.1
 _ZTIN8casacore12RebinLatticeIfEE@Base 3.2.1
 _ZTIN8casacore13ArrayIteratorINS_6VectorIdEEEE@Base 3.2.1
 _ZTIN8casacore13ArrayIteratorINS_8AutoDiffIdEEEE@Base 3.2.1
 _ZTIN8casacore13ArrayIteratorINS_8AutoDiffIfEEEE@Base 3.2.1
 _ZTIN8casacore13ArrayIteratorIdEE@Base 3.2.1
 _ZTIN8casacore13BaseAllocatorINS_6VectorIdEENS_15NewDelAllocatorIS2_EEEE@Base 3.2.1
 _ZTIN8casacore13BaseAllocatorINS_6VectorIdEENS_16AlignedAllocatorIS2_Lm32EEEEE@Base 3.2.1
 _ZTIN8casacore13BaseAllocatorINS_8AutoDiffIdEENS_15NewDelAllocatorIS2_EEEE@Base 3.2.1
 _ZTIN8casacore13BaseAllocatorINS_8AutoDiffIdEENS_16AlignedAllocatorIS2_Lm32EEEEE@Base 3.2.1
 _ZTIN8casacore13BaseAllocatorINS_8AutoDiffIfEENS_15NewDelAllocatorIS2_EEEE@Base 3.2.1
 _ZTIN8casacore13BaseAllocatorINS_8AutoDiffIfEENS_16AlignedAllocatorIS2_Lm32EEEEE@Base 3.2.1
 _ZTIN8casacore13BaseAllocatorIPNS_6SlicerENS_15NewDelAllocatorIS2_EEEE@Base 3.2.1
 _ZTIN8casacore13BaseAllocatorIPNS_6SlicerENS_16AlignedAllocatorIS2_Lm32EEEEE@Base 3.2.1
 _ZTIN8casacore13CompoundParamINS_8AutoDiffIdEEEE@Base 3.2.1
 _ZTIN8casacore13CompoundParamIdEE@Base 3.2.1
 _ZTIN8casacore13FunctionParamINS_8AutoDiffIdEEEE@Base 3.2.1
 _ZTIN8casacore13FunctionParamINS_8AutoDiffIfEEEE@Base 3.2.1
 _ZTIN8casacore13FunctionParamIdEE@Base 3.2.1
 _ZTIN8casacore13FunctionParamIfEE@Base 3.2.1
 _ZTIN8casacore13LCRegionFixedE@Base 3.2.1
 _ZTIN8casacore13LCRegionMultiE@Base 3.2.1
 _ZTIN8casacore13LELBinaryBoolE@Base 3.2.1
 _ZTIN8casacore13LELFunction1DISt7complexIdEEE@Base 3.2.1
 _ZTIN8casacore13LELFunction1DISt7complexIfEEE@Base 3.2.1
 _ZTIN8casacore13LELFunction1DIdEE@Base 3.2.1
 _ZTIN8casacore13LELFunction1DIfEE@Base 3.2.1
 _ZTIN8casacore13LELFunctionNDISt7complexIdEEE@Base 3.2.1
 _ZTIN8casacore13LELFunctionNDISt7complexIfEEE@Base 3.2.1
 _ZTIN8casacore13LELFunctionNDIbEE@Base 3.2.1
 _ZTIN8casacore13LELFunctionNDIdEE@Base 3.2.1
 _ZTIN8casacore13LELFunctionNDIfEE@Base 3.2.1
 _ZTIN8casacore13LELUnaryConstISt7complexIdEEE@Base 3.2.1
 _ZTIN8casacore13LELUnaryConstISt7complexIfEEE@Base 3.2.1
 _ZTIN8casacore13LELUnaryConstIbEE@Base 3.2.1
 _ZTIN8casacore13LELUnaryConstIdEE@Base 3.2.1
 _ZTIN8casacore13LELUnaryConstIfEE@Base 3.2.1
 _ZTIN8casacore13LatticeRegionE@Base 3.2.1
 _ZTIN8casacore13MaskedLatticeISt7complexIdEEE@Base 3.2.1
 _ZTIN8casacore13MaskedLatticeISt7complexIfEEE@Base 3.2.1
 _ZTIN8casacore13MaskedLatticeIbEE@Base 3.2.1
 _ZTIN8casacore13MaskedLatticeIdEE@Base 3.2.1
 _ZTIN8casacore13MaskedLatticeIfEE@Base 3.2.1
 _ZTIN8casacore14LCIntersectionE@Base 3.2.1
 _ZTIN8casacore14LCRegionSingleE@Base 3.2.1
 _ZTIN8casacore14LatticeStepperE@Base 3.2.1
 _ZTIN8casacore14NonLinearFitLMIdEE@Base 3.2.1
 _ZTIN8casacore14TiledCollapserIfdEE@Base 3.2.1
 _ZTIN8casacore14VectorIteratorIdEE@Base 3.2.1
 _ZTIN8casacore15ConstantNDParamINS_8AutoDiffIdEEEE@Base 3.2.1
 _ZTIN8casacore15ConstantNDParamIdEE@Base 3.2.1
 _ZTIN8casacore15Gaussian1DParamINS_8AutoDiffIfEEEE@Base 3.2.1
 _ZTIN8casacore15Gaussian1DParamIfEE@Base 3.2.1
 _ZTIN8casacore15Gaussian2DParamINS_8AutoDiffIdEEEE@Base 3.2.1
 _ZTIN8casacore15Gaussian2DParamIdEE@Base 3.2.1
 _ZTIN8casacore15HyperPlaneParamINS_8AutoDiffIdEEEE@Base 3.2.1
 _ZTIN8casacore15HyperPlaneParamIdEE@Base 3.2.1
 _ZTIN8casacore15LCConcatenationE@Base 3.2.1
 _ZTIN8casacore15LELFunctionBoolE@Base 3.2.1
 _ZTIN8casacore15LELRegionAsBoolE@Base 3.2.1
 _ZTIN8casacore15LatticeExprNodeE@Base 3.2.1
 _ZTIN8casacore15LatticeProgressE@Base 3.2.1
 _ZTIN8casacore15NewDelAllocatorINS_6VectorIdEEEE@Base 3.2.1
 _ZTIN8casacore15NewDelAllocatorINS_8AutoDiffIdEEEE@Base 3.2.1
 _ZTIN8casacore15NewDelAllocatorINS_8AutoDiffIfEEEE@Base 3.2.1
 _ZTIN8casacore15NewDelAllocatorIPNS_6SlicerEEE@Base 3.2.1
 _ZTIN8casacore16AlignedAllocatorINS_6VectorIdEELm32EEE@Base 3.2.1
 _ZTIN8casacore16AlignedAllocatorINS_8AutoDiffIdEELm32EEE@Base 3.2.1
 _ZTIN8casacore16AlignedAllocatorINS_8AutoDiffIfEELm32EEE@Base 3.2.1
 _ZTIN8casacore16AlignedAllocatorIPNS_6SlicerELm32EEE@Base 3.2.1
 _ZTIN8casacore16CompoundFunctionINS_8AutoDiffIdEEEE@Base 3.2.1
 _ZTIN8casacore16CompoundFunctionIdEE@Base 3.2.1
 _ZTIN8casacore16DefaultAllocatorINS_6VectorIdEEEE@Base 3.2.1
 _ZTIN8casacore16DefaultAllocatorINS_8AutoDiffIdEEEE@Base 3.2.1
 _ZTIN8casacore16DefaultAllocatorINS_8AutoDiffIfEEEE@Base 3.2.1
 _ZTIN8casacore16DefaultAllocatorIPNS_6SlicerEEE@Base 3.2.1
 _ZTIN8casacore16LELFunctionFloatE@Base 3.2.1
 _ZTIN8casacore16LELLattCoordBaseE@Base 3.2.1
 _ZTIN8casacore16LELSpectralIndexIdEE@Base 3.2.1
 _ZTIN8casacore16LELSpectralIndexIfEE@Base 3.2.1
 _ZTIN8casacore16LattRegionHolderE@Base 3.2.1
 _ZTIN8casacore16LatticeNavigatorE@Base 3.2.1
 _ZTIN8casacore16LatticeStatsBaseE@Base 3.2.1
 _ZTIN8casacore16TiledLineStepperE@Base 3.2.1
 _ZTIN8casacore17AbstractAllocatorINS_6VectorIdEEEE@Base 3.2.1
 _ZTIN8casacore17AbstractAllocatorINS_8AutoDiffIdEEEE@Base 3.2.1
 _ZTIN8casacore17AbstractAllocatorINS_8AutoDiffIfEEEE@Base 3.2.1
 _ZTIN8casacore17AbstractAllocatorIPNS_6SlicerEEE@Base 3.2.1
 _ZTIN8casacore17Allocator_private13BulkAllocatorINS_15LatticeExprNodeEEE@Base 3.2.1
 _ZTIN8casacore17Allocator_private13BulkAllocatorINS_6VectorIdEEEE@Base 3.2.1
 _ZTIN8casacore17Allocator_private13BulkAllocatorINS_8AutoDiffIdEEEE@Base 3.2.1
 _ZTIN8casacore17Allocator_private13BulkAllocatorINS_8AutoDiffIfEEEE@Base 3.2.1
 _ZTIN8casacore17Allocator_private13BulkAllocatorINS_9IPositionEEE@Base 3.2.1
 _ZTIN8casacore17Allocator_private13BulkAllocatorIPNS_6SlicerEEE@Base 3.2.1
 _ZTIN8casacore17Allocator_private13BulkAllocatorIPvEE@Base 3.2.1
 _ZTIN8casacore17Allocator_private13BulkAllocatorISt7complexIdEEE@Base 3.2.1
 _ZTIN8casacore17Allocator_private13BulkAllocatorIbEE@Base 3.2.1
 _ZTIN8casacore17Allocator_private13BulkAllocatorIdEE@Base 3.2.1
 _ZTIN8casacore17Allocator_private13BulkAllocatorIfEE@Base 3.2.1
 _ZTIN8casacore17Allocator_private13BulkAllocatorIiEE@Base 3.2.1
 _ZTIN8casacore17Allocator_private13BulkAllocatorIjEE@Base 3.2.1
 _ZTIN8casacore17Allocator_private17BulkAllocatorImplINS_17new_del_allocatorINS_6VectorIdEEEEEE@Base 3.2.1
 _ZTIN8casacore17Allocator_private17BulkAllocatorImplINS_17new_del_allocatorINS_8AutoDiffIdEEEEEE@Base 3.2.1
 _ZTIN8casacore17Allocator_private17BulkAllocatorImplINS_17new_del_allocatorINS_8AutoDiffIfEEEEEE@Base 3.2.1
 _ZTIN8casacore17Allocator_private17BulkAllocatorImplINS_17new_del_allocatorIPNS_6SlicerEEEEE@Base 3.2.1
 _ZTIN8casacore17Allocator_private17BulkAllocatorImplINS_18casacore_allocatorINS_15LatticeExprNodeELm32EEEEE@Base 3.2.1
 _ZTIN8casacore17Allocator_private17BulkAllocatorImplINS_18casacore_allocatorINS_6VectorIdEELm32EEEEE@Base 3.2.1
 _ZTIN8casacore17Allocator_private17BulkAllocatorImplINS_18casacore_allocatorINS_8AutoDiffIdEELm32EEEEE@Base 3.2.1
 _ZTIN8casacore17Allocator_private17BulkAllocatorImplINS_18casacore_allocatorINS_8AutoDiffIfEELm32EEEEE@Base 3.2.1
 _ZTIN8casacore17Allocator_private17BulkAllocatorImplINS_18casacore_allocatorINS_9IPositionELm32EEEEE@Base 3.2.1
 _ZTIN8casacore17Allocator_private17BulkAllocatorImplINS_18casacore_allocatorIPNS_6SlicerELm32EEEEE@Base 3.2.1
 _ZTIN8casacore17Allocator_private17BulkAllocatorImplINS_18casacore_allocatorIPvLm32EEEEE@Base 3.2.1
 _ZTIN8casacore17Allocator_private17BulkAllocatorImplINS_18casacore_allocatorISt7complexIdELm32EEEEE@Base 3.2.1
 _ZTIN8casacore17Allocator_private17BulkAllocatorImplINS_18casacore_allocatorIbLm32EEEEE@Base 3.2.1
 _ZTIN8casacore17Allocator_private17BulkAllocatorImplINS_18casacore_allocatorIdLm32EEEEE@Base 3.2.1
 _ZTIN8casacore17Allocator_private17BulkAllocatorImplINS_18casacore_allocatorIfLm32EEEEE@Base 3.2.1
 _ZTIN8casacore17Allocator_private17BulkAllocatorImplINS_18casacore_allocatorIiLm32EEEEE@Base 3.2.1
 _ZTIN8casacore17Allocator_private17BulkAllocatorImplINS_18casacore_allocatorIjLm32EEEEE@Base 3.2.1
 _ZTIN8casacore17LELFunctionDoubleE@Base 3.2.1
 _ZTIN8casacore17LELFunctionReal1DIdEE@Base 3.2.1
 _ZTIN8casacore17LELFunctionReal1DIfEE@Base 3.2.1
 _ZTIN8casacore17LattStatsProgressE@Base 3.2.1
 _ZTIN8casacore17LatticeStatisticsIfEE@Base 3.2.1
 _ZTIN8casacore17StatsDataProviderIdPKfPKbS2_EE@Base 3.2.1
 _ZTIN8casacore17new_del_allocatorINS_6VectorIdEEEE@Base 3.2.1
 _ZTIN8casacore17new_del_allocatorINS_8AutoDiffIdEEEE@Base 3.2.1
 _ZTIN8casacore17new_del_allocatorINS_8AutoDiffIfEEEE@Base 3.2.1
 _ZTIN8casacore17new_del_allocatorIPNS_6SlicerEEE@Base 3.2.1
 _ZTIN8casacore18BiweightStatisticsIdNS_5ArrayIfE16ConstIteratorSTLENS1_IbE16ConstIteratorSTLES3_EE@Base 3.2.1
 _ZTIN8casacore18BiweightStatisticsIdPKfPKbS2_EE@Base 3.2.1
 _ZTIN8casacore18LELFunctionComplexE@Base 3.2.1
 _ZTIN8casacore18casacore_allocatorINS_15LatticeExprNodeELm32EEE@Base 3.2.1
 _ZTIN8casacore18casacore_allocatorINS_6VectorIdEELm32EEE@Base 3.2.1
 _ZTIN8casacore18casacore_allocatorINS_8AutoDiffIdEELm32EEE@Base 3.2.1
 _ZTIN8casacore18casacore_allocatorINS_8AutoDiffIfEELm32EEE@Base 3.2.1
 _ZTIN8casacore18casacore_allocatorINS_9IPositionELm32EEE@Base 3.2.1
 _ZTIN8casacore18casacore_allocatorIPNS_6SlicerELm32EEE@Base 3.2.1
 _ZTIN8casacore18casacore_allocatorIPvLm32EEE@Base 3.2.1
 _ZTIN8casacore18casacore_allocatorISt7complexIdELm32EEE@Base 3.2.1
 _ZTIN8casacore18casacore_allocatorIbLm32EEE@Base 3.2.1
 _ZTIN8casacore18casacore_allocatorIdLm32EEE@Base 3.2.1
 _ZTIN8casacore18casacore_allocatorIfLm32EEE@Base 3.2.1
