libcasa_tables.so.4 libcasa-tables4 #MINVER#
 RecordGram_flex_debug@Base 3.2.1
 RecordGramin@Base 3.2.1
 RecordGramleng@Base 3.2.1
 RecordGramlineno@Base 3.2.1
 RecordGramout@Base 3.2.1
 RecordGramtext@Base 3.2.1
 RecordGramwrap@Base 3.2.1
 TableGram_flex_debug@Base 3.2.1
 TableGramin@Base 3.2.1
 TableGramleng@Base 3.2.1
 TableGramlineno@Base 3.2.1
 TableGramout@Base 3.2.1
 TableGramtext@Base 3.2.1
 TableGramwrap@Base 3.2.1
 _Z12TableGramlexP7YYSTYPE@Base 3.2.1
 _Z12setEXPRstatev@Base 3.2.1
 _Z13RecordGramlexP7YYSTYPE@Base 3.2.1
 _Z13TableGramfreePv@Base 3.2.1
 _Z14RecordGramfreePv@Base 3.2.1
 _Z14TableGramallocm@Base 3.2.1
 _Z14TableGramparsev@Base 3.2.1
 _Z15RecordGramallocm@Base 3.2.1
 _Z15RecordGramparsev@Base 3.2.1
 _Z15TableGramget_inv@Base 3.2.1
 _Z15TableGramset_inP8_IO_FILE@Base 3.2.1
 _Z16RecordGramget_inv@Base 3.2.1
 _Z16RecordGramset_inP8_IO_FILE@Base 3.2.1
 _Z16TableGramget_outv@Base 3.2.1
 _Z16TableGramreallocPvm@Base 3.2.1
 _Z16TableGramrestartP8_IO_FILE@Base 3.2.1
 _Z16TableGramset_outP8_IO_FILE@Base 3.2.1
 _Z17RecordGramget_outv@Base 3.2.1
 _Z17RecordGramreallocPvm@Base 3.2.1
 _Z17RecordGramrestartP8_IO_FILE@Base 3.2.1
 _Z17RecordGramset_outP8_IO_FILE@Base 3.2.1
 _Z17TableGramget_lengv@Base 3.2.1
 _Z17TableGramget_textv@Base 3.2.1
 _Z17setTABLENAMEstatev@Base 3.2.1
 _Z18RecordGramget_lengv@Base 3.2.1
 _Z18RecordGramget_textv@Base 3.2.1
 _Z18TableGramget_debugv@Base 3.2.1
 _Z18TableGramset_debugi@Base 3.2.1
 _Z19RecordGramget_debugv@Base 3.2.1
 _Z19RecordGramset_debugi@Base 3.2.1
 _Z19TableGramget_linenov@Base 3.2.1
 _Z19TableGramset_linenoi@Base 3.2.1
 _Z20RecordGramget_linenov@Base 3.2.1
 _Z20RecordGramset_linenoi@Base 3.2.1
 _Z20TableGram_scan_bytesPKci@Base 3.2.1
 _Z20TableGramlex_destroyv@Base 3.2.1
 _Z21RecordGram_scan_bytesPKci@Base 3.2.1
 _Z21RecordGramlex_destroyv@Base 3.2.1
 _Z21TableGram_scan_bufferPcm@Base 3.2.1
 _Z21TableGram_scan_stringPKc@Base 3.2.1
 _Z22RecordGram_scan_bufferPcm@Base 3.2.1
 _Z22RecordGram_scan_stringPKc@Base 3.2.1
 _Z22TableGram_flush_bufferP15yy_buffer_state@Base 3.2.1
 _Z23RecordGram_flush_bufferP15yy_buffer_state@Base 3.2.1
 _Z23TableGram_create_bufferP8_IO_FILEi@Base 3.2.1
 _Z23TableGram_delete_bufferP15yy_buffer_state@Base 3.2.1
 _Z24RecordGram_create_bufferP8_IO_FILEi@Base 3.2.1
 _Z24RecordGram_delete_bufferP15yy_buffer_state@Base 3.2.1
 _Z25TableGrampop_buffer_statev@Base 3.2.1
 _Z26RecordGrampop_buffer_statev@Base 3.2.1
 _Z26TableGram_switch_to_bufferP15yy_buffer_state@Base 3.2.1
 _Z26TableGrampush_buffer_stateP15yy_buffer_state@Base 3.2.1
 _Z27RecordGram_switch_to_bufferP15yy_buffer_state@Base 3.2.1
 _Z27RecordGrampush_buffer_stateP15yy_buffer_state@Base 3.2.1
 _ZGVN8casacore15NewDelAllocatorINS_5SliceEE5valueE@Base 3.2.1
 _ZGVN8casacore15NewDelAllocatorINS_6MVTimeEE5valueE@Base 3.2.1
 _ZGVN8casacore15NewDelAllocatorINS_6VectorINS_5SliceEEEE5valueE@Base 3.2.1
 _ZGVN8casacore15NewDelAllocatorIPNS_6SlicerEE5valueE@Base 3.2.1
 _ZGVN8casacore16DefaultAllocatorINS_5SliceEE5valueE@Base 3.2.1
 _ZGVN8casacore16DefaultAllocatorINS_6MVTimeEE5valueE@Base 3.2.1
 _ZGVN8casacore16DefaultAllocatorINS_6VectorINS_5SliceEEEE5valueE@Base 3.2.1
 _ZGVN8casacore16DefaultAllocatorIPNS_6SlicerEE5valueE@Base 3.2.1
 _ZGVN8casacore17Allocator_private17BulkAllocatorImplINS_17new_del_allocatorINS_5SliceEEEE9allocatorE@Base 3.2.1
 _ZGVN8casacore17Allocator_private17BulkAllocatorImplINS_17new_del_allocatorINS_6MVTimeEEEE9allocatorE@Base 3.2.1
 _ZGVN8casacore17Allocator_private17BulkAllocatorImplINS_17new_del_allocatorINS_6VectorINS_5SliceEEEEEE9allocatorE@Base 3.2.1
 _ZGVN8casacore17Allocator_private17BulkAllocatorImplINS_17new_del_allocatorIPNS_6SlicerEEEE9allocatorE@Base 3.2.1
 _ZGVN8casacore17Allocator_private17BulkAllocatorImplINS_18casacore_allocatorINS_10CountedPtrINS_11BaseCompareEEELm32EEEE9allocatorE@Base 3.2.1
 _ZGVN8casacore17Allocator_private17BulkAllocatorImplINS_18casacore_allocatorINS_11ArrayColumnIbEELm32EEEE9allocatorE@Base 3.2.1
 _ZGVN8casacore17Allocator_private17BulkAllocatorImplINS_18casacore_allocatorINS_11TableColumnELm32EEEE9allocatorE@Base 3.2.1
 _ZGVN8casacore17Allocator_private17BulkAllocatorImplINS_18casacore_allocatorINS_11TableRecordELm32EEEE9allocatorE@Base 3.2.1
 _ZGVN8casacore17Allocator_private17BulkAllocatorImplINS_18casacore_allocatorINS_12LoggerHolderELm32EEEE9allocatorE@Base 3.2.1
 _ZGVN8casacore17Allocator_private17BulkAllocatorImplINS_18casacore_allocatorINS_13TableExprNodeELm32EEEE9allocatorE@Base 3.2.1
 _ZGVN8casacore17Allocator_private17BulkAllocatorImplINS_18casacore_allocatorINS_14TableExprRangeELm32EEEE9allocatorE@Base 3.2.1
 _ZGVN8casacore17Allocator_private17BulkAllocatorImplINS_18casacore_allocatorINS_5SliceELm32EEEE9allocatorE@Base 3.2.1
 _ZGVN8casacore17Allocator_private17BulkAllocatorImplINS_18casacore_allocatorINS_5TableELm32EEEE9allocatorE@Base 3.2.1
 _ZGVN8casacore17Allocator_private17BulkAllocatorImplINS_18casacore_allocatorINS_6MVTimeELm32EEEE9allocatorE@Base 3.2.1
 _ZGVN8casacore17Allocator_private17BulkAllocatorImplINS_18casacore_allocatorINS_6StringELm32EEEE9allocatorE@Base 3.2.1
 _ZGVN8casacore17Allocator_private17BulkAllocatorImplINS_18casacore_allocatorINS_6VectorINS_5SliceEEELm32EEEE9allocatorE@Base 3.2.1
 _ZGVN8casacore17Allocator_private17BulkAllocatorImplINS_18casacore_allocatorINS_9IPositionELm32EEEE9allocatorE@Base 3.2.1
 _ZGVN8casacore17Allocator_private17BulkAllocatorImplINS_18casacore_allocatorIPNS_10BaseColumnELm32EEEE9allocatorE@Base 3.2.1
 _ZGVN8casacore17Allocator_private17BulkAllocatorImplINS_18casacore_allocatorIPNS_6SlicerELm32EEEE9allocatorE@Base 3.2.1
 _ZGVN8casacore17Allocator_private17BulkAllocatorImplINS_18casacore_allocatorIPNS_9BaseTableELm32EEEE9allocatorE@Base 3.2.1
 _ZGVN8casacore17Allocator_private17BulkAllocatorImplINS_18casacore_allocatorIPvLm32EEEE9allocatorE@Base 3.2.1
 _ZGVN8casacore17Allocator_private17BulkAllocatorImplINS_18casacore_allocatorISt7complexIdELm32EEEE9allocatorE@Base 3.2.1
 _ZGVN8casacore17Allocator_private17BulkAllocatorImplINS_18casacore_allocatorISt7complexIfELm32EEEE9allocatorE@Base 3.2.1
 _ZGVN8casacore17Allocator_private17BulkAllocatorImplINS_18casacore_allocatorIbLm32EEEE9allocatorE@Base 3.2.1
 _ZGVN8casacore17Allocator_private17BulkAllocatorImplINS_18casacore_allocatorIdLm32EEEE9allocatorE@Base 3.2.1
 _ZGVN8casacore17Allocator_private17BulkAllocatorImplINS_18casacore_allocatorIfLm32EEEE9allocatorE@Base 3.2.1
 _ZGVN8casacore17Allocator_private17BulkAllocatorImplINS_18casacore_allocatorIhLm32EEEE9allocatorE@Base 3.2.1
 _ZGVN8casacore17Allocator_private17BulkAllocatorImplINS_18casacore_allocatorIiLm32EEEE9allocatorE@Base 3.2.1
 _ZGVN8casacore17Allocator_private17BulkAllocatorImplINS_18casacore_allocatorIjLm32EEEE9allocatorE@Base 3.2.1
 _ZGVN8casacore17Allocator_private17BulkAllocatorImplINS_18casacore_allocatorIsLm32EEEE9allocatorE@Base 3.2.1
 _ZGVN8casacore17Allocator_private17BulkAllocatorImplINS_18casacore_allocatorIxLm32EEEE9allocatorE@Base 3.2.1
 _ZGVZN8casacore17Allocator_private17get_allocator_rawINS_17new_del_allocatorINS_5SliceEEEEEPNS0_17BulkAllocatorImplIT_EEvE3ptr@Base 3.2.1
 _ZGVZN8casacore17Allocator_private17get_allocator_rawINS_17new_del_allocatorINS_6MVTimeEEEEEPNS0_17BulkAllocatorImplIT_EEvE3ptr@Base 3.2.1
 _ZGVZN8casacore17Allocator_private17get_allocator_rawINS_17new_del_allocatorINS_6VectorINS_5SliceEEEEEEEPNS0_17BulkAllocatorImplIT_EEvE3ptr@Base 3.2.1
 _ZGVZN8casacore17Allocator_private17get_allocator_rawINS_17new_del_allocatorIPNS_6SlicerEEEEEPNS0_17BulkAllocatorImplIT_EEvE3ptr@Base 3.2.1
 _ZGVZN8casacore17Allocator_private17get_allocator_rawINS_18casacore_allocatorINS_10CountedPtrINS_11BaseCompareEEELm32EEEEEPNS0_17BulkAllocatorImplIT_EEvE3ptr@Base 3.2.1
 _ZGVZN8casacore17Allocator_private17get_allocator_rawINS_18casacore_allocatorINS_11ArrayColumnIbEELm32EEEEEPNS0_17BulkAllocatorImplIT_EEvE3ptr@Base 3.2.1
 _ZGVZN8casacore17Allocator_private17get_allocator_rawINS_18casacore_allocatorINS_11TableColumnELm32EEEEEPNS0_17BulkAllocatorImplIT_EEvE3ptr@Base 3.2.1
 _ZGVZN8casacore17Allocator_private17get_allocator_rawINS_18casacore_allocatorINS_11TableRecordELm32EEEEEPNS0_17BulkAllocatorImplIT_EEvE3ptr@Base 3.2.1
 _ZGVZN8casacore17Allocator_private17get_allocator_rawINS_18casacore_allocatorINS_12LoggerHolderELm32EEEEEPNS0_17BulkAllocatorImplIT_EEvE3ptr@Base 3.2.1
 _ZGVZN8casacore17Allocator_private17get_allocator_rawINS_18casacore_allocatorINS_13TableExprNodeELm32EEEEEPNS0_17BulkAllocatorImplIT_EEvE3ptr@Base 3.2.1
 _ZGVZN8casacore17Allocator_private17get_allocator_rawINS_18casacore_allocatorINS_14TableExprRangeELm32EEEEEPNS0_17BulkAllocatorImplIT_EEvE3ptr@Base 3.2.1
 _ZGVZN8casacore17Allocator_private17get_allocator_rawINS_18casacore_allocatorINS_5SliceELm32EEEEEPNS0_17BulkAllocatorImplIT_EEvE3ptr@Base 3.2.1
 _ZGVZN8casacore17Allocator_private17get_allocator_rawINS_18casacore_allocatorINS_5TableELm32EEEEEPNS0_17BulkAllocatorImplIT_EEvE3ptr@Base 3.2.1
 _ZGVZN8casacore17Allocator_private17get_allocator_rawINS_18casacore_allocatorINS_6MVTimeELm32EEEEEPNS0_17BulkAllocatorImplIT_EEvE3ptr@Base 3.2.1
 _ZGVZN8casacore17Allocator_private17get_allocator_rawINS_18casacore_allocatorINS_6StringELm32EEEEEPNS0_17BulkAllocatorImplIT_EEvE3ptr@Base 3.2.1
 _ZGVZN8casacore17Allocator_private17get_allocator_rawINS_18casacore_allocatorINS_6VectorINS_5SliceEEELm32EEEEEPNS0_17BulkAllocatorImplIT_EEvE3ptr@Base 3.2.1
 _ZGVZN8casacore17Allocator_private17get_allocator_rawINS_18casacore_allocatorINS_9IPositionELm32EEEEEPNS0_17BulkAllocatorImplIT_EEvE3ptr@Base 3.2.1
 _ZGVZN8casacore17Allocator_private17get_allocator_rawINS_18casacore_allocatorIPNS_10BaseColumnELm32EEEEEPNS0_17BulkAllocatorImplIT_EEvE3ptr@Base 3.2.1
 _ZGVZN8casacore17Allocator_private17get_allocator_rawINS_18casacore_allocatorIPNS_6SlicerELm32EEEEEPNS0_17BulkAllocatorImplIT_EEvE3ptr@Base 3.2.1
 _ZGVZN8casacore17Allocator_private17get_allocator_rawINS_18casacore_allocatorIPNS_9BaseTableELm32EEEEEPNS0_17BulkAllocatorImplIT_EEvE3ptr@Base 3.2.1
 _ZGVZN8casacore17Allocator_private17get_allocator_rawINS_18casacore_allocatorIPvLm32EEEEEPNS0_17BulkAllocatorImplIT_EEvE3ptr@Base 3.2.1
 _ZGVZN8casacore17Allocator_private17get_allocator_rawINS_18casacore_allocatorISt7complexIdELm32EEEEEPNS0_17BulkAllocatorImplIT_EEvE3ptr@Base 3.2.1
 _ZGVZN8casacore17Allocator_private17get_allocator_rawINS_18casacore_allocatorISt7complexIfELm32EEEEEPNS0_17BulkAllocatorImplIT_EEvE3ptr@Base 3.2.1
 _ZGVZN8casacore17Allocator_private17get_allocator_rawINS_18casacore_allocatorIbLm32EEEEEPNS0_17BulkAllocatorImplIT_EEvE3ptr@Base 3.2.1
 _ZGVZN8casacore17Allocator_private17get_allocator_rawINS_18casacore_allocatorIdLm32EEEEEPNS0_17BulkAllocatorImplIT_EEvE3ptr@Base 3.2.1
 _ZGVZN8casacore17Allocator_private17get_allocator_rawINS_18casacore_allocatorIfLm32EEEEEPNS0_17BulkAllocatorImplIT_EEvE3ptr@Base 3.2.1
 _ZGVZN8casacore17Allocator_private17get_allocator_rawINS_18casacore_allocatorIhLm32EEEEEPNS0_17BulkAllocatorImplIT_EEvE3ptr@Base 3.2.1
 _ZGVZN8casacore17Allocator_private17get_allocator_rawINS_18casacore_allocatorIiLm32EEEEEPNS0_17BulkAllocatorImplIT_EEvE3ptr@Base 3.2.1
 _ZGVZN8casacore17Allocator_private17get_allocator_rawINS_18casacore_allocatorIjLm32EEEEEPNS0_17BulkAllocatorImplIT_EEvE3ptr@Base 3.2.1
 _ZGVZN8casacore17Allocator_private17get_allocator_rawINS_18casacore_allocatorIsLm32EEEEEPNS0_17BulkAllocatorImplIT_EEvE3ptr@Base 3.2.1
 _ZGVZN8casacore17Allocator_private17get_allocator_rawINS_18casacore_allocatorIxLm32EEEEEPNS0_17BulkAllocatorImplIT_EEvE3ptr@Base 3.2.1
 _ZGVZN8casacore7ValType10strcomplexEvE6result@Base 3.2.1
 _ZGVZN8casacore7ValType11strdcomplexEvE6result@Base 3.2.1
 _ZGVZN8casacore7ValType6strintEvE6result@Base 3.2.1
 _ZGVZN8casacore7ValType7strboolEvE6result@Base 3.2.1
 _ZGVZN8casacore7ValType7strcharEvE6result@Base 3.2.1
 _ZGVZN8casacore7ValType7struintEvE6result@Base 3.2.1
 _ZGVZN8casacore7ValType8strfloatEvE6result@Base 3.2.1
 _ZGVZN8casacore7ValType8strint64EvE6result@Base 3.2.1
 _ZGVZN8casacore7ValType8strshortEvE6result@Base 3.2.1
 _ZGVZN8casacore7ValType8strucharEvE6result@Base 3.2.1
 _ZGVZN8casacore7ValType9strdoubleEvE6result@Base 3.2.1
 _ZGVZN8casacore7ValType9strstringEvE6result@Base 3.2.1
 _ZGVZN8casacore7ValType9strushortEvE6result@Base 3.2.1
 _ZN8casacore10BaseColumn11freeIterBufERPvS2_@Base 3.2.1
 _ZN8casacore10BaseColumn11freeSortKeyERPKv@Base 3.2.1
 _ZN8casacore10BaseColumn11makeSortKeyERNS_4SortERNS_10CountedPtrINS_11BaseCompareEEEiRPKv@Base 3.2.1
 _ZN8casacore10BaseColumn12allocIterBufERPvS2_RNS_10CountedPtrINS_11BaseCompareEEE@Base 3.2.1
 _ZN8casacore10BaseColumn14makeRefSortKeyERNS_4SortERNS_10CountedPtrINS_11BaseCompareEEEiRKNS_6VectorIjEERPKv@Base 3.2.1
 _ZN8casacore10BaseColumn14putArrayColumnEPKv@Base 3.2.1
 _ZN8casacore10BaseColumn14putColumnSliceERKNS_6SlicerEPKv@Base 3.2.1
 _ZN8casacore10BaseColumn15putScalarColumnEPKv@Base 3.2.1
 _ZN8casacore10BaseColumn19putArrayColumnCellsERKNS_7RefRowsEPKv@Base 3.2.1
 _ZN8casacore10BaseColumn19putColumnSliceCellsERKNS_7RefRowsERKNS_6SlicerEPKv@Base 3.2.1
 _ZN8casacore10BaseColumn20putScalarColumnCellsERKNS_7RefRowsEPKv@Base 3.2.1
 _ZN8casacore10BaseColumn8putSliceEjRKNS_6SlicerEPKv@Base 3.2.1
 _ZN8casacore10BaseColumn8setShapeEjRKNS_9IPositionE@Base 3.2.1
 _ZN8casacore10BaseColumn8setShapeEjRKNS_9IPositionES3_@Base 3.2.1
 _ZN8casacore10BaseColumn9putScalarEjRKNS_11TableRecordE@Base 3.2.1
 _ZN8casacore10BaseColumn9putScalarEjRKNS_6StringE@Base 3.2.1
 _ZN8casacore10BaseColumn9putScalarEjRKSt7complexIdE@Base 3.2.1
 _ZN8casacore10BaseColumn9putScalarEjRKSt7complexIfE@Base 3.2.1
 _ZN8casacore10BaseColumn9putScalarEjRKb@Base 3.2.1
 _ZN8casacore10BaseColumn9putScalarEjRKd@Base 3.2.1
 _ZN8casacore10BaseColumn9putScalarEjRKf@Base 3.2.1
 _ZN8casacore10BaseColumn9putScalarEjRKh@Base 3.2.1
 _ZN8casacore10BaseColumn9putScalarEjRKi@Base 3.2.1
 _ZN8casacore10BaseColumn9putScalarEjRKj@Base 3.2.1
 _ZN8casacore10BaseColumn9putScalarEjRKs@Base 3.2.1
 _ZN8casacore10BaseColumn9putScalarEjRKt@Base 3.2.1
 _ZN8casacore10BaseColumn9putScalarEjRKx@Base 3.2.1
 _ZN8casacore10BaseColumnC1EPKNS_14BaseColumnDescE@Base 3.2.1
 _ZN8casacore10BaseColumnC2EPKNS_14BaseColumnDescE@Base 3.2.1
 _ZN8casacore10BaseColumnD0Ev@Base 3.2.1
 _ZN8casacore10BaseColumnD1Ev@Base 3.2.1
 _ZN8casacore10BaseColumnD2Ev@Base 3.2.1
 _ZN8casacore10ColumnDesc10theirMutexE@Base 3.2.1
 _ZN8casacore10ColumnDesc12registerCtorERKNS_6StringEPFPNS_14BaseColumnDescES3_E@Base 3.2.1
 _ZN8casacore10ColumnDesc14getRegisterMapEv@Base 3.2.1
 _ZN8casacore10ColumnDesc15initRegisterMapEv@Base 3.2.1
 _ZN8casacore10ColumnDesc7getCtorERKNS_6StringE@Base 3.2.1
 _ZN8casacore10ColumnDesc7getFileERNS_6AipsIOERKNS_9TableAttrE@Base 3.2.1
 _ZN8casacore10ColumnDescC1EPNS_14BaseColumnDescE@Base 3.2.1
 _ZN8casacore10ColumnDescC1ERKNS_14BaseColumnDescE@Base 3.2.1
 _ZN8casacore10ColumnDescC1ERKS0_@Base 3.2.1
 _ZN8casacore10ColumnDescC2EPNS_14BaseColumnDescE@Base 3.2.1
 _ZN8casacore10ColumnDescC2ERKNS_14BaseColumnDescE@Base 3.2.1
 _ZN8casacore10ColumnDescC2ERKS0_@Base 3.2.1
 _ZN8casacore10ColumnDescD1Ev@Base 3.2.1
 _ZN8casacore10ColumnDescD2Ev@Base 3.2.1
 _ZN8casacore10ColumnDescaSERKS0_@Base 3.2.1
 _ZN8casacore10ConcatRows3addEj@Base 3.2.1
 _ZN8casacore10CountedPtrINS_11BaseCompareEEaSEPS1_@Base 3.2.1
 _ZN8casacore10CountedPtrINS_13ArrayIteratorIbEEEaSEPS2_@Base 3.2.1
 _ZN8casacore10CountedPtrINS_16TableExprNodeRepEEaSEPS1_@Base 3.2.1
 _ZN8casacore10CountedPtrINS_5BlockINS_6MVTimeEEEEaSEPS3_@Base 3.2.1
 _ZN8casacore10MArrayBase10resizeBaseERKNS_9ArrayBaseEb@Base 3.2.1
 _ZN8casacore10MArrayBase13referenceBaseERKS0_@Base 3.2.1
 _ZN8casacore10MArrayBase4initEv@Base 3.2.1
 _ZN8casacore10MArrayBase7setBaseERKNS_9ArrayBaseERKNS_5ArrayIbEE@Base 3.2.1
 _ZN8casacore10MArrayBase7setMaskERKNS_5ArrayIbEE@Base 3.2.1
 _ZN8casacore10MArrayBaseC1ERKNS_9ArrayBaseERKNS_5ArrayIbEEb@Base 3.2.1
 _ZN8casacore10MArrayBaseC1ERKNS_9ArrayBaseERKS0_@Base 3.2.1
 _ZN8casacore10MArrayBaseC2ERKNS_9ArrayBaseERKNS_5ArrayIbEEb@Base 3.2.1
 _ZN8casacore10MArrayBaseC2ERKNS_9ArrayBaseERKS0_@Base 3.2.1
 _ZN8casacore10MAvdevFuncISt7complexIdEED0Ev@Base 3.2.1
 _ZN8casacore10MAvdevFuncISt7complexIdEED1Ev@Base 3.2.1
 _ZN8casacore10MAvdevFuncISt7complexIdEED2Ev@Base 3.2.1
 _ZN8casacore10MAvdevFuncIdED0Ev@Base 3.2.1
 _ZN8casacore10MAvdevFuncIdED1Ev@Base 3.2.1
 _ZN8casacore10MAvdevFuncIdED2Ev@Base 3.2.1
 _ZN8casacore10MNTrueFuncIbjED0Ev@Base 3.2.1
 _ZN8casacore10MNTrueFuncIbjED1Ev@Base 3.2.1
 _ZN8casacore10MNTrueFuncIbjED2Ev@Base 3.2.1
 _ZN8casacore10MedianFuncIdED0Ev@Base 3.2.1
 _ZN8casacore10MedianFuncIdED1Ev@Base 3.2.1
 _ZN8casacore10MedianFuncIdED2Ev@Base 3.2.1
 _ZN8casacore10NFalseFuncIbjED0Ev@Base 3.2.1
 _ZN8casacore10NFalseFuncIbjED1Ev@Base 3.2.1
 _ZN8casacore10NFalseFuncIbjED2Ev@Base 3.2.1
 _ZN8casacore10ObjCompareINS_6StringEE7compareEPKvS4_@Base 3.2.1
 _ZN8casacore10ObjCompareINS_6StringEED0Ev@Base 3.2.1
 _ZN8casacore10ObjCompareINS_6StringEED1Ev@Base 3.2.1
 _ZN8casacore10ObjCompareINS_6StringEED2Ev@Base 3.2.1
 _ZN8casacore10ObjCompareISt7complexIdEE7compareEPKvS5_@Base 3.2.1
 _ZN8casacore10ObjCompareISt7complexIdEED0Ev@Base 3.2.1
 _ZN8casacore10ObjCompareISt7complexIdEED1Ev@Base 3.2.1
 _ZN8casacore10ObjCompareISt7complexIdEED2Ev@Base 3.2.1
 _ZN8casacore10ObjCompareISt7complexIfEE7compareEPKvS5_@Base 3.2.1
 _ZN8casacore10ObjCompareISt7complexIfEED0Ev@Base 3.2.1
 _ZN8casacore10ObjCompareISt7complexIfEED1Ev@Base 3.2.1
 _ZN8casacore10ObjCompareISt7complexIfEED2Ev@Base 3.2.1
 _ZN8casacore10ObjCompareIbE7compareEPKvS3_@Base 3.2.1
 _ZN8casacore10ObjCompareIbED0Ev@Base 3.2.1
 _ZN8casacore10ObjCompareIbED1Ev@Base 3.2.1
 _ZN8casacore10ObjCompareIbED2Ev@Base 3.2.1
 _ZN8casacore10ObjCompareIcED0Ev@Base 3.2.1
 _ZN8casacore10ObjCompareIcED1Ev@Base 3.2.1
 _ZN8casacore10ObjCompareIcED2Ev@Base 3.2.1
 _ZN8casacore10ObjCompareIdE7compareEPKvS3_@Base 3.2.1
 _ZN8casacore10ObjCompareIdED0Ev@Base 3.2.1
 _ZN8casacore10ObjCompareIdED1Ev@Base 3.2.1
 _ZN8casacore10ObjCompareIdED2Ev@Base 3.2.1
 _ZN8casacore10ObjCompareIfE7compareEPKvS3_@Base 3.2.1
 _ZN8casacore10ObjCompareIfED0Ev@Base 3.2.1
 _ZN8casacore10ObjCompareIfED1Ev@Base 3.2.1
 _ZN8casacore10ObjCompareIfED2Ev@Base 3.2.1
 _ZN8casacore10ObjCompareIhE7compareEPKvS3_@Base 3.2.1
 _ZN8casacore10ObjCompareIhED0Ev@Base 3.2.1
 _ZN8casacore10ObjCompareIhED1Ev@Base 3.2.1
 _ZN8casacore10ObjCompareIhED2Ev@Base 3.2.1
 _ZN8casacore10ObjCompareIiE7compareEPKvS3_@Base 3.2.1
 _ZN8casacore10ObjCompareIiED0Ev@Base 3.2.1
 _ZN8casacore10ObjCompareIiED1Ev@Base 3.2.1
 _ZN8casacore10ObjCompareIiED2Ev@Base 3.2.1
 _ZN8casacore10ObjCompareIjE7compareEPKvS3_@Base 3.2.1
 _ZN8casacore10ObjCompareIjED0Ev@Base 3.2.1
 _ZN8casacore10ObjCompareIjED1Ev@Base 3.2.1
 _ZN8casacore10ObjCompareIjED2Ev@Base 3.2.1
 _ZN8casacore10ObjCompareIsE7compareEPKvS3_@Base 3.2.1
 _ZN8casacore10ObjCompareIsED0Ev@Base 3.2.1
 _ZN8casacore10ObjCompareIsED1Ev@Base 3.2.1
 _ZN8casacore10ObjCompareIsED2Ev@Base 3.2.1
 _ZN8casacore10ObjCompareItE7compareEPKvS3_@Base 3.2.1
 _ZN8casacore10ObjCompareItED0Ev@Base 3.2.1
 _ZN8casacore10ObjCompareItED1Ev@Base 3.2.1
 _ZN8casacore10ObjCompareItED2Ev@Base 3.2.1
 _ZN8casacore10ObjCompareIxE7compareEPKvS3_@Base 3.2.1
 _ZN8casacore10ObjCompareIxED0Ev@Base 3.2.1
 _ZN8casacore10ObjCompareIxED1Ev@Base 3.2.1
 _ZN8casacore10ObjCompareIxED2Ev@Base 3.2.1
 _ZN8casacore10PlainTable10keywordSetEv@Base 3.2.1
 _ZN8casacore10PlainTable11closeObjectEv@Base 3.2.1
 _ZN8casacore10PlainTable12removeColumnERKNS_6VectorINS_6StringEEE@Base 3.2.1
 _ZN8casacore10PlainTable12renameColumnERKNS_6StringES3_@Base 3.2.1
 _ZN8casacore10PlainTable12rwKeywordSetEv@Base 3.2.1
 _ZN8casacore10PlainTable15autoReleaseLockEb@Base 3.2.1
 _ZN8casacore10PlainTable15releaseCallBackEPvb@Base 3.2.1
 _ZN8casacore10PlainTable15renameSubTablesERKNS_6StringES3_@Base 3.2.1
 _ZN8casacore10PlainTable15setTableChangedEv@Base 3.2.1
 _ZN8casacore10PlainTable15theirTableCacheE@Base 3.2.1
 _ZN8casacore10PlainTable15toAipsIOFoptionEi@Base 3.2.1
 _ZN8casacore10PlainTable16PlainTableCommonERNS_13SetupNewTableEjbRKNS_9TableLockEiRKNS_9TSMOptionE@Base 3.2.1
 _ZN8casacore10PlainTable17doReleaseCallBackEb@Base 3.2.1
 _ZN8casacore10PlainTable17renameHypercolumnERKNS_6StringES3_@Base 3.2.1
 _ZN8casacore10PlainTable4lockENS_10FileLocker8LockTypeEj@Base 3.2.1
 _ZN8casacore10PlainTable5flushEbb@Base 3.2.1
 _ZN8casacore10PlainTable6addRowEjb@Base 3.2.1
 _ZN8casacore10PlainTable6resyncEv@Base 3.2.1
 _ZN8casacore10PlainTable6unlockEv@Base 3.2.1
 _ZN8casacore10PlainTable7putFileEb@Base 3.2.1
 _ZN8casacore10PlainTable8reopenRWEv@Base 3.2.1
 _ZN8casacore10PlainTable9addColumnERKNS_10ColumnDescERKNS_11DataManagerEb@Base 3.2.1
 _ZN8casacore10PlainTable9addColumnERKNS_10ColumnDescERKNS_6StringEbb@Base 3.2.1
 _ZN8casacore10PlainTable9addColumnERKNS_10ColumnDescEb@Base 3.2.1
 _ZN8casacore10PlainTable9addColumnERKNS_9TableDescERKNS_11DataManagerEb@Base 3.2.1
 _ZN8casacore10PlainTable9getLayoutERNS_9TableDescERNS_6AipsIOE@Base 3.2.1
 _ZN8casacore10PlainTable9mergeLockERKNS_9TableLockE@Base 3.2.1
 _ZN8casacore10PlainTable9removeRowEj@Base 3.2.1
 _ZN8casacore10PlainTable9setEndianEi@Base 3.2.1
 _ZN8casacore10PlainTable9syncTableEv@Base 3.2.1
 _ZN8casacore10PlainTableC1ERNS_13SetupNewTableEjbRKNS_9TableLockEiRKNS_9TSMOptionE@Base 3.2.1
 _ZN8casacore10PlainTableC1ERNS_6AipsIOEjRKNS_6StringES5_jiRKNS_9TableLockERKNS_9TSMOptionEbj@Base 3.2.1
 _ZN8casacore10PlainTableC2ERNS_13SetupNewTableEjbRKNS_9TableLockEiRKNS_9TSMOptionE@Base 3.2.1
 _ZN8casacore10PlainTableC2ERNS_6AipsIOEjRKNS_6StringES5_jiRKNS_9TableLockERKNS_9TSMOptionEbj@Base 3.2.1
 _ZN8casacore10PlainTableD0Ev@Base 3.2.1
 _ZN8casacore10PlainTableD1Ev@Base 3.2.1
 _ZN8casacore10PlainTableD2Ev@Base 3.2.1
 _ZN8casacore10ROTableRow11makeObjectsERKNS_10RecordDescE@Base 3.2.1
 _ZN8casacore10ROTableRow13deleteObjectsEv@Base 3.2.1
 _ZN8casacore10ROTableRow15addColumnToDescERNS_10RecordDescERKNS_11TableColumnEb@Base 3.2.1
 _ZN8casacore10ROTableRow15makeDescExcludeERNS_10RecordDescERKNS_6VectorINS_6StringEEEb@Base 3.2.1
 _ZN8casacore10ROTableRow4copyERKS0_@Base 3.2.1
 _ZN8casacore10ROTableRow4initEv@Base 3.2.1
 _ZN8casacore10ROTableRow6createERKNS_5TableERKNS_6VectorINS_6StringEEEbb@Base 3.2.1
 _ZN8casacore10ROTableRow6createERKNS_5TableEbb@Base 3.2.1
 _ZN8casacore10ROTableRow8putFieldEjRKNS_11TableRecordEii@Base 3.2.1
 _ZN8casacore10ROTableRow9putRecordEj@Base 3.2.1
 _ZN8casacore10ROTableRow9setRereadEj@Base 3.2.1
 _ZN8casacore10ROTableRowC1ERKNS_5TableERKNS_6VectorINS_6StringEEEb@Base 3.2.1
 _ZN8casacore10ROTableRowC1ERKNS_5TableEb@Base 3.2.1
 _ZN8casacore10ROTableRowC1ERKS0_@Base 3.2.1
 _ZN8casacore10ROTableRowC1Ev@Base 3.2.1
 _ZN8casacore10ROTableRowC2ERKNS_5TableERKNS_6VectorINS_6StringEEEb@Base 3.2.1
 _ZN8casacore10ROTableRowC2ERKNS_5TableEb@Base 3.2.1
 _ZN8casacore10ROTableRowC2ERKS0_@Base 3.2.1
 _ZN8casacore10ROTableRowC2Ev@Base 3.2.1
 _ZN8casacore10ROTableRowD1Ev@Base 3.2.1
 _ZN8casacore10ROTableRowD2Ev@Base 3.2.1
 _ZN8casacore10ROTableRowaSERKS0_@Base 3.2.1
 _ZN8casacore10RecordGram10handleFuncERKNS_6StringERKNS_16TableExprNodeSetE@Base 3.2.1
 _ZN8casacore10RecordGram10theirMutexE@Base 3.2.1
 _ZN8casacore10RecordGram11deleteTokenEPNS_13RecordGramValE@Base 3.2.1
 _ZN8casacore10RecordGram11deleteTokenEPNS_13TableExprNodeE@Base 3.2.1
 _ZN8casacore10RecordGram11deleteTokenEPNS_16TableExprNodeSetE@Base 3.2.1
 _ZN8casacore10RecordGram11deleteTokenEPNS_20TableExprNodeSetElemE@Base 3.2.1
 _ZN8casacore10RecordGram11expr2DoubleERKNS_6StringERKNS_6RecordES3_@Base 3.2.1
 _ZN8casacore10RecordGram11expr2StringERKNS_6StringERKNS_6RecordE@Base 3.2.1
 _ZN8casacore10RecordGram11handleFieldERKNS_6StringE@Base 3.2.1
 _ZN8casacore10RecordGram11handleRegexERKNS_13TableExprNodeERKNS_6StringE@Base 3.2.1
 _ZN8casacore10RecordGram11theirRecPtrE@Base 3.2.1
 _ZN8casacore10RecordGram11theirTabPtrE@Base 3.2.1
 _ZN8casacore10RecordGram11theirTokensE@Base 3.2.1
 _ZN8casacore10RecordGram12expr2ComplexERKNS_6StringERKNS_6RecordE@Base 3.2.1
 _ZN8casacore10RecordGram12theirNodePtrE@Base 3.2.1
 _ZN8casacore10RecordGram13expr2ArrayIntERKNS_6StringERKNS_6RecordE@Base 3.2.1
 _ZN8casacore10RecordGram13handleLiteralEPNS_13RecordGramValE@Base 3.2.1
 _ZN8casacore10RecordGram14expr2ArrayBoolERKNS_6StringERKNS_6RecordE@Base 3.2.1
 _ZN8casacore10RecordGram14expr2ArrayDateERKNS_6StringERKNS_6RecordE@Base 3.2.1
 _ZN8casacore10RecordGram14theirTaQLStyleE@Base 3.2.1
 _ZN8casacore10RecordGram16expr2ArrayDoubleERKNS_6StringERKNS_6RecordES3_@Base 3.2.1
 _ZN8casacore10RecordGram16expr2ArrayStringERKNS_6StringERKNS_6RecordE@Base 3.2.1
 _ZN8casacore10RecordGram17expr2ArrayComplexERKNS_6StringERKNS_6RecordE@Base 3.2.1
 _ZN8casacore10RecordGram18deleteTokenStorageEv@Base 3.2.1
 _ZN8casacore10RecordGram5parseERKNS_15RecordInterfaceERKNS_6StringE@Base 3.2.1
 _ZN8casacore10RecordGram5parseERKNS_5TableERKNS_6StringE@Base 3.2.1
 _ZN8casacore10RecordGram7doParseERKNS_6StringE@Base 3.2.1
 _ZN8casacore10RecordGram8addTokenEPNS_13RecordGramValE@Base 3.2.1
 _ZN8casacore10RecordGram8addTokenEPNS_13TableExprNodeE@Base 3.2.1
 _ZN8casacore10RecordGram8addTokenEPNS_16TableExprNodeSetE@Base 3.2.1
 _ZN8casacore10RecordGram8addTokenEPNS_20TableExprNodeSetElemE@Base 3.2.1
 _ZN8casacore10RecordGram8expr2IntERKNS_6StringERKNS_6RecordE@Base 3.2.1
 _ZN8casacore10RecordGram9expr2BoolERKNS_6StringERKNS_6RecordE@Base 3.2.1
 _ZN8casacore10RecordGram9expr2DateERKNS_6StringERKNS_6RecordE@Base 3.2.1
 _ZN8casacore10StIndArray10getVecIntVERNS_14StManArrayFileExjjjjPv@Base 3.2.1
 _ZN8casacore10StIndArray10putVecIntVERNS_14StManArrayFileExjjjjPKv@Base 3.2.1
 _ZN8casacore10StIndArray11getVecBoolVERNS_14StManArrayFileExjjjjPv@Base 3.2.1
 _ZN8casacore10StIndArray11getVecuIntVERNS_14StManArrayFileExjjjjPv@Base 3.2.1
 _ZN8casacore10StIndArray11putVecBoolVERNS_14StManArrayFileExjjjjPKv@Base 3.2.1
 _ZN8casacore10StIndArray11putVecuIntVERNS_14StManArrayFileExjjjjPKv@Base 3.2.1
 _ZN8casacore10StIndArray12getArrayIntVERNS_14StManArrayFileEPNS_5ArrayIiEE@Base 3.2.1
 _ZN8casacore10StIndArray12getSliceDataERNS_14StManArrayFileERKNS_6SlicerEPvRKNS_9IPositionEPFvS2_xjjjjS6_E@Base 3.2.1
 _ZN8casacore10StIndArray12getSliceIntVERNS_14StManArrayFileERKNS_6SlicerEPNS_5ArrayIiEE@Base 3.2.1
 _ZN8casacore10StIndArray12getVecInt64VERNS_14StManArrayFileExjjjjPv@Base 3.2.1
 _ZN8casacore10StIndArray12getVecShortVERNS_14StManArrayFileExjjjjPv@Base 3.2.1
 _ZN8casacore10StIndArray12getVecfloatVERNS_14StManArrayFileExjjjjPv@Base 3.2.1
 _ZN8casacore10StIndArray12getVecuCharVERNS_14StManArrayFileExjjjjPv@Base 3.2.1
 _ZN8casacore10StIndArray12putArrayIntVERNS_14StManArrayFileEPKNS_5ArrayIiEE@Base 3.2.1
 _ZN8casacore10StIndArray12putSliceDataERNS_14StManArrayFileERKNS_6SlicerEPKvRKNS_9IPositionEPFvS2_xjjjjS7_E@Base 3.2.1
 _ZN8casacore10StIndArray12putSliceIntVERNS_14StManArrayFileERKNS_6SlicerEPKNS_5ArrayIiEE@Base 3.2.1
 _ZN8casacore10StIndArray12putVecInt64VERNS_14StManArrayFileExjjjjPKv@Base 3.2.1
 _ZN8casacore10StIndArray12putVecShortVERNS_14StManArrayFileExjjjjPKv@Base 3.2.1
 _ZN8casacore10StIndArray12putVecfloatVERNS_14StManArrayFileExjjjjPKv@Base 3.2.1
 _ZN8casacore10StIndArray12putVecuCharVERNS_14StManArrayFileExjjjjPKv@Base 3.2.1
 _ZN8casacore10StIndArray13getArrayBoolVERNS_14StManArrayFileEPNS_5ArrayIbEE@Base 3.2.1
 _ZN8casacore10StIndArray13getArrayuIntVERNS_14StManArrayFileEPNS_5ArrayIjEE@Base 3.2.1
 _ZN8casacore10StIndArray13getSliceBoolVERNS_14StManArrayFileERKNS_6SlicerEPNS_5ArrayIbEE@Base 3.2.1
 _ZN8casacore10StIndArray13getSliceuIntVERNS_14StManArrayFileERKNS_6SlicerEPNS_5ArrayIjEE@Base 3.2.1
 _ZN8casacore10StIndArray13getVecStringVERNS_14StManArrayFileExjjjjPv@Base 3.2.1
 _ZN8casacore10StIndArray13getVecdoubleVERNS_14StManArrayFileExjjjjPv@Base 3.2.1
 _ZN8casacore10StIndArray13getVecuShortVERNS_14StManArrayFileExjjjjPv@Base 3.2.1
 _ZN8casacore10StIndArray13putArrayBoolVERNS_14StManArrayFileEPKNS_5ArrayIbEE@Base 3.2.1
 _ZN8casacore10StIndArray13putArrayuIntVERNS_14StManArrayFileEPKNS_5ArrayIjEE@Base 3.2.1
 _ZN8casacore10StIndArray13putSliceBoolVERNS_14StManArrayFileERKNS_6SlicerEPKNS_5ArrayIbEE@Base 3.2.1
 _ZN8casacore10StIndArray13putSliceuIntVERNS_14StManArrayFileERKNS_6SlicerEPKNS_5ArrayIjEE@Base 3.2.1
 _ZN8casacore10StIndArray13putVecStringVERNS_14StManArrayFileExjjjjPKv@Base 3.2.1
 _ZN8casacore10StIndArray13putVecdoubleVERNS_14StManArrayFileExjjjjPKv@Base 3.2.1
 _ZN8casacore10StIndArray13putVecuShortVERNS_14StManArrayFileExjjjjPKv@Base 3.2.1
 _ZN8casacore10StIndArray14getArrayInt64VERNS_14StManArrayFileEPNS_5ArrayIxEE@Base 3.2.1
 _ZN8casacore10StIndArray14getArrayShortVERNS_14StManArrayFileEPNS_5ArrayIsEE@Base 3.2.1
 _ZN8casacore10StIndArray14getArrayfloatVERNS_14StManArrayFileEPNS_5ArrayIfEE@Base 3.2.1
 _ZN8casacore10StIndArray14getArrayuCharVERNS_14StManArrayFileEPNS_5ArrayIhEE@Base 3.2.1
 _ZN8casacore10StIndArray14getSliceInt64VERNS_14StManArrayFileERKNS_6SlicerEPNS_5ArrayIxEE@Base 3.2.1
 _ZN8casacore10StIndArray14getSliceShortVERNS_14StManArrayFileERKNS_6SlicerEPNS_5ArrayIsEE@Base 3.2.1
 _ZN8casacore10StIndArray14getSlicefloatVERNS_14StManArrayFileERKNS_6SlicerEPNS_5ArrayIfEE@Base 3.2.1
 _ZN8casacore10StIndArray14getSliceuCharVERNS_14StManArrayFileERKNS_6SlicerEPNS_5ArrayIhEE@Base 3.2.1
 _ZN8casacore10StIndArray14getVecComplexVERNS_14StManArrayFileExjjjjPv@Base 3.2.1
 _ZN8casacore10StIndArray14putArrayInt64VERNS_14StManArrayFileEPKNS_5ArrayIxEE@Base 3.2.1
 _ZN8casacore10StIndArray14putArrayShortVERNS_14StManArrayFileEPKNS_5ArrayIsEE@Base 3.2.1
 _ZN8casacore10StIndArray14putArrayfloatVERNS_14StManArrayFileEPKNS_5ArrayIfEE@Base 3.2.1
 _ZN8casacore10StIndArray14putArrayuCharVERNS_14StManArrayFileEPKNS_5ArrayIhEE@Base 3.2.1
 _ZN8casacore10StIndArray14putSliceInt64VERNS_14StManArrayFileERKNS_6SlicerEPKNS_5ArrayIxEE@Base 3.2.1
 _ZN8casacore10StIndArray14putSliceShortVERNS_14StManArrayFileERKNS_6SlicerEPKNS_5ArrayIsEE@Base 3.2.1
 _ZN8casacore10StIndArray14putSlicefloatVERNS_14StManArrayFileERKNS_6SlicerEPKNS_5ArrayIfEE@Base 3.2.1
 _ZN8casacore10StIndArray14putSliceuCharVERNS_14StManArrayFileERKNS_6SlicerEPKNS_5ArrayIhEE@Base 3.2.1
 _ZN8casacore10StIndArray14putVecComplexVERNS_14StManArrayFileExjjjjPKv@Base 3.2.1
 _ZN8casacore10StIndArray15getArrayStringVERNS_14StManArrayFileEPNS_5ArrayINS_6StringEEE@Base 3.2.1
 _ZN8casacore10StIndArray15getArraydoubleVERNS_14StManArrayFileEPNS_5ArrayIdEE@Base 3.2.1
 _ZN8casacore10StIndArray15getArrayuShortVERNS_14StManArrayFileEPNS_5ArrayItEE@Base 3.2.1
 _ZN8casacore10StIndArray15getSliceStringVERNS_14StManArrayFileERKNS_6SlicerEPNS_5ArrayINS_6StringEEE@Base 3.2.1
 _ZN8casacore10StIndArray15getSlicedoubleVERNS_14StManArrayFileERKNS_6SlicerEPNS_5ArrayIdEE@Base 3.2.1
 _ZN8casacore10StIndArray15getSliceuShortVERNS_14StManArrayFileERKNS_6SlicerEPNS_5ArrayItEE@Base 3.2.1
 _ZN8casacore10StIndArray15getVecDComplexVERNS_14StManArrayFileExjjjjPv@Base 3.2.1
 _ZN8casacore10StIndArray15putArrayStringVERNS_14StManArrayFileEPKNS_5ArrayINS_6StringEEE@Base 3.2.1
 _ZN8casacore10StIndArray15putArraydoubleVERNS_14StManArrayFileEPKNS_5ArrayIdEE@Base 3.2.1
 _ZN8casacore10StIndArray15putArrayuShortVERNS_14StManArrayFileEPKNS_5ArrayItEE@Base 3.2.1
 _ZN8casacore10StIndArray15putSliceStringVERNS_14StManArrayFileERKNS_6SlicerEPKNS_5ArrayINS_6StringEEE@Base 3.2.1
 _ZN8casacore10StIndArray15putSlicedoubleVERNS_14StManArrayFileERKNS_6SlicerEPKNS_5ArrayIdEE@Base 3.2.1
 _ZN8casacore10StIndArray15putSliceuShortVERNS_14StManArrayFileERKNS_6SlicerEPKNS_5ArrayItEE@Base 3.2.1
 _ZN8casacore10StIndArray15putVecDComplexVERNS_14StManArrayFileExjjjjPKv@Base 3.2.1
 _ZN8casacore10StIndArray16getArrayComplexVERNS_14StManArrayFileEPNS_5ArrayISt7complexIfEEE@Base 3.2.1
 _ZN8casacore10StIndArray16getSliceComplexVERNS_14StManArrayFileERKNS_6SlicerEPNS_5ArrayISt7complexIfEEE@Base 3.2.1
 _ZN8casacore10StIndArray16putArrayComplexVERNS_14StManArrayFileEPKNS_5ArrayISt7complexIfEEE@Base 3.2.1
 _ZN8casacore10StIndArray16putSliceComplexVERNS_14StManArrayFileERKNS_6SlicerEPKNS_5ArrayISt7complexIfEEE@Base 3.2.1
 _ZN8casacore10StIndArray17decrementRefCountERNS_14StManArrayFileE@Base 3.2.1
 _ZN8casacore10StIndArray17getArrayDComplexVERNS_14StManArrayFileEPNS_5ArrayISt7complexIdEEE@Base 3.2.1
 _ZN8casacore10StIndArray17getSliceDComplexVERNS_14StManArrayFileERKNS_6SlicerEPNS_5ArrayISt7complexIdEEE@Base 3.2.1
 _ZN8casacore10StIndArray17incrementRefCountERNS_14StManArrayFileE@Base 3.2.1
 _ZN8casacore10StIndArray17putArrayDComplexVERNS_14StManArrayFileEPKNS_5ArrayISt7complexIdEEE@Base 3.2.1
 _ZN8casacore10StIndArray17putSliceDComplexVERNS_14StManArrayFileERKNS_6SlicerEPKNS_5ArrayISt7complexIdEEE@Base 3.2.1
 _ZN8casacore10StIndArray8copyDataERNS_14StManArrayFileEiRKS0_@Base 3.2.1
 _ZN8casacore10StIndArray8getShapeERNS_14StManArrayFileE@Base 3.2.1
 _ZN8casacore10StIndArray8refCountERNS_14StManArrayFileE@Base 3.2.1
 _ZN8casacore10StIndArray8setShapeERNS_14StManArrayFileEiRKNS_9IPositionE@Base 3.2.1
 _ZN8casacore10StIndArrayC1ERKS0_@Base 3.2.1
 _ZN8casacore10StIndArrayC1Ex@Base 3.2.1
 _ZN8casacore10StIndArrayC2ERKS0_@Base 3.2.1
 _ZN8casacore10StIndArrayC2Ex@Base 3.2.1
 _ZN8casacore10StIndArrayD1Ev@Base 3.2.1
 _ZN8casacore10StIndArrayD2Ev@Base 3.2.1
 _ZN8casacore10StIndArrayaSERKS0_@Base 3.2.1
 _ZN8casacore10StddevFuncISt7complexIdEED0Ev@Base 3.2.1
 _ZN8casacore10StddevFuncISt7complexIdEED1Ev@Base 3.2.1
 _ZN8casacore10StddevFuncISt7complexIdEED2Ev@Base 3.2.1
 _ZN8casacore10StddevFuncIdED0Ev@Base 3.2.1
 _ZN8casacore10StddevFuncIdED1Ev@Base 3.2.1
 _ZN8casacore10StddevFuncIdED2Ev@Base 3.2.1
 _ZN8casacore10SumSqrFuncISt7complexIdEED0Ev@Base 3.2.1
 _ZN8casacore10SumSqrFuncISt7complexIdEED1Ev@Base 3.2.1
 _ZN8casacore10SumSqrFuncISt7complexIdEED2Ev@Base 3.2.1
 _ZN8casacore10SumSqrFuncIdED0Ev@Base 3.2.1
 _ZN8casacore10SumSqrFuncIdED1Ev@Base 3.2.1
 _ZN8casacore10SumSqrFuncIdED2Ev@Base 3.2.1
 _ZN8casacore10SumSqrFuncIxED0Ev@Base 3.2.1
 _ZN8casacore10SumSqrFuncIxED1Ev@Base 3.2.1
 _ZN8casacore10SumSqrFuncIxED2Ev@Base 3.2.1
 _ZN8casacore10TEFMASKnegISt7complexIdEEENS_6MArrayIT_EERKS5_@Base 3.2.1
 _ZN8casacore10TEFMASKnegIbEENS_6MArrayIT_EERKS3_@Base 3.2.1
 _ZN8casacore10TEFMASKnegIdEENS_6MArrayIT_EERKS3_@Base 3.2.1
 _ZN8casacore10TEFMASKnegIxEENS_6MArrayIT_EERKS3_@Base 3.2.1
 _ZN8casacore10TEFNAiifASINS_6MVTimeEEENS_6MArrayIT_EEbRKS4_RKNS_10CountedPtrINS_16TableExprNodeRepEEERKNS_11TableExprIdE@Base 3.2.1
 _ZN8casacore10TEFNAiifASINS_6StringEEENS_6MArrayIT_EEbRKS4_RKNS_10CountedPtrINS_16TableExprNodeRepEEERKNS_11TableExprIdE@Base 3.2.1
 _ZN8casacore10TEFNAiifASISt7complexIdEEENS_6MArrayIT_EEbRKS5_RKNS_10CountedPtrINS_16TableExprNodeRepEEERKNS_11TableExprIdE@Base 3.2.1
 _ZN8casacore10TEFNAiifASIbEENS_6MArrayIT_EEbRKS3_RKNS_10CountedPtrINS_16TableExprNodeRepEEERKNS_11TableExprIdE@Base 3.2.1
 _ZN8casacore10TEFNAiifASIdEENS_6MArrayIT_EEbRKS3_RKNS_10CountedPtrINS_16TableExprNodeRepEEERKNS_11TableExprIdE@Base 3.2.1
 _ZN8casacore10TEFNAiifASIxEENS_6MArrayIT_EEbRKS3_RKNS_10CountedPtrINS_16TableExprNodeRepEEERKNS_11TableExprIdE@Base 3.2.1
 _ZN8casacore10TEGMeanAddISt7complexIdEEEvRKNS_6MArrayIT_EERNS_5ArrayIS4_EERNS8_IxEE@Base 3.2.1
 _ZN8casacore10TEGMeanAddIdEEvRKNS_6MArrayIT_EERNS_5ArrayIS2_EERNS6_IxEE@Base 3.2.1
 _ZN8casacore10TEGProductISt7complexIdEEEvRKNS_6MArrayIT_EERS5_@Base 3.2.1
 _ZN8casacore10TEGProductIdEEvRKNS_6MArrayIT_EERS3_@Base 3.2.1
 _ZN8casacore10TEGProductIxEEvRKNS_6MArrayIT_EERS3_@Base 3.2.1
 _ZN8casacore10TaQLResultC1ERKNS_13TableExprNodeE@Base 3.2.1
 _ZN8casacore10TaQLResultC1ERKNS_5TableE@Base 3.2.1
 _ZN8casacore10TaQLResultC2ERKNS_13TableExprNodeE@Base 3.2.1
 _ZN8casacore10TaQLResultC2ERKNS_5TableE@Base 3.2.1
 _ZN8casacore10TableCache10flushTableERKNS_6StringEbb@Base 3.2.1
 _ZN8casacore10TableCache10nAutoLocksEv@Base 3.2.1
 _ZN8casacore10TableCache15getLockedTablesENS_10FileLocker8LockTypeEi@Base 3.2.1
 _ZN8casacore10TableCache19relinquishAutoLocksEb@Base 3.2.1
 _ZN8casacore10TableCache6defineERKNS_6StringEPNS_10PlainTableE@Base 3.2.1
 _ZN8casacore10TableCache6removeERKNS_6StringE@Base 3.2.1
 _ZN8casacore10TableCache6renameERKNS_6StringES3_@Base 3.2.1
 _ZN8casacore10TableCache9lookCacheERKNS_6StringEiRKNS_9TableLockE@Base 3.2.1
 _ZN8casacore10TableCacheC1Ev@Base 3.2.1
 _ZN8casacore10TableCacheC2Ev@Base 3.2.1
 _ZN8casacore10TableCacheD1Ev@Base 3.2.1
 _ZN8casacore10TableCacheD2Ev@Base 3.2.1
 _ZN8casacore10TableErrorC1ENS_9AipsError8CategoryE@Base 3.2.1
 _ZN8casacore10TableErrorC1ERKNS_6StringENS_9AipsError8CategoryE@Base 3.2.1
 _ZN8casacore10TableErrorC2ENS_9AipsError8CategoryE@Base 3.2.1
 _ZN8casacore10TableErrorC2ERKNS_6StringENS_9AipsError8CategoryE@Base 3.2.1
 _ZN8casacore10TableErrorD0Ev@Base 3.2.1
 _ZN8casacore10TableErrorD1Ev@Base 3.2.1
 _ZN8casacore10TableErrorD2Ev@Base 3.2.1
 _ZN8casacore10TableInvDTC1ENS_9AipsError8CategoryE@Base 3.2.1
 _ZN8casacore10TableInvDTC1ERKNS_6StringENS_9AipsError8CategoryE@Base 3.2.1
 _ZN8casacore10TableInvDTC2ENS_9AipsError8CategoryE@Base 3.2.1
 _ZN8casacore10TableInvDTC2ERKNS_6StringENS_9AipsError8CategoryE@Base 3.2.1
 _ZN8casacore10TableInvDTD0Ev@Base 3.2.1
 _ZN8casacore10TableInvDTD1Ev@Base 3.2.1
 _ZN8casacore10TableInvDTD2Ev@Base 3.2.1
 _ZN8casacore10TableNoDirC1ERKNS_6StringENS_9AipsError8CategoryE@Base 3.2.1
 _ZN8casacore10TableNoDirC2ERKNS_6StringENS_9AipsError8CategoryE@Base 3.2.1
 _ZN8casacore10TableNoDirD0Ev@Base 3.2.1
 _ZN8casacore10TableNoDirD1Ev@Base 3.2.1
 _ZN8casacore10TableNoDirD2Ev@Base 3.2.1
 _ZN8casacore10TableParseC1ERKNS_5TableERKNS_6StringE@Base 3.2.1
 _ZN8casacore10TableParseC1ERKS0_@Base 3.2.1
 _ZN8casacore10TableParseC1Ev@Base 3.2.1
 _ZN8casacore10TableParseC2ERKNS_5TableERKNS_6StringE@Base 3.2.1
 _ZN8casacore10TableParseC2ERKS0_@Base 3.2.1
 _ZN8casacore10TableParseC2Ev@Base 3.2.1
 _ZN8casacore10TableParseD1Ev@Base 3.2.1
 _ZN8casacore10TableParseD2Ev@Base 3.2.1
 _ZN8casacore10TableParseaSERKS0_@Base 3.2.1
 _ZN8casacore10TableProxy10addColumnsERKNS_6RecordES3_b@Base 3.2.1
 _ZN8casacore10TableProxy10calcValuesERNS_6RecordERKNS_13TableExprNodeE@Base 3.2.1
 _ZN8casacore10TableProxy10getColInfoERKNS_6StringEbRS1_S4_@Base 3.2.1
 _ZN8casacore10TableProxy10getKeywordERKNS_6StringES3_i@Base 3.2.1
 _ZN8casacore10TableProxy10getTypeStrENS_8DataTypeE@Base 3.2.1
 _ZN8casacore10TableProxy10putKeywordERKNS_6StringES3_ibRKNS_11ValueHolderE@Base 3.2.1
 _ZN8casacore10TableProxy10rowNumbersERS0_@Base 3.2.1
 _ZN8casacore10TableProxy10selectRowsERKNS_6VectorIiEERKNS_6StringE@Base 3.2.1
 _ZN8casacore10TableProxy11columnNamesEv@Base 3.2.1
 _ZN8casacore10TableProxy11deleteTableEb@Base 3.2.1
 _ZN8casacore10TableProxy11getColumnVHERKNS_6StringEiiiRKNS_11ValueHolderE@Base 3.2.1
 _ZN8casacore10TableProxy11isMultiUsedEb@Base 3.2.1
 _ZN8casacore10TableProxy11lockOptionsEv@Base 3.2.1
 _ZN8casacore10TableProxy12getCellSliceERKNS_6StringEiRKNS_6VectorIiEES7_S7_@Base 3.2.1
 _ZN8casacore10TableProxy12getPartNamesEb@Base 3.2.1
 _ZN8casacore10TableProxy12getRowsCheckERKNS_6StringExxxS3_@Base 3.2.1
 _ZN8casacore10TableProxy12getTableDescERKNS_9TableDescEb@Base 3.2.1
 _ZN8casacore10TableProxy12getVarColumnERKNS_6StringEiii@Base 3.2.1
 _ZN8casacore10TableProxy12putCellSliceERKNS_6StringEiRKNS_6VectorIiEES7_S7_RKNS_11ValueHolderE@Base 3.2.1
 _ZN8casacore10TableProxy12putTableInfoERKNS_6RecordE@Base 3.2.1
 _ZN8casacore10TableProxy12putVarColumnERKNS_6StringEiiiRKNS_6RecordE@Base 3.2.1
 _ZN8casacore10TableProxy12recordHCDescERKNS_9TableDescE@Base 3.2.1
 _ZN8casacore10TableProxy12renameColumnERKNS_6StringES3_@Base 3.2.1
 _ZN8casacore10TableProxy13addReadmeLineERKNS_6StringE@Base 3.2.1
 _ZN8casacore10TableProxy13getFieldNamesERKNS_6StringES3_i@Base 3.2.1
 _ZN8casacore10TableProxy13getKeywordSetERKNS_6StringE@Base 3.2.1
 _ZN8casacore10TableProxy13getPropertiesERKNS_6StringEb@Base 3.2.1
 _ZN8casacore10TableProxy13makeTableDescERKNS_6RecordERNS_9TableDescERNS_6StringE@Base 3.2.1
 _ZN8casacore10TableProxy13putKeywordSetERKNS_6StringERKNS_6RecordE@Base 3.2.1
 _ZN8casacore10TableProxy13removeColumnsERKNS_6VectorINS_6StringEEE@Base 3.2.1
 _ZN8casacore10TableProxy13removeKeywordERKNS_6StringES3_i@Base 3.2.1
 _ZN8casacore10TableProxy13setPropertiesERKNS_6StringERKNS_6RecordEb@Base 3.2.1
 _ZN8casacore10TableProxy14checkRowColumnERNS_5TableERKNS_6StringExxxS5_@Base 3.2.1
 _ZN8casacore10TableProxy14columnDataTypeERKNS_6StringE@Base 3.2.1
 _ZN8casacore10TableProxy14getCellSliceIPERKNS_6StringEiRKNS_9IPositionES6_S6_@Base 3.2.1
 _ZN8casacore10TableProxy14getCellSliceVHERKNS_6StringEiRKNS_6VectorIiEES7_S7_RKNS_11ValueHolderE@Base 3.2.1
 _ZN8casacore10TableProxy14getColumnSliceERKNS_6StringEiiiRKNS_6VectorIiEES7_S7_@Base 3.2.1
 _ZN8casacore10TableProxy14hasDataChangedEv@Base 3.2.1
 _ZN8casacore10TableProxy14isScalarColumnERKNS_6StringE@Base 3.2.1
 _ZN8casacore10TableProxy14makeEmptyArrayENS_8DataTypeE@Base 3.2.1
 _ZN8casacore10TableProxy14putCellSliceIPERKNS_6StringEiRKNS_11ValueHolderERKNS_9IPositionES9_S9_@Base 3.2.1
 _ZN8casacore10TableProxy14putColumnSliceERKNS_6StringEiiiRKNS_6VectorIiEES7_S7_RKNS_11ValueHolderE@Base 3.2.1
 _ZN8casacore10TableProxy14stillSameShapeERiRNS_9IPositionERKS2_@Base 3.2.1
 _ZN8casacore10TableProxy15columnArrayTypeERKNS_6StringE@Base 3.2.1
 _ZN8casacore10TableProxy15makeLockOptionsERKNS_6RecordE@Base 3.2.1
 _ZN8casacore10TableProxy15putValueInTableERKNS_6StringEiiibRKNS_11ValueHolderE@Base 3.2.1
 _ZN8casacore10TableProxy16getCellSliceVHIPERKNS_6StringEiRKNS_9IPositionES6_S6_RKNS_11ValueHolderE@Base 3.2.1
 _ZN8casacore10TableProxy16getColumnSliceIPERKNS_6StringERKNS_9IPositionES6_S6_iii@Base 3.2.1
 _ZN8casacore10TableProxy16getColumnSliceVHERKNS_6StringEiiiRKNS_6VectorIiEES7_S7_RKNS_11ValueHolderE@Base 3.2.1
 _ZN8casacore10TableProxy16makeEndianFormatERKNS_6StringE@Base 3.2.1
 _ZN8casacore10TableProxy16putColumnSliceIPERKNS_6StringERKNS_11ValueHolderERKNS_9IPositionES9_S9_iii@Base 3.2.1
 _ZN8casacore10TableProxy16recordColumnDescERKNS_10ColumnDescEb@Base 3.2.1
 _ZN8casacore10TableProxy17getRowsSliceCheckERNS_6SlicerERKNS_6StringExxxRKNS_9IPositionES8_S8_S5_@Base 3.2.1
 _ZN8casacore10TableProxy17getValueFromTableERKNS_6StringEiiib@Base 3.2.1
 _ZN8casacore10TableProxy17getValueFromTableERKNS_6StringEiiibRKNS_11ValueHolderE@Base 3.2.1
 _ZN8casacore10TableProxy18addArrayColumnDescERNS_9TableDescERKNS_6StringES5_S5_S5_S5_iiRKNS_6VectorIiEEbRS3_@Base 3.2.1
 _ZN8casacore10TableProxy18getColumnSliceVHIPERKNS_6StringERKNS_9IPositionES6_S6_iiiRKNS_11ValueHolderE@Base 3.2.1
 _ZN8casacore10TableProxy18getDataManagerInfoEv@Base 3.2.1
 _ZN8casacore10TableProxy19cellContentsDefinedERKNS_6StringEi@Base 3.2.1
 _ZN8casacore10TableProxy19getTableDescriptionEbb@Base 3.2.1
 _ZN8casacore10TableProxy19setMaximumCacheSizeERKNS_6StringEi@Base 3.2.1
 _ZN8casacore10TableProxy20getColumnDescriptionERKNS_6StringEbb@Base 3.2.1
 _ZN8casacore10TableProxy20getColumnShapeStringERKNS_6StringEiiib@Base 3.2.1
 _ZN8casacore10TableProxy20putValueSliceInTableERKNS_6StringERKNS_6SlicerEiiibRKNS_11ValueHolderE@Base 3.2.1
 _ZN8casacore10TableProxy22getValueSliceFromTableERKNS_6StringERKNS_6SlicerEiiib@Base 3.2.1
 _ZN8casacore10TableProxy22getValueSliceFromTableERKNS_6StringERKNS_6SlicerEiiibRKNS_11ValueHolderE@Base 3.2.1
 _ZN8casacore10TableProxy4copyERKNS_6StringEbbbS3_RKNS_6RecordEb@Base 3.2.1
 _ZN8casacore10TableProxy4lockEbi@Base 3.2.1
 _ZN8casacore10TableProxy5closeEv@Base 3.2.1
 _ZN8casacore10TableProxy5flushEb@Base 3.2.1
 _ZN8casacore10TableProxy5nrowsEv@Base 3.2.1
 _ZN8casacore10TableProxy5shapeEv@Base 3.2.1
 _ZN8casacore10TableProxy6addRowEi@Base 3.2.1
 _ZN8casacore10TableProxy6makeHCERKNS_6RecordERNS_9TableDescERNS_6StringE@Base 3.2.1
 _ZN8casacore10TableProxy6renameERKNS_6StringE@Base 3.2.1
 _ZN8casacore10TableProxy6resyncEv@Base 3.2.1
 _ZN8casacore10TableProxy6unlockEv@Base 3.2.1
 _ZN8casacore10TableProxy7getCellERKNS_6StringEi@Base 3.2.1
 _ZN8casacore10TableProxy7hasLockEb@Base 3.2.1
 _ZN8casacore10TableProxy7putCellERKNS_6StringERKNS_6VectorIiEERKNS_11ValueHolderE@Base 3.2.1
 _ZN8casacore10TableProxy7toAsciiERKNS_6StringES3_RKNS_6VectorIS1_EES3_RKNS4_IiEEb@Base 3.2.1
 _ZN8casacore10TableProxy8copyRowsERS0_iii@Base 3.2.1
 _ZN8casacore10TableProxy8fillAxesERKNS_9IPositionEb@Base 3.2.1
 _ZN8casacore10TableProxy8ncolumnsEv@Base 3.2.1
 _ZN8casacore10TableProxy8reopenRWEv@Base 3.2.1
 _ZN8casacore10TableProxy9findKeyIdERNS_13RecordFieldIdERPKNS_11TableRecordERKNS_6StringES9_@Base 3.2.1
 _ZN8casacore10TableProxy9findKeyIdERNS_13RecordFieldIdERPNS_11TableRecordERKNS_6StringES8_bbb@Base 3.2.1
 _ZN8casacore10TableProxy9getCellVHERKNS_6StringEiRKNS_11ValueHolderE@Base 3.2.1
 _ZN8casacore10TableProxy9getColumnERKNS_6StringEiii@Base 3.2.1
 _ZN8casacore10TableProxy9putColumnERKNS_6StringEiiiRKNS_11ValueHolderE@Base 3.2.1
 _ZN8casacore10TableProxy9removeRowERKNS_6VectorIiEE@Base 3.2.1
 _ZN8casacore10TableProxy9syncTableERNS_5TableE@Base 3.2.1
 _ZN8casacore10TableProxy9tableInfoEv@Base 3.2.1
 _ZN8casacore10TableProxy9tableNameEv@Base 3.2.1
 _ZN8casacore10TableProxyC1ERKNS_6StringERKNS_6RecordES3_S3_iS6_S6_@Base 3.2.1
 _ZN8casacore10TableProxyC1ERKNS_6StringERKNS_6RecordEi@Base 3.2.1
 _ZN8casacore10TableProxyC1ERKNS_6StringERKSt6vectorIS0_SaIS0_EE@Base 3.2.1
 _ZN8casacore10TableProxyC1ERKNS_6StringES3_S3_bRKNS_9IPositionES3_S3_iiRKNS_6VectorIS1_EESA_@Base 3.2.1
 _ZN8casacore10TableProxyC1ERKNS_6VectorINS_6StringEEES5_RKNS_6RecordEi@Base 3.2.1
 _ZN8casacore10TableProxyC1ERKS0_@Base 3.2.1
 _ZN8casacore10TableProxyC1ERKSt6vectorIS0_SaIS0_EERKNS_6VectorINS_6StringEEEiii@Base 3.2.1
 _ZN8casacore10TableProxyC1Ev@Base 3.2.1
 _ZN8casacore10TableProxyC2ERKNS_6StringERKNS_6RecordES3_S3_iS6_S6_@Base 3.2.1
 _ZN8casacore10TableProxyC2ERKNS_6StringERKNS_6RecordEi@Base 3.2.1
 _ZN8casacore10TableProxyC2ERKNS_6StringERKSt6vectorIS0_SaIS0_EE@Base 3.2.1
 _ZN8casacore10TableProxyC2ERKNS_6StringES3_S3_bRKNS_9IPositionES3_S3_iiRKNS_6VectorIS1_EESA_@Base 3.2.1
 _ZN8casacore10TableProxyC2ERKNS_6VectorINS_6StringEEES5_RKNS_6RecordEi@Base 3.2.1
 _ZN8casacore10TableProxyC2ERKS0_@Base 3.2.1
 _ZN8casacore10TableProxyC2ERKSt6vectorIS0_SaIS0_EERKNS_6VectorINS_6StringEEEiii@Base 3.2.1
 _ZN8casacore10TableProxyC2Ev@Base 3.2.1
 _ZN8casacore10TableProxyD1Ev@Base 3.2.1
 _ZN8casacore10TableProxyD2Ev@Base 3.2.1
 _ZN8casacore10TableProxyaSERKS0_@Base 3.2.1
 _ZN8casacore10TableTrace10initColumnEv@Base 3.2.1
 _ZN8casacore10TableTrace10theirMutexE@Base 3.2.1
 _ZN8casacore10TableTrace10traceCloseERKNS_6StringE@Base 3.2.1
 _ZN8casacore10TableTrace10traceTableERKNS_6StringEc@Base 3.2.1
 _ZN8casacore10TableTrace10writeSliceERKNS_9IPositionES3_S3_@Base 3.2.1
 _ZN8casacore10TableTrace11initTracingEv@Base 3.2.1
 _ZN8casacore10TableTrace11theirStreamE@Base 3.2.1
 _ZN8casacore10TableTrace11theirTablesE@Base 3.2.1
 _ZN8casacore10TableTrace11traceColumnERKNS_10ColumnDescE@Base 3.2.1
 _ZN8casacore10TableTrace12theirColTypeE@Base 3.2.1
 _ZN8casacore10TableTrace12theirColumnsE@Base 3.2.1
 _ZN8casacore10TableTrace12theirDoTraceE@Base 3.2.1
 _ZN8casacore10TableTrace12writeRefRowsERKNS_7RefRowsE@Base 3.2.1
 _ZN8casacore10TableTrace13theirCallOnceE@Base 3.2.1
 _ZN8casacore10TableTrace13traceRefTableERKNS_6StringEc@Base 3.2.1
 _ZN8casacore10TableTrace14theirTraceFileE@Base 3.2.1
 _ZN8casacore10TableTrace15writeTraceFirstEiRKNS_6StringEc@Base 3.2.1
 _ZN8casacore10TableTrace5traceEiRKNS_6StringEc@Base 3.2.1
 _ZN8casacore10TableTrace5traceEiRKNS_6StringEcRKNS_7RefRowsE@Base 3.2.1
 _ZN8casacore10TableTrace5traceEiRKNS_6StringEcRKNS_7RefRowsERKNS_9IPositionE@Base 3.2.1
 _ZN8casacore10TableTrace5traceEiRKNS_6StringEcRKNS_7RefRowsERKNS_9IPositionES9_S9_S9_@Base 3.2.1
 _ZN8casacore10TableTrace5traceEiRKNS_6StringEcRKNS_9IPositionE@Base 3.2.1
 _ZN8casacore10TableTrace5traceEiRKNS_6StringEcRKNS_9IPositionES6_S6_S6_@Base 3.2.1
 _ZN8casacore10TableTrace5traceEiRKNS_6StringEcx@Base 3.2.1
 _ZN8casacore10TableTrace5traceEiRKNS_6StringEcxRKNS_9IPositionE@Base 3.2.1
 _ZN8casacore10TableTrace5traceEiRKNS_6StringEcxRKNS_9IPositionES6_S6_S6_@Base 3.2.1
 _ZN8casacore10TableTrace8initOperEv@Base 3.2.1
 _ZN8casacore10TableTrace9findTableERKNS_6StringE@Base 3.2.1
 _ZN8casacore10TableTrace9theirOperE@Base 3.2.1
 _ZN8casacore10TableTrace9traceFileEiRKNS_6StringE@Base 3.2.1
 _ZN8casacore10TiledStMan10createFileEj@Base 3.2.1
 _ZN8casacore10TiledStMan10getTSMCubeEj@Base 3.2.1
 _ZN8casacore10TiledStMan11emptyCachesEv@Base 3.2.1
 _ZN8casacore10TiledStMan11flushCachesEb@Base 3.2.1
 _ZN8casacore10TiledStMan11makeTSMCubeEPNS_7TSMFileERKNS_9IPositionES5_RKNS_6RecordEx@Base 3.2.1
 _ZN8casacore10TiledStMan12setCacheSizeEjRKNS_9IPositionES3_S3_S3_b@Base 3.2.1
 _ZN8casacore10TiledStMan12setCacheSizeEjjb@Base 3.2.1
 _ZN8casacore10TiledStMan13deleteManagerEv@Base 3.2.1
 _ZN8casacore10TiledStMan13headerFileGetERNS_6AipsIOEjbi@Base 3.2.1
 _ZN8casacore10TiledStMan13headerFilePutERNS_6AipsIOEj@Base 3.2.1
 _ZN8casacore10TiledStMan13makeHypercubeERKNS_9IPositionES3_RKNS_6RecordE@Base 3.2.1
 _ZN8casacore10TiledStMan13makeTileShapeERKNS_9IPositionERKNS_6VectorIdEES7_j@Base 3.2.1
 _ZN8casacore10TiledStMan13makeTileShapeERKNS_9IPositionEdj@Base 3.2.1
 _ZN8casacore10TiledStMan13setPropertiesERKNS_6RecordE@Base 3.2.1
 _ZN8casacore10TiledStMan14headerFileOpenEv@Base 3.2.1
 _ZN8casacore10TiledStMan15headerFileCloseEPNS_6AipsIOE@Base 3.2.1
 _ZN8casacore10TiledStMan15initCoordinatesEPNS_7TSMCubeE@Base 3.2.1
 _ZN8casacore10TiledStMan15singleHypercubeEv@Base 3.2.1
 _ZN8casacore10TiledStMan16headerFileCreateEv@Base 3.2.1
 _ZN8casacore10TiledStMan16makeDirArrColumnERKNS_6StringEiS3_@Base 3.2.1
 _ZN8casacore10TiledStMan16makeIndArrColumnERKNS_6StringEiS3_@Base 3.2.1
 _ZN8casacore10TiledStMan16makeScalarColumnERKNS_6StringEiS3_@Base 3.2.1
 _ZN8casacore10TiledStMan16reallocateColumnEPNS_17DataManagerColumnE@Base 3.2.1
 _ZN8casacore10TiledStMan18setDataManagerNameERKNS_6StringE@Base 3.2.1
 _ZN8casacore10TiledStMan19setMaximumCacheSizeEj@Base 3.2.1
 _ZN8casacore10TiledStMan21setHypercubeCacheSizeEjjb@Base 3.2.1
 _ZN8casacore10TiledStMan4openEjRNS_6AipsIOE@Base 3.2.1
 _ZN8casacore10TiledStMan5setupEi@Base 3.2.1
 _ZN8casacore10TiledStMan6resyncEj@Base 3.2.1
 _ZN8casacore10TiledStMan7getFileEj@Base 3.2.1
 _ZN8casacore10TiledStMan8readTileEPcRKNS_5BlockIjEEPKcS5_j@Base 3.2.1
 _ZN8casacore10TiledStMan8reopenRWEv@Base 3.2.1
 _ZN8casacore10TiledStMan8setShapeEjPNS_7TSMCubeERKNS_9IPositionES5_@Base 3.2.1
 _ZN8casacore10TiledStMan9writeTileEPcRKNS_5BlockIjEEPKcS5_j@Base 3.2.1
 _ZN8casacore10TiledStManC1ERKNS_6StringEj@Base 3.2.1
 _ZN8casacore10TiledStManC1Ev@Base 3.2.1
 _ZN8casacore10TiledStManC2ERKNS_6StringEj@Base 3.2.1
 _ZN8casacore10TiledStManC2Ev@Base 3.2.1
 _ZN8casacore10TiledStManD0Ev@Base 3.2.1
 _ZN8casacore10TiledStManD1Ev@Base 3.2.1
 _ZN8casacore10TiledStManD2Ev@Base 3.2.1
 _ZN8casacore10boxedNTrueIbEENS_6MArrayIjEERKNS1_IT_EERKNS_9IPositionE@Base 3.2.1
 _ZN8casacore10createHelpE@Base 3.2.1
 _ZN8casacore10deleteHelpE@Base 3.2.1
 _ZN8casacore10dminfoHelpE@Base 3.2.1
 _ZN8casacore10indexErrorIiED0Ev@Base 3.2.1
 _ZN8casacore10indexErrorIiED1Ev@Base 3.2.1
 _ZN8casacore10indexErrorIiED2Ev@Base 3.2.1
 _ZN8casacore10indexErrorIjED0Ev@Base 3.2.1
 _ZN8casacore10indexErrorIjED1Ev@Base 3.2.1
 _ZN8casacore10indexErrorIjED2Ev@Base 3.2.1
 _ZN8casacore10insertHelpE@Base 3.2.1
 _ZN8casacore10replaceIdsERSt6vectorINS_10CountedPtrIS0_INS_11TableExprIdESaIS2_EEEESaIS5_EE@Base 3.2.1
 _ZN8casacore10selectHelpE@Base 3.2.1
 _ZN8casacore10taboptHelpE@Base 3.2.1
 _ZN8casacore10updateHelpE@Base 3.2.1
 _ZN8casacore11ArrayColumnINS_6StringEE10fillColumnERKNS_5ArrayIS1_EE@Base 3.2.1
 _ZN8casacore11ArrayColumnINS_6StringEE14putColumnCellsERKNS_7RefRowsERKNS_12ColumnSlicerERKNS_5ArrayIS1_EE@Base 3.2.1
 _ZN8casacore11ArrayColumnINS_6StringEE14putColumnCellsERKNS_7RefRowsERKNS_5ArrayIS1_EE@Base 3.2.1
 _ZN8casacore11ArrayColumnINS_6StringEE14putColumnCellsERKNS_7RefRowsERKNS_6SlicerERKNS_5ArrayIS1_EE@Base 3.2.1
 _ZN8casacore11ArrayColumnINS_6StringEE14putColumnCellsERKNS_7RefRowsERKNS_6VectorINS6_INS_5SliceEEEEERKNS_5ArrayIS1_EE@Base 3.2.1
 _ZN8casacore11ArrayColumnINS_6StringEE14putColumnRangeERKNS_6SlicerERKNS_5ArrayIS1_EE@Base 3.2.1
 _ZN8casacore11ArrayColumnINS_6StringEE14putColumnRangeERKNS_6SlicerES5_RKNS_5ArrayIS1_EE@Base 3.2.1
 _ZN8casacore11ArrayColumnINS_6StringEE16putSliceFromRowsERKNS_7RefRowsERKNS_6VectorINS6_INS_5SliceEEEEERKNS_5ArrayIS1_EE@Base 3.2.1
 _ZN8casacore11ArrayColumnINS_6StringEE3putEjRKNS_11TableColumnEb@Base 3.2.1
 _ZN8casacore11ArrayColumnINS_6StringEE3putEjRKNS_11TableColumnEjb@Base 3.2.1
 _ZN8casacore11ArrayColumnINS_6StringEE3putEjRKNS_5ArrayIS1_EE@Base 3.2.1
 _ZN8casacore11ArrayColumnINS_6StringEE6attachERKNS_5TableERKS1_@Base 3.2.1
 _ZN8casacore11ArrayColumnINS_6StringEE7basePutEjRKNS_5ArrayIS1_EE@Base 3.2.1
 _ZN8casacore11ArrayColumnINS_6StringEE8putSliceEjRKNS_6SlicerERKNS_5ArrayIS1_EE@Base 3.2.1
 _ZN8casacore11ArrayColumnINS_6StringEE8putSliceEjRKNS_6VectorINS3_INS_5SliceEEEEERKNS_5ArrayIS1_EE@Base 3.2.1
 _ZN8casacore11ArrayColumnINS_6StringEE8setShapeEjRKNS_9IPositionE@Base 3.2.1
 _ZN8casacore11ArrayColumnINS_6StringEE8setShapeEjRKNS_9IPositionES5_@Base 3.2.1
 _ZN8casacore11ArrayColumnINS_6StringEE9putColumnERKNS_5ArrayIS1_EE@Base 3.2.1
 _ZN8casacore11ArrayColumnINS_6StringEE9putColumnERKNS_6SlicerERKNS_5ArrayIS1_EE@Base 3.2.1
 _ZN8casacore11ArrayColumnINS_6StringEE9putColumnERKNS_6VectorINS3_INS_5SliceEEEEERKNS_5ArrayIS1_EE@Base 3.2.1
 _ZN8casacore11ArrayColumnINS_6StringEE9putColumnERKS2_@Base 3.2.1
 _ZN8casacore11ArrayColumnINS_6StringEE9referenceERKS2_@Base 3.2.1
 _ZN8casacore11ArrayColumnINS_6StringEEC1ERKNS_11TableColumnE@Base 3.2.1
 _ZN8casacore11ArrayColumnINS_6StringEEC1ERKNS_5TableERKS1_@Base 3.2.1
 _ZN8casacore11ArrayColumnINS_6StringEEC1ERKS2_@Base 3.2.1
 _ZN8casacore11ArrayColumnINS_6StringEEC1Ev@Base 3.2.1
 _ZN8casacore11ArrayColumnINS_6StringEEC2ERKNS_11TableColumnE@Base 3.2.1
 _ZN8casacore11ArrayColumnINS_6StringEEC2ERKNS_5TableERKS1_@Base 3.2.1
 _ZN8casacore11ArrayColumnINS_6StringEEC2ERKS2_@Base 3.2.1
 _ZN8casacore11ArrayColumnINS_6StringEEC2Ev@Base 3.2.1
 _ZN8casacore11ArrayColumnINS_6StringEED0Ev@Base 3.2.1
 _ZN8casacore11ArrayColumnINS_6StringEED1Ev@Base 3.2.1
 _ZN8casacore11ArrayColumnINS_6StringEED2Ev@Base 3.2.1
 _ZN8casacore11ArrayColumnINS_6StringEEaSERKS2_@Base 3.2.1
 _ZN8casacore11ArrayColumnISt7complexIdEE10fillColumnERKNS_5ArrayIS2_EE@Base 3.2.1
 _ZN8casacore11ArrayColumnISt7complexIdEE14putColumnCellsERKNS_7RefRowsERKNS_12ColumnSlicerERKNS_5ArrayIS2_EE@Base 3.2.1
 _ZN8casacore11ArrayColumnISt7complexIdEE14putColumnCellsERKNS_7RefRowsERKNS_5ArrayIS2_EE@Base 3.2.1
 _ZN8casacore11ArrayColumnISt7complexIdEE14putColumnCellsERKNS_7RefRowsERKNS_6SlicerERKNS_5ArrayIS2_EE@Base 3.2.1
 _ZN8casacore11ArrayColumnISt7complexIdEE14putColumnCellsERKNS_7RefRowsERKNS_6VectorINS7_INS_5SliceEEEEERKNS_5ArrayIS2_EE@Base 3.2.1
 _ZN8casacore11ArrayColumnISt7complexIdEE14putColumnRangeERKNS_6SlicerERKNS_5ArrayIS2_EE@Base 3.2.1
 _ZN8casacore11ArrayColumnISt7complexIdEE14putColumnRangeERKNS_6SlicerES6_RKNS_5ArrayIS2_EE@Base 3.2.1
 _ZN8casacore11ArrayColumnISt7complexIdEE16putSliceFromRowsERKNS_7RefRowsERKNS_6VectorINS7_INS_5SliceEEEEERKNS_5ArrayIS2_EE@Base 3.2.1
 _ZN8casacore11ArrayColumnISt7complexIdEE3putEjRKNS_11TableColumnEb@Base 3.2.1
 _ZN8casacore11ArrayColumnISt7complexIdEE3putEjRKNS_11TableColumnEjb@Base 3.2.1
 _ZN8casacore11ArrayColumnISt7complexIdEE3putEjRKNS_5ArrayIS2_EE@Base 3.2.1
 _ZN8casacore11ArrayColumnISt7complexIdEE6attachERKNS_5TableERKNS_6StringE@Base 3.2.1
 _ZN8casacore11ArrayColumnISt7complexIdEE7basePutEjRKNS_5ArrayIS2_EE@Base 3.2.1
 _ZN8casacore11ArrayColumnISt7complexIdEE8putSliceEjRKNS_6SlicerERKNS_5ArrayIS2_EE@Base 3.2.1
 _ZN8casacore11ArrayColumnISt7complexIdEE8putSliceEjRKNS_6VectorINS4_INS_5SliceEEEEERKNS_5ArrayIS2_EE@Base 3.2.1
 _ZN8casacore11ArrayColumnISt7complexIdEE8setShapeEjRKNS_9IPositionE@Base 3.2.1
 _ZN8casacore11ArrayColumnISt7complexIdEE8setShapeEjRKNS_9IPositionES6_@Base 3.2.1
 _ZN8casacore11ArrayColumnISt7complexIdEE9putColumnERKNS_5ArrayIS2_EE@Base 3.2.1
 _ZN8casacore11ArrayColumnISt7complexIdEE9putColumnERKNS_6SlicerERKNS_5ArrayIS2_EE@Base 3.2.1
 _ZN8casacore11ArrayColumnISt7complexIdEE9putColumnERKNS_6VectorINS4_INS_5SliceEEEEERKNS_5ArrayIS2_EE@Base 3.2.1
 _ZN8casacore11ArrayColumnISt7complexIdEE9putColumnERKS3_@Base 3.2.1
 _ZN8casacore11ArrayColumnISt7complexIdEE9referenceERKS3_@Base 3.2.1
 _ZN8casacore11ArrayColumnISt7complexIdEEC1ERKNS_11TableColumnE@Base 3.2.1
 _ZN8casacore11ArrayColumnISt7complexIdEEC1ERKNS_5TableERKNS_6StringE@Base 3.2.1
 _ZN8casacore11ArrayColumnISt7complexIdEEC1ERKS3_@Base 3.2.1
 _ZN8casacore11ArrayColumnISt7complexIdEEC1Ev@Base 3.2.1
 _ZN8casacore11ArrayColumnISt7complexIdEEC2ERKNS_11TableColumnE@Base 3.2.1
 _ZN8casacore11ArrayColumnISt7complexIdEEC2ERKNS_5TableERKNS_6StringE@Base 3.2.1
 _ZN8casacore11ArrayColumnISt7complexIdEEC2ERKS3_@Base 3.2.1
 _ZN8casacore11ArrayColumnISt7complexIdEEC2Ev@Base 3.2.1
 _ZN8casacore11ArrayColumnISt7complexIdEED0Ev@Base 3.2.1
 _ZN8casacore11ArrayColumnISt7complexIdEED1Ev@Base 3.2.1
 _ZN8casacore11ArrayColumnISt7complexIdEED2Ev@Base 3.2.1
 _ZN8casacore11ArrayColumnISt7complexIdEEaSERKS3_@Base 3.2.1
 _ZN8casacore11ArrayColumnISt7complexIfEE10fillColumnERKNS_5ArrayIS2_EE@Base 3.2.1
 _ZN8casacore11ArrayColumnISt7complexIfEE14putColumnCellsERKNS_7RefRowsERKNS_12ColumnSlicerERKNS_5ArrayIS2_EE@Base 3.2.1
 _ZN8casacore11ArrayColumnISt7complexIfEE14putColumnCellsERKNS_7RefRowsERKNS_5ArrayIS2_EE@Base 3.2.1
 _ZN8casacore11ArrayColumnISt7complexIfEE14putColumnCellsERKNS_7RefRowsERKNS_6SlicerERKNS_5ArrayIS2_EE@Base 3.2.1
 _ZN8casacore11ArrayColumnISt7complexIfEE14putColumnCellsERKNS_7RefRowsERKNS_6VectorINS7_INS_5SliceEEEEERKNS_5ArrayIS2_EE@Base 3.2.1
 _ZN8casacore11ArrayColumnISt7complexIfEE14putColumnRangeERKNS_6SlicerERKNS_5ArrayIS2_EE@Base 3.2.1
 _ZN8casacore11ArrayColumnISt7complexIfEE14putColumnRangeERKNS_6SlicerES6_RKNS_5ArrayIS2_EE@Base 3.2.1
 _ZN8casacore11ArrayColumnISt7complexIfEE16putSliceFromRowsERKNS_7RefRowsERKNS_6VectorINS7_INS_5SliceEEEEERKNS_5ArrayIS2_EE@Base 3.2.1
 _ZN8casacore11ArrayColumnISt7complexIfEE3putEjRKNS_11TableColumnEb@Base 3.2.1
 _ZN8casacore11ArrayColumnISt7complexIfEE3putEjRKNS_11TableColumnEjb@Base 3.2.1
 _ZN8casacore11ArrayColumnISt7complexIfEE3putEjRKNS_5ArrayIS2_EE@Base 3.2.1
 _ZN8casacore11ArrayColumnISt7complexIfEE6attachERKNS_5TableERKNS_6StringE@Base 3.2.1
 _ZN8casacore11ArrayColumnISt7complexIfEE7basePutEjRKNS_5ArrayIS2_EE@Base 3.2.1
 _ZN8casacore11ArrayColumnISt7complexIfEE8putSliceEjRKNS_6SlicerERKNS_5ArrayIS2_EE@Base 3.2.1
 _ZN8casacore11ArrayColumnISt7complexIfEE8putSliceEjRKNS_6VectorINS4_INS_5SliceEEEEERKNS_5ArrayIS2_EE@Base 3.2.1
 _ZN8casacore11ArrayColumnISt7complexIfEE8setShapeEjRKNS_9IPositionE@Base 3.2.1
 _ZN8casacore11ArrayColumnISt7complexIfEE8setShapeEjRKNS_9IPositionES6_@Base 3.2.1
 _ZN8casacore11ArrayColumnISt7complexIfEE9putColumnERKNS_5ArrayIS2_EE@Base 3.2.1
 _ZN8casacore11ArrayColumnISt7complexIfEE9putColumnERKNS_6SlicerERKNS_5ArrayIS2_EE@Base 3.2.1
 _ZN8casacore11ArrayColumnISt7complexIfEE9putColumnERKNS_6VectorINS4_INS_5SliceEEEEERKNS_5ArrayIS2_EE@Base 3.2.1
 _ZN8casacore11ArrayColumnISt7complexIfEE9putColumnERKS3_@Base 3.2.1
 _ZN8casacore11ArrayColumnISt7complexIfEE9referenceERKS3_@Base 3.2.1
 _ZN8casacore11ArrayColumnISt7complexIfEEC1ERKNS_11TableColumnE@Base 3.2.1
 _ZN8casacore11ArrayColumnISt7complexIfEEC1ERKNS_5TableERKNS_6StringE@Base 3.2.1
 _ZN8casacore11ArrayColumnISt7complexIfEEC1ERKS3_@Base 3.2.1
 _ZN8casacore11ArrayColumnISt7complexIfEEC1Ev@Base 3.2.1
 _ZN8casacore11ArrayColumnISt7complexIfEEC2ERKNS_11TableColumnE@Base 3.2.1
 _ZN8casacore11ArrayColumnISt7complexIfEEC2ERKNS_5TableERKNS_6StringE@Base 3.2.1
 _ZN8casacore11ArrayColumnISt7complexIfEEC2ERKS3_@Base 3.2.1
 _ZN8casacore11ArrayColumnISt7complexIfEEC2Ev@Base 3.2.1
 _ZN8casacore11ArrayColumnISt7complexIfEED0Ev@Base 3.2.1
 _ZN8casacore11ArrayColumnISt7complexIfEED1Ev@Base 3.2.1
 _ZN8casacore11ArrayColumnISt7complexIfEED2Ev@Base 3.2.1
 _ZN8casacore11ArrayColumnISt7complexIfEEaSERKS3_@Base 3.2.1
 _ZN8casacore11ArrayColumnIbE10fillColumnERKNS_5ArrayIbEE@Base 3.2.1
 _ZN8casacore11ArrayColumnIbE14putColumnCellsERKNS_7RefRowsERKNS_12ColumnSlicerERKNS_5ArrayIbEE@Base 3.2.1
 _ZN8casacore11ArrayColumnIbE14putColumnCellsERKNS_7RefRowsERKNS_5ArrayIbEE@Base 3.2.1
 _ZN8casacore11ArrayColumnIbE14putColumnCellsERKNS_7RefRowsERKNS_6SlicerERKNS_5ArrayIbEE@Base 3.2.1
 _ZN8casacore11ArrayColumnIbE14putColumnCellsERKNS_7RefRowsERKNS_6VectorINS5_INS_5SliceEEEEERKNS_5ArrayIbEE@Base 3.2.1
 _ZN8casacore11ArrayColumnIbE14putColumnRangeERKNS_6SlicerERKNS_5ArrayIbEE@Base 3.2.1
 _ZN8casacore11ArrayColumnIbE14putColumnRangeERKNS_6SlicerES4_RKNS_5ArrayIbEE@Base 3.2.1
 _ZN8casacore11ArrayColumnIbE16putSliceFromRowsERKNS_7RefRowsERKNS_6VectorINS5_INS_5SliceEEEEERKNS_5ArrayIbEE@Base 3.2.1
 _ZN8casacore11ArrayColumnIbE3putEjRKNS_11TableColumnEb@Base 3.2.1
 _ZN8casacore11ArrayColumnIbE3putEjRKNS_11TableColumnEjb@Base 3.2.1
 _ZN8casacore11ArrayColumnIbE3putEjRKNS_5ArrayIbEE@Base 3.2.1
 _ZN8casacore11ArrayColumnIbE6attachERKNS_5TableERKNS_6StringE@Base 3.2.1
 _ZN8casacore11ArrayColumnIbE7basePutEjRKNS_5ArrayIbEE@Base 3.2.1
 _ZN8casacore11ArrayColumnIbE8putSliceEjRKNS_6SlicerERKNS_5ArrayIbEE@Base 3.2.1
 _ZN8casacore11ArrayColumnIbE8putSliceEjRKNS_6VectorINS2_INS_5SliceEEEEERKNS_5ArrayIbEE@Base 3.2.1
 _ZN8casacore11ArrayColumnIbE8setShapeEjRKNS_9IPositionE@Base 3.2.1
 _ZN8casacore11ArrayColumnIbE8setShapeEjRKNS_9IPositionES4_@Base 3.2.1
 _ZN8casacore11ArrayColumnIbE9putColumnERKNS_5ArrayIbEE@Base 3.2.1
 _ZN8casacore11ArrayColumnIbE9putColumnERKNS_6SlicerERKNS_5ArrayIbEE@Base 3.2.1
 _ZN8casacore11ArrayColumnIbE9putColumnERKNS_6VectorINS2_INS_5SliceEEEEERKNS_5ArrayIbEE@Base 3.2.1
 _ZN8casacore11ArrayColumnIbE9putColumnERKS1_@Base 3.2.1
 _ZN8casacore11ArrayColumnIbE9referenceERKS1_@Base 3.2.1
 _ZN8casacore11ArrayColumnIbEC1ERKNS_11TableColumnE@Base 3.2.1
 _ZN8casacore11ArrayColumnIbEC1ERKNS_5TableERKNS_6StringE@Base 3.2.1
 _ZN8casacore11ArrayColumnIbEC1ERKS1_@Base 3.2.1
 _ZN8casacore11ArrayColumnIbEC1Ev@Base 3.2.1
 _ZN8casacore11ArrayColumnIbEC2ERKNS_11TableColumnE@Base 3.2.1
 _ZN8casacore11ArrayColumnIbEC2ERKNS_5TableERKNS_6StringE@Base 3.2.1
 _ZN8casacore11ArrayColumnIbEC2ERKS1_@Base 3.2.1
 _ZN8casacore11ArrayColumnIbEC2Ev@Base 3.2.1
 _ZN8casacore11ArrayColumnIbED0Ev@Base 3.2.1
 _ZN8casacore11ArrayColumnIbED1Ev@Base 3.2.1
 _ZN8casacore11ArrayColumnIbED2Ev@Base 3.2.1
 _ZN8casacore11ArrayColumnIbEaSERKS1_@Base 3.2.1
 _ZN8casacore11ArrayColumnIcE10fillColumnERKNS_5ArrayIcEE@Base 3.2.1
 _ZN8casacore11ArrayColumnIcE14putColumnCellsERKNS_7RefRowsERKNS_12ColumnSlicerERKNS_5ArrayIcEE@Base 3.2.1
 _ZN8casacore11ArrayColumnIcE14putColumnCellsERKNS_7RefRowsERKNS_5ArrayIcEE@Base 3.2.1
 _ZN8casacore11ArrayColumnIcE14putColumnCellsERKNS_7RefRowsERKNS_6SlicerERKNS_5ArrayIcEE@Base 3.2.1
 _ZN8casacore11ArrayColumnIcE14putColumnCellsERKNS_7RefRowsERKNS_6VectorINS5_INS_5SliceEEEEERKNS_5ArrayIcEE@Base 3.2.1
 _ZN8casacore11ArrayColumnIcE14putColumnRangeERKNS_6SlicerERKNS_5ArrayIcEE@Base 3.2.1
 _ZN8casacore11ArrayColumnIcE14putColumnRangeERKNS_6SlicerES4_RKNS_5ArrayIcEE@Base 3.2.1
 _ZN8casacore11ArrayColumnIcE16putSliceFromRowsERKNS_7RefRowsERKNS_6VectorINS5_INS_5SliceEEEEERKNS_5ArrayIcEE@Base 3.2.1
 _ZN8casacore11ArrayColumnIcE3putEjRKNS_11TableColumnEb@Base 3.2.1
 _ZN8casacore11ArrayColumnIcE3putEjRKNS_11TableColumnEjb@Base 3.2.1
 _ZN8casacore11ArrayColumnIcE3putEjRKNS_5ArrayIcEE@Base 3.2.1
 _ZN8casacore11ArrayColumnIcE6attachERKNS_5TableERKNS_6StringE@Base 3.2.1
 _ZN8casacore11ArrayColumnIcE7basePutEjRKNS_5ArrayIcEE@Base 3.2.1
 _ZN8casacore11ArrayColumnIcE8putSliceEjRKNS_6SlicerERKNS_5ArrayIcEE@Base 3.2.1
 _ZN8casacore11ArrayColumnIcE8putSliceEjRKNS_6VectorINS2_INS_5SliceEEEEERKNS_5ArrayIcEE@Base 3.2.1
 _ZN8casacore11ArrayColumnIcE8setShapeEjRKNS_9IPositionE@Base 3.2.1
 _ZN8casacore11ArrayColumnIcE8setShapeEjRKNS_9IPositionES4_@Base 3.2.1
 _ZN8casacore11ArrayColumnIcE9putColumnERKNS_5ArrayIcEE@Base 3.2.1
 _ZN8casacore11ArrayColumnIcE9putColumnERKNS_6SlicerERKNS_5ArrayIcEE@Base 3.2.1
 _ZN8casacore11ArrayColumnIcE9putColumnERKNS_6VectorINS2_INS_5SliceEEEEERKNS_5ArrayIcEE@Base 3.2.1
 _ZN8casacore11ArrayColumnIcE9putColumnERKS1_@Base 3.2.1
 _ZN8casacore11ArrayColumnIcE9referenceERKS1_@Base 3.2.1
 _ZN8casacore11ArrayColumnIcEC1ERKNS_11TableColumnE@Base 3.2.1
 _ZN8casacore11ArrayColumnIcEC1ERKNS_5TableERKNS_6StringE@Base 3.2.1
 _ZN8casacore11ArrayColumnIcEC1ERKS1_@Base 3.2.1
 _ZN8casacore11ArrayColumnIcEC1Ev@Base 3.2.1
 _ZN8casacore11ArrayColumnIcEC2ERKNS_11TableColumnE@Base 3.2.1
 _ZN8casacore11ArrayColumnIcEC2ERKNS_5TableERKNS_6StringE@Base 3.2.1
 _ZN8casacore11ArrayColumnIcEC2ERKS1_@Base 3.2.1
 _ZN8casacore11ArrayColumnIcEC2Ev@Base 3.2.1
 _ZN8casacore11ArrayColumnIcED0Ev@Base 3.2.1
 _ZN8casacore11ArrayColumnIcED1Ev@Base 3.2.1
 _ZN8casacore11ArrayColumnIcED2Ev@Base 3.2.1
 _ZN8casacore11ArrayColumnIcEaSERKS1_@Base 3.2.1
 _ZN8casacore11ArrayColumnIdE10fillColumnERKNS_5ArrayIdEE@Base 3.2.1
 _ZN8casacore11ArrayColumnIdE14putColumnCellsERKNS_7RefRowsERKNS_12ColumnSlicerERKNS_5ArrayIdEE@Base 3.2.1
 _ZN8casacore11ArrayColumnIdE14putColumnCellsERKNS_7RefRowsERKNS_5ArrayIdEE@Base 3.2.1
 _ZN8casacore11ArrayColumnIdE14putColumnCellsERKNS_7RefRowsERKNS_6SlicerERKNS_5ArrayIdEE@Base 3.2.1
 _ZN8casacore11ArrayColumnIdE14putColumnCellsERKNS_7RefRowsERKNS_6VectorINS5_INS_5SliceEEEEERKNS_5ArrayIdEE@Base 3.2.1
 _ZN8casacore11ArrayColumnIdE14putColumnRangeERKNS_6SlicerERKNS_5ArrayIdEE@Base 3.2.1
 _ZN8casacore11ArrayColumnIdE14putColumnRangeERKNS_6SlicerES4_RKNS_5ArrayIdEE@Base 3.2.1
 _ZN8casacore11ArrayColumnIdE16putSliceFromRowsERKNS_7RefRowsERKNS_6VectorINS5_INS_5SliceEEEEERKNS_5ArrayIdEE@Base 3.2.1
 _ZN8casacore11ArrayColumnIdE3putEjRKNS_11TableColumnEb@Base 3.2.1
 _ZN8casacore11ArrayColumnIdE3putEjRKNS_11TableColumnEjb@Base 3.2.1
 _ZN8casacore11ArrayColumnIdE3putEjRKNS_5ArrayIdEE@Base 3.2.1
 _ZN8casacore11ArrayColumnIdE6attachERKNS_5TableERKNS_6StringE@Base 3.2.1
 _ZN8casacore11ArrayColumnIdE7basePutEjRKNS_5ArrayIdEE@Base 3.2.1
 _ZN8casacore11ArrayColumnIdE8putSliceEjRKNS_6SlicerERKNS_5ArrayIdEE@Base 3.2.1
 _ZN8casacore11ArrayColumnIdE8putSliceEjRKNS_6VectorINS2_INS_5SliceEEEEERKNS_5ArrayIdEE@Base 3.2.1
 _ZN8casacore11ArrayColumnIdE8setShapeEjRKNS_9IPositionE@Base 3.2.1
 _ZN8casacore11ArrayColumnIdE8setShapeEjRKNS_9IPositionES4_@Base 3.2.1
 _ZN8casacore11ArrayColumnIdE9putColumnERKNS_5ArrayIdEE@Base 3.2.1
 _ZN8casacore11ArrayColumnIdE9putColumnERKNS_6SlicerERKNS_5ArrayIdEE@Base 3.2.1
 _ZN8casacore11ArrayColumnIdE9putColumnERKNS_6VectorINS2_INS_5SliceEEEEERKNS_5ArrayIdEE@Base 3.2.1
 _ZN8casacore11ArrayColumnIdE9putColumnERKS1_@Base 3.2.1
 _ZN8casacore11ArrayColumnIdE9referenceERKS1_@Base 3.2.1
 _ZN8casacore11ArrayColumnIdEC1ERKNS_11TableColumnE@Base 3.2.1
 _ZN8casacore11ArrayColumnIdEC1ERKNS_5TableERKNS_6StringE@Base 3.2.1
 _ZN8casacore11ArrayColumnIdEC1ERKS1_@Base 3.2.1
 _ZN8casacore11ArrayColumnIdEC1Ev@Base 3.2.1
 _ZN8casacore11ArrayColumnIdEC2ERKNS_11TableColumnE@Base 3.2.1
 _ZN8casacore11ArrayColumnIdEC2ERKNS_5TableERKNS_6StringE@Base 3.2.1
 _ZN8casacore11ArrayColumnIdEC2ERKS1_@Base 3.2.1
 _ZN8casacore11ArrayColumnIdEC2Ev@Base 3.2.1
 _ZN8casacore11ArrayColumnIdED0Ev@Base 3.2.1
 _ZN8casacore11ArrayColumnIdED1Ev@Base 3.2.1
 _ZN8casacore11ArrayColumnIdED2Ev@Base 3.2.1
 _ZN8casacore11ArrayColumnIdEaSERKS1_@Base 3.2.1
 _ZN8casacore11ArrayColumnIfE10fillColumnERKNS_5ArrayIfEE@Base 3.2.1
 _ZN8casacore11ArrayColumnIfE14putColumnCellsERKNS_7RefRowsERKNS_12ColumnSlicerERKNS_5ArrayIfEE@Base 3.2.1
 _ZN8casacore11ArrayColumnIfE14putColumnCellsERKNS_7RefRowsERKNS_5ArrayIfEE@Base 3.2.1
 _ZN8casacore11ArrayColumnIfE14putColumnCellsERKNS_7RefRowsERKNS_6SlicerERKNS_5ArrayIfEE@Base 3.2.1
 _ZN8casacore11ArrayColumnIfE14putColumnCellsERKNS_7RefRowsERKNS_6VectorINS5_INS_5SliceEEEEERKNS_5ArrayIfEE@Base 3.2.1
 _ZN8casacore11ArrayColumnIfE14putColumnRangeERKNS_6SlicerERKNS_5ArrayIfEE@Base 3.2.1
 _ZN8casacore11ArrayColumnIfE14putColumnRangeERKNS_6SlicerES4_RKNS_5ArrayIfEE@Base 3.2.1
 _ZN8casacore11ArrayColumnIfE16putSliceFromRowsERKNS_7RefRowsERKNS_6VectorINS5_INS_5SliceEEEEERKNS_5ArrayIfEE@Base 3.2.1
 _ZN8casacore11ArrayColumnIfE3putEjRKNS_11TableColumnEb@Base 3.2.1
 _ZN8casacore11ArrayColumnIfE3putEjRKNS_11TableColumnEjb@Base 3.2.1
 _ZN8casacore11ArrayColumnIfE3putEjRKNS_5ArrayIfEE@Base 3.2.1
 _ZN8casacore11ArrayColumnIfE6attachERKNS_5TableERKNS_6StringE@Base 3.2.1
 _ZN8casacore11ArrayColumnIfE7basePutEjRKNS_5ArrayIfEE@Base 3.2.1
 _ZN8casacore11ArrayColumnIfE8putSliceEjRKNS_6SlicerERKNS_5ArrayIfEE@Base 3.2.1
 _ZN8casacore11ArrayColumnIfE8putSliceEjRKNS_6VectorINS2_INS_5SliceEEEEERKNS_5ArrayIfEE@Base 3.2.1
 _ZN8casacore11ArrayColumnIfE8setShapeEjRKNS_9IPositionE@Base 3.2.1
 _ZN8casacore11ArrayColumnIfE8setShapeEjRKNS_9IPositionES4_@Base 3.2.1
 _ZN8casacore11ArrayColumnIfE9putColumnERKNS_5ArrayIfEE@Base 3.2.1
 _ZN8casacore11ArrayColumnIfE9putColumnERKNS_6SlicerERKNS_5ArrayIfEE@Base 3.2.1
 _ZN8casacore11ArrayColumnIfE9putColumnERKNS_6VectorINS2_INS_5SliceEEEEERKNS_5ArrayIfEE@Base 3.2.1
 _ZN8casacore11ArrayColumnIfE9putColumnERKS1_@Base 3.2.1
 _ZN8casacore11ArrayColumnIfE9referenceERKS1_@Base 3.2.1
 _ZN8casacore11ArrayColumnIfEC1ERKNS_11TableColumnE@Base 3.2.1
 _ZN8casacore11ArrayColumnIfEC1ERKNS_5TableERKNS_6StringE@Base 3.2.1
 _ZN8casacore11ArrayColumnIfEC1ERKS1_@Base 3.2.1
 _ZN8casacore11ArrayColumnIfEC1Ev@Base 3.2.1
 _ZN8casacore11ArrayColumnIfEC2ERKNS_11TableColumnE@Base 3.2.1
 _ZN8casacore11ArrayColumnIfEC2ERKNS_5TableERKNS_6StringE@Base 3.2.1
 _ZN8casacore11ArrayColumnIfEC2ERKS1_@Base 3.2.1
 _ZN8casacore11ArrayColumnIfEC2Ev@Base 3.2.1
 _ZN8casacore11ArrayColumnIfED0Ev@Base 3.2.1
 _ZN8casacore11ArrayColumnIfED1Ev@Base 3.2.1
 _ZN8casacore11ArrayColumnIfED2Ev@Base 3.2.1
 _ZN8casacore11ArrayColumnIfEaSERKS1_@Base 3.2.1
 _ZN8casacore11ArrayColumnIhE14putColumnCellsERKNS_7RefRowsERKNS_5ArrayIhEE@Base 3.2.1
 _ZN8casacore11ArrayColumnIhE14putColumnCellsERKNS_7RefRowsERKNS_6SlicerERKNS_5ArrayIhEE@Base 3.2.1
 _ZN8casacore11ArrayColumnIhE14putColumnRangeERKNS_6SlicerERKNS_5ArrayIhEE@Base 3.2.1
 _ZN8casacore11ArrayColumnIhE14putColumnRangeERKNS_6SlicerES4_RKNS_5ArrayIhEE@Base 3.2.1
 _ZN8casacore11ArrayColumnIhE3putEjRKNS_11TableColumnEjb@Base 3.2.1
 _ZN8casacore11ArrayColumnIhE3putEjRKNS_5ArrayIhEE@Base 3.2.1
 _ZN8casacore11ArrayColumnIhE8putSliceEjRKNS_6SlicerERKNS_5ArrayIhEE@Base 3.2.1
 _ZN8casacore11ArrayColumnIhE8setShapeEjRKNS_9IPositionE@Base 3.2.1
 _ZN8casacore11ArrayColumnIhE9putColumnERKNS_5ArrayIhEE@Base 3.2.1
 _ZN8casacore11ArrayColumnIhE9putColumnERKNS_6SlicerERKNS_5ArrayIhEE@Base 3.2.1
 _ZN8casacore11ArrayColumnIhEC1ERKNS_11TableColumnE@Base 3.2.1
 _ZN8casacore11ArrayColumnIhEC1ERKNS_5TableERKNS_6StringE@Base 3.2.1
 _ZN8casacore11ArrayColumnIhEC2ERKNS_11TableColumnE@Base 3.2.1
 _ZN8casacore11ArrayColumnIhEC2ERKNS_5TableERKNS_6StringE@Base 3.2.1
 _ZN8casacore11ArrayColumnIhED0Ev@Base 3.2.1
 _ZN8casacore11ArrayColumnIhED1Ev@Base 3.2.1
 _ZN8casacore11ArrayColumnIhED2Ev@Base 3.2.1
 _ZN8casacore11ArrayColumnIiE10fillColumnERKNS_5ArrayIiEE@Base 3.2.1
 _ZN8casacore11ArrayColumnIiE14putColumnCellsERKNS_7RefRowsERKNS_12ColumnSlicerERKNS_5ArrayIiEE@Base 3.2.1
 _ZN8casacore11ArrayColumnIiE14putColumnCellsERKNS_7RefRowsERKNS_5ArrayIiEE@Base 3.2.1
 _ZN8casacore11ArrayColumnIiE14putColumnCellsERKNS_7RefRowsERKNS_6SlicerERKNS_5ArrayIiEE@Base 3.2.1
 _ZN8casacore11ArrayColumnIiE14putColumnCellsERKNS_7RefRowsERKNS_6VectorINS5_INS_5SliceEEEEERKNS_5ArrayIiEE@Base 3.2.1
 _ZN8casacore11ArrayColumnIiE14putColumnRangeERKNS_6SlicerERKNS_5ArrayIiEE@Base 3.2.1
 _ZN8casacore11ArrayColumnIiE14putColumnRangeERKNS_6SlicerES4_RKNS_5ArrayIiEE@Base 3.2.1
 _ZN8casacore11ArrayColumnIiE16putSliceFromRowsERKNS_7RefRowsERKNS_6VectorINS5_INS_5SliceEEEEERKNS_5ArrayIiEE@Base 3.2.1
 _ZN8casacore11ArrayColumnIiE3putEjRKNS_11TableColumnEb@Base 3.2.1
 _ZN8casacore11ArrayColumnIiE3putEjRKNS_11TableColumnEjb@Base 3.2.1
 _ZN8casacore11ArrayColumnIiE3putEjRKNS_5ArrayIiEE@Base 3.2.1
 _ZN8casacore11ArrayColumnIiE6attachERKNS_5TableERKNS_6StringE@Base 3.2.1
 _ZN8casacore11ArrayColumnIiE7basePutEjRKNS_5ArrayIiEE@Base 3.2.1
 _ZN8casacore11ArrayColumnIiE8putSliceEjRKNS_6SlicerERKNS_5ArrayIiEE@Base 3.2.1
 _ZN8casacore11ArrayColumnIiE8putSliceEjRKNS_6VectorINS2_INS_5SliceEEEEERKNS_5ArrayIiEE@Base 3.2.1
 _ZN8casacore11ArrayColumnIiE8setShapeEjRKNS_9IPositionE@Base 3.2.1
 _ZN8casacore11ArrayColumnIiE8setShapeEjRKNS_9IPositionES4_@Base 3.2.1
 _ZN8casacore11ArrayColumnIiE9putColumnERKNS_5ArrayIiEE@Base 3.2.1
 _ZN8casacore11ArrayColumnIiE9putColumnERKNS_6SlicerERKNS_5ArrayIiEE@Base 3.2.1
 _ZN8casacore11ArrayColumnIiE9putColumnERKNS_6VectorINS2_INS_5SliceEEEEERKNS_5ArrayIiEE@Base 3.2.1
 _ZN8casacore11ArrayColumnIiE9putColumnERKS1_@Base 3.2.1
 _ZN8casacore11ArrayColumnIiE9referenceERKS1_@Base 3.2.1
 _ZN8casacore11ArrayColumnIiEC1ERKNS_11TableColumnE@Base 3.2.1
 _ZN8casacore11ArrayColumnIiEC1ERKNS_5TableERKNS_6StringE@Base 3.2.1
 _ZN8casacore11ArrayColumnIiEC1ERKS1_@Base 3.2.1
 _ZN8casacore11ArrayColumnIiEC1Ev@Base 3.2.1
 _ZN8casacore11ArrayColumnIiEC2ERKNS_11TableColumnE@Base 3.2.1
 _ZN8casacore11ArrayColumnIiEC2ERKNS_5TableERKNS_6StringE@Base 3.2.1
 _ZN8casacore11ArrayColumnIiEC2ERKS1_@Base 3.2.1
 _ZN8casacore11ArrayColumnIiEC2Ev@Base 3.2.1
 _ZN8casacore11ArrayColumnIiED0Ev@Base 3.2.1
 _ZN8casacore11ArrayColumnIiED1Ev@Base 3.2.1
 _ZN8casacore11ArrayColumnIiED2Ev@Base 3.2.1
 _ZN8casacore11ArrayColumnIiEaSERKS1_@Base 3.2.1
 _ZN8casacore11ArrayColumnIjE10fillColumnERKNS_5ArrayIjEE@Base 3.2.1
 _ZN8casacore11ArrayColumnIjE14putColumnCellsERKNS_7RefRowsERKNS_12ColumnSlicerERKNS_5ArrayIjEE@Base 3.2.1
 _ZN8casacore11ArrayColumnIjE14putColumnCellsERKNS_7RefRowsERKNS_5ArrayIjEE@Base 3.2.1
 _ZN8casacore11ArrayColumnIjE14putColumnCellsERKNS_7RefRowsERKNS_6SlicerERKNS_5ArrayIjEE@Base 3.2.1
 _ZN8casacore11ArrayColumnIjE14putColumnCellsERKNS_7RefRowsERKNS_6VectorINS5_INS_5SliceEEEEERKNS_5ArrayIjEE@Base 3.2.1
 _ZN8casacore11ArrayColumnIjE14putColumnRangeERKNS_6SlicerERKNS_5ArrayIjEE@Base 3.2.1
 _ZN8casacore11ArrayColumnIjE14putColumnRangeERKNS_6SlicerES4_RKNS_5ArrayIjEE@Base 3.2.1
 _ZN8casacore11ArrayColumnIjE16putSliceFromRowsERKNS_7RefRowsERKNS_6VectorINS5_INS_5SliceEEEEERKNS_5ArrayIjEE@Base 3.2.1
 _ZN8casacore11ArrayColumnIjE3putEjRKNS_11TableColumnEb@Base 3.2.1
 _ZN8casacore11ArrayColumnIjE3putEjRKNS_11TableColumnEjb@Base 3.2.1
 _ZN8casacore11ArrayColumnIjE3putEjRKNS_5ArrayIjEE@Base 3.2.1
 _ZN8casacore11ArrayColumnIjE6attachERKNS_5TableERKNS_6StringE@Base 3.2.1
 _ZN8casacore11ArrayColumnIjE7basePutEjRKNS_5ArrayIjEE@Base 3.2.1
 _ZN8casacore11ArrayColumnIjE8putSliceEjRKNS_6SlicerERKNS_5ArrayIjEE@Base 3.2.1
 _ZN8casacore11ArrayColumnIjE8putSliceEjRKNS_6VectorINS2_INS_5SliceEEEEERKNS_5ArrayIjEE@Base 3.2.1
 _ZN8casacore11ArrayColumnIjE8setShapeEjRKNS_9IPositionE@Base 3.2.1
 _ZN8casacore11ArrayColumnIjE8setShapeEjRKNS_9IPositionES4_@Base 3.2.1
 _ZN8casacore11ArrayColumnIjE9putColumnERKNS_5ArrayIjEE@Base 3.2.1
 _ZN8casacore11ArrayColumnIjE9putColumnERKNS_6SlicerERKNS_5ArrayIjEE@Base 3.2.1
 _ZN8casacore11ArrayColumnIjE9putColumnERKNS_6VectorINS2_INS_5SliceEEEEERKNS_5ArrayIjEE@Base 3.2.1
 _ZN8casacore11ArrayColumnIjE9putColumnERKS1_@Base 3.2.1
 _ZN8casacore11ArrayColumnIjE9referenceERKS1_@Base 3.2.1
 _ZN8casacore11ArrayColumnIjEC1ERKNS_11TableColumnE@Base 3.2.1
 _ZN8casacore11ArrayColumnIjEC1ERKNS_5TableERKNS_6StringE@Base 3.2.1
 _ZN8casacore11ArrayColumnIjEC1ERKS1_@Base 3.2.1
 _ZN8casacore11ArrayColumnIjEC1Ev@Base 3.2.1
 _ZN8casacore11ArrayColumnIjEC2ERKNS_11TableColumnE@Base 3.2.1
 _ZN8casacore11ArrayColumnIjEC2ERKNS_5TableERKNS_6StringE@Base 3.2.1
 _ZN8casacore11ArrayColumnIjEC2ERKS1_@Base 3.2.1
 _ZN8casacore11ArrayColumnIjEC2Ev@Base 3.2.1
 _ZN8casacore11ArrayColumnIjED0Ev@Base 3.2.1
 _ZN8casacore11ArrayColumnIjED1Ev@Base 3.2.1
 _ZN8casacore11ArrayColumnIjED2Ev@Base 3.2.1
 _ZN8casacore11ArrayColumnIjEaSERKS1_@Base 3.2.1
 _ZN8casacore11ArrayColumnIsE10fillColumnERKNS_5ArrayIsEE@Base 3.2.1
 _ZN8casacore11ArrayColumnIsE14putColumnCellsERKNS_7RefRowsERKNS_12ColumnSlicerERKNS_5ArrayIsEE@Base 3.2.1
 _ZN8casacore11ArrayColumnIsE14putColumnCellsERKNS_7RefRowsERKNS_5ArrayIsEE@Base 3.2.1
 _ZN8casacore11ArrayColumnIsE14putColumnCellsERKNS_7RefRowsERKNS_6SlicerERKNS_5ArrayIsEE@Base 3.2.1
 _ZN8casacore11ArrayColumnIsE14putColumnCellsERKNS_7RefRowsERKNS_6VectorINS5_INS_5SliceEEEEERKNS_5ArrayIsEE@Base 3.2.1
 _ZN8casacore11ArrayColumnIsE14putColumnRangeERKNS_6SlicerERKNS_5ArrayIsEE@Base 3.2.1
 _ZN8casacore11ArrayColumnIsE14putColumnRangeERKNS_6SlicerES4_RKNS_5ArrayIsEE@Base 3.2.1
 _ZN8casacore11ArrayColumnIsE16putSliceFromRowsERKNS_7RefRowsERKNS_6VectorINS5_INS_5SliceEEEEERKNS_5ArrayIsEE@Base 3.2.1
 _ZN8casacore11ArrayColumnIsE3putEjRKNS_11TableColumnEb@Base 3.2.1
 _ZN8casacore11ArrayColumnIsE3putEjRKNS_11TableColumnEjb@Base 3.2.1
 _ZN8casacore11ArrayColumnIsE3putEjRKNS_5ArrayIsEE@Base 3.2.1
 _ZN8casacore11ArrayColumnIsE6attachERKNS_5TableERKNS_6StringE@Base 3.2.1
 _ZN8casacore11ArrayColumnIsE7basePutEjRKNS_5ArrayIsEE@Base 3.2.1
 _ZN8casacore11ArrayColumnIsE8putSliceEjRKNS_6SlicerERKNS_5ArrayIsEE@Base 3.2.1
 _ZN8casacore11ArrayColumnIsE8putSliceEjRKNS_6VectorINS2_INS_5SliceEEEEERKNS_5ArrayIsEE@Base 3.2.1
 _ZN8casacore11ArrayColumnIsE8setShapeEjRKNS_9IPositionE@Base 3.2.1
 _ZN8casacore11ArrayColumnIsE8setShapeEjRKNS_9IPositionES4_@Base 3.2.1
 _ZN8casacore11ArrayColumnIsE9putColumnERKNS_5ArrayIsEE@Base 3.2.1
 _ZN8casacore11ArrayColumnIsE9putColumnERKNS_6SlicerERKNS_5ArrayIsEE@Base 3.2.1
 _ZN8casacore11ArrayColumnIsE9putColumnERKNS_6VectorINS2_INS_5SliceEEEEERKNS_5ArrayIsEE@Base 3.2.1
 _ZN8casacore11ArrayColumnIsE9putColumnERKS1_@Base 3.2.1
 _ZN8casacore11ArrayColumnIsE9referenceERKS1_@Base 3.2.1
 _ZN8casacore11ArrayColumnIsEC1ERKNS_11TableColumnE@Base 3.2.1
 _ZN8casacore11ArrayColumnIsEC1ERKNS_5TableERKNS_6StringE@Base 3.2.1
 _ZN8casacore11ArrayColumnIsEC1ERKS1_@Base 3.2.1
 _ZN8casacore11ArrayColumnIsEC1Ev@Base 3.2.1
 _ZN8casacore11ArrayColumnIsEC2ERKNS_11TableColumnE@Base 3.2.1
 _ZN8casacore11ArrayColumnIsEC2ERKNS_5TableERKNS_6StringE@Base 3.2.1
 _ZN8casacore11ArrayColumnIsEC2ERKS1_@Base 3.2.1
 _ZN8casacore11ArrayColumnIsEC2Ev@Base 3.2.1
 _ZN8casacore11ArrayColumnIsED0Ev@Base 3.2.1
 _ZN8casacore11ArrayColumnIsED1Ev@Base 3.2.1
 _ZN8casacore11ArrayColumnIsED2Ev@Base 3.2.1
 _ZN8casacore11ArrayColumnIsEaSERKS1_@Base 3.2.1
 _ZN8casacore11ArrayColumnItE10fillColumnERKNS_5ArrayItEE@Base 3.2.1
 _ZN8casacore11ArrayColumnItE14putColumnCellsERKNS_7RefRowsERKNS_12ColumnSlicerERKNS_5ArrayItEE@Base 3.2.1
 _ZN8casacore11ArrayColumnItE14putColumnCellsERKNS_7RefRowsERKNS_5ArrayItEE@Base 3.2.1
 _ZN8casacore11ArrayColumnItE14putColumnCellsERKNS_7RefRowsERKNS_6SlicerERKNS_5ArrayItEE@Base 3.2.1
 _ZN8casacore11ArrayColumnItE14putColumnCellsERKNS_7RefRowsERKNS_6VectorINS5_INS_5SliceEEEEERKNS_5ArrayItEE@Base 3.2.1
 _ZN8casacore11ArrayColumnItE14putColumnRangeERKNS_6SlicerERKNS_5ArrayItEE@Base 3.2.1
 _ZN8casacore11ArrayColumnItE14putColumnRangeERKNS_6SlicerES4_RKNS_5ArrayItEE@Base 3.2.1
 _ZN8casacore11ArrayColumnItE16putSliceFromRowsERKNS_7RefRowsERKNS_6VectorINS5_INS_5SliceEEEEERKNS_5ArrayItEE@Base 3.2.1
 _ZN8casacore11ArrayColumnItE3putEjRKNS_11TableColumnEb@Base 3.2.1
 _ZN8casacore11ArrayColumnItE3putEjRKNS_11TableColumnEjb@Base 3.2.1
 _ZN8casacore11ArrayColumnItE3putEjRKNS_5ArrayItEE@Base 3.2.1
 _ZN8casacore11ArrayColumnItE6attachERKNS_5TableERKNS_6StringE@Base 3.2.1
 _ZN8casacore11ArrayColumnItE7basePutEjRKNS_5ArrayItEE@Base 3.2.1
 _ZN8casacore11ArrayColumnItE8putSliceEjRKNS_6SlicerERKNS_5ArrayItEE@Base 3.2.1
 _ZN8casacore11ArrayColumnItE8putSliceEjRKNS_6VectorINS2_INS_5SliceEEEEERKNS_5ArrayItEE@Base 3.2.1
 _ZN8casacore11ArrayColumnItE8setShapeEjRKNS_9IPositionE@Base 3.2.1
 _ZN8casacore11ArrayColumnItE8setShapeEjRKNS_9IPositionES4_@Base 3.2.1
 _ZN8casacore11ArrayColumnItE9putColumnERKNS_5ArrayItEE@Base 3.2.1
 _ZN8casacore11ArrayColumnItE9putColumnERKNS_6SlicerERKNS_5ArrayItEE@Base 3.2.1
 _ZN8casacore11ArrayColumnItE9putColumnERKNS_6VectorINS2_INS_5SliceEEEEERKNS_5ArrayItEE@Base 3.2.1
 _ZN8casacore11ArrayColumnItE9putColumnERKS1_@Base 3.2.1
 _ZN8casacore11ArrayColumnItE9referenceERKS1_@Base 3.2.1
 _ZN8casacore11ArrayColumnItEC1ERKNS_11TableColumnE@Base 3.2.1
 _ZN8casacore11ArrayColumnItEC1ERKNS_5TableERKNS_6StringE@Base 3.2.1
 _ZN8casacore11ArrayColumnItEC1ERKS1_@Base 3.2.1
 _ZN8casacore11ArrayColumnItEC1Ev@Base 3.2.1
 _ZN8casacore11ArrayColumnItEC2ERKNS_11TableColumnE@Base 3.2.1
 _ZN8casacore11ArrayColumnItEC2ERKNS_5TableERKNS_6StringE@Base 3.2.1
 _ZN8casacore11ArrayColumnItEC2ERKS1_@Base 3.2.1
 _ZN8casacore11ArrayColumnItEC2Ev@Base 3.2.1
 _ZN8casacore11ArrayColumnItED0Ev@Base 3.2.1
 _ZN8casacore11ArrayColumnItED1Ev@Base 3.2.1
 _ZN8casacore11ArrayColumnItED2Ev@Base 3.2.1
 _ZN8casacore11ArrayColumnItEaSERKS1_@Base 3.2.1
 _ZN8casacore11ArrayColumnIxE10fillColumnERKNS_5ArrayIxEE@Base 3.2.1
 _ZN8casacore11ArrayColumnIxE14putColumnCellsERKNS_7RefRowsERKNS_12ColumnSlicerERKNS_5ArrayIxEE@Base 3.2.1
 _ZN8casacore11ArrayColumnIxE14putColumnCellsERKNS_7RefRowsERKNS_5ArrayIxEE@Base 3.2.1
 _ZN8casacore11ArrayColumnIxE14putColumnCellsERKNS_7RefRowsERKNS_6SlicerERKNS_5ArrayIxEE@Base 3.2.1
 _ZN8casacore11ArrayColumnIxE14putColumnCellsERKNS_7RefRowsERKNS_6VectorINS5_INS_5SliceEEEEERKNS_5ArrayIxEE@Base 3.2.1
 _ZN8casacore11ArrayColumnIxE14putColumnRangeERKNS_6SlicerERKNS_5ArrayIxEE@Base 3.2.1
 _ZN8casacore11ArrayColumnIxE14putColumnRangeERKNS_6SlicerES4_RKNS_5ArrayIxEE@Base 3.2.1
 _ZN8casacore11ArrayColumnIxE16putSliceFromRowsERKNS_7RefRowsERKNS_6VectorINS5_INS_5SliceEEEEERKNS_5ArrayIxEE@Base 3.2.1
 _ZN8casacore11ArrayColumnIxE3putEjRKNS_11TableColumnEb@Base 3.2.1
 _ZN8casacore11ArrayColumnIxE3putEjRKNS_11TableColumnEjb@Base 3.2.1
 _ZN8casacore11ArrayColumnIxE3putEjRKNS_5ArrayIxEE@Base 3.2.1
 _ZN8casacore11ArrayColumnIxE6attachERKNS_5TableERKNS_6StringE@Base 3.2.1
 _ZN8casacore11ArrayColumnIxE7basePutEjRKNS_5ArrayIxEE@Base 3.2.1
 _ZN8casacore11ArrayColumnIxE8putSliceEjRKNS_6SlicerERKNS_5ArrayIxEE@Base 3.2.1
 _ZN8casacore11ArrayColumnIxE8putSliceEjRKNS_6VectorINS2_INS_5SliceEEEEERKNS_5ArrayIxEE@Base 3.2.1
 _ZN8casacore11ArrayColumnIxE8setShapeEjRKNS_9IPositionE@Base 3.2.1
 _ZN8casacore11ArrayColumnIxE8setShapeEjRKNS_9IPositionES4_@Base 3.2.1
 _ZN8casacore11ArrayColumnIxE9putColumnERKNS_5ArrayIxEE@Base 3.2.1
 _ZN8casacore11ArrayColumnIxE9putColumnERKNS_6SlicerERKNS_5ArrayIxEE@Base 3.2.1
 _ZN8casacore11ArrayColumnIxE9putColumnERKNS_6VectorINS2_INS_5SliceEEEEERKNS_5ArrayIxEE@Base 3.2.1
 _ZN8casacore11ArrayColumnIxE9putColumnERKS1_@Base 3.2.1
 _ZN8casacore11ArrayColumnIxE9referenceERKS1_@Base 3.2.1
 _ZN8casacore11ArrayColumnIxEC1ERKNS_11TableColumnE@Base 3.2.1
 _ZN8casacore11ArrayColumnIxEC1ERKNS_5TableERKNS_6StringE@Base 3.2.1
 _ZN8casacore11ArrayColumnIxEC1ERKS1_@Base 3.2.1
 _ZN8casacore11ArrayColumnIxEC1Ev@Base 3.2.1
 _ZN8casacore11ArrayColumnIxEC2ERKNS_11TableColumnE@Base 3.2.1
 _ZN8casacore11ArrayColumnIxEC2ERKNS_5TableERKNS_6StringE@Base 3.2.1
 _ZN8casacore11ArrayColumnIxEC2ERKS1_@Base 3.2.1
 _ZN8casacore11ArrayColumnIxEC2Ev@Base 3.2.1
 _ZN8casacore11ArrayColumnIxED0Ev@Base 3.2.1
 _ZN8casacore11ArrayColumnIxED1Ev@Base 3.2.1
 _ZN8casacore11ArrayColumnIxED2Ev@Base 3.2.1
 _ZN8casacore11ArrayColumnIxEaSERKS1_@Base 3.2.1
 _ZN8casacore11ColumnCache3setEjjPKv@Base 3.2.1
 _ZN8casacore11ColumnCacheC1Ev@Base 3.2.1
 _ZN8casacore11ColumnCacheC2Ev@Base 3.2.1
 _ZN8casacore11ConcatTable10initializeEv@Base 3.2.1
 _ZN8casacore11ConcatTable10keywordSetEv@Base 3.2.1
 _ZN8casacore11ConcatTable10openTablesERKNS_5BlockINS_6StringEEEiRKNS_9TableLockERKNS_9TSMOptionE@Base 3.2.1
 _ZN8casacore11ConcatTable12addConcatColERKNS_10ColumnDescE@Base 3.2.1
 _ZN8casacore11ConcatTable12addConcatColERKNS_9TableDescE@Base 3.2.1
 _ZN8casacore11ConcatTable12removeColumnERKNS_6VectorINS_6StringEEE@Base 3.2.1
 _ZN8casacore11ConcatTable12renameColumnERKNS_6StringES3_@Base 3.2.1
 _ZN8casacore11ConcatTable12rwKeywordSetEv@Base 3.2.1
 _ZN8casacore11ConcatTable13getRefColumnsERKNS_6StringE@Base 3.2.1
 _ZN8casacore11ConcatTable13makeConcatColEv@Base 3.2.1
 _ZN8casacore11ConcatTable14checkAddColumnERKNS_6StringEb@Base 3.2.1
 _ZN8casacore11ConcatTable15handleSubTablesEv@Base 3.2.1
 _ZN8casacore11ConcatTable16writeConcatTableEb@Base 3.2.1
 _ZN8casacore11ConcatTable17renameHypercolumnERKNS_6StringES3_@Base 3.2.1
 _ZN8casacore11ConcatTable4lockENS_10FileLocker8LockTypeEj@Base 3.2.1
 _ZN8casacore11ConcatTable5flushEbb@Base 3.2.1
 _ZN8casacore11ConcatTable6resyncEv@Base 3.2.1
 _ZN8casacore11ConcatTable6unlockEv@Base 3.2.1
 _ZN8casacore11ConcatTable7addInfoEv@Base 3.2.1
 _ZN8casacore11ConcatTable8reopenRWEv@Base 3.2.1
 _ZN8casacore11ConcatTable9addColumnERKNS_10ColumnDescERKNS_11DataManagerEb@Base 3.2.1
 _ZN8casacore11ConcatTable9addColumnERKNS_10ColumnDescERKNS_6StringEbb@Base 3.2.1
 _ZN8casacore11ConcatTable9addColumnERKNS_10ColumnDescEb@Base 3.2.1
 _ZN8casacore11ConcatTable9addColumnERKNS_9TableDescERKNS_11DataManagerEb@Base 3.2.1
 _ZN8casacore11ConcatTable9getConcatERNS_6AipsIOEiRKNS_9TableLockERKNS_9TSMOptionE@Base 3.2.1
 _ZN8casacore11ConcatTable9getLayoutERNS_9TableDescERNS_6AipsIOE@Base 3.2.1
 _ZN8casacore11ConcatTable9mergeLockERKNS_9TableLockE@Base 3.2.1
 _ZN8casacore11ConcatTable9removeRowEj@Base 3.2.1
 _ZN8casacore11ConcatTableC1ERKNS_5BlockINS_6StringEEES5_RKS2_iRKNS_9TableLockERKNS_9TSMOptionE@Base 3.2.1
 _ZN8casacore11ConcatTableC1ERKNS_5BlockIPNS_9BaseTableEEERKNS1_INS_6StringEEERKS7_@Base 3.2.1
 _ZN8casacore11ConcatTableC1ERNS_6AipsIOERKNS_6StringEjiRKNS_9TableLockERKNS_9TSMOptionE@Base 3.2.1
 _ZN8casacore11ConcatTableC2ERKNS_5BlockINS_6StringEEES5_RKS2_iRKNS_9TableLockERKNS_9TSMOptionE@Base 3.2.1
 _ZN8casacore11ConcatTableC2ERKNS_5BlockIPNS_9BaseTableEEERKNS1_INS_6StringEEERKS7_@Base 3.2.1
 _ZN8casacore11ConcatTableC2ERNS_6AipsIOERKNS_6StringEjiRKNS_9TableLockERKNS_9TSMOptionE@Base 3.2.1
 _ZN8casacore11ConcatTableD0Ev@Base 3.2.1
 _ZN8casacore11ConcatTableD1Ev@Base 3.2.1
 _ZN8casacore11ConcatTableD2Ev@Base 3.2.1
 _ZN8casacore11DataManInfo10adjustDescERNS_9TableDescERKNS_6RecordE@Base 3.2.1
 _ZN8casacore11DataManInfo11adjustStManERKNS_6RecordERKNS_6StringEb@Base 3.2.1
 _ZN8casacore11DataManInfo13setTiledStManERNS_6RecordERKNS_6VectorINS_6StringEEERKS4_S9_RKNS_9IPositionE@Base 3.2.1
 _ZN8casacore11DataManInfo16showDataManStatsERKNS_5TableERSo@Base 3.2.1
 _ZN8casacore11DataManInfo18removeHypercolumnsERNS_9TableDescE@Base 3.2.1
 _ZN8casacore11DataManInfo19removeDminfoColumnsERNS_6RecordERKNS_6VectorINS_6StringEEERKS4_@Base 3.2.1
 _ZN8casacore11DataManInfo9adjustTSMERNS_9TableDescERNS_6RecordE@Base 3.2.1
 _ZN8casacore11DataManager10theirMutexE@Base 3.2.1
 _ZN8casacore11DataManager11linkToTableERNS_5TableE@Base 3.2.1
 _ZN8casacore11DataManager12isRegisteredERKNS_6StringE@Base 3.2.1
 _ZN8casacore11DataManager12registerCtorERKNS_6StringEPFPS0_S3_RKNS_6RecordEE@Base 3.2.1
 _ZN8casacore11DataManager12removeColumnEPNS_17DataManagerColumnE@Base 3.2.1
 _ZN8casacore11DataManager12setMultiFileEPNS_13MultiFileBaseE@Base 3.2.1
 _ZN8casacore11DataManager12setTsmOptionERKNS_9TSMOptionE@Base 3.2.1
 _ZN8casacore11DataManager13setPropertiesERKNS_6RecordE@Base 3.2.1
 _ZN8casacore11DataManager15initRegisterMapEv@Base 3.2.1
 _ZN8casacore11DataManager16reallocateColumnEPNS_17DataManagerColumnE@Base 3.2.1
 _ZN8casacore11DataManager16theirRegisterMapE@Base 3.2.1
 _ZN8casacore11DataManager18createDirArrColumnERKNS_6StringEiS3_@Base 3.2.1
 _ZN8casacore11DataManager18createIndArrColumnERKNS_6StringEiS3_@Base 3.2.1
 _ZN8casacore11DataManager18createScalarColumnERKNS_6StringEiS3_@Base 3.2.1
 _ZN8casacore11DataManager18unknownDataManagerERKNS_6StringERKNS_6RecordE@Base 3.2.1
 _ZN8casacore11DataManager19setMaximumCacheSizeEj@Base 3.2.1
 _ZN8casacore11DataManager5open1EjRNS_6AipsIOE@Base 3.2.1
 _ZN8casacore11DataManager6addRowEj@Base 3.2.1
 _ZN8casacore11DataManager7getCtorERKNS_6StringE@Base 3.2.1
 _ZN8casacore11DataManager7prepareEv@Base 3.2.1
 _ZN8casacore11DataManager7resync1Ej@Base 3.2.1
 _ZN8casacore11DataManager8reopenRWEv@Base 3.2.1
 _ZN8casacore11DataManager9addColumnEPNS_17DataManagerColumnE@Base 3.2.1
 _ZN8casacore11DataManager9removeRowEj@Base 3.2.1
 _ZN8casacore11DataManagerC1Ev@Base 3.2.1
 _ZN8casacore11DataManagerC2Ev@Base 3.2.1
 _ZN8casacore11DataManagerD0Ev@Base 3.2.1
 _ZN8casacore11DataManagerD1Ev@Base 3.2.1
 _ZN8casacore11DataManagerD2Ev@Base 3.2.1
 _ZN8casacore11MMedianFuncIdED0Ev@Base 3.2.1
 _ZN8casacore11MMedianFuncIdED1Ev@Base 3.2.1
 _ZN8casacore11MMedianFuncIdED2Ev@Base 3.2.1
 _ZN8casacore11MNFalseFuncIbjED0Ev@Base 3.2.1
 _ZN8casacore11MNFalseFuncIbjED1Ev@Base 3.2.1
 _ZN8casacore11MNFalseFuncIbjED2Ev@Base 3.2.1
 _ZN8casacore11MStddevFuncISt7complexIdEED0Ev@Base 3.2.1
 _ZN8casacore11MStddevFuncISt7complexIdEED1Ev@Base 3.2.1
 _ZN8casacore11MStddevFuncISt7complexIdEED2Ev@Base 3.2.1
 _ZN8casacore11MStddevFuncIdED0Ev@Base 3.2.1
 _ZN8casacore11MStddevFuncIdED1Ev@Base 3.2.1
 _ZN8casacore11MStddevFuncIdED2Ev@Base 3.2.1
 _ZN8casacore11MSumSqrFuncISt7complexIdEED0Ev@Base 3.2.1
 _ZN8casacore11MSumSqrFuncISt7complexIdEED1Ev@Base 3.2.1
 _ZN8casacore11MSumSqrFuncISt7complexIdEED2Ev@Base 3.2.1
 _ZN8casacore11MSumSqrFuncIdED0Ev@Base 3.2.1
 _ZN8casacore11MSumSqrFuncIdED1Ev@Base 3.2.1
 _ZN8casacore11MSumSqrFuncIdED2Ev@Base 3.2.1
 _ZN8casacore11MSumSqrFuncIxED0Ev@Base 3.2.1
 _ZN8casacore11MSumSqrFuncIxED1Ev@Base 3.2.1
 _ZN8casacore11MSumSqrFuncIxED2Ev@Base 3.2.1
 _ZN8casacore11MemoryStManC1ERKNS_6StringE@Base 3.2.1
 _ZN8casacore11MemoryStManC1Ev@Base 3.2.1
 _ZN8casacore11MemoryStManC2ERKNS_6StringE@Base 3.2.1
 _ZN8casacore11MemoryStManC2Ev@Base 3.2.1
 _ZN8casacore11MemoryStManD0Ev@Base 3.2.1
 _ZN8casacore11MemoryStManD1Ev@Base 3.2.1
 _ZN8casacore11MemoryStManD2Ev@Base 3.2.1
 _ZN8casacore11MemoryTable10keywordSetEv@Base 3.2.1
 _ZN8casacore11MemoryTable12removeColumnERKNS_6VectorINS_6StringEEE@Base 3.2.1
 _ZN8casacore11MemoryTable12renameColumnERKNS_6StringES3_@Base 3.2.1
 _ZN8casacore11MemoryTable12rwKeywordSetEv@Base 3.2.1
 _ZN8casacore11MemoryTable14flushTableInfoEv@Base 3.2.1
 _ZN8casacore11MemoryTable17renameHypercolumnERKNS_6StringES3_@Base 3.2.1
 _ZN8casacore11MemoryTable4lockENS_10FileLocker8LockTypeEj@Base 3.2.1
 _ZN8casacore11MemoryTable5flushEbb@Base 3.2.1
 _ZN8casacore11MemoryTable6addRowEjb@Base 3.2.1
 _ZN8casacore11MemoryTable6renameERKNS_6StringEi@Base 3.2.1
 _ZN8casacore11MemoryTable6resyncEv@Base 3.2.1
 _ZN8casacore11MemoryTable6unlockEv@Base 3.2.1
 _ZN8casacore11MemoryTable8reopenRWEv@Base 3.2.1
 _ZN8casacore11MemoryTable9addColumnERKNS_10ColumnDescERKNS_11DataManagerEb@Base 3.2.1
 _ZN8casacore11MemoryTable9addColumnERKNS_10ColumnDescERKNS_6StringEbb@Base 3.2.1
 _ZN8casacore11MemoryTable9addColumnERKNS_10ColumnDescEb@Base 3.2.1
 _ZN8casacore11MemoryTable9addColumnERKNS_9TableDescERKNS_11DataManagerEb@Base 3.2.1
 _ZN8casacore11MemoryTable9mergeLockERKNS_9TableLockE@Base 3.2.1
 _ZN8casacore11MemoryTable9removeRowEj@Base 3.2.1
 _ZN8casacore11MemoryTableC1ERNS_13SetupNewTableEjb@Base 3.2.1
 _ZN8casacore11MemoryTableC2ERNS_13SetupNewTableEjb@Base 3.2.1
 _ZN8casacore11MemoryTableD0Ev@Base 3.2.1
 _ZN8casacore11MemoryTableD1Ev@Base 3.2.1
 _ZN8casacore11MemoryTableD2Ev@Base 3.2.1
 _ZN8casacore11PlainColumn10keywordSetEv@Base 3.2.1
 _ZN8casacore11PlainColumn11columnCacheEv@Base 3.2.1
 _ZN8casacore11PlainColumn12rwKeywordSetEv@Base 3.2.1
 _ZN8casacore11PlainColumn14setShapeColumnERKNS_9IPositionE@Base 3.2.1
 _ZN8casacore11PlainColumn19setMaximumCacheSizeEj@Base 3.2.1
 _ZN8casacore11PlainColumn4bindEPNS_11DataManagerE@Base 3.2.1
 _ZN8casacore11PlainColumn7getFileERNS_6AipsIOERKNS_9ColumnSetERKNS_9TableAttrE@Base 3.2.1
 _ZN8casacore11PlainColumn7putFileERNS_6AipsIOERKNS_9TableAttrE@Base 3.2.1
 _ZN8casacore11PlainColumnC1EPKNS_14BaseColumnDescEPNS_9ColumnSetE@Base 3.2.1
 _ZN8casacore11PlainColumnC2EPKNS_14BaseColumnDescEPNS_9ColumnSetE@Base 3.2.1
 _ZN8casacore11PlainColumnD0Ev@Base 3.2.1
 _ZN8casacore11PlainColumnD1Ev@Base 3.2.1
 _ZN8casacore11PlainColumnD2Ev@Base 3.2.1
 _ZN8casacore11ProductFuncISt7complexIdEED0Ev@Base 3.2.1
 _ZN8casacore11ProductFuncISt7complexIdEED1Ev@Base 3.2.1
 _ZN8casacore11ProductFuncISt7complexIdEED2Ev@Base 3.2.1
 _ZN8casacore11ProductFuncIdED0Ev@Base 3.2.1
 _ZN8casacore11ProductFuncIdED1Ev@Base 3.2.1
 _ZN8casacore11ProductFuncIdED2Ev@Base 3.2.1
 _ZN8casacore11ProductFuncIxED0Ev@Base 3.2.1
 _ZN8casacore11ProductFuncIxED1Ev@Base 3.2.1
 _ZN8casacore11ProductFuncIxED2Ev@Base 3.2.1
 _ZN8casacore11StManAipsIO10makeObjectERKNS_6StringERKNS_6RecordE@Base 3.2.1
 _ZN8casacore11StManAipsIO12removeColumnEPNS_17DataManagerColumnE@Base 3.2.1
 _ZN8casacore11StManAipsIO13deleteManagerEv@Base 3.2.1
 _ZN8casacore11StManAipsIO13openArrayFileENS_6ByteIO10OpenOptionE@Base 3.2.1
 _ZN8casacore11StManAipsIO16makeDirArrColumnERKNS_6StringEiS3_@Base 3.2.1
 _ZN8casacore11StManAipsIO16makeIndArrColumnERKNS_6StringEiS3_@Base 3.2.1
 _ZN8casacore11StManAipsIO16makeScalarColumnERKNS_6StringEiS3_@Base 3.2.1
 _ZN8casacore11StManAipsIO4openEjRNS_6AipsIOE@Base 3.2.1
 _ZN8casacore11StManAipsIO5flushERNS_6AipsIOEb@Base 3.2.1
 _ZN8casacore11StManAipsIO6addRowEj@Base 3.2.1
 _ZN8casacore11StManAipsIO6createEj@Base 3.2.1
 _ZN8casacore11StManAipsIO6resyncEj@Base 3.2.1
 _ZN8casacore11StManAipsIO8reopenRWEv@Base 3.2.1
 _ZN8casacore11StManAipsIO9addColumnEPNS_17DataManagerColumnE@Base 3.2.1
 _ZN8casacore11StManAipsIO9removeRowEj@Base 3.2.1
 _ZN8casacore11StManAipsIOC1ERKNS_6StringE@Base 3.2.1
 _ZN8casacore11StManAipsIOC1ERKNS_6StringERKNS_6RecordE@Base 3.2.1
 _ZN8casacore11StManAipsIOC1Ev@Base 3.2.1
 _ZN8casacore11StManAipsIOC2ERKNS_6StringE@Base 3.2.1
 _ZN8casacore11StManAipsIOC2ERKNS_6StringERKNS_6RecordE@Base 3.2.1
 _ZN8casacore11StManAipsIOC2Ev@Base 3.2.1
 _ZN8casacore11StManAipsIOD0Ev@Base 3.2.1
 _ZN8casacore11StManAipsIOD1Ev@Base 3.2.1
 _ZN8casacore11StManAipsIOD2Ev@Base 3.2.1
 _ZN8casacore11StManColumn12getArrayIntVEjPNS_5ArrayIiEE@Base 3.2.1
 _ZN8casacore11StManColumn12getBlockIntVEjjPi@Base 3.2.1
 _ZN8casacore11StManColumn12getSliceIntVEjRKNS_6SlicerEPNS_5ArrayIiEE@Base 3.2.1
 _ZN8casacore11StManColumn12putArrayIntVEjPKNS_5ArrayIiEE@Base 3.2.1
 _ZN8casacore11StManColumn12putBlockIntVEjjPKi@Base 3.2.1
 _ZN8casacore11StManColumn12putSliceIntVEjRKNS_6SlicerEPKNS_5ArrayIiEE@Base 3.2.1
 _ZN8casacore11StManColumn13getArrayBoolVEjPNS_5ArrayIbEE@Base 3.2.1
 _ZN8casacore11StManColumn13getArrayuIntVEjPNS_5ArrayIjEE@Base 3.2.1
 _ZN8casacore11StManColumn13getBlockBoolVEjjPb@Base 3.2.1
 _ZN8casacore11StManColumn13getBlockuIntVEjjPj@Base 3.2.1
 _ZN8casacore11StManColumn13getSliceBoolVEjRKNS_6SlicerEPNS_5ArrayIbEE@Base 3.2.1
 _ZN8casacore11StManColumn13getSliceuIntVEjRKNS_6SlicerEPNS_5ArrayIjEE@Base 3.2.1
 _ZN8casacore11StManColumn13putArrayBoolVEjPKNS_5ArrayIbEE@Base 3.2.1
 _ZN8casacore11StManColumn13putArrayuIntVEjPKNS_5ArrayIjEE@Base 3.2.1
 _ZN8casacore11StManColumn13putBlockBoolVEjjPKb@Base 3.2.1
 _ZN8casacore11StManColumn13putBlockuIntVEjjPKj@Base 3.2.1
 _ZN8casacore11StManColumn13putSliceBoolVEjRKNS_6SlicerEPKNS_5ArrayIbEE@Base 3.2.1
 _ZN8casacore11StManColumn13putSliceuIntVEjRKNS_6SlicerEPKNS_5ArrayIjEE@Base 3.2.1
 _ZN8casacore11StManColumn14getArrayInt64VEjPNS_5ArrayIxEE@Base 3.2.1
 _ZN8casacore11StManColumn14getArrayShortVEjPNS_5ArrayIsEE@Base 3.2.1
 _ZN8casacore11StManColumn14getArrayfloatVEjPNS_5ArrayIfEE@Base 3.2.1
 _ZN8casacore11StManColumn14getArrayuCharVEjPNS_5ArrayIhEE@Base 3.2.1
 _ZN8casacore11StManColumn14getBlockInt64VEjjPx@Base 3.2.1
 _ZN8casacore11StManColumn14getBlockShortVEjjPs@Base 3.2.1
 _ZN8casacore11StManColumn14getBlockfloatVEjjPf@Base 3.2.1
 _ZN8casacore11StManColumn14getBlockuCharVEjjPh@Base 3.2.1
 _ZN8casacore11StManColumn14getSliceInt64VEjRKNS_6SlicerEPNS_5ArrayIxEE@Base 3.2.1
 _ZN8casacore11StManColumn14getSliceShortVEjRKNS_6SlicerEPNS_5ArrayIsEE@Base 3.2.1
 _ZN8casacore11StManColumn14getSlicefloatVEjRKNS_6SlicerEPNS_5ArrayIfEE@Base 3.2.1
 _ZN8casacore11StManColumn14getSliceuCharVEjRKNS_6SlicerEPNS_5ArrayIhEE@Base 3.2.1
 _ZN8casacore11StManColumn14putArrayInt64VEjPKNS_5ArrayIxEE@Base 3.2.1
 _ZN8casacore11StManColumn14putArrayShortVEjPKNS_5ArrayIsEE@Base 3.2.1
 _ZN8casacore11StManColumn14putArrayfloatVEjPKNS_5ArrayIfEE@Base 3.2.1
 _ZN8casacore11StManColumn14putArrayuCharVEjPKNS_5ArrayIhEE@Base 3.2.1
 _ZN8casacore11StManColumn14putBlockInt64VEjjPKx@Base 3.2.1
 _ZN8casacore11StManColumn14putBlockShortVEjjPKs@Base 3.2.1
 _ZN8casacore11StManColumn14putBlockfloatVEjjPKf@Base 3.2.1
 _ZN8casacore11StManColumn14putBlockuCharVEjjPKh@Base 3.2.1
 _ZN8casacore11StManColumn14putSliceInt64VEjRKNS_6SlicerEPKNS_5ArrayIxEE@Base 3.2.1
 _ZN8casacore11StManColumn14putSliceShortVEjRKNS_6SlicerEPKNS_5ArrayIsEE@Base 3.2.1
 _ZN8casacore11StManColumn14putSlicefloatVEjRKNS_6SlicerEPKNS_5ArrayIfEE@Base 3.2.1
 _ZN8casacore11StManColumn14putSliceuCharVEjRKNS_6SlicerEPKNS_5ArrayIhEE@Base 3.2.1
 _ZN8casacore11StManColumn15getArrayColumnVEPv@Base 3.2.1
 _ZN8casacore11StManColumn15getArrayStringVEjPNS_5ArrayINS_6StringEEE@Base 3.2.1
 _ZN8casacore11StManColumn15getArraydoubleVEjPNS_5ArrayIdEE@Base 3.2.1
 _ZN8casacore11StManColumn15getArrayuShortVEjPNS_5ArrayItEE@Base 3.2.1
 _ZN8casacore11StManColumn15getBlockStringVEjjPNS_6StringE@Base 3.2.1
 _ZN8casacore11StManColumn15getBlockdoubleVEjjPd@Base 3.2.1
 _ZN8casacore11StManColumn15getBlockuShortVEjjPt@Base 3.2.1
 _ZN8casacore11StManColumn15getColumnSliceVERKNS_6SlicerEPv@Base 3.2.1
 _ZN8casacore11StManColumn15getSliceStringVEjRKNS_6SlicerEPNS_5ArrayINS_6StringEEE@Base 3.2.1
 _ZN8casacore11StManColumn15getSlicedoubleVEjRKNS_6SlicerEPNS_5ArrayIdEE@Base 3.2.1
 _ZN8casacore11StManColumn15getSliceuShortVEjRKNS_6SlicerEPNS_5ArrayItEE@Base 3.2.1
 _ZN8casacore11StManColumn15putArrayColumnVEPKv@Base 3.2.1
 _ZN8casacore11StManColumn15putArrayStringVEjPKNS_5ArrayINS_6StringEEE@Base 3.2.1
 _ZN8casacore11StManColumn15putArraydoubleVEjPKNS_5ArrayIdEE@Base 3.2.1
 _ZN8casacore11StManColumn15putArrayuShortVEjPKNS_5ArrayItEE@Base 3.2.1
 _ZN8casacore11StManColumn15putBlockStringVEjjPKNS_6StringE@Base 3.2.1
 _ZN8casacore11StManColumn15putBlockdoubleVEjjPKd@Base 3.2.1
 _ZN8casacore11StManColumn15putBlockuShortVEjjPKt@Base 3.2.1
 _ZN8casacore11StManColumn15putColumnSliceVERKNS_6SlicerEPKv@Base 3.2.1
 _ZN8casacore11StManColumn15putSliceStringVEjRKNS_6SlicerEPKNS_5ArrayINS_6StringEEE@Base 3.2.1
 _ZN8casacore11StManColumn15putSlicedoubleVEjRKNS_6SlicerEPKNS_5ArrayIdEE@Base 3.2.1
 _ZN8casacore11StManColumn15putSliceuShortVEjRKNS_6SlicerEPKNS_5ArrayItEE@Base 3.2.1
 _ZN8casacore11StManColumn16getArrayComplexVEjPNS_5ArrayISt7complexIfEEE@Base 3.2.1
 _ZN8casacore11StManColumn16getBlockComplexVEjjPSt7complexIfE@Base 3.2.1
 _ZN8casacore11StManColumn16getScalarColumnVEPv@Base 3.2.1
 _ZN8casacore11StManColumn16getSliceComplexVEjRKNS_6SlicerEPNS_5ArrayISt7complexIfEEE@Base 3.2.1
 _ZN8casacore11StManColumn16isNativeDataTypeEi@Base 3.2.1
 _ZN8casacore11StManColumn16putArrayComplexVEjPKNS_5ArrayISt7complexIfEEE@Base 3.2.1
 _ZN8casacore11StManColumn16putBlockComplexVEjjPKSt7complexIfE@Base 3.2.1
 _ZN8casacore11StManColumn16putScalarColumnVEPKv@Base 3.2.1
 _ZN8casacore11StManColumn16putSliceComplexVEjRKNS_6SlicerEPKNS_5ArrayISt7complexIfEEE@Base 3.2.1
 _ZN8casacore11StManColumn17getArrayDComplexVEjPNS_5ArrayISt7complexIdEEE@Base 3.2.1
 _ZN8casacore11StManColumn17getBlockDComplexVEjjPSt7complexIdE@Base 3.2.1
 _ZN8casacore11StManColumn17getSliceDComplexVEjRKNS_6SlicerEPNS_5ArrayISt7complexIdEEE@Base 3.2.1
 _ZN8casacore11StManColumn17putArrayDComplexVEjPKNS_5ArrayISt7complexIdEEE@Base 3.2.1
 _ZN8casacore11StManColumn17putBlockDComplexVEjjPKSt7complexIdE@Base 3.2.1
 _ZN8casacore11StManColumn17putSliceDComplexVEjRKNS_6SlicerEPKNS_5ArrayISt7complexIdEEE@Base 3.2.1
 _ZN8casacore11StManColumn18getArrayColumnIntVEPNS_5ArrayIiEE@Base 3.2.1
 _ZN8casacore11StManColumn18getColumnSliceIntVERKNS_6SlicerEPNS_5ArrayIiEE@Base 3.2.1
 _ZN8casacore11StManColumn18putArrayColumnIntVEPKNS_5ArrayIiEE@Base 3.2.1
 _ZN8casacore11StManColumn18putColumnSliceIntVERKNS_6SlicerEPKNS_5ArrayIiEE@Base 3.2.1
 _ZN8casacore11StManColumn19getArrayColumnBoolVEPNS_5ArrayIbEE@Base 3.2.1
 _ZN8casacore11StManColumn19getArrayColumnuIntVEPNS_5ArrayIjEE@Base 3.2.1
 _ZN8casacore11StManColumn19getColumnSliceBoolVERKNS_6SlicerEPNS_5ArrayIbEE@Base 3.2.1
 _ZN8casacore11StManColumn19getColumnSliceuIntVERKNS_6SlicerEPNS_5ArrayIjEE@Base 3.2.1
 _ZN8casacore11StManColumn19getScalarColumnIntVEPNS_6VectorIiEE@Base 3.2.1
 _ZN8casacore11StManColumn19putArrayColumnBoolVEPKNS_5ArrayIbEE@Base 3.2.1
 _ZN8casacore11StManColumn19putArrayColumnuIntVEPKNS_5ArrayIjEE@Base 3.2.1
 _ZN8casacore11StManColumn19putColumnSliceBoolVERKNS_6SlicerEPKNS_5ArrayIbEE@Base 3.2.1
 _ZN8casacore11StManColumn19putColumnSliceuIntVERKNS_6SlicerEPKNS_5ArrayIjEE@Base 3.2.1
 _ZN8casacore11StManColumn19putScalarColumnIntVEPKNS_6VectorIiEE@Base 3.2.1
 _ZN8casacore11StManColumn20getArrayColumnCellsVERKNS_7RefRowsEPv@Base 3.2.1
 _ZN8casacore11StManColumn20getArrayColumnInt64VEPNS_5ArrayIxEE@Base 3.2.1
 _ZN8casacore11StManColumn20getArrayColumnShortVEPNS_5ArrayIsEE@Base 3.2.1
 _ZN8casacore11StManColumn20getArrayColumnfloatVEPNS_5ArrayIfEE@Base 3.2.1
 _ZN8casacore11StManColumn20getArrayColumnuCharVEPNS_5ArrayIhEE@Base 3.2.1
 _ZN8casacore11StManColumn20getColumnSliceCellsVERKNS_7RefRowsERKNS_6SlicerEPv@Base 3.2.1
 _ZN8casacore11StManColumn20getColumnSliceInt64VERKNS_6SlicerEPNS_5ArrayIxEE@Base 3.2.1
 _ZN8casacore11StManColumn20getColumnSliceShortVERKNS_6SlicerEPNS_5ArrayIsEE@Base 3.2.1
 _ZN8casacore11StManColumn20getColumnSlicefloatVERKNS_6SlicerEPNS_5ArrayIfEE@Base 3.2.1
 _ZN8casacore11StManColumn20getColumnSliceuCharVERKNS_6SlicerEPNS_5ArrayIhEE@Base 3.2.1
 _ZN8casacore11StManColumn20getScalarColumnBoolVEPNS_6VectorIbEE@Base 3.2.1
 _ZN8casacore11StManColumn20getScalarColumnuIntVEPNS_6VectorIjEE@Base 3.2.1
 _ZN8casacore11StManColumn20putArrayColumnCellsVERKNS_7RefRowsEPKv@Base 3.2.1
 _ZN8casacore11StManColumn20putArrayColumnInt64VEPKNS_5ArrayIxEE@Base 3.2.1
 _ZN8casacore11StManColumn20putArrayColumnShortVEPKNS_5ArrayIsEE@Base 3.2.1
 _ZN8casacore11StManColumn20putArrayColumnfloatVEPKNS_5ArrayIfEE@Base 3.2.1
 _ZN8casacore11StManColumn20putArrayColumnuCharVEPKNS_5ArrayIhEE@Base 3.2.1
 _ZN8casacore11StManColumn20putColumnSliceCellsVERKNS_7RefRowsERKNS_6SlicerEPKv@Base 3.2.1
 _ZN8casacore11StManColumn20putColumnSliceInt64VERKNS_6SlicerEPKNS_5ArrayIxEE@Base 3.2.1
 _ZN8casacore11StManColumn20putColumnSliceShortVERKNS_6SlicerEPKNS_5ArrayIsEE@Base 3.2.1
 _ZN8casacore11StManColumn20putColumnSlicefloatVERKNS_6SlicerEPKNS_5ArrayIfEE@Base 3.2.1
 _ZN8casacore11StManColumn20putColumnSliceuCharVERKNS_6SlicerEPKNS_5ArrayIhEE@Base 3.2.1
 _ZN8casacore11StManColumn20putScalarColumnBoolVEPKNS_6VectorIbEE@Base 3.2.1
 _ZN8casacore11StManColumn20putScalarColumnuIntVEPKNS_6VectorIjEE@Base 3.2.1
 _ZN8casacore11StManColumn21getArrayColumnStringVEPNS_5ArrayINS_6StringEEE@Base 3.2.1
 _ZN8casacore11StManColumn21getArrayColumndoubleVEPNS_5ArrayIdEE@Base 3.2.1
 _ZN8casacore11StManColumn21getArrayColumnuShortVEPNS_5ArrayItEE@Base 3.2.1
 _ZN8casacore11StManColumn21getColumnSliceStringVERKNS_6SlicerEPNS_5ArrayINS_6StringEEE@Base 3.2.1
 _ZN8casacore11StManColumn21getColumnSlicedoubleVERKNS_6SlicerEPNS_5ArrayIdEE@Base 3.2.1
 _ZN8casacore11StManColumn21getColumnSliceuShortVERKNS_6SlicerEPNS_5ArrayItEE@Base 3.2.1
 _ZN8casacore11StManColumn21getScalarColumnCellsVERKNS_7RefRowsEPv@Base 3.2.1
 _ZN8casacore11StManColumn21getScalarColumnInt64VEPNS_6VectorIxEE@Base 3.2.1
 _ZN8casacore11StManColumn21getScalarColumnShortVEPNS_6VectorIsEE@Base 3.2.1
 _ZN8casacore11StManColumn21getScalarColumnfloatVEPNS_6VectorIfEE@Base 3.2.1
 _ZN8casacore11StManColumn21getScalarColumnuCharVEPNS_6VectorIhEE@Base 3.2.1
 _ZN8casacore11StManColumn21putArrayColumnStringVEPKNS_5ArrayINS_6StringEEE@Base 3.2.1
 _ZN8casacore11StManColumn21putArrayColumndoubleVEPKNS_5ArrayIdEE@Base 3.2.1
 _ZN8casacore11StManColumn21putArrayColumnuShortVEPKNS_5ArrayItEE@Base 3.2.1
 _ZN8casacore11StManColumn21putColumnSliceStringVERKNS_6SlicerEPKNS_5ArrayINS_6StringEEE@Base 3.2.1
 _ZN8casacore11StManColumn21putColumnSlicedoubleVERKNS_6SlicerEPKNS_5ArrayIdEE@Base 3.2.1
 _ZN8casacore11StManColumn21putColumnSliceuShortVERKNS_6SlicerEPKNS_5ArrayItEE@Base 3.2.1
 _ZN8casacore11StManColumn21putScalarColumnCellsVERKNS_7RefRowsEPKv@Base 3.2.1
 _ZN8casacore11StManColumn21putScalarColumnInt64VEPKNS_6VectorIxEE@Base 3.2.1
 _ZN8casacore11StManColumn21putScalarColumnShortVEPKNS_6VectorIsEE@Base 3.2.1
 _ZN8casacore11StManColumn21putScalarColumnfloatVEPKNS_6VectorIfEE@Base 3.2.1
 _ZN8casacore11StManColumn21putScalarColumnuCharVEPKNS_6VectorIhEE@Base 3.2.1
 _ZN8casacore11StManColumn22getArrayColumnComplexVEPNS_5ArrayISt7complexIfEEE@Base 3.2.1
 _ZN8casacore11StManColumn22getColumnSliceComplexVERKNS_6SlicerEPNS_5ArrayISt7complexIfEEE@Base 3.2.1
 _ZN8casacore11StManColumn22getScalarColumnStringVEPNS_6VectorINS_6StringEEE@Base 3.2.1
 _ZN8casacore11StManColumn22getScalarColumndoubleVEPNS_6VectorIdEE@Base 3.2.1
 _ZN8casacore11StManColumn22getScalarColumnuShortVEPNS_6VectorItEE@Base 3.2.1
 _ZN8casacore11StManColumn22putArrayColumnComplexVEPKNS_5ArrayISt7complexIfEEE@Base 3.2.1
 _ZN8casacore11StManColumn22putColumnSliceComplexVERKNS_6SlicerEPKNS_5ArrayISt7complexIfEEE@Base 3.2.1
 _ZN8casacore11StManColumn22putScalarColumnStringVEPKNS_6VectorINS_6StringEEE@Base 3.2.1
 _ZN8casacore11StManColumn22putScalarColumndoubleVEPKNS_6VectorIdEE@Base 3.2.1
 _ZN8casacore11StManColumn22putScalarColumnuShortVEPKNS_6VectorItEE@Base 3.2.1
 _ZN8casacore11StManColumn23getArrayColumnCellsIntVERKNS_7RefRowsEPNS_5ArrayIiEE@Base 3.2.1
 _ZN8casacore11StManColumn23getArrayColumnDComplexVEPNS_5ArrayISt7complexIdEEE@Base 3.2.1
 _ZN8casacore11StManColumn23getColumnSliceCellsIntVERKNS_7RefRowsERKNS_6SlicerEPNS_5ArrayIiEE@Base 3.2.1
 _ZN8casacore11StManColumn23getColumnSliceDComplexVERKNS_6SlicerEPNS_5ArrayISt7complexIdEEE@Base 3.2.1
 _ZN8casacore11StManColumn23getScalarColumnComplexVEPNS_6VectorISt7complexIfEEE@Base 3.2.1
 _ZN8casacore11StManColumn23putArrayColumnCellsIntVERKNS_7RefRowsEPKNS_5ArrayIiEE@Base 3.2.1
 _ZN8casacore11StManColumn23putArrayColumnDComplexVEPKNS_5ArrayISt7complexIdEEE@Base 3.2.1
 _ZN8casacore11StManColumn23putColumnSliceCellsIntVERKNS_7RefRowsERKNS_6SlicerEPKNS_5ArrayIiEE@Base 3.2.1
 _ZN8casacore11StManColumn23putColumnSliceDComplexVERKNS_6SlicerEPKNS_5ArrayISt7complexIdEEE@Base 3.2.1
 _ZN8casacore11StManColumn23putScalarColumnComplexVEPKNS_6VectorISt7complexIfEEE@Base 3.2.1
 _ZN8casacore11StManColumn24getArrayColumnCellsBoolVERKNS_7RefRowsEPNS_5ArrayIbEE@Base 3.2.1
 _ZN8casacore11StManColumn24getArrayColumnCellsuIntVERKNS_7RefRowsEPNS_5ArrayIjEE@Base 3.2.1
 _ZN8casacore11StManColumn24getColumnSliceCellsBoolVERKNS_7RefRowsERKNS_6SlicerEPNS_5ArrayIbEE@Base 3.2.1
 _ZN8casacore11StManColumn24getColumnSliceCellsuIntVERKNS_7RefRowsERKNS_6SlicerEPNS_5ArrayIjEE@Base 3.2.1
 _ZN8casacore11StManColumn24getScalarColumnCellsIntVERKNS_7RefRowsEPNS_6VectorIiEE@Base 3.2.1
 _ZN8casacore11StManColumn24getScalarColumnDComplexVEPNS_6VectorISt7complexIdEEE@Base 3.2.1
 _ZN8casacore11StManColumn24putArrayColumnCellsBoolVERKNS_7RefRowsEPKNS_5ArrayIbEE@Base 3.2.1
 _ZN8casacore11StManColumn24putArrayColumnCellsuIntVERKNS_7RefRowsEPKNS_5ArrayIjEE@Base 3.2.1
 _ZN8casacore11StManColumn24putColumnSliceCellsBoolVERKNS_7RefRowsERKNS_6SlicerEPKNS_5ArrayIbEE@Base 3.2.1
 _ZN8casacore11StManColumn24putColumnSliceCellsuIntVERKNS_7RefRowsERKNS_6SlicerEPKNS_5ArrayIjEE@Base 3.2.1
 _ZN8casacore11StManColumn24putScalarColumnCellsIntVERKNS_7RefRowsEPKNS_6VectorIiEE@Base 3.2.1
 _ZN8casacore11StManColumn24putScalarColumnDComplexVEPKNS_6VectorISt7complexIdEEE@Base 3.2.1
 _ZN8casacore11StManColumn25getArrayColumnCellsInt64VERKNS_7RefRowsEPNS_5ArrayIxEE@Base 3.2.1
 _ZN8casacore11StManColumn25getArrayColumnCellsShortVERKNS_7RefRowsEPNS_5ArrayIsEE@Base 3.2.1
 _ZN8casacore11StManColumn25getArrayColumnCellsfloatVERKNS_7RefRowsEPNS_5ArrayIfEE@Base 3.2.1
 _ZN8casacore11StManColumn25getArrayColumnCellsuCharVERKNS_7RefRowsEPNS_5ArrayIhEE@Base 3.2.1
 _ZN8casacore11StManColumn25getColumnSliceCellsInt64VERKNS_7RefRowsERKNS_6SlicerEPNS_5ArrayIxEE@Base 3.2.1
 _ZN8casacore11StManColumn25getColumnSliceCellsShortVERKNS_7RefRowsERKNS_6SlicerEPNS_5ArrayIsEE@Base 3.2.1
 _ZN8casacore11StManColumn25getColumnSliceCellsfloatVERKNS_7RefRowsERKNS_6SlicerEPNS_5ArrayIfEE@Base 3.2.1
 _ZN8casacore11StManColumn25getColumnSliceCellsuCharVERKNS_7RefRowsERKNS_6SlicerEPNS_5ArrayIhEE@Base 3.2.1
 _ZN8casacore11StManColumn25getScalarColumnCellsBoolVERKNS_7RefRowsEPNS_6VectorIbEE@Base 3.2.1
 _ZN8casacore11StManColumn25getScalarColumnCellsuIntVERKNS_7RefRowsEPNS_6VectorIjEE@Base 3.2.1
 _ZN8casacore11StManColumn25putArrayColumnCellsInt64VERKNS_7RefRowsEPKNS_5ArrayIxEE@Base 3.2.1
 _ZN8casacore11StManColumn25putArrayColumnCellsShortVERKNS_7RefRowsEPKNS_5ArrayIsEE@Base 3.2.1
 _ZN8casacore11StManColumn25putArrayColumnCellsfloatVERKNS_7RefRowsEPKNS_5ArrayIfEE@Base 3.2.1
 _ZN8casacore11StManColumn25putArrayColumnCellsuCharVERKNS_7RefRowsEPKNS_5ArrayIhEE@Base 3.2.1
 _ZN8casacore11StManColumn25putColumnSliceCellsInt64VERKNS_7RefRowsERKNS_6SlicerEPKNS_5ArrayIxEE@Base 3.2.1
 _ZN8casacore11StManColumn25putColumnSliceCellsShortVERKNS_7RefRowsERKNS_6SlicerEPKNS_5ArrayIsEE@Base 3.2.1
 _ZN8casacore11StManColumn25putColumnSliceCellsfloatVERKNS_7RefRowsERKNS_6SlicerEPKNS_5ArrayIfEE@Base 3.2.1
 _ZN8casacore11StManColumn25putColumnSliceCellsuCharVERKNS_7RefRowsERKNS_6SlicerEPKNS_5ArrayIhEE@Base 3.2.1
 _ZN8casacore11StManColumn25putScalarColumnCellsBoolVERKNS_7RefRowsEPKNS_6VectorIbEE@Base 3.2.1
 _ZN8casacore11StManColumn25putScalarColumnCellsuIntVERKNS_7RefRowsEPKNS_6VectorIjEE@Base 3.2.1
 _ZN8casacore11StManColumn26getArrayColumnCellsStringVERKNS_7RefRowsEPNS_5ArrayINS_6StringEEE@Base 3.2.1
 _ZN8casacore11StManColumn26getArrayColumnCellsdoubleVERKNS_7RefRowsEPNS_5ArrayIdEE@Base 3.2.1
 _ZN8casacore11StManColumn26getArrayColumnCellsuShortVERKNS_7RefRowsEPNS_5ArrayItEE@Base 3.2.1
 _ZN8casacore11StManColumn26getColumnSliceCellsStringVERKNS_7RefRowsERKNS_6SlicerEPNS_5ArrayINS_6StringEEE@Base 3.2.1
 _ZN8casacore11StManColumn26getColumnSliceCellsdoubleVERKNS_7RefRowsERKNS_6SlicerEPNS_5ArrayIdEE@Base 3.2.1
 _ZN8casacore11StManColumn26getColumnSliceCellsuShortVERKNS_7RefRowsERKNS_6SlicerEPNS_5ArrayItEE@Base 3.2.1
 _ZN8casacore11StManColumn26getScalarColumnCellsInt64VERKNS_7RefRowsEPNS_6VectorIxEE@Base 3.2.1
 _ZN8casacore11StManColumn26getScalarColumnCellsShortVERKNS_7RefRowsEPNS_6VectorIsEE@Base 3.2.1
 _ZN8casacore11StManColumn26getScalarColumnCellsfloatVERKNS_7RefRowsEPNS_6VectorIfEE@Base 3.2.1
 _ZN8casacore11StManColumn26getScalarColumnCellsuCharVERKNS_7RefRowsEPNS_6VectorIhEE@Base 3.2.1
 _ZN8casacore11StManColumn26putArrayColumnCellsStringVERKNS_7RefRowsEPKNS_5ArrayINS_6StringEEE@Base 3.2.1
 _ZN8casacore11StManColumn26putArrayColumnCellsdoubleVERKNS_7RefRowsEPKNS_5ArrayIdEE@Base 3.2.1
 _ZN8casacore11StManColumn26putArrayColumnCellsuShortVERKNS_7RefRowsEPKNS_5ArrayItEE@Base 3.2.1
 _ZN8casacore11StManColumn26putColumnSliceCellsStringVERKNS_7RefRowsERKNS_6SlicerEPKNS_5ArrayINS_6StringEEE@Base 3.2.1
 _ZN8casacore11StManColumn26putColumnSliceCellsdoubleVERKNS_7RefRowsERKNS_6SlicerEPKNS_5ArrayIdEE@Base 3.2.1
 _ZN8casacore11StManColumn26putColumnSliceCellsuShortVERKNS_7RefRowsERKNS_6SlicerEPKNS_5ArrayItEE@Base 3.2.1
 _ZN8casacore11StManColumn26putScalarColumnCellsInt64VERKNS_7RefRowsEPKNS_6VectorIxEE@Base 3.2.1
 _ZN8casacore11StManColumn26putScalarColumnCellsShortVERKNS_7RefRowsEPKNS_6VectorIsEE@Base 3.2.1
 _ZN8casacore11StManColumn26putScalarColumnCellsfloatVERKNS_7RefRowsEPKNS_6VectorIfEE@Base 3.2.1
 _ZN8casacore11StManColumn26putScalarColumnCellsuCharVERKNS_7RefRowsEPKNS_6VectorIhEE@Base 3.2.1
 _ZN8casacore11StManColumn27getArrayColumnCellsComplexVERKNS_7RefRowsEPNS_5ArrayISt7complexIfEEE@Base 3.2.1
 _ZN8casacore11StManColumn27getColumnSliceCellsComplexVERKNS_7RefRowsERKNS_6SlicerEPNS_5ArrayISt7complexIfEEE@Base 3.2.1
 _ZN8casacore11StManColumn27getScalarColumnCellsStringVERKNS_7RefRowsEPNS_6VectorINS_6StringEEE@Base 3.2.1
 _ZN8casacore11StManColumn27getScalarColumnCellsdoubleVERKNS_7RefRowsEPNS_6VectorIdEE@Base 3.2.1
 _ZN8casacore11StManColumn27getScalarColumnCellsuShortVERKNS_7RefRowsEPNS_6VectorItEE@Base 3.2.1
 _ZN8casacore11StManColumn27putArrayColumnCellsComplexVERKNS_7RefRowsEPKNS_5ArrayISt7complexIfEEE@Base 3.2.1
 _ZN8casacore11StManColumn27putColumnSliceCellsComplexVERKNS_7RefRowsERKNS_6SlicerEPKNS_5ArrayISt7complexIfEEE@Base 3.2.1
 _ZN8casacore11StManColumn27putScalarColumnCellsStringVERKNS_7RefRowsEPKNS_6VectorINS_6StringEEE@Base 3.2.1
 _ZN8casacore11StManColumn27putScalarColumnCellsdoubleVERKNS_7RefRowsEPKNS_6VectorIdEE@Base 3.2.1
 _ZN8casacore11StManColumn27putScalarColumnCellsuShortVERKNS_7RefRowsEPKNS_6VectorItEE@Base 3.2.1
 _ZN8casacore11StManColumn28getArrayColumnCellsDComplexVERKNS_7RefRowsEPNS_5ArrayISt7complexIdEEE@Base 3.2.1
 _ZN8casacore11StManColumn28getColumnSliceCellsDComplexVERKNS_7RefRowsERKNS_6SlicerEPNS_5ArrayISt7complexIdEEE@Base 3.2.1
 _ZN8casacore11StManColumn28getScalarColumnCellsComplexVERKNS_7RefRowsEPNS_6VectorISt7complexIfEEE@Base 3.2.1
 _ZN8casacore11StManColumn28putArrayColumnCellsDComplexVERKNS_7RefRowsEPKNS_5ArrayISt7complexIdEEE@Base 3.2.1
 _ZN8casacore11StManColumn28putColumnSliceCellsDComplexVERKNS_7RefRowsERKNS_6SlicerEPKNS_5ArrayISt7complexIdEEE@Base 3.2.1
 _ZN8casacore11StManColumn28putScalarColumnCellsComplexVERKNS_7RefRowsEPKNS_6VectorISt7complexIfEEE@Base 3.2.1
 _ZN8casacore11StManColumn29getScalarColumnCellsDComplexVERKNS_7RefRowsEPNS_6VectorISt7complexIdEEE@Base 3.2.1
 _ZN8casacore11StManColumn29putScalarColumnCellsDComplexVERKNS_7RefRowsEPKNS_6VectorISt7complexIdEEE@Base 3.2.1
 _ZN8casacore11StManColumn9getArrayVEjPv@Base 3.2.1
 _ZN8casacore11StManColumn9getBlockVEjjPv@Base 3.2.1
 _ZN8casacore11StManColumn9getSliceVEjRKNS_6SlicerEPv@Base 3.2.1
 _ZN8casacore11StManColumn9putArrayVEjPKv@Base 3.2.1
 _ZN8casacore11StManColumn9putBlockVEjjPKv@Base 3.2.1
 _ZN8casacore11StManColumn9putSliceVEjRKNS_6SlicerEPKv@Base 3.2.1
 _ZN8casacore11StManColumnC1Ei@Base 3.2.1
 _ZN8casacore11StManColumnC2Ei@Base 3.2.1
 _ZN8casacore11StManColumnD0Ev@Base 3.2.1
 _ZN8casacore11StManColumnD1Ev@Base 3.2.1
 _ZN8casacore11StManColumnD2Ev@Base 3.2.1
 _ZN8casacore11TEFMASKreplINS_6MVTimeEEENS_6MArrayIT_EERKS4_RKNS_10CountedPtrINS_16TableExprNodeRepEEERKNS_11TableExprIdEb@Base 3.2.1
 _ZN8casacore11TEFMASKreplINS_6StringEEENS_6MArrayIT_EERKS4_RKNS_10CountedPtrINS_16TableExprNodeRepEEERKNS_11TableExprIdEb@Base 3.2.1
 _ZN8casacore11TEFMASKreplISt7complexIdEEENS_6MArrayIT_EERKS5_RKNS_10CountedPtrINS_16TableExprNodeRepEEERKNS_11TableExprIdEb@Base 3.2.1
 _ZN8casacore11TEFMASKreplIbEENS_6MArrayIT_EERKS3_RKNS_10CountedPtrINS_16TableExprNodeRepEEERKNS_11TableExprIdEb@Base 3.2.1
 _ZN8casacore11TEFMASKreplIdEENS_6MArrayIT_EERKS3_RKNS_10CountedPtrINS_16TableExprNodeRepEEERKNS_11TableExprIdEb@Base 3.2.1
 _ZN8casacore11TEFMASKreplIxEENS_6MArrayIT_EERKS3_RKNS_10CountedPtrINS_16TableExprNodeRepEEERKNS_11TableExprIdEb@Base 3.2.1
 _ZN8casacore11TSMCubeBuff10flushCacheEv@Base 3.2.1
 _ZN8casacore11TSMCubeBuff11deleteCacheEv@Base 3.2.1
 _ZN8casacore11TSMCubeBuff11resyncCacheEv@Base 3.2.1
 _ZN8casacore11TSMCubeBuff12setCacheSizeERKNS_9IPositionES3_S3_S3_bb@Base 3.2.1
 _ZN8casacore11TSMCubeBuff12setCacheSizeEjbb@Base 3.2.1
 _ZN8casacore11TSMCubeBuff13accessSectionERKNS_9IPositionES3_Pcjjjb@Base 3.2.1
 _ZN8casacore11TSMCubeBuff13accessStridedERKNS_9IPositionES3_S3_Pcjjjb@Base 3.2.1
 _ZN8casacore11TSMCubeBuff6extendEjRKNS_6RecordEPKNS_9TSMColumnE@Base 3.2.1
 _ZN8casacore11TSMCubeBuff8setShapeERKNS_9IPositionES3_@Base 3.2.1
 _ZN8casacore11TSMCubeBuff9makeCacheEv@Base 3.2.1
 _ZN8casacore11TSMCubeBuffC1EPNS_10TiledStManEPNS_7TSMFileERKNS_9IPositionES7_RKNS_6RecordExj@Base 3.2.1
 _ZN8casacore11TSMCubeBuffC1EPNS_10TiledStManERNS_6AipsIOEj@Base 3.2.1
 _ZN8casacore11TSMCubeBuffC2EPNS_10TiledStManEPNS_7TSMFileERKNS_9IPositionES7_RKNS_6RecordExj@Base 3.2.1
 _ZN8casacore11TSMCubeBuffC2EPNS_10TiledStManERNS_6AipsIOEj@Base 3.2.1
 _ZN8casacore11TSMCubeBuffD0Ev@Base 3.2.1
 _ZN8casacore11TSMCubeBuffD1Ev@Base 3.2.1
 _ZN8casacore11TSMCubeBuffD2Ev@Base 3.2.1
 _ZN8casacore11TSMCubeMMap10flushCacheEv@Base 3.2.1
 _ZN8casacore11TSMCubeMMap11deleteCacheEv@Base 3.2.1
 _ZN8casacore11TSMCubeMMap11resyncCacheEv@Base 3.2.1
 _ZN8casacore11TSMCubeMMap12setCacheSizeERKNS_9IPositionES3_S3_S3_bb@Base 3.2.1
 _ZN8casacore11TSMCubeMMap12setCacheSizeEjbb@Base 3.2.1
 _ZN8casacore11TSMCubeMMap13accessSectionERKNS_9IPositionES3_Pcjjjb@Base 3.2.1
 _ZN8casacore11TSMCubeMMap13accessStridedERKNS_9IPositionES3_S3_Pcjjjb@Base 3.2.1
 _ZN8casacore11TSMCubeMMap6extendEjRKNS_6RecordEPKNS_9TSMColumnE@Base 3.2.1
 _ZN8casacore11TSMCubeMMap8setShapeERKNS_9IPositionES3_@Base 3.2.1
 _ZN8casacore11TSMCubeMMap9makeCacheEv@Base 3.2.1
 _ZN8casacore11TSMCubeMMapC1EPNS_10TiledStManEPNS_7TSMFileERKNS_9IPositionES7_RKNS_6RecordEx@Base 3.2.1
 _ZN8casacore11TSMCubeMMapC1EPNS_10TiledStManERNS_6AipsIOE@Base 3.2.1
 _ZN8casacore11TSMCubeMMapC2EPNS_10TiledStManEPNS_7TSMFileERKNS_9IPositionES7_RKNS_6RecordEx@Base 3.2.1
 _ZN8casacore11TSMCubeMMapC2EPNS_10TiledStManERNS_6AipsIOE@Base 3.2.1
 _ZN8casacore11TSMCubeMMapD0Ev@Base 3.2.1
 _ZN8casacore11TSMCubeMMapD1Ev@Base 3.2.1
 _ZN8casacore11TSMCubeMMapD2Ev@Base 3.2.1
 _ZN8casacore11TSMIdColumn10getStringVEjPNS_6StringE@Base 3.2.1
 _ZN8casacore11TSMIdColumn10getdoubleVEjPd@Base 3.2.1
 _ZN8casacore11TSMIdColumn10putStringVEjPKNS_6StringE@Base 3.2.1
 _ZN8casacore11TSMIdColumn10putdoubleVEjPKd@Base 3.2.1
 _ZN8casacore11TSMIdColumn11getComplexVEjPSt7complexIfE@Base 3.2.1
 _ZN8casacore11TSMIdColumn11putComplexVEjPKSt7complexIfE@Base 3.2.1
 _ZN8casacore11TSMIdColumn12getDComplexVEjPSt7complexIdE@Base 3.2.1
 _ZN8casacore11TSMIdColumn12putDComplexVEjPKSt7complexIdE@Base 3.2.1
 _ZN8casacore11TSMIdColumn7getIntVEjPi@Base 3.2.1
 _ZN8casacore11TSMIdColumn7putIntVEjPKi@Base 3.2.1
 _ZN8casacore11TSMIdColumn8getBoolVEjPb@Base 3.2.1
 _ZN8casacore11TSMIdColumn8getuIntVEjPj@Base 3.2.1
 _ZN8casacore11TSMIdColumn8putBoolVEjPKb@Base 3.2.1
 _ZN8casacore11TSMIdColumn8putuIntVEjPKj@Base 3.2.1
 _ZN8casacore11TSMIdColumn9getInt64VEjPx@Base 3.2.1
 _ZN8casacore11TSMIdColumn9getfloatVEjPf@Base 3.2.1
 _ZN8casacore11TSMIdColumn9putInt64VEjPKx@Base 3.2.1
 _ZN8casacore11TSMIdColumn9putfloatVEjPKf@Base 3.2.1
 _ZN8casacore11TSMIdColumnC1ERKNS_9TSMColumnE@Base 3.2.1
 _ZN8casacore11TSMIdColumnC2ERKNS_9TSMColumnE@Base 3.2.1
 _ZN8casacore11TSMIdColumnD0Ev@Base 3.2.1
 _ZN8casacore11TSMIdColumnD1Ev@Base 3.2.1
 _ZN8casacore11TSMIdColumnD2Ev@Base 3.2.1
 _ZN8casacore11TaQLNodeRep13checkDataTypeERKNS_6StringE@Base 3.2.1
 _ZN8casacore11TaQLNodeRepC1Ei@Base 3.2.1
 _ZN8casacore11TaQLNodeRepC2Ei@Base 3.2.1
 _ZN8casacore11TaQLNodeRepD0Ev@Base 3.2.1
 _ZN8casacore11TaQLNodeRepD1Ev@Base 3.2.1
 _ZN8casacore11TaQLNodeRepD2Ev@Base 3.2.1
 _ZN8casacore11TableColumn12rwKeywordSetEv@Base 3.2.1
 _ZN8casacore11TableColumn3putEjRKS0_jb@Base 3.2.1
 _ZN8casacore11TableColumn9putColumnERKS0_@Base 3.2.1
 _ZN8casacore11TableColumn9referenceERKS0_@Base 3.2.1
 _ZN8casacore11TableColumnC1ERKNS_5TableERKNS_6StringE@Base 3.2.1
 _ZN8casacore11TableColumnC1ERKNS_5TableEj@Base 3.2.1
 _ZN8casacore11TableColumnC1ERKS0_@Base 3.2.1
 _ZN8casacore11TableColumnC1Ev@Base 3.2.1
 _ZN8casacore11TableColumnC2ERKNS_5TableERKNS_6StringE@Base 3.2.1
 _ZN8casacore11TableColumnC2ERKNS_5TableEj@Base 3.2.1
 _ZN8casacore11TableColumnC2ERKS0_@Base 3.2.1
 _ZN8casacore11TableColumnC2Ev@Base 3.2.1
 _ZN8casacore11TableColumnD0Ev@Base 3.2.1
 _ZN8casacore11TableColumnD1Ev@Base 3.2.1
 _ZN8casacore11TableColumnD2Ev@Base 3.2.1
 _ZN8casacore11TableColumnaSERKS0_@Base 3.2.1
 _ZN8casacore11TableInvOptC1ERKNS_6StringES3_NS_9AipsError8CategoryE@Base 3.2.1
 _ZN8casacore11TableInvOptC2ERKNS_6StringES3_NS_9AipsError8CategoryE@Base 3.2.1
 _ZN8casacore11TableInvOptD0Ev@Base 3.2.1
 _ZN8casacore11TableInvOptD1Ev@Base 3.2.1
 _ZN8casacore11TableInvOptD2Ev@Base 3.2.1
 _ZN8casacore11TableLockerC1ERNS_5TableENS_10FileLocker8LockTypeEj@Base 3.2.1
 _ZN8casacore11TableLockerC2ERNS_5TableENS_10FileLocker8LockTypeEj@Base 3.2.1
 _ZN8casacore11TableLockerD1Ev@Base 3.2.1
 _ZN8casacore11TableLockerD2Ev@Base 3.2.1
 _ZN8casacore11TableNoFileC1ERKNS_6StringENS_9AipsError8CategoryE@Base 3.2.1
 _ZN8casacore11TableNoFileC2ERKNS_6StringENS_9AipsError8CategoryE@Base 3.2.1
 _ZN8casacore11TableNoFileD0Ev@Base 3.2.1
 _ZN8casacore11TableNoFileD1Ev@Base 3.2.1
 _ZN8casacore11TableNoFileD2Ev@Base 3.2.1
 _ZN8casacore11TableRecord10asrwRecordERKNS_13RecordFieldIdE@Base 3.2.1
 _ZN8casacore11TableRecord10fromRecordERKNS_6RecordE@Base 3.2.1
 _ZN8casacore11TableRecord10makeUniqueEv@Base 3.2.1
 _ZN8casacore11TableRecord10mergeFieldERKS0_RKNS_13RecordFieldIdENS_15RecordInterface14DuplicatesFlagE@Base 3.2.1
 _ZN8casacore11TableRecord10setCommentERKNS_13RecordFieldIdERKNS_6StringE@Base 3.2.1
 _ZN8casacore11TableRecord11defineTableERKNS_13RecordFieldIdERKNS_5TableENS_15RecordInterface10RecordTypeE@Base 3.2.1
 _ZN8casacore11TableRecord11removeFieldERKNS_13RecordFieldIdE@Base 3.2.1
 _ZN8casacore11TableRecord11renameFieldERKNS_6StringERKNS_13RecordFieldIdE@Base 3.2.1
 _ZN8casacore11TableRecord11restructureERKNS_10RecordDescEb@Base 3.2.1
 _ZN8casacore11TableRecord11rwSubRecordERKNS_13RecordFieldIdE@Base 3.2.1
 _ZN8casacore11TableRecord12addDataFieldERKNS_6StringENS_8DataTypeERKNS_9IPositionEbPKv@Base 3.2.1
 _ZN8casacore11TableRecord12defineRecordERKNS_13RecordFieldIdERKNS_15RecordInterfaceENS4_10RecordTypeE@Base 3.2.1
 _ZN8casacore11TableRecord12defineRecordERKNS_13RecordFieldIdERKS0_NS_15RecordInterface10RecordTypeE@Base 3.2.1
 _ZN8casacore11TableRecord12setTableAttrERKS0_RKNS_9TableAttrE@Base 3.2.1
 _ZN8casacore11TableRecord13setRecordTypeENS_15RecordInterface10RecordTypeE@Base 3.2.1
 _ZN8casacore11TableRecord15defineDataFieldEiNS_8DataTypeEPKv@Base 3.2.1
 _ZN8casacore11TableRecord21defineFromValueHolderERKNS_13RecordFieldIdERKNS_11ValueHolderE@Base 3.2.1
 _ZN8casacore11TableRecord5mergeERKS0_NS_15RecordInterface14DuplicatesFlagE@Base 3.2.1
 _ZN8casacore11TableRecord5rwRefEv@Base 3.2.1
 _ZN8casacore11TableRecord6assignERKNS_15RecordInterfaceE@Base 3.2.1
 _ZN8casacore11TableRecord9getRecordERNS_6AipsIOERKNS_9TableAttrE@Base 3.2.1
 _ZN8casacore11TableRecordC1ENS_15RecordInterface10RecordTypeEPFbRKNS_6StringENS_8DataTypeEPKvRS3_ES8_@Base 3.2.1
 _ZN8casacore11TableRecordC1EPNS_14TableRecordRepENS_15RecordInterface10RecordTypeE@Base 3.2.1
 _ZN8casacore11TableRecordC1EPNS_14TableRecordRepERKNS_10RecordDescE@Base 3.2.1
 _ZN8casacore11TableRecordC1ERKNS_10RecordDescENS_15RecordInterface10RecordTypeEPFbRKNS_6StringENS_8DataTypeEPKvRS6_ESB_@Base 3.2.1
 _ZN8casacore11TableRecordC1ERKNS_15RecordInterfaceE@Base 3.2.1
 _ZN8casacore11TableRecordC1ERKS0_@Base 3.2.1
 _ZN8casacore11TableRecordC1Ev@Base 3.2.1
 _ZN8casacore11TableRecordC2ENS_15RecordInterface10RecordTypeEPFbRKNS_6StringENS_8DataTypeEPKvRS3_ES8_@Base 3.2.1
 _ZN8casacore11TableRecordC2EPNS_14TableRecordRepENS_15RecordInterface10RecordTypeE@Base 3.2.1
 _ZN8casacore11TableRecordC2EPNS_14TableRecordRepERKNS_10RecordDescE@Base 3.2.1
 _ZN8casacore11TableRecordC2ERKNS_10RecordDescENS_15RecordInterface10RecordTypeEPFbRKNS_6StringENS_8DataTypeEPKvRS6_ESB_@Base 3.2.1
 _ZN8casacore11TableRecordC2ERKNS_15RecordInterfaceE@Base 3.2.1
 _ZN8casacore11TableRecordC2ERKS0_@Base 3.2.1
 _ZN8casacore11TableRecordC2Ev@Base 3.2.1
 _ZN8casacore11TableRecordD0Ev@Base 3.2.1
 _ZN8casacore11TableRecordD1Ev@Base 3.2.1
 _ZN8casacore11TableRecordD2Ev@Base 3.2.1
 _ZN8casacore11TableRecordaSERKS0_@Base 3.2.1
 _ZN8casacore11allFuncHelpE@Base 3.2.1
 _ZN8casacore11boxedNFalseIbEENS_6MArrayIjEERKNS1_IT_EERKNS_9IPositionE@Base 3.2.1
 _ZN8casacore11commandHelpE@Base 3.2.1
 _ZN8casacore11dopplerHelpE@Base 3.2.1
 _ZN8casacore11expandArrayINS_6MVTimeEEEvRNS_5ArrayIT_EERKS4_RKNS_9IPositionE@Base 3.2.1
 _ZN8casacore11expandArrayINS_6StringEEEvRNS_5ArrayIT_EERKS4_RKNS_9IPositionE@Base 3.2.1
 _ZN8casacore11expandArrayISt7complexIdEEEvRNS_5ArrayIT_EERKS5_RKNS_9IPositionE@Base 3.2.1
 _ZN8casacore11expandArrayIbEEvRNS_5ArrayIT_EERKS3_RKNS_9IPositionE@Base 3.2.1
 _ZN8casacore11expandArrayIdEEvRNS_5ArrayIT_EERKS3_RKNS_9IPositionE@Base 3.2.1
 _ZN8casacore11expandArrayIxEEvRNS_5ArrayIT_EERKS3_RKNS_9IPositionE@Base 3.2.1
 _ZN8casacore11objcopyctorINS_5SliceEEEvPT_PKS2_mmm@Base 3.2.1
 _ZN8casacore11objcopyctorINS_6MVTimeEEEvPT_PKS2_m@Base 3.2.1
 _ZN8casacore11objcopyctorINS_6MVTimeEEEvPT_PKS2_mmm@Base 3.2.1
 _ZN8casacore11objcopyctorINS_6VectorINS_5SliceEEEEEvPT_PKS4_m@Base 3.2.1
 _ZN8casacore11objcopyctorINS_6VectorINS_5SliceEEEEEvPT_PKS4_mmm@Base 3.2.1
 _ZN8casacore11objcopyctorIPNS_6SlicerEEEvPT_PKS3_mmm@Base 3.2.1
 _ZN8casacore11partialMaxsIdEENS_5ArrayIT_EERKS3_RKNS_9IPositionE@Base 3.2.1
 _ZN8casacore11partialMaxsIxEENS_5ArrayIT_EERKS3_RKNS_9IPositionE@Base 3.2.1
 _ZN8casacore11partialMinsIdEENS_5ArrayIT_EERKS3_RKNS_9IPositionE@Base 3.2.1
 _ZN8casacore11partialMinsIxEENS_5ArrayIT_EERKS3_RKNS_9IPositionE@Base 3.2.1
 _ZN8casacore11partialRmssIdEENS_5ArrayIT_EERKS3_RKNS_9IPositionE@Base 3.2.1
 _ZN8casacore11partialSumsISt7complexIdEEENS_5ArrayIT_EERKS5_RKNS_9IPositionE@Base 3.2.1
 _ZN8casacore11partialSumsISt7complexIdEEENS_6MArrayIT_EERKS5_RKNS_9IPositionE@Base 3.2.1
 _ZN8casacore11partialSumsIdEENS_5ArrayIT_EERKS3_RKNS_9IPositionE@Base 3.2.1
 _ZN8casacore11partialSumsIdEENS_6MArrayIT_EERKS3_RKNS_9IPositionE@Base 3.2.1
 _ZN8casacore11partialSumsIxEENS_5ArrayIT_EERKS3_RKNS_9IPositionE@Base 3.2.1
 _ZN8casacore11partialSumsIxEENS_6MArrayIT_EERKS3_RKNS_9IPositionE@Base 3.2.1
 _ZN8casacore12BFEngineMask10fromRecordERKNS_15RecordInterfaceERKNS_11TableColumnERKNS_6StringE@Base 3.2.1
 _ZN8casacore12BFEngineMask8makeMaskERKNS_11TableColumnE@Base 3.2.1
 _ZN8casacore12BFEngineMaskC1ERKNS_5ArrayINS_6StringEEEj@Base 3.2.1
 _ZN8casacore12BFEngineMaskC1Ej@Base 3.2.1
 _ZN8casacore12BFEngineMaskC2ERKNS_5ArrayINS_6StringEEEj@Base 3.2.1
 _ZN8casacore12BFEngineMaskC2Ej@Base 3.2.1
 _ZN8casacore12ColumnHolder4copyEjj@Base 3.2.1
 _ZN8casacore12ColumnHolder6attachERKNS_6StringES3_@Base 3.2.1
 _ZN8casacore12ColumnHolderC1ERNS_5TableERKS1_@Base 3.2.1
 _ZN8casacore12ColumnHolderC2ERNS_5TableERKS1_@Base 3.2.1
 _ZN8casacore12ColumnHolderD1Ev@Base 3.2.1
 _ZN8casacore12ColumnHolderD2Ev@Base 3.2.1
 _ZN8casacore12ColumnsIndex10setChangedERKNS_6StringE@Base 3.2.1
 _ZN8casacore12ColumnsIndex10setChangedEv@Base 3.2.1
 _ZN8casacore12ColumnsIndex11makeObjectsERKNS_10RecordDescE@Base 3.2.1
 _ZN8casacore12ColumnsIndex12copyKeyFieldEPviRKNS_6RecordE@Base 3.2.1
 _ZN8casacore12ColumnsIndex12getRowNumberERb@Base 3.2.1
 _ZN8casacore12ColumnsIndex12getRowNumberERbRKNS_6RecordE@Base 3.2.1
 _ZN8casacore12ColumnsIndex13deleteObjectsEv@Base 3.2.1
 _ZN8casacore12ColumnsIndex13getRowNumbersERKNS_6RecordE@Base 3.2.1
 _ZN8casacore12ColumnsIndex13getRowNumbersERKNS_6RecordES3_bb@Base 3.2.1
 _ZN8casacore12ColumnsIndex13getRowNumbersEbb@Base 3.2.1
 _ZN8casacore12ColumnsIndex13getRowNumbersEv@Base 3.2.1
 _ZN8casacore12ColumnsIndex15addColumnToDescERNS_10RecordDescERKNS_11TableColumnE@Base 3.2.1
 _ZN8casacore12ColumnsIndex4copyERKS0_@Base 3.2.1
 _ZN8casacore12ColumnsIndex6createERKNS_5TableERKNS_6VectorINS_6StringEEEPFiRKNS_5BlockIPvEESD_RKNS9_IiEEiEb@Base 3.2.1
 _ZN8casacore12ColumnsIndex7compareERKNS_5BlockIPvEES5_RKNS1_IiEEi@Base 3.2.1
 _ZN8casacore12ColumnsIndex7copyKeyENS_5BlockIPvEERKNS_6RecordE@Base 3.2.1
 _ZN8casacore12ColumnsIndex8readDataEv@Base 3.2.1
 _ZN8casacore12ColumnsIndexC1ERKNS_5TableERKNS_6StringEPFiRKNS_5BlockIPvEESB_RKNS7_IiEEiEb@Base 3.2.1
 _ZN8casacore12ColumnsIndexC1ERKNS_5TableERKNS_6VectorINS_6StringEEEPFiRKNS_5BlockIPvEESD_RKNS9_IiEEiEb@Base 3.2.1
 _ZN8casacore12ColumnsIndexC1ERKS0_@Base 3.2.1
 _ZN8casacore12ColumnsIndexC2ERKNS_5TableERKNS_6StringEPFiRKNS_5BlockIPvEESB_RKNS7_IiEEiEb@Base 3.2.1
 _ZN8casacore12ColumnsIndexC2ERKNS_5TableERKNS_6VectorINS_6StringEEEPFiRKNS_5BlockIPvEESD_RKNS9_IiEEiEb@Base 3.2.1
 _ZN8casacore12ColumnsIndexC2ERKS0_@Base 3.2.1
 _ZN8casacore12ColumnsIndexD1Ev@Base 3.2.1
 _ZN8casacore12ColumnsIndexD2Ev@Base 3.2.1
 _ZN8casacore12ColumnsIndexaSERKS0_@Base 3.2.1
 _ZN8casacore12ConcatColumn10initializeEjj@Base 3.2.1
 _ZN8casacore12ConcatColumn10keywordSetEv@Base 3.2.1
 _ZN8casacore12ConcatColumn11columnCacheEv@Base 3.2.1
 _ZN8casacore12ConcatColumn11freeIterBufERPvS2_@Base 3.2.1
 _ZN8casacore12ConcatColumn11getRowsPartEPNS_10BaseColumnERKNS_7RefRowsEPKNS_6SlicerEPNS_9ArrayBaseE@Base 3.2.1
 _ZN8casacore12ConcatColumn11putRowsPartEPNS_10BaseColumnERKNS_7RefRowsEPKNS_6SlicerEPNS_9ArrayBaseE@Base 3.2.1
 _ZN8casacore12ConcatColumn12allocIterBufERPvS2_RNS_10CountedPtrINS_11BaseCompareEEE@Base 3.2.1
 _ZN8casacore12ConcatColumn12rwKeywordSetEv@Base 3.2.1
 _ZN8casacore12ConcatColumn13getColumnPartEPNS_10BaseColumnEPKNS_6SlicerEPNS_9ArrayBaseE@Base 3.2.1
 _ZN8casacore12ConcatColumn13putColumnPartEPNS_10BaseColumnEPKNS_6SlicerEPNS_9ArrayBaseE@Base 3.2.1
 _ZN8casacore12ConcatColumn14putArrayColumnEPKv@Base 3.2.1
 _ZN8casacore12ConcatColumn14putColumnSliceERKNS_6SlicerEPKv@Base 3.2.1
 _ZN8casacore12ConcatColumn16getRowsSlicePartEPNS_10BaseColumnERKNS_7RefRowsEPKNS_6SlicerEPNS_9ArrayBaseE@Base 3.2.1
 _ZN8casacore12ConcatColumn16putRowsSlicePartEPNS_10BaseColumnERKNS_7RefRowsEPKNS_6SlicerEPNS_9ArrayBaseE@Base 3.2.1
 _ZN8casacore12ConcatColumn18getColumnSlicePartEPNS_10BaseColumnEPKNS_6SlicerEPNS_9ArrayBaseE@Base 3.2.1
 _ZN8casacore12ConcatColumn18putColumnSlicePartEPNS_10BaseColumnEPKNS_6SlicerEPNS_9ArrayBaseE@Base 3.2.1
 _ZN8casacore12ConcatColumn19putArrayColumnCellsERKNS_7RefRowsEPKv@Base 3.2.1
 _ZN8casacore12ConcatColumn19putColumnSliceCellsERKNS_7RefRowsERKNS_6SlicerEPKv@Base 3.2.1
 _ZN8casacore12ConcatColumn19setMaximumCacheSizeEj@Base 3.2.1
 _ZN8casacore12ConcatColumn3putEjPKv@Base 3.2.1
 _ZN8casacore12ConcatColumn8putSliceEjRKNS_6SlicerEPKv@Base 3.2.1
 _ZN8casacore12ConcatColumn8setShapeEjRKNS_9IPositionE@Base 3.2.1
 _ZN8casacore12ConcatColumn8setShapeEjRKNS_9IPositionES3_@Base 3.2.1
 _ZN8casacore12ConcatColumnC1EPKNS_14BaseColumnDescEPNS_11ConcatTableE@Base 3.2.1
 _ZN8casacore12ConcatColumnC2EPKNS_14BaseColumnDescEPNS_11ConcatTableE@Base 3.2.1
 _ZN8casacore12ConcatColumnD0Ev@Base 3.2.1
 _ZN8casacore12ConcatColumnD1Ev@Base 3.2.1
 _ZN8casacore12ConcatColumnD2Ev@Base 3.2.1
 _ZN8casacore12DataManErrorC1ERKNS_6StringE@Base 3.2.1
 _ZN8casacore12DataManErrorC1Ev@Base 3.2.1
 _ZN8casacore12DataManErrorC2ERKNS_6StringE@Base 3.2.1
 _ZN8casacore12DataManErrorC2Ev@Base 3.2.1
 _ZN8casacore12DataManErrorD0Ev@Base 3.2.1
 _ZN8casacore12DataManErrorD1Ev@Base 3.2.1
 _ZN8casacore12DataManErrorD2Ev@Base 3.2.1
 _ZN8casacore12DataManInvDTC1ERKNS_6StringE@Base 3.2.1
 _ZN8casacore12DataManInvDTC1Ev@Base 3.2.1
 _ZN8casacore12DataManInvDTC2ERKNS_6StringE@Base 3.2.1
 _ZN8casacore12DataManInvDTC2Ev@Base 3.2.1
 _ZN8casacore12DataManInvDTD0Ev@Base 3.2.1
 _ZN8casacore12DataManInvDTD1Ev@Base 3.2.1
 _ZN8casacore12DataManInvDTD2Ev@Base 3.2.1
 _ZN8casacore12FractileFuncIdED0Ev@Base 3.2.1
 _ZN8casacore12FractileFuncIdED1Ev@Base 3.2.1
 _ZN8casacore12FractileFuncIdED2Ev@Base 3.2.1
 _ZN8casacore12ISMIndColumn10handleCopyEjPKc@Base 3.2.1
 _ZN8casacore12ISMIndColumn11getArrayPtrEj@Base 3.2.1
 _ZN8casacore12ISMIndColumn11putArrayPtrEjRKNS_9IPositionEb@Base 3.2.1
 _ZN8casacore12ISMIndColumn12getArrayIntVEjPNS_5ArrayIiEE@Base 3.2.1
 _ZN8casacore12ISMIndColumn12getSliceIntVEjRKNS_6SlicerEPNS_5ArrayIiEE@Base 3.2.1
 _ZN8casacore12ISMIndColumn12handleRemoveEjPKc@Base 3.2.1
 _ZN8casacore12ISMIndColumn12putArrayIntVEjPKNS_5ArrayIiEE@Base 3.2.1
 _ZN8casacore12ISMIndColumn12putSliceIntVEjRKNS_6SlicerEPKNS_5ArrayIiEE@Base 3.2.1
 _ZN8casacore12ISMIndColumn13getArrayBoolVEjPNS_5ArrayIbEE@Base 3.2.1
 _ZN8casacore12ISMIndColumn13getArrayuIntVEjPNS_5ArrayIjEE@Base 3.2.1
 _ZN8casacore12ISMIndColumn13getSliceBoolVEjRKNS_6SlicerEPNS_5ArrayIbEE@Base 3.2.1
 _ZN8casacore12ISMIndColumn13getSliceuIntVEjRKNS_6SlicerEPNS_5ArrayIjEE@Base 3.2.1
 _ZN8casacore12ISMIndColumn13putArrayBoolVEjPKNS_5ArrayIbEE@Base 3.2.1
 _ZN8casacore12ISMIndColumn13putArrayuIntVEjPKNS_5ArrayIjEE@Base 3.2.1
 _ZN8casacore12ISMIndColumn13putSliceBoolVEjRKNS_6SlicerEPKNS_5ArrayIbEE@Base 3.2.1
 _ZN8casacore12ISMIndColumn13putSliceuIntVEjRKNS_6SlicerEPKNS_5ArrayIjEE@Base 3.2.1
 _ZN8casacore12ISMIndColumn14getArrayInt64VEjPNS_5ArrayIxEE@Base 3.2.1
 _ZN8casacore12ISMIndColumn14getArrayShortVEjPNS_5ArrayIsEE@Base 3.2.1
 _ZN8casacore12ISMIndColumn14getArrayfloatVEjPNS_5ArrayIfEE@Base 3.2.1
 _ZN8casacore12ISMIndColumn14getArrayuCharVEjPNS_5ArrayIhEE@Base 3.2.1
 _ZN8casacore12ISMIndColumn14getSliceInt64VEjRKNS_6SlicerEPNS_5ArrayIxEE@Base 3.2.1
 _ZN8casacore12ISMIndColumn14getSliceShortVEjRKNS_6SlicerEPNS_5ArrayIsEE@Base 3.2.1
 _ZN8casacore12ISMIndColumn14getSlicefloatVEjRKNS_6SlicerEPNS_5ArrayIfEE@Base 3.2.1
 _ZN8casacore12ISMIndColumn14getSliceuCharVEjRKNS_6SlicerEPNS_5ArrayIhEE@Base 3.2.1
 _ZN8casacore12ISMIndColumn14isShapeDefinedEj@Base 3.2.1
 _ZN8casacore12ISMIndColumn14putArrayInt64VEjPKNS_5ArrayIxEE@Base 3.2.1
 _ZN8casacore12ISMIndColumn14putArrayShortVEjPKNS_5ArrayIsEE@Base 3.2.1
 _ZN8casacore12ISMIndColumn14putArrayfloatVEjPKNS_5ArrayIfEE@Base 3.2.1
 _ZN8casacore12ISMIndColumn14putArrayuCharVEjPKNS_5ArrayIhEE@Base 3.2.1
 _ZN8casacore12ISMIndColumn14putShapeSlicedEj@Base 3.2.1
 _ZN8casacore12ISMIndColumn14putSliceInt64VEjRKNS_6SlicerEPKNS_5ArrayIxEE@Base 3.2.1
 _ZN8casacore12ISMIndColumn14putSliceShortVEjRKNS_6SlicerEPKNS_5ArrayIsEE@Base 3.2.1
 _ZN8casacore12ISMIndColumn14putSlicefloatVEjRKNS_6SlicerEPKNS_5ArrayIfEE@Base 3.2.1
 _ZN8casacore12ISMIndColumn14putSliceuCharVEjRKNS_6SlicerEPKNS_5ArrayIhEE@Base 3.2.1
 _ZN8casacore12ISMIndColumn14setShapeColumnERKNS_9IPositionE@Base 3.2.1
 _ZN8casacore12ISMIndColumn15getArrayStringVEjPNS_5ArrayINS_6StringEEE@Base 3.2.1
 _ZN8casacore12ISMIndColumn15getArraydoubleVEjPNS_5ArrayIdEE@Base 3.2.1
 _ZN8casacore12ISMIndColumn15getArrayuShortVEjPNS_5ArrayItEE@Base 3.2.1
 _ZN8casacore12ISMIndColumn15getSliceStringVEjRKNS_6SlicerEPNS_5ArrayINS_6StringEEE@Base 3.2.1
 _ZN8casacore12ISMIndColumn15getSlicedoubleVEjRKNS_6SlicerEPNS_5ArrayIdEE@Base 3.2.1
 _ZN8casacore12ISMIndColumn15getSliceuShortVEjRKNS_6SlicerEPNS_5ArrayItEE@Base 3.2.1
 _ZN8casacore12ISMIndColumn15putArrayStringVEjPKNS_5ArrayINS_6StringEEE@Base 3.2.1
 _ZN8casacore12ISMIndColumn15putArraydoubleVEjPKNS_5ArrayIdEE@Base 3.2.1
 _ZN8casacore12ISMIndColumn15putArrayuShortVEjPKNS_5ArrayItEE@Base 3.2.1
 _ZN8casacore12ISMIndColumn15putSliceStringVEjRKNS_6SlicerEPKNS_5ArrayINS_6StringEEE@Base 3.2.1
 _ZN8casacore12ISMIndColumn15putSlicedoubleVEjRKNS_6SlicerEPKNS_5ArrayIdEE@Base 3.2.1
 _ZN8casacore12ISMIndColumn15putSliceuShortVEjRKNS_6SlicerEPKNS_5ArrayItEE@Base 3.2.1
 _ZN8casacore12ISMIndColumn16getArrayComplexVEjPNS_5ArrayISt7complexIfEEE@Base 3.2.1
 _ZN8casacore12ISMIndColumn16getSliceComplexVEjRKNS_6SlicerEPNS_5ArrayISt7complexIfEEE@Base 3.2.1
 _ZN8casacore12ISMIndColumn16putArrayComplexVEjPKNS_5ArrayISt7complexIfEEE@Base 3.2.1
 _ZN8casacore12ISMIndColumn16putSliceComplexVEjRKNS_6SlicerEPKNS_5ArrayISt7complexIfEEE@Base 3.2.1
 _ZN8casacore12ISMIndColumn17getArrayDComplexVEjPNS_5ArrayISt7complexIdEEE@Base 3.2.1
 _ZN8casacore12ISMIndColumn17getSliceDComplexVEjRKNS_6SlicerEPNS_5ArrayISt7complexIdEEE@Base 3.2.1
 _ZN8casacore12ISMIndColumn17putArrayDComplexVEjPKNS_5ArrayISt7complexIdEEE@Base 3.2.1
 _ZN8casacore12ISMIndColumn17putSliceDComplexVEjRKNS_6SlicerEPKNS_5ArrayISt7complexIdEEE@Base 3.2.1
 _ZN8casacore12ISMIndColumn4initENS_6ByteIO10OpenOptionE@Base 3.2.1
 _ZN8casacore12ISMIndColumn4ndimEj@Base 3.2.1
 _ZN8casacore12ISMIndColumn5clearEv@Base 3.2.1
 _ZN8casacore12ISMIndColumn5flushEjb@Base 3.2.1
 _ZN8casacore12ISMIndColumn5shapeEj@Base 3.2.1
 _ZN8casacore12ISMIndColumn6addRowEjj@Base 3.2.1
 _ZN8casacore12ISMIndColumn6resyncEj@Base 3.2.1
 _ZN8casacore12ISMIndColumn7getFileEj@Base 3.2.1
 _ZN8casacore12ISMIndColumn8doCreateEPNS_9ISMBucketE@Base 3.2.1
 _ZN8casacore12ISMIndColumn8getShapeEj@Base 3.2.1
 _ZN8casacore12ISMIndColumn8putShapeEjRKNS_9IPositionE@Base 3.2.1
 _ZN8casacore12ISMIndColumn8reopenRWEv@Base 3.2.1
 _ZN8casacore12ISMIndColumn8setShapeEjRKNS_9IPositionE@Base 3.2.1
 _ZN8casacore12ISMIndColumnC1EPNS_7ISMBaseEij@Base 3.2.1
 _ZN8casacore12ISMIndColumnC2EPNS_7ISMBaseEij@Base 3.2.1
 _ZN8casacore12ISMIndColumnD0Ev@Base 3.2.1
 _ZN8casacore12ISMIndColumnD1Ev@Base 3.2.1
 _ZN8casacore12ISMIndColumnD2Ev@Base 3.2.1
 _ZN8casacore12LoggerHolder13removeParentsEv@Base 3.2.1
 _ZN8casacore12LoggerHolder5clearEv@Base 3.2.1
 _ZN8casacore12LoggerHolder5flushEv@Base 3.2.1
 _ZN8casacore12LoggerHolder6appendERKS0_@Base 3.2.1
 _ZN8casacore12LoggerHolder6resyncEv@Base 3.2.1
 _ZN8casacore12LoggerHolder6unlockEv@Base 3.2.1
 _ZN8casacore12LoggerHolder8reopenRWEv@Base 3.2.1
 _ZN8casacore12LoggerHolder9addParentERKS0_@Base 3.2.1
 _ZN8casacore12LoggerHolderC1ERKNS_6StringEb@Base 3.2.1
 _ZN8casacore12LoggerHolderC1ERKS0_@Base 3.2.1
 _ZN8casacore12LoggerHolderC1Eb@Base 3.2.1
 _ZN8casacore12LoggerHolderC2ERKNS_6StringEb@Base 3.2.1
 _ZN8casacore12LoggerHolderC2ERKS0_@Base 3.2.1
 _ZN8casacore12LoggerHolderC2Eb@Base 3.2.1
 _ZN8casacore12LoggerHolderD1Ev@Base 3.2.1
 _ZN8casacore12LoggerHolderD2Ev@Base 3.2.1
 _ZN8casacore12LoggerHolderaSERKS0_@Base 3.2.1
 _ZN8casacore12MProductFuncISt7complexIdEED0Ev@Base 3.2.1
 _ZN8casacore12MProductFuncISt7complexIdEED1Ev@Base 3.2.1
 _ZN8casacore12MProductFuncISt7complexIdEED2Ev@Base 3.2.1
 _ZN8casacore12MProductFuncIdED0Ev@Base 3.2.1
 _ZN8casacore12MProductFuncIdED1Ev@Base 3.2.1
 _ZN8casacore12MProductFuncIdED2Ev@Base 3.2.1
 _ZN8casacore12MProductFuncIxED0Ev@Base 3.2.1
 _ZN8casacore12MProductFuncIxED1Ev@Base 3.2.1
 _ZN8casacore12MProductFuncIxED2Ev@Base 3.2.1
 _ZN8casacore12MSMDirColumn11deleteArrayEj@Base 3.2.1
 _ZN8casacore12MSMDirColumn12getArrayIntVEjPNS_5ArrayIiEE@Base 3.2.1
 _ZN8casacore12MSMDirColumn12getSliceIntVEjRKNS_6SlicerEPNS_5ArrayIiEE@Base 3.2.1
 _ZN8casacore12MSMDirColumn12putArrayIntVEjPKNS_5ArrayIiEE@Base 3.2.1
 _ZN8casacore12MSMDirColumn12putSliceIntVEjRKNS_6SlicerEPKNS_5ArrayIiEE@Base 3.2.1
 _ZN8casacore12MSMDirColumn13getArrayBoolVEjPNS_5ArrayIbEE@Base 3.2.1
 _ZN8casacore12MSMDirColumn13getArrayuIntVEjPNS_5ArrayIjEE@Base 3.2.1
 _ZN8casacore12MSMDirColumn13getSliceBoolVEjRKNS_6SlicerEPNS_5ArrayIbEE@Base 3.2.1
 _ZN8casacore12MSMDirColumn13getSliceuIntVEjRKNS_6SlicerEPNS_5ArrayIjEE@Base 3.2.1
 _ZN8casacore12MSMDirColumn13putArrayBoolVEjPKNS_5ArrayIbEE@Base 3.2.1
 _ZN8casacore12MSMDirColumn13putArrayuIntVEjPKNS_5ArrayIjEE@Base 3.2.1
 _ZN8casacore12MSMDirColumn13putSliceBoolVEjRKNS_6SlicerEPKNS_5ArrayIbEE@Base 3.2.1
 _ZN8casacore12MSMDirColumn13putSliceuIntVEjRKNS_6SlicerEPKNS_5ArrayIjEE@Base 3.2.1
 _ZN8casacore12MSMDirColumn14getArrayInt64VEjPNS_5ArrayIxEE@Base 3.2.1
 _ZN8casacore12MSMDirColumn14getArrayShortVEjPNS_5ArrayIsEE@Base 3.2.1
 _ZN8casacore12MSMDirColumn14getArrayfloatVEjPNS_5ArrayIfEE@Base 3.2.1
 _ZN8casacore12MSMDirColumn14getArrayuCharVEjPNS_5ArrayIhEE@Base 3.2.1
 _ZN8casacore12MSMDirColumn14getSliceInt64VEjRKNS_6SlicerEPNS_5ArrayIxEE@Base 3.2.1
 _ZN8casacore12MSMDirColumn14getSliceShortVEjRKNS_6SlicerEPNS_5ArrayIsEE@Base 3.2.1
 _ZN8casacore12MSMDirColumn14getSlicefloatVEjRKNS_6SlicerEPNS_5ArrayIfEE@Base 3.2.1
 _ZN8casacore12MSMDirColumn14getSliceuCharVEjRKNS_6SlicerEPNS_5ArrayIhEE@Base 3.2.1
 _ZN8casacore12MSMDirColumn14putArrayInt64VEjPKNS_5ArrayIxEE@Base 3.2.1
 _ZN8casacore12MSMDirColumn14putArrayShortVEjPKNS_5ArrayIsEE@Base 3.2.1
 _ZN8casacore12MSMDirColumn14putArrayfloatVEjPKNS_5ArrayIfEE@Base 3.2.1
 _ZN8casacore12MSMDirColumn14putArrayuCharVEjPKNS_5ArrayIhEE@Base 3.2.1
 _ZN8casacore12MSMDirColumn14putSliceInt64VEjRKNS_6SlicerEPKNS_5ArrayIxEE@Base 3.2.1
 _ZN8casacore12MSMDirColumn14putSliceShortVEjRKNS_6SlicerEPKNS_5ArrayIsEE@Base 3.2.1
 _ZN8casacore12MSMDirColumn14putSlicefloatVEjRKNS_6SlicerEPKNS_5ArrayIfEE@Base 3.2.1
 _ZN8casacore12MSMDirColumn14putSliceuCharVEjRKNS_6SlicerEPKNS_5ArrayIhEE@Base 3.2.1
 _ZN8casacore12MSMDirColumn14setShapeColumnERKNS_9IPositionE@Base 3.2.1
 _ZN8casacore12MSMDirColumn15getArrayStringVEjPNS_5ArrayINS_6StringEEE@Base 3.2.1
 _ZN8casacore12MSMDirColumn15getArraydoubleVEjPNS_5ArrayIdEE@Base 3.2.1
 _ZN8casacore12MSMDirColumn15getArrayuShortVEjPNS_5ArrayItEE@Base 3.2.1
 _ZN8casacore12MSMDirColumn15getSliceStringVEjRKNS_6SlicerEPNS_5ArrayINS_6StringEEE@Base 3.2.1
 _ZN8casacore12MSMDirColumn15getSlicedoubleVEjRKNS_6SlicerEPNS_5ArrayIdEE@Base 3.2.1
 _ZN8casacore12MSMDirColumn15getSliceuShortVEjRKNS_6SlicerEPNS_5ArrayItEE@Base 3.2.1
 _ZN8casacore12MSMDirColumn15putArrayStringVEjPKNS_5ArrayINS_6StringEEE@Base 3.2.1
 _ZN8casacore12MSMDirColumn15putArraydoubleVEjPKNS_5ArrayIdEE@Base 3.2.1
 _ZN8casacore12MSMDirColumn15putArrayuShortVEjPKNS_5ArrayItEE@Base 3.2.1
 _ZN8casacore12MSMDirColumn15putSliceStringVEjRKNS_6SlicerEPKNS_5ArrayINS_6StringEEE@Base 3.2.1
 _ZN8casacore12MSMDirColumn15putSlicedoubleVEjRKNS_6SlicerEPKNS_5ArrayIdEE@Base 3.2.1
 _ZN8casacore12MSMDirColumn15putSliceuShortVEjRKNS_6SlicerEPKNS_5ArrayItEE@Base 3.2.1
 _ZN8casacore12MSMDirColumn16getArrayComplexVEjPNS_5ArrayISt7complexIfEEE@Base 3.2.1
 _ZN8casacore12MSMDirColumn16getSliceComplexVEjRKNS_6SlicerEPNS_5ArrayISt7complexIfEEE@Base 3.2.1
 _ZN8casacore12MSMDirColumn16putArrayComplexVEjPKNS_5ArrayISt7complexIfEEE@Base 3.2.1
 _ZN8casacore12MSMDirColumn16putSliceComplexVEjRKNS_6SlicerEPKNS_5ArrayISt7complexIfEEE@Base 3.2.1
 _ZN8casacore12MSMDirColumn17getArrayDComplexVEjPNS_5ArrayISt7complexIdEEE@Base 3.2.1
 _ZN8casacore12MSMDirColumn17getSliceDComplexVEjRKNS_6SlicerEPNS_5ArrayISt7complexIdEEE@Base 3.2.1
 _ZN8casacore12MSMDirColumn17putArrayDComplexVEjPKNS_5ArrayISt7complexIdEEE@Base 3.2.1
 _ZN8casacore12MSMDirColumn17putSliceDComplexVEjRKNS_6SlicerEPKNS_5ArrayISt7complexIdEEE@Base 3.2.1
 _ZN8casacore12MSMDirColumn18getArrayColumnIntVEPNS_5ArrayIiEE@Base 3.2.1
 _ZN8casacore12MSMDirColumn18putArrayColumnIntVEPKNS_5ArrayIiEE@Base 3.2.1
 _ZN8casacore12MSMDirColumn19getArrayColumnBoolVEPNS_5ArrayIbEE@Base 3.2.1
 _ZN8casacore12MSMDirColumn19getArrayColumnuIntVEPNS_5ArrayIjEE@Base 3.2.1
 _ZN8casacore12MSMDirColumn19putArrayColumnBoolVEPKNS_5ArrayIbEE@Base 3.2.1
 _ZN8casacore12MSMDirColumn19putArrayColumnuIntVEPKNS_5ArrayIjEE@Base 3.2.1
 _ZN8casacore12MSMDirColumn20getArrayColumnInt64VEPNS_5ArrayIxEE@Base 3.2.1
 _ZN8casacore12MSMDirColumn20getArrayColumnShortVEPNS_5ArrayIsEE@Base 3.2.1
 _ZN8casacore12MSMDirColumn20getArrayColumnfloatVEPNS_5ArrayIfEE@Base 3.2.1
 _ZN8casacore12MSMDirColumn20getArrayColumnuCharVEPNS_5ArrayIhEE@Base 3.2.1
 _ZN8casacore12MSMDirColumn20putArrayColumnInt64VEPKNS_5ArrayIxEE@Base 3.2.1
 _ZN8casacore12MSMDirColumn20putArrayColumnShortVEPKNS_5ArrayIsEE@Base 3.2.1
 _ZN8casacore12MSMDirColumn20putArrayColumnfloatVEPKNS_5ArrayIfEE@Base 3.2.1
 _ZN8casacore12MSMDirColumn20putArrayColumnuCharVEPKNS_5ArrayIhEE@Base 3.2.1
 _ZN8casacore12MSMDirColumn21getArrayColumnStringVEPNS_5ArrayINS_6StringEEE@Base 3.2.1
 _ZN8casacore12MSMDirColumn21getArrayColumndoubleVEPNS_5ArrayIdEE@Base 3.2.1
 _ZN8casacore12MSMDirColumn21getArrayColumnuShortVEPNS_5ArrayItEE@Base 3.2.1
 _ZN8casacore12MSMDirColumn21putArrayColumnStringVEPKNS_5ArrayINS_6StringEEE@Base 3.2.1
 _ZN8casacore12MSMDirColumn21putArrayColumndoubleVEPKNS_5ArrayIdEE@Base 3.2.1
 _ZN8casacore12MSMDirColumn21putArrayColumnuShortVEPKNS_5ArrayItEE@Base 3.2.1
 _ZN8casacore12MSMDirColumn22getArrayColumnComplexVEPNS_5ArrayISt7complexIfEEE@Base 3.2.1
 _ZN8casacore12MSMDirColumn22putArrayColumnComplexVEPKNS_5ArrayISt7complexIfEEE@Base 3.2.1
 _ZN8casacore12MSMDirColumn23getArrayColumnDComplexVEPNS_5ArrayISt7complexIdEEE@Base 3.2.1
 _ZN8casacore12MSMDirColumn23putArrayColumnDComplexVEPKNS_5ArrayISt7complexIdEEE@Base 3.2.1
 _ZN8casacore12MSMDirColumn4ndimEj@Base 3.2.1
 _ZN8casacore12MSMDirColumn5shapeEj@Base 3.2.1
 _ZN8casacore12MSMDirColumn6addRowEjj@Base 3.2.1
 _ZN8casacore12MSMDirColumn6removeEj@Base 3.2.1
 _ZN8casacore12MSMDirColumn8doCreateEj@Base 3.2.1
 _ZN8casacore12MSMDirColumnC1EPNS_7MSMBaseEi@Base 3.2.1
 _ZN8casacore12MSMDirColumnC2EPNS_7MSMBaseEi@Base 3.2.1
 _ZN8casacore12MSMDirColumnD0Ev@Base 3.2.1
 _ZN8casacore12MSMDirColumnD1Ev@Base 3.2.1
 _ZN8casacore12MSMDirColumnD2Ev@Base 3.2.1
 _ZN8casacore12MSMIndColumn11deleteArrayEj@Base 3.2.1
 _ZN8casacore12MSMIndColumn12getArrayIntVEjPNS_5ArrayIiEE@Base 3.2.1
 _ZN8casacore12MSMIndColumn12getSliceIntVEjRKNS_6SlicerEPNS_5ArrayIiEE@Base 3.2.1
 _ZN8casacore12MSMIndColumn12putArrayIntVEjPKNS_5ArrayIiEE@Base 3.2.1
 _ZN8casacore12MSMIndColumn12putSliceIntVEjRKNS_6SlicerEPKNS_5ArrayIiEE@Base 3.2.1
 _ZN8casacore12MSMIndColumn13getArrayBoolVEjPNS_5ArrayIbEE@Base 3.2.1
 _ZN8casacore12MSMIndColumn13getArrayuIntVEjPNS_5ArrayIjEE@Base 3.2.1
 _ZN8casacore12MSMIndColumn13getSliceBoolVEjRKNS_6SlicerEPNS_5ArrayIbEE@Base 3.2.1
 _ZN8casacore12MSMIndColumn13getSliceuIntVEjRKNS_6SlicerEPNS_5ArrayIjEE@Base 3.2.1
 _ZN8casacore12MSMIndColumn13putArrayBoolVEjPKNS_5ArrayIbEE@Base 3.2.1
 _ZN8casacore12MSMIndColumn13putArrayuIntVEjPKNS_5ArrayIjEE@Base 3.2.1
 _ZN8casacore12MSMIndColumn13putSliceBoolVEjRKNS_6SlicerEPKNS_5ArrayIbEE@Base 3.2.1
 _ZN8casacore12MSMIndColumn13putSliceuIntVEjRKNS_6SlicerEPKNS_5ArrayIjEE@Base 3.2.1
 _ZN8casacore12MSMIndColumn14getArrayInt64VEjPNS_5ArrayIxEE@Base 3.2.1
 _ZN8casacore12MSMIndColumn14getArrayShortVEjPNS_5ArrayIsEE@Base 3.2.1
 _ZN8casacore12MSMIndColumn14getArrayfloatVEjPNS_5ArrayIfEE@Base 3.2.1
 _ZN8casacore12MSMIndColumn14getArrayuCharVEjPNS_5ArrayIhEE@Base 3.2.1
 _ZN8casacore12MSMIndColumn14getSliceInt64VEjRKNS_6SlicerEPNS_5ArrayIxEE@Base 3.2.1
 _ZN8casacore12MSMIndColumn14getSliceShortVEjRKNS_6SlicerEPNS_5ArrayIsEE@Base 3.2.1
 _ZN8casacore12MSMIndColumn14getSlicefloatVEjRKNS_6SlicerEPNS_5ArrayIfEE@Base 3.2.1
 _ZN8casacore12MSMIndColumn14getSliceuCharVEjRKNS_6SlicerEPNS_5ArrayIhEE@Base 3.2.1
 _ZN8casacore12MSMIndColumn14isShapeDefinedEj@Base 3.2.1
 _ZN8casacore12MSMIndColumn14putArrayInt64VEjPKNS_5ArrayIxEE@Base 3.2.1
 _ZN8casacore12MSMIndColumn14putArrayShortVEjPKNS_5ArrayIsEE@Base 3.2.1
 _ZN8casacore12MSMIndColumn14putArrayfloatVEjPKNS_5ArrayIfEE@Base 3.2.1
 _ZN8casacore12MSMIndColumn14putArrayuCharVEjPKNS_5ArrayIhEE@Base 3.2.1
 _ZN8casacore12MSMIndColumn14putSliceInt64VEjRKNS_6SlicerEPKNS_5ArrayIxEE@Base 3.2.1
 _ZN8casacore12MSMIndColumn14putSliceShortVEjRKNS_6SlicerEPKNS_5ArrayIsEE@Base 3.2.1
 _ZN8casacore12MSMIndColumn14putSlicefloatVEjRKNS_6SlicerEPKNS_5ArrayIfEE@Base 3.2.1
 _ZN8casacore12MSMIndColumn14putSliceuCharVEjRKNS_6SlicerEPKNS_5ArrayIhEE@Base 3.2.1
 _ZN8casacore12MSMIndColumn14setShapeColumnERKNS_9IPositionE@Base 3.2.1
 _ZN8casacore12MSMIndColumn15getArrayStringVEjPNS_5ArrayINS_6StringEEE@Base 3.2.1
 _ZN8casacore12MSMIndColumn15getArraydoubleVEjPNS_5ArrayIdEE@Base 3.2.1
 _ZN8casacore12MSMIndColumn15getArrayuShortVEjPNS_5ArrayItEE@Base 3.2.1
 _ZN8casacore12MSMIndColumn15getSliceStringVEjRKNS_6SlicerEPNS_5ArrayINS_6StringEEE@Base 3.2.1
 _ZN8casacore12MSMIndColumn15getSlicedoubleVEjRKNS_6SlicerEPNS_5ArrayIdEE@Base 3.2.1
 _ZN8casacore12MSMIndColumn15getSliceuShortVEjRKNS_6SlicerEPNS_5ArrayItEE@Base 3.2.1
 _ZN8casacore12MSMIndColumn15putArrayStringVEjPKNS_5ArrayINS_6StringEEE@Base 3.2.1
 _ZN8casacore12MSMIndColumn15putArraydoubleVEjPKNS_5ArrayIdEE@Base 3.2.1
 _ZN8casacore12MSMIndColumn15putArrayuShortVEjPKNS_5ArrayItEE@Base 3.2.1
 _ZN8casacore12MSMIndColumn15putSliceStringVEjRKNS_6SlicerEPKNS_5ArrayINS_6StringEEE@Base 3.2.1
 _ZN8casacore12MSMIndColumn15putSlicedoubleVEjRKNS_6SlicerEPKNS_5ArrayIdEE@Base 3.2.1
 _ZN8casacore12MSMIndColumn15putSliceuShortVEjRKNS_6SlicerEPKNS_5ArrayItEE@Base 3.2.1
 _ZN8casacore12MSMIndColumn16getArrayComplexVEjPNS_5ArrayISt7complexIfEEE@Base 3.2.1
 _ZN8casacore12MSMIndColumn16getSliceComplexVEjRKNS_6SlicerEPNS_5ArrayISt7complexIfEEE@Base 3.2.1
 _ZN8casacore12MSMIndColumn16putArrayComplexVEjPKNS_5ArrayISt7complexIfEEE@Base 3.2.1
 _ZN8casacore12MSMIndColumn16putSliceComplexVEjRKNS_6SlicerEPKNS_5ArrayISt7complexIfEEE@Base 3.2.1
 _ZN8casacore12MSMIndColumn17getArrayDComplexVEjPNS_5ArrayISt7complexIdEEE@Base 3.2.1
 _ZN8casacore12MSMIndColumn17getSliceDComplexVEjRKNS_6SlicerEPNS_5ArrayISt7complexIdEEE@Base 3.2.1
 _ZN8casacore12MSMIndColumn17putArrayDComplexVEjPKNS_5ArrayISt7complexIdEEE@Base 3.2.1
 _ZN8casacore12MSMIndColumn17putSliceDComplexVEjRKNS_6SlicerEPKNS_5ArrayISt7complexIdEEE@Base 3.2.1
 _ZN8casacore12MSMIndColumn4Data5clearEi@Base 3.2.1
 _ZN8casacore12MSMIndColumn4DataC1ERKNS_9IPositionEi@Base 3.2.1
 _ZN8casacore12MSMIndColumn4DataC2ERKNS_9IPositionEi@Base 3.2.1
 _ZN8casacore12MSMIndColumn4DataD1Ev@Base 3.2.1
 _ZN8casacore12MSMIndColumn4DataD2Ev@Base 3.2.1
 _ZN8casacore12MSMIndColumn4ndimEj@Base 3.2.1
 _ZN8casacore12MSMIndColumn5shapeEj@Base 3.2.1
 _ZN8casacore12MSMIndColumn6removeEj@Base 3.2.1
 _ZN8casacore12MSMIndColumn8getShapeEj@Base 3.2.1
 _ZN8casacore12MSMIndColumn8setShapeEjRKNS_9IPositionE@Base 3.2.1
 _ZN8casacore12MSMIndColumnC1EPNS_7MSMBaseEi@Base 3.2.1
 _ZN8casacore12MSMIndColumnC2EPNS_7MSMBaseEi@Base 3.2.1
 _ZN8casacore12MSMIndColumnD0Ev@Base 3.2.1
 _ZN8casacore12MSMIndColumnD1Ev@Base 3.2.1
 _ZN8casacore12MSMIndColumnD2Ev@Base 3.2.1
 _ZN8casacore12SSMDirColumn12getArrayIntVEjPNS_5ArrayIiEE@Base 3.2.1
 _ZN8casacore12SSMDirColumn12putArrayIntVEjPKNS_5ArrayIiEE@Base 3.2.1
 _ZN8casacore12SSMDirColumn12setMaxLengthEj@Base 3.2.1
 _ZN8casacore12SSMDirColumn13getArrayBoolVEjPNS_5ArrayIbEE@Base 3.2.1
 _ZN8casacore12SSMDirColumn13getArrayuIntVEjPNS_5ArrayIjEE@Base 3.2.1
 _ZN8casacore12SSMDirColumn13putArrayBoolVEjPKNS_5ArrayIbEE@Base 3.2.1
 _ZN8casacore12SSMDirColumn13putArrayuIntVEjPKNS_5ArrayIjEE@Base 3.2.1
 _ZN8casacore12SSMDirColumn14getArrayInt64VEjPNS_5ArrayIxEE@Base 3.2.1
 _ZN8casacore12SSMDirColumn14getArrayShortVEjPNS_5ArrayIsEE@Base 3.2.1
 _ZN8casacore12SSMDirColumn14getArrayfloatVEjPNS_5ArrayIfEE@Base 3.2.1
 _ZN8casacore12SSMDirColumn14getArrayuCharVEjPNS_5ArrayIhEE@Base 3.2.1
 _ZN8casacore12SSMDirColumn14putArrayInt64VEjPKNS_5ArrayIxEE@Base 3.2.1
 _ZN8casacore12SSMDirColumn14putArrayShortVEjPKNS_5ArrayIsEE@Base 3.2.1
 _ZN8casacore12SSMDirColumn14putArrayfloatVEjPKNS_5ArrayIfEE@Base 3.2.1
 _ZN8casacore12SSMDirColumn14putArrayuCharVEjPKNS_5ArrayIhEE@Base 3.2.1
 _ZN8casacore12SSMDirColumn15getArrayStringVEjPNS_5ArrayINS_6StringEEE@Base 3.2.1
 _ZN8casacore12SSMDirColumn15getArraydoubleVEjPNS_5ArrayIdEE@Base 3.2.1
 _ZN8casacore12SSMDirColumn15getArrayuShortVEjPNS_5ArrayItEE@Base 3.2.1
 _ZN8casacore12SSMDirColumn15putArrayStringVEjPKNS_5ArrayINS_6StringEEE@Base 3.2.1
 _ZN8casacore12SSMDirColumn15putArraydoubleVEjPKNS_5ArrayIdEE@Base 3.2.1
 _ZN8casacore12SSMDirColumn15putArrayuShortVEjPKNS_5ArrayItEE@Base 3.2.1
 _ZN8casacore12SSMDirColumn16getArrayComplexVEjPNS_5ArrayISt7complexIfEEE@Base 3.2.1
 _ZN8casacore12SSMDirColumn16putArrayComplexVEjPKNS_5ArrayISt7complexIfEEE@Base 3.2.1
 _ZN8casacore12SSMDirColumn17getArrayDComplexVEjPNS_5ArrayISt7complexIdEEE@Base 3.2.1
 _ZN8casacore12SSMDirColumn17putArrayDComplexVEjPKNS_5ArrayISt7complexIdEEE@Base 3.2.1
 _ZN8casacore12SSMDirColumn8getValueEjPv@Base 3.2.1
 _ZN8casacore12SSMDirColumn9deleteRowEj@Base 3.2.1
 _ZN8casacore12SSMDirColumnC1EPNS_7SSMBaseEij@Base 3.2.1
 _ZN8casacore12SSMDirColumnC2EPNS_7SSMBaseEij@Base 3.2.1
 _ZN8casacore12SSMDirColumnD0Ev@Base 3.2.1
 _ZN8casacore12SSMDirColumnD1Ev@Base 3.2.1
 _ZN8casacore12SSMDirColumnD2Ev@Base 3.2.1
 _ZN8casacore12SSMIndColumn11getArrayPtrEj@Base 3.2.1
 _ZN8casacore12SSMIndColumn12getArrayIntVEjPNS_5ArrayIiEE@Base 3.2.1
 _ZN8casacore12SSMIndColumn12getSliceIntVEjRKNS_6SlicerEPNS_5ArrayIiEE@Base 3.2.1
 _ZN8casacore12SSMIndColumn12putArrayIntVEjPKNS_5ArrayIiEE@Base 3.2.1
 _ZN8casacore12SSMIndColumn12putSliceIntVEjRKNS_6SlicerEPKNS_5ArrayIiEE@Base 3.2.1
 _ZN8casacore12SSMIndColumn12setMaxLengthEj@Base 3.2.1
 _ZN8casacore12SSMIndColumn13getArrayBoolVEjPNS_5ArrayIbEE@Base 3.2.1
 _ZN8casacore12SSMIndColumn13getArrayuIntVEjPNS_5ArrayIjEE@Base 3.2.1
 _ZN8casacore12SSMIndColumn13getSliceBoolVEjRKNS_6SlicerEPNS_5ArrayIbEE@Base 3.2.1
 _ZN8casacore12SSMIndColumn13getSliceuIntVEjRKNS_6SlicerEPNS_5ArrayIjEE@Base 3.2.1
 _ZN8casacore12SSMIndColumn13putArrayBoolVEjPKNS_5ArrayIbEE@Base 3.2.1
 _ZN8casacore12SSMIndColumn13putArrayuIntVEjPKNS_5ArrayIjEE@Base 3.2.1
 _ZN8casacore12SSMIndColumn13putSliceBoolVEjRKNS_6SlicerEPKNS_5ArrayIbEE@Base 3.2.1
 _ZN8casacore12SSMIndColumn13putSliceuIntVEjRKNS_6SlicerEPKNS_5ArrayIjEE@Base 3.2.1
 _ZN8casacore12SSMIndColumn14getArrayInt64VEjPNS_5ArrayIxEE@Base 3.2.1
 _ZN8casacore12SSMIndColumn14getArrayShortVEjPNS_5ArrayIsEE@Base 3.2.1
 _ZN8casacore12SSMIndColumn14getArrayfloatVEjPNS_5ArrayIfEE@Base 3.2.1
 _ZN8casacore12SSMIndColumn14getArrayuCharVEjPNS_5ArrayIhEE@Base 3.2.1
 _ZN8casacore12SSMIndColumn14getSliceInt64VEjRKNS_6SlicerEPNS_5ArrayIxEE@Base 3.2.1
 _ZN8casacore12SSMIndColumn14getSliceShortVEjRKNS_6SlicerEPNS_5ArrayIsEE@Base 3.2.1
 _ZN8casacore12SSMIndColumn14getSlicefloatVEjRKNS_6SlicerEPNS_5ArrayIfEE@Base 3.2.1
 _ZN8casacore12SSMIndColumn14getSliceuCharVEjRKNS_6SlicerEPNS_5ArrayIhEE@Base 3.2.1
 _ZN8casacore12SSMIndColumn14isShapeDefinedEj@Base 3.2.1
 _ZN8casacore12SSMIndColumn14putArrayInt64VEjPKNS_5ArrayIxEE@Base 3.2.1
 _ZN8casacore12SSMIndColumn14putArrayShortVEjPKNS_5ArrayIsEE@Base 3.2.1
 _ZN8casacore12SSMIndColumn14putArrayfloatVEjPKNS_5ArrayIfEE@Base 3.2.1
 _ZN8casacore12SSMIndColumn14putArrayuCharVEjPKNS_5ArrayIhEE@Base 3.2.1
 _ZN8casacore12SSMIndColumn14putSliceInt64VEjRKNS_6SlicerEPKNS_5ArrayIxEE@Base 3.2.1
 _ZN8casacore12SSMIndColumn14putSliceShortVEjRKNS_6SlicerEPKNS_5ArrayIsEE@Base 3.2.1
 _ZN8casacore12SSMIndColumn14putSlicefloatVEjRKNS_6SlicerEPKNS_5ArrayIfEE@Base 3.2.1
 _ZN8casacore12SSMIndColumn14putSliceuCharVEjRKNS_6SlicerEPKNS_5ArrayIhEE@Base 3.2.1
 _ZN8casacore12SSMIndColumn14setShapeColumnERKNS_9IPositionE@Base 3.2.1
 _ZN8casacore12SSMIndColumn15getArrayStringVEjPNS_5ArrayINS_6StringEEE@Base 3.2.1
 _ZN8casacore12SSMIndColumn15getArraydoubleVEjPNS_5ArrayIdEE@Base 3.2.1
 _ZN8casacore12SSMIndColumn15getArrayuShortVEjPNS_5ArrayItEE@Base 3.2.1
 _ZN8casacore12SSMIndColumn15getSliceStringVEjRKNS_6SlicerEPNS_5ArrayINS_6StringEEE@Base 3.2.1
 _ZN8casacore12SSMIndColumn15getSlicedoubleVEjRKNS_6SlicerEPNS_5ArrayIdEE@Base 3.2.1
 _ZN8casacore12SSMIndColumn15getSliceuShortVEjRKNS_6SlicerEPNS_5ArrayItEE@Base 3.2.1
 _ZN8casacore12SSMIndColumn15putArrayStringVEjPKNS_5ArrayINS_6StringEEE@Base 3.2.1
 _ZN8casacore12SSMIndColumn15putArraydoubleVEjPKNS_5ArrayIdEE@Base 3.2.1
 _ZN8casacore12SSMIndColumn15putArrayuShortVEjPKNS_5ArrayItEE@Base 3.2.1
 _ZN8casacore12SSMIndColumn15putSliceStringVEjRKNS_6SlicerEPKNS_5ArrayINS_6StringEEE@Base 3.2.1
 _ZN8casacore12SSMIndColumn15putSlicedoubleVEjRKNS_6SlicerEPKNS_5ArrayIdEE@Base 3.2.1
 _ZN8casacore12SSMIndColumn15putSliceuShortVEjRKNS_6SlicerEPKNS_5ArrayItEE@Base 3.2.1
 _ZN8casacore12SSMIndColumn16getArrayComplexVEjPNS_5ArrayISt7complexIfEEE@Base 3.2.1
 _ZN8casacore12SSMIndColumn16getSliceComplexVEjRKNS_6SlicerEPNS_5ArrayISt7complexIfEEE@Base 3.2.1
 _ZN8casacore12SSMIndColumn16putArrayComplexVEjPKNS_5ArrayISt7complexIfEEE@Base 3.2.1
 _ZN8casacore12SSMIndColumn16putSliceComplexVEjRKNS_6SlicerEPKNS_5ArrayISt7complexIfEEE@Base 3.2.1
 _ZN8casacore12SSMIndColumn17getArrayDComplexVEjPNS_5ArrayISt7complexIdEEE@Base 3.2.1
 _ZN8casacore12SSMIndColumn17getSliceDComplexVEjRKNS_6SlicerEPNS_5ArrayISt7complexIdEEE@Base 3.2.1
 _ZN8casacore12SSMIndColumn17putArrayDComplexVEjPKNS_5ArrayISt7complexIdEEE@Base 3.2.1
 _ZN8casacore12SSMIndColumn17putSliceDComplexVEjRKNS_6SlicerEPKNS_5ArrayISt7complexIdEEE@Base 3.2.1
 _ZN8casacore12SSMIndColumn4initEv@Base 3.2.1
 _ZN8casacore12SSMIndColumn4ndimEj@Base 3.2.1
 _ZN8casacore12SSMIndColumn5shapeEj@Base 3.2.1
 _ZN8casacore12SSMIndColumn6addRowEjjb@Base 3.2.1
 _ZN8casacore12SSMIndColumn7getFileEj@Base 3.2.1
 _ZN8casacore12SSMIndColumn8doCreateEj@Base 3.2.1
 _ZN8casacore12SSMIndColumn8getShapeEj@Base 3.2.1
 _ZN8casacore12SSMIndColumn8setShapeEjRKNS_9IPositionE@Base 3.2.1
 _ZN8casacore12SSMIndColumn9deleteRowEj@Base 3.2.1
 _ZN8casacore12SSMIndColumnC1EPNS_7SSMBaseEij@Base 3.2.1
 _ZN8casacore12SSMIndColumnC2EPNS_7SSMBaseEij@Base 3.2.1
 _ZN8casacore12SSMIndColumnD0Ev@Base 3.2.1
 _ZN8casacore12SSMIndColumnD1Ev@Base 3.2.1
 _ZN8casacore12SSMIndColumnD2Ev@Base 3.2.1
 _ZN8casacore12ScalarColumnINS_11TableRecordEE3putEjRKNS_11TableColumnEjb@Base 3.2.1
 _ZN8casacore12ScalarColumnINS_11TableRecordEEC1ERKNS_5TableERKNS_6StringE@Base 3.2.1
 _ZN8casacore12ScalarColumnINS_11TableRecordEEC2ERKNS_5TableERKNS_6StringE@Base 3.2.1
 _ZN8casacore12ScalarColumnINS_11TableRecordEED0Ev@Base 3.2.1
 _ZN8casacore12ScalarColumnINS_11TableRecordEED1Ev@Base 3.2.1
 _ZN8casacore12ScalarColumnINS_11TableRecordEED2Ev@Base 3.2.1
 _ZN8casacore12ScalarColumnINS_6StringEE10fillColumnERKS1_@Base 3.2.1
 _ZN8casacore12ScalarColumnINS_6StringEE14putColumnCellsERKNS_7RefRowsERKNS_6VectorIS1_EE@Base 3.2.1
 _ZN8casacore12ScalarColumnINS_6StringEE14putColumnRangeERKNS_6SlicerERKNS_6VectorIS1_EE@Base 3.2.1
 _ZN8casacore12ScalarColumnINS_6StringEE3putEjRKNS_11TableColumnEb@Base 3.2.1
 _ZN8casacore12ScalarColumnINS_6StringEE3putEjRKNS_11TableColumnEjb@Base 3.2.1
 _ZN8casacore12ScalarColumnINS_6StringEE3putEjRKS1_@Base 3.2.1
 _ZN8casacore12ScalarColumnINS_6StringEE3putEjRKS2_@Base 3.2.1
 _ZN8casacore12ScalarColumnINS_6StringEE3putEjRKS2_j@Base 3.2.1
 _ZN8casacore12ScalarColumnINS_6StringEE6attachERKNS_5TableERKS1_@Base 3.2.1
 _ZN8casacore12ScalarColumnINS_6StringEE9putColumnERKNS_6VectorIS1_EE@Base 3.2.1
 _ZN8casacore12ScalarColumnINS_6StringEE9putColumnERKS2_@Base 3.2.1
 _ZN8casacore12ScalarColumnINS_6StringEE9referenceERKS2_@Base 3.2.1
 _ZN8casacore12ScalarColumnINS_6StringEEC1ERKNS_11TableColumnE@Base 3.2.1
 _ZN8casacore12ScalarColumnINS_6StringEEC1ERKNS_5TableERKS1_@Base 3.2.1
 _ZN8casacore12ScalarColumnINS_6StringEEC1ERKS2_@Base 3.2.1
 _ZN8casacore12ScalarColumnINS_6StringEEC1Ev@Base 3.2.1
 _ZN8casacore12ScalarColumnINS_6StringEEC2ERKNS_11TableColumnE@Base 3.2.1
 _ZN8casacore12ScalarColumnINS_6StringEEC2ERKNS_5TableERKS1_@Base 3.2.1
 _ZN8casacore12ScalarColumnINS_6StringEEC2ERKS2_@Base 3.2.1
 _ZN8casacore12ScalarColumnINS_6StringEEC2Ev@Base 3.2.1
 _ZN8casacore12ScalarColumnINS_6StringEED0Ev@Base 3.2.1
 _ZN8casacore12ScalarColumnINS_6StringEED1Ev@Base 3.2.1
 _ZN8casacore12ScalarColumnINS_6StringEED2Ev@Base 3.2.1
 _ZN8casacore12ScalarColumnINS_6StringEEaSERKS2_@Base 3.2.1
 _ZN8casacore12ScalarColumnISt7complexIdEE10fillColumnERKS2_@Base 3.2.1
 _ZN8casacore12ScalarColumnISt7complexIdEE14putColumnCellsERKNS_7RefRowsERKNS_6VectorIS2_EE@Base 3.2.1
 _ZN8casacore12ScalarColumnISt7complexIdEE14putColumnRangeERKNS_6SlicerERKNS_6VectorIS2_EE@Base 3.2.1
 _ZN8casacore12ScalarColumnISt7complexIdEE3putEjRKNS_11TableColumnEb@Base 3.2.1
 _ZN8casacore12ScalarColumnISt7complexIdEE3putEjRKNS_11TableColumnEjb@Base 3.2.1
 _ZN8casacore12ScalarColumnISt7complexIdEE3putEjRKS2_@Base 3.2.1
 _ZN8casacore12ScalarColumnISt7complexIdEE3putEjRKS3_@Base 3.2.1
 _ZN8casacore12ScalarColumnISt7complexIdEE3putEjRKS3_j@Base 3.2.1
 _ZN8casacore12ScalarColumnISt7complexIdEE6attachERKNS_5TableERKNS_6StringE@Base 3.2.1
 _ZN8casacore12ScalarColumnISt7complexIdEE9putColumnERKNS_6VectorIS2_EE@Base 3.2.1
 _ZN8casacore12ScalarColumnISt7complexIdEE9putColumnERKS3_@Base 3.2.1
 _ZN8casacore12ScalarColumnISt7complexIdEE9referenceERKS3_@Base 3.2.1
 _ZN8casacore12ScalarColumnISt7complexIdEEC1ERKNS_11TableColumnE@Base 3.2.1
 _ZN8casacore12ScalarColumnISt7complexIdEEC1ERKNS_5TableERKNS_6StringE@Base 3.2.1
 _ZN8casacore12ScalarColumnISt7complexIdEEC1ERKS3_@Base 3.2.1
 _ZN8casacore12ScalarColumnISt7complexIdEEC1Ev@Base 3.2.1
 _ZN8casacore12ScalarColumnISt7complexIdEEC2ERKNS_11TableColumnE@Base 3.2.1
 _ZN8casacore12ScalarColumnISt7complexIdEEC2ERKNS_5TableERKNS_6StringE@Base 3.2.1
 _ZN8casacore12ScalarColumnISt7complexIdEEC2ERKS3_@Base 3.2.1
 _ZN8casacore12ScalarColumnISt7complexIdEEC2Ev@Base 3.2.1
 _ZN8casacore12ScalarColumnISt7complexIdEED0Ev@Base 3.2.1
 _ZN8casacore12ScalarColumnISt7complexIdEED1Ev@Base 3.2.1
 _ZN8casacore12ScalarColumnISt7complexIdEED2Ev@Base 3.2.1
 _ZN8casacore12ScalarColumnISt7complexIdEEaSERKS3_@Base 3.2.1
 _ZN8casacore12ScalarColumnISt7complexIfEE10fillColumnERKS2_@Base 3.2.1
 _ZN8casacore12ScalarColumnISt7complexIfEE14putColumnCellsERKNS_7RefRowsERKNS_6VectorIS2_EE@Base 3.2.1
 _ZN8casacore12ScalarColumnISt7complexIfEE14putColumnRangeERKNS_6SlicerERKNS_6VectorIS2_EE@Base 3.2.1
 _ZN8casacore12ScalarColumnISt7complexIfEE3putEjRKNS_11TableColumnEb@Base 3.2.1
 _ZN8casacore12ScalarColumnISt7complexIfEE3putEjRKNS_11TableColumnEjb@Base 3.2.1
 _ZN8casacore12ScalarColumnISt7complexIfEE3putEjRKS2_@Base 3.2.1
 _ZN8casacore12ScalarColumnISt7complexIfEE3putEjRKS3_@Base 3.2.1
 _ZN8casacore12ScalarColumnISt7complexIfEE3putEjRKS3_j@Base 3.2.1
 _ZN8casacore12ScalarColumnISt7complexIfEE6attachERKNS_5TableERKNS_6StringE@Base 3.2.1
 _ZN8casacore12ScalarColumnISt7complexIfEE9putColumnERKNS_6VectorIS2_EE@Base 3.2.1
 _ZN8casacore12ScalarColumnISt7complexIfEE9putColumnERKS3_@Base 3.2.1
 _ZN8casacore12ScalarColumnISt7complexIfEE9referenceERKS3_@Base 3.2.1
 _ZN8casacore12ScalarColumnISt7complexIfEEC1ERKNS_11TableColumnE@Base 3.2.1
 _ZN8casacore12ScalarColumnISt7complexIfEEC1ERKNS_5TableERKNS_6StringE@Base 3.2.1
 _ZN8casacore12ScalarColumnISt7complexIfEEC1ERKS3_@Base 3.2.1
 _ZN8casacore12ScalarColumnISt7complexIfEEC1Ev@Base 3.2.1
 _ZN8casacore12ScalarColumnISt7complexIfEEC2ERKNS_11TableColumnE@Base 3.2.1
 _ZN8casacore12ScalarColumnISt7complexIfEEC2ERKNS_5TableERKNS_6StringE@Base 3.2.1
 _ZN8casacore12ScalarColumnISt7complexIfEEC2ERKS3_@Base 3.2.1
 _ZN8casacore12ScalarColumnISt7complexIfEEC2Ev@Base 3.2.1
 _ZN8casacore12ScalarColumnISt7complexIfEED0Ev@Base 3.2.1
 _ZN8casacore12ScalarColumnISt7complexIfEED1Ev@Base 3.2.1
 _ZN8casacore12ScalarColumnISt7complexIfEED2Ev@Base 3.2.1
 _ZN8casacore12ScalarColumnISt7complexIfEEaSERKS3_@Base 3.2.1
 _ZN8casacore12ScalarColumnIbE10fillColumnERKb@Base 3.2.1
 _ZN8casacore12ScalarColumnIbE14putColumnCellsERKNS_7RefRowsERKNS_6VectorIbEE@Base 3.2.1
 _ZN8casacore12ScalarColumnIbE14putColumnRangeERKNS_6SlicerERKNS_6VectorIbEE@Base 3.2.1
 _ZN8casacore12ScalarColumnIbE3putEjRKNS_11TableColumnEb@Base 3.2.1
 _ZN8casacore12ScalarColumnIbE3putEjRKNS_11TableColumnEjb@Base 3.2.1
 _ZN8casacore12ScalarColumnIbE3putEjRKS1_@Base 3.2.1
 _ZN8casacore12ScalarColumnIbE3putEjRKS1_j@Base 3.2.1
 _ZN8casacore12ScalarColumnIbE3putEjRKb@Base 3.2.1
 _ZN8casacore12ScalarColumnIbE6attachERKNS_5TableERKNS_6StringE@Base 3.2.1
 _ZN8casacore12ScalarColumnIbE9putColumnERKNS_6VectorIbEE@Base 3.2.1
 _ZN8casacore12ScalarColumnIbE9putColumnERKS1_@Base 3.2.1
 _ZN8casacore12ScalarColumnIbE9referenceERKS1_@Base 3.2.1
 _ZN8casacore12ScalarColumnIbEC1ERKNS_11TableColumnE@Base 3.2.1
 _ZN8casacore12ScalarColumnIbEC1ERKNS_5TableERKNS_6StringE@Base 3.2.1
 _ZN8casacore12ScalarColumnIbEC1ERKS1_@Base 3.2.1
 _ZN8casacore12ScalarColumnIbEC1Ev@Base 3.2.1
 _ZN8casacore12ScalarColumnIbEC2ERKNS_11TableColumnE@Base 3.2.1
 _ZN8casacore12ScalarColumnIbEC2ERKNS_5TableERKNS_6StringE@Base 3.2.1
 _ZN8casacore12ScalarColumnIbEC2ERKS1_@Base 3.2.1
 _ZN8casacore12ScalarColumnIbEC2Ev@Base 3.2.1
 _ZN8casacore12ScalarColumnIbED0Ev@Base 3.2.1
 _ZN8casacore12ScalarColumnIbED1Ev@Base 3.2.1
 _ZN8casacore12ScalarColumnIbED2Ev@Base 3.2.1
 _ZN8casacore12ScalarColumnIbEaSERKS1_@Base 3.2.1
 _ZN8casacore12ScalarColumnIcE10fillColumnERKc@Base 3.2.1
 _ZN8casacore12ScalarColumnIcE14putColumnCellsERKNS_7RefRowsERKNS_6VectorIcEE@Base 3.2.1
 _ZN8casacore12ScalarColumnIcE14putColumnRangeERKNS_6SlicerERKNS_6VectorIcEE@Base 3.2.1
 _ZN8casacore12ScalarColumnIcE3putEjRKNS_11TableColumnEb@Base 3.2.1
 _ZN8casacore12ScalarColumnIcE3putEjRKNS_11TableColumnEjb@Base 3.2.1
 _ZN8casacore12ScalarColumnIcE3putEjRKS1_@Base 3.2.1
 _ZN8casacore12ScalarColumnIcE3putEjRKS1_j@Base 3.2.1
 _ZN8casacore12ScalarColumnIcE3putEjRKc@Base 3.2.1
 _ZN8casacore12ScalarColumnIcE6attachERKNS_5TableERKNS_6StringE@Base 3.2.1
 _ZN8casacore12ScalarColumnIcE9putColumnERKNS_6VectorIcEE@Base 3.2.1
 _ZN8casacore12ScalarColumnIcE9putColumnERKS1_@Base 3.2.1
 _ZN8casacore12ScalarColumnIcE9referenceERKS1_@Base 3.2.1
 _ZN8casacore12ScalarColumnIcEC1ERKNS_11TableColumnE@Base 3.2.1
 _ZN8casacore12ScalarColumnIcEC1ERKNS_5TableERKNS_6StringE@Base 3.2.1
 _ZN8casacore12ScalarColumnIcEC1ERKS1_@Base 3.2.1
 _ZN8casacore12ScalarColumnIcEC1Ev@Base 3.2.1
 _ZN8casacore12ScalarColumnIcEC2ERKNS_11TableColumnE@Base 3.2.1
 _ZN8casacore12ScalarColumnIcEC2ERKNS_5TableERKNS_6StringE@Base 3.2.1
 _ZN8casacore12ScalarColumnIcEC2ERKS1_@Base 3.2.1
 _ZN8casacore12ScalarColumnIcEC2Ev@Base 3.2.1
 _ZN8casacore12ScalarColumnIcED0Ev@Base 3.2.1
 _ZN8casacore12ScalarColumnIcED1Ev@Base 3.2.1
 _ZN8casacore12ScalarColumnIcED2Ev@Base 3.2.1
 _ZN8casacore12ScalarColumnIcEaSERKS1_@Base 3.2.1
 _ZN8casacore12ScalarColumnIdE10fillColumnERKd@Base 3.2.1
 _ZN8casacore12ScalarColumnIdE14putColumnCellsERKNS_7RefRowsERKNS_6VectorIdEE@Base 3.2.1
 _ZN8casacore12ScalarColumnIdE14putColumnRangeERKNS_6SlicerERKNS_6VectorIdEE@Base 3.2.1
 _ZN8casacore12ScalarColumnIdE3putEjRKNS_11TableColumnEb@Base 3.2.1
 _ZN8casacore12ScalarColumnIdE3putEjRKNS_11TableColumnEjb@Base 3.2.1
 _ZN8casacore12ScalarColumnIdE3putEjRKS1_@Base 3.2.1
 _ZN8casacore12ScalarColumnIdE3putEjRKS1_j@Base 3.2.1
 _ZN8casacore12ScalarColumnIdE3putEjRKd@Base 3.2.1
 _ZN8casacore12ScalarColumnIdE6attachERKNS_5TableERKNS_6StringE@Base 3.2.1
 _ZN8casacore12ScalarColumnIdE9putColumnERKNS_6VectorIdEE@Base 3.2.1
 _ZN8casacore12ScalarColumnIdE9putColumnERKS1_@Base 3.2.1
 _ZN8casacore12ScalarColumnIdE9referenceERKS1_@Base 3.2.1
 _ZN8casacore12ScalarColumnIdEC1ERKNS_11TableColumnE@Base 3.2.1
 _ZN8casacore12ScalarColumnIdEC1ERKNS_5TableERKNS_6StringE@Base 3.2.1
 _ZN8casacore12ScalarColumnIdEC1ERKS1_@Base 3.2.1
 _ZN8casacore12ScalarColumnIdEC1Ev@Base 3.2.1
 _ZN8casacore12ScalarColumnIdEC2ERKNS_11TableColumnE@Base 3.2.1
 _ZN8casacore12ScalarColumnIdEC2ERKNS_5TableERKNS_6StringE@Base 3.2.1
 _ZN8casacore12ScalarColumnIdEC2ERKS1_@Base 3.2.1
 _ZN8casacore12ScalarColumnIdEC2Ev@Base 3.2.1
 _ZN8casacore12ScalarColumnIdED0Ev@Base 3.2.1
 _ZN8casacore12ScalarColumnIdED1Ev@Base 3.2.1
 _ZN8casacore12ScalarColumnIdED2Ev@Base 3.2.1
 _ZN8casacore12ScalarColumnIdEaSERKS1_@Base 3.2.1
 _ZN8casacore12ScalarColumnIfE10fillColumnERKf@Base 3.2.1
 _ZN8casacore12ScalarColumnIfE14putColumnCellsERKNS_7RefRowsERKNS_6VectorIfEE@Base 3.2.1
 _ZN8casacore12ScalarColumnIfE14putColumnRangeERKNS_6SlicerERKNS_6VectorIfEE@Base 3.2.1
 _ZN8casacore12ScalarColumnIfE3putEjRKNS_11TableColumnEb@Base 3.2.1
 _ZN8casacore12ScalarColumnIfE3putEjRKNS_11TableColumnEjb@Base 3.2.1
 _ZN8casacore12ScalarColumnIfE3putEjRKS1_@Base 3.2.1
 _ZN8casacore12ScalarColumnIfE3putEjRKS1_j@Base 3.2.1
 _ZN8casacore12ScalarColumnIfE3putEjRKf@Base 3.2.1
 _ZN8casacore12ScalarColumnIfE6attachERKNS_5TableERKNS_6StringE@Base 3.2.1
 _ZN8casacore12ScalarColumnIfE9putColumnERKNS_6VectorIfEE@Base 3.2.1
 _ZN8casacore12ScalarColumnIfE9putColumnERKS1_@Base 3.2.1
 _ZN8casacore12ScalarColumnIfE9referenceERKS1_@Base 3.2.1
 _ZN8casacore12ScalarColumnIfEC1ERKNS_11TableColumnE@Base 3.2.1
 _ZN8casacore12ScalarColumnIfEC1ERKNS_5TableERKNS_6StringE@Base 3.2.1
 _ZN8casacore12ScalarColumnIfEC1ERKS1_@Base 3.2.1
 _ZN8casacore12ScalarColumnIfEC1Ev@Base 3.2.1
 _ZN8casacore12ScalarColumnIfEC2ERKNS_11TableColumnE@Base 3.2.1
 _ZN8casacore12ScalarColumnIfEC2ERKNS_5TableERKNS_6StringE@Base 3.2.1
 _ZN8casacore12ScalarColumnIfEC2ERKS1_@Base 3.2.1
 _ZN8casacore12ScalarColumnIfEC2Ev@Base 3.2.1
 _ZN8casacore12ScalarColumnIfED0Ev@Base 3.2.1
 _ZN8casacore12ScalarColumnIfED1Ev@Base 3.2.1
 _ZN8casacore12ScalarColumnIfED2Ev@Base 3.2.1
 _ZN8casacore12ScalarColumnIfEaSERKS1_@Base 3.2.1
 _ZN8casacore12ScalarColumnIhE14putColumnCellsERKNS_7RefRowsERKNS_6VectorIhEE@Base 3.2.1
 _ZN8casacore12ScalarColumnIhE14putColumnRangeERKNS_6SlicerERKNS_6VectorIhEE@Base 3.2.1
 _ZN8casacore12ScalarColumnIhE3putEjRKNS_11TableColumnEjb@Base 3.2.1
 _ZN8casacore12ScalarColumnIhE9putColumnERKNS_6VectorIhEE@Base 3.2.1
 _ZN8casacore12ScalarColumnIhEC1ERKNS_5TableERKNS_6StringE@Base 3.2.1
 _ZN8casacore12ScalarColumnIhEC2ERKNS_5TableERKNS_6StringE@Base 3.2.1
 _ZN8casacore12ScalarColumnIhED0Ev@Base 3.2.1
 _ZN8casacore12ScalarColumnIhED1Ev@Base 3.2.1
 _ZN8casacore12ScalarColumnIhED2Ev@Base 3.2.1
 _ZN8casacore12ScalarColumnIiE10fillColumnERKi@Base 3.2.1
 _ZN8casacore12ScalarColumnIiE14putColumnCellsERKNS_7RefRowsERKNS_6VectorIiEE@Base 3.2.1
 _ZN8casacore12ScalarColumnIiE14putColumnRangeERKNS_6SlicerERKNS_6VectorIiEE@Base 3.2.1
 _ZN8casacore12ScalarColumnIiE3putEjRKNS_11TableColumnEb@Base 3.2.1
 _ZN8casacore12ScalarColumnIiE3putEjRKNS_11TableColumnEjb@Base 3.2.1
 _ZN8casacore12ScalarColumnIiE3putEjRKS1_@Base 3.2.1
 _ZN8casacore12ScalarColumnIiE3putEjRKS1_j@Base 3.2.1
 _ZN8casacore12ScalarColumnIiE3putEjRKi@Base 3.2.1
 _ZN8casacore12ScalarColumnIiE6attachERKNS_5TableERKNS_6StringE@Base 3.2.1
 _ZN8casacore12ScalarColumnIiE9putColumnERKNS_6VectorIiEE@Base 3.2.1
 _ZN8casacore12ScalarColumnIiE9putColumnERKS1_@Base 3.2.1
 _ZN8casacore12ScalarColumnIiE9referenceERKS1_@Base 3.2.1
 _ZN8casacore12ScalarColumnIiEC1ERKNS_11TableColumnE@Base 3.2.1
 _ZN8casacore12ScalarColumnIiEC1ERKNS_5TableERKNS_6StringE@Base 3.2.1
 _ZN8casacore12ScalarColumnIiEC1ERKS1_@Base 3.2.1
 _ZN8casacore12ScalarColumnIiEC1Ev@Base 3.2.1
 _ZN8casacore12ScalarColumnIiEC2ERKNS_11TableColumnE@Base 3.2.1
 _ZN8casacore12ScalarColumnIiEC2ERKNS_5TableERKNS_6StringE@Base 3.2.1
 _ZN8casacore12ScalarColumnIiEC2ERKS1_@Base 3.2.1
 _ZN8casacore12ScalarColumnIiEC2Ev@Base 3.2.1
 _ZN8casacore12ScalarColumnIiED0Ev@Base 3.2.1
 _ZN8casacore12ScalarColumnIiED1Ev@Base 3.2.1
 _ZN8casacore12ScalarColumnIiED2Ev@Base 3.2.1
 _ZN8casacore12ScalarColumnIiEaSERKS1_@Base 3.2.1
 _ZN8casacore12ScalarColumnIjE10fillColumnERKj@Base 3.2.1
 _ZN8casacore12ScalarColumnIjE14putColumnCellsERKNS_7RefRowsERKNS_6VectorIjEE@Base 3.2.1
 _ZN8casacore12ScalarColumnIjE14putColumnRangeERKNS_6SlicerERKNS_6VectorIjEE@Base 3.2.1
 _ZN8casacore12ScalarColumnIjE3putEjRKNS_11TableColumnEb@Base 3.2.1
 _ZN8casacore12ScalarColumnIjE3putEjRKNS_11TableColumnEjb@Base 3.2.1
 _ZN8casacore12ScalarColumnIjE3putEjRKS1_@Base 3.2.1
 _ZN8casacore12ScalarColumnIjE3putEjRKS1_j@Base 3.2.1
 _ZN8casacore12ScalarColumnIjE3putEjRKj@Base 3.2.1
 _ZN8casacore12ScalarColumnIjE6attachERKNS_5TableERKNS_6StringE@Base 3.2.1
 _ZN8casacore12ScalarColumnIjE9putColumnERKNS_6VectorIjEE@Base 3.2.1
 _ZN8casacore12ScalarColumnIjE9putColumnERKS1_@Base 3.2.1
 _ZN8casacore12ScalarColumnIjE9referenceERKS1_@Base 3.2.1
 _ZN8casacore12ScalarColumnIjEC1ERKNS_11TableColumnE@Base 3.2.1
 _ZN8casacore12ScalarColumnIjEC1ERKNS_5TableERKNS_6StringE@Base 3.2.1
 _ZN8casacore12ScalarColumnIjEC1ERKS1_@Base 3.2.1
 _ZN8casacore12ScalarColumnIjEC1Ev@Base 3.2.1
 _ZN8casacore12ScalarColumnIjEC2ERKNS_11TableColumnE@Base 3.2.1
 _ZN8casacore12ScalarColumnIjEC2ERKNS_5TableERKNS_6StringE@Base 3.2.1
 _ZN8casacore12ScalarColumnIjEC2ERKS1_@Base 3.2.1
 _ZN8casacore12ScalarColumnIjEC2Ev@Base 3.2.1
 _ZN8casacore12ScalarColumnIjED0Ev@Base 3.2.1
 _ZN8casacore12ScalarColumnIjED1Ev@Base 3.2.1
 _ZN8casacore12ScalarColumnIjED2Ev@Base 3.2.1
 _ZN8casacore12ScalarColumnIjEaSERKS1_@Base 3.2.1
 _ZN8casacore12ScalarColumnIsE10fillColumnERKs@Base 3.2.1
 _ZN8casacore12ScalarColumnIsE14putColumnCellsERKNS_7RefRowsERKNS_6VectorIsEE@Base 3.2.1
 _ZN8casacore12ScalarColumnIsE14putColumnRangeERKNS_6SlicerERKNS_6VectorIsEE@Base 3.2.1
 _ZN8casacore12ScalarColumnIsE3putEjRKNS_11TableColumnEb@Base 3.2.1
 _ZN8casacore12ScalarColumnIsE3putEjRKNS_11TableColumnEjb@Base 3.2.1
 _ZN8casacore12ScalarColumnIsE3putEjRKS1_@Base 3.2.1
 _ZN8casacore12ScalarColumnIsE3putEjRKS1_j@Base 3.2.1
 _ZN8casacore12ScalarColumnIsE3putEjRKs@Base 3.2.1
 _ZN8casacore12ScalarColumnIsE6attachERKNS_5TableERKNS_6StringE@Base 3.2.1
 _ZN8casacore12ScalarColumnIsE9putColumnERKNS_6VectorIsEE@Base 3.2.1
 _ZN8casacore12ScalarColumnIsE9putColumnERKS1_@Base 3.2.1
 _ZN8casacore12ScalarColumnIsE9referenceERKS1_@Base 3.2.1
 _ZN8casacore12ScalarColumnIsEC1ERKNS_11TableColumnE@Base 3.2.1
 _ZN8casacore12ScalarColumnIsEC1ERKNS_5TableERKNS_6StringE@Base 3.2.1
 _ZN8casacore12ScalarColumnIsEC1ERKS1_@Base 3.2.1
 _ZN8casacore12ScalarColumnIsEC1Ev@Base 3.2.1
 _ZN8casacore12ScalarColumnIsEC2ERKNS_11TableColumnE@Base 3.2.1
 _ZN8casacore12ScalarColumnIsEC2ERKNS_5TableERKNS_6StringE@Base 3.2.1
 _ZN8casacore12ScalarColumnIsEC2ERKS1_@Base 3.2.1
 _ZN8casacore12ScalarColumnIsEC2Ev@Base 3.2.1
 _ZN8casacore12ScalarColumnIsED0Ev@Base 3.2.1
 _ZN8casacore12ScalarColumnIsED1Ev@Base 3.2.1
 _ZN8casacore12ScalarColumnIsED2Ev@Base 3.2.1
 _ZN8casacore12ScalarColumnIsEaSERKS1_@Base 3.2.1
 _ZN8casacore12ScalarColumnItE10fillColumnERKt@Base 3.2.1
 _ZN8casacore12ScalarColumnItE14putColumnCellsERKNS_7RefRowsERKNS_6VectorItEE@Base 3.2.1
 _ZN8casacore12ScalarColumnItE14putColumnRangeERKNS_6SlicerERKNS_6VectorItEE@Base 3.2.1
 _ZN8casacore12ScalarColumnItE3putEjRKNS_11TableColumnEb@Base 3.2.1
 _ZN8casacore12ScalarColumnItE3putEjRKNS_11TableColumnEjb@Base 3.2.1
 _ZN8casacore12ScalarColumnItE3putEjRKS1_@Base 3.2.1
 _ZN8casacore12ScalarColumnItE3putEjRKS1_j@Base 3.2.1
 _ZN8casacore12ScalarColumnItE3putEjRKt@Base 3.2.1
 _ZN8casacore12ScalarColumnItE6attachERKNS_5TableERKNS_6StringE@Base 3.2.1
 _ZN8casacore12ScalarColumnItE9putColumnERKNS_6VectorItEE@Base 3.2.1
 _ZN8casacore12ScalarColumnItE9putColumnERKS1_@Base 3.2.1
 _ZN8casacore12ScalarColumnItE9referenceERKS1_@Base 3.2.1
 _ZN8casacore12ScalarColumnItEC1ERKNS_11TableColumnE@Base 3.2.1
 _ZN8casacore12ScalarColumnItEC1ERKNS_5TableERKNS_6StringE@Base 3.2.1
 _ZN8casacore12ScalarColumnItEC1ERKS1_@Base 3.2.1
 _ZN8casacore12ScalarColumnItEC1Ev@Base 3.2.1
 _ZN8casacore12ScalarColumnItEC2ERKNS_11TableColumnE@Base 3.2.1
 _ZN8casacore12ScalarColumnItEC2ERKNS_5TableERKNS_6StringE@Base 3.2.1
 _ZN8casacore12ScalarColumnItEC2ERKS1_@Base 3.2.1
 _ZN8casacore12ScalarColumnItEC2Ev@Base 3.2.1
 _ZN8casacore12ScalarColumnItED0Ev@Base 3.2.1
 _ZN8casacore12ScalarColumnItED1Ev@Base 3.2.1
 _ZN8casacore12ScalarColumnItED2Ev@Base 3.2.1
 _ZN8casacore12ScalarColumnItEaSERKS1_@Base 3.2.1
 _ZN8casacore12ScalarColumnIxE10fillColumnERKx@Base 3.2.1
 _ZN8casacore12ScalarColumnIxE14putColumnCellsERKNS_7RefRowsERKNS_6VectorIxEE@Base 3.2.1
 _ZN8casacore12ScalarColumnIxE14putColumnRangeERKNS_6SlicerERKNS_6VectorIxEE@Base 3.2.1
 _ZN8casacore12ScalarColumnIxE3putEjRKNS_11TableColumnEb@Base 3.2.1
 _ZN8casacore12ScalarColumnIxE3putEjRKNS_11TableColumnEjb@Base 3.2.1
 _ZN8casacore12ScalarColumnIxE3putEjRKS1_@Base 3.2.1
 _ZN8casacore12ScalarColumnIxE3putEjRKS1_j@Base 3.2.1
 _ZN8casacore12ScalarColumnIxE3putEjRKx@Base 3.2.1
 _ZN8casacore12ScalarColumnIxE6attachERKNS_5TableERKNS_6StringE@Base 3.2.1
 _ZN8casacore12ScalarColumnIxE9putColumnERKNS_6VectorIxEE@Base 3.2.1
 _ZN8casacore12ScalarColumnIxE9putColumnERKS1_@Base 3.2.1
 _ZN8casacore12ScalarColumnIxE9referenceERKS1_@Base 3.2.1
 _ZN8casacore12ScalarColumnIxEC1ERKNS_11TableColumnE@Base 3.2.1
 _ZN8casacore12ScalarColumnIxEC1ERKNS_5TableERKNS_6StringE@Base 3.2.1
 _ZN8casacore12ScalarColumnIxEC1ERKS1_@Base 3.2.1
 _ZN8casacore12ScalarColumnIxEC1Ev@Base 3.2.1
 _ZN8casacore12ScalarColumnIxEC2ERKNS_11TableColumnE@Base 3.2.1
 _ZN8casacore12ScalarColumnIxEC2ERKNS_5TableERKNS_6StringE@Base 3.2.1
 _ZN8casacore12ScalarColumnIxEC2ERKS1_@Base 3.2.1
 _ZN8casacore12ScalarColumnIxEC2Ev@Base 3.2.1
 _ZN8casacore12ScalarColumnIxED0Ev@Base 3.2.1
 _ZN8casacore12ScalarColumnIxED1Ev@Base 3.2.1
 _ZN8casacore12ScalarColumnIxED2Ev@Base 3.2.1
 _ZN8casacore12ScalarColumnIxEaSERKS1_@Base 3.2.1
 _ZN8casacore12SubTableDesc13readTableDescEv@Base 3.2.1
 _ZN8casacore12SubTableDesc7getDescERNS_6AipsIOE@Base 3.2.1
 _ZN8casacore12SubTableDesc8makeDescERKNS_6StringE@Base 3.2.1
 _ZN8casacore12SubTableDesc9handleAddERNS_13ColumnDescSetE@Base 3.2.1
 _ZN8casacore12SubTableDesc9tableDescEv@Base 3.2.1
 _ZN8casacore12SubTableDescC1ERKNS_6StringES3_PNS_9TableDescEi@Base 3.2.1
 _ZN8casacore12SubTableDescC1ERKNS_6StringES3_RKNS_9TableDescEi@Base 3.2.1
 _ZN8casacore12SubTableDescC1ERKNS_6StringES3_S3_i@Base 3.2.1
 _ZN8casacore12SubTableDescC1ERKS0_@Base 3.2.1
 _ZN8casacore12SubTableDescC2ERKNS_6StringES3_PNS_9TableDescEi@Base 3.2.1
 _ZN8casacore12SubTableDescC2ERKNS_6StringES3_RKNS_9TableDescEi@Base 3.2.1
 _ZN8casacore12SubTableDescC2ERKNS_6StringES3_S3_i@Base 3.2.1
 _ZN8casacore12SubTableDescC2ERKS0_@Base 3.2.1
 _ZN8casacore12SubTableDescD0Ev@Base 3.2.1
 _ZN8casacore12SubTableDescD1Ev@Base 3.2.1
 _ZN8casacore12SubTableDescD2Ev@Base 3.2.1
 _ZN8casacore12SubTableDescaSERKS0_@Base 3.2.1
 _ZN8casacore12TableInvExprC1ERKNS_6StringENS_9AipsError8CategoryE@Base 3.2.1
 _ZN8casacore12TableInvExprC1ERKNS_6StringES3_NS_9AipsError8CategoryE@Base 3.2.1
 _ZN8casacore12TableInvExprC2ERKNS_6StringENS_9AipsError8CategoryE@Base 3.2.1
 _ZN8casacore12TableInvExprC2ERKNS_6StringES3_NS_9AipsError8CategoryE@Base 3.2.1
 _ZN8casacore12TableInvExprD0Ev@Base 3.2.1
 _ZN8casacore12TableInvExprD1Ev@Base 3.2.1
 _ZN8casacore12TableInvExprD2Ev@Base 3.2.1
 _ZN8casacore12TableInvOperC1ENS_9AipsError8CategoryE@Base 3.2.1
 _ZN8casacore12TableInvOperC1ERKNS_6StringENS_9AipsError8CategoryE@Base 3.2.1
 _ZN8casacore12TableInvOperC2ENS_9AipsError8CategoryE@Base 3.2.1
 _ZN8casacore12TableInvOperC2ERKNS_6StringENS_9AipsError8CategoryE@Base 3.2.1
 _ZN8casacore12TableInvOperD0Ev@Base 3.2.1
 _ZN8casacore12TableInvOperD1Ev@Base 3.2.1
 _ZN8casacore12TableInvOperD2Ev@Base 3.2.1
 _ZN8casacore12TableInvSortC1ENS_9AipsError8CategoryE@Base 3.2.1
 _ZN8casacore12TableInvSortC1ERKNS_6StringENS_9AipsError8CategoryE@Base 3.2.1
 _ZN8casacore12TableInvSortC2ENS_9AipsError8CategoryE@Base 3.2.1
 _ZN8casacore12TableInvSortC2ERKNS_6StringENS_9AipsError8CategoryE@Base 3.2.1
 _ZN8casacore12TableInvSortD0Ev@Base 3.2.1
 _ZN8casacore12TableInvSortD1Ev@Base 3.2.1
 _ZN8casacore12TableInvSortD2Ev@Base 3.2.1
 _ZN8casacore12TableInvTypeC1ERKNS_6StringES3_S3_NS_9AipsError8CategoryE@Base 3.2.1
 _ZN8casacore12TableInvTypeC2ERKNS_6StringES3_S3_NS_9AipsError8CategoryE@Base 3.2.1
 _ZN8casacore12TableInvTypeD0Ev@Base 3.2.1
 _ZN8casacore12TableInvTypeD1Ev@Base 3.2.1
 _ZN8casacore12TableInvTypeD2Ev@Base 3.2.1
 _ZN8casacore12TableKeyword11renameTableERKNS_6StringES3_@Base 3.2.1
 _ZN8casacore12TableKeyword3setERKNS_6StringERKNS_9TableAttrE@Base 3.2.1
 _ZN8casacore12TableKeyword5setRWEv@Base 3.2.1
 _ZN8casacore12TableKeywordC1ERKNS_5TableERKNS_6StringE@Base 3.2.1
 _ZN8casacore12TableKeywordC1ERKNS_6StringE@Base 3.2.1
 _ZN8casacore12TableKeywordC1ERKS0_@Base 3.2.1
 _ZN8casacore12TableKeywordC2ERKNS_5TableERKNS_6StringE@Base 3.2.1
 _ZN8casacore12TableKeywordC2ERKNS_6StringE@Base 3.2.1
 _ZN8casacore12TableKeywordC2ERKS0_@Base 3.2.1
 _ZN8casacore12TableKeywordD1Ev@Base 3.2.1
 _ZN8casacore12TableKeywordD2Ev@Base 3.2.1
 _ZN8casacore12TableKeywordaSERKNS_5TableE@Base 3.2.1
 _ZN8casacore12TableKeywordaSERKS0_@Base 3.2.1
 _ZN8casacore12TableLogSink10attachColsEv@Base 3.2.1
 _ZN8casacore12TableLogSink10columnNameENS0_7ColumnsE@Base 3.2.1
 _ZN8casacore12TableLogSink10copy_otherERKS0_@Base 3.2.1
 _ZN8casacore12TableLogSink11postLocallyERKNS_10LogMessageE@Base 3.2.1
 _ZN8casacore12TableLogSink12clearLocallyEv@Base 3.2.1
 _ZN8casacore12TableLogSink12writeLocallyEdRKNS_6StringES3_S3_S3_@Base 3.2.1
 _ZN8casacore12TableLogSink19logTableDescriptionEv@Base 3.2.1
 _ZN8casacore12TableLogSink4initERKNS_6StringE@Base 3.2.1
 _ZN8casacore12TableLogSink5flushEb@Base 3.2.1
 _ZN8casacore12TableLogSink7localIdEv@Base 3.2.1
 _ZN8casacore12TableLogSink8makeSinkERKNS_18LogFilterInterfaceERKNS_6StringE@Base 3.2.1
 _ZN8casacore12TableLogSink8reopenRWERKNS_18LogFilterInterfaceE@Base 3.2.1
 _ZN8casacore12TableLogSink9makeTableERNS_13SetupNewTableE@Base 3.2.1
 _ZN8casacore12TableLogSinkC1ENS_10LogMessage8PriorityERKNS_6StringE@Base 3.2.1
 _ZN8casacore12TableLogSinkC1ERKNS_18LogFilterInterfaceERKNS_6StringE@Base 3.2.1
 _ZN8casacore12TableLogSinkC1ERKNS_6StringE@Base 3.2.1
 _ZN8casacore12TableLogSinkC1ERKS0_@Base 3.2.1
 _ZN8casacore12TableLogSinkC2ENS_10LogMessage8PriorityERKNS_6StringE@Base 3.2.1
 _ZN8casacore12TableLogSinkC2ERKNS_18LogFilterInterfaceERKNS_6StringE@Base 3.2.1
 _ZN8casacore12TableLogSinkC2ERKNS_6StringE@Base 3.2.1
 _ZN8casacore12TableLogSinkC2ERKS0_@Base 3.2.1
 _ZN8casacore12TableLogSinkD0Ev@Base 3.2.1
 _ZN8casacore12TableLogSinkD1Ev@Base 3.2.1
 _ZN8casacore12TableLogSinkD2Ev@Base 3.2.1
 _ZN8casacore12TableLogSinkaSERKS0_@Base 3.2.1
 _ZN8casacore12VarianceFuncISt7complexIdEED0Ev@Base 3.2.1
 _ZN8casacore12VarianceFuncISt7complexIdEED1Ev@Base 3.2.1
 _ZN8casacore12VarianceFuncISt7complexIdEED2Ev@Base 3.2.1
 _ZN8casacore12VarianceFuncIdED0Ev@Base 3.2.1
 _ZN8casacore12VarianceFuncIdED1Ev@Base 3.2.1
 _ZN8casacore12VarianceFuncIdED2Ev@Base 3.2.1
 _ZN8casacore12aggrFuncHelpE@Base 3.2.1
 _ZN8casacore12convFuncHelpE@Base 3.2.1
 _ZN8casacore12convertArrayINS_6MVTimeEdEEvRNS_5ArrayIT_EERKNS2_IT0_EE@Base 3.2.1
 _ZN8casacore12convertArrayINS_6StringES1_EEvRNS_5ArrayIT_EERKNS2_IT0_EE@Base 3.2.1
 _ZN8casacore12convertArrayISt7complexIdES1_IfEEEvRNS_5ArrayIT_EERKNS4_IT0_EE@Base 3.2.1
 _ZN8casacore12convertArrayISt7complexIdES2_EEvRNS_5ArrayIT_EERKNS3_IT0_EE@Base 3.2.1
 _ZN8casacore12convertArrayISt7complexIdEdEEvRNS_5ArrayIT_EERKNS3_IT0_EE@Base 3.2.1
 _ZN8casacore12convertArrayISt7complexIdExEEvRNS_5ArrayIT_EERKNS3_IT0_EE@Base 3.2.1
 _ZN8casacore12convertArrayISt7complexIfES1_IdEEEvRNS_5ArrayIT_EERKNS4_IT0_EE@Base 3.2.1
 _ZN8casacore12convertArrayISt7complexIfEdEEvRNS_5ArrayIT_EERKNS3_IT0_EE@Base 3.2.1
 _ZN8casacore12convertArrayISt7complexIfExEEvRNS_5ArrayIT_EERKNS3_IT0_EE@Base 3.2.1
 _ZN8casacore12convertArrayIbbEEvRNS_5ArrayIT_EERKNS1_IT0_EE@Base 3.2.1
 _ZN8casacore12convertArrayIdNS_6MVTimeEEEvRNS_5ArrayIT_EERKNS2_IT0_EE@Base 3.2.1
 _ZN8casacore12convertArrayIddEEvRNS_5ArrayIT_EERKNS1_IT0_EE@Base 3.2.1
 _ZN8casacore12convertArrayIdfEEvRNS_5ArrayIT_EERKNS1_IT0_EE@Base 3.2.1
 _ZN8casacore12convertArrayIdxEEvRNS_5ArrayIT_EERKNS1_IT0_EE@Base 3.2.1
 _ZN8casacore12convertArrayIfdEEvRNS_5ArrayIT_EERKNS1_IT0_EE@Base 3.2.1
 _ZN8casacore12convertArrayIfxEEvRNS_5ArrayIT_EERKNS1_IT0_EE@Base 3.2.1
 _ZN8casacore12convertArrayIhdEEvRNS_5ArrayIT_EERKNS1_IT0_EE@Base 3.2.1
 _ZN8casacore12convertArrayIhxEEvRNS_5ArrayIT_EERKNS1_IT0_EE@Base 3.2.1
 _ZN8casacore12convertArrayIidEEvRNS_5ArrayIT_EERKNS1_IT0_EE@Base 3.2.1
 _ZN8casacore12convertArrayIijEEvRNS_5ArrayIT_EERKNS1_IT0_EE@Base 3.2.1
 _ZN8casacore12convertArrayIitEEvRNS_5ArrayIT_EERKNS1_IT0_EE@Base 3.2.1
 _ZN8casacore12convertArrayIixEEvRNS_5ArrayIT_EERKNS1_IT0_EE@Base 3.2.1
 _ZN8casacore12convertArrayIjdEEvRNS_5ArrayIT_EERKNS1_IT0_EE@Base 3.2.1
 _ZN8casacore12convertArrayIjiEEvRNS_5ArrayIT_EERKNS1_IT0_EE@Base 3.2.1
 _ZN8casacore12convertArrayIjxEEvRNS_5ArrayIT_EERKNS1_IT0_EE@Base 3.2.1
 _ZN8casacore12convertArrayIsdEEvRNS_5ArrayIT_EERKNS1_IT0_EE@Base 3.2.1
 _ZN8casacore12convertArrayIsxEEvRNS_5ArrayIT_EERKNS1_IT0_EE@Base 3.2.1
 _ZN8casacore12convertArrayItdEEvRNS_5ArrayIT_EERKNS1_IT0_EE@Base 3.2.1
 _ZN8casacore12convertArrayItxEEvRNS_5ArrayIT_EERKNS1_IT0_EE@Base 3.2.1
 _ZN8casacore12convertArrayIxdEEvRNS_5ArrayIT_EERKNS1_IT0_EE@Base 3.2.1
 _ZN8casacore12convertArrayIxhEEvRNS_5ArrayIT_EERKNS1_IT0_EE@Base 3.2.1
 _ZN8casacore12convertArrayIxiEEvRNS_5ArrayIT_EERKNS1_IT0_EE@Base 3.2.1
 _ZN8casacore12convertArrayIxjEEvRNS_5ArrayIT_EERKNS1_IT0_EE@Base 3.2.1
 _ZN8casacore12convertArrayIxsEEvRNS_5ArrayIT_EERKNS1_IT0_EE@Base 3.2.1
 _ZN8casacore12convertArrayIxtEEvRNS_5ArrayIT_EERKNS1_IT0_EE@Base 3.2.1
 _ZN8casacore12convertArrayIxxEEvRNS_5ArrayIT_EERKNS1_IT0_EE@Base 3.2.1
 _ZN8casacore12mathFuncHelpE@Base 3.2.1
 _ZN8casacore12miscFuncHelpE@Base 3.2.1
 _ZN8casacore12partialMeansISt7complexIdEEENS_5ArrayIT_EERKS5_RKNS_9IPositionE@Base 3.2.1
 _ZN8casacore12partialMeansIdEENS_5ArrayIT_EERKS3_RKNS_9IPositionE@Base 3.2.1
 _ZN8casacore12partialNTrueIbEENS_5ArrayIjEERKNS1_IT_EERKNS_9IPositionE@Base 3.2.1
 _ZN8casacore12partialNTrueIbEENS_6MArrayIjEERKNS1_IT_EERKNS_9IPositionE@Base 3.2.1
 _ZN8casacore12positionHelpE@Base 3.2.1
 _ZN8casacore12reorderArrayINS_6MVTimeEEENS_5ArrayIT_EERKS4_RKNS_9IPositionEb@Base 3.2.1
 _ZN8casacore12reorderArrayINS_6MVTimeEEENS_6MArrayIT_EERKS4_RKNS_9IPositionEb@Base 3.2.1
 _ZN8casacore12reorderArrayINS_6StringEEENS_5ArrayIT_EERKS4_RKNS_9IPositionEb@Base 3.2.1
 _ZN8casacore12reorderArrayINS_6StringEEENS_6MArrayIT_EERKS4_RKNS_9IPositionEb@Base 3.2.1
 _ZN8casacore12reorderArrayISt7complexIdEEENS_5ArrayIT_EERKS5_RKNS_9IPositionEb@Base 3.2.1
 _ZN8casacore12reorderArrayISt7complexIdEEENS_6MArrayIT_EERKS5_RKNS_9IPositionEb@Base 3.2.1
 _ZN8casacore12reorderArrayIbEENS_5ArrayIT_EERKS3_RKNS_9IPositionEb@Base 3.2.1
 _ZN8casacore12reorderArrayIbEENS_6MArrayIT_EERKS3_RKNS_9IPositionEb@Base 3.2.1
 _ZN8casacore12reorderArrayIdEENS_5ArrayIT_EERKS3_RKNS_9IPositionEb@Base 3.2.1
 _ZN8casacore12reorderArrayIdEENS_6MArrayIT_EERKS3_RKNS_9IPositionEb@Base 3.2.1
 _ZN8casacore12reorderArrayIxEENS_5ArrayIT_EERKS3_RKNS_9IPositionEb@Base 3.2.1
 _ZN8casacore12reorderArrayIxEENS_6MArrayIT_EERKS3_RKNS_9IPositionEb@Base 3.2.1
 _ZN8casacore12reverseArrayINS_6MVTimeEEENS_5ArrayIT_EERKS4_RKNS_9IPositionEb@Base 3.2.1
 _ZN8casacore12reverseArrayINS_6MVTimeEEENS_5ArrayIT_EERKS4_jb@Base 3.2.1
 _ZN8casacore12reverseArrayINS_6MVTimeEEENS_6MArrayIT_EERKS4_RKNS_9IPositionEb@Base 3.2.1
 _ZN8casacore12reverseArrayINS_6StringEEENS_5ArrayIT_EERKS4_RKNS_9IPositionEb@Base 3.2.1
 _ZN8casacore12reverseArrayINS_6StringEEENS_5ArrayIT_EERKS4_jb@Base 3.2.1
 _ZN8casacore12reverseArrayINS_6StringEEENS_6MArrayIT_EERKS4_RKNS_9IPositionEb@Base 3.2.1
 _ZN8casacore12reverseArrayISt7complexIdEEENS_5ArrayIT_EERKS5_RKNS_9IPositionEb@Base 3.2.1
 _ZN8casacore12reverseArrayISt7complexIdEEENS_5ArrayIT_EERKS5_jb@Base 3.2.1
 _ZN8casacore12reverseArrayISt7complexIdEEENS_6MArrayIT_EERKS5_RKNS_9IPositionEb@Base 3.2.1
 _ZN8casacore12reverseArrayIbEENS_5ArrayIT_EERKS3_RKNS_9IPositionEb@Base 3.2.1
 _ZN8casacore12reverseArrayIbEENS_5ArrayIT_EERKS3_jb@Base 3.2.1
 _ZN8casacore12reverseArrayIbEENS_6MArrayIT_EERKS3_RKNS_9IPositionEb@Base 3.2.1
 _ZN8casacore12reverseArrayIdEENS_5ArrayIT_EERKS3_RKNS_9IPositionEb@Base 3.2.1
 _ZN8casacore12reverseArrayIdEENS_5ArrayIT_EERKS3_jb@Base 3.2.1
 _ZN8casacore12reverseArrayIdEENS_6MArrayIT_EERKS3_RKNS_9IPositionEb@Base 3.2.1
 _ZN8casacore12reverseArrayIxEENS_5ArrayIT_EERKS3_RKNS_9IPositionEb@Base 3.2.1
 _ZN8casacore12reverseArrayIxEENS_5ArrayIT_EERKS3_jb@Base 3.2.1
 _ZN8casacore12reverseArrayIxEENS_6MArrayIT_EERKS3_RKNS_9IPositionEb@Base 3.2.1
 _ZN8casacore12showDataIterIPKlEEvRSoT_RKS4_PKcS8_S8_@Base 3.2.1
 _ZN8casacore12slidingNTrueIbEENS_6MArrayIjEERKNS1_IT_EERKNS_9IPositionEb@Base 3.2.1
 _ZN8casacore12tableCommandERKNS_6StringE@Base 3.2.1
 _ZN8casacore12tableCommandERKNS_6StringERKNS_5TableE@Base 3.2.1
 _ZN8casacore12tableCommandERKNS_6StringERKSt6vectorIPKNS_5TableESaIS6_EE@Base 3.2.1
 _ZN8casacore12tableCommandERKNS_6StringERKSt6vectorIPKNS_5TableESaIS6_EERNS_6VectorIS0_EE@Base 3.2.1
 _ZN8casacore12tableCommandERKNS_6StringERKSt6vectorIPKNS_5TableESaIS6_EERNS_6VectorIS0_EERS0_@Base 3.2.1
 _ZN8casacore12tableCommandERKNS_6StringERNS_6VectorIS0_EE@Base 3.2.1
 _ZN8casacore12tableCommandERKNS_6StringERNS_6VectorIS0_EERS0_@Base 3.2.1
 _ZN8casacore13ArrayIteratorINS_5SliceEE12apSetPointerEi@Base 3.2.1
 _ZN8casacore13ArrayIteratorINS_5SliceEE3setERKNS_9IPositionE@Base 3.2.1
 _ZN8casacore13ArrayIteratorINS_5SliceEE4initERKNS_5ArrayIS1_EE@Base 3.2.1
 _ZN8casacore13ArrayIteratorINS_5SliceEE4nextEv@Base 3.2.1
 _ZN8casacore13ArrayIteratorINS_5SliceEE5resetEv@Base 3.2.1
 _ZN8casacore13ArrayIteratorINS_5SliceEE8getArrayEv@Base 3.2.1
 _ZN8casacore13ArrayIteratorINS_5SliceEED0Ev@Base 3.2.1
 _ZN8casacore13ArrayIteratorINS_5SliceEED1Ev@Base 3.2.1
 _ZN8casacore13ArrayIteratorINS_5SliceEED2Ev@Base 3.2.1
 _ZN8casacore13ArrayIteratorINS_6MVTimeEE12apSetPointerEi@Base 3.2.1
 _ZN8casacore13ArrayIteratorINS_6MVTimeEE3setERKNS_9IPositionE@Base 3.2.1
 _ZN8casacore13ArrayIteratorINS_6MVTimeEE4initERKNS_5ArrayIS1_EE@Base 3.2.1
 _ZN8casacore13ArrayIteratorINS_6MVTimeEE4nextEv@Base 3.2.1
 _ZN8casacore13ArrayIteratorINS_6MVTimeEE5resetEv@Base 3.2.1
 _ZN8casacore13ArrayIteratorINS_6MVTimeEE8getArrayEv@Base 3.2.1
 _ZN8casacore13ArrayIteratorINS_6MVTimeEEC1ERKNS_5ArrayIS1_EEj@Base 3.2.1
 _ZN8casacore13ArrayIteratorINS_6MVTimeEEC2ERKNS_5ArrayIS1_EEj@Base 3.2.1
 _ZN8casacore13ArrayIteratorINS_6MVTimeEED0Ev@Base 3.2.1
 _ZN8casacore13ArrayIteratorINS_6MVTimeEED1Ev@Base 3.2.1
 _ZN8casacore13ArrayIteratorINS_6MVTimeEED2Ev@Base 3.2.1
 _ZN8casacore13ArrayIteratorINS_6StringEE12apSetPointerEi@Base 3.2.1
 _ZN8casacore13ArrayIteratorINS_6StringEE3setERKNS_9IPositionE@Base 3.2.1
 _ZN8casacore13ArrayIteratorINS_6StringEE4initERKNS_5ArrayIS1_EE@Base 3.2.1
 _ZN8casacore13ArrayIteratorINS_6StringEE4nextEv@Base 3.2.1
 _ZN8casacore13ArrayIteratorINS_6StringEE5resetEv@Base 3.2.1
 _ZN8casacore13ArrayIteratorINS_6StringEE8getArrayEv@Base 3.2.1
 _ZN8casacore13ArrayIteratorINS_6StringEEC1ERKNS_5ArrayIS1_EEj@Base 3.2.1
 _ZN8casacore13ArrayIteratorINS_6StringEEC2ERKNS_5ArrayIS1_EEj@Base 3.2.1
 _ZN8casacore13ArrayIteratorINS_6StringEED0Ev@Base 3.2.1
 _ZN8casacore13ArrayIteratorINS_6StringEED1Ev@Base 3.2.1
 _ZN8casacore13ArrayIteratorINS_6StringEED2Ev@Base 3.2.1
 _ZN8casacore13ArrayIteratorINS_6VectorINS_5SliceEEEE12apSetPointerEi@Base 3.2.1
 _ZN8casacore13ArrayIteratorINS_6VectorINS_5SliceEEEE3setERKNS_9IPositionE@Base 3.2.1
 _ZN8casacore13ArrayIteratorINS_6VectorINS_5SliceEEEE4initERKNS_5ArrayIS3_EE@Base 3.2.1
 _ZN8casacore13ArrayIteratorINS_6VectorINS_5SliceEEEE4nextEv@Base 3.2.1
 _ZN8casacore13ArrayIteratorINS_6VectorINS_5SliceEEEE5resetEv@Base 3.2.1
 _ZN8casacore13ArrayIteratorINS_6VectorINS_5SliceEEEE8getArrayEv@Base 3.2.1
 _ZN8casacore13ArrayIteratorINS_6VectorINS_5SliceEEEED0Ev@Base 3.2.1
 _ZN8casacore13ArrayIteratorINS_6VectorINS_5SliceEEEED1Ev@Base 3.2.1
 _ZN8casacore13ArrayIteratorINS_6VectorINS_5SliceEEEED2Ev@Base 3.2.1
 _ZN8casacore13ArrayIteratorIPNS_6SlicerEE12apSetPointerEi@Base 3.2.1
 _ZN8casacore13ArrayIteratorIPNS_6SlicerEE3setERKNS_9IPositionE@Base 3.2.1
 _ZN8casacore13ArrayIteratorIPNS_6SlicerEE4initERKNS_5ArrayIS2_EE@Base 3.2.1
 _ZN8casacore13ArrayIteratorIPNS_6SlicerEE4nextEv@Base 3.2.1
 _ZN8casacore13ArrayIteratorIPNS_6SlicerEE5resetEv@Base 3.2.1
 _ZN8casacore13ArrayIteratorIPNS_6SlicerEE8getArrayEv@Base 3.2.1
 _ZN8casacore13ArrayIteratorIPNS_6SlicerEED0Ev@Base 3.2.1
 _ZN8casacore13ArrayIteratorIPNS_6SlicerEED1Ev@Base 3.2.1
 _ZN8casacore13ArrayIteratorIPNS_6SlicerEED2Ev@Base 3.2.1
 _ZN8casacore13ArrayIteratorISt7complexIdEE12apSetPointerEi@Base 3.2.1
 _ZN8casacore13ArrayIteratorISt7complexIdEE3setERKNS_9IPositionE@Base 3.2.1
 _ZN8casacore13ArrayIteratorISt7complexIdEE4initERKNS_5ArrayIS2_EE@Base 3.2.1
 _ZN8casacore13ArrayIteratorISt7complexIdEE4nextEv@Base 3.2.1
 _ZN8casacore13ArrayIteratorISt7complexIdEE5resetEv@Base 3.2.1
 _ZN8casacore13ArrayIteratorISt7complexIdEE8getArrayEv@Base 3.2.1
 _ZN8casacore13ArrayIteratorISt7complexIdEEC1ERKNS_5ArrayIS2_EEj@Base 3.2.1
 _ZN8casacore13ArrayIteratorISt7complexIdEEC2ERKNS_5ArrayIS2_EEj@Base 3.2.1
 _ZN8casacore13ArrayIteratorISt7complexIdEED0Ev@Base 3.2.1
 _ZN8casacore13ArrayIteratorISt7complexIdEED1Ev@Base 3.2.1
 _ZN8casacore13ArrayIteratorISt7complexIdEED2Ev@Base 3.2.1
 _ZN8casacore13ArrayIteratorISt7complexIfEE12apSetPointerEi@Base 3.2.1
 _ZN8casacore13ArrayIteratorISt7complexIfEE3setERKNS_9IPositionE@Base 3.2.1
 _ZN8casacore13ArrayIteratorISt7complexIfEE4initERKNS_5ArrayIS2_EE@Base 3.2.1
 _ZN8casacore13ArrayIteratorISt7complexIfEE4nextEv@Base 3.2.1
 _ZN8casacore13ArrayIteratorISt7complexIfEE5resetEv@Base 3.2.1
 _ZN8casacore13ArrayIteratorISt7complexIfEE8getArrayEv@Base 3.2.1
 _ZN8casacore13ArrayIteratorISt7complexIfEEC1ERKNS_5ArrayIS2_EEj@Base 3.2.1
 _ZN8casacore13ArrayIteratorISt7complexIfEEC2ERKNS_5ArrayIS2_EEj@Base 3.2.1
 _ZN8casacore13ArrayIteratorISt7complexIfEED0Ev@Base 3.2.1
 _ZN8casacore13ArrayIteratorISt7complexIfEED1Ev@Base 3.2.1
 _ZN8casacore13ArrayIteratorISt7complexIfEED2Ev@Base 3.2.1
 _ZN8casacore13ArrayIteratorIbE12apSetPointerEi@Base 3.2.1
 _ZN8casacore13ArrayIteratorIbE3setERKNS_9IPositionE@Base 3.2.1
 _ZN8casacore13ArrayIteratorIbE4initERKNS_5ArrayIbEE@Base 3.2.1
 _ZN8casacore13ArrayIteratorIbE4nextEv@Base 3.2.1
 _ZN8casacore13ArrayIteratorIbE5resetEv@Base 3.2.1
 _ZN8casacore13ArrayIteratorIbE8getArrayEv@Base 3.2.1
 _ZN8casacore13ArrayIteratorIbEC1ERKNS_5ArrayIbEERKNS_9IPositionEb@Base 3.2.1
 _ZN8casacore13ArrayIteratorIbEC1ERKNS_5ArrayIbEEj@Base 3.2.1
 _ZN8casacore13ArrayIteratorIbEC2ERKNS_5ArrayIbEERKNS_9IPositionEb@Base 3.2.1
 _ZN8casacore13ArrayIteratorIbEC2ERKNS_5ArrayIbEEj@Base 3.2.1
 _ZN8casacore13ArrayIteratorIbED0Ev@Base 3.2.1
 _ZN8casacore13ArrayIteratorIbED1Ev@Base 3.2.1
 _ZN8casacore13ArrayIteratorIbED2Ev@Base 3.2.1
 _ZN8casacore13ArrayIteratorIcE12apSetPointerEi@Base 3.2.1
 _ZN8casacore13ArrayIteratorIcE3setERKNS_9IPositionE@Base 3.2.1
 _ZN8casacore13ArrayIteratorIcE4initERKNS_5ArrayIcEE@Base 3.2.1
 _ZN8casacore13ArrayIteratorIcE4nextEv@Base 3.2.1
 _ZN8casacore13ArrayIteratorIcE5resetEv@Base 3.2.1
 _ZN8casacore13ArrayIteratorIcE8getArrayEv@Base 3.2.1
 _ZN8casacore13ArrayIteratorIcEC1ERKNS_5ArrayIcEEj@Base 3.2.1
 _ZN8casacore13ArrayIteratorIcEC2ERKNS_5ArrayIcEEj@Base 3.2.1
 _ZN8casacore13ArrayIteratorIcED0Ev@Base 3.2.1
 _ZN8casacore13ArrayIteratorIcED1Ev@Base 3.2.1
 _ZN8casacore13ArrayIteratorIcED2Ev@Base 3.2.1
 _ZN8casacore13ArrayIteratorIdE12apSetPointerEi@Base 3.2.1
 _ZN8casacore13ArrayIteratorIdE3setERKNS_9IPositionE@Base 3.2.1
 _ZN8casacore13ArrayIteratorIdE4initERKNS_5ArrayIdEE@Base 3.2.1
 _ZN8casacore13ArrayIteratorIdE4nextEv@Base 3.2.1
 _ZN8casacore13ArrayIteratorIdE5resetEv@Base 3.2.1
 _ZN8casacore13ArrayIteratorIdE8getArrayEv@Base 3.2.1
 _ZN8casacore13ArrayIteratorIdEC1ERKNS_5ArrayIdEEj@Base 3.2.1
 _ZN8casacore13ArrayIteratorIdEC2ERKNS_5ArrayIdEEj@Base 3.2.1
 _ZN8casacore13ArrayIteratorIdED0Ev@Base 3.2.1
 _ZN8casacore13ArrayIteratorIdED1Ev@Base 3.2.1
 _ZN8casacore13ArrayIteratorIdED2Ev@Base 3.2.1
 _ZN8casacore13ArrayIteratorIfE12apSetPointerEi@Base 3.2.1
 _ZN8casacore13ArrayIteratorIfE3setERKNS_9IPositionE@Base 3.2.1
 _ZN8casacore13ArrayIteratorIfE4initERKNS_5ArrayIfEE@Base 3.2.1
 _ZN8casacore13ArrayIteratorIfE4nextEv@Base 3.2.1
 _ZN8casacore13ArrayIteratorIfE5resetEv@Base 3.2.1
 _ZN8casacore13ArrayIteratorIfE8getArrayEv@Base 3.2.1
 _ZN8casacore13ArrayIteratorIfEC1ERKNS_5ArrayIfEEj@Base 3.2.1
 _ZN8casacore13ArrayIteratorIfEC2ERKNS_5ArrayIfEEj@Base 3.2.1
 _ZN8casacore13ArrayIteratorIfED0Ev@Base 3.2.1
 _ZN8casacore13ArrayIteratorIfED1Ev@Base 3.2.1
 _ZN8casacore13ArrayIteratorIfED2Ev@Base 3.2.1
 _ZN8casacore13ArrayIteratorIhE12apSetPointerEi@Base 3.2.1
 _ZN8casacore13ArrayIteratorIhE3setERKNS_9IPositionE@Base 3.2.1
 _ZN8casacore13ArrayIteratorIhE4initERKNS_5ArrayIhEE@Base 3.2.1
 _ZN8casacore13ArrayIteratorIhE4nextEv@Base 3.2.1
 _ZN8casacore13ArrayIteratorIhE5resetEv@Base 3.2.1
 _ZN8casacore13ArrayIteratorIhE8getArrayEv@Base 3.2.1
 _ZN8casacore13ArrayIteratorIhEC1ERKNS_5ArrayIhEEj@Base 3.2.1
 _ZN8casacore13ArrayIteratorIhEC2ERKNS_5ArrayIhEEj@Base 3.2.1
 _ZN8casacore13ArrayIteratorIhED0Ev@Base 3.2.1
 _ZN8casacore13ArrayIteratorIhED1Ev@Base 3.2.1
 _ZN8casacore13ArrayIteratorIhED2Ev@Base 3.2.1
 _ZN8casacore13ArrayIteratorIiE12apSetPointerEi@Base 3.2.1
 _ZN8casacore13ArrayIteratorIiE3setERKNS_9IPositionE@Base 3.2.1
 _ZN8casacore13ArrayIteratorIiE4initERKNS_5ArrayIiEE@Base 3.2.1
 _ZN8casacore13ArrayIteratorIiE4nextEv@Base 3.2.1
 _ZN8casacore13ArrayIteratorIiE5resetEv@Base 3.2.1
 _ZN8casacore13ArrayIteratorIiE8getArrayEv@Base 3.2.1
 _ZN8casacore13ArrayIteratorIiEC1ERKNS_5ArrayIiEEj@Base 3.2.1
 _ZN8casacore13ArrayIteratorIiEC2ERKNS_5ArrayIiEEj@Base 3.2.1
 _ZN8casacore13ArrayIteratorIiED0Ev@Base 3.2.1
 _ZN8casacore13ArrayIteratorIiED1Ev@Base 3.2.1
 _ZN8casacore13ArrayIteratorIiED2Ev@Base 3.2.1
 _ZN8casacore13ArrayIteratorIjE12apSetPointerEi@Base 3.2.1
 _ZN8casacore13ArrayIteratorIjE3setERKNS_9IPositionE@Base 3.2.1
 _ZN8casacore13ArrayIteratorIjE4initERKNS_5ArrayIjEE@Base 3.2.1
 _ZN8casacore13ArrayIteratorIjE4nextEv@Base 3.2.1
 _ZN8casacore13ArrayIteratorIjE5resetEv@Base 3.2.1
 _ZN8casacore13ArrayIteratorIjE8getArrayEv@Base 3.2.1
 _ZN8casacore13ArrayIteratorIjEC1ERKNS_5ArrayIjEEj@Base 3.2.1
 _ZN8casacore13ArrayIteratorIjEC2ERKNS_5ArrayIjEEj@Base 3.2.1
 _ZN8casacore13ArrayIteratorIjED0Ev@Base 3.2.1
 _ZN8casacore13ArrayIteratorIjED1Ev@Base 3.2.1
 _ZN8casacore13ArrayIteratorIjED2Ev@Base 3.2.1
 _ZN8casacore13ArrayIteratorIsE12apSetPointerEi@Base 3.2.1
 _ZN8casacore13ArrayIteratorIsE3setERKNS_9IPositionE@Base 3.2.1
 _ZN8casacore13ArrayIteratorIsE4initERKNS_5ArrayIsEE@Base 3.2.1
 _ZN8casacore13ArrayIteratorIsE4nextEv@Base 3.2.1
 _ZN8casacore13ArrayIteratorIsE5resetEv@Base 3.2.1
 _ZN8casacore13ArrayIteratorIsE8getArrayEv@Base 3.2.1
 _ZN8casacore13ArrayIteratorIsEC1ERKNS_5ArrayIsEEj@Base 3.2.1
 _ZN8casacore13ArrayIteratorIsEC2ERKNS_5ArrayIsEEj@Base 3.2.1
 _ZN8casacore13ArrayIteratorIsED0Ev@Base 3.2.1
 _ZN8casacore13ArrayIteratorIsED1Ev@Base 3.2.1
 _ZN8casacore13ArrayIteratorIsED2Ev@Base 3.2.1
 _ZN8casacore13ArrayIteratorItE12apSetPointerEi@Base 3.2.1
 _ZN8casacore13ArrayIteratorItE3setERKNS_9IPositionE@Base 3.2.1
 _ZN8casacore13ArrayIteratorItE4initERKNS_5ArrayItEE@Base 3.2.1
 _ZN8casacore13ArrayIteratorItE4nextEv@Base 3.2.1
 _ZN8casacore13ArrayIteratorItE5resetEv@Base 3.2.1
 _ZN8casacore13ArrayIteratorItE8getArrayEv@Base 3.2.1
 _ZN8casacore13ArrayIteratorItEC1ERKNS_5ArrayItEEj@Base 3.2.1
 _ZN8casacore13ArrayIteratorItEC2ERKNS_5ArrayItEEj@Base 3.2.1
 _ZN8casacore13ArrayIteratorItED0Ev@Base 3.2.1
 _ZN8casacore13ArrayIteratorItED1Ev@Base 3.2.1
 _ZN8casacore13ArrayIteratorItED2Ev@Base 3.2.1
 _ZN8casacore13ArrayIteratorIxE12apSetPointerEi@Base 3.2.1
 _ZN8casacore13ArrayIteratorIxE3setERKNS_9IPositionE@Base 3.2.1
 _ZN8casacore13ArrayIteratorIxE4initERKNS_5ArrayIxEE@Base 3.2.1
 _ZN8casacore13ArrayIteratorIxE4nextEv@Base 3.2.1
 _ZN8casacore13ArrayIteratorIxE5resetEv@Base 3.2.1
 _ZN8casacore13ArrayIteratorIxE8getArrayEv@Base 3.2.1
 _ZN8casacore13ArrayIteratorIxEC1ERKNS_5ArrayIxEEj@Base 3.2.1
 _ZN8casacore13ArrayIteratorIxEC2ERKNS_5ArrayIxEEj@Base 3.2.1
 _ZN8casacore13ArrayIteratorIxED0Ev@Base 3.2.1
 _ZN8casacore13ArrayIteratorIxED1Ev@Base 3.2.1
 _ZN8casacore13ArrayIteratorIxED2Ev@Base 3.2.1
 _ZN8casacore13ColumnDescSet3addERKS0_@Base 3.2.1
 _ZN8casacore13ColumnDescSet6removeERKNS_6StringE@Base 3.2.1
 _ZN8casacore13ColumnDescSet6renameERKNS_6StringES3_@Base 3.2.1
 _ZN8casacore13ColumnDescSet7getFileERNS_6AipsIOERKNS_9TableAttrE@Base 3.2.1
 _ZN8casacore13ColumnDescSet9addColumnERKNS_10ColumnDescE@Base 3.2.1
 _ZN8casacore13ColumnDescSet9addColumnERKNS_10ColumnDescERKNS_6StringE@Base 3.2.1
 _ZN8casacore13ColumnDescSetC1ERKS0_@Base 3.2.1
 _ZN8casacore13ColumnDescSetC1Ev@Base 3.2.1
 _ZN8casacore13ColumnDescSetC2ERKS0_@Base 3.2.1
 _ZN8casacore13ColumnDescSetC2Ev@Base 3.2.1
 _ZN8casacore13ColumnDescSetD1Ev@Base 3.2.1
 _ZN8casacore13ColumnDescSetD2Ev@Base 3.2.1
 _ZN8casacore13ColumnDescSetaSERKS0_@Base 3.2.1
 _ZN8casacore13ColumnDescSetixERKNS_6StringE@Base 3.2.1
 _ZN8casacore13CompressFloat10addRowInitEjj@Base 3.2.1
 _ZN8casacore13CompressFloat10makeObjectERKNS_6StringERKNS_6RecordE@Base 3.2.1
 _ZN8casacore13CompressFloat10scaleOnGetEffRNS_5ArrayIfEERKNS1_IsEE@Base 3.2.1
 _ZN8casacore13CompressFloat10scaleOnPutEffRKNS_5ArrayIfEERNS1_IsEE@Base 3.2.1
 _ZN8casacore13CompressFloat11putFullPartEjRKNS_6SlicerERNS_5ArrayIfEERKS5_ff@Base 3.2.1
 _ZN8casacore13CompressFloat13registerClassEv@Base 3.2.1
 _ZN8casacore13CompressFloat14getArrayColumnERNS_5ArrayIfEE@Base 3.2.1
 _ZN8casacore13CompressFloat14getColumnSliceERKNS_6SlicerERNS_5ArrayIfEE@Base 3.2.1
 _ZN8casacore13CompressFloat14putArrayColumnERKNS_5ArrayIfEE@Base 3.2.1
 _ZN8casacore13CompressFloat14putColumnSliceERKNS_6SlicerERKNS_5ArrayIfEE@Base 3.2.1
 _ZN8casacore13CompressFloat16scaleColumnOnGetERNS_5ArrayIfEERKNS1_IsEE@Base 3.2.1
 _ZN8casacore13CompressFloat16scaleColumnOnPutERKNS_5ArrayIfEERNS1_IsEE@Base 3.2.1
 _ZN8casacore13CompressFloat19getArrayColumnCellsERKNS_7RefRowsERNS_5ArrayIfEE@Base 3.2.1
 _ZN8casacore13CompressFloat19getColumnSliceCellsERKNS_7RefRowsERKNS_6SlicerERNS_5ArrayIfEE@Base 3.2.1
 _ZN8casacore13CompressFloat19putArrayColumnCellsERKNS_7RefRowsERKNS_5ArrayIfEE@Base 3.2.1
 _ZN8casacore13CompressFloat19putColumnSliceCellsERKNS_7RefRowsERKNS_6SlicerERKNS_5ArrayIfEE@Base 3.2.1
 _ZN8casacore13CompressFloat6createEj@Base 3.2.1
 _ZN8casacore13CompressFloat7prepareEv@Base 3.2.1
 _ZN8casacore13CompressFloat7putPartEjRKNS_6SlicerERKNS_5ArrayIfEEff@Base 3.2.1
 _ZN8casacore13CompressFloat8getArrayEjRNS_5ArrayIfEE@Base 3.2.1
 _ZN8casacore13CompressFloat8getSliceEjRKNS_6SlicerERNS_5ArrayIfEE@Base 3.2.1
 _ZN8casacore13CompressFloat8putArrayEjRKNS_5ArrayIfEE@Base 3.2.1
 _ZN8casacore13CompressFloat8putSliceEjRKNS_6SlicerERKNS_5ArrayIfEE@Base 3.2.1
 _ZN8casacore13CompressFloat8reopenRWEv@Base 3.2.1
 _ZN8casacore13CompressFloat9classNameEv@Base 3.2.1
 _ZN8casacore13CompressFloatC1ERKNS_6RecordE@Base 3.2.1
 _ZN8casacore13CompressFloatC1ERKNS_6StringES3_S3_S3_b@Base 3.2.1
 _ZN8casacore13CompressFloatC1ERKNS_6StringES3_ff@Base 3.2.1
 _ZN8casacore13CompressFloatC1ERKS0_@Base 3.2.1
 _ZN8casacore13CompressFloatC2ERKNS_6RecordE@Base 3.2.1
 _ZN8casacore13CompressFloatC2ERKNS_6StringES3_S3_S3_b@Base 3.2.1
 _ZN8casacore13CompressFloatC2ERKNS_6StringES3_ff@Base 3.2.1
 _ZN8casacore13CompressFloatC2ERKS0_@Base 3.2.1
 _ZN8casacore13CompressFloatD0Ev@Base 3.2.1
 _ZN8casacore13CompressFloatD1Ev@Base 3.2.1
 _ZN8casacore13CompressFloatD2Ev@Base 3.2.1
 _ZN8casacore13ForwardColumn10getStringVEjPNS_6StringE@Base 3.2.1
 _ZN8casacore13ForwardColumn10getdoubleVEjPd@Base 3.2.1
 _ZN8casacore13ForwardColumn10getuShortVEjPt@Base 3.2.1
 _ZN8casacore13ForwardColumn10putStringVEjPKNS_6StringE@Base 3.2.1
 _ZN8casacore13ForwardColumn10putdoubleVEjPKd@Base 3.2.1
 _ZN8casacore13ForwardColumn10putuShortVEjPKt@Base 3.2.1
 _ZN8casacore13ForwardColumn11basePrepareERKNS_5TableEb@Base 3.2.1
 _ZN8casacore13ForwardColumn11getComplexVEjPSt7complexIfE@Base 3.2.1
 _ZN8casacore13ForwardColumn11putComplexVEjPKSt7complexIfE@Base 3.2.1
 _ZN8casacore13ForwardColumn12getDComplexVEjPSt7complexIdE@Base 3.2.1
 _ZN8casacore13ForwardColumn12putDComplexVEjPKSt7complexIdE@Base 3.2.1
 _ZN8casacore13ForwardColumn13fillTableNameERKNS_5TableES3_@Base 3.2.1
 _ZN8casacore13ForwardColumn13setupNewTableERKNS_5TableERKNS_6StringENS1_11TableOptionE@Base 3.2.1
 _ZN8casacore13ForwardColumn14isShapeDefinedEj@Base 3.2.1
 _ZN8casacore13ForwardColumn14setShapeColumnERKNS_9IPositionE@Base 3.2.1
 _ZN8casacore13ForwardColumn15getArrayColumnVEPv@Base 3.2.1
 _ZN8casacore13ForwardColumn15getColumnSliceVERKNS_6SlicerEPv@Base 3.2.1
 _ZN8casacore13ForwardColumn15putArrayColumnVEPKv@Base 3.2.1
 _ZN8casacore13ForwardColumn15putColumnSliceVERKNS_6SlicerEPKv@Base 3.2.1
 _ZN8casacore13ForwardColumn16getScalarColumnVEPv@Base 3.2.1
 _ZN8casacore13ForwardColumn16putScalarColumnVEPKv@Base 3.2.1
 _ZN8casacore13ForwardColumn20getArrayColumnCellsVERKNS_7RefRowsEPv@Base 3.2.1
 _ZN8casacore13ForwardColumn20getColumnSliceCellsVERKNS_7RefRowsERKNS_6SlicerEPv@Base 3.2.1
 _ZN8casacore13ForwardColumn20putArrayColumnCellsVERKNS_7RefRowsEPKv@Base 3.2.1
 _ZN8casacore13ForwardColumn20putColumnSliceCellsVERKNS_7RefRowsERKNS_6SlicerEPKv@Base 3.2.1
 _ZN8casacore13ForwardColumn21getScalarColumnCellsVERKNS_7RefRowsEPv@Base 3.2.1
 _ZN8casacore13ForwardColumn21putScalarColumnCellsVERKNS_7RefRowsEPKv@Base 3.2.1
 _ZN8casacore13ForwardColumn4ndimEj@Base 3.2.1
 _ZN8casacore13ForwardColumn5setRWEv@Base 3.2.1
 _ZN8casacore13ForwardColumn5shapeEj@Base 3.2.1
 _ZN8casacore13ForwardColumn7getIntVEjPi@Base 3.2.1
 _ZN8casacore13ForwardColumn7prepareERKNS_5TableE@Base 3.2.1
 _ZN8casacore13ForwardColumn7putIntVEjPKi@Base 3.2.1
 _ZN8casacore13ForwardColumn8getBoolVEjPb@Base 3.2.1
 _ZN8casacore13ForwardColumn8getuIntVEjPj@Base 3.2.1
 _ZN8casacore13ForwardColumn8putBoolVEjPKb@Base 3.2.1
 _ZN8casacore13ForwardColumn8putuIntVEjPKj@Base 3.2.1
 _ZN8casacore13ForwardColumn8setShapeEjRKNS_9IPositionE@Base 3.2.1
 _ZN8casacore13ForwardColumn9getArrayVEjPv@Base 3.2.1
 _ZN8casacore13ForwardColumn9getInt64VEjPx@Base 3.2.1
 _ZN8casacore13ForwardColumn9getOtherVEjPv@Base 3.2.1
 _ZN8casacore13ForwardColumn9getShortVEjPs@Base 3.2.1
 _ZN8casacore13ForwardColumn9getSliceVEjRKNS_6SlicerEPv@Base 3.2.1
 _ZN8casacore13ForwardColumn9getfloatVEjPf@Base 3.2.1
 _ZN8casacore13ForwardColumn9getuCharVEjPh@Base 3.2.1
 _ZN8casacore13ForwardColumn9putArrayVEjPKv@Base 3.2.1
 _ZN8casacore13ForwardColumn9putInt64VEjPKx@Base 3.2.1
 _ZN8casacore13ForwardColumn9putOtherVEjPKv@Base 3.2.1
 _ZN8casacore13ForwardColumn9putShortVEjPKs@Base 3.2.1
 _ZN8casacore13ForwardColumn9putSliceVEjRKNS_6SlicerEPKv@Base 3.2.1
 _ZN8casacore13ForwardColumn9putfloatVEjPKf@Base 3.2.1
 _ZN8casacore13ForwardColumn9putuCharVEjPKh@Base 3.2.1
 _ZN8casacore13ForwardColumnC1EPNS_19ForwardColumnEngineERKNS_6StringEiS5_RKNS_5TableE@Base 3.2.1
 _ZN8casacore13ForwardColumnC2EPNS_19ForwardColumnEngineERKNS_6StringEiS5_RKNS_5TableE@Base 3.2.1
 _ZN8casacore13ForwardColumnD0Ev@Base 3.2.1
 _ZN8casacore13ForwardColumnD1Ev@Base 3.2.1
 _ZN8casacore13ForwardColumnD2Ev@Base 3.2.1
 _ZN8casacore13GetCellSlicesINS_6StringEE5applyERKNS_6SlicerERNS_5ArrayIS1_EE@Base 3.2.1
 _ZN8casacore13GetCellSlicesINS_6StringEED0Ev@Base 3.2.1
 _ZN8casacore13GetCellSlicesINS_6StringEED1Ev@Base 3.2.1
 _ZN8casacore13GetCellSlicesINS_6StringEED2Ev@Base 3.2.1
 _ZN8casacore13GetCellSlicesISt7complexIdEE5applyERKNS_6SlicerERNS_5ArrayIS2_EE@Base 3.2.1
 _ZN8casacore13GetCellSlicesISt7complexIdEED0Ev@Base 3.2.1
 _ZN8casacore13GetCellSlicesISt7complexIdEED1Ev@Base 3.2.1
 _ZN8casacore13GetCellSlicesISt7complexIdEED2Ev@Base 3.2.1
 _ZN8casacore13GetCellSlicesISt7complexIfEE5applyERKNS_6SlicerERNS_5ArrayIS2_EE@Base 3.2.1
 _ZN8casacore13GetCellSlicesISt7complexIfEED0Ev@Base 3.2.1
 _ZN8casacore13GetCellSlicesISt7complexIfEED1Ev@Base 3.2.1
 _ZN8casacore13GetCellSlicesISt7complexIfEED2Ev@Base 3.2.1
 _ZN8casacore13GetCellSlicesIbE5applyERKNS_6SlicerERNS_5ArrayIbEE@Base 3.2.1
 _ZN8casacore13GetCellSlicesIbED0Ev@Base 3.2.1
 _ZN8casacore13GetCellSlicesIbED1Ev@Base 3.2.1
 _ZN8casacore13GetCellSlicesIbED2Ev@Base 3.2.1
 _ZN8casacore13GetCellSlicesIcE5applyERKNS_6SlicerERNS_5ArrayIcEE@Base 3.2.1
 _ZN8casacore13GetCellSlicesIcED0Ev@Base 3.2.1
 _ZN8casacore13GetCellSlicesIcED1Ev@Base 3.2.1
 _ZN8casacore13GetCellSlicesIcED2Ev@Base 3.2.1
 _ZN8casacore13GetCellSlicesIdE5applyERKNS_6SlicerERNS_5ArrayIdEE@Base 3.2.1
 _ZN8casacore13GetCellSlicesIdED0Ev@Base 3.2.1
 _ZN8casacore13GetCellSlicesIdED1Ev@Base 3.2.1
 _ZN8casacore13GetCellSlicesIdED2Ev@Base 3.2.1
 _ZN8casacore13GetCellSlicesIfE5applyERKNS_6SlicerERNS_5ArrayIfEE@Base 3.2.1
 _ZN8casacore13GetCellSlicesIfED0Ev@Base 3.2.1
 _ZN8casacore13GetCellSlicesIfED1Ev@Base 3.2.1
 _ZN8casacore13GetCellSlicesIfED2Ev@Base 3.2.1
 _ZN8casacore13GetCellSlicesIiE5applyERKNS_6SlicerERNS_5ArrayIiEE@Base 3.2.1
 _ZN8casacore13GetCellSlicesIiED0Ev@Base 3.2.1
 _ZN8casacore13GetCellSlicesIiED1Ev@Base 3.2.1
 _ZN8casacore13GetCellSlicesIiED2Ev@Base 3.2.1
 _ZN8casacore13GetCellSlicesIjE5applyERKNS_6SlicerERNS_5ArrayIjEE@Base 3.2.1
 _ZN8casacore13GetCellSlicesIjED0Ev@Base 3.2.1
 _ZN8casacore13GetCellSlicesIjED1Ev@Base 3.2.1
 _ZN8casacore13GetCellSlicesIjED2Ev@Base 3.2.1
 _ZN8casacore13GetCellSlicesIsE5applyERKNS_6SlicerERNS_5ArrayIsEE@Base 3.2.1
 _ZN8casacore13GetCellSlicesIsED0Ev@Base 3.2.1
 _ZN8casacore13GetCellSlicesIsED1Ev@Base 3.2.1
 _ZN8casacore13GetCellSlicesIsED2Ev@Base 3.2.1
 _ZN8casacore13GetCellSlicesItE5applyERKNS_6SlicerERNS_5ArrayItEE@Base 3.2.1
 _ZN8casacore13GetCellSlicesItED0Ev@Base 3.2.1
 _ZN8casacore13GetCellSlicesItED1Ev@Base 3.2.1
 _ZN8casacore13GetCellSlicesItED2Ev@Base 3.2.1
 _ZN8casacore13GetCellSlicesIxE5applyERKNS_6SlicerERNS_5ArrayIxEE@Base 3.2.1
 _ZN8casacore13GetCellSlicesIxED0Ev@Base 3.2.1
 _ZN8casacore13GetCellSlicesIxED1Ev@Base 3.2.1
 _ZN8casacore13GetCellSlicesIxED2Ev@Base 3.2.1
 _ZN8casacore13LogFilterExpr7matchesERKNS_10LogMessageE@Base 3.2.1
 _ZN8casacore13LogFilterExprC1ERKNS_6StringE@Base 3.2.1
 _ZN8casacore13LogFilterExprC1ERKS0_@Base 3.2.1
 _ZN8casacore13LogFilterExprC2ERKNS_6StringE@Base 3.2.1
 _ZN8casacore13LogFilterExprC2ERKS0_@Base 3.2.1
 _ZN8casacore13LogFilterExprD0Ev@Base 3.2.1
 _ZN8casacore13LogFilterExprD1Ev@Base 3.2.1
 _ZN8casacore13LogFilterExprD2Ev@Base 3.2.1
 _ZN8casacore13LogFilterExpraSERKS0_@Base 3.2.1
 _ZN8casacore13LogFilterTaqlC1ERKNS_6StringE@Base 3.2.1
 _ZN8casacore13LogFilterTaqlC1ERKS0_@Base 3.2.1
 _ZN8casacore13LogFilterTaqlC2ERKNS_6StringE@Base 3.2.1
 _ZN8casacore13LogFilterTaqlC2ERKS0_@Base 3.2.1
 _ZN8casacore13LogFilterTaqlD0Ev@Base 3.2.1
 _ZN8casacore13LogFilterTaqlD1Ev@Base 3.2.1
 _ZN8casacore13LogFilterTaqlD2Ev@Base 3.2.1
 _ZN8casacore13LogFilterTaqlaSERKS0_@Base 3.2.1
 _ZN8casacore13LogHolderIter4nextEv@Base 3.2.1
 _ZN8casacore13LogHolderIterC1EPKNS_12LoggerHolderE@Base 3.2.1
 _ZN8casacore13LogHolderIterC2EPKNS_12LoggerHolderE@Base 3.2.1
 _ZN8casacore13LogHolderIterD1Ev@Base 3.2.1
 _ZN8casacore13LogHolderIterD2Ev@Base 3.2.1
 _ZN8casacore13MFractileFuncIdED0Ev@Base 3.2.1
 _ZN8casacore13MFractileFuncIdED1Ev@Base 3.2.1
 _ZN8casacore13MFractileFuncIdED2Ev@Base 3.2.1
 _ZN8casacore13MVarianceFuncISt7complexIdEED0Ev@Base 3.2.1
 _ZN8casacore13MVarianceFuncISt7complexIdEED1Ev@Base 3.2.1
 _ZN8casacore13MVarianceFuncISt7complexIdEED2Ev@Base 3.2.1
 _ZN8casacore13MVarianceFuncIdED0Ev@Base 3.2.1
 _ZN8casacore13MVarianceFuncIdED1Ev@Base 3.2.1
 _ZN8casacore13MVarianceFuncIdED2Ev@Base 3.2.1
 _ZN8casacore13PutCellSlicesINS_6StringEE5applyERKNS_6SlicerERNS_5ArrayIS1_EE@Base 3.2.1
 _ZN8casacore13PutCellSlicesINS_6StringEED0Ev@Base 3.2.1
 _ZN8casacore13PutCellSlicesINS_6StringEED1Ev@Base 3.2.1
 _ZN8casacore13PutCellSlicesINS_6StringEED2Ev@Base 3.2.1
 _ZN8casacore13PutCellSlicesISt7complexIdEE5applyERKNS_6SlicerERNS_5ArrayIS2_EE@Base 3.2.1
 _ZN8casacore13PutCellSlicesISt7complexIdEED0Ev@Base 3.2.1
 _ZN8casacore13PutCellSlicesISt7complexIdEED1Ev@Base 3.2.1
 _ZN8casacore13PutCellSlicesISt7complexIdEED2Ev@Base 3.2.1
 _ZN8casacore13PutCellSlicesISt7complexIfEE5applyERKNS_6SlicerERNS_5ArrayIS2_EE@Base 3.2.1
 _ZN8casacore13PutCellSlicesISt7complexIfEED0Ev@Base 3.2.1
 _ZN8casacore13PutCellSlicesISt7complexIfEED1Ev@Base 3.2.1
 _ZN8casacore13PutCellSlicesISt7complexIfEED2Ev@Base 3.2.1
 _ZN8casacore13PutCellSlicesIbE5applyERKNS_6SlicerERNS_5ArrayIbEE@Base 3.2.1
 _ZN8casacore13PutCellSlicesIbED0Ev@Base 3.2.1
 _ZN8casacore13PutCellSlicesIbED1Ev@Base 3.2.1
 _ZN8casacore13PutCellSlicesIbED2Ev@Base 3.2.1
 _ZN8casacore13PutCellSlicesIcE5applyERKNS_6SlicerERNS_5ArrayIcEE@Base 3.2.1
 _ZN8casacore13PutCellSlicesIcED0Ev@Base 3.2.1
 _ZN8casacore13PutCellSlicesIcED1Ev@Base 3.2.1
 _ZN8casacore13PutCellSlicesIcED2Ev@Base 3.2.1
 _ZN8casacore13PutCellSlicesIdE5applyERKNS_6SlicerERNS_5ArrayIdEE@Base 3.2.1
 _ZN8casacore13PutCellSlicesIdED0Ev@Base 3.2.1
 _ZN8casacore13PutCellSlicesIdED1Ev@Base 3.2.1
 _ZN8casacore13PutCellSlicesIdED2Ev@Base 3.2.1
 _ZN8casacore13PutCellSlicesIfE5applyERKNS_6SlicerERNS_5ArrayIfEE@Base 3.2.1
 _ZN8casacore13PutCellSlicesIfED0Ev@Base 3.2.1
 _ZN8casacore13PutCellSlicesIfED1Ev@Base 3.2.1
 _ZN8casacore13PutCellSlicesIfED2Ev@Base 3.2.1
 _ZN8casacore13PutCellSlicesIiE5applyERKNS_6SlicerERNS_5ArrayIiEE@Base 3.2.1
 _ZN8casacore13PutCellSlicesIiED0Ev@Base 3.2.1
 _ZN8casacore13PutCellSlicesIiED1Ev@Base 3.2.1
 _ZN8casacore13PutCellSlicesIiED2Ev@Base 3.2.1
 _ZN8casacore13PutCellSlicesIjE5applyERKNS_6SlicerERNS_5ArrayIjEE@Base 3.2.1
 _ZN8casacore13PutCellSlicesIjED0Ev@Base 3.2.1
 _ZN8casacore13PutCellSlicesIjED1Ev@Base 3.2.1
 _ZN8casacore13PutCellSlicesIjED2Ev@Base 3.2.1
 _ZN8casacore13PutCellSlicesIsE5applyERKNS_6SlicerERNS_5ArrayIsEE@Base 3.2.1
 _ZN8casacore13PutCellSlicesIsED0Ev@Base 3.2.1
 _ZN8casacore13PutCellSlicesIsED1Ev@Base 3.2.1
 _ZN8casacore13PutCellSlicesIsED2Ev@Base 3.2.1
 _ZN8casacore13PutCellSlicesItE5applyERKNS_6SlicerERNS_5ArrayItEE@Base 3.2.1
 _ZN8casacore13PutCellSlicesItED0Ev@Base 3.2.1
 _ZN8casacore13PutCellSlicesItED1Ev@Base 3.2.1
 _ZN8casacore13PutCellSlicesItED2Ev@Base 3.2.1
 _ZN8casacore13PutCellSlicesIxE5applyERKNS_6SlicerERNS_5ArrayIxEE@Base 3.2.1
 _ZN8casacore13PutCellSlicesIxED0Ev@Base 3.2.1
 _ZN8casacore13PutCellSlicesIxED1Ev@Base 3.2.1
 _ZN8casacore13PutCellSlicesIxED2Ev@Base 3.2.1
 _ZN8casacore13SetupNewTableC1ERKNS_6StringERKNS_9TableDescENS_5Table11TableOptionERKNS_13StorageOptionE@Base 3.2.1
 _ZN8casacore13SetupNewTableC1ERKNS_6StringES3_NS_5Table11TableOptionERKNS_13StorageOptionE@Base 3.2.1
 _ZN8casacore13SetupNewTableC1ERKS0_@Base 3.2.1
 _ZN8casacore13SetupNewTableC2ERKNS_6StringERKNS_9TableDescENS_5Table11TableOptionERKNS_13StorageOptionE@Base 3.2.1
 _ZN8casacore13SetupNewTableC2ERKNS_6StringES3_NS_5Table11TableOptionERKNS_13StorageOptionE@Base 3.2.1
 _ZN8casacore13SetupNewTableC2ERKS0_@Base 3.2.1
 _ZN8casacore13SetupNewTableD1Ev@Base 3.2.1
 _ZN8casacore13SetupNewTableD2Ev@Base 3.2.1
 _ZN8casacore13SetupNewTableaSERKS0_@Base 3.2.1
 _ZN8casacore13StandardStManC1ERKNS_6StringEij@Base 3.2.1
 _ZN8casacore13StandardStManC1Eij@Base 3.2.1
 _ZN8casacore13StandardStManC2ERKNS_6StringEij@Base 3.2.1
 _ZN8casacore13StandardStManC2Eij@Base 3.2.1
 _ZN8casacore13StandardStManD0Ev@Base 3.2.1
 _ZN8casacore13StandardStManD1Ev@Base 3.2.1
 _ZN8casacore13StandardStManD2Ev@Base 3.2.1
 _ZN8casacore13StorageOption10fillOptionEv@Base 3.2.1
 _ZN8casacore13StorageOption13setUseODirectEb@Base 3.2.1
 _ZN8casacore13StorageOptionC1ENS0_6OptionEii@Base 3.2.1
 _ZN8casacore13StorageOptionC2ENS0_6OptionEii@Base 3.2.1
 _ZN8casacore13TSMDataColumn10accessCellEjPKvb@Base 3.2.1
 _ZN8casacore13TSMDataColumn10getdoubleVEjPd@Base 3.2.1
 _ZN8casacore13TSMDataColumn10getuShortVEjPt@Base 3.2.1
 _ZN8casacore13TSMDataColumn10putdoubleVEjPKd@Base 3.2.1
 _ZN8casacore13TSMDataColumn10putuShortVEjPKt@Base 3.2.1
 _ZN8casacore13TSMDataColumn11getComplexVEjPSt7complexIfE@Base 3.2.1
 _ZN8casacore13TSMDataColumn11putComplexVEjPKSt7complexIfE@Base 3.2.1
 _ZN8casacore13TSMDataColumn12accessColumnEPKvb@Base 3.2.1
 _ZN8casacore13TSMDataColumn12getArrayIntVEjPNS_5ArrayIiEE@Base 3.2.1
 _ZN8casacore13TSMDataColumn12getDComplexVEjPSt7complexIdE@Base 3.2.1
 _ZN8casacore13TSMDataColumn12getSliceIntVEjRKNS_6SlicerEPNS_5ArrayIiEE@Base 3.2.1
 _ZN8casacore13TSMDataColumn12putArrayIntVEjPKNS_5ArrayIiEE@Base 3.2.1
 _ZN8casacore13TSMDataColumn12putDComplexVEjPKSt7complexIdE@Base 3.2.1
 _ZN8casacore13TSMDataColumn12putSliceIntVEjRKNS_6SlicerEPKNS_5ArrayIiEE@Base 3.2.1
 _ZN8casacore13TSMDataColumn13getArrayBoolVEjPNS_5ArrayIbEE@Base 3.2.1
 _ZN8casacore13TSMDataColumn13getArrayuIntVEjPNS_5ArrayIjEE@Base 3.2.1
 _ZN8casacore13TSMDataColumn13getSliceBoolVEjRKNS_6SlicerEPNS_5ArrayIbEE@Base 3.2.1
 _ZN8casacore13TSMDataColumn13getSliceuIntVEjRKNS_6SlicerEPNS_5ArrayIjEE@Base 3.2.1
 _ZN8casacore13TSMDataColumn13putArrayBoolVEjPKNS_5ArrayIbEE@Base 3.2.1
 _ZN8casacore13TSMDataColumn13putArrayuIntVEjPKNS_5ArrayIjEE@Base 3.2.1
 _ZN8casacore13TSMDataColumn13putSliceBoolVEjRKNS_6SlicerEPKNS_5ArrayIbEE@Base 3.2.1
 _ZN8casacore13TSMDataColumn13putSliceuIntVEjRKNS_6SlicerEPKNS_5ArrayIjEE@Base 3.2.1
 _ZN8casacore13TSMDataColumn13setShapeTiledEjRKNS_9IPositionES3_@Base 3.2.1
 _ZN8casacore13TSMDataColumn14getArrayInt64VEjPNS_5ArrayIxEE@Base 3.2.1
 _ZN8casacore13TSMDataColumn14getArrayShortVEjPNS_5ArrayIsEE@Base 3.2.1
 _ZN8casacore13TSMDataColumn14getArrayfloatVEjPNS_5ArrayIfEE@Base 3.2.1
 _ZN8casacore13TSMDataColumn14getArrayuCharVEjPNS_5ArrayIhEE@Base 3.2.1
 _ZN8casacore13TSMDataColumn14getSliceInt64VEjRKNS_6SlicerEPNS_5ArrayIxEE@Base 3.2.1
 _ZN8casacore13TSMDataColumn14getSliceShortVEjRKNS_6SlicerEPNS_5ArrayIsEE@Base 3.2.1
 _ZN8casacore13TSMDataColumn14getSlicefloatVEjRKNS_6SlicerEPNS_5ArrayIfEE@Base 3.2.1
 _ZN8casacore13TSMDataColumn14getSliceuCharVEjRKNS_6SlicerEPNS_5ArrayIhEE@Base 3.2.1
 _ZN8casacore13TSMDataColumn14isShapeDefinedEj@Base 3.2.1
 _ZN8casacore13TSMDataColumn14putArrayInt64VEjPKNS_5ArrayIxEE@Base 3.2.1
 _ZN8casacore13TSMDataColumn14putArrayShortVEjPKNS_5ArrayIsEE@Base 3.2.1
 _ZN8casacore13TSMDataColumn14putArrayfloatVEjPKNS_5ArrayIfEE@Base 3.2.1
 _ZN8casacore13TSMDataColumn14putArrayuCharVEjPKNS_5ArrayIhEE@Base 3.2.1
 _ZN8casacore13TSMDataColumn14putSliceInt64VEjRKNS_6SlicerEPKNS_5ArrayIxEE@Base 3.2.1
 _ZN8casacore13TSMDataColumn14putSliceShortVEjRKNS_6SlicerEPKNS_5ArrayIsEE@Base 3.2.1
 _ZN8casacore13TSMDataColumn14putSlicefloatVEjRKNS_6SlicerEPKNS_5ArrayIfEE@Base 3.2.1
 _ZN8casacore13TSMDataColumn14putSliceuCharVEjRKNS_6SlicerEPKNS_5ArrayIhEE@Base 3.2.1
 _ZN8casacore13TSMDataColumn15accessCellSliceEjRKNS_6SlicerEPKvb@Base 3.2.1
 _ZN8casacore13TSMDataColumn15accessFullCellsEPNS_7TSMCubeEPcbRKNS_9IPositionES6_S6_@Base 3.2.1
 _ZN8casacore13TSMDataColumn15getArraydoubleVEjPNS_5ArrayIdEE@Base 3.2.1
 _ZN8casacore13TSMDataColumn15getArrayuShortVEjPNS_5ArrayItEE@Base 3.2.1
 _ZN8casacore13TSMDataColumn15getSlicedoubleVEjRKNS_6SlicerEPNS_5ArrayIdEE@Base 3.2.1
 _ZN8casacore13TSMDataColumn15getSliceuShortVEjRKNS_6SlicerEPNS_5ArrayItEE@Base 3.2.1
 _ZN8casacore13TSMDataColumn15putArraydoubleVEjPKNS_5ArrayIdEE@Base 3.2.1
 _ZN8casacore13TSMDataColumn15putArrayuShortVEjPKNS_5ArrayItEE@Base 3.2.1
 _ZN8casacore13TSMDataColumn15putSlicedoubleVEjRKNS_6SlicerEPKNS_5ArrayIdEE@Base 3.2.1
 _ZN8casacore13TSMDataColumn15putSliceuShortVEjRKNS_6SlicerEPKNS_5ArrayItEE@Base 3.2.1
 _ZN8casacore13TSMDataColumn16getArrayComplexVEjPNS_5ArrayISt7complexIfEEE@Base 3.2.1
 _ZN8casacore13TSMDataColumn16getSliceComplexVEjRKNS_6SlicerEPNS_5ArrayISt7complexIfEEE@Base 3.2.1
 _ZN8casacore13TSMDataColumn16putArrayComplexVEjPKNS_5ArrayISt7complexIfEEE@Base 3.2.1
 _ZN8casacore13TSMDataColumn16putSliceComplexVEjRKNS_6SlicerEPKNS_5ArrayISt7complexIfEEE@Base 3.2.1
 _ZN8casacore13TSMDataColumn17accessColumnCellsERKNS_7RefRowsERKNS_9IPositionEPKvb@Base 3.2.1
 _ZN8casacore13TSMDataColumn17accessColumnSliceERKNS_6SlicerEPKvb@Base 3.2.1
 _ZN8casacore13TSMDataColumn17accessSlicedCellsEPNS_7TSMCubeEPcbRKNS_9IPositionES6_S6_@Base 3.2.1
 _ZN8casacore13TSMDataColumn17getArrayDComplexVEjPNS_5ArrayISt7complexIdEEE@Base 3.2.1
 _ZN8casacore13TSMDataColumn17getSliceDComplexVEjRKNS_6SlicerEPNS_5ArrayISt7complexIdEEE@Base 3.2.1
 _ZN8casacore13TSMDataColumn17putArrayDComplexVEjPKNS_5ArrayISt7complexIdEEE@Base 3.2.1
 _ZN8casacore13TSMDataColumn17putSliceDComplexVEjRKNS_6SlicerEPKNS_5ArrayISt7complexIdEEE@Base 3.2.1
 _ZN8casacore13TSMDataColumn18getArrayColumnIntVEPNS_5ArrayIiEE@Base 3.2.1
 _ZN8casacore13TSMDataColumn18getColumnSliceIntVERKNS_6SlicerEPNS_5ArrayIiEE@Base 3.2.1
 _ZN8casacore13TSMDataColumn18putArrayColumnIntVEPKNS_5ArrayIiEE@Base 3.2.1
 _ZN8casacore13TSMDataColumn18putColumnSliceIntVERKNS_6SlicerEPKNS_5ArrayIiEE@Base 3.2.1
 _ZN8casacore13TSMDataColumn19getArrayColumnBoolVEPNS_5ArrayIbEE@Base 3.2.1
 _ZN8casacore13TSMDataColumn19getArrayColumnuIntVEPNS_5ArrayIjEE@Base 3.2.1
 _ZN8casacore13TSMDataColumn19getColumnSliceBoolVERKNS_6SlicerEPNS_5ArrayIbEE@Base 3.2.1
 _ZN8casacore13TSMDataColumn19getColumnSliceuIntVERKNS_6SlicerEPNS_5ArrayIjEE@Base 3.2.1
 _ZN8casacore13TSMDataColumn19getScalarColumnIntVEPNS_6VectorIiEE@Base 3.2.1
 _ZN8casacore13TSMDataColumn19putArrayColumnBoolVEPKNS_5ArrayIbEE@Base 3.2.1
 _ZN8casacore13TSMDataColumn19putArrayColumnuIntVEPKNS_5ArrayIjEE@Base 3.2.1
 _ZN8casacore13TSMDataColumn19putColumnSliceBoolVERKNS_6SlicerEPKNS_5ArrayIbEE@Base 3.2.1
 _ZN8casacore13TSMDataColumn19putColumnSliceuIntVERKNS_6SlicerEPKNS_5ArrayIjEE@Base 3.2.1
 _ZN8casacore13TSMDataColumn19putScalarColumnIntVEPKNS_6VectorIiEE@Base 3.2.1
 _ZN8casacore13TSMDataColumn20getArrayColumnInt64VEPNS_5ArrayIxEE@Base 3.2.1
 _ZN8casacore13TSMDataColumn20getArrayColumnShortVEPNS_5ArrayIsEE@Base 3.2.1
 _ZN8casacore13TSMDataColumn20getArrayColumnfloatVEPNS_5ArrayIfEE@Base 3.2.1
 _ZN8casacore13TSMDataColumn20getArrayColumnuCharVEPNS_5ArrayIhEE@Base 3.2.1
 _ZN8casacore13TSMDataColumn20getColumnSliceInt64VERKNS_6SlicerEPNS_5ArrayIxEE@Base 3.2.1
 _ZN8casacore13TSMDataColumn20getColumnSliceShortVERKNS_6SlicerEPNS_5ArrayIsEE@Base 3.2.1
 _ZN8casacore13TSMDataColumn20getColumnSlicefloatVERKNS_6SlicerEPNS_5ArrayIfEE@Base 3.2.1
 _ZN8casacore13TSMDataColumn20getColumnSliceuCharVERKNS_6SlicerEPNS_5ArrayIhEE@Base 3.2.1
 _ZN8casacore13TSMDataColumn20getScalarColumnBoolVEPNS_6VectorIbEE@Base 3.2.1
 _ZN8casacore13TSMDataColumn20getScalarColumnuIntVEPNS_6VectorIjEE@Base 3.2.1
 _ZN8casacore13TSMDataColumn20putArrayColumnInt64VEPKNS_5ArrayIxEE@Base 3.2.1
 _ZN8casacore13TSMDataColumn20putArrayColumnShortVEPKNS_5ArrayIsEE@Base 3.2.1
 _ZN8casacore13TSMDataColumn20putArrayColumnfloatVEPKNS_5ArrayIfEE@Base 3.2.1
 _ZN8casacore13TSMDataColumn20putArrayColumnuCharVEPKNS_5ArrayIhEE@Base 3.2.1
 _ZN8casacore13TSMDataColumn20putColumnSliceInt64VERKNS_6SlicerEPKNS_5ArrayIxEE@Base 3.2.1
 _ZN8casacore13TSMDataColumn20putColumnSliceShortVERKNS_6SlicerEPKNS_5ArrayIsEE@Base 3.2.1
 _ZN8casacore13TSMDataColumn20putColumnSlicefloatVERKNS_6SlicerEPKNS_5ArrayIfEE@Base 3.2.1
 _ZN8casacore13TSMDataColumn20putColumnSliceuCharVERKNS_6SlicerEPKNS_5ArrayIhEE@Base 3.2.1
 _ZN8casacore13TSMDataColumn20putScalarColumnBoolVEPKNS_6VectorIbEE@Base 3.2.1
 _ZN8casacore13TSMDataColumn20putScalarColumnuIntVEPKNS_6VectorIjEE@Base 3.2.1
 _ZN8casacore13TSMDataColumn21getArrayColumndoubleVEPNS_5ArrayIdEE@Base 3.2.1
 _ZN8casacore13TSMDataColumn21getArrayColumnuShortVEPNS_5ArrayItEE@Base 3.2.1
 _ZN8casacore13TSMDataColumn21getColumnSlicedoubleVERKNS_6SlicerEPNS_5ArrayIdEE@Base 3.2.1
 _ZN8casacore13TSMDataColumn21getColumnSliceuShortVERKNS_6SlicerEPNS_5ArrayItEE@Base 3.2.1
 _ZN8casacore13TSMDataColumn21getScalarColumnInt64VEPNS_6VectorIxEE@Base 3.2.1
 _ZN8casacore13TSMDataColumn21getScalarColumnShortVEPNS_6VectorIsEE@Base 3.2.1
 _ZN8casacore13TSMDataColumn21getScalarColumnfloatVEPNS_6VectorIfEE@Base 3.2.1
 _ZN8casacore13TSMDataColumn21getScalarColumnuCharVEPNS_6VectorIhEE@Base 3.2.1
 _ZN8casacore13TSMDataColumn21putArrayColumndoubleVEPKNS_5ArrayIdEE@Base 3.2.1
 _ZN8casacore13TSMDataColumn21putArrayColumnuShortVEPKNS_5ArrayItEE@Base 3.2.1
 _ZN8casacore13TSMDataColumn21putColumnSlicedoubleVERKNS_6SlicerEPKNS_5ArrayIdEE@Base 3.2.1
 _ZN8casacore13TSMDataColumn21putColumnSliceuShortVERKNS_6SlicerEPKNS_5ArrayItEE@Base 3.2.1
 _ZN8casacore13TSMDataColumn21putScalarColumnInt64VEPKNS_6VectorIxEE@Base 3.2.1
 _ZN8casacore13TSMDataColumn21putScalarColumnShortVEPKNS_6VectorIsEE@Base 3.2.1
 _ZN8casacore13TSMDataColumn21putScalarColumnfloatVEPKNS_6VectorIfEE@Base 3.2.1
 _ZN8casacore13TSMDataColumn21putScalarColumnuCharVEPKNS_6VectorIhEE@Base 3.2.1
 _ZN8casacore13TSMDataColumn22accessColumnSliceCellsERKNS_7RefRowsERKNS_6SlicerERKNS_9IPositionEPKvb@Base 3.2.1
 _ZN8casacore13TSMDataColumn22getArrayColumnComplexVEPNS_5ArrayISt7complexIfEEE@Base 3.2.1
 _ZN8casacore13TSMDataColumn22getColumnSliceComplexVERKNS_6SlicerEPNS_5ArrayISt7complexIfEEE@Base 3.2.1
 _ZN8casacore13TSMDataColumn22getScalarColumndoubleVEPNS_6VectorIdEE@Base 3.2.1
 _ZN8casacore13TSMDataColumn22getScalarColumnuShortVEPNS_6VectorItEE@Base 3.2.1
 _ZN8casacore13TSMDataColumn22putArrayColumnComplexVEPKNS_5ArrayISt7complexIfEEE@Base 3.2.1
 _ZN8casacore13TSMDataColumn22putColumnSliceComplexVERKNS_6SlicerEPKNS_5ArrayISt7complexIfEEE@Base 3.2.1
 _ZN8casacore13TSMDataColumn22putScalarColumndoubleVEPKNS_6VectorIdEE@Base 3.2.1
 _ZN8casacore13TSMDataColumn22putScalarColumnuShortVEPKNS_6VectorItEE@Base 3.2.1
 _ZN8casacore13TSMDataColumn23getArrayColumnCellsIntVERKNS_7RefRowsEPNS_5ArrayIiEE@Base 3.2.1
 _ZN8casacore13TSMDataColumn23getArrayColumnDComplexVEPNS_5ArrayISt7complexIdEEE@Base 3.2.1
 _ZN8casacore13TSMDataColumn23getColumnSliceCellsIntVERKNS_7RefRowsERKNS_6SlicerEPNS_5ArrayIiEE@Base 3.2.1
 _ZN8casacore13TSMDataColumn23getColumnSliceDComplexVERKNS_6SlicerEPNS_5ArrayISt7complexIdEEE@Base 3.2.1
 _ZN8casacore13TSMDataColumn23getScalarColumnComplexVEPNS_6VectorISt7complexIfEEE@Base 3.2.1
 _ZN8casacore13TSMDataColumn23putArrayColumnCellsIntVERKNS_7RefRowsEPKNS_5ArrayIiEE@Base 3.2.1
 _ZN8casacore13TSMDataColumn23putArrayColumnDComplexVEPKNS_5ArrayISt7complexIdEEE@Base 3.2.1
 _ZN8casacore13TSMDataColumn23putColumnSliceCellsIntVERKNS_7RefRowsERKNS_6SlicerEPKNS_5ArrayIiEE@Base 3.2.1
 _ZN8casacore13TSMDataColumn23putColumnSliceDComplexVERKNS_6SlicerEPKNS_5ArrayISt7complexIdEEE@Base 3.2.1
 _ZN8casacore13TSMDataColumn23putScalarColumnComplexVEPKNS_6VectorISt7complexIfEEE@Base 3.2.1
 _ZN8casacore13TSMDataColumn24getArrayColumnCellsBoolVERKNS_7RefRowsEPNS_5ArrayIbEE@Base 3.2.1
 _ZN8casacore13TSMDataColumn24getArrayColumnCellsuIntVERKNS_7RefRowsEPNS_5ArrayIjEE@Base 3.2.1
 _ZN8casacore13TSMDataColumn24getColumnSliceCellsBoolVERKNS_7RefRowsERKNS_6SlicerEPNS_5ArrayIbEE@Base 3.2.1
 _ZN8casacore13TSMDataColumn24getColumnSliceCellsuIntVERKNS_7RefRowsERKNS_6SlicerEPNS_5ArrayIjEE@Base 3.2.1
 _ZN8casacore13TSMDataColumn24getScalarColumnCellsIntVERKNS_7RefRowsEPNS_6VectorIiEE@Base 3.2.1
 _ZN8casacore13TSMDataColumn24getScalarColumnDComplexVEPNS_6VectorISt7complexIdEEE@Base 3.2.1
 _ZN8casacore13TSMDataColumn24putArrayColumnCellsBoolVERKNS_7RefRowsEPKNS_5ArrayIbEE@Base 3.2.1
 _ZN8casacore13TSMDataColumn24putArrayColumnCellsuIntVERKNS_7RefRowsEPKNS_5ArrayIjEE@Base 3.2.1
 _ZN8casacore13TSMDataColumn24putColumnSliceCellsBoolVERKNS_7RefRowsERKNS_6SlicerEPKNS_5ArrayIbEE@Base 3.2.1
 _ZN8casacore13TSMDataColumn24putColumnSliceCellsuIntVERKNS_7RefRowsERKNS_6SlicerEPKNS_5ArrayIjEE@Base 3.2.1
 _ZN8casacore13TSMDataColumn24putScalarColumnCellsIntVERKNS_7RefRowsEPKNS_6VectorIiEE@Base 3.2.1
 _ZN8casacore13TSMDataColumn24putScalarColumnDComplexVEPKNS_6VectorISt7complexIdEEE@Base 3.2.1
 _ZN8casacore13TSMDataColumn25getArrayColumnCellsInt64VERKNS_7RefRowsEPNS_5ArrayIxEE@Base 3.2.1
 _ZN8casacore13TSMDataColumn25getArrayColumnCellsShortVERKNS_7RefRowsEPNS_5ArrayIsEE@Base 3.2.1
 _ZN8casacore13TSMDataColumn25getArrayColumnCellsfloatVERKNS_7RefRowsEPNS_5ArrayIfEE@Base 3.2.1
 _ZN8casacore13TSMDataColumn25getArrayColumnCellsuCharVERKNS_7RefRowsEPNS_5ArrayIhEE@Base 3.2.1
 _ZN8casacore13TSMDataColumn25getColumnSliceCellsInt64VERKNS_7RefRowsERKNS_6SlicerEPNS_5ArrayIxEE@Base 3.2.1
 _ZN8casacore13TSMDataColumn25getColumnSliceCellsShortVERKNS_7RefRowsERKNS_6SlicerEPNS_5ArrayIsEE@Base 3.2.1
 _ZN8casacore13TSMDataColumn25getColumnSliceCellsfloatVERKNS_7RefRowsERKNS_6SlicerEPNS_5ArrayIfEE@Base 3.2.1
 _ZN8casacore13TSMDataColumn25getColumnSliceCellsuCharVERKNS_7RefRowsERKNS_6SlicerEPNS_5ArrayIhEE@Base 3.2.1
 _ZN8casacore13TSMDataColumn25getScalarColumnCellsBoolVERKNS_7RefRowsEPNS_6VectorIbEE@Base 3.2.1
 _ZN8casacore13TSMDataColumn25getScalarColumnCellsuIntVERKNS_7RefRowsEPNS_6VectorIjEE@Base 3.2.1
 _ZN8casacore13TSMDataColumn25putArrayColumnCellsInt64VERKNS_7RefRowsEPKNS_5ArrayIxEE@Base 3.2.1
 _ZN8casacore13TSMDataColumn25putArrayColumnCellsShortVERKNS_7RefRowsEPKNS_5ArrayIsEE@Base 3.2.1
 _ZN8casacore13TSMDataColumn25putArrayColumnCellsfloatVERKNS_7RefRowsEPKNS_5ArrayIfEE@Base 3.2.1
 _ZN8casacore13TSMDataColumn25putArrayColumnCellsuCharVERKNS_7RefRowsEPKNS_5ArrayIhEE@Base 3.2.1
 _ZN8casacore13TSMDataColumn25putColumnSliceCellsInt64VERKNS_7RefRowsERKNS_6SlicerEPKNS_5ArrayIxEE@Base 3.2.1
 _ZN8casacore13TSMDataColumn25putColumnSliceCellsShortVERKNS_7RefRowsERKNS_6SlicerEPKNS_5ArrayIsEE@Base 3.2.1
 _ZN8casacore13TSMDataColumn25putColumnSliceCellsfloatVERKNS_7RefRowsERKNS_6SlicerEPKNS_5ArrayIfEE@Base 3.2.1
 _ZN8casacore13TSMDataColumn25putColumnSliceCellsuCharVERKNS_7RefRowsERKNS_6SlicerEPKNS_5ArrayIhEE@Base 3.2.1
 _ZN8casacore13TSMDataColumn25putScalarColumnCellsBoolVERKNS_7RefRowsEPKNS_6VectorIbEE@Base 3.2.1
 _ZN8casacore13TSMDataColumn25putScalarColumnCellsuIntVERKNS_7RefRowsEPKNS_6VectorIjEE@Base 3.2.1
 _ZN8casacore13TSMDataColumn26getArrayColumnCellsdoubleVERKNS_7RefRowsEPNS_5ArrayIdEE@Base 3.2.1
 _ZN8casacore13TSMDataColumn26getArrayColumnCellsuShortVERKNS_7RefRowsEPNS_5ArrayItEE@Base 3.2.1
 _ZN8casacore13TSMDataColumn26getColumnSliceCellsdoubleVERKNS_7RefRowsERKNS_6SlicerEPNS_5ArrayIdEE@Base 3.2.1
 _ZN8casacore13TSMDataColumn26getColumnSliceCellsuShortVERKNS_7RefRowsERKNS_6SlicerEPNS_5ArrayItEE@Base 3.2.1
 _ZN8casacore13TSMDataColumn26getScalarColumnCellsInt64VERKNS_7RefRowsEPNS_6VectorIxEE@Base 3.2.1
 _ZN8casacore13TSMDataColumn26getScalarColumnCellsShortVERKNS_7RefRowsEPNS_6VectorIsEE@Base 3.2.1
 _ZN8casacore13TSMDataColumn26getScalarColumnCellsfloatVERKNS_7RefRowsEPNS_6VectorIfEE@Base 3.2.1
 _ZN8casacore13TSMDataColumn26getScalarColumnCellsuCharVERKNS_7RefRowsEPNS_6VectorIhEE@Base 3.2.1
 _ZN8casacore13TSMDataColumn26putArrayColumnCellsdoubleVERKNS_7RefRowsEPKNS_5ArrayIdEE@Base 3.2.1
 _ZN8casacore13TSMDataColumn26putArrayColumnCellsuShortVERKNS_7RefRowsEPKNS_5ArrayItEE@Base 3.2.1
 _ZN8casacore13TSMDataColumn26putColumnSliceCellsdoubleVERKNS_7RefRowsERKNS_6SlicerEPKNS_5ArrayIdEE@Base 3.2.1
 _ZN8casacore13TSMDataColumn26putColumnSliceCellsuShortVERKNS_7RefRowsERKNS_6SlicerEPKNS_5ArrayItEE@Base 3.2.1
 _ZN8casacore13TSMDataColumn26putScalarColumnCellsInt64VERKNS_7RefRowsEPKNS_6VectorIxEE@Base 3.2.1
 _ZN8casacore13TSMDataColumn26putScalarColumnCellsShortVERKNS_7RefRowsEPKNS_6VectorIsEE@Base 3.2.1
 _ZN8casacore13TSMDataColumn26putScalarColumnCellsfloatVERKNS_7RefRowsEPKNS_6VectorIfEE@Base 3.2.1
 _ZN8casacore13TSMDataColumn26putScalarColumnCellsuCharVERKNS_7RefRowsEPKNS_6VectorIhEE@Base 3.2.1
 _ZN8casacore13TSMDataColumn27getArrayColumnCellsComplexVERKNS_7RefRowsEPNS_5ArrayISt7complexIfEEE@Base 3.2.1
 _ZN8casacore13TSMDataColumn27getColumnSliceCellsComplexVERKNS_7RefRowsERKNS_6SlicerEPNS_5ArrayISt7complexIfEEE@Base 3.2.1
 _ZN8casacore13TSMDataColumn27getScalarColumnCellsdoubleVERKNS_7RefRowsEPNS_6VectorIdEE@Base 3.2.1
 _ZN8casacore13TSMDataColumn27getScalarColumnCellsuShortVERKNS_7RefRowsEPNS_6VectorItEE@Base 3.2.1
 _ZN8casacore13TSMDataColumn27putArrayColumnCellsComplexVERKNS_7RefRowsEPKNS_5ArrayISt7complexIfEEE@Base 3.2.1
 _ZN8casacore13TSMDataColumn27putColumnSliceCellsComplexVERKNS_7RefRowsERKNS_6SlicerEPKNS_5ArrayISt7complexIfEEE@Base 3.2.1
 _ZN8casacore13TSMDataColumn27putScalarColumnCellsdoubleVERKNS_7RefRowsEPKNS_6VectorIdEE@Base 3.2.1
 _ZN8casacore13TSMDataColumn27putScalarColumnCellsuShortVERKNS_7RefRowsEPKNS_6VectorItEE@Base 3.2.1
 _ZN8casacore13TSMDataColumn28getArrayColumnCellsDComplexVERKNS_7RefRowsEPNS_5ArrayISt7complexIdEEE@Base 3.2.1
 _ZN8casacore13TSMDataColumn28getColumnSliceCellsDComplexVERKNS_7RefRowsERKNS_6SlicerEPNS_5ArrayISt7complexIdEEE@Base 3.2.1
 _ZN8casacore13TSMDataColumn28getScalarColumnCellsComplexVERKNS_7RefRowsEPNS_6VectorISt7complexIfEEE@Base 3.2.1
 _ZN8casacore13TSMDataColumn28putArrayColumnCellsDComplexVERKNS_7RefRowsEPKNS_5ArrayISt7complexIdEEE@Base 3.2.1
 _ZN8casacore13TSMDataColumn28putColumnSliceCellsDComplexVERKNS_7RefRowsERKNS_6SlicerEPKNS_5ArrayISt7complexIdEEE@Base 3.2.1
 _ZN8casacore13TSMDataColumn28putScalarColumnCellsComplexVERKNS_7RefRowsEPKNS_6VectorISt7complexIfEEE@Base 3.2.1
 _ZN8casacore13TSMDataColumn29getScalarColumnCellsDComplexVERKNS_7RefRowsEPNS_6VectorISt7complexIdEEE@Base 3.2.1
 _ZN8casacore13TSMDataColumn29putScalarColumnCellsDComplexVERKNS_7RefRowsEPKNS_6VectorISt7complexIdEEE@Base 3.2.1
 _ZN8casacore13TSMDataColumn5shapeEj@Base 3.2.1
 _ZN8casacore13TSMDataColumn7getIntVEjPi@Base 3.2.1
 _ZN8casacore13TSMDataColumn7putIntVEjPKi@Base 3.2.1
 _ZN8casacore13TSMDataColumn8getBoolVEjPb@Base 3.2.1
 _ZN8casacore13TSMDataColumn8getuIntVEjPj@Base 3.2.1
 _ZN8casacore13TSMDataColumn8putBoolVEjPKb@Base 3.2.1
 _ZN8casacore13TSMDataColumn8putuIntVEjPKj@Base 3.2.1
 _ZN8casacore13TSMDataColumn8setShapeEjRKNS_9IPositionE@Base 3.2.1
 _ZN8casacore13TSMDataColumn9getInt64VEjPx@Base 3.2.1
 _ZN8casacore13TSMDataColumn9getShortVEjPs@Base 3.2.1
 _ZN8casacore13TSMDataColumn9getfloatVEjPf@Base 3.2.1
 _ZN8casacore13TSMDataColumn9getuCharVEjPh@Base 3.2.1
 _ZN8casacore13TSMDataColumn9putInt64VEjPKx@Base 3.2.1
 _ZN8casacore13TSMDataColumn9putShortVEjPKs@Base 3.2.1
 _ZN8casacore13TSMDataColumn9putfloatVEjPKf@Base 3.2.1
 _ZN8casacore13TSMDataColumn9putuCharVEjPKh@Base 3.2.1
 _ZN8casacore13TSMDataColumn9tileShapeEj@Base 3.2.1
 _ZN8casacore13TSMDataColumnC1ERKNS_9TSMColumnE@Base 3.2.1
 _ZN8casacore13TSMDataColumnC2ERKNS_9TSMColumnE@Base 3.2.1
 _ZN8casacore13TSMDataColumnD0Ev@Base 3.2.1
 _ZN8casacore13TSMDataColumnD1Ev@Base 3.2.1
 _ZN8casacore13TSMDataColumnD2Ev@Base 3.2.1
 _ZN8casacore13TaQLConstNode14setIsTableNameEv@Base 3.2.1
 _ZN8casacore13TaQLConstNodeC1EPNS_16TaQLConstNodeRepE@Base 3.2.1
 _ZN8casacore13TaQLConstNodeC2EPNS_16TaQLConstNodeRepE@Base 3.2.1
 _ZN8casacore13TaQLMultiNode12setSeparatorERKNS_6StringE@Base 3.2.1
 _ZN8casacore13TaQLMultiNode12setSeparatorEjRKNS_6StringE@Base 3.2.1
 _ZN8casacore13TaQLMultiNode15setIsSetOrArrayEv@Base 3.2.1
 _ZN8casacore13TaQLMultiNode3addEPNS_11TaQLNodeRepE@Base 3.2.1
 _ZN8casacore13TaQLMultiNode3addERKNS_8TaQLNodeE@Base 3.2.1
 _ZN8casacore13TaQLMultiNode8setPPFixERKNS_6StringES3_@Base 3.2.1
 _ZN8casacore13TaQLMultiNodeC1EPNS_16TaQLMultiNodeRepE@Base 3.2.1
 _ZN8casacore13TaQLMultiNodeC1Eb@Base 3.2.1
 _ZN8casacore13TaQLMultiNodeC1Ev@Base 3.2.1
 _ZN8casacore13TaQLMultiNodeC2EPNS_16TaQLMultiNodeRepE@Base 3.2.1
 _ZN8casacore13TaQLMultiNodeC2Eb@Base 3.2.1
 _ZN8casacore13TaQLMultiNodeC2Ev@Base 3.2.1
 _ZN8casacore13TaQLQueryNode11setBracketsEv@Base 3.2.1
 _ZN8casacore13TaQLQueryNode12setNoExecuteEv@Base 3.2.1
 _ZN8casacore13TaQLQueryNode14setFromExecuteEv@Base 3.2.1
 _ZN8casacore13TaQLQueryNodeC1EPNS_16TaQLQueryNodeRepE@Base 3.2.1
 _ZN8casacore13TaQLQueryNodeC2EPNS_16TaQLQueryNodeRepE@Base 3.2.1
 _ZN8casacore13TaQLRegexNodeC1EPNS_16TaQLRegexNodeRepE@Base 3.2.1
 _ZN8casacore13TaQLRegexNodeC2EPNS_16TaQLRegexNodeRepE@Base 3.2.1
 _ZN8casacore13TableDuplFileC1ERKNS_6StringENS_9AipsError8CategoryE@Base 3.2.1
 _ZN8casacore13TableDuplFileC1ERKNS_6StringES3_NS_9AipsError8CategoryE@Base 3.2.1
 _ZN8casacore13TableDuplFileC2ERKNS_6StringENS_9AipsError8CategoryE@Base 3.2.1
 _ZN8casacore13TableDuplFileC2ERKNS_6StringES3_NS_9AipsError8CategoryE@Base 3.2.1
 _ZN8casacore13TableDuplFileD0Ev@Base 3.2.1
 _ZN8casacore13TableDuplFileD1Ev@Base 3.2.1
 _ZN8casacore13TableDuplFileD2Ev@Base 3.2.1
 _ZN8casacore13TableExprDataD0Ev@Base 3.2.1
 _ZN8casacore13TableExprDataD1Ev@Base 3.2.1
 _ZN8casacore13TableExprDataD2Ev@Base 3.2.1
 _ZN8casacore13TableExprNode10newUDFNodeERKNS_6StringERKNS_16TableExprNodeSetERKNS_5TableERKNS_9TaQLStyleE@Base 3.2.1
 _ZN8casacore13TableExprNode10throwInvDTERKNS_6StringE@Base 3.2.1
 _ZN8casacore13TableExprNode11newConeNodeENS_17TableExprFuncNode12FunctionTypeERKNS_16TableExprNodeSetEj@Base 3.2.1
 _ZN8casacore13TableExprNode11newConeNodeENS_17TableExprFuncNode12FunctionTypeERKS0_S4_@Base 3.2.1
 _ZN8casacore13TableExprNode11newConeNodeENS_17TableExprFuncNode12FunctionTypeERKS0_S4_S4_@Base 3.2.1
 _ZN8casacore13TableExprNode11newKeyConstERKNS_11TableRecordERKNS_6VectorINS_6StringEEE@Base 3.2.1
 _ZN8casacore13TableExprNode12newRowidNodeERKNS_5TableE@Base 3.2.1
 _ZN8casacore13TableExprNode12newRownrNodeERKNS_5TableEj@Base 3.2.1
 _ZN8casacore13TableExprNode13newColumnNodeERKNS_5TableERKNS_6StringERKNS_6VectorIS4_EE@Base 3.2.1
 _ZN8casacore13TableExprNode13newRandomNodeERKNS_5TableE@Base 3.2.1
 _ZN8casacore13TableExprNode14findLastKeyRecERKNS_11TableRecordERKNS_6VectorINS_6StringEEERS5_@Base 3.2.1
 _ZN8casacore13TableExprNode15newFunctionNodeENS_17TableExprFuncNode12FunctionTypeERKNS_16TableExprNodeSetERKNS_5TableERKNS_9TaQLStyleE@Base 3.2.1
 _ZN8casacore13TableExprNode15newFunctionNodeENS_17TableExprFuncNode12FunctionTypeERKS0_@Base 3.2.1
 _ZN8casacore13TableExprNode15newFunctionNodeENS_17TableExprFuncNode12FunctionTypeERKS0_RKNS_16TableExprNodeSetE@Base 3.2.1
 _ZN8casacore13TableExprNode15newFunctionNodeENS_17TableExprFuncNode12FunctionTypeERKS0_S4_@Base 3.2.1
 _ZN8casacore13TableExprNode15newFunctionNodeENS_17TableExprFuncNode12FunctionTypeERKS0_S4_RKNS_16TableExprNodeSetE@Base 3.2.1
 _ZN8casacore13TableExprNode15newFunctionNodeENS_17TableExprFuncNode12FunctionTypeERKS0_S4_S4_@Base 3.2.1
 _ZN8casacore13TableExprNode16newArrayPartNodeERKS0_RKNS_16TableExprNodeSetERKNS_9TaQLStyleE@Base 3.2.1
 _ZN8casacore13TableExprNode9adaptUnitERKNS_4UnitE@Base 3.2.1
 _ZN8casacore13TableExprNodeC1EPKc@Base 3.2.1
 _ZN8casacore13TableExprNodeC1ERKNS_10CountedPtrINS_16TableExprNodeRepEEE@Base 3.2.1
 _ZN8casacore13TableExprNodeC1ERKNS_14StringDistanceE@Base 3.2.1
 _ZN8casacore13TableExprNodeC1ERKNS_5ArrayINS_6MVTimeEEE@Base 3.2.1
 _ZN8casacore13TableExprNodeC1ERKNS_5ArrayINS_6StringEEE@Base 3.2.1
 _ZN8casacore13TableExprNodeC1ERKNS_5ArrayISt7complexIdEEE@Base 3.2.1
 _ZN8casacore13TableExprNodeC1ERKNS_5ArrayISt7complexIfEEE@Base 3.2.1
 _ZN8casacore13TableExprNodeC1ERKNS_5ArrayIbEE@Base 3.2.1
 _ZN8casacore13TableExprNodeC1ERKNS_5ArrayIdEE@Base 3.2.1
 _ZN8casacore13TableExprNodeC1ERKNS_5ArrayIfEE@Base 3.2.1
 _ZN8casacore13TableExprNodeC1ERKNS_5ArrayIhEE@Base 3.2.1
 _ZN8casacore13TableExprNodeC1ERKNS_5ArrayIiEE@Base 3.2.1
 _ZN8casacore13TableExprNodeC1ERKNS_5ArrayIjEE@Base 3.2.1
 _ZN8casacore13TableExprNodeC1ERKNS_5ArrayIsEE@Base 3.2.1
 _ZN8casacore13TableExprNodeC1ERKNS_5ArrayItEE@Base 3.2.1
 _ZN8casacore13TableExprNodeC1ERKNS_5ArrayIxEE@Base 3.2.1
 _ZN8casacore13TableExprNodeC1ERKNS_5RegexE@Base 3.2.1
 _ZN8casacore13TableExprNodeC1ERKNS_6MArrayINS_6MVTimeEEE@Base 3.2.1
 _ZN8casacore13TableExprNodeC1ERKNS_6MArrayINS_6StringEEE@Base 3.2.1
 _ZN8casacore13TableExprNodeC1ERKNS_6MArrayISt7complexIdEEE@Base 3.2.1
 _ZN8casacore13TableExprNodeC1ERKNS_6MArrayISt7complexIfEEE@Base 3.2.1
 _ZN8casacore13TableExprNodeC1ERKNS_6MArrayIbEE@Base 3.2.1
 _ZN8casacore13TableExprNodeC1ERKNS_6MArrayIdEE@Base 3.2.1
 _ZN8casacore13TableExprNodeC1ERKNS_6MArrayIfEE@Base 3.2.1
 _ZN8casacore13TableExprNodeC1ERKNS_6MArrayIhEE@Base 3.2.1
 _ZN8casacore13TableExprNodeC1ERKNS_6MArrayIiEE@Base 3.2.1
 _ZN8casacore13TableExprNodeC1ERKNS_6MArrayIjEE@Base 3.2.1
 _ZN8casacore13TableExprNodeC1ERKNS_6MArrayIsEE@Base 3.2.1
 _ZN8casacore13TableExprNodeC1ERKNS_6MArrayItEE@Base 3.2.1
 _ZN8casacore13TableExprNodeC1ERKNS_6MArrayIxEE@Base 3.2.1
 _ZN8casacore13TableExprNodeC1ERKNS_6MVTimeE@Base 3.2.1
 _ZN8casacore13TableExprNodeC1ERKNS_6StringE@Base 3.2.1
 _ZN8casacore13TableExprNodeC1ERKNS_9TaqlRegexE@Base 3.2.1
 _ZN8casacore13TableExprNodeC1ERKNSt7__cxx1112basic_stringIcSt11char_traitsIcESaIcEEE@Base 3.2.1
 _ZN8casacore13TableExprNodeC1ERKS0_@Base 3.2.1
 _ZN8casacore13TableExprNodeC1ERKSt7complexIdE@Base 3.2.1
 _ZN8casacore13TableExprNodeC1ERKSt7complexIfE@Base 3.2.1
 _ZN8casacore13TableExprNodeC1ERKb@Base 3.2.1
 _ZN8casacore13TableExprNodeC1ERKd@Base 3.2.1
 _ZN8casacore13TableExprNodeC1ERKf@Base 3.2.1
 _ZN8casacore13TableExprNodeC1ERKi@Base 3.2.1
 _ZN8casacore13TableExprNodeC1ERKj@Base 3.2.1
 _ZN8casacore13TableExprNodeC1ERKx@Base 3.2.1
 _ZN8casacore13TableExprNodeC1Ev@Base 3.2.1
 _ZN8casacore13TableExprNodeC2EPKc@Base 3.2.1
 _ZN8casacore13TableExprNodeC2ERKNS_10CountedPtrINS_16TableExprNodeRepEEE@Base 3.2.1
 _ZN8casacore13TableExprNodeC2ERKNS_14StringDistanceE@Base 3.2.1
 _ZN8casacore13TableExprNodeC2ERKNS_5ArrayINS_6MVTimeEEE@Base 3.2.1
 _ZN8casacore13TableExprNodeC2ERKNS_5ArrayINS_6StringEEE@Base 3.2.1
 _ZN8casacore13TableExprNodeC2ERKNS_5ArrayISt7complexIdEEE@Base 3.2.1
 _ZN8casacore13TableExprNodeC2ERKNS_5ArrayISt7complexIfEEE@Base 3.2.1
 _ZN8casacore13TableExprNodeC2ERKNS_5ArrayIbEE@Base 3.2.1
 _ZN8casacore13TableExprNodeC2ERKNS_5ArrayIdEE@Base 3.2.1
 _ZN8casacore13TableExprNodeC2ERKNS_5ArrayIfEE@Base 3.2.1
 _ZN8casacore13TableExprNodeC2ERKNS_5ArrayIhEE@Base 3.2.1
 _ZN8casacore13TableExprNodeC2ERKNS_5ArrayIiEE@Base 3.2.1
 _ZN8casacore13TableExprNodeC2ERKNS_5ArrayIjEE@Base 3.2.1
 _ZN8casacore13TableExprNodeC2ERKNS_5ArrayIsEE@Base 3.2.1
 _ZN8casacore13TableExprNodeC2ERKNS_5ArrayItEE@Base 3.2.1
 _ZN8casacore13TableExprNodeC2ERKNS_5ArrayIxEE@Base 3.2.1
 _ZN8casacore13TableExprNodeC2ERKNS_5RegexE@Base 3.2.1
 _ZN8casacore13TableExprNodeC2ERKNS_6MArrayINS_6MVTimeEEE@Base 3.2.1
 _ZN8casacore13TableExprNodeC2ERKNS_6MArrayINS_6StringEEE@Base 3.2.1
 _ZN8casacore13TableExprNodeC2ERKNS_6MArrayISt7complexIdEEE@Base 3.2.1
 _ZN8casacore13TableExprNodeC2ERKNS_6MArrayISt7complexIfEEE@Base 3.2.1
 _ZN8casacore13TableExprNodeC2ERKNS_6MArrayIbEE@Base 3.2.1
 _ZN8casacore13TableExprNodeC2ERKNS_6MArrayIdEE@Base 3.2.1
 _ZN8casacore13TableExprNodeC2ERKNS_6MArrayIfEE@Base 3.2.1
 _ZN8casacore13TableExprNodeC2ERKNS_6MArrayIhEE@Base 3.2.1
 _ZN8casacore13TableExprNodeC2ERKNS_6MArrayIiEE@Base 3.2.1
 _ZN8casacore13TableExprNodeC2ERKNS_6MArrayIjEE@Base 3.2.1
 _ZN8casacore13TableExprNodeC2ERKNS_6MArrayIsEE@Base 3.2.1
 _ZN8casacore13TableExprNodeC2ERKNS_6MArrayItEE@Base 3.2.1
 _ZN8casacore13TableExprNodeC2ERKNS_6MArrayIxEE@Base 3.2.1
 _ZN8casacore13TableExprNodeC2ERKNS_6MVTimeE@Base 3.2.1
 _ZN8casacore13TableExprNodeC2ERKNS_6StringE@Base 3.2.1
 _ZN8casacore13TableExprNodeC2ERKNS_9TaqlRegexE@Base 3.2.1
 _ZN8casacore13TableExprNodeC2ERKNSt7__cxx1112basic_stringIcSt11char_traitsIcESaIcEEE@Base 3.2.1
 _ZN8casacore13TableExprNodeC2ERKS0_@Base 3.2.1
 _ZN8casacore13TableExprNodeC2ERKSt7complexIdE@Base 3.2.1
 _ZN8casacore13TableExprNodeC2ERKSt7complexIfE@Base 3.2.1
 _ZN8casacore13TableExprNodeC2ERKb@Base 3.2.1
 _ZN8casacore13TableExprNodeC2ERKd@Base 3.2.1
 _ZN8casacore13TableExprNodeC2ERKf@Base 3.2.1
 _ZN8casacore13TableExprNodeC2ERKi@Base 3.2.1
 _ZN8casacore13TableExprNodeC2ERKj@Base 3.2.1
 _ZN8casacore13TableExprNodeC2ERKx@Base 3.2.1
 _ZN8casacore13TableExprNodeC2Ev@Base 3.2.1
 _ZN8casacore13TableExprNodeD1Ev@Base 3.2.1
 _ZN8casacore13TableExprNodeD2Ev@Base 3.2.1
 _ZN8casacore13TableExprNodeaSERKS0_@Base 3.2.1
 _ZN8casacore13TableInvLogicC1ENS_9AipsError8CategoryE@Base 3.2.1
 _ZN8casacore13TableInvLogicC2ENS_9AipsError8CategoryE@Base 3.2.1
 _ZN8casacore13TableInvLogicD0Ev@Base 3.2.1
 _ZN8casacore13TableInvLogicD1Ev@Base 3.2.1
 _ZN8casacore13TableInvLogicD2Ev@Base 3.2.1
 _ZN8casacore13TableIterator4nextEv@Base 3.2.1
 _ZN8casacore13TableIterator5resetEv@Base 3.2.1
 _ZN8casacore13TableIterator9copyStateERKS0_@Base 3.2.1
 _ZN8casacore13TableIteratorC1ERKNS_5TableERKNS_5BlockINS_6StringEEENS0_5OrderENS0_6OptionE@Base 3.2.1
 _ZN8casacore13TableIteratorC1ERKNS_5TableERKNS_5BlockINS_6StringEEERKNS4_INS_10CountedPtrINS_11BaseCompareEEEEERKNS4_IiEENS0_6OptionE@Base 3.2.1
 _ZN8casacore13TableIteratorC1ERKNS_5TableERKNS_5BlockINS_6StringEEERKNS4_IiEENS0_6OptionE@Base 3.2.1
 _ZN8casacore13TableIteratorC1ERKNS_5TableERKNS_6StringENS0_5OrderENS0_6OptionE@Base 3.2.1
 _ZN8casacore13TableIteratorC1ERKS0_@Base 3.2.1
 _ZN8casacore13TableIteratorC1Ev@Base 3.2.1
 _ZN8casacore13TableIteratorC2ERKNS_5TableERKNS_5BlockINS_6StringEEENS0_5OrderENS0_6OptionE@Base 3.2.1
 _ZN8casacore13TableIteratorC2ERKNS_5TableERKNS_5BlockINS_6StringEEERKNS4_INS_10CountedPtrINS_11BaseCompareEEEEERKNS4_IiEENS0_6OptionE@Base 3.2.1
 _ZN8casacore13TableIteratorC2ERKNS_5TableERKNS_5BlockINS_6StringEEERKNS4_IiEENS0_6OptionE@Base 3.2.1
 _ZN8casacore13TableIteratorC2ERKNS_5TableERKNS_6StringENS0_5OrderENS0_6OptionE@Base 3.2.1
 _ZN8casacore13TableIteratorC2ERKS0_@Base 3.2.1
 _ZN8casacore13TableIteratorC2Ev@Base 3.2.1
 _ZN8casacore13TableIteratorD1Ev@Base 3.2.1
 _ZN8casacore13TableIteratorD2Ev@Base 3.2.1
 _ZN8casacore13TableIteratoraSERKS0_@Base 3.2.1
 _ZN8casacore13TableLockData7acquireEPNS_8MemoryIOENS_10FileLocker8LockTypeEj@Base 3.2.1
 _ZN8casacore13TableLockData7releaseEb@Base 3.2.1
 _ZN8casacore13TableLockData8makeLockERKNS_6StringEbNS_10FileLocker8LockTypeEj@Base 3.2.1
 _ZN8casacore13TableLockDataC1ERKNS_9TableLockEPFPNS_8MemoryIOEPvbES6_@Base 3.2.1
 _ZN8casacore13TableLockDataC2ERKNS_9TableLockEPFPNS_8MemoryIOEPvbES6_@Base 3.2.1
 _ZN8casacore13TableLockDataD1Ev@Base 3.2.1
 _ZN8casacore13TableLockDataD2Ev@Base 3.2.1
 _ZN8casacore13TableRowProxy3putEjRKNS_6RecordEb@Base 3.2.1
 _ZN8casacore13TableRowProxyC1ERKNS_10TableProxyERKNS_6VectorINS_6StringEEEb@Base 3.2.1
 _ZN8casacore13TableRowProxyC1ERKS0_@Base 3.2.1
 _ZN8casacore13TableRowProxyC1Ev@Base 3.2.1
 _ZN8casacore13TableRowProxyC2ERKNS_10TableProxyERKNS_6VectorINS_6StringEEEb@Base 3.2.1
 _ZN8casacore13TableRowProxyC2ERKS0_@Base 3.2.1
 _ZN8casacore13TableRowProxyC2Ev@Base 3.2.1
 _ZN8casacore13TableRowProxyD1Ev@Base 3.2.1
 _ZN8casacore13TableRowProxyD2Ev@Base 3.2.1
 _ZN8casacore13TableRowProxyaSERKS0_@Base 3.2.1
 _ZN8casacore13TableSyncData4readERjS1_RbRNS_5BlockIbEE@Base 3.2.1
 _ZN8casacore13TableSyncData5writeEj@Base 3.2.1
 _ZN8casacore13TableSyncData5writeEjjbRKNS_5BlockIbEE@Base 3.2.1
 _ZN8casacore13TableSyncDataC1Ev@Base 3.2.1
 _ZN8casacore13TableSyncDataC2Ev@Base 3.2.1
 _ZN8casacore13TableSyncDataD1Ev@Base 3.2.1
 _ZN8casacore13TableSyncDataD2Ev@Base 3.2.1
 _ZN8casacore13arrayFuncHelpE@Base 3.2.1
 _ZN8casacore13astroFuncHelpE@Base 3.2.1
 _ZN8casacore13directionHelpE@Base 3.2.1
 _ZN8casacore13frequencyHelpE@Base 3.2.1
 _ZN8casacore13partialAvdevsISt7complexIdEEENS_5ArrayIT_EERKS5_RKNS_9IPositionES7_@Base 3.2.1
 _ZN8casacore13partialAvdevsISt7complexIdEEENS_6MArrayIT_EERKS5_RKNS_9IPositionE@Base 3.2.1
 _ZN8casacore13partialAvdevsIdEENS_5ArrayIT_EERKS3_RKNS_9IPositionES5_@Base 3.2.1
 _ZN8casacore13partialNFalseIbEENS_6MArrayIjEERKNS1_IT_EERKNS_9IPositionE@Base 3.2.1
 _ZN8casacore13showContainerINS_5ArrayIiEEEEvRSoRKT_PKcS8_S8_@Base 3.2.1
 _ZN8casacore13slidingNFalseIbEENS_6MArrayIjEERKNS1_IT_EERKNS_9IPositionEb@Base 3.2.1
 _ZN8casacore14BaseColumnDesc10setOptionsEi@Base 3.2.1
 _ZN8casacore14BaseColumnDesc12handleRemoveERNS_13ColumnDescSetE@Base 3.2.1
 _ZN8casacore14BaseColumnDesc12handleRenameERNS_13ColumnDescSetERKNS_6StringE@Base 3.2.1
 _ZN8casacore14BaseColumnDesc12renameActionERKNS_6StringES3_@Base 3.2.1
 _ZN8casacore14BaseColumnDesc12setMaxLengthEj@Base 3.2.1
 _ZN8casacore14BaseColumnDesc21setDefaultDataManagerEb@Base 3.2.1
 _ZN8casacore14BaseColumnDesc7getFileERNS_6AipsIOERKNS_9TableAttrE@Base 3.2.1
 _ZN8casacore14BaseColumnDesc7setNdimEj@Base 3.2.1
 _ZN8casacore14BaseColumnDesc8setShapeERKNS_9IPositionE@Base 3.2.1
 _ZN8casacore14BaseColumnDesc8setShapeERKNS_9IPositionEb@Base 3.2.1
 _ZN8casacore14BaseColumnDesc9handleAddERNS_13ColumnDescSetE@Base 3.2.1
 _ZN8casacore14BaseColumnDesc9tableDescEv@Base 3.2.1
 _ZN8casacore14BaseColumnDescC1ERKNS_6StringES3_S3_S3_NS_8DataTypeES3_ijRKNS_9IPositionEbbb@Base 3.2.1
 _ZN8casacore14BaseColumnDescC1ERKS0_@Base 3.2.1
 _ZN8casacore14BaseColumnDescC2ERKNS_6StringES3_S3_S3_NS_8DataTypeES3_ijRKNS_9IPositionEbbb@Base 3.2.1
 _ZN8casacore14BaseColumnDescC2ERKS0_@Base 3.2.1
 _ZN8casacore14BaseColumnDescD0Ev@Base 3.2.1
 _ZN8casacore14BaseColumnDescD1Ev@Base 3.2.1
 _ZN8casacore14BaseColumnDescD2Ev@Base 3.2.1
 _ZN8casacore14BaseColumnDescaSERKS0_@Base 3.2.1
 _ZN8casacore14BitFlagsEngineIhE10makeObjectERKNS_6StringERKNS_6RecordE@Base 3.2.1
 _ZN8casacore14BitFlagsEngineIhE13setPropertiesERKNS_6RecordE@Base 3.2.1
 _ZN8casacore14BitFlagsEngineIhE14getArrayColumnERNS_5ArrayIbEE@Base 3.2.1
 _ZN8casacore14BitFlagsEngineIhE14getColumnSliceERKNS_6SlicerERNS_5ArrayIbEE@Base 3.2.1
 _ZN8casacore14BitFlagsEngineIhE14putArrayColumnERKNS_5ArrayIbEE@Base 3.2.1
 _ZN8casacore14BitFlagsEngineIhE14putColumnSliceERKNS_6SlicerERKNS_5ArrayIbEE@Base 3.2.1
 _ZN8casacore14BitFlagsEngineIhE19getArrayColumnCellsERKNS_7RefRowsERNS_5ArrayIbEE@Base 3.2.1
 _ZN8casacore14BitFlagsEngineIhE19getColumnSliceCellsERKNS_7RefRowsERKNS_6SlicerERNS_5ArrayIbEE@Base 3.2.1
 _ZN8casacore14BitFlagsEngineIhE19putArrayColumnCellsERKNS_7RefRowsERKNS_5ArrayIbEE@Base 3.2.1
 _ZN8casacore14BitFlagsEngineIhE19putColumnSliceCellsERKNS_7RefRowsERKNS_6SlicerERKNS_5ArrayIbEE@Base 3.2.1
 _ZN8casacore14BitFlagsEngineIhE6createEj@Base 3.2.1
 _ZN8casacore14BitFlagsEngineIhE7prepareEv@Base 3.2.1
 _ZN8casacore14BitFlagsEngineIhE8getArrayEjRNS_5ArrayIbEE@Base 3.2.1
 _ZN8casacore14BitFlagsEngineIhE8getSliceEjRKNS_6SlicerERNS_5ArrayIbEE@Base 3.2.1
 _ZN8casacore14BitFlagsEngineIhE8mapOnGetERNS_5ArrayIbEERKNS2_IhEE@Base 3.2.1
 _ZN8casacore14BitFlagsEngineIhE8mapOnPutERKNS_5ArrayIbEERNS2_IhEE@Base 3.2.1
 _ZN8casacore14BitFlagsEngineIhE8putArrayEjRKNS_5ArrayIbEE@Base 3.2.1
 _ZN8casacore14BitFlagsEngineIhE8putSliceEjRKNS_6SlicerERKNS_5ArrayIbEE@Base 3.2.1
 _ZN8casacore14BitFlagsEngineIhE9classNameEv@Base 3.2.1
 _ZN8casacore14BitFlagsEngineIhEC1ERKNS_6RecordE@Base 3.2.1
 _ZN8casacore14BitFlagsEngineIhEC2ERKNS_6RecordE@Base 3.2.1
 _ZN8casacore14BitFlagsEngineIhED0Ev@Base 3.2.1
 _ZN8casacore14BitFlagsEngineIhED1Ev@Base 3.2.1
 _ZN8casacore14BitFlagsEngineIhED2Ev@Base 3.2.1
 _ZN8casacore14BitFlagsEngineIiE10makeObjectERKNS_6StringERKNS_6RecordE@Base 3.2.1
 _ZN8casacore14BitFlagsEngineIiE13setPropertiesERKNS_6RecordE@Base 3.2.1
 _ZN8casacore14BitFlagsEngineIiE14getArrayColumnERNS_5ArrayIbEE@Base 3.2.1
 _ZN8casacore14BitFlagsEngineIiE14getColumnSliceERKNS_6SlicerERNS_5ArrayIbEE@Base 3.2.1
 _ZN8casacore14BitFlagsEngineIiE14putArrayColumnERKNS_5ArrayIbEE@Base 3.2.1
 _ZN8casacore14BitFlagsEngineIiE14putColumnSliceERKNS_6SlicerERKNS_5ArrayIbEE@Base 3.2.1
 _ZN8casacore14BitFlagsEngineIiE19getArrayColumnCellsERKNS_7RefRowsERNS_5ArrayIbEE@Base 3.2.1
 _ZN8casacore14BitFlagsEngineIiE19getColumnSliceCellsERKNS_7RefRowsERKNS_6SlicerERNS_5ArrayIbEE@Base 3.2.1
 _ZN8casacore14BitFlagsEngineIiE19putArrayColumnCellsERKNS_7RefRowsERKNS_5ArrayIbEE@Base 3.2.1
 _ZN8casacore14BitFlagsEngineIiE19putColumnSliceCellsERKNS_7RefRowsERKNS_6SlicerERKNS_5ArrayIbEE@Base 3.2.1
 _ZN8casacore14BitFlagsEngineIiE6createEj@Base 3.2.1
 _ZN8casacore14BitFlagsEngineIiE7prepareEv@Base 3.2.1
 _ZN8casacore14BitFlagsEngineIiE8getArrayEjRNS_5ArrayIbEE@Base 3.2.1
 _ZN8casacore14BitFlagsEngineIiE8getSliceEjRKNS_6SlicerERNS_5ArrayIbEE@Base 3.2.1
 _ZN8casacore14BitFlagsEngineIiE8mapOnGetERNS_5ArrayIbEERKNS2_IiEE@Base 3.2.1
 _ZN8casacore14BitFlagsEngineIiE8mapOnPutERKNS_5ArrayIbEERNS2_IiEE@Base 3.2.1
 _ZN8casacore14BitFlagsEngineIiE8putArrayEjRKNS_5ArrayIbEE@Base 3.2.1
 _ZN8casacore14BitFlagsEngineIiE8putSliceEjRKNS_6SlicerERKNS_5ArrayIbEE@Base 3.2.1
 _ZN8casacore14BitFlagsEngineIiE9classNameEv@Base 3.2.1
 _ZN8casacore14BitFlagsEngineIiEC1ERKNS_6RecordE@Base 3.2.1
 _ZN8casacore14BitFlagsEngineIiEC2ERKNS_6RecordE@Base 3.2.1
 _ZN8casacore14BitFlagsEngineIiED0Ev@Base 3.2.1
 _ZN8casacore14BitFlagsEngineIiED1Ev@Base 3.2.1
 _ZN8casacore14BitFlagsEngineIiED2Ev@Base 3.2.1
 _ZN8casacore14BitFlagsEngineIsE10makeObjectERKNS_6StringERKNS_6RecordE@Base 3.2.1
 _ZN8casacore14BitFlagsEngineIsE13setPropertiesERKNS_6RecordE@Base 3.2.1
 _ZN8casacore14BitFlagsEngineIsE14getArrayColumnERNS_5ArrayIbEE@Base 3.2.1
 _ZN8casacore14BitFlagsEngineIsE14getColumnSliceERKNS_6SlicerERNS_5ArrayIbEE@Base 3.2.1
 _ZN8casacore14BitFlagsEngineIsE14putArrayColumnERKNS_5ArrayIbEE@Base 3.2.1
 _ZN8casacore14BitFlagsEngineIsE14putColumnSliceERKNS_6SlicerERKNS_5ArrayIbEE@Base 3.2.1
 _ZN8casacore14BitFlagsEngineIsE19getArrayColumnCellsERKNS_7RefRowsERNS_5ArrayIbEE@Base 3.2.1
 _ZN8casacore14BitFlagsEngineIsE19getColumnSliceCellsERKNS_7RefRowsERKNS_6SlicerERNS_5ArrayIbEE@Base 3.2.1
 _ZN8casacore14BitFlagsEngineIsE19putArrayColumnCellsERKNS_7RefRowsERKNS_5ArrayIbEE@Base 3.2.1
 _ZN8casacore14BitFlagsEngineIsE19putColumnSliceCellsERKNS_7RefRowsERKNS_6SlicerERKNS_5ArrayIbEE@Base 3.2.1
 _ZN8casacore14BitFlagsEngineIsE6createEj@Base 3.2.1
 _ZN8casacore14BitFlagsEngineIsE7prepareEv@Base 3.2.1
 _ZN8casacore14BitFlagsEngineIsE8getArrayEjRNS_5ArrayIbEE@Base 3.2.1
 _ZN8casacore14BitFlagsEngineIsE8getSliceEjRKNS_6SlicerERNS_5ArrayIbEE@Base 3.2.1
 _ZN8casacore14BitFlagsEngineIsE8mapOnGetERNS_5ArrayIbEERKNS2_IsEE@Base 3.2.1
 _ZN8casacore14BitFlagsEngineIsE8mapOnPutERKNS_5ArrayIbEERNS2_IsEE@Base 3.2.1
 _ZN8casacore14BitFlagsEngineIsE8putArrayEjRKNS_5ArrayIbEE@Base 3.2.1
 _ZN8casacore14BitFlagsEngineIsE8putSliceEjRKNS_6SlicerERKNS_5ArrayIbEE@Base 3.2.1
 _ZN8casacore14BitFlagsEngineIsE9classNameEv@Base 3.2.1
 _ZN8casacore14BitFlagsEngineIsEC1ERKNS_6RecordE@Base 3.2.1
 _ZN8casacore14BitFlagsEngineIsEC2ERKNS_6RecordE@Base 3.2.1
 _ZN8casacore14BitFlagsEngineIsED0Ev@Base 3.2.1
 _ZN8casacore14BitFlagsEngineIsED1Ev@Base 3.2.1
 _ZN8casacore14BitFlagsEngineIsED2Ev@Base 3.2.1
 _ZN8casacore14ConcatRowsIter4nextEv@Base 3.2.1
 _ZN8casacore14ConcatRowsIterC1ERKNS_10ConcatRowsE@Base 3.2.1
 _ZN8casacore14ConcatRowsIterC1ERKNS_10ConcatRowsEjjj@Base 3.2.1
 _ZN8casacore14ConcatRowsIterC2ERKNS_10ConcatRowsE@Base 3.2.1
 _ZN8casacore14ConcatRowsIterC2ERKNS_10ConcatRowsEjjj@Base 3.2.1
 _ZN8casacore14DataManInvOperC1ERKNS_6StringE@Base 3.2.1
 _ZN8casacore14DataManInvOperC1Ev@Base 3.2.1
 _ZN8casacore14DataManInvOperC2ERKNS_6StringE@Base 3.2.1
 _ZN8casacore14DataManInvOperC2Ev@Base 3.2.1
 _ZN8casacore14DataManInvOperD0Ev@Base 3.2.1
 _ZN8casacore14DataManInvOperD1Ev@Base 3.2.1
 _ZN8casacore14DataManInvOperD2Ev@Base 3.2.1
 _ZN8casacore14ReadAsciiTable11handleArrayEPciS1_RicRKNS_9IPositionEiiRNS_11TableColumnEj@Base 3.2.1
 _ZN8casacore14ReadAsciiTable11stringToPosERKNS_6StringEb@Base 3.2.1
 _ZN8casacore14ReadAsciiTable12getTypeShapeERKNS_6StringERNS_9IPositionERi@Base 3.2.1
 _ZN8casacore14ReadAsciiTable12handleKeysetEiPcS1_S1_RNS_11TableRecordERNS_5LogIOERKNS_6StringERSt14basic_ifstreamIcSt11char_traitsIcEERicbRKNS_5RegexEii@Base 3.2.1
 _ZN8casacore14ReadAsciiTable12handleScalarEPciS1_RiciRNS_11TableColumnEj@Base 3.2.1
 _ZN8casacore14ReadAsciiTable3runERKNS_6StringES3_S3_S3_bRKNS_9IPositionERKNS_6VectorIS1_EESA_cS3_ii@Base 3.2.1
 _ZN8casacore14ReadAsciiTable4runtERNS_6StringENS_5Table9TableTypeERKS1_S6_S6_S6_bRKNS_9IPositionERKNS_6VectorIS1_EESD_cS6_ii@Base 3.2.1
 _ZN8casacore14ReadAsciiTable5doRunERKNS_6StringES3_S3_S3_bRKNS_9IPositionERKNS_6VectorIS1_EESA_cbRKNS_5RegexEii@Base 3.2.1
 _ZN8casacore14ReadAsciiTable7getLineERSt14basic_ifstreamIcSt11char_traitsIcEERiPcibRKNS_5RegexEii@Base 3.2.1
 _ZN8casacore14ReadAsciiTable7getNextEPKciPcRic@Base 3.2.1
 _ZN8casacore14ReadAsciiTable7makeTabERNS_6StringENS_5Table9TableTypeERKS1_S6_S6_S6_bRKNS_9IPositionERKNS_6VectorIS1_EESD_cbRKNS_5RegexEii@Base 3.2.1
 _ZN8casacore14ReadAsciiTable8getArrayEPciS1_RicRKNS_9IPositionEiiPv@Base 3.2.1
 _ZN8casacore14ReadAsciiTable8getTypesERKNS_9IPositionEPKciPcS6_c@Base 3.2.1
 _ZN8casacore14ReadAsciiTable8getValueEPciS1_RiciPv@Base 3.2.1
 _ZN8casacore14ReadAsciiTable8makeBoolERKNS_6StringE@Base 3.2.1
 _ZN8casacore14RecordFieldPtrINS_11TableRecordEE6notifyERKNS_6NoticeE@Base 3.2.1
 _ZN8casacore14RecordFieldPtrINS_11TableRecordEED0Ev@Base 3.2.1
 _ZN8casacore14RecordFieldPtrINS_11TableRecordEED1Ev@Base 3.2.1
 _ZN8casacore14RecordFieldPtrINS_11TableRecordEED2Ev@Base 3.2.1
 _ZN8casacore14RecordFieldPtrINS_5ArrayINS_6StringEEEE6notifyERKNS_6NoticeE@Base 3.2.1
 _ZN8casacore14RecordFieldPtrINS_5ArrayINS_6StringEEEED0Ev@Base 3.2.1
 _ZN8casacore14RecordFieldPtrINS_5ArrayINS_6StringEEEED1Ev@Base 3.2.1
 _ZN8casacore14RecordFieldPtrINS_5ArrayINS_6StringEEEED2Ev@Base 3.2.1
 _ZN8casacore14RecordFieldPtrINS_5ArrayISt7complexIdEEEE6notifyERKNS_6NoticeE@Base 3.2.1
 _ZN8casacore14RecordFieldPtrINS_5ArrayISt7complexIdEEEEC1ERNS_15RecordInterfaceERKNS_13RecordFieldIdE@Base 3.2.1
 _ZN8casacore14RecordFieldPtrINS_5ArrayISt7complexIdEEEEC2ERNS_15RecordInterfaceERKNS_13RecordFieldIdE@Base 3.2.1
 _ZN8casacore14RecordFieldPtrINS_5ArrayISt7complexIdEEEED0Ev@Base 3.2.1
 _ZN8casacore14RecordFieldPtrINS_5ArrayISt7complexIdEEEED1Ev@Base 3.2.1
 _ZN8casacore14RecordFieldPtrINS_5ArrayISt7complexIdEEEED2Ev@Base 3.2.1
 _ZN8casacore14RecordFieldPtrINS_5ArrayISt7complexIfEEEE6notifyERKNS_6NoticeE@Base 3.2.1
 _ZN8casacore14RecordFieldPtrINS_5ArrayISt7complexIfEEEEC1ERNS_15RecordInterfaceERKNS_13RecordFieldIdE@Base 3.2.1
 _ZN8casacore14RecordFieldPtrINS_5ArrayISt7complexIfEEEEC2ERNS_15RecordInterfaceERKNS_13RecordFieldIdE@Base 3.2.1
 _ZN8casacore14RecordFieldPtrINS_5ArrayISt7complexIfEEEED0Ev@Base 3.2.1
 _ZN8casacore14RecordFieldPtrINS_5ArrayISt7complexIfEEEED1Ev@Base 3.2.1
 _ZN8casacore14RecordFieldPtrINS_5ArrayISt7complexIfEEEED2Ev@Base 3.2.1
 _ZN8casacore14RecordFieldPtrINS_5ArrayIbEEE6notifyERKNS_6NoticeE@Base 3.2.1
 _ZN8casacore14RecordFieldPtrINS_5ArrayIbEEED0Ev@Base 3.2.1
 _ZN8casacore14RecordFieldPtrINS_5ArrayIbEEED1Ev@Base 3.2.1
 _ZN8casacore14RecordFieldPtrINS_5ArrayIbEEED2Ev@Base 3.2.1
 _ZN8casacore14RecordFieldPtrINS_5ArrayIdEEE6notifyERKNS_6NoticeE@Base 3.2.1
 _ZN8casacore14RecordFieldPtrINS_5ArrayIdEEEC1ERNS_15RecordInterfaceERKNS_13RecordFieldIdE@Base 3.2.1
 _ZN8casacore14RecordFieldPtrINS_5ArrayIdEEEC2ERNS_15RecordInterfaceERKNS_13RecordFieldIdE@Base 3.2.1
 _ZN8casacore14RecordFieldPtrINS_5ArrayIdEEED0Ev@Base 3.2.1
 _ZN8casacore14RecordFieldPtrINS_5ArrayIdEEED1Ev@Base 3.2.1
 _ZN8casacore14RecordFieldPtrINS_5ArrayIdEEED2Ev@Base 3.2.1
 _ZN8casacore14RecordFieldPtrINS_5ArrayIfEEE6notifyERKNS_6NoticeE@Base 3.2.1
 _ZN8casacore14RecordFieldPtrINS_5ArrayIfEEEC1ERNS_15RecordInterfaceERKNS_13RecordFieldIdE@Base 3.2.1
 _ZN8casacore14RecordFieldPtrINS_5ArrayIfEEEC2ERNS_15RecordInterfaceERKNS_13RecordFieldIdE@Base 3.2.1
 _ZN8casacore14RecordFieldPtrINS_5ArrayIfEEED0Ev@Base 3.2.1
 _ZN8casacore14RecordFieldPtrINS_5ArrayIfEEED1Ev@Base 3.2.1
 _ZN8casacore14RecordFieldPtrINS_5ArrayIfEEED2Ev@Base 3.2.1
 _ZN8casacore14RecordFieldPtrINS_5ArrayIhEEE6notifyERKNS_6NoticeE@Base 3.2.1
 _ZN8casacore14RecordFieldPtrINS_5ArrayIhEEED0Ev@Base 3.2.1
 _ZN8casacore14RecordFieldPtrINS_5ArrayIhEEED1Ev@Base 3.2.1
 _ZN8casacore14RecordFieldPtrINS_5ArrayIhEEED2Ev@Base 3.2.1
 _ZN8casacore14RecordFieldPtrINS_5ArrayIiEEE6notifyERKNS_6NoticeE@Base 3.2.1
 _ZN8casacore14RecordFieldPtrINS_5ArrayIiEEEC1ERNS_15RecordInterfaceERKNS_13RecordFieldIdE@Base 3.2.1
 _ZN8casacore14RecordFieldPtrINS_5ArrayIiEEEC2ERNS_15RecordInterfaceERKNS_13RecordFieldIdE@Base 3.2.1
 _ZN8casacore14RecordFieldPtrINS_5ArrayIiEEED0Ev@Base 3.2.1
 _ZN8casacore14RecordFieldPtrINS_5ArrayIiEEED1Ev@Base 3.2.1
 _ZN8casacore14RecordFieldPtrINS_5ArrayIiEEED2Ev@Base 3.2.1
 _ZN8casacore14RecordFieldPtrINS_5ArrayIjEEE6notifyERKNS_6NoticeE@Base 3.2.1
 _ZN8casacore14RecordFieldPtrINS_5ArrayIjEEEC1ERNS_15RecordInterfaceERKNS_13RecordFieldIdE@Base 3.2.1
 _ZN8casacore14RecordFieldPtrINS_5ArrayIjEEEC2ERNS_15RecordInterfaceERKNS_13RecordFieldIdE@Base 3.2.1
 _ZN8casacore14RecordFieldPtrINS_5ArrayIjEEED0Ev@Base 3.2.1
 _ZN8casacore14RecordFieldPtrINS_5ArrayIjEEED1Ev@Base 3.2.1
 _ZN8casacore14RecordFieldPtrINS_5ArrayIjEEED2Ev@Base 3.2.1
 _ZN8casacore14RecordFieldPtrINS_5ArrayIsEEE6notifyERKNS_6NoticeE@Base 3.2.1
 _ZN8casacore14RecordFieldPtrINS_5ArrayIsEEED0Ev@Base 3.2.1
 _ZN8casacore14RecordFieldPtrINS_5ArrayIsEEED1Ev@Base 3.2.1
 _ZN8casacore14RecordFieldPtrINS_5ArrayIsEEED2Ev@Base 3.2.1
 _ZN8casacore14RecordFieldPtrINS_5ArrayIxEEE6notifyERKNS_6NoticeE@Base 3.2.1
 _ZN8casacore14RecordFieldPtrINS_5ArrayIxEEEC1ERNS_15RecordInterfaceERKNS_13RecordFieldIdE@Base 3.2.1
 _ZN8casacore14RecordFieldPtrINS_5ArrayIxEEEC2ERNS_15RecordInterfaceERKNS_13RecordFieldIdE@Base 3.2.1
 _ZN8casacore14RecordFieldPtrINS_5ArrayIxEEED0Ev@Base 3.2.1
 _ZN8casacore14RecordFieldPtrINS_5ArrayIxEEED1Ev@Base 3.2.1
 _ZN8casacore14RecordFieldPtrINS_5ArrayIxEEED2Ev@Base 3.2.1
 _ZN8casacore14RecordFieldPtrINS_6StringEE6notifyERKNS_6NoticeE@Base 3.2.1
 _ZN8casacore14RecordFieldPtrINS_6StringEEC1ERNS_15RecordInterfaceEi@Base 3.2.1
 _ZN8casacore14RecordFieldPtrINS_6StringEEC2ERNS_15RecordInterfaceEi@Base 3.2.1
 _ZN8casacore14RecordFieldPtrINS_6StringEED0Ev@Base 3.2.1
 _ZN8casacore14RecordFieldPtrINS_6StringEED1Ev@Base 3.2.1
 _ZN8casacore14RecordFieldPtrINS_6StringEED2Ev@Base 3.2.1
 _ZN8casacore14RecordFieldPtrISt7complexIdEE6notifyERKNS_6NoticeE@Base 3.2.1
 _ZN8casacore14RecordFieldPtrISt7complexIdEEC1ERNS_15RecordInterfaceEi@Base 3.2.1
 _ZN8casacore14RecordFieldPtrISt7complexIdEEC2ERNS_15RecordInterfaceEi@Base 3.2.1
 _ZN8casacore14RecordFieldPtrISt7complexIdEED0Ev@Base 3.2.1
 _ZN8casacore14RecordFieldPtrISt7complexIdEED1Ev@Base 3.2.1
 _ZN8casacore14RecordFieldPtrISt7complexIdEED2Ev@Base 3.2.1
 _ZN8casacore14RecordFieldPtrISt7complexIfEE6notifyERKNS_6NoticeE@Base 3.2.1
 _ZN8casacore14RecordFieldPtrISt7complexIfEEC1ERNS_15RecordInterfaceEi@Base 3.2.1
 _ZN8casacore14RecordFieldPtrISt7complexIfEEC2ERNS_15RecordInterfaceEi@Base 3.2.1
 _ZN8casacore14RecordFieldPtrISt7complexIfEED0Ev@Base 3.2.1
 _ZN8casacore14RecordFieldPtrISt7complexIfEED1Ev@Base 3.2.1
 _ZN8casacore14RecordFieldPtrISt7complexIfEED2Ev@Base 3.2.1
 _ZN8casacore14RecordFieldPtrIbE6notifyERKNS_6NoticeE@Base 3.2.1
 _ZN8casacore14RecordFieldPtrIbEC1ERNS_15RecordInterfaceEi@Base 3.2.1
 _ZN8casacore14RecordFieldPtrIbEC2ERNS_15RecordInterfaceEi@Base 3.2.1
 _ZN8casacore14RecordFieldPtrIbED0Ev@Base 3.2.1
 _ZN8casacore14RecordFieldPtrIbED1Ev@Base 3.2.1
 _ZN8casacore14RecordFieldPtrIbED2Ev@Base 3.2.1
 _ZN8casacore14RecordFieldPtrIdE6notifyERKNS_6NoticeE@Base 3.2.1
 _ZN8casacore14RecordFieldPtrIdEC1ERNS_15RecordInterfaceEi@Base 3.2.1
 _ZN8casacore14RecordFieldPtrIdEC2ERNS_15RecordInterfaceEi@Base 3.2.1
 _ZN8casacore14RecordFieldPtrIdED0Ev@Base 3.2.1
 _ZN8casacore14RecordFieldPtrIdED1Ev@Base 3.2.1
 _ZN8casacore14RecordFieldPtrIdED2Ev@Base 3.2.1
 _ZN8casacore14RecordFieldPtrIfE6notifyERKNS_6NoticeE@Base 3.2.1
 _ZN8casacore14RecordFieldPtrIfEC1ERNS_15RecordInterfaceEi@Base 3.2.1
 _ZN8casacore14RecordFieldPtrIfEC2ERNS_15RecordInterfaceEi@Base 3.2.1
 _ZN8casacore14RecordFieldPtrIfED0Ev@Base 3.2.1
 _ZN8casacore14RecordFieldPtrIfED1Ev@Base 3.2.1
 _ZN8casacore14RecordFieldPtrIfED2Ev@Base 3.2.1
 _ZN8casacore14RecordFieldPtrIhE6notifyERKNS_6NoticeE@Base 3.2.1
 _ZN8casacore14RecordFieldPtrIhEC1ERNS_15RecordInterfaceEi@Base 3.2.1
 _ZN8casacore14RecordFieldPtrIhEC2ERNS_15RecordInterfaceEi@Base 3.2.1
 _ZN8casacore14RecordFieldPtrIhED0Ev@Base 3.2.1
 _ZN8casacore14RecordFieldPtrIhED1Ev@Base 3.2.1
 _ZN8casacore14RecordFieldPtrIhED2Ev@Base 3.2.1
 _ZN8casacore14RecordFieldPtrIiE6notifyERKNS_6NoticeE@Base 3.2.1
 _ZN8casacore14RecordFieldPtrIiEC1ERNS_15RecordInterfaceEi@Base 3.2.1
 _ZN8casacore14RecordFieldPtrIiEC2ERNS_15RecordInterfaceEi@Base 3.2.1
 _ZN8casacore14RecordFieldPtrIiED0Ev@Base 3.2.1
 _ZN8casacore14RecordFieldPtrIiED1Ev@Base 3.2.1
 _ZN8casacore14RecordFieldPtrIiED2Ev@Base 3.2.1
 _ZN8casacore14RecordFieldPtrIjE6notifyERKNS_6NoticeE@Base 3.2.1
 _ZN8casacore14RecordFieldPtrIjEC1ERNS_15RecordInterfaceEi@Base 3.2.1
 _ZN8casacore14RecordFieldPtrIjEC2ERNS_15RecordInterfaceEi@Base 3.2.1
 _ZN8casacore14RecordFieldPtrIjED0Ev@Base 3.2.1
 _ZN8casacore14RecordFieldPtrIjED1Ev@Base 3.2.1
 _ZN8casacore14RecordFieldPtrIjED2Ev@Base 3.2.1
 _ZN8casacore14RecordFieldPtrIsE6notifyERKNS_6NoticeE@Base 3.2.1
 _ZN8casacore14RecordFieldPtrIsEC1ERNS_15RecordInterfaceEi@Base 3.2.1
 _ZN8casacore14RecordFieldPtrIsEC2ERNS_15RecordInterfaceEi@Base 3.2.1
 _ZN8casacore14RecordFieldPtrIsED0Ev@Base 3.2.1
 _ZN8casacore14RecordFieldPtrIsED1Ev@Base 3.2.1
 _ZN8casacore14RecordFieldPtrIsED2Ev@Base 3.2.1
 _ZN8casacore14RecordFieldPtrIxE6notifyERKNS_6NoticeE@Base 3.2.1
 _ZN8casacore14RecordFieldPtrIxEC1ERNS_15RecordInterfaceEi@Base 3.2.1
 _ZN8casacore14RecordFieldPtrIxEC2ERNS_15RecordInterfaceEi@Base 3.2.1
 _ZN8casacore14RecordFieldPtrIxED0Ev@Base 3.2.1
 _ZN8casacore14RecordFieldPtrIxED1Ev@Base 3.2.1
 _ZN8casacore14RecordFieldPtrIxED2Ev@Base 3.2.1
 _ZN8casacore14StManArrayFile11getRefCountEx@Base 3.2.1
 _ZN8casacore14StManArrayFile11putRefCountEjx@Base 3.2.1
 _ZN8casacore14StManArrayFile12copyArrayIntExxj@Base 3.2.1
 _ZN8casacore14StManArrayFile13copyArrayBoolExxj@Base 3.2.1
 _ZN8casacore14StManArrayFile13copyArrayCharExxj@Base 3.2.1
 _ZN8casacore14StManArrayFile13copyArrayuIntExxj@Base 3.2.1
 _ZN8casacore14StManArrayFile14copyArrayFloatExxj@Base 3.2.1
 _ZN8casacore14StManArrayFile14copyArrayInt64Exxj@Base 3.2.1
 _ZN8casacore14StManArrayFile14copyArrayShortExxj@Base 3.2.1
 _ZN8casacore14StManArrayFile14copyArrayuCharExxj@Base 3.2.1
 _ZN8casacore14StManArrayFile15copyArrayDoubleExxj@Base 3.2.1
 _ZN8casacore14StManArrayFile15copyArrayStringExxj@Base 3.2.1
 _ZN8casacore14StManArrayFile15copyArrayuInt64Exxj@Base 3.2.1
 _ZN8casacore14StManArrayFile15copyArrayuShortExxj@Base 3.2.1
 _ZN8casacore14StManArrayFile16copyArrayComplexExxj@Base 3.2.1
 _ZN8casacore14StManArrayFile17copyArrayDComplexExxj@Base 3.2.1
 _ZN8casacore14StManArrayFile3getExjjPNS_6StringE@Base 3.2.1
 _ZN8casacore14StManArrayFile3getExjjPSt7complexIdE@Base 3.2.1
 _ZN8casacore14StManArrayFile3getExjjPSt7complexIfE@Base 3.2.1
 _ZN8casacore14StManArrayFile3getExjjPb@Base 3.2.1
 _ZN8casacore14StManArrayFile3getExjjPc@Base 3.2.1
 _ZN8casacore14StManArrayFile3getExjjPd@Base 3.2.1
 _ZN8casacore14StManArrayFile3getExjjPf@Base 3.2.1
 _ZN8casacore14StManArrayFile3getExjjPh@Base 3.2.1
 _ZN8casacore14StManArrayFile3getExjjPi@Base 3.2.1
 _ZN8casacore14StManArrayFile3getExjjPj@Base 3.2.1
 _ZN8casacore14StManArrayFile3getExjjPs@Base 3.2.1
 _ZN8casacore14StManArrayFile3getExjjPt@Base 3.2.1
 _ZN8casacore14StManArrayFile3getExjjPx@Base 3.2.1
 _ZN8casacore14StManArrayFile3getExjjPy@Base 3.2.1
 _ZN8casacore14StManArrayFile3putExjjPKNS_6StringE@Base 3.2.1
 _ZN8casacore14StManArrayFile3putExjjPKSt7complexIdE@Base 3.2.1
 _ZN8casacore14StManArrayFile3putExjjPKSt7complexIfE@Base 3.2.1
 _ZN8casacore14StManArrayFile3putExjjPKb@Base 3.2.1
 _ZN8casacore14StManArrayFile3putExjjPKc@Base 3.2.1
 _ZN8casacore14StManArrayFile3putExjjPKd@Base 3.2.1
 _ZN8casacore14StManArrayFile3putExjjPKf@Base 3.2.1
 _ZN8casacore14StManArrayFile3putExjjPKh@Base 3.2.1
 _ZN8casacore14StManArrayFile3putExjjPKi@Base 3.2.1
 _ZN8casacore14StManArrayFile3putExjjPKj@Base 3.2.1
 _ZN8casacore14StManArrayFile3putExjjPKs@Base 3.2.1
 _ZN8casacore14StManArrayFile3putExjjPKt@Base 3.2.1
 _ZN8casacore14StManArrayFile3putExjjPKx@Base 3.2.1
 _ZN8casacore14StManArrayFile3putExjjPKy@Base 3.2.1
 _ZN8casacore14StManArrayFile5flushEb@Base 3.2.1
 _ZN8casacore14StManArrayFile6putResERKNS_9IPositionERxf@Base 3.2.1
 _ZN8casacore14StManArrayFile6resyncEv@Base 3.2.1
 _ZN8casacore14StManArrayFile6setposEx@Base 3.2.1
 _ZN8casacore14StManArrayFile8copyDataExxj@Base 3.2.1
 _ZN8casacore14StManArrayFile8getShapeExRNS_9IPositionE@Base 3.2.1
 _ZN8casacore14StManArrayFile8putShapeERKNS_9IPositionERxPKNS_6StringE@Base 3.2.1
 _ZN8casacore14StManArrayFile8putShapeERKNS_9IPositionERxPKSt7complexIdE@Base 3.2.1
 _ZN8casacore14StManArrayFile8putShapeERKNS_9IPositionERxPKSt7complexIfE@Base 3.2.1
 _ZN8casacore14StManArrayFile8putShapeERKNS_9IPositionERxPKb@Base 3.2.1
 _ZN8casacore14StManArrayFile8putShapeERKNS_9IPositionERxPKc@Base 3.2.1
 _ZN8casacore14StManArrayFile8putShapeERKNS_9IPositionERxPKd@Base 3.2.1
 _ZN8casacore14StManArrayFile8putShapeERKNS_9IPositionERxPKf@Base 3.2.1
 _ZN8casacore14StManArrayFile8putShapeERKNS_9IPositionERxPKh@Base 3.2.1
 _ZN8casacore14StManArrayFile8putShapeERKNS_9IPositionERxPKi@Base 3.2.1
 _ZN8casacore14StManArrayFile8putShapeERKNS_9IPositionERxPKj@Base 3.2.1
 _ZN8casacore14StManArrayFile8putShapeERKNS_9IPositionERxPKs@Base 3.2.1
 _ZN8casacore14StManArrayFile8putShapeERKNS_9IPositionERxPKt@Base 3.2.1
 _ZN8casacore14StManArrayFile8putShapeERKNS_9IPositionERxPKx@Base 3.2.1
 _ZN8casacore14StManArrayFile8putShapeERKNS_9IPositionERxPKy@Base 3.2.1
 _ZN8casacore14StManArrayFileC1ERKNS_6StringENS_6ByteIO10OpenOptionEjbjPNS_13MultiFileBaseE@Base 3.2.1
 _ZN8casacore14StManArrayFileC2ERKNS_6StringENS_6ByteIO10OpenOptionEjbjPNS_13MultiFileBaseE@Base 3.2.1
 _ZN8casacore14StManArrayFileD1Ev@Base 3.2.1
 _ZN8casacore14StManArrayFileD2Ev@Base 3.2.1
 _ZN8casacore14StringDistanceD1Ev@Base 3.2.1
 _ZN8casacore14StringDistanceD2Ev@Base 3.2.1
 _ZN8casacore14TEFNAFillArrayINS_6MVTimeEEEvRNS_5ArrayIT_EES4_@Base 3.2.1
 _ZN8casacore14TEFNAFillArrayINS_6StringEEEvRNS_5ArrayIT_EES4_@Base 3.2.1
 _ZN8casacore14TEFNAFillArrayISt7complexIdEEEvRNS_5ArrayIT_EES5_@Base 3.2.1
 _ZN8casacore14TEFNAFillArrayIbEEvRNS_5ArrayIT_EES3_@Base 3.2.1
 _ZN8casacore14TEFNAFillArrayIdEEvRNS_5ArrayIT_EES3_@Base 3.2.1
 _ZN8casacore14TEFNAFillArrayIxEEvRNS_5ArrayIT_EES3_@Base 3.2.1
 _ZN8casacore14TSMCoordColumn10getdoubleVEjPd@Base 3.2.1
 _ZN8casacore14TSMCoordColumn10putdoubleVEjPKd@Base 3.2.1
 _ZN8casacore14TSMCoordColumn11getComplexVEjPSt7complexIfE@Base 3.2.1
 _ZN8casacore14TSMCoordColumn11putComplexVEjPKSt7complexIfE@Base 3.2.1
 _ZN8casacore14TSMCoordColumn12getArrayIntVEjPNS_5ArrayIiEE@Base 3.2.1
 _ZN8casacore14TSMCoordColumn12getDComplexVEjPSt7complexIdE@Base 3.2.1
 _ZN8casacore14TSMCoordColumn12putArrayIntVEjPKNS_5ArrayIiEE@Base 3.2.1
 _ZN8casacore14TSMCoordColumn12putDComplexVEjPKSt7complexIdE@Base 3.2.1
 _ZN8casacore14TSMCoordColumn13getArrayuIntVEjPNS_5ArrayIjEE@Base 3.2.1
 _ZN8casacore14TSMCoordColumn13putArrayuIntVEjPKNS_5ArrayIjEE@Base 3.2.1
 _ZN8casacore14TSMCoordColumn14getArrayInt64VEjPNS_5ArrayIxEE@Base 3.2.1
 _ZN8casacore14TSMCoordColumn14getArrayfloatVEjPNS_5ArrayIfEE@Base 3.2.1
 _ZN8casacore14TSMCoordColumn14isShapeDefinedEj@Base 3.2.1
 _ZN8casacore14TSMCoordColumn14putArrayInt64VEjPKNS_5ArrayIxEE@Base 3.2.1
 _ZN8casacore14TSMCoordColumn14putArrayfloatVEjPKNS_5ArrayIfEE@Base 3.2.1
 _ZN8casacore14TSMCoordColumn15getArraydoubleVEjPNS_5ArrayIdEE@Base 3.2.1
 _ZN8casacore14TSMCoordColumn15putArraydoubleVEjPKNS_5ArrayIdEE@Base 3.2.1
 _ZN8casacore14TSMCoordColumn16getArrayComplexVEjPNS_5ArrayISt7complexIfEEE@Base 3.2.1
 _ZN8casacore14TSMCoordColumn16putArrayComplexVEjPKNS_5ArrayISt7complexIfEEE@Base 3.2.1
 _ZN8casacore14TSMCoordColumn17getArrayDComplexVEjPNS_5ArrayISt7complexIdEEE@Base 3.2.1
 _ZN8casacore14TSMCoordColumn17putArrayDComplexVEjPKNS_5ArrayISt7complexIdEEE@Base 3.2.1
 _ZN8casacore14TSMCoordColumn5shapeEj@Base 3.2.1
 _ZN8casacore14TSMCoordColumn7getIntVEjPi@Base 3.2.1
 _ZN8casacore14TSMCoordColumn7putIntVEjPKi@Base 3.2.1
 _ZN8casacore14TSMCoordColumn8getuIntVEjPj@Base 3.2.1
 _ZN8casacore14TSMCoordColumn8putuIntVEjPKj@Base 3.2.1
 _ZN8casacore14TSMCoordColumn8setShapeEjRKNS_9IPositionE@Base 3.2.1
 _ZN8casacore14TSMCoordColumn9getInt64VEjPx@Base 3.2.1
 _ZN8casacore14TSMCoordColumn9getfloatVEjPf@Base 3.2.1
 _ZN8casacore14TSMCoordColumn9putInt64VEjPKx@Base 3.2.1
 _ZN8casacore14TSMCoordColumn9putfloatVEjPKf@Base 3.2.1
 _ZN8casacore14TSMCoordColumnC1ERKNS_9TSMColumnEj@Base 3.2.1
 _ZN8casacore14TSMCoordColumnC2ERKNS_9TSMColumnEj@Base 3.2.1
 _ZN8casacore14TSMCoordColumnD0Ev@Base 3.2.1
 _ZN8casacore14TSMCoordColumnD1Ev@Base 3.2.1
 _ZN8casacore14TSMCoordColumnD2Ev@Base 3.2.1
 _ZN8casacore14TaQLColNodeRep7restoreERNS_6AipsIOE@Base 3.2.1
 _ZN8casacore14TaQLColNodeRepC1ERKNS_8TaQLNodeERKNS_6StringES6_S6_@Base 3.2.1
 _ZN8casacore14TaQLColNodeRepC2ERKNS_8TaQLNodeERKNS_6StringES6_S6_@Base 3.2.1
 _ZN8casacore14TaQLColNodeRepD0Ev@Base 3.2.1
 _ZN8casacore14TaQLColNodeRepD1Ev@Base 3.2.1
 _ZN8casacore14TaQLColNodeRepD2Ev@Base 3.2.1
 _ZN8casacore14TableExprRange5mixOrERKS0_@Base 3.2.1
 _ZN8casacore14TableExprRange6mixAndERKS0_@Base 3.2.1
 _ZN8casacore14TableExprRangeC1ERKNS_11TableColumnEdd@Base 3.2.1
 _ZN8casacore14TableExprRangeC1ERKS0_@Base 3.2.1
 _ZN8casacore14TableExprRangeC1Ev@Base 3.2.1
 _ZN8casacore14TableExprRangeC2ERKNS_11TableColumnEdd@Base 3.2.1
 _ZN8casacore14TableExprRangeC2ERKS0_@Base 3.2.1
 _ZN8casacore14TableExprRangeC2Ev@Base 3.2.1
 _ZN8casacore14TableExprRangeD1Ev@Base 3.2.1
 _ZN8casacore14TableExprRangeD2Ev@Base 3.2.1
 _ZN8casacore14TableExprRangeaSERKS0_@Base 3.2.1
 _ZN8casacore14TableGramErrorC1EiRKNS_6StringENS_9AipsError8CategoryE@Base 3.2.1
 _ZN8casacore14TableGramErrorC2EiRKNS_6StringENS_9AipsError8CategoryE@Base 3.2.1
 _ZN8casacore14TableGramErrorD0Ev@Base 3.2.1
 _ZN8casacore14TableGramErrorD1Ev@Base 3.2.1
 _ZN8casacore14TableGramErrorD2Ev@Base 3.2.1
 _ZN8casacore14TableGramerrorEPKc@Base 3.2.1
 _ZN8casacore14TableIterProxy12makeStepIterERKNS_5TableERKNS_5BlockINS_6StringEEERKNS_6VectorIdEENS_13TableIterator5OrderENSD_6OptionE@Base 3.2.1
 _ZN8casacore14TableIterProxy4nextEv@Base 3.2.1
 _ZN8casacore14TableIterProxy5resetEv@Base 3.2.1
 _ZN8casacore14TableIterProxy8nextPartERNS_10TableProxyE@Base 3.2.1
 _ZN8casacore14TableIterProxyC1ERKNS_10TableProxyERKNS_6VectorINS_6StringEEERKS5_SA_RKNS4_IdEE@Base 3.2.1
 _ZN8casacore14TableIterProxyC1ERKS0_@Base 3.2.1
 _ZN8casacore14TableIterProxyC1Ev@Base 3.2.1
 _ZN8casacore14TableIterProxyC2ERKNS_10TableProxyERKNS_6VectorINS_6StringEEERKS5_SA_RKNS4_IdEE@Base 3.2.1
 _ZN8casacore14TableIterProxyC2ERKS0_@Base 3.2.1
 _ZN8casacore14TableIterProxyC2Ev@Base 3.2.1
 _ZN8casacore14TableIterProxyD1Ev@Base 3.2.1
 _ZN8casacore14TableIterProxyD2Ev@Base 3.2.1
 _ZN8casacore14TableIterProxyaSERKS0_@Base 3.2.1
 _ZN8casacore14TableNoDatFileC1ERKNS_6StringENS_9AipsError8CategoryE@Base 3.2.1
 _ZN8casacore14TableNoDatFileC2ERKNS_6StringENS_9AipsError8CategoryE@Base 3.2.1
 _ZN8casacore14TableNoDatFileD0Ev@Base 3.2.1
 _ZN8casacore14TableNoDatFileD1Ev@Base 3.2.1
 _ZN8casacore14TableNoDatFileD2Ev@Base 3.2.1
 _ZN8casacore14TableParseSortC1ERKNS_13TableExprNodeE@Base 3.2.1
 _ZN8casacore14TableParseSortC1ERKNS_13TableExprNodeENS_4Sort5OrderE@Base 3.2.1
 _ZN8casacore14TableParseSortC1Ev@Base 3.2.1
 _ZN8casacore14TableParseSortC2ERKNS_13TableExprNodeE@Base 3.2.1
 _ZN8casacore14TableParseSortC2ERKNS_13TableExprNodeENS_4Sort5OrderE@Base 3.2.1
 _ZN8casacore14TableParseSortC2Ev@Base 3.2.1
 _ZN8casacore14TableParseSortD1Ev@Base 3.2.1
 _ZN8casacore14TableParseSortD2Ev@Base 3.2.1
 _ZN8casacore14TableRecordRep10copy_otherERKS0_@Base 3.2.1
 _ZN8casacore14TableRecordRep10mergeFieldERKS0_iNS_15RecordInterface14DuplicatesFlagE@Base 3.2.1
 _ZN8casacore14TableRecordRep10removeDataEiPvS1_@Base 3.2.1
 _ZN8casacore14TableRecordRep11restructureERKNS_10RecordDescEb@Base 3.2.1
 _ZN8casacore14TableRecordRep12renameTablesERKNS_6StringES3_@Base 3.2.1
 _ZN8casacore14TableRecordRep14addFieldToDescERKNS_6StringENS_8DataTypeERKNS_9IPositionEb@Base 3.2.1
 _ZN8casacore14TableRecordRep14getTableKeySetERNS_6AipsIOEjRKNS_9TableAttrEj@Base 3.2.1
 _ZN8casacore14TableRecordRep15defineDataFieldEiNS_8DataTypeEPKv@Base 3.2.1
 _ZN8casacore14TableRecordRep19removeFieldFromDescEi@Base 3.2.1
 _ZN8casacore14TableRecordRep5mergeERKS0_NS_15RecordInterface14DuplicatesFlagE@Base 3.2.1
 _ZN8casacore14TableRecordRep7getDataERNS_6AipsIOEjRKNS_9TableAttrE@Base 3.2.1
 _ZN8casacore14TableRecordRep8addFieldERKNS_6StringERKNS_11TableRecordENS_15RecordInterface10RecordTypeE@Base 3.2.1
 _ZN8casacore14TableRecordRep8addFieldERKNS_6StringERKNS_5TableENS_15RecordInterface10RecordTypeE@Base 3.2.1
 _ZN8casacore14TableRecordRep8copyDataERKS0_@Base 3.2.1
 _ZN8casacore14TableRecordRep8reopenRWEv@Base 3.2.1
 _ZN8casacore14TableRecordRep9getRecordERNS_6AipsIOERiRKNS_9TableAttrE@Base 3.2.1
 _ZN8casacore14TableRecordRepC1ERKNS_10RecordDescE@Base 3.2.1
 _ZN8casacore14TableRecordRepC1ERKS0_@Base 3.2.1
 _ZN8casacore14TableRecordRepC1Ev@Base 3.2.1
 _ZN8casacore14TableRecordRepC2ERKNS_10RecordDescE@Base 3.2.1
 _ZN8casacore14TableRecordRepC2ERKS0_@Base 3.2.1
 _ZN8casacore14TableRecordRepC2Ev@Base 3.2.1
 _ZN8casacore14TableRecordRepD0Ev@Base 3.2.1
 _ZN8casacore14TableRecordRepD1Ev@Base 3.2.1
 _ZN8casacore14TableRecordRepD2Ev@Base 3.2.1
 _ZN8casacore14TableRecordRepaSERKS0_@Base 3.2.1
 _ZN8casacore14TiledCellStMan10makeObjectERKNS_6StringERKNS_6RecordE@Base 3.2.1
 _ZN8casacore14TiledCellStMan10readHeaderEjb@Base 3.2.1
 _ZN8casacore14TiledCellStMan12getHypercubeEj@Base 3.2.1
 _ZN8casacore14TiledCellStMan12getHypercubeEjRNS_9IPositionE@Base 3.2.1
 _ZN8casacore14TiledCellStMan5flushERNS_6AipsIOEb@Base 3.2.1
 _ZN8casacore14TiledCellStMan6addRowEj@Base 3.2.1
 _ZN8casacore14TiledCellStMan6createEj@Base 3.2.1
 _ZN8casacore14TiledCellStMan8setShapeEjPNS_7TSMCubeERKNS_9IPositionES5_@Base 3.2.1
 _ZN8casacore14TiledCellStManC1ERKNS_6StringERKNS_6RecordE@Base 3.2.1
 _ZN8casacore14TiledCellStManC1ERKNS_6StringERKNS_9IPositionEj@Base 3.2.1
 _ZN8casacore14TiledCellStManC1Ev@Base 3.2.1
 _ZN8casacore14TiledCellStManC2ERKNS_6StringERKNS_6RecordE@Base 3.2.1
 _ZN8casacore14TiledCellStManC2ERKNS_6StringERKNS_9IPositionEj@Base 3.2.1
 _ZN8casacore14TiledCellStManC2Ev@Base 3.2.1
 _ZN8casacore14TiledCellStManD0Ev@Base 3.2.1
 _ZN8casacore14TiledCellStManD1Ev@Base 3.2.1
 _ZN8casacore14TiledCellStManD2Ev@Base 3.2.1
 _ZN8casacore14TiledDataStMan10makeObjectERKNS_6StringERKNS_6RecordE@Base 3.2.1
 _ZN8casacore14TiledDataStMan10readHeaderEjb@Base 3.2.1
 _ZN8casacore14TiledDataStMan12addHypercubeERKNS_9IPositionES3_RKNS_6RecordE@Base 3.2.1
 _ZN8casacore14TiledDataStMan12getHypercubeEj@Base 3.2.1
 _ZN8casacore14TiledDataStMan12getHypercubeEjRNS_9IPositionE@Base 3.2.1
 _ZN8casacore14TiledDataStMan12updateRowMapEjj@Base 3.2.1
 _ZN8casacore14TiledDataStMan15extendHypercubeEjRKNS_6RecordE@Base 3.2.1
 _ZN8casacore14TiledDataStMan5flushERNS_6AipsIOEb@Base 3.2.1
 _ZN8casacore14TiledDataStMan6addRowEj@Base 3.2.1
 _ZN8casacore14TiledDataStMan6createEj@Base 3.2.1
 _ZN8casacore14TiledDataStManC1ERKNS_6StringERKNS_6RecordE@Base 3.2.1
 _ZN8casacore14TiledDataStManC1ERKNS_6StringEj@Base 3.2.1
 _ZN8casacore14TiledDataStManC1Ev@Base 3.2.1
 _ZN8casacore14TiledDataStManC2ERKNS_6StringERKNS_6RecordE@Base 3.2.1
 _ZN8casacore14TiledDataStManC2ERKNS_6StringEj@Base 3.2.1
 _ZN8casacore14TiledDataStManC2Ev@Base 3.2.1
 _ZN8casacore14TiledDataStManD0Ev@Base 3.2.1
 _ZN8casacore14TiledDataStManD1Ev@Base 3.2.1
 _ZN8casacore14TiledDataStManD2Ev@Base 3.2.1
 _ZN8casacore14arrayTransformISt7complexIdES2_S2_NS_3MaxIS2_S2_S2_EEEEvRKNS_5ArrayIT_EERKNS5_IT0_EERNS5_IT1_EET2_@Base 3.2.1
 _ZN8casacore14arrayTransformISt7complexIdES2_S2_NS_3MaxIS2_S2_S2_EEEEvRKNS_5ArrayIT_EET0_RNS5_IT1_EET2_@Base 3.2.1
 _ZN8casacore14arrayTransformISt7complexIdES2_S2_NS_3MinIS2_S2_S2_EEEEvRKNS_5ArrayIT_EERKNS5_IT0_EERNS5_IT1_EET2_@Base 3.2.1
 _ZN8casacore14arrayTransformISt7complexIdES2_S2_NS_3MinIS2_S2_S2_EEEEvRKNS_5ArrayIT_EET0_RNS5_IT1_EET2_@Base 3.2.1
 _ZN8casacore14arrayTransformIdddNS_3MaxIdddEEEEvRKNS_5ArrayIT_EERKNS3_IT0_EERNS3_IT1_EET2_@Base 3.2.1
 _ZN8casacore14arrayTransformIdddNS_3MaxIdddEEEEvRKNS_5ArrayIT_EET0_RNS3_IT1_EET2_@Base 3.2.1
 _ZN8casacore14arrayTransformIdddNS_3MinIdddEEEEvRKNS_5ArrayIT_EERKNS3_IT0_EERNS3_IT1_EET2_@Base 3.2.1
 _ZN8casacore14arrayTransformIdddNS_3MinIdddEEEEvRKNS_5ArrayIT_EET0_RNS3_IT1_EET2_@Base 3.2.1
 _ZN8casacore14arrayTransformIhbNS_14BitFlagsEngineIhE11FlagsToBoolEEEvRKNS_5ArrayIT_EERNS4_IT0_EET1_@Base 3.2.1
 _ZN8casacore14arrayTransformIibNS_14BitFlagsEngineIiE11FlagsToBoolEEEvRKNS_5ArrayIT_EERNS4_IT0_EET1_@Base 3.2.1
 _ZN8casacore14arrayTransformIsbNS_14BitFlagsEngineIsE11FlagsToBoolEEEvRKNS_5ArrayIT_EERNS4_IT0_EET1_@Base 3.2.1
 _ZN8casacore14arrayTransformIxxxNS_3MaxIxxxEEEEvRKNS_5ArrayIT_EERKNS3_IT0_EERNS3_IT1_EET2_@Base 3.2.1
 _ZN8casacore14arrayTransformIxxxNS_3MaxIxxxEEEEvRKNS_5ArrayIT_EET0_RNS3_IT1_EET2_@Base 3.2.1
 _ZN8casacore14arrayTransformIxxxNS_3MinIxxxEEEEvRKNS_5ArrayIT_EERKNS3_IT0_EERNS3_IT1_EET2_@Base 3.2.1
 _ZN8casacore14arrayTransformIxxxNS_3MinIxxxEEEEvRKNS_5ArrayIT_EET0_RNS3_IT1_EET2_@Base 3.2.1
 _ZN8casacore14boxedArrayMathISt7complexIdES2_EEvRNS_5ArrayIT0_EERKNS3_IT_EERKNS_9IPositionERKNS_16ArrayFunctorBaseIS7_S4_EE@Base 3.2.1
 _ZN8casacore14boxedArrayMathISt7complexIdES2_EEvRNS_6MArrayIT0_EERKNS3_IT_EERKNS_9IPositionERKNS_17MArrayFunctorBaseIS7_S4_EE@Base 3.2.1
 _ZN8casacore14boxedArrayMathIbbEEvRNS_5ArrayIT0_EERKNS1_IT_EERKNS_9IPositionERKNS_16ArrayFunctorBaseIS5_S2_EE@Base 3.2.1
 _ZN8casacore14boxedArrayMathIbbEEvRNS_6MArrayIT0_EERKNS1_IT_EERKNS_9IPositionERKNS_17MArrayFunctorBaseIS5_S2_EE@Base 3.2.1
 _ZN8casacore14boxedArrayMathIbjEEvRNS_5ArrayIT0_EERKNS1_IT_EERKNS_9IPositionERKNS_16ArrayFunctorBaseIS5_S2_EE@Base 3.2.1
 _ZN8casacore14boxedArrayMathIbjEEvRNS_6MArrayIT0_EERKNS1_IT_EERKNS_9IPositionERKNS_17MArrayFunctorBaseIS5_S2_EE@Base 3.2.1
 _ZN8casacore14boxedArrayMathIddEEvRNS_5ArrayIT0_EERKNS1_IT_EERKNS_9IPositionERKNS_16ArrayFunctorBaseIS5_S2_EE@Base 3.2.1
 _ZN8casacore14boxedArrayMathIddEEvRNS_6MArrayIT0_EERKNS1_IT_EERKNS_9IPositionERKNS_17MArrayFunctorBaseIS5_S2_EE@Base 3.2.1
 _ZN8casacore14boxedArrayMathIxxEEvRNS_5ArrayIT0_EERKNS1_IT_EERKNS_9IPositionERKNS_16ArrayFunctorBaseIS5_S2_EE@Base 3.2.1
 _ZN8casacore14boxedArrayMathIxxEEvRNS_6MArrayIT0_EERKNS1_IT_EERKNS_9IPositionERKNS_17MArrayFunctorBaseIS5_S2_EE@Base 3.2.1
 _ZN8casacore14makeRecordExprERKNS_10RecordDescERKNS_6StringE@Base 3.2.1
 _ZN8casacore14makeRecordExprERKNS_10RecordDescEi@Base 3.2.1
 _ZN8casacore14makeRecordExprERKNS_15RecordInterfaceERKNS_6StringE@Base 3.2.1
 _ZN8casacore14partialMediansIdEENS_5ArrayIT_EERKS3_RKNS_9IPositionEbb@Base 3.2.1
 _ZN8casacore14partialStddevsISt7complexIdEEENS_6MArrayIT_EERKS5_RKNS_9IPositionEj@Base 3.2.1
 _ZN8casacore14partialStddevsIdEENS_6MArrayIT_EERKS3_RKNS_9IPositionEj@Base 3.2.1
 _ZN8casacore14readAsciiTableERKNS_6StringES2_S2_PKccS2_ii@Base 3.2.1
 _ZN8casacore14readAsciiTableERKNS_6StringES2_S2_RKNS_6VectorIS0_EES6_cS2_ii@Base 3.2.1
 _ZN8casacore14readAsciiTableERKNS_6StringES2_S2_S2_cS2_ii@Base 3.2.1
 _ZN8casacore14readAsciiTableERKNS_6StringES2_S2_bcS2_iiRKNS_9IPositionE@Base 3.2.1
 _ZN8casacore14readAsciiTableERNS_6StringENS_5Table9TableTypeERKS0_S5_S5_PKccS5_ii@Base 3.2.1
 _ZN8casacore14readAsciiTableERNS_6StringENS_5Table9TableTypeERKS0_S5_S5_RKNS_6VectorIS0_EES9_cS5_ii@Base 3.2.1
 _ZN8casacore14readAsciiTableERNS_6StringENS_5Table9TableTypeERKS0_S5_S5_S5_cS5_ii@Base 3.2.1
 _ZN8casacore14readAsciiTableERNS_6StringENS_5Table9TableTypeERKS0_S5_S5_bcS5_iiRKNS_9IPositionE@Base 3.2.1
 _ZN8casacore14reduceFuncHelpE@Base 3.2.1
 _ZN8casacore14showWithTablesERSoRKNS_13TaQLMultiNodeE@Base 3.2.1
 _ZN8casacore14stringFuncHelpE@Base 3.2.1
 _ZN8casacore14tableGramInputEPci@Base 3.2.1
 _ZN8casacore15ArrayColumnDataINS_6StringEE10initializeEjj@Base 3.2.1
 _ZN8casacore15ArrayColumnDataINS_6StringEE14getFileDerivedERNS_6AipsIOERKNS_9ColumnSetE@Base 3.2.1
 _ZN8casacore15ArrayColumnDataINS_6StringEE14putArrayColumnEPKv@Base 3.2.1
 _ZN8casacore15ArrayColumnDataINS_6StringEE14putColumnSliceERKNS_6SlicerEPKv@Base 3.2.1
 _ZN8casacore15ArrayColumnDataINS_6StringEE14putFileDerivedERNS_6AipsIOE@Base 3.2.1
 _ZN8casacore15ArrayColumnDataINS_6StringEE14setShapeColumnERKNS_9IPositionE@Base 3.2.1
 _ZN8casacore15ArrayColumnDataINS_6StringEE19putArrayColumnCellsERKNS_7RefRowsEPKv@Base 3.2.1
 _ZN8casacore15ArrayColumnDataINS_6StringEE19putColumnSliceCellsERKNS_7RefRowsERKNS_6SlicerEPKv@Base 3.2.1
 _ZN8casacore15ArrayColumnDataINS_6StringEE23createDataManagerColumnEv@Base 3.2.1
 _ZN8casacore15ArrayColumnDataINS_6StringEE3putEjPKv@Base 3.2.1
 _ZN8casacore15ArrayColumnDataINS_6StringEE8putSliceEjRKNS_6SlicerEPKv@Base 3.2.1
 _ZN8casacore15ArrayColumnDataINS_6StringEE8setShapeEjRKNS_9IPositionE@Base 3.2.1
 _ZN8casacore15ArrayColumnDataINS_6StringEE8setShapeEjRKNS_9IPositionES5_@Base 3.2.1
 _ZN8casacore15ArrayColumnDataINS_6StringEED0Ev@Base 3.2.1
 _ZN8casacore15ArrayColumnDataINS_6StringEED1Ev@Base 3.2.1
 _ZN8casacore15ArrayColumnDataINS_6StringEED2Ev@Base 3.2.1
 _ZN8casacore15ArrayColumnDataISt7complexIdEE10initializeEjj@Base 3.2.1
 _ZN8casacore15ArrayColumnDataISt7complexIdEE14getFileDerivedERNS_6AipsIOERKNS_9ColumnSetE@Base 3.2.1
 _ZN8casacore15ArrayColumnDataISt7complexIdEE14putArrayColumnEPKv@Base 3.2.1
 _ZN8casacore15ArrayColumnDataISt7complexIdEE14putColumnSliceERKNS_6SlicerEPKv@Base 3.2.1
 _ZN8casacore15ArrayColumnDataISt7complexIdEE14putFileDerivedERNS_6AipsIOE@Base 3.2.1
 _ZN8casacore15ArrayColumnDataISt7complexIdEE14setShapeColumnERKNS_9IPositionE@Base 3.2.1
 _ZN8casacore15ArrayColumnDataISt7complexIdEE19putArrayColumnCellsERKNS_7RefRowsEPKv@Base 3.2.1
 _ZN8casacore15ArrayColumnDataISt7complexIdEE19putColumnSliceCellsERKNS_7RefRowsERKNS_6SlicerEPKv@Base 3.2.1
 _ZN8casacore15ArrayColumnDataISt7complexIdEE23createDataManagerColumnEv@Base 3.2.1
 _ZN8casacore15ArrayColumnDataISt7complexIdEE3putEjPKv@Base 3.2.1
 _ZN8casacore15ArrayColumnDataISt7complexIdEE8putSliceEjRKNS_6SlicerEPKv@Base 3.2.1
 _ZN8casacore15ArrayColumnDataISt7complexIdEE8setShapeEjRKNS_9IPositionE@Base 3.2.1
 _ZN8casacore15ArrayColumnDataISt7complexIdEE8setShapeEjRKNS_9IPositionES6_@Base 3.2.1
 _ZN8casacore15ArrayColumnDataISt7complexIdEED0Ev@Base 3.2.1
 _ZN8casacore15ArrayColumnDataISt7complexIdEED1Ev@Base 3.2.1
 _ZN8casacore15ArrayColumnDataISt7complexIdEED2Ev@Base 3.2.1
 _ZN8casacore15ArrayColumnDataISt7complexIfEE10initializeEjj@Base 3.2.1
 _ZN8casacore15ArrayColumnDataISt7complexIfEE14getFileDerivedERNS_6AipsIOERKNS_9ColumnSetE@Base 3.2.1
 _ZN8casacore15ArrayColumnDataISt7complexIfEE14putArrayColumnEPKv@Base 3.2.1
 _ZN8casacore15ArrayColumnDataISt7complexIfEE14putColumnSliceERKNS_6SlicerEPKv@Base 3.2.1
 _ZN8casacore15ArrayColumnDataISt7complexIfEE14putFileDerivedERNS_6AipsIOE@Base 3.2.1
 _ZN8casacore15ArrayColumnDataISt7complexIfEE14setShapeColumnERKNS_9IPositionE@Base 3.2.1
 _ZN8casacore15ArrayColumnDataISt7complexIfEE19putArrayColumnCellsERKNS_7RefRowsEPKv@Base 3.2.1
 _ZN8casacore15ArrayColumnDataISt7complexIfEE19putColumnSliceCellsERKNS_7RefRowsERKNS_6SlicerEPKv@Base 3.2.1
 _ZN8casacore15ArrayColumnDataISt7complexIfEE23createDataManagerColumnEv@Base 3.2.1
 _ZN8casacore15ArrayColumnDataISt7complexIfEE3putEjPKv@Base 3.2.1
 _ZN8casacore15ArrayColumnDataISt7complexIfEE8putSliceEjRKNS_6SlicerEPKv@Base 3.2.1
 _ZN8casacore15ArrayColumnDataISt7complexIfEE8setShapeEjRKNS_9IPositionE@Base 3.2.1
 _ZN8casacore15ArrayColumnDataISt7complexIfEE8setShapeEjRKNS_9IPositionES6_@Base 3.2.1
 _ZN8casacore15ArrayColumnDataISt7complexIfEED0Ev@Base 3.2.1
 _ZN8casacore15ArrayColumnDataISt7complexIfEED1Ev@Base 3.2.1
 _ZN8casacore15ArrayColumnDataISt7complexIfEED2Ev@Base 3.2.1
 _ZN8casacore15ArrayColumnDataIbE10initializeEjj@Base 3.2.1
 _ZN8casacore15ArrayColumnDataIbE14getFileDerivedERNS_6AipsIOERKNS_9ColumnSetE@Base 3.2.1
 _ZN8casacore15ArrayColumnDataIbE14putArrayColumnEPKv@Base 3.2.1
 _ZN8casacore15ArrayColumnDataIbE14putColumnSliceERKNS_6SlicerEPKv@Base 3.2.1
 _ZN8casacore15ArrayColumnDataIbE14putFileDerivedERNS_6AipsIOE@Base 3.2.1
 _ZN8casacore15ArrayColumnDataIbE14setShapeColumnERKNS_9IPositionE@Base 3.2.1
 _ZN8casacore15ArrayColumnDataIbE19putArrayColumnCellsERKNS_7RefRowsEPKv@Base 3.2.1
 _ZN8casacore15ArrayColumnDataIbE19putColumnSliceCellsERKNS_7RefRowsERKNS_6SlicerEPKv@Base 3.2.1
 _ZN8casacore15ArrayColumnDataIbE23createDataManagerColumnEv@Base 3.2.1
 _ZN8casacore15ArrayColumnDataIbE3putEjPKv@Base 3.2.1
 _ZN8casacore15ArrayColumnDataIbE8putSliceEjRKNS_6SlicerEPKv@Base 3.2.1
 _ZN8casacore15ArrayColumnDataIbE8setShapeEjRKNS_9IPositionE@Base 3.2.1
 _ZN8casacore15ArrayColumnDataIbE8setShapeEjRKNS_9IPositionES4_@Base 3.2.1
 _ZN8casacore15ArrayColumnDataIbED0Ev@Base 3.2.1
 _ZN8casacore15ArrayColumnDataIbED1Ev@Base 3.2.1
 _ZN8casacore15ArrayColumnDataIbED2Ev@Base 3.2.1
 _ZN8casacore15ArrayColumnDataIcE10initializeEjj@Base 3.2.1
 _ZN8casacore15ArrayColumnDataIcE14getFileDerivedERNS_6AipsIOERKNS_9ColumnSetE@Base 3.2.1
 _ZN8casacore15ArrayColumnDataIcE14putArrayColumnEPKv@Base 3.2.1
 _ZN8casacore15ArrayColumnDataIcE14putColumnSliceERKNS_6SlicerEPKv@Base 3.2.1
 _ZN8casacore15ArrayColumnDataIcE14putFileDerivedERNS_6AipsIOE@Base 3.2.1
 _ZN8casacore15ArrayColumnDataIcE14setShapeColumnERKNS_9IPositionE@Base 3.2.1
 _ZN8casacore15ArrayColumnDataIcE19putArrayColumnCellsERKNS_7RefRowsEPKv@Base 3.2.1
 _ZN8casacore15ArrayColumnDataIcE19putColumnSliceCellsERKNS_7RefRowsERKNS_6SlicerEPKv@Base 3.2.1
 _ZN8casacore15ArrayColumnDataIcE23createDataManagerColumnEv@Base 3.2.1
 _ZN8casacore15ArrayColumnDataIcE3putEjPKv@Base 3.2.1
 _ZN8casacore15ArrayColumnDataIcE8putSliceEjRKNS_6SlicerEPKv@Base 3.2.1
 _ZN8casacore15ArrayColumnDataIcE8setShapeEjRKNS_9IPositionE@Base 3.2.1
 _ZN8casacore15ArrayColumnDataIcE8setShapeEjRKNS_9IPositionES4_@Base 3.2.1
 _ZN8casacore15ArrayColumnDataIcED0Ev@Base 3.2.1
 _ZN8casacore15ArrayColumnDataIcED1Ev@Base 3.2.1
 _ZN8casacore15ArrayColumnDataIcED2Ev@Base 3.2.1
 _ZN8casacore15ArrayColumnDataIdE10initializeEjj@Base 3.2.1
 _ZN8casacore15ArrayColumnDataIdE14getFileDerivedERNS_6AipsIOERKNS_9ColumnSetE@Base 3.2.1
 _ZN8casacore15ArrayColumnDataIdE14putArrayColumnEPKv@Base 3.2.1
 _ZN8casacore15ArrayColumnDataIdE14putColumnSliceERKNS_6SlicerEPKv@Base 3.2.1
 _ZN8casacore15ArrayColumnDataIdE14putFileDerivedERNS_6AipsIOE@Base 3.2.1
 _ZN8casacore15ArrayColumnDataIdE14setShapeColumnERKNS_9IPositionE@Base 3.2.1
 _ZN8casacore15ArrayColumnDataIdE19putArrayColumnCellsERKNS_7RefRowsEPKv@Base 3.2.1
 _ZN8casacore15ArrayColumnDataIdE19putColumnSliceCellsERKNS_7RefRowsERKNS_6SlicerEPKv@Base 3.2.1
 _ZN8casacore15ArrayColumnDataIdE23createDataManagerColumnEv@Base 3.2.1
 _ZN8casacore15ArrayColumnDataIdE3putEjPKv@Base 3.2.1
 _ZN8casacore15ArrayColumnDataIdE8putSliceEjRKNS_6SlicerEPKv@Base 3.2.1
 _ZN8casacore15ArrayColumnDataIdE8setShapeEjRKNS_9IPositionE@Base 3.2.1
 _ZN8casacore15ArrayColumnDataIdE8setShapeEjRKNS_9IPositionES4_@Base 3.2.1
 _ZN8casacore15ArrayColumnDataIdED0Ev@Base 3.2.1
 _ZN8casacore15ArrayColumnDataIdED1Ev@Base 3.2.1
 _ZN8casacore15ArrayColumnDataIdED2Ev@Base 3.2.1
 _ZN8casacore15ArrayColumnDataIfE10initializeEjj@Base 3.2.1
 _ZN8casacore15ArrayColumnDataIfE14getFileDerivedERNS_6AipsIOERKNS_9ColumnSetE@Base 3.2.1
 _ZN8casacore15ArrayColumnDataIfE14putArrayColumnEPKv@Base 3.2.1
 _ZN8casacore15ArrayColumnDataIfE14putColumnSliceERKNS_6SlicerEPKv@Base 3.2.1
 _ZN8casacore15ArrayColumnDataIfE14putFileDerivedERNS_6AipsIOE@Base 3.2.1
 _ZN8casacore15ArrayColumnDataIfE14setShapeColumnERKNS_9IPositionE@Base 3.2.1
 _ZN8casacore15ArrayColumnDataIfE19putArrayColumnCellsERKNS_7RefRowsEPKv@Base 3.2.1
 _ZN8casacore15ArrayColumnDataIfE19putColumnSliceCellsERKNS_7RefRowsERKNS_6SlicerEPKv@Base 3.2.1
 _ZN8casacore15ArrayColumnDataIfE23createDataManagerColumnEv@Base 3.2.1
 _ZN8casacore15ArrayColumnDataIfE3putEjPKv@Base 3.2.1
 _ZN8casacore15ArrayColumnDataIfE8putSliceEjRKNS_6SlicerEPKv@Base 3.2.1
 _ZN8casacore15ArrayColumnDataIfE8setShapeEjRKNS_9IPositionE@Base 3.2.1
 _ZN8casacore15ArrayColumnDataIfE8setShapeEjRKNS_9IPositionES4_@Base 3.2.1
 _ZN8casacore15ArrayColumnDataIfED0Ev@Base 3.2.1
 _ZN8casacore15ArrayColumnDataIfED1Ev@Base 3.2.1
 _ZN8casacore15ArrayColumnDataIfED2Ev@Base 3.2.1
 _ZN8casacore15ArrayColumnDataIhE10initializeEjj@Base 3.2.1
 _ZN8casacore15ArrayColumnDataIhE14getFileDerivedERNS_6AipsIOERKNS_9ColumnSetE@Base 3.2.1
 _ZN8casacore15ArrayColumnDataIhE14putArrayColumnEPKv@Base 3.2.1
 _ZN8casacore15ArrayColumnDataIhE14putColumnSliceERKNS_6SlicerEPKv@Base 3.2.1
 _ZN8casacore15ArrayColumnDataIhE14putFileDerivedERNS_6AipsIOE@Base 3.2.1
 _ZN8casacore15ArrayColumnDataIhE14setShapeColumnERKNS_9IPositionE@Base 3.2.1
 _ZN8casacore15ArrayColumnDataIhE19putArrayColumnCellsERKNS_7RefRowsEPKv@Base 3.2.1
 _ZN8casacore15ArrayColumnDataIhE19putColumnSliceCellsERKNS_7RefRowsERKNS_6SlicerEPKv@Base 3.2.1
 _ZN8casacore15ArrayColumnDataIhE23createDataManagerColumnEv@Base 3.2.1
 _ZN8casacore15ArrayColumnDataIhE3putEjPKv@Base 3.2.1
 _ZN8casacore15ArrayColumnDataIhE8putSliceEjRKNS_6SlicerEPKv@Base 3.2.1
 _ZN8casacore15ArrayColumnDataIhE8setShapeEjRKNS_9IPositionE@Base 3.2.1
 _ZN8casacore15ArrayColumnDataIhE8setShapeEjRKNS_9IPositionES4_@Base 3.2.1
 _ZN8casacore15ArrayColumnDataIhED0Ev@Base 3.2.1
 _ZN8casacore15ArrayColumnDataIhED1Ev@Base 3.2.1
 _ZN8casacore15ArrayColumnDataIhED2Ev@Base 3.2.1
 _ZN8casacore15ArrayColumnDataIiE10initializeEjj@Base 3.2.1
 _ZN8casacore15ArrayColumnDataIiE14getFileDerivedERNS_6AipsIOERKNS_9ColumnSetE@Base 3.2.1
 _ZN8casacore15ArrayColumnDataIiE14putArrayColumnEPKv@Base 3.2.1
 _ZN8casacore15ArrayColumnDataIiE14putColumnSliceERKNS_6SlicerEPKv@Base 3.2.1
 _ZN8casacore15ArrayColumnDataIiE14putFileDerivedERNS_6AipsIOE@Base 3.2.1
 _ZN8casacore15ArrayColumnDataIiE14setShapeColumnERKNS_9IPositionE@Base 3.2.1
 _ZN8casacore15ArrayColumnDataIiE19putArrayColumnCellsERKNS_7RefRowsEPKv@Base 3.2.1
 _ZN8casacore15ArrayColumnDataIiE19putColumnSliceCellsERKNS_7RefRowsERKNS_6SlicerEPKv@Base 3.2.1
 _ZN8casacore15ArrayColumnDataIiE23createDataManagerColumnEv@Base 3.2.1
 _ZN8casacore15ArrayColumnDataIiE3putEjPKv@Base 3.2.1
 _ZN8casacore15ArrayColumnDataIiE8putSliceEjRKNS_6SlicerEPKv@Base 3.2.1
 _ZN8casacore15ArrayColumnDataIiE8setShapeEjRKNS_9IPositionE@Base 3.2.1
 _ZN8casacore15ArrayColumnDataIiE8setShapeEjRKNS_9IPositionES4_@Base 3.2.1
 _ZN8casacore15ArrayColumnDataIiED0Ev@Base 3.2.1
 _ZN8casacore15ArrayColumnDataIiED1Ev@Base 3.2.1
 _ZN8casacore15ArrayColumnDataIiED2Ev@Base 3.2.1
 _ZN8casacore15ArrayColumnDataIjE10initializeEjj@Base 3.2.1
 _ZN8casacore15ArrayColumnDataIjE14getFileDerivedERNS_6AipsIOERKNS_9ColumnSetE@Base 3.2.1
 _ZN8casacore15ArrayColumnDataIjE14putArrayColumnEPKv@Base 3.2.1
 _ZN8casacore15ArrayColumnDataIjE14putColumnSliceERKNS_6SlicerEPKv@Base 3.2.1
 _ZN8casacore15ArrayColumnDataIjE14putFileDerivedERNS_6AipsIOE@Base 3.2.1
 _ZN8casacore15ArrayColumnDataIjE14setShapeColumnERKNS_9IPositionE@Base 3.2.1
 _ZN8casacore15ArrayColumnDataIjE19putArrayColumnCellsERKNS_7RefRowsEPKv@Base 3.2.1
 _ZN8casacore15ArrayColumnDataIjE19putColumnSliceCellsERKNS_7RefRowsERKNS_6SlicerEPKv@Base 3.2.1
 _ZN8casacore15ArrayColumnDataIjE23createDataManagerColumnEv@Base 3.2.1
 _ZN8casacore15ArrayColumnDataIjE3putEjPKv@Base 3.2.1
 _ZN8casacore15ArrayColumnDataIjE8putSliceEjRKNS_6SlicerEPKv@Base 3.2.1
 _ZN8casacore15ArrayColumnDataIjE8setShapeEjRKNS_9IPositionE@Base 3.2.1
 _ZN8casacore15ArrayColumnDataIjE8setShapeEjRKNS_9IPositionES4_@Base 3.2.1
 _ZN8casacore15ArrayColumnDataIjED0Ev@Base 3.2.1
 _ZN8casacore15ArrayColumnDataIjED1Ev@Base 3.2.1
 _ZN8casacore15ArrayColumnDataIjED2Ev@Base 3.2.1
 _ZN8casacore15ArrayColumnDataIsE10initializeEjj@Base 3.2.1
 _ZN8casacore15ArrayColumnDataIsE14getFileDerivedERNS_6AipsIOERKNS_9ColumnSetE@Base 3.2.1
 _ZN8casacore15ArrayColumnDataIsE14putArrayColumnEPKv@Base 3.2.1
 _ZN8casacore15ArrayColumnDataIsE14putColumnSliceERKNS_6SlicerEPKv@Base 3.2.1
 _ZN8casacore15ArrayColumnDataIsE14putFileDerivedERNS_6AipsIOE@Base 3.2.1
 _ZN8casacore15ArrayColumnDataIsE14setShapeColumnERKNS_9IPositionE@Base 3.2.1
 _ZN8casacore15ArrayColumnDataIsE19putArrayColumnCellsERKNS_7RefRowsEPKv@Base 3.2.1
 _ZN8casacore15ArrayColumnDataIsE19putColumnSliceCellsERKNS_7RefRowsERKNS_6SlicerEPKv@Base 3.2.1
 _ZN8casacore15ArrayColumnDataIsE23createDataManagerColumnEv@Base 3.2.1
 _ZN8casacore15ArrayColumnDataIsE3putEjPKv@Base 3.2.1
 _ZN8casacore15ArrayColumnDataIsE8putSliceEjRKNS_6SlicerEPKv@Base 3.2.1
 _ZN8casacore15ArrayColumnDataIsE8setShapeEjRKNS_9IPositionE@Base 3.2.1
 _ZN8casacore15ArrayColumnDataIsE8setShapeEjRKNS_9IPositionES4_@Base 3.2.1
 _ZN8casacore15ArrayColumnDataIsED0Ev@Base 3.2.1
 _ZN8casacore15ArrayColumnDataIsED1Ev@Base 3.2.1
 _ZN8casacore15ArrayColumnDataIsED2Ev@Base 3.2.1
 _ZN8casacore15ArrayColumnDataItE10initializeEjj@Base 3.2.1
 _ZN8casacore15ArrayColumnDataItE14getFileDerivedERNS_6AipsIOERKNS_9ColumnSetE@Base 3.2.1
 _ZN8casacore15ArrayColumnDataItE14putArrayColumnEPKv@Base 3.2.1
 _ZN8casacore15ArrayColumnDataItE14putColumnSliceERKNS_6SlicerEPKv@Base 3.2.1
 _ZN8casacore15ArrayColumnDataItE14putFileDerivedERNS_6AipsIOE@Base 3.2.1
 _ZN8casacore15ArrayColumnDataItE14setShapeColumnERKNS_9IPositionE@Base 3.2.1
 _ZN8casacore15ArrayColumnDataItE19putArrayColumnCellsERKNS_7RefRowsEPKv@Base 3.2.1
 _ZN8casacore15ArrayColumnDataItE19putColumnSliceCellsERKNS_7RefRowsERKNS_6SlicerEPKv@Base 3.2.1
 _ZN8casacore15ArrayColumnDataItE23createDataManagerColumnEv@Base 3.2.1
 _ZN8casacore15ArrayColumnDataItE3putEjPKv@Base 3.2.1
 _ZN8casacore15ArrayColumnDataItE8putSliceEjRKNS_6SlicerEPKv@Base 3.2.1
 _ZN8casacore15ArrayColumnDataItE8setShapeEjRKNS_9IPositionE@Base 3.2.1
 _ZN8casacore15ArrayColumnDataItE8setShapeEjRKNS_9IPositionES4_@Base 3.2.1
 _ZN8casacore15ArrayColumnDataItED0Ev@Base 3.2.1
 _ZN8casacore15ArrayColumnDataItED1Ev@Base 3.2.1
 _ZN8casacore15ArrayColumnDataItED2Ev@Base 3.2.1
 _ZN8casacore15ArrayColumnDataIxE10initializeEjj@Base 3.2.1
 _ZN8casacore15ArrayColumnDataIxE14getFileDerivedERNS_6AipsIOERKNS_9ColumnSetE@Base 3.2.1
 _ZN8casacore15ArrayColumnDataIxE14putArrayColumnEPKv@Base 3.2.1
 _ZN8casacore15ArrayColumnDataIxE14putColumnSliceERKNS_6SlicerEPKv@Base 3.2.1
 _ZN8casacore15ArrayColumnDataIxE14putFileDerivedERNS_6AipsIOE@Base 3.2.1
 _ZN8casacore15ArrayColumnDataIxE14setShapeColumnERKNS_9IPositionE@Base 3.2.1
 _ZN8casacore15ArrayColumnDataIxE19putArrayColumnCellsERKNS_7RefRowsEPKv@Base 3.2.1
 _ZN8casacore15ArrayColumnDataIxE19putColumnSliceCellsERKNS_7RefRowsERKNS_6SlicerEPKv@Base 3.2.1
 _ZN8casacore15ArrayColumnDataIxE23createDataManagerColumnEv@Base 3.2.1
 _ZN8casacore15ArrayColumnDataIxE3putEjPKv@Base 3.2.1
 _ZN8casacore15ArrayColumnDataIxE8putSliceEjRKNS_6SlicerEPKv@Base 3.2.1
 _ZN8casacore15ArrayColumnDataIxE8setShapeEjRKNS_9IPositionE@Base 3.2.1
 _ZN8casacore15ArrayColumnDataIxE8setShapeEjRKNS_9IPositionES4_@Base 3.2.1
 _ZN8casacore15ArrayColumnDataIxED0Ev@Base 3.2.1
 _ZN8casacore15ArrayColumnDataIxED1Ev@Base 3.2.1
 _ZN8casacore15ArrayColumnDataIxED2Ev@Base 3.2.1
 _ZN8casacore15ArrayColumnDescINS_6StringEE7getDescERNS_6AipsIOE@Base 3.2.1
 _ZN8casacore15ArrayColumnDescINS_6StringEE8makeDescERKS1_@Base 3.2.1
 _ZN8casacore15ArrayColumnDescINS_6StringEEC1ERKS1_RKNS_9IPositionEi@Base 3.2.1
 _ZN8casacore15ArrayColumnDescINS_6StringEEC1ERKS1_S4_RKNS_9IPositionEi@Base 3.2.1
 _ZN8casacore15ArrayColumnDescINS_6StringEEC1ERKS1_S4_S4_S4_RKNS_9IPositionEii@Base 3.2.1
 _ZN8casacore15ArrayColumnDescINS_6StringEEC1ERKS1_S4_S4_S4_ii@Base 3.2.1
 _ZN8casacore15ArrayColumnDescINS_6StringEEC1ERKS1_S4_ii@Base 3.2.1
 _ZN8casacore15ArrayColumnDescINS_6StringEEC1ERKS1_ii@Base 3.2.1
 _ZN8casacore15ArrayColumnDescINS_6StringEEC1ERKS2_@Base 3.2.1
 _ZN8casacore15ArrayColumnDescINS_6StringEEC2ERKS1_RKNS_9IPositionEi@Base 3.2.1
 _ZN8casacore15ArrayColumnDescINS_6StringEEC2ERKS1_S4_RKNS_9IPositionEi@Base 3.2.1
 _ZN8casacore15ArrayColumnDescINS_6StringEEC2ERKS1_S4_S4_S4_RKNS_9IPositionEii@Base 3.2.1
 _ZN8casacore15ArrayColumnDescINS_6StringEEC2ERKS1_S4_S4_S4_ii@Base 3.2.1
 _ZN8casacore15ArrayColumnDescINS_6StringEEC2ERKS1_S4_ii@Base 3.2.1
 _ZN8casacore15ArrayColumnDescINS_6StringEEC2ERKS1_ii@Base 3.2.1
 _ZN8casacore15ArrayColumnDescINS_6StringEEC2ERKS2_@Base 3.2.1
 _ZN8casacore15ArrayColumnDescINS_6StringEED0Ev@Base 3.2.1
 _ZN8casacore15ArrayColumnDescINS_6StringEED1Ev@Base 3.2.1
 _ZN8casacore15ArrayColumnDescINS_6StringEED2Ev@Base 3.2.1
 _ZN8casacore15ArrayColumnDescINS_6StringEEaSERKS2_@Base 3.2.1
 _ZN8casacore15ArrayColumnDescISt7complexIdEE7getDescERNS_6AipsIOE@Base 3.2.1
 _ZN8casacore15ArrayColumnDescISt7complexIdEE8makeDescERKNS_6StringE@Base 3.2.1
 _ZN8casacore15ArrayColumnDescISt7complexIdEEC1ERKNS_6StringERKNS_9IPositionEi@Base 3.2.1
 _ZN8casacore15ArrayColumnDescISt7complexIdEEC1ERKNS_6StringES6_RKNS_9IPositionEi@Base 3.2.1
 _ZN8casacore15ArrayColumnDescISt7complexIdEEC1ERKNS_6StringES6_S6_S6_RKNS_9IPositionEii@Base 3.2.1
 _ZN8casacore15ArrayColumnDescISt7complexIdEEC1ERKNS_6StringES6_S6_S6_ii@Base 3.2.1
 _ZN8casacore15ArrayColumnDescISt7complexIdEEC1ERKNS_6StringES6_ii@Base 3.2.1
 _ZN8casacore15ArrayColumnDescISt7complexIdEEC1ERKNS_6StringEii@Base 3.2.1
 _ZN8casacore15ArrayColumnDescISt7complexIdEEC1ERKS3_@Base 3.2.1
 _ZN8casacore15ArrayColumnDescISt7complexIdEEC2ERKNS_6StringERKNS_9IPositionEi@Base 3.2.1
 _ZN8casacore15ArrayColumnDescISt7complexIdEEC2ERKNS_6StringES6_RKNS_9IPositionEi@Base 3.2.1
 _ZN8casacore15ArrayColumnDescISt7complexIdEEC2ERKNS_6StringES6_S6_S6_RKNS_9IPositionEii@Base 3.2.1
 _ZN8casacore15ArrayColumnDescISt7complexIdEEC2ERKNS_6StringES6_S6_S6_ii@Base 3.2.1
 _ZN8casacore15ArrayColumnDescISt7complexIdEEC2ERKNS_6StringES6_ii@Base 3.2.1
 _ZN8casacore15ArrayColumnDescISt7complexIdEEC2ERKNS_6StringEii@Base 3.2.1
 _ZN8casacore15ArrayColumnDescISt7complexIdEEC2ERKS3_@Base 3.2.1
 _ZN8casacore15ArrayColumnDescISt7complexIdEED0Ev@Base 3.2.1
 _ZN8casacore15ArrayColumnDescISt7complexIdEED1Ev@Base 3.2.1
 _ZN8casacore15ArrayColumnDescISt7complexIdEED2Ev@Base 3.2.1
 _ZN8casacore15ArrayColumnDescISt7complexIdEEaSERKS3_@Base 3.2.1
 _ZN8casacore15ArrayColumnDescISt7complexIfEE7getDescERNS_6AipsIOE@Base 3.2.1
 _ZN8casacore15ArrayColumnDescISt7complexIfEE8makeDescERKNS_6StringE@Base 3.2.1
 _ZN8casacore15ArrayColumnDescISt7complexIfEEC1ERKNS_6StringERKNS_9IPositionEi@Base 3.2.1
 _ZN8casacore15ArrayColumnDescISt7complexIfEEC1ERKNS_6StringES6_RKNS_9IPositionEi@Base 3.2.1
 _ZN8casacore15ArrayColumnDescISt7complexIfEEC1ERKNS_6StringES6_S6_S6_RKNS_9IPositionEii@Base 3.2.1
 _ZN8casacore15ArrayColumnDescISt7complexIfEEC1ERKNS_6StringES6_S6_S6_ii@Base 3.2.1
 _ZN8casacore15ArrayColumnDescISt7complexIfEEC1ERKNS_6StringES6_ii@Base 3.2.1
 _ZN8casacore15ArrayColumnDescISt7complexIfEEC1ERKNS_6StringEii@Base 3.2.1
 _ZN8casacore15ArrayColumnDescISt7complexIfEEC1ERKS3_@Base 3.2.1
 _ZN8casacore15ArrayColumnDescISt7complexIfEEC2ERKNS_6StringERKNS_9IPositionEi@Base 3.2.1
 _ZN8casacore15ArrayColumnDescISt7complexIfEEC2ERKNS_6StringES6_RKNS_9IPositionEi@Base 3.2.1
 _ZN8casacore15ArrayColumnDescISt7complexIfEEC2ERKNS_6StringES6_S6_S6_RKNS_9IPositionEii@Base 3.2.1
 _ZN8casacore15ArrayColumnDescISt7complexIfEEC2ERKNS_6StringES6_S6_S6_ii@Base 3.2.1
 _ZN8casacore15ArrayColumnDescISt7complexIfEEC2ERKNS_6StringES6_ii@Base 3.2.1
 _ZN8casacore15ArrayColumnDescISt7complexIfEEC2ERKNS_6StringEii@Base 3.2.1
 _ZN8casacore15ArrayColumnDescISt7complexIfEEC2ERKS3_@Base 3.2.1
 _ZN8casacore15ArrayColumnDescISt7complexIfEED0Ev@Base 3.2.1
 _ZN8casacore15ArrayColumnDescISt7complexIfEED1Ev@Base 3.2.1
 _ZN8casacore15ArrayColumnDescISt7complexIfEED2Ev@Base 3.2.1
 _ZN8casacore15ArrayColumnDescISt7complexIfEEaSERKS3_@Base 3.2.1
 _ZN8casacore15ArrayColumnDescIbE7getDescERNS_6AipsIOE@Base 3.2.1
 _ZN8casacore15ArrayColumnDescIbE8makeDescERKNS_6StringE@Base 3.2.1
 _ZN8casacore15ArrayColumnDescIbEC1ERKNS_6StringERKNS_9IPositionEi@Base 3.2.1
 _ZN8casacore15ArrayColumnDescIbEC1ERKNS_6StringES4_RKNS_9IPositionEi@Base 3.2.1
 _ZN8casacore15ArrayColumnDescIbEC1ERKNS_6StringES4_S4_S4_RKNS_9IPositionEii@Base 3.2.1
 _ZN8casacore15ArrayColumnDescIbEC1ERKNS_6StringES4_S4_S4_ii@Base 3.2.1
 _ZN8casacore15ArrayColumnDescIbEC1ERKNS_6StringES4_ii@Base 3.2.1
 _ZN8casacore15ArrayColumnDescIbEC1ERKNS_6StringEii@Base 3.2.1
 _ZN8casacore15ArrayColumnDescIbEC1ERKS1_@Base 3.2.1
 _ZN8casacore15ArrayColumnDescIbEC2ERKNS_6StringERKNS_9IPositionEi@Base 3.2.1
 _ZN8casacore15ArrayColumnDescIbEC2ERKNS_6StringES4_RKNS_9IPositionEi@Base 3.2.1
 _ZN8casacore15ArrayColumnDescIbEC2ERKNS_6StringES4_S4_S4_RKNS_9IPositionEii@Base 3.2.1
 _ZN8casacore15ArrayColumnDescIbEC2ERKNS_6StringES4_S4_S4_ii@Base 3.2.1
 _ZN8casacore15ArrayColumnDescIbEC2ERKNS_6StringES4_ii@Base 3.2.1
 _ZN8casacore15ArrayColumnDescIbEC2ERKNS_6StringEii@Base 3.2.1
 _ZN8casacore15ArrayColumnDescIbEC2ERKS1_@Base 3.2.1
 _ZN8casacore15ArrayColumnDescIbED0Ev@Base 3.2.1
 _ZN8casacore15ArrayColumnDescIbED1Ev@Base 3.2.1
 _ZN8casacore15ArrayColumnDescIbED2Ev@Base 3.2.1
 _ZN8casacore15ArrayColumnDescIbEaSERKS1_@Base 3.2.1
 _ZN8casacore15ArrayColumnDescIcE7getDescERNS_6AipsIOE@Base 3.2.1
 _ZN8casacore15ArrayColumnDescIcE8makeDescERKNS_6StringE@Base 3.2.1
 _ZN8casacore15ArrayColumnDescIcEC1ERKNS_6StringERKNS_9IPositionEi@Base 3.2.1
 _ZN8casacore15ArrayColumnDescIcEC1ERKNS_6StringES4_RKNS_9IPositionEi@Base 3.2.1
 _ZN8casacore15ArrayColumnDescIcEC1ERKNS_6StringES4_S4_S4_RKNS_9IPositionEii@Base 3.2.1
 _ZN8casacore15ArrayColumnDescIcEC1ERKNS_6StringES4_S4_S4_ii@Base 3.2.1
 _ZN8casacore15ArrayColumnDescIcEC1ERKNS_6StringES4_ii@Base 3.2.1
 _ZN8casacore15ArrayColumnDescIcEC1ERKNS_6StringEii@Base 3.2.1
 _ZN8casacore15ArrayColumnDescIcEC1ERKS1_@Base 3.2.1
 _ZN8casacore15ArrayColumnDescIcEC2ERKNS_6StringERKNS_9IPositionEi@Base 3.2.1
 _ZN8casacore15ArrayColumnDescIcEC2ERKNS_6StringES4_RKNS_9IPositionEi@Base 3.2.1
 _ZN8casacore15ArrayColumnDescIcEC2ERKNS_6StringES4_S4_S4_RKNS_9IPositionEii@Base 3.2.1
 _ZN8casacore15ArrayColumnDescIcEC2ERKNS_6StringES4_S4_S4_ii@Base 3.2.1
 _ZN8casacore15ArrayColumnDescIcEC2ERKNS_6StringES4_ii@Base 3.2.1
 _ZN8casacore15ArrayColumnDescIcEC2ERKNS_6StringEii@Base 3.2.1
 _ZN8casacore15ArrayColumnDescIcEC2ERKS1_@Base 3.2.1
 _ZN8casacore15ArrayColumnDescIcED0Ev@Base 3.2.1
 _ZN8casacore15ArrayColumnDescIcED1Ev@Base 3.2.1
 _ZN8casacore15ArrayColumnDescIcED2Ev@Base 3.2.1
 _ZN8casacore15ArrayColumnDescIcEaSERKS1_@Base 3.2.1
 _ZN8casacore15ArrayColumnDescIdE7getDescERNS_6AipsIOE@Base 3.2.1
 _ZN8casacore15ArrayColumnDescIdE8makeDescERKNS_6StringE@Base 3.2.1
 _ZN8casacore15ArrayColumnDescIdEC1ERKNS_6StringERKNS_9IPositionEi@Base 3.2.1
 _ZN8casacore15ArrayColumnDescIdEC1ERKNS_6StringES4_RKNS_9IPositionEi@Base 3.2.1
 _ZN8casacore15ArrayColumnDescIdEC1ERKNS_6StringES4_S4_S4_RKNS_9IPositionEii@Base 3.2.1
 _ZN8casacore15ArrayColumnDescIdEC1ERKNS_6StringES4_S4_S4_ii@Base 3.2.1
 _ZN8casacore15ArrayColumnDescIdEC1ERKNS_6StringES4_ii@Base 3.2.1
 _ZN8casacore15ArrayColumnDescIdEC1ERKNS_6StringEii@Base 3.2.1
 _ZN8casacore15ArrayColumnDescIdEC1ERKS1_@Base 3.2.1
 _ZN8casacore15ArrayColumnDescIdEC2ERKNS_6StringERKNS_9IPositionEi@Base 3.2.1
 _ZN8casacore15ArrayColumnDescIdEC2ERKNS_6StringES4_RKNS_9IPositionEi@Base 3.2.1
 _ZN8casacore15ArrayColumnDescIdEC2ERKNS_6StringES4_S4_S4_RKNS_9IPositionEii@Base 3.2.1
 _ZN8casacore15ArrayColumnDescIdEC2ERKNS_6StringES4_S4_S4_ii@Base 3.2.1
 _ZN8casacore15ArrayColumnDescIdEC2ERKNS_6StringES4_ii@Base 3.2.1
 _ZN8casacore15ArrayColumnDescIdEC2ERKNS_6StringEii@Base 3.2.1
 _ZN8casacore15ArrayColumnDescIdEC2ERKS1_@Base 3.2.1
 _ZN8casacore15ArrayColumnDescIdED0Ev@Base 3.2.1
 _ZN8casacore15ArrayColumnDescIdED1Ev@Base 3.2.1
 _ZN8casacore15ArrayColumnDescIdED2Ev@Base 3.2.1
 _ZN8casacore15ArrayColumnDescIdEaSERKS1_@Base 3.2.1
 _ZN8casacore15ArrayColumnDescIfE7getDescERNS_6AipsIOE@Base 3.2.1
 _ZN8casacore15ArrayColumnDescIfE8makeDescERKNS_6StringE@Base 3.2.1
 _ZN8casacore15ArrayColumnDescIfEC1ERKNS_6StringERKNS_9IPositionEi@Base 3.2.1
 _ZN8casacore15ArrayColumnDescIfEC1ERKNS_6StringES4_RKNS_9IPositionEi@Base 3.2.1
 _ZN8casacore15ArrayColumnDescIfEC1ERKNS_6StringES4_S4_S4_RKNS_9IPositionEii@Base 3.2.1
 _ZN8casacore15ArrayColumnDescIfEC1ERKNS_6StringES4_S4_S4_ii@Base 3.2.1
 _ZN8casacore15ArrayColumnDescIfEC1ERKNS_6StringES4_ii@Base 3.2.1
 _ZN8casacore15ArrayColumnDescIfEC1ERKNS_6StringEii@Base 3.2.1
 _ZN8casacore15ArrayColumnDescIfEC1ERKS1_@Base 3.2.1
 _ZN8casacore15ArrayColumnDescIfEC2ERKNS_6StringERKNS_9IPositionEi@Base 3.2.1
 _ZN8casacore15ArrayColumnDescIfEC2ERKNS_6StringES4_RKNS_9IPositionEi@Base 3.2.1
 _ZN8casacore15ArrayColumnDescIfEC2ERKNS_6StringES4_S4_S4_RKNS_9IPositionEii@Base 3.2.1
 _ZN8casacore15ArrayColumnDescIfEC2ERKNS_6StringES4_S4_S4_ii@Base 3.2.1
 _ZN8casacore15ArrayColumnDescIfEC2ERKNS_6StringES4_ii@Base 3.2.1
 _ZN8casacore15ArrayColumnDescIfEC2ERKNS_6StringEii@Base 3.2.1
 _ZN8casacore15ArrayColumnDescIfEC2ERKS1_@Base 3.2.1
 _ZN8casacore15ArrayColumnDescIfED0Ev@Base 3.2.1
 _ZN8casacore15ArrayColumnDescIfED1Ev@Base 3.2.1
 _ZN8casacore15ArrayColumnDescIfED2Ev@Base 3.2.1
 _ZN8casacore15ArrayColumnDescIfEaSERKS1_@Base 3.2.1
 _ZN8casacore15ArrayColumnDescIhE7getDescERNS_6AipsIOE@Base 3.2.1
 _ZN8casacore15ArrayColumnDescIhE8makeDescERKNS_6StringE@Base 3.2.1
 _ZN8casacore15ArrayColumnDescIhEC1ERKNS_6StringERKNS_9IPositionEi@Base 3.2.1
 _ZN8casacore15ArrayColumnDescIhEC1ERKNS_6StringES4_S4_S4_RKNS_9IPositionEii@Base 3.2.1
 _ZN8casacore15ArrayColumnDescIhEC1ERKNS_6StringES4_S4_S4_ii@Base 3.2.1
 _ZN8casacore15ArrayColumnDescIhEC1ERKNS_6StringEii@Base 3.2.1
 _ZN8casacore15ArrayColumnDescIhEC2ERKNS_6StringERKNS_9IPositionEi@Base 3.2.1
 _ZN8casacore15ArrayColumnDescIhEC2ERKNS_6StringES4_S4_S4_RKNS_9IPositionEii@Base 3.2.1
 _ZN8casacore15ArrayColumnDescIhEC2ERKNS_6StringES4_S4_S4_ii@Base 3.2.1
 _ZN8casacore15ArrayColumnDescIhEC2ERKNS_6StringEii@Base 3.2.1
 _ZN8casacore15ArrayColumnDescIhED0Ev@Base 3.2.1
 _ZN8casacore15ArrayColumnDescIhED1Ev@Base 3.2.1
 _ZN8casacore15ArrayColumnDescIhED2Ev@Base 3.2.1
 _ZN8casacore15ArrayColumnDescIiE7getDescERNS_6AipsIOE@Base 3.2.1
 _ZN8casacore15ArrayColumnDescIiE8makeDescERKNS_6StringE@Base 3.2.1
 _ZN8casacore15ArrayColumnDescIiEC1ERKNS_6StringERKNS_9IPositionEi@Base 3.2.1
 _ZN8casacore15ArrayColumnDescIiEC1ERKNS_6StringES4_RKNS_9IPositionEi@Base 3.2.1
 _ZN8casacore15ArrayColumnDescIiEC1ERKNS_6StringES4_S4_S4_RKNS_9IPositionEii@Base 3.2.1
 _ZN8casacore15ArrayColumnDescIiEC1ERKNS_6StringES4_S4_S4_ii@Base 3.2.1
 _ZN8casacore15ArrayColumnDescIiEC1ERKNS_6StringES4_ii@Base 3.2.1
 _ZN8casacore15ArrayColumnDescIiEC1ERKNS_6StringEii@Base 3.2.1
 _ZN8casacore15ArrayColumnDescIiEC1ERKS1_@Base 3.2.1
 _ZN8casacore15ArrayColumnDescIiEC2ERKNS_6StringERKNS_9IPositionEi@Base 3.2.1
 _ZN8casacore15ArrayColumnDescIiEC2ERKNS_6StringES4_RKNS_9IPositionEi@Base 3.2.1
 _ZN8casacore15ArrayColumnDescIiEC2ERKNS_6StringES4_S4_S4_RKNS_9IPositionEii@Base 3.2.1
 _ZN8casacore15ArrayColumnDescIiEC2ERKNS_6StringES4_S4_S4_ii@Base 3.2.1
 _ZN8casacore15ArrayColumnDescIiEC2ERKNS_6StringES4_ii@Base 3.2.1
 _ZN8casacore15ArrayColumnDescIiEC2ERKNS_6StringEii@Base 3.2.1
 _ZN8casacore15ArrayColumnDescIiEC2ERKS1_@Base 3.2.1
 _ZN8casacore15ArrayColumnDescIiED0Ev@Base 3.2.1
 _ZN8casacore15ArrayColumnDescIiED1Ev@Base 3.2.1
 _ZN8casacore15ArrayColumnDescIiED2Ev@Base 3.2.1
 _ZN8casacore15ArrayColumnDescIiEaSERKS1_@Base 3.2.1
 _ZN8casacore15ArrayColumnDescIjE7getDescERNS_6AipsIOE@Base 3.2.1
 _ZN8casacore15ArrayColumnDescIjE8makeDescERKNS_6StringE@Base 3.2.1
 _ZN8casacore15ArrayColumnDescIjEC1ERKNS_6StringERKNS_9IPositionEi@Base 3.2.1
 _ZN8casacore15ArrayColumnDescIjEC1ERKNS_6StringES4_RKNS_9IPositionEi@Base 3.2.1
 _ZN8casacore15ArrayColumnDescIjEC1ERKNS_6StringES4_S4_S4_RKNS_9IPositionEii@Base 3.2.1
 _ZN8casacore15ArrayColumnDescIjEC1ERKNS_6StringES4_S4_S4_ii@Base 3.2.1
 _ZN8casacore15ArrayColumnDescIjEC1ERKNS_6StringES4_ii@Base 3.2.1
 _ZN8casacore15ArrayColumnDescIjEC1ERKNS_6StringEii@Base 3.2.1
 _ZN8casacore15ArrayColumnDescIjEC1ERKS1_@Base 3.2.1
 _ZN8casacore15ArrayColumnDescIjEC2ERKNS_6StringERKNS_9IPositionEi@Base 3.2.1
 _ZN8casacore15ArrayColumnDescIjEC2ERKNS_6StringES4_RKNS_9IPositionEi@Base 3.2.1
 _ZN8casacore15ArrayColumnDescIjEC2ERKNS_6StringES4_S4_S4_RKNS_9IPositionEii@Base 3.2.1
 _ZN8casacore15ArrayColumnDescIjEC2ERKNS_6StringES4_S4_S4_ii@Base 3.2.1
 _ZN8casacore15ArrayColumnDescIjEC2ERKNS_6StringES4_ii@Base 3.2.1
 _ZN8casacore15ArrayColumnDescIjEC2ERKNS_6StringEii@Base 3.2.1
 _ZN8casacore15ArrayColumnDescIjEC2ERKS1_@Base 3.2.1
 _ZN8casacore15ArrayColumnDescIjED0Ev@Base 3.2.1
 _ZN8casacore15ArrayColumnDescIjED1Ev@Base 3.2.1
 _ZN8casacore15ArrayColumnDescIjED2Ev@Base 3.2.1
 _ZN8casacore15ArrayColumnDescIjEaSERKS1_@Base 3.2.1
 _ZN8casacore15ArrayColumnDescIsE7getDescERNS_6AipsIOE@Base 3.2.1
 _ZN8casacore15ArrayColumnDescIsE8makeDescERKNS_6StringE@Base 3.2.1
 _ZN8casacore15ArrayColumnDescIsEC1ERKNS_6StringERKNS_9IPositionEi@Base 3.2.1
 _ZN8casacore15ArrayColumnDescIsEC1ERKNS_6StringES4_RKNS_9IPositionEi@Base 3.2.1
 _ZN8casacore15ArrayColumnDescIsEC1ERKNS_6StringES4_S4_S4_RKNS_9IPositionEii@Base 3.2.1
 _ZN8casacore15ArrayColumnDescIsEC1ERKNS_6StringES4_S4_S4_ii@Base 3.2.1
 _ZN8casacore15ArrayColumnDescIsEC1ERKNS_6StringES4_ii@Base 3.2.1
 _ZN8casacore15ArrayColumnDescIsEC1ERKNS_6StringEii@Base 3.2.1
 _ZN8casacore15ArrayColumnDescIsEC1ERKS1_@Base 3.2.1
 _ZN8casacore15ArrayColumnDescIsEC2ERKNS_6StringERKNS_9IPositionEi@Base 3.2.1
 _ZN8casacore15ArrayColumnDescIsEC2ERKNS_6StringES4_RKNS_9IPositionEi@Base 3.2.1
 _ZN8casacore15ArrayColumnDescIsEC2ERKNS_6StringES4_S4_S4_RKNS_9IPositionEii@Base 3.2.1
 _ZN8casacore15ArrayColumnDescIsEC2ERKNS_6StringES4_S4_S4_ii@Base 3.2.1
 _ZN8casacore15ArrayColumnDescIsEC2ERKNS_6StringES4_ii@Base 3.2.1
 _ZN8casacore15ArrayColumnDescIsEC2ERKNS_6StringEii@Base 3.2.1
 _ZN8casacore15ArrayColumnDescIsEC2ERKS1_@Base 3.2.1
 _ZN8casacore15ArrayColumnDescIsED0Ev@Base 3.2.1
 _ZN8casacore15ArrayColumnDescIsED1Ev@Base 3.2.1
 _ZN8casacore15ArrayColumnDescIsED2Ev@Base 3.2.1
 _ZN8casacore15ArrayColumnDescIsEaSERKS1_@Base 3.2.1
 _ZN8casacore15ArrayColumnDescItE7getDescERNS_6AipsIOE@Base 3.2.1
 _ZN8casacore15ArrayColumnDescItE8makeDescERKNS_6StringE@Base 3.2.1
 _ZN8casacore15ArrayColumnDescItEC1ERKNS_6StringERKNS_9IPositionEi@Base 3.2.1
 _ZN8casacore15ArrayColumnDescItEC1ERKNS_6StringES4_RKNS_9IPositionEi@Base 3.2.1
 _ZN8casacore15ArrayColumnDescItEC1ERKNS_6StringES4_S4_S4_RKNS_9IPositionEii@Base 3.2.1
 _ZN8casacore15ArrayColumnDescItEC1ERKNS_6StringES4_S4_S4_ii@Base 3.2.1
 _ZN8casacore15ArrayColumnDescItEC1ERKNS_6StringES4_ii@Base 3.2.1
 _ZN8casacore15ArrayColumnDescItEC1ERKNS_6StringEii@Base 3.2.1
 _ZN8casacore15ArrayColumnDescItEC1ERKS1_@Base 3.2.1
 _ZN8casacore15ArrayColumnDescItEC2ERKNS_6StringERKNS_9IPositionEi@Base 3.2.1
 _ZN8casacore15ArrayColumnDescItEC2ERKNS_6StringES4_RKNS_9IPositionEi@Base 3.2.1
 _ZN8casacore15ArrayColumnDescItEC2ERKNS_6StringES4_S4_S4_RKNS_9IPositionEii@Base 3.2.1
 _ZN8casacore15ArrayColumnDescItEC2ERKNS_6StringES4_S4_S4_ii@Base 3.2.1
 _ZN8casacore15ArrayColumnDescItEC2ERKNS_6StringES4_ii@Base 3.2.1
 _ZN8casacore15ArrayColumnDescItEC2ERKNS_6StringEii@Base 3.2.1
 _ZN8casacore15ArrayColumnDescItEC2ERKS1_@Base 3.2.1
 _ZN8casacore15ArrayColumnDescItED0Ev@Base 3.2.1
 _ZN8casacore15ArrayColumnDescItED1Ev@Base 3.2.1
 _ZN8casacore15ArrayColumnDescItED2Ev@Base 3.2.1
 _ZN8casacore15ArrayColumnDescItEaSERKS1_@Base 3.2.1
 _ZN8casacore15ArrayColumnDescIxE7getDescERNS_6AipsIOE@Base 3.2.1
 _ZN8casacore15ArrayColumnDescIxE8makeDescERKNS_6StringE@Base 3.2.1
 _ZN8casacore15ArrayColumnDescIxEC1ERKNS_6StringERKNS_9IPositionEi@Base 3.2.1
 _ZN8casacore15ArrayColumnDescIxEC1ERKNS_6StringES4_RKNS_9IPositionEi@Base 3.2.1
 _ZN8casacore15ArrayColumnDescIxEC1ERKNS_6StringES4_S4_S4_RKNS_9IPositionEii@Base 3.2.1
 _ZN8casacore15ArrayColumnDescIxEC1ERKNS_6StringES4_S4_S4_ii@Base 3.2.1
 _ZN8casacore15ArrayColumnDescIxEC1ERKNS_6StringES4_ii@Base 3.2.1
 _ZN8casacore15ArrayColumnDescIxEC1ERKNS_6StringEii@Base 3.2.1
 _ZN8casacore15ArrayColumnDescIxEC1ERKS1_@Base 3.2.1
 _ZN8casacore15ArrayColumnDescIxEC2ERKNS_6StringERKNS_9IPositionEi@Base 3.2.1
 _ZN8casacore15ArrayColumnDescIxEC2ERKNS_6StringES4_RKNS_9IPositionEi@Base 3.2.1
 _ZN8casacore15ArrayColumnDescIxEC2ERKNS_6StringES4_S4_S4_RKNS_9IPositionEii@Base 3.2.1
 _ZN8casacore15ArrayColumnDescIxEC2ERKNS_6StringES4_S4_S4_ii@Base 3.2.1
 _ZN8casacore15ArrayColumnDescIxEC2ERKNS_6StringES4_ii@Base 3.2.1
 _ZN8casacore15ArrayColumnDescIxEC2ERKNS_6StringEii@Base 3.2.1
 _ZN8casacore15ArrayColumnDescIxEC2ERKS1_@Base 3.2.1
 _ZN8casacore15ArrayColumnDescIxED0Ev@Base 3.2.1
 _ZN8casacore15ArrayColumnDescIxED1Ev@Base 3.2.1
 _ZN8casacore15ArrayColumnDescIxED2Ev@Base 3.2.1
 _ZN8casacore15ArrayColumnDescIxEaSERKS1_@Base 3.2.1
 _ZN8casacore15CompressComplex10addRowInitEjj@Base 3.2.1
 _ZN8casacore15CompressComplex10makeObjectERKNS_6StringERKNS_6RecordE@Base 3.2.1
 _ZN8casacore15CompressComplex10scaleOnGetEffRNS_5ArrayISt7complexIfEEERKNS1_IiEE@Base 3.2.1
 _ZN8casacore15CompressComplex10scaleOnPutEffRKNS_5ArrayISt7complexIfEEERNS1_IiEE@Base 3.2.1
 _ZN8casacore15CompressComplex11putFullPartEjRKNS_6SlicerERNS_5ArrayISt7complexIfEEERKS7_ff@Base 3.2.1
 _ZN8casacore15CompressComplex13registerClassEv@Base 3.2.1
 _ZN8casacore15CompressComplex14getArrayColumnERNS_5ArrayISt7complexIfEEE@Base 3.2.1
 _ZN8casacore15CompressComplex14getColumnSliceERKNS_6SlicerERNS_5ArrayISt7complexIfEEE@Base 3.2.1
 _ZN8casacore15CompressComplex14putArrayColumnERKNS_5ArrayISt7complexIfEEE@Base 3.2.1
 _ZN8casacore15CompressComplex14putColumnSliceERKNS_6SlicerERKNS_5ArrayISt7complexIfEEE@Base 3.2.1
 _ZN8casacore15CompressComplex16scaleColumnOnGetERNS_5ArrayISt7complexIfEEERKNS1_IiEE@Base 3.2.1
 _ZN8casacore15CompressComplex16scaleColumnOnPutERKNS_5ArrayISt7complexIfEEERNS1_IiEE@Base 3.2.1
 _ZN8casacore15CompressComplex19getArrayColumnCellsERKNS_7RefRowsERNS_5ArrayISt7complexIfEEE@Base 3.2.1
 _ZN8casacore15CompressComplex19getColumnSliceCellsERKNS_7RefRowsERKNS_6SlicerERNS_5ArrayISt7complexIfEEE@Base 3.2.1
 _ZN8casacore15CompressComplex19putArrayColumnCellsERKNS_7RefRowsERKNS_5ArrayISt7complexIfEEE@Base 3.2.1
 _ZN8casacore15CompressComplex19putColumnSliceCellsERKNS_7RefRowsERKNS_6SlicerERKNS_5ArrayISt7complexIfEEE@Base 3.2.1
 _ZN8casacore15CompressComplex6createEj@Base 3.2.1
 _ZN8casacore15CompressComplex7prepareEv@Base 3.2.1
 _ZN8casacore15CompressComplex7putPartEjRKNS_6SlicerERKNS_5ArrayISt7complexIfEEEff@Base 3.2.1
 _ZN8casacore15CompressComplex8getArrayEjRNS_5ArrayISt7complexIfEEE@Base 3.2.1
 _ZN8casacore15CompressComplex8getSliceEjRKNS_6SlicerERNS_5ArrayISt7complexIfEEE@Base 3.2.1
 _ZN8casacore15CompressComplex8putArrayEjRKNS_5ArrayISt7complexIfEEE@Base 3.2.1
 _ZN8casacore15CompressComplex8putSliceEjRKNS_6SlicerERKNS_5ArrayISt7complexIfEEE@Base 3.2.1
 _ZN8casacore15CompressComplex8reopenRWEv@Base 3.2.1
 _ZN8casacore15CompressComplex9classNameEv@Base 3.2.1
 _ZN8casacore15CompressComplexC1ERKNS_6RecordE@Base 3.2.1
 _ZN8casacore15CompressComplexC1ERKNS_6StringES3_S3_S3_b@Base 3.2.1
 _ZN8casacore15CompressComplexC1ERKNS_6StringES3_ff@Base 3.2.1
 _ZN8casacore15CompressComplexC1ERKS0_@Base 3.2.1
 _ZN8casacore15CompressComplexC2ERKNS_6RecordE@Base 3.2.1
 _ZN8casacore15CompressComplexC2ERKNS_6StringES3_S3_S3_b@Base 3.2.1
 _ZN8casacore15CompressComplexC2ERKNS_6StringES3_ff@Base 3.2.1
 _ZN8casacore15CompressComplexC2ERKS0_@Base 3.2.1
 _ZN8casacore15CompressComplexD0Ev@Base 3.2.1
 _ZN8casacore15CompressComplexD1Ev@Base 3.2.1
 _ZN8casacore15CompressComplexD2Ev@Base 3.2.1
 _ZN8casacore15GenSortIndirectIdE10insSortAscEPjPKdii@Base 3.2.1
 _ZN8casacore15GenSortIndirectIdE11heapSortAscEPjPKdi@Base 3.2.1
 _ZN8casacore15GenSortIndirectIdE12quickSortAscEPjPKdibi@Base 3.2.1
 _ZN8casacore15GenSortIndirectIdE15heapAscSiftDownEPjiiPKd@Base 3.2.1
 _ZN8casacore15GenSortIndirectIdE15insSortAscNoDupEPjPKdi@Base 3.2.1
 _ZN8casacore15GenSortIndirectIdE4sortERNS_6VectorIjEEPKdjNS_4Sort5OrderEi@Base 3.2.1
 _ZN8casacore15GenSortIndirectIdE5mergeEPKdPjS4_jS4_j@Base 3.2.1
 _ZN8casacore15GenSortIndirectIdE7parSortEPjPKdjNS_4Sort5OrderEii@Base 3.2.1
 _ZN8casacore15GenSortIndirectIjE10insSortAscEPjPKjii@Base 3.2.1
 _ZN8casacore15GenSortIndirectIjE11heapSortAscEPjPKji@Base 3.2.1
 _ZN8casacore15GenSortIndirectIjE12quickSortAscEPjPKjibi@Base 3.2.1
 _ZN8casacore15GenSortIndirectIjE15heapAscSiftDownEPjiiPKj@Base 3.2.1
 _ZN8casacore15GenSortIndirectIjE15insSortAscNoDupEPjPKji@Base 3.2.1
 _ZN8casacore15GenSortIndirectIjE4sortERNS_6VectorIjEEPKjjNS_4Sort5OrderEi@Base 3.2.1
 _ZN8casacore15GenSortIndirectIjE4sortERNS_6VectorIjEERKNS_5ArrayIjEENS_4Sort5OrderEi@Base 3.2.1
 _ZN8casacore15GenSortIndirectIjE5mergeEPKjPjS4_jS4_j@Base 3.2.1
 _ZN8casacore15GenSortIndirectIjE7parSortEPjPKjjNS_4Sort5OrderEii@Base 3.2.1
 _ZN8casacore15GenSortIndirectIxE10insSortAscEPjPKxii@Base 3.2.1
 _ZN8casacore15GenSortIndirectIxE11heapSortAscEPjPKxi@Base 3.2.1
 _ZN8casacore15GenSortIndirectIxE12quickSortAscEPjPKxibi@Base 3.2.1
 _ZN8casacore15GenSortIndirectIxE15heapAscSiftDownEPjiiPKx@Base 3.2.1
 _ZN8casacore15GenSortIndirectIxE15insSortAscNoDupEPjPKxi@Base 3.2.1
 _ZN8casacore15GenSortIndirectIxE5mergeEPKxPjS4_jS4_j@Base 3.2.1
 _ZN8casacore15GenSortIndirectIxE7parSortEPjPKxjNS_4Sort5OrderEii@Base 3.2.1
 _ZN8casacore15GetColumnSlicesINS_6StringEE5applyERKNS_6SlicerERNS_5ArrayIS1_EE@Base 3.2.1
 _ZN8casacore15GetColumnSlicesINS_6StringEED0Ev@Base 3.2.1
 _ZN8casacore15GetColumnSlicesINS_6StringEED1Ev@Base 3.2.1
 _ZN8casacore15GetColumnSlicesINS_6StringEED2Ev@Base 3.2.1
 _ZN8casacore15GetColumnSlicesISt7complexIdEE5applyERKNS_6SlicerERNS_5ArrayIS2_EE@Base 3.2.1
 _ZN8casacore15GetColumnSlicesISt7complexIdEED0Ev@Base 3.2.1
 _ZN8casacore15GetColumnSlicesISt7complexIdEED1Ev@Base 3.2.1
 _ZN8casacore15GetColumnSlicesISt7complexIdEED2Ev@Base 3.2.1
 _ZN8casacore15GetColumnSlicesISt7complexIfEE5applyERKNS_6SlicerERNS_5ArrayIS2_EE@Base 3.2.1
 _ZN8casacore15GetColumnSlicesISt7complexIfEED0Ev@Base 3.2.1
 _ZN8casacore15GetColumnSlicesISt7complexIfEED1Ev@Base 3.2.1
 _ZN8casacore15GetColumnSlicesISt7complexIfEED2Ev@Base 3.2.1
 _ZN8casacore15GetColumnSlicesIbE5applyERKNS_6SlicerERNS_5ArrayIbEE@Base 3.2.1
 _ZN8casacore15GetColumnSlicesIbED0Ev@Base 3.2.1
 _ZN8casacore15GetColumnSlicesIbED1Ev@Base 3.2.1
 _ZN8casacore15GetColumnSlicesIbED2Ev@Base 3.2.1
 _ZN8casacore15GetColumnSlicesIcE5applyERKNS_6SlicerERNS_5ArrayIcEE@Base 3.2.1
 _ZN8casacore15GetColumnSlicesIcED0Ev@Base 3.2.1
 _ZN8casacore15GetColumnSlicesIcED1Ev@Base 3.2.1
 _ZN8casacore15GetColumnSlicesIcED2Ev@Base 3.2.1
 _ZN8casacore15GetColumnSlicesIdE5applyERKNS_6SlicerERNS_5ArrayIdEE@Base 3.2.1
 _ZN8casacore15GetColumnSlicesIdED0Ev@Base 3.2.1
 _ZN8casacore15GetColumnSlicesIdED1Ev@Base 3.2.1
 _ZN8casacore15GetColumnSlicesIdED2Ev@Base 3.2.1
 _ZN8casacore15GetColumnSlicesIfE5applyERKNS_6SlicerERNS_5ArrayIfEE@Base 3.2.1
 _ZN8casacore15GetColumnSlicesIfED0Ev@Base 3.2.1
 _ZN8casacore15GetColumnSlicesIfED1Ev@Base 3.2.1
 _ZN8casacore15GetColumnSlicesIfED2Ev@Base 3.2.1
 _ZN8casacore15GetColumnSlicesIiE5applyERKNS_6SlicerERNS_5ArrayIiEE@Base 3.2.1
 _ZN8casacore15GetColumnSlicesIiED0Ev@Base 3.2.1
 _ZN8casacore15GetColumnSlicesIiED1Ev@Base 3.2.1
 _ZN8casacore15GetColumnSlicesIiED2Ev@Base 3.2.1
 _ZN8casacore15GetColumnSlicesIjE5applyERKNS_6SlicerERNS_5ArrayIjEE@Base 3.2.1
 _ZN8casacore15GetColumnSlicesIjED0Ev@Base 3.2.1
 _ZN8casacore15GetColumnSlicesIjED1Ev@Base 3.2.1
 _ZN8casacore15GetColumnSlicesIjED2Ev@Base 3.2.1
 _ZN8casacore15GetColumnSlicesIsE5applyERKNS_6SlicerERNS_5ArrayIsEE@Base 3.2.1
 _ZN8casacore15GetColumnSlicesIsED0Ev@Base 3.2.1
 _ZN8casacore15GetColumnSlicesIsED1Ev@Base 3.2.1
 _ZN8casacore15GetColumnSlicesIsED2Ev@Base 3.2.1
 _ZN8casacore15GetColumnSlicesItE5applyERKNS_6SlicerERNS_5ArrayItEE@Base 3.2.1
 _ZN8casacore15GetColumnSlicesItED0Ev@Base 3.2.1
 _ZN8casacore15GetColumnSlicesItED1Ev@Base 3.2.1
 _ZN8casacore15GetColumnSlicesItED2Ev@Base 3.2.1
 _ZN8casacore15GetColumnSlicesIxE5applyERKNS_6SlicerERNS_5ArrayIxEE@Base 3.2.1
 _ZN8casacore15GetColumnSlicesIxED0Ev@Base 3.2.1
 _ZN8casacore15GetColumnSlicesIxED1Ev@Base 3.2.1
 _ZN8casacore15GetColumnSlicesIxED2Ev@Base 3.2.1
 _ZN8casacore15LoggerHolderRep13removeParentsEv@Base 3.2.1
 _ZN8casacore15LoggerHolderRep4sinkEv@Base 3.2.1
 _ZN8casacore15LoggerHolderRep5clearEv@Base 3.2.1
 _ZN8casacore15LoggerHolderRep5flushEv@Base 3.2.1
 _ZN8casacore15LoggerHolderRep5logioEv@Base 3.2.1
 _ZN8casacore15LoggerHolderRep6appendERKNS_12LoggerHolderE@Base 3.2.1
 _ZN8casacore15LoggerHolderRep6resyncEv@Base 3.2.1
 _ZN8casacore15LoggerHolderRep6unlockEv@Base 3.2.1
 _ZN8casacore15LoggerHolderRep8doReopenEv@Base 3.2.1
 _ZN8casacore15LoggerHolderRep8reopenRWEv@Base 3.2.1
 _ZN8casacore15LoggerHolderRep9addParentERKNS_12LoggerHolderE@Base 3.2.1
 _ZN8casacore15LoggerHolderRep9tempCloseEb@Base 3.2.1
 _ZN8casacore15LoggerHolderRepC1ERKNS_6StringEb@Base 3.2.1
 _ZN8casacore15LoggerHolderRepC1ERKS0_@Base 3.2.1
 _ZN8casacore15LoggerHolderRepC1Eb@Base 3.2.1
 _ZN8casacore15LoggerHolderRepC2ERKNS_6StringEb@Base 3.2.1
 _ZN8casacore15LoggerHolderRepC2ERKS0_@Base 3.2.1
 _ZN8casacore15LoggerHolderRepC2Eb@Base 3.2.1
 _ZN8casacore15LoggerHolderRepD1Ev@Base 3.2.1
 _ZN8casacore15LoggerHolderRepD2Ev@Base 3.2.1
 _ZN8casacore15LoggerHolderRepaSERKS0_@Base 3.2.1
 _ZN8casacore15NewDelAllocatorINS_5SliceEE5valueE@Base 3.2.1
 _ZN8casacore15NewDelAllocatorINS_5SliceEED0Ev@Base 3.2.1
 _ZN8casacore15NewDelAllocatorINS_5SliceEED1Ev@Base 3.2.1
 _ZN8casacore15NewDelAllocatorINS_5SliceEED2Ev@Base 3.2.1
 _ZN8casacore15NewDelAllocatorINS_6MVTimeEE5valueE@Base 3.2.1
 _ZN8casacore15NewDelAllocatorINS_6MVTimeEED0Ev@Base 3.2.1
 _ZN8casacore15NewDelAllocatorINS_6MVTimeEED1Ev@Base 3.2.1
 _ZN8casacore15NewDelAllocatorINS_6MVTimeEED2Ev@Base 3.2.1
 _ZN8casacore15NewDelAllocatorINS_6VectorINS_5SliceEEEE5valueE@Base 3.2.1
 _ZN8casacore15NewDelAllocatorINS_6VectorINS_5SliceEEEED0Ev@Base 3.2.1
 _ZN8casacore15NewDelAllocatorINS_6VectorINS_5SliceEEEED1Ev@Base 3.2.1
 _ZN8casacore15NewDelAllocatorINS_6VectorINS_5SliceEEEED2Ev@Base 3.2.1
 _ZN8casacore15NewDelAllocatorIPNS_6SlicerEE5valueE@Base 3.2.1
 _ZN8casacore15NewDelAllocatorIPNS_6SlicerEED0Ev@Base 3.2.1
 _ZN8casacore15NewDelAllocatorIPNS_6SlicerEED1Ev@Base 3.2.1
 _ZN8casacore15NewDelAllocatorIPNS_6SlicerEED2Ev@Base 3.2.1
 _ZN8casacore15PutColumnSlicesINS_6StringEE5applyERKNS_6SlicerERNS_5ArrayIS1_EE@Base 3.2.1
 _ZN8casacore15PutColumnSlicesINS_6StringEED0Ev@Base 3.2.1
 _ZN8casacore15PutColumnSlicesINS_6StringEED1Ev@Base 3.2.1
 _ZN8casacore15PutColumnSlicesINS_6StringEED2Ev@Base 3.2.1
 _ZN8casacore15PutColumnSlicesISt7complexIdEE5applyERKNS_6SlicerERNS_5ArrayIS2_EE@Base 3.2.1
 _ZN8casacore15PutColumnSlicesISt7complexIdEED0Ev@Base 3.2.1
 _ZN8casacore15PutColumnSlicesISt7complexIdEED1Ev@Base 3.2.1
 _ZN8casacore15PutColumnSlicesISt7complexIdEED2Ev@Base 3.2.1
 _ZN8casacore15PutColumnSlicesISt7complexIfEE5applyERKNS_6SlicerERNS_5ArrayIS2_EE@Base 3.2.1
 _ZN8casacore15PutColumnSlicesISt7complexIfEED0Ev@Base 3.2.1
 _ZN8casacore15PutColumnSlicesISt7complexIfEED1Ev@Base 3.2.1
 _ZN8casacore15PutColumnSlicesISt7complexIfEED2Ev@Base 3.2.1
 _ZN8casacore15PutColumnSlicesIbE5applyERKNS_6SlicerERNS_5ArrayIbEE@Base 3.2.1
 _ZN8casacore15PutColumnSlicesIbED0Ev@Base 3.2.1
 _ZN8casacore15PutColumnSlicesIbED1Ev@Base 3.2.1
 _ZN8casacore15PutColumnSlicesIbED2Ev@Base 3.2.1
 _ZN8casacore15PutColumnSlicesIcE5applyERKNS_6SlicerERNS_5ArrayIcEE@Base 3.2.1
 _ZN8casacore15PutColumnSlicesIcED0Ev@Base 3.2.1
 _ZN8casacore15PutColumnSlicesIcED1Ev@Base 3.2.1
 _ZN8casacore15PutColumnSlicesIcED2Ev@Base 3.2.1
 _ZN8casacore15PutColumnSlicesIdE5applyERKNS_6SlicerERNS_5ArrayIdEE@Base 3.2.1
 _ZN8casacore15PutColumnSlicesIdED0Ev@Base 3.2.1
 _ZN8casacore15PutColumnSlicesIdED1Ev@Base 3.2.1
 _ZN8casacore15PutColumnSlicesIdED2Ev@Base 3.2.1
 _ZN8casacore15PutColumnSlicesIfE5applyERKNS_6SlicerERNS_5ArrayIfEE@Base 3.2.1
 _ZN8casacore15PutColumnSlicesIfED0Ev@Base 3.2.1
 _ZN8casacore15PutColumnSlicesIfED1Ev@Base 3.2.1
 _ZN8casacore15PutColumnSlicesIfED2Ev@Base 3.2.1
 _ZN8casacore15PutColumnSlicesIiE5applyERKNS_6SlicerERNS_5ArrayIiEE@Base 3.2.1
 _ZN8casacore15PutColumnSlicesIiED0Ev@Base 3.2.1
 _ZN8casacore15PutColumnSlicesIiED1Ev@Base 3.2.1
 _ZN8casacore15PutColumnSlicesIiED2Ev@Base 3.2.1
 _ZN8casacore15PutColumnSlicesIjE5applyERKNS_6SlicerERNS_5ArrayIjEE@Base 3.2.1
 _ZN8casacore15PutColumnSlicesIjED0Ev@Base 3.2.1
 _ZN8casacore15PutColumnSlicesIjED1Ev@Base 3.2.1
 _ZN8casacore15PutColumnSlicesIjED2Ev@Base 3.2.1
 _ZN8casacore15PutColumnSlicesIsE5applyERKNS_6SlicerERNS_5ArrayIsEE@Base 3.2.1
 _ZN8casacore15PutColumnSlicesIsED0Ev@Base 3.2.1
 _ZN8casacore15PutColumnSlicesIsED1Ev@Base 3.2.1
 _ZN8casacore15PutColumnSlicesIsED2Ev@Base 3.2.1
 _ZN8casacore15PutColumnSlicesItE5applyERKNS_6SlicerERNS_5ArrayItEE@Base 3.2.1
 _ZN8casacore15PutColumnSlicesItED0Ev@Base 3.2.1
 _ZN8casacore15PutColumnSlicesItED1Ev@Base 3.2.1
 _ZN8casacore15PutColumnSlicesItED2Ev@Base 3.2.1
 _ZN8casacore15PutColumnSlicesIxE5applyERKNS_6SlicerERNS_5ArrayIxEE@Base 3.2.1
 _ZN8casacore15PutColumnSlicesIxED0Ev@Base 3.2.1
 _ZN8casacore15PutColumnSlicesIxED1Ev@Base 3.2.1
 _ZN8casacore15PutColumnSlicesIxED2Ev@Base 3.2.1
 _ZN8casacore15RecordGramerrorEPKc@Base 3.2.1
 _ZN8casacore15TaQLCalcNodeRep7restoreERNS_6AipsIOE@Base 3.2.1
 _ZN8casacore15TaQLCalcNodeRepC1ERKNS_13TaQLMultiNodeES3_RKNS_8TaQLNodeES6_S6_S6_@Base 3.2.1
 _ZN8casacore15TaQLCalcNodeRepC2ERKNS_13TaQLMultiNodeES3_RKNS_8TaQLNodeES6_S6_S6_@Base 3.2.1
 _ZN8casacore15TaQLCalcNodeRepD0Ev@Base 3.2.1
 _ZN8casacore15TaQLCalcNodeRepD1Ev@Base 3.2.1
 _ZN8casacore15TaQLCalcNodeRepD2Ev@Base 3.2.1
 _ZN8casacore15TaQLFuncNodeRep7restoreERNS_6AipsIOE@Base 3.2.1
 _ZN8casacore15TaQLFuncNodeRepC1ERKNS_6StringE@Base 3.2.1
 _ZN8casacore15TaQLFuncNodeRepC1ERKNS_6StringERKNS_13TaQLMultiNodeE@Base 3.2.1
 _ZN8casacore15TaQLFuncNodeRepC2ERKNS_6StringE@Base 3.2.1
 _ZN8casacore15TaQLFuncNodeRepC2ERKNS_6StringERKNS_13TaQLMultiNodeE@Base 3.2.1
 _ZN8casacore15TaQLFuncNodeRepD0Ev@Base 3.2.1
 _ZN8casacore15TaQLFuncNodeRepD1Ev@Base 3.2.1
 _ZN8casacore15TaQLFuncNodeRepD2Ev@Base 3.2.1
 _ZN8casacore15TaQLJoinNodeRep7restoreERNS_6AipsIOE@Base 3.2.1
 _ZN8casacore15TaQLJoinNodeRepC1ERKNS_13TaQLMultiNodeERKNS_8TaQLNodeE@Base 3.2.1
 _ZN8casacore15TaQLJoinNodeRepC2ERKNS_13TaQLMultiNodeERKNS_8TaQLNodeE@Base 3.2.1
 _ZN8casacore15TaQLJoinNodeRepD0Ev@Base 3.2.1
 _ZN8casacore15TaQLJoinNodeRepD1Ev@Base 3.2.1
 _ZN8casacore15TaQLJoinNodeRepD2Ev@Base 3.2.1
 _ZN8casacore15TaQLNodeHRValueC1ERKNS_13TableExprNodeE@Base 3.2.1
 _ZN8casacore15TaQLNodeHRValueC1Ev@Base 3.2.1
 _ZN8casacore15TaQLNodeHRValueC2ERKNS_13TableExprNodeE@Base 3.2.1
 _ZN8casacore15TaQLNodeHRValueC2Ev@Base 3.2.1
 _ZN8casacore15TaQLNodeHRValueD0Ev@Base 3.2.1
 _ZN8casacore15TaQLNodeHRValueD1Ev@Base 3.2.1
 _ZN8casacore15TaQLNodeHRValueD2Ev@Base 3.2.1
 _ZN8casacore15TaQLNodeHandler10clearStackEv@Base 3.2.1
 _ZN8casacore15TaQLNodeHandler10handleTreeERKNS_8TaQLNodeERKSt6vectorIPKNS_5TableESaIS7_EE@Base 3.2.1
 _ZN8casacore15TaQLNodeHandler11handleWhereERKNS_8TaQLNodeE@Base 3.2.1
 _ZN8casacore15TaQLNodeHandler12handleHavingERKNS_8TaQLNodeE@Base 3.2.1
 _ZN8casacore15TaQLNodeHandler12handleInsColERKNS_13TaQLMultiNodeE@Base 3.2.1
 _ZN8casacore15TaQLNodeHandler12handleInsValERKNS_8TaQLNodeE@Base 3.2.1
 _ZN8casacore15TaQLNodeHandler12handleTablesERKNS_13TaQLMultiNodeEb@Base 3.2.1
 _ZN8casacore15TaQLNodeHandler12handleUpdateERKNS_13TaQLMultiNodeE@Base 3.2.1
 _ZN8casacore15TaQLNodeHandler12visitColNodeERKNS_14TaQLColNodeRepE@Base 3.2.1
 _ZN8casacore15TaQLNodeHandler13visitCalcNodeERKNS_15TaQLCalcNodeRepE@Base 3.2.1
 _ZN8casacore15TaQLNodeHandler13visitFuncNodeERKNS_15TaQLFuncNodeRepE@Base 3.2.1
 _ZN8casacore15TaQLNodeHandler13visitJoinNodeERKNS_15TaQLJoinNodeRepE@Base 3.2.1
 _ZN8casacore15TaQLNodeHandler13visitShowNodeERKNS_15TaQLShowNodeRepE@Base 3.2.1
 _ZN8casacore15TaQLNodeHandler13visitSortNodeERKNS_15TaQLSortNodeRepE@Base 3.2.1
 _ZN8casacore15TaQLNodeHandler13visitUnitNodeERKNS_15TaQLUnitNodeRepE@Base 3.2.1
 _ZN8casacore15TaQLNodeHandler14handleColSpecsERKNS_13TaQLMultiNodeE@Base 3.2.1
 _ZN8casacore15TaQLNodeHandler14visitConstNodeERKNS_16TaQLConstNodeRepE@Base 3.2.1
 _ZN8casacore15TaQLNodeHandler14visitCountNodeERKNS_16TaQLCountNodeRepE@Base 3.2.1
 _ZN8casacore15TaQLNodeHandler14visitGroupNodeERKNS_16TaQLGroupNodeRepE@Base 3.2.1
 _ZN8casacore15TaQLNodeHandler14visitIndexNodeERKNS_16TaQLIndexNodeRepE@Base 3.2.1
 _ZN8casacore15TaQLNodeHandler14visitMultiNodeERKNS_16TaQLMultiNodeRepE@Base 3.2.1
 _ZN8casacore15TaQLNodeHandler14visitRangeNodeERKNS_16TaQLRangeNodeRepE@Base 3.2.1
 _ZN8casacore15TaQLNodeHandler14visitRegexNodeERKNS_16TaQLRegexNodeRepE@Base 3.2.1
 _ZN8casacore15TaQLNodeHandler14visitTableNodeERKNS_16TaQLTableNodeRepE@Base 3.2.1
 _ZN8casacore15TaQLNodeHandler14visitUnaryNodeERKNS_16TaQLUnaryNodeRepE@Base 3.2.1
 _ZN8casacore15TaQLNodeHandler15handleTableNameEPNS_15TaQLNodeHRValueERKNS_8TaQLNodeE@Base 3.2.1
 _ZN8casacore15TaQLNodeHandler15visitAddColNodeERKNS_17TaQLAddColNodeRepE@Base 3.2.1
 _ZN8casacore15TaQLNodeHandler15visitAddRowNodeERKNS_17TaQLAddRowNodeRepE@Base 3.2.1
 _ZN8casacore15TaQLNodeHandler15visitAltTabNodeERKNS_17TaQLAltTabNodeRepE@Base 3.2.1
 _ZN8casacore15TaQLNodeHandler15visitBinaryNodeERKNS_17TaQLBinaryNodeRepE@Base 3.2.1
 _ZN8casacore15TaQLNodeHandler15visitCreTabNodeERKNS_17TaQLCreTabNodeRepE@Base 3.2.1
 _ZN8casacore15TaQLNodeHandler15visitDeleteNodeERKNS_17TaQLDeleteNodeRepE@Base 3.2.1
 _ZN8casacore15TaQLNodeHandler15visitGivingNodeERKNS_17TaQLGivingNodeRepE@Base 3.2.1
 _ZN8casacore15TaQLNodeHandler15visitInsertNodeERKNS_17TaQLInsertNodeRepE@Base 3.2.1
 _ZN8casacore15TaQLNodeHandler15visitKeyColNodeERKNS_17TaQLKeyColNodeRepE@Base 3.2.1
 _ZN8casacore15TaQLNodeHandler15visitRecFldNodeERKNS_17TaQLRecFldNodeRepE@Base 3.2.1
 _ZN8casacore15TaQLNodeHandler15visitSelectNodeERKNS_17TaQLSelectNodeRepE@Base 3.2.1
 _ZN8casacore15TaQLNodeHandler15visitSetKeyNodeERKNS_17TaQLSetKeyNodeRepE@Base 3.2.1
 _ZN8casacore15TaQLNodeHandler15visitUpdateNodeERKNS_17TaQLUpdateNodeRepE@Base 3.2.1
 _ZN8casacore15TaQLNodeHandler16visitColSpecNodeERKNS_18TaQLColSpecNodeRepE@Base 3.2.1
 _ZN8casacore15TaQLNodeHandler16visitColumnsNodeERKNS_18TaQLColumnsNodeRepE@Base 3.2.1
 _ZN8casacore15TaQLNodeHandler16visitConcTabNodeERKNS_18TaQLConcTabNodeRepE@Base 3.2.1
 _ZN8casacore15TaQLNodeHandler16visitRenDropNodeERKNS_18TaQLRenDropNodeRepE@Base 3.2.1
 _ZN8casacore15TaQLNodeHandler16visitSortKeyNodeERKNS_18TaQLSortKeyNodeRepE@Base 3.2.1
 _ZN8casacore15TaQLNodeHandler16visitUpdExprNodeERKNS_18TaQLUpdExprNodeRepE@Base 3.2.1
 _ZN8casacore15TaQLNodeHandler17handleMultiRecFldERKNS_8TaQLNodeE@Base 3.2.1
 _ZN8casacore15TaQLNodeHandler17visitLimitOffNodeERKNS_19TaQLLimitOffNodeRepE@Base 3.2.1
 _ZN8casacore15TaQLNodeHandler8popStackEv@Base 3.2.1
 _ZN8casacore15TaQLNodeHandler9pushStackENS_16TableParseSelect11CommandTypeE@Base 3.2.1
 _ZN8casacore15TaQLNodeHandlerD0Ev@Base 3.2.1
 _ZN8casacore15TaQLNodeHandlerD1Ev@Base 3.2.1
 _ZN8casacore15TaQLNodeHandlerD2Ev@Base 3.2.1
 _ZN8casacore15TaQLNodeVisitorD0Ev@Base 3.2.1
 _ZN8casacore15TaQLNodeVisitorD1Ev@Base 3.2.1
 _ZN8casacore15TaQLNodeVisitorD2Ev@Base 3.2.1
 _ZN8casacore15TaQLShowNodeRep7restoreERNS_6AipsIOE@Base 3.2.1
 _ZN8casacore15TaQLShowNodeRepC1ERKNS_13TaQLMultiNodeE@Base 3.2.1
 _ZN8casacore15TaQLShowNodeRepC2ERKNS_13TaQLMultiNodeE@Base 3.2.1
 _ZN8casacore15TaQLShowNodeRepD0Ev@Base 3.2.1
 _ZN8casacore15TaQLShowNodeRepD1Ev@Base 3.2.1
 _ZN8casacore15TaQLShowNodeRepD2Ev@Base 3.2.1
 _ZN8casacore15TaQLSortNodeRep7restoreERNS_6AipsIOE@Base 3.2.1
 _ZN8casacore15TaQLSortNodeRepC1EbNS0_4TypeERKNS_13TaQLMultiNodeE@Base 3.2.1
 _ZN8casacore15TaQLSortNodeRepC2EbNS0_4TypeERKNS_13TaQLMultiNodeE@Base 3.2.1
 _ZN8casacore15TaQLSortNodeRepD0Ev@Base 3.2.1
 _ZN8casacore15TaQLSortNodeRepD1Ev@Base 3.2.1
 _ZN8casacore15TaQLSortNodeRepD2Ev@Base 3.2.1
 _ZN8casacore15TaQLUnitNodeRep7restoreERNS_6AipsIOE@Base 3.2.1
 _ZN8casacore15TaQLUnitNodeRepC1ERKNS_6StringERKNS_8TaQLNodeE@Base 3.2.1
 _ZN8casacore15TaQLUnitNodeRepC2ERKNS_6StringERKNS_8TaQLNodeE@Base 3.2.1
 _ZN8casacore15TaQLUnitNodeRepD0Ev@Base 3.2.1
 _ZN8casacore15TaQLUnitNodeRepD1Ev@Base 3.2.1
 _ZN8casacore15TaQLUnitNodeRepD2Ev@Base 3.2.1
 _ZN8casacore15TableDescNoNameC1ENS_9AipsError8CategoryE@Base 3.2.1
 _ZN8casacore15TableDescNoNameC2ENS_9AipsError8CategoryE@Base 3.2.1
 _ZN8casacore15TableDescNoNameD0Ev@Base 3.2.1
 _ZN8casacore15TableDescNoNameD1Ev@Base 3.2.1
 _ZN8casacore15TableDescNoNameD2Ev@Base 3.2.1
 _ZN8casacore15TableExprNodeOR6rangesERNS_5BlockINS_14TableExprRangeEEE@Base 3.2.1
 _ZN8casacore15TableExprNodeOR7getBoolERKNS_11TableExprIdE@Base 3.2.1
 _ZN8casacore15TableExprNodeORC1ERKNS_16TableExprNodeRepE@Base 3.2.1
 _ZN8casacore15TableExprNodeORC2ERKNS_16TableExprNodeRepE@Base 3.2.1
 _ZN8casacore15TableExprNodeORD0Ev@Base 3.2.1
 _ZN8casacore15TableExprNodeORD1Ev@Base 3.2.1
 _ZN8casacore15TableExprNodeORD2Ev@Base 3.2.1
 _ZN8casacore15TableIndexProxy10setChangedERKNS_6VectorINS_6StringEEE@Base 3.2.1
 _ZN8casacore15TableIndexProxy12getRowNumberERKNS_6RecordE@Base 3.2.1
 _ZN8casacore15TableIndexProxy13getRowNumbersERKNS_6RecordE@Base 3.2.1
 _ZN8casacore15TableIndexProxy18getRowNumbersRangeERKNS_6RecordES3_bb@Base 3.2.1
 _ZN8casacore15TableIndexProxyC1ERKNS_10TableProxyERKNS_6VectorINS_6StringEEEb@Base 3.2.1
 _ZN8casacore15TableIndexProxyC1ERKS0_@Base 3.2.1
 _ZN8casacore15TableIndexProxyC2ERKNS_10TableProxyERKNS_6VectorINS_6StringEEEb@Base 3.2.1
 _ZN8casacore15TableIndexProxyC2ERKS0_@Base 3.2.1
 _ZN8casacore15TableIndexProxyD1Ev@Base 3.2.1
 _ZN8casacore15TableIndexProxyD2Ev@Base 3.2.1
 _ZN8casacore15TableParseErrorC1ERKNS_6StringEiS3_NS_9AipsError8CategoryE@Base 3.2.1
 _ZN8casacore15TableParseErrorC2ERKNS_6StringEiS3_NS_9AipsError8CategoryE@Base 3.2.1
 _ZN8casacore15TableParseErrorD0Ev@Base 3.2.1
 _ZN8casacore15TableParseErrorD1Ev@Base 3.2.1
 _ZN8casacore15TableParseErrorD2Ev@Base 3.2.1
 _ZN8casacore15TiledFileAccess10getComplexERKNS_6SlicerE@Base 3.2.1
 _ZN8casacore15TiledFileAccess11getDComplexERKNS_6SlicerE@Base 3.2.1
 _ZN8casacore15TiledFileAccess13makeTileShapeERKNS_9IPositionEj@Base 3.2.1
 _ZN8casacore15TiledFileAccess19setMaximumCacheSizeEj@Base 3.2.1
 _ZN8casacore15TiledFileAccess3getERNS_5ArrayISt7complexIdEEERKNS_6SlicerE@Base 3.2.1
 _ZN8casacore15TiledFileAccess3getERNS_5ArrayISt7complexIfEEERKNS_6SlicerE@Base 3.2.1
 _ZN8casacore15TiledFileAccess3getERNS_5ArrayIbEERKNS_6SlicerE@Base 3.2.1
 _ZN8casacore15TiledFileAccess3getERNS_5ArrayIdEERKNS_6SlicerE@Base 3.2.1
 _ZN8casacore15TiledFileAccess3getERNS_5ArrayIfEERKNS_6SlicerE@Base 3.2.1
 _ZN8casacore15TiledFileAccess3getERNS_5ArrayIfEERKNS_6SlicerEffhb@Base 3.2.1
 _ZN8casacore15TiledFileAccess3getERNS_5ArrayIfEERKNS_6SlicerEffib@Base 3.2.1
 _ZN8casacore15TiledFileAccess3getERNS_5ArrayIfEERKNS_6SlicerEffsb@Base 3.2.1
 _ZN8casacore15TiledFileAccess3getERNS_5ArrayIhEERKNS_6SlicerE@Base 3.2.1
 _ZN8casacore15TiledFileAccess3getERNS_5ArrayIiEERKNS_6SlicerE@Base 3.2.1
 _ZN8casacore15TiledFileAccess3getERNS_5ArrayIsEERKNS_6SlicerE@Base 3.2.1
 _ZN8casacore15TiledFileAccess3putERKNS_5ArrayISt7complexIdEEERKNS_6SlicerE@Base 3.2.1
 _ZN8casacore15TiledFileAccess3putERKNS_5ArrayISt7complexIfEEERKNS_6SlicerE@Base 3.2.1
 _ZN8casacore15TiledFileAccess3putERKNS_5ArrayIbEERKNS_6SlicerE@Base 3.2.1
 _ZN8casacore15TiledFileAccess3putERKNS_5ArrayIdEERKNS_6SlicerE@Base 3.2.1
 _ZN8casacore15TiledFileAccess3putERKNS_5ArrayIfEERKNS_6SlicerE@Base 3.2.1
 _ZN8casacore15TiledFileAccess3putERKNS_5ArrayIhEERKNS_6SlicerE@Base 3.2.1
 _ZN8casacore15TiledFileAccess3putERKNS_5ArrayIiEERKNS_6SlicerE@Base 3.2.1
 _ZN8casacore15TiledFileAccess3putERKNS_5ArrayIsEERKNS_6SlicerE@Base 3.2.1
 _ZN8casacore15TiledFileAccess6getIntERKNS_6SlicerE@Base 3.2.1
 _ZN8casacore15TiledFileAccess7getBoolERKNS_6SlicerE@Base 3.2.1
 _ZN8casacore15TiledFileAccess8getFloatERKNS_6SlicerE@Base 3.2.1
 _ZN8casacore15TiledFileAccess8getFloatERKNS_6SlicerEffhb@Base 3.2.1
 _ZN8casacore15TiledFileAccess8getFloatERKNS_6SlicerEffib@Base 3.2.1
 _ZN8casacore15TiledFileAccess8getFloatERKNS_6SlicerEffsb@Base 3.2.1
 _ZN8casacore15TiledFileAccess8getShortERKNS_6SlicerE@Base 3.2.1
 _ZN8casacore15TiledFileAccess8getUCharERKNS_6SlicerE@Base 3.2.1
 _ZN8casacore15TiledFileAccess9getDoubleERKNS_6SlicerE@Base 3.2.1
 _ZN8casacore15TiledFileAccessC1ERKNS_6StringExRKNS_9IPositionES6_NS_8DataTypeERKNS_9TSMOptionEb@Base 3.2.1
 _ZN8casacore15TiledFileAccessC1ERKNS_6StringExRKNS_9IPositionES6_NS_8DataTypeERKNS_9TSMOptionEbb@Base 3.2.1
 _ZN8casacore15TiledFileAccessC2ERKNS_6StringExRKNS_9IPositionES6_NS_8DataTypeERKNS_9TSMOptionEb@Base 3.2.1
 _ZN8casacore15TiledFileAccessC2ERKNS_6StringExRKNS_9IPositionES6_NS_8DataTypeERKNS_9TSMOptionEbb@Base 3.2.1
 _ZN8casacore15TiledFileAccessD1Ev@Base 3.2.1
 _ZN8casacore15TiledFileAccessD2Ev@Base 3.2.1
 _ZN8casacore15TiledFileHelper10readHeaderEjb@Base 3.2.1
 _ZN8casacore15TiledFileHelper12getHypercubeEj@Base 3.2.1
 _ZN8casacore15TiledFileHelper12getHypercubeEjRNS_9IPositionE@Base 3.2.1
 _ZN8casacore15TiledFileHelper5flushERNS_6AipsIOEb@Base 3.2.1
 _ZN8casacore15TiledFileHelper6createEj@Base 3.2.1
 _ZN8casacore15TiledFileHelperC1ERKNS_6StringERKNS_9IPositionENS_8DataTypeERKNS_9TSMOptionEbb@Base 3.2.1
 _ZN8casacore15TiledFileHelperC2ERKNS_6StringERKNS_9IPositionENS_8DataTypeERKNS_9TSMOptionEbb@Base 3.2.1
 _ZN8casacore15TiledFileHelperD0Ev@Base 3.2.1
 _ZN8casacore15TiledFileHelperD1Ev@Base 3.2.1
 _ZN8casacore15TiledFileHelperD2Ev@Base 3.2.1
 _ZN8casacore15TiledShapeStMan10makeObjectERKNS_6StringERKNS_6RecordE@Base 3.2.1
 _ZN8casacore15TiledShapeStMan10readHeaderEjb@Base 3.2.1
 _ZN8casacore15TiledShapeStMan12addHypercubeEjRKNS_9IPositionES3_@Base 3.2.1
 _ZN8casacore15TiledShapeStMan12getHypercubeEj@Base 3.2.1
 _ZN8casacore15TiledShapeStMan12getHypercubeEjRNS_9IPositionE@Base 3.2.1
 _ZN8casacore15TiledShapeStMan12updateRowMapEjjj@Base 3.2.1
 _ZN8casacore15TiledShapeStMan13findHypercubeERKNS_9IPositionE@Base 3.2.1
 _ZN8casacore15TiledShapeStMan15extendHypercubeEjj@Base 3.2.1
 _ZN8casacore15TiledShapeStMan15singleHypercubeEv@Base 3.2.1
 _ZN8casacore15TiledShapeStMan5flushERNS_6AipsIOEb@Base 3.2.1
 _ZN8casacore15TiledShapeStMan6addRowEj@Base 3.2.1
 _ZN8casacore15TiledShapeStMan6createEj@Base 3.2.1
 _ZN8casacore15TiledShapeStMan8setShapeEjPNS_7TSMCubeERKNS_9IPositionES5_@Base 3.2.1
 _ZN8casacore15TiledShapeStManC1ERKNS_6StringERKNS_6RecordE@Base 3.2.1
 _ZN8casacore15TiledShapeStManC1ERKNS_6StringERKNS_9IPositionEj@Base 3.2.1
 _ZN8casacore15TiledShapeStManC1Ev@Base 3.2.1
 _ZN8casacore15TiledShapeStManC2ERKNS_6StringERKNS_6RecordE@Base 3.2.1
 _ZN8casacore15TiledShapeStManC2ERKNS_6StringERKNS_9IPositionEj@Base 3.2.1
 _ZN8casacore15TiledShapeStManC2Ev@Base 3.2.1
 _ZN8casacore15TiledShapeStManD0Ev@Base 3.2.1
 _ZN8casacore15TiledShapeStManD1Ev@Base 3.2.1
 _ZN8casacore15TiledShapeStManD2Ev@Base 3.2.1
 _ZN8casacore15arrayCompareAllIbSt8equal_toIbEEEbRKNS_5ArrayIT_EES4_T0_@Base 3.2.1
 _ZN8casacore15arrayCompareAllIjSt8equal_toIjEEEbRKNS_5ArrayIT_EES7_T0_@Base 3.2.1
 _ZN8casacore15arrayCompareAnyINS_6MVTimeESt8equal_toIS1_EEEbRKNS_5ArrayIT_EES5_T0_@Base 3.2.1
 _ZN8casacore15arrayCompareAnyINS_6StringESt8equal_toIS1_EEEbRKNS_5ArrayIT_EES5_T0_@Base 3.2.1
 _ZN8casacore15arrayCompareAnyISt7complexIdESt8equal_toIS2_EEEbRKNS_5ArrayIT_EES6_T0_@Base 3.2.1
 _ZN8casacore15arrayCompareAnyIbSt8equal_toIbEEEbRKNS_5ArrayIT_EES4_T0_@Base 3.2.1
 _ZN8casacore15arrayCompareAnyIdSt8equal_toIdEEEbRKNS_5ArrayIT_EES4_T0_@Base 3.2.1
 _ZN8casacore15arrayCompareAnyIiSt10less_equalIiEEEbRKNS_5ArrayIT_EES4_T0_@Base 3.2.1
 _ZN8casacore15arrayCompareAnyIiSt13greater_equalIiEEEbRKNS_5ArrayIT_EES4_T0_@Base 3.2.1
 _ZN8casacore15arrayCompareAnyIiSt4lessIiEEEbRKNS_5ArrayIT_EES4_T0_@Base 3.2.1
 _ZN8casacore15arrayCompareAnyIxSt8equal_toIxEEEbRKNS_5ArrayIT_EES4_T0_@Base 3.2.1
 _ZN8casacore15expandRecursiveINS_6MVTimeEEEPT_iRKNS_9IPositionES6_S6_PKS2_S3_S6_@Base 3.2.1
 _ZN8casacore15expandRecursiveINS_6StringEEEPT_iRKNS_9IPositionES6_S6_PKS2_S3_S6_@Base 3.2.1
 _ZN8casacore15expandRecursiveISt7complexIdEEEPT_iRKNS_9IPositionES7_S7_PKS3_S4_S7_@Base 3.2.1
 _ZN8casacore15expandRecursiveIbEEPT_iRKNS_9IPositionES5_S5_PKS1_S2_S5_@Base 3.2.1
 _ZN8casacore15expandRecursiveIdEEPT_iRKNS_9IPositionES5_S5_PKS1_S2_S5_@Base 3.2.1
 _ZN8casacore15expandRecursiveIxEEPT_iRKNS_9IPositionES5_S5_PKS1_S2_S5_@Base 3.2.1
 _ZN8casacore15logicalFuncHelpE@Base 3.2.1
 _ZN8casacore15partialProductsISt7complexIdEEENS_5ArrayIT_EERKS5_RKNS_9IPositionE@Base 3.2.1
 _ZN8casacore15partialProductsIdEENS_5ArrayIT_EERKS3_RKNS_9IPositionE@Base 3.2.1
 _ZN8casacore15partialProductsIxEENS_5ArrayIT_EERKS3_RKNS_9IPositionE@Base 3.2.1
 _ZN8casacore15recordGramInputEPci@Base 3.2.1
 _ZN8casacore16DefaultAllocatorINS_5SliceEE5valueE@Base 3.2.1
 _ZN8casacore16DefaultAllocatorINS_5SliceEED0Ev@Base 3.2.1
 _ZN8casacore16DefaultAllocatorINS_5SliceEED1Ev@Base 3.2.1
 _ZN8casacore16DefaultAllocatorINS_5SliceEED2Ev@Base 3.2.1
 _ZN8casacore16DefaultAllocatorINS_6MVTimeEE5valueE@Base 3.2.1
 _ZN8casacore16DefaultAllocatorINS_6MVTimeEED0Ev@Base 3.2.1
 _ZN8casacore16DefaultAllocatorINS_6MVTimeEED1Ev@Base 3.2.1
 _ZN8casacore16DefaultAllocatorINS_6MVTimeEED2Ev@Base 3.2.1
 _ZN8casacore16DefaultAllocatorINS_6VectorINS_5SliceEEEE5valueE@Base 3.2.1
 _ZN8casacore16DefaultAllocatorINS_6VectorINS_5SliceEEEED0Ev@Base 3.2.1
 _ZN8casacore16DefaultAllocatorINS_6VectorINS_5SliceEEEED1Ev@Base 3.2.1
 _ZN8casacore16DefaultAllocatorINS_6VectorINS_5SliceEEEED2Ev@Base 3.2.1
 _ZN8casacore16DefaultAllocatorIPNS_6SlicerEE5valueE@Base 3.2.1
 _ZN8casacore16DefaultAllocatorIPNS_6SlicerEED0Ev@Base 3.2.1
 _ZN8casacore16DefaultAllocatorIPNS_6SlicerEED1Ev@Base 3.2.1
 _ZN8casacore16DefaultAllocatorIPNS_6SlicerEED2Ev@Base 3.2.1
 _ZN8casacore16ExternalLockSync15releaseCallBackEPvb@Base 3.2.1
 _ZN8casacore16ExternalLockSync7acquireENS_10FileLocker8LockTypeEj@Base 3.2.1
 _ZN8casacore16ExternalLockSync8makeLockERKNS_6StringEbNS_10FileLocker8LockTypeE@Base 3.2.1
 _ZN8casacore16ExternalLockSyncC1ERKNS_9TableLockE@Base 3.2.1
 _ZN8casacore16ExternalLockSyncC2ERKNS_9TableLockE@Base 3.2.1
 _ZN8casacore16ExternalLockSyncD1Ev@Base 3.2.1
 _ZN8casacore16ExternalLockSyncD2Ev@Base 3.2.1
 _ZN8casacore16IncrementalStManC1ERKNS_6StringEjbj@Base 3.2.1
 _ZN8casacore16IncrementalStManC1Ejbj@Base 3.2.1
 _ZN8casacore16IncrementalStManC2ERKNS_6StringEjbj@Base 3.2.1
 _ZN8casacore16IncrementalStManC2Ejbj@Base 3.2.1
 _ZN8casacore16IncrementalStManD0Ev@Base 3.2.1
 _ZN8casacore16IncrementalStManD1Ev@Base 3.2.1
 _ZN8casacore16IncrementalStManD2Ev@Base 3.2.1
 _ZN8casacore16RefRowsSliceIter4nextEv@Base 3.2.1
 _ZN8casacore16RefRowsSliceIter5resetEv@Base 3.2.1
 _ZN8casacore16RefRowsSliceIterC1ERKNS_7RefRowsE@Base 3.2.1
 _ZN8casacore16RefRowsSliceIterC2ERKNS_7RefRowsE@Base 3.2.1
 _ZN8casacore16SSMStringHandler11replaceDataERiiPKc@Base 3.2.1
 _ZN8casacore16SSMStringHandler12getNewBucketEb@Base 3.2.1
 _ZN8casacore16SSMStringHandler3getERNS_5ArrayINS_6StringEEEiiib@Base 3.2.1
 _ZN8casacore16SSMStringHandler3getERNS_6StringEiii@Base 3.2.1
 _ZN8casacore16SSMStringHandler3putERiS1_S1_RKNS_5ArrayINS_6StringEEEb@Base 3.2.1
 _ZN8casacore16SSMStringHandler3putERiS1_S1_RKNS_6StringE@Base 3.2.1
 _ZN8casacore16SSMStringHandler4initEv@Base 3.2.1
 _ZN8casacore16SSMStringHandler5flushEv@Base 3.2.1
 _ZN8casacore16SSMStringHandler6removeEiii@Base 3.2.1
 _ZN8casacore16SSMStringHandler6resyncEv@Base 3.2.1
 _ZN8casacore16SSMStringHandler7getDataEiPcRi@Base 3.2.1
 _ZN8casacore16SSMStringHandler7putDataEiPKc@Base 3.2.1
 _ZN8casacore16SSMStringHandler7replaceEiiiRKNS_6StringE@Base 3.2.1
 _ZN8casacore16SSMStringHandler7replaceEiiiiRKNS_5ArrayINS_6StringEEEb@Base 3.2.1
 _ZN8casacore16SSMStringHandler7replaceEiiiiRKNS_9IPositionE@Base 3.2.1
 _ZN8casacore16SSMStringHandler8getShapeERNS_9IPositionEiRii@Base 3.2.1
 _ZN8casacore16SSMStringHandler8putShapeERiS1_S1_RKNS_9IPositionE@Base 3.2.1
 _ZN8casacore16SSMStringHandler9getBucketEjb@Base 3.2.1
 _ZN8casacore16SSMStringHandlerC1EPNS_7SSMBaseE@Base 3.2.1
 _ZN8casacore16SSMStringHandlerC2EPNS_7SSMBaseE@Base 3.2.1
 _ZN8casacore16SSMStringHandlerD1Ev@Base 3.2.1
 _ZN8casacore16SSMStringHandlerD2Ev@Base 3.2.1
 _ZN8casacore16ScalarColumnDataINS_6StringEE10initializeEjj@Base 3.2.1
 _ZN8casacore16ScalarColumnDataINS_6StringEE11freeIterBufERPvS4_@Base 3.2.1
 _ZN8casacore16ScalarColumnDataINS_6StringEE11freeSortKeyERPKv@Base 3.2.1
 _ZN8casacore16ScalarColumnDataINS_6StringEE11makeSortKeyERNS_4SortERNS_10CountedPtrINS_11BaseCompareEEEiRPKv@Base 3.2.1
 _ZN8casacore16ScalarColumnDataINS_6StringEE12allocIterBufERPvS4_RNS_10CountedPtrINS_11BaseCompareEEE@Base 3.2.1
 _ZN8casacore16ScalarColumnDataINS_6StringEE14getFileDerivedERNS_6AipsIOERKNS_9ColumnSetE@Base 3.2.1
 _ZN8casacore16ScalarColumnDataINS_6StringEE14makeRefSortKeyERNS_4SortERNS_10CountedPtrINS_11BaseCompareEEEiRKNS_6VectorIjEERPKv@Base 3.2.1
 _ZN8casacore16ScalarColumnDataINS_6StringEE14putFileDerivedERNS_6AipsIOE@Base 3.2.1
 _ZN8casacore16ScalarColumnDataINS_6StringEE15putScalarColumnEPKv@Base 3.2.1
 _ZN8casacore16ScalarColumnDataINS_6StringEE20putScalarColumnCellsERKNS_7RefRowsEPKv@Base 3.2.1
 _ZN8casacore16ScalarColumnDataINS_6StringEE23createDataManagerColumnEv@Base 3.2.1
 _ZN8casacore16ScalarColumnDataINS_6StringEE3putEjPKv@Base 3.2.1
 _ZN8casacore16ScalarColumnDataINS_6StringEED0Ev@Base 3.2.1
 _ZN8casacore16ScalarColumnDataINS_6StringEED1Ev@Base 3.2.1
 _ZN8casacore16ScalarColumnDataINS_6StringEED2Ev@Base 3.2.1
 _ZN8casacore16ScalarColumnDataISt7complexIdEE10initializeEjj@Base 3.2.1
 _ZN8casacore16ScalarColumnDataISt7complexIdEE11freeIterBufERPvS5_@Base 3.2.1
 _ZN8casacore16ScalarColumnDataISt7complexIdEE11freeSortKeyERPKv@Base 3.2.1
 _ZN8casacore16ScalarColumnDataISt7complexIdEE11makeSortKeyERNS_4SortERNS_10CountedPtrINS_11BaseCompareEEEiRPKv@Base 3.2.1
 _ZN8casacore16ScalarColumnDataISt7complexIdEE12allocIterBufERPvS5_RNS_10CountedPtrINS_11BaseCompareEEE@Base 3.2.1
 _ZN8casacore16ScalarColumnDataISt7complexIdEE14getFileDerivedERNS_6AipsIOERKNS_9ColumnSetE@Base 3.2.1
 _ZN8casacore16ScalarColumnDataISt7complexIdEE14makeRefSortKeyERNS_4SortERNS_10CountedPtrINS_11BaseCompareEEEiRKNS_6VectorIjEERPKv@Base 3.2.1
 _ZN8casacore16ScalarColumnDataISt7complexIdEE14putFileDerivedERNS_6AipsIOE@Base 3.2.1
 _ZN8casacore16ScalarColumnDataISt7complexIdEE15putScalarColumnEPKv@Base 3.2.1
 _ZN8casacore16ScalarColumnDataISt7complexIdEE20putScalarColumnCellsERKNS_7RefRowsEPKv@Base 3.2.1
 _ZN8casacore16ScalarColumnDataISt7complexIdEE23createDataManagerColumnEv@Base 3.2.1
 _ZN8casacore16ScalarColumnDataISt7complexIdEE3putEjPKv@Base 3.2.1
 _ZN8casacore16ScalarColumnDataISt7complexIdEED0Ev@Base 3.2.1
 _ZN8casacore16ScalarColumnDataISt7complexIdEED1Ev@Base 3.2.1
 _ZN8casacore16ScalarColumnDataISt7complexIdEED2Ev@Base 3.2.1
 _ZN8casacore16ScalarColumnDataISt7complexIfEE10initializeEjj@Base 3.2.1
 _ZN8casacore16ScalarColumnDataISt7complexIfEE11freeIterBufERPvS5_@Base 3.2.1
 _ZN8casacore16ScalarColumnDataISt7complexIfEE11freeSortKeyERPKv@Base 3.2.1
 _ZN8casacore16ScalarColumnDataISt7complexIfEE11makeSortKeyERNS_4SortERNS_10CountedPtrINS_11BaseCompareEEEiRPKv@Base 3.2.1
 _ZN8casacore16ScalarColumnDataISt7complexIfEE12allocIterBufERPvS5_RNS_10CountedPtrINS_11BaseCompareEEE@Base 3.2.1
 _ZN8casacore16ScalarColumnDataISt7complexIfEE14getFileDerivedERNS_6AipsIOERKNS_9ColumnSetE@Base 3.2.1
 _ZN8casacore16ScalarColumnDataISt7complexIfEE14makeRefSortKeyERNS_4SortERNS_10CountedPtrINS_11BaseCompareEEEiRKNS_6VectorIjEERPKv@Base 3.2.1
 _ZN8casacore16ScalarColumnDataISt7complexIfEE14putFileDerivedERNS_6AipsIOE@Base 3.2.1
 _ZN8casacore16ScalarColumnDataISt7complexIfEE15putScalarColumnEPKv@Base 3.2.1
 _ZN8casacore16ScalarColumnDataISt7complexIfEE20putScalarColumnCellsERKNS_7RefRowsEPKv@Base 3.2.1
 _ZN8casacore16ScalarColumnDataISt7complexIfEE23createDataManagerColumnEv@Base 3.2.1
 _ZN8casacore16ScalarColumnDataISt7complexIfEE3putEjPKv@Base 3.2.1
 _ZN8casacore16ScalarColumnDataISt7complexIfEED0Ev@Base 3.2.1
 _ZN8casacore16ScalarColumnDataISt7complexIfEED1Ev@Base 3.2.1
 _ZN8casacore16ScalarColumnDataISt7complexIfEED2Ev@Base 3.2.1
 _ZN8casacore16ScalarColumnDataIbE10initializeEjj@Base 3.2.1
 _ZN8casacore16ScalarColumnDataIbE11freeIterBufERPvS3_@Base 3.2.1
 _ZN8casacore16ScalarColumnDataIbE11freeSortKeyERPKv@Base 3.2.1
 _ZN8casacore16ScalarColumnDataIbE11makeSortKeyERNS_4SortERNS_10CountedPtrINS_11BaseCompareEEEiRPKv@Base 3.2.1
 _ZN8casacore16ScalarColumnDataIbE12allocIterBufERPvS3_RNS_10CountedPtrINS_11BaseCompareEEE@Base 3.2.1
 _ZN8casacore16ScalarColumnDataIbE14getFileDerivedERNS_6AipsIOERKNS_9ColumnSetE@Base 3.2.1
 _ZN8casacore16ScalarColumnDataIbE14makeRefSortKeyERNS_4SortERNS_10CountedPtrINS_11BaseCompareEEEiRKNS_6VectorIjEERPKv@Base 3.2.1
 _ZN8casacore16ScalarColumnDataIbE14putFileDerivedERNS_6AipsIOE@Base 3.2.1
 _ZN8casacore16ScalarColumnDataIbE15putScalarColumnEPKv@Base 3.2.1
 _ZN8casacore16ScalarColumnDataIbE20putScalarColumnCellsERKNS_7RefRowsEPKv@Base 3.2.1
 _ZN8casacore16ScalarColumnDataIbE23createDataManagerColumnEv@Base 3.2.1
 _ZN8casacore16ScalarColumnDataIbE3putEjPKv@Base 3.2.1
 _ZN8casacore16ScalarColumnDataIbED0Ev@Base 3.2.1
 _ZN8casacore16ScalarColumnDataIbED1Ev@Base 3.2.1
 _ZN8casacore16ScalarColumnDataIbED2Ev@Base 3.2.1
 _ZN8casacore16ScalarColumnDataIcE10initializeEjj@Base 3.2.1
 _ZN8casacore16ScalarColumnDataIcE11freeIterBufERPvS3_@Base 3.2.1
 _ZN8casacore16ScalarColumnDataIcE11freeSortKeyERPKv@Base 3.2.1
 _ZN8casacore16ScalarColumnDataIcE11makeSortKeyERNS_4SortERNS_10CountedPtrINS_11BaseCompareEEEiRPKv@Base 3.2.1
 _ZN8casacore16ScalarColumnDataIcE12allocIterBufERPvS3_RNS_10CountedPtrINS_11BaseCompareEEE@Base 3.2.1
 _ZN8casacore16ScalarColumnDataIcE14getFileDerivedERNS_6AipsIOERKNS_9ColumnSetE@Base 3.2.1
 _ZN8casacore16ScalarColumnDataIcE14makeRefSortKeyERNS_4SortERNS_10CountedPtrINS_11BaseCompareEEEiRKNS_6VectorIjEERPKv@Base 3.2.1
 _ZN8casacore16ScalarColumnDataIcE14putFileDerivedERNS_6AipsIOE@Base 3.2.1
 _ZN8casacore16ScalarColumnDataIcE15putScalarColumnEPKv@Base 3.2.1
 _ZN8casacore16ScalarColumnDataIcE20putScalarColumnCellsERKNS_7RefRowsEPKv@Base 3.2.1
 _ZN8casacore16ScalarColumnDataIcE23createDataManagerColumnEv@Base 3.2.1
 _ZN8casacore16ScalarColumnDataIcE3putEjPKv@Base 3.2.1
 _ZN8casacore16ScalarColumnDataIcED0Ev@Base 3.2.1
 _ZN8casacore16ScalarColumnDataIcED1Ev@Base 3.2.1
 _ZN8casacore16ScalarColumnDataIcED2Ev@Base 3.2.1
 _ZN8casacore16ScalarColumnDataIdE10initializeEjj@Base 3.2.1
 _ZN8casacore16ScalarColumnDataIdE11freeIterBufERPvS3_@Base 3.2.1
 _ZN8casacore16ScalarColumnDataIdE11freeSortKeyERPKv@Base 3.2.1
 _ZN8casacore16ScalarColumnDataIdE11makeSortKeyERNS_4SortERNS_10CountedPtrINS_11BaseCompareEEEiRPKv@Base 3.2.1
 _ZN8casacore16ScalarColumnDataIdE12allocIterBufERPvS3_RNS_10CountedPtrINS_11BaseCompareEEE@Base 3.2.1
 _ZN8casacore16ScalarColumnDataIdE14getFileDerivedERNS_6AipsIOERKNS_9ColumnSetE@Base 3.2.1
 _ZN8casacore16ScalarColumnDataIdE14makeRefSortKeyERNS_4SortERNS_10CountedPtrINS_11BaseCompareEEEiRKNS_6VectorIjEERPKv@Base 3.2.1
 _ZN8casacore16ScalarColumnDataIdE14putFileDerivedERNS_6AipsIOE@Base 3.2.1
 _ZN8casacore16ScalarColumnDataIdE15putScalarColumnEPKv@Base 3.2.1
 _ZN8casacore16ScalarColumnDataIdE20putScalarColumnCellsERKNS_7RefRowsEPKv@Base 3.2.1
 _ZN8casacore16ScalarColumnDataIdE23createDataManagerColumnEv@Base 3.2.1
 _ZN8casacore16ScalarColumnDataIdE3putEjPKv@Base 3.2.1
 _ZN8casacore16ScalarColumnDataIdED0Ev@Base 3.2.1
 _ZN8casacore16ScalarColumnDataIdED1Ev@Base 3.2.1
 _ZN8casacore16ScalarColumnDataIdED2Ev@Base 3.2.1
 _ZN8casacore16ScalarColumnDataIfE10initializeEjj@Base 3.2.1
 _ZN8casacore16ScalarColumnDataIfE11freeIterBufERPvS3_@Base 3.2.1
 _ZN8casacore16ScalarColumnDataIfE11freeSortKeyERPKv@Base 3.2.1
 _ZN8casacore16ScalarColumnDataIfE11makeSortKeyERNS_4SortERNS_10CountedPtrINS_11BaseCompareEEEiRPKv@Base 3.2.1
 _ZN8casacore16ScalarColumnDataIfE12allocIterBufERPvS3_RNS_10CountedPtrINS_11BaseCompareEEE@Base 3.2.1
 _ZN8casacore16ScalarColumnDataIfE14getFileDerivedERNS_6AipsIOERKNS_9ColumnSetE@Base 3.2.1
 _ZN8casacore16ScalarColumnDataIfE14makeRefSortKeyERNS_4SortERNS_10CountedPtrINS_11BaseCompareEEEiRKNS_6VectorIjEERPKv@Base 3.2.1
 _ZN8casacore16ScalarColumnDataIfE14putFileDerivedERNS_6AipsIOE@Base 3.2.1
 _ZN8casacore16ScalarColumnDataIfE15putScalarColumnEPKv@Base 3.2.1
 _ZN8casacore16ScalarColumnDataIfE20putScalarColumnCellsERKNS_7RefRowsEPKv@Base 3.2.1
 _ZN8casacore16ScalarColumnDataIfE23createDataManagerColumnEv@Base 3.2.1
 _ZN8casacore16ScalarColumnDataIfE3putEjPKv@Base 3.2.1
 _ZN8casacore16ScalarColumnDataIfED0Ev@Base 3.2.1
 _ZN8casacore16ScalarColumnDataIfED1Ev@Base 3.2.1
 _ZN8casacore16ScalarColumnDataIfED2Ev@Base 3.2.1
 _ZN8casacore16ScalarColumnDataIhE10initializeEjj@Base 3.2.1
 _ZN8casacore16ScalarColumnDataIhE11freeIterBufERPvS3_@Base 3.2.1
 _ZN8casacore16ScalarColumnDataIhE11freeSortKeyERPKv@Base 3.2.1
 _ZN8casacore16ScalarColumnDataIhE11makeSortKeyERNS_4SortERNS_10CountedPtrINS_11BaseCompareEEEiRPKv@Base 3.2.1
 _ZN8casacore16ScalarColumnDataIhE12allocIterBufERPvS3_RNS_10CountedPtrINS_11BaseCompareEEE@Base 3.2.1
 _ZN8casacore16ScalarColumnDataIhE14getFileDerivedERNS_6AipsIOERKNS_9ColumnSetE@Base 3.2.1
 _ZN8casacore16ScalarColumnDataIhE14makeRefSortKeyERNS_4SortERNS_10CountedPtrINS_11BaseCompareEEEiRKNS_6VectorIjEERPKv@Base 3.2.1
 _ZN8casacore16ScalarColumnDataIhE14putFileDerivedERNS_6AipsIOE@Base 3.2.1
 _ZN8casacore16ScalarColumnDataIhE15putScalarColumnEPKv@Base 3.2.1
 _ZN8casacore16ScalarColumnDataIhE20putScalarColumnCellsERKNS_7RefRowsEPKv@Base 3.2.1
 _ZN8casacore16ScalarColumnDataIhE23createDataManagerColumnEv@Base 3.2.1
 _ZN8casacore16ScalarColumnDataIhE3putEjPKv@Base 3.2.1
 _ZN8casacore16ScalarColumnDataIhED0Ev@Base 3.2.1
 _ZN8casacore16ScalarColumnDataIhED1Ev@Base 3.2.1
 _ZN8casacore16ScalarColumnDataIhED2Ev@Base 3.2.1
 _ZN8casacore16ScalarColumnDataIiE10initializeEjj@Base 3.2.1
 _ZN8casacore16ScalarColumnDataIiE11freeIterBufERPvS3_@Base 3.2.1
 _ZN8casacore16ScalarColumnDataIiE11freeSortKeyERPKv@Base 3.2.1
 _ZN8casacore16ScalarColumnDataIiE11makeSortKeyERNS_4SortERNS_10CountedPtrINS_11BaseCompareEEEiRPKv@Base 3.2.1
 _ZN8casacore16ScalarColumnDataIiE12allocIterBufERPvS3_RNS_10CountedPtrINS_11BaseCompareEEE@Base 3.2.1
 _ZN8casacore16ScalarColumnDataIiE14getFileDerivedERNS_6AipsIOERKNS_9ColumnSetE@Base 3.2.1
 _ZN8casacore16ScalarColumnDataIiE14makeRefSortKeyERNS_4SortERNS_10CountedPtrINS_11BaseCompareEEEiRKNS_6VectorIjEERPKv@Base 3.2.1
 _ZN8casacore16ScalarColumnDataIiE14putFileDerivedERNS_6AipsIOE@Base 3.2.1
 _ZN8casacore16ScalarColumnDataIiE15putScalarColumnEPKv@Base 3.2.1
 _ZN8casacore16ScalarColumnDataIiE20putScalarColumnCellsERKNS_7RefRowsEPKv@Base 3.2.1
 _ZN8casacore16ScalarColumnDataIiE23createDataManagerColumnEv@Base 3.2.1
 _ZN8casacore16ScalarColumnDataIiE3putEjPKv@Base 3.2.1
 _ZN8casacore16ScalarColumnDataIiED0Ev@Base 3.2.1
 _ZN8casacore16ScalarColumnDataIiED1Ev@Base 3.2.1
 _ZN8casacore16ScalarColumnDataIiED2Ev@Base 3.2.1
 _ZN8casacore16ScalarColumnDataIjE10initializeEjj@Base 3.2.1
 _ZN8casacore16ScalarColumnDataIjE11freeIterBufERPvS3_@Base 3.2.1
 _ZN8casacore16ScalarColumnDataIjE11freeSortKeyERPKv@Base 3.2.1
 _ZN8casacore16ScalarColumnDataIjE11makeSortKeyERNS_4SortERNS_10CountedPtrINS_11BaseCompareEEEiRPKv@Base 3.2.1
 _ZN8casacore16ScalarColumnDataIjE12allocIterBufERPvS3_RNS_10CountedPtrINS_11BaseCompareEEE@Base 3.2.1
 _ZN8casacore16ScalarColumnDataIjE14getFileDerivedERNS_6AipsIOERKNS_9ColumnSetE@Base 3.2.1
 _ZN8casacore16ScalarColumnDataIjE14makeRefSortKeyERNS_4SortERNS_10CountedPtrINS_11BaseCompareEEEiRKNS_6VectorIjEERPKv@Base 3.2.1
 _ZN8casacore16ScalarColumnDataIjE14putFileDerivedERNS_6AipsIOE@Base 3.2.1
 _ZN8casacore16ScalarColumnDataIjE15putScalarColumnEPKv@Base 3.2.1
 _ZN8casacore16ScalarColumnDataIjE20putScalarColumnCellsERKNS_7RefRowsEPKv@Base 3.2.1
 _ZN8casacore16ScalarColumnDataIjE23createDataManagerColumnEv@Base 3.2.1
 _ZN8casacore16ScalarColumnDataIjE3putEjPKv@Base 3.2.1
 _ZN8casacore16ScalarColumnDataIjED0Ev@Base 3.2.1
 _ZN8casacore16ScalarColumnDataIjED1Ev@Base 3.2.1
 _ZN8casacore16ScalarColumnDataIjED2Ev@Base 3.2.1
 _ZN8casacore16ScalarColumnDataIsE10initializeEjj@Base 3.2.1
 _ZN8casacore16ScalarColumnDataIsE11freeIterBufERPvS3_@Base 3.2.1
 _ZN8casacore16ScalarColumnDataIsE11freeSortKeyERPKv@Base 3.2.1
 _ZN8casacore16ScalarColumnDataIsE11makeSortKeyERNS_4SortERNS_10CountedPtrINS_11BaseCompareEEEiRPKv@Base 3.2.1
 _ZN8casacore16ScalarColumnDataIsE12allocIterBufERPvS3_RNS_10CountedPtrINS_11BaseCompareEEE@Base 3.2.1
 _ZN8casacore16ScalarColumnDataIsE14getFileDerivedERNS_6AipsIOERKNS_9ColumnSetE@Base 3.2.1
 _ZN8casacore16ScalarColumnDataIsE14makeRefSortKeyERNS_4SortERNS_10CountedPtrINS_11BaseCompareEEEiRKNS_6VectorIjEERPKv@Base 3.2.1
 _ZN8casacore16ScalarColumnDataIsE14putFileDerivedERNS_6AipsIOE@Base 3.2.1
 _ZN8casacore16ScalarColumnDataIsE15putScalarColumnEPKv@Base 3.2.1
 _ZN8casacore16ScalarColumnDataIsE20putScalarColumnCellsERKNS_7RefRowsEPKv@Base 3.2.1
 _ZN8casacore16ScalarColumnDataIsE23createDataManagerColumnEv@Base 3.2.1
 _ZN8casacore16ScalarColumnDataIsE3putEjPKv@Base 3.2.1
 _ZN8casacore16ScalarColumnDataIsED0Ev@Base 3.2.1
 _ZN8casacore16ScalarColumnDataIsED1Ev@Base 3.2.1
 _ZN8casacore16ScalarColumnDataIsED2Ev@Base 3.2.1
 _ZN8casacore16ScalarColumnDataItE10initializeEjj@Base 3.2.1
 _ZN8casacore16ScalarColumnDataItE11freeIterBufERPvS3_@Base 3.2.1
 _ZN8casacore16ScalarColumnDataItE11freeSortKeyERPKv@Base 3.2.1
 _ZN8casacore16ScalarColumnDataItE11makeSortKeyERNS_4SortERNS_10CountedPtrINS_11BaseCompareEEEiRPKv@Base 3.2.1
 _ZN8casacore16ScalarColumnDataItE12allocIterBufERPvS3_RNS_10CountedPtrINS_11BaseCompareEEE@Base 3.2.1
 _ZN8casacore16ScalarColumnDataItE14getFileDerivedERNS_6AipsIOERKNS_9ColumnSetE@Base 3.2.1
 _ZN8casacore16ScalarColumnDataItE14makeRefSortKeyERNS_4SortERNS_10CountedPtrINS_11BaseCompareEEEiRKNS_6VectorIjEERPKv@Base 3.2.1
 _ZN8casacore16ScalarColumnDataItE14putFileDerivedERNS_6AipsIOE@Base 3.2.1
 _ZN8casacore16ScalarColumnDataItE15putScalarColumnEPKv@Base 3.2.1
 _ZN8casacore16ScalarColumnDataItE20putScalarColumnCellsERKNS_7RefRowsEPKv@Base 3.2.1
 _ZN8casacore16ScalarColumnDataItE23createDataManagerColumnEv@Base 3.2.1
 _ZN8casacore16ScalarColumnDataItE3putEjPKv@Base 3.2.1
 _ZN8casacore16ScalarColumnDataItED0Ev@Base 3.2.1
 _ZN8casacore16ScalarColumnDataItED1Ev@Base 3.2.1
 _ZN8casacore16ScalarColumnDataItED2Ev@Base 3.2.1
 _ZN8casacore16ScalarColumnDataIxE10initializeEjj@Base 3.2.1
 _ZN8casacore16ScalarColumnDataIxE11freeIterBufERPvS3_@Base 3.2.1
 _ZN8casacore16ScalarColumnDataIxE11freeSortKeyERPKv@Base 3.2.1
 _ZN8casacore16ScalarColumnDataIxE11makeSortKeyERNS_4SortERNS_10CountedPtrINS_11BaseCompareEEEiRPKv@Base 3.2.1
 _ZN8casacore16ScalarColumnDataIxE12allocIterBufERPvS3_RNS_10CountedPtrINS_11BaseCompareEEE@Base 3.2.1
 _ZN8casacore16ScalarColumnDataIxE14getFileDerivedERNS_6AipsIOERKNS_9ColumnSetE@Base 3.2.1
 _ZN8casacore16ScalarColumnDataIxE14makeRefSortKeyERNS_4SortERNS_10CountedPtrINS_11BaseCompareEEEiRKNS_6VectorIjEERPKv@Base 3.2.1
 _ZN8casacore16ScalarColumnDataIxE14putFileDerivedERNS_6AipsIOE@Base 3.2.1
 _ZN8casacore16ScalarColumnDataIxE15putScalarColumnEPKv@Base 3.2.1
 _ZN8casacore16ScalarColumnDataIxE20putScalarColumnCellsERKNS_7RefRowsEPKv@Base 3.2.1
 _ZN8casacore16ScalarColumnDataIxE23createDataManagerColumnEv@Base 3.2.1
 _ZN8casacore16ScalarColumnDataIxE3putEjPKv@Base 3.2.1
 _ZN8casacore16ScalarColumnDataIxED0Ev@Base 3.2.1
 _ZN8casacore16ScalarColumnDataIxED1Ev@Base 3.2.1
 _ZN8casacore16ScalarColumnDataIxED2Ev@Base 3.2.1
 _ZN8casacore16ScalarColumnDescINS_6StringEE10setDefaultERKS1_@Base 3.2.1
 _ZN8casacore16ScalarColumnDescINS_6StringEE7getDescERNS_6AipsIOE@Base 3.2.1
 _ZN8casacore16ScalarColumnDescINS_6StringEE8makeDescERKS1_@Base 3.2.1
 _ZN8casacore16ScalarColumnDescINS_6StringEEC1ERKS1_S4_S4_S4_S4_i@Base 3.2.1
 _ZN8casacore16ScalarColumnDescINS_6StringEEC1ERKS1_S4_S4_S4_i@Base 3.2.1
 _ZN8casacore16ScalarColumnDescINS_6StringEEC1ERKS1_S4_i@Base 3.2.1
 _ZN8casacore16ScalarColumnDescINS_6StringEEC1ERKS1_i@Base 3.2.1
 _ZN8casacore16ScalarColumnDescINS_6StringEEC1ERKS2_@Base 3.2.1
 _ZN8casacore16ScalarColumnDescINS_6StringEEC2ERKS1_S4_S4_S4_S4_i@Base 3.2.1
 _ZN8casacore16ScalarColumnDescINS_6StringEEC2ERKS1_S4_S4_S4_i@Base 3.2.1
 _ZN8casacore16ScalarColumnDescINS_6StringEEC2ERKS1_S4_i@Base 3.2.1
 _ZN8casacore16ScalarColumnDescINS_6StringEEC2ERKS1_i@Base 3.2.1
 _ZN8casacore16ScalarColumnDescINS_6StringEEC2ERKS2_@Base 3.2.1
 _ZN8casacore16ScalarColumnDescINS_6StringEED0Ev@Base 3.2.1
 _ZN8casacore16ScalarColumnDescINS_6StringEED1Ev@Base 3.2.1
 _ZN8casacore16ScalarColumnDescINS_6StringEED2Ev@Base 3.2.1
 _ZN8casacore16ScalarColumnDescINS_6StringEEaSERKS2_@Base 3.2.1
 _ZN8casacore16ScalarColumnDescISt7complexIdEE10setDefaultERKS2_@Base 3.2.1
 _ZN8casacore16ScalarColumnDescISt7complexIdEE7getDescERNS_6AipsIOE@Base 3.2.1
 _ZN8casacore16ScalarColumnDescISt7complexIdEE8makeDescERKNS_6StringE@Base 3.2.1
 _ZN8casacore16ScalarColumnDescISt7complexIdEEC1ERKNS_6StringES6_S6_S6_RKS2_i@Base 3.2.1
 _ZN8casacore16ScalarColumnDescISt7complexIdEEC1ERKNS_6StringES6_S6_S6_i@Base 3.2.1
 _ZN8casacore16ScalarColumnDescISt7complexIdEEC1ERKNS_6StringES6_i@Base 3.2.1
 _ZN8casacore16ScalarColumnDescISt7complexIdEEC1ERKNS_6StringEi@Base 3.2.1
 _ZN8casacore16ScalarColumnDescISt7complexIdEEC1ERKS3_@Base 3.2.1
 _ZN8casacore16ScalarColumnDescISt7complexIdEEC2ERKNS_6StringES6_S6_S6_RKS2_i@Base 3.2.1
 _ZN8casacore16ScalarColumnDescISt7complexIdEEC2ERKNS_6StringES6_S6_S6_i@Base 3.2.1
 _ZN8casacore16ScalarColumnDescISt7complexIdEEC2ERKNS_6StringES6_i@Base 3.2.1
 _ZN8casacore16ScalarColumnDescISt7complexIdEEC2ERKNS_6StringEi@Base 3.2.1
 _ZN8casacore16ScalarColumnDescISt7complexIdEEC2ERKS3_@Base 3.2.1
 _ZN8casacore16ScalarColumnDescISt7complexIdEED0Ev@Base 3.2.1
 _ZN8casacore16ScalarColumnDescISt7complexIdEED1Ev@Base 3.2.1
 _ZN8casacore16ScalarColumnDescISt7complexIdEED2Ev@Base 3.2.1
 _ZN8casacore16ScalarColumnDescISt7complexIdEEaSERKS3_@Base 3.2.1
 _ZN8casacore16ScalarColumnDescISt7complexIfEE10setDefaultERKS2_@Base 3.2.1
 _ZN8casacore16ScalarColumnDescISt7complexIfEE7getDescERNS_6AipsIOE@Base 3.2.1
 _ZN8casacore16ScalarColumnDescISt7complexIfEE8makeDescERKNS_6StringE@Base 3.2.1
 _ZN8casacore16ScalarColumnDescISt7complexIfEEC1ERKNS_6StringES6_S6_S6_RKS2_i@Base 3.2.1
 _ZN8casacore16ScalarColumnDescISt7complexIfEEC1ERKNS_6StringES6_S6_S6_i@Base 3.2.1
 _ZN8casacore16ScalarColumnDescISt7complexIfEEC1ERKNS_6StringES6_i@Base 3.2.1
 _ZN8casacore16ScalarColumnDescISt7complexIfEEC1ERKNS_6StringEi@Base 3.2.1
 _ZN8casacore16ScalarColumnDescISt7complexIfEEC1ERKS3_@Base 3.2.1
 _ZN8casacore16ScalarColumnDescISt7complexIfEEC2ERKNS_6StringES6_S6_S6_RKS2_i@Base 3.2.1
 _ZN8casacore16ScalarColumnDescISt7complexIfEEC2ERKNS_6StringES6_S6_S6_i@Base 3.2.1
 _ZN8casacore16ScalarColumnDescISt7complexIfEEC2ERKNS_6StringES6_i@Base 3.2.1
 _ZN8casacore16ScalarColumnDescISt7complexIfEEC2ERKNS_6StringEi@Base 3.2.1
 _ZN8casacore16ScalarColumnDescISt7complexIfEEC2ERKS3_@Base 3.2.1
 _ZN8casacore16ScalarColumnDescISt7complexIfEED0Ev@Base 3.2.1
 _ZN8casacore16ScalarColumnDescISt7complexIfEED1Ev@Base 3.2.1
 _ZN8casacore16ScalarColumnDescISt7complexIfEED2Ev@Base 3.2.1
 _ZN8casacore16ScalarColumnDescISt7complexIfEEaSERKS3_@Base 3.2.1
 _ZN8casacore16ScalarColumnDescIbE10setDefaultERKb@Base 3.2.1
 _ZN8casacore16ScalarColumnDescIbE7getDescERNS_6AipsIOE@Base 3.2.1
 _ZN8casacore16ScalarColumnDescIbE8makeDescERKNS_6StringE@Base 3.2.1
 _ZN8casacore16ScalarColumnDescIbEC1ERKNS_6StringES4_S4_S4_RKbi@Base 3.2.1
 _ZN8casacore16ScalarColumnDescIbEC1ERKNS_6StringES4_S4_S4_i@Base 3.2.1
 _ZN8casacore16ScalarColumnDescIbEC1ERKNS_6StringES4_i@Base 3.2.1
 _ZN8casacore16ScalarColumnDescIbEC1ERKNS_6StringEi@Base 3.2.1
 _ZN8casacore16ScalarColumnDescIbEC1ERKS1_@Base 3.2.1
 _ZN8casacore16ScalarColumnDescIbEC2ERKNS_6StringES4_S4_S4_RKbi@Base 3.2.1
 _ZN8casacore16ScalarColumnDescIbEC2ERKNS_6StringES4_S4_S4_i@Base 3.2.1
 _ZN8casacore16ScalarColumnDescIbEC2ERKNS_6StringES4_i@Base 3.2.1
 _ZN8casacore16ScalarColumnDescIbEC2ERKNS_6StringEi@Base 3.2.1
 _ZN8casacore16ScalarColumnDescIbEC2ERKS1_@Base 3.2.1
 _ZN8casacore16ScalarColumnDescIbED0Ev@Base 3.2.1
 _ZN8casacore16ScalarColumnDescIbED1Ev@Base 3.2.1
 _ZN8casacore16ScalarColumnDescIbED2Ev@Base 3.2.1
 _ZN8casacore16ScalarColumnDescIbEaSERKS1_@Base 3.2.1
 _ZN8casacore16ScalarColumnDescIcE10setDefaultERKc@Base 3.2.1
 _ZN8casacore16ScalarColumnDescIcE7getDescERNS_6AipsIOE@Base 3.2.1
 _ZN8casacore16ScalarColumnDescIcE8makeDescERKNS_6StringE@Base 3.2.1
 _ZN8casacore16ScalarColumnDescIcEC1ERKNS_6StringES4_S4_S4_RKci@Base 3.2.1
 _ZN8casacore16ScalarColumnDescIcEC1ERKNS_6StringES4_S4_S4_i@Base 3.2.1
 _ZN8casacore16ScalarColumnDescIcEC1ERKNS_6StringES4_i@Base 3.2.1
 _ZN8casacore16ScalarColumnDescIcEC1ERKNS_6StringEi@Base 3.2.1
 _ZN8casacore16ScalarColumnDescIcEC1ERKS1_@Base 3.2.1
 _ZN8casacore16ScalarColumnDescIcEC2ERKNS_6StringES4_S4_S4_RKci@Base 3.2.1
 _ZN8casacore16ScalarColumnDescIcEC2ERKNS_6StringES4_S4_S4_i@Base 3.2.1
 _ZN8casacore16ScalarColumnDescIcEC2ERKNS_6StringES4_i@Base 3.2.1
 _ZN8casacore16ScalarColumnDescIcEC2ERKNS_6StringEi@Base 3.2.1
 _ZN8casacore16ScalarColumnDescIcEC2ERKS1_@Base 3.2.1
 _ZN8casacore16ScalarColumnDescIcED0Ev@Base 3.2.1
 _ZN8casacore16ScalarColumnDescIcED1Ev@Base 3.2.1
 _ZN8casacore16ScalarColumnDescIcED2Ev@Base 3.2.1
 _ZN8casacore16ScalarColumnDescIcEaSERKS1_@Base 3.2.1
 _ZN8casacore16ScalarColumnDescIdE10setDefaultERKd@Base 3.2.1
 _ZN8casacore16ScalarColumnDescIdE7getDescERNS_6AipsIOE@Base 3.2.1
 _ZN8casacore16ScalarColumnDescIdE8makeDescERKNS_6StringE@Base 3.2.1
 _ZN8casacore16ScalarColumnDescIdEC1ERKNS_6StringES4_S4_S4_RKdi@Base 3.2.1
 _ZN8casacore16ScalarColumnDescIdEC1ERKNS_6StringES4_S4_S4_i@Base 3.2.1
 _ZN8casacore16ScalarColumnDescIdEC1ERKNS_6StringES4_i@Base 3.2.1
 _ZN8casacore16ScalarColumnDescIdEC1ERKNS_6StringEi@Base 3.2.1
 _ZN8casacore16ScalarColumnDescIdEC1ERKS1_@Base 3.2.1
 _ZN8casacore16ScalarColumnDescIdEC2ERKNS_6StringES4_S4_S4_RKdi@Base 3.2.1
 _ZN8casacore16ScalarColumnDescIdEC2ERKNS_6StringES4_S4_S4_i@Base 3.2.1
 _ZN8casacore16ScalarColumnDescIdEC2ERKNS_6StringES4_i@Base 3.2.1
 _ZN8casacore16ScalarColumnDescIdEC2ERKNS_6StringEi@Base 3.2.1
 _ZN8casacore16ScalarColumnDescIdEC2ERKS1_@Base 3.2.1
 _ZN8casacore16ScalarColumnDescIdED0Ev@Base 3.2.1
 _ZN8casacore16ScalarColumnDescIdED1Ev@Base 3.2.1
 _ZN8casacore16ScalarColumnDescIdED2Ev@Base 3.2.1
 _ZN8casacore16ScalarColumnDescIdEaSERKS1_@Base 3.2.1
 _ZN8casacore16ScalarColumnDescIfE10setDefaultERKf@Base 3.2.1
 _ZN8casacore16ScalarColumnDescIfE7getDescERNS_6AipsIOE@Base 3.2.1
 _ZN8casacore16ScalarColumnDescIfE8makeDescERKNS_6StringE@Base 3.2.1
 _ZN8casacore16ScalarColumnDescIfEC1ERKNS_6StringES4_S4_S4_RKfi@Base 3.2.1
 _ZN8casacore16ScalarColumnDescIfEC1ERKNS_6StringES4_S4_S4_i@Base 3.2.1
 _ZN8casacore16ScalarColumnDescIfEC1ERKNS_6StringES4_i@Base 3.2.1
 _ZN8casacore16ScalarColumnDescIfEC1ERKNS_6StringEi@Base 3.2.1
 _ZN8casacore16ScalarColumnDescIfEC1ERKS1_@Base 3.2.1
 _ZN8casacore16ScalarColumnDescIfEC2ERKNS_6StringES4_S4_S4_RKfi@Base 3.2.1
 _ZN8casacore16ScalarColumnDescIfEC2ERKNS_6StringES4_S4_S4_i@Base 3.2.1
 _ZN8casacore16ScalarColumnDescIfEC2ERKNS_6StringES4_i@Base 3.2.1
 _ZN8casacore16ScalarColumnDescIfEC2ERKNS_6StringEi@Base 3.2.1
 _ZN8casacore16ScalarColumnDescIfEC2ERKS1_@Base 3.2.1
 _ZN8casacore16ScalarColumnDescIfED0Ev@Base 3.2.1
 _ZN8casacore16ScalarColumnDescIfED1Ev@Base 3.2.1
 _ZN8casacore16ScalarColumnDescIfED2Ev@Base 3.2.1
 _ZN8casacore16ScalarColumnDescIfEaSERKS1_@Base 3.2.1
 _ZN8casacore16ScalarColumnDescIhE7getDescERNS_6AipsIOE@Base 3.2.1
 _ZN8casacore16ScalarColumnDescIhE8makeDescERKNS_6StringE@Base 3.2.1
 _ZN8casacore16ScalarColumnDescIhEC1ERKNS_6StringES4_S4_S4_RKhi@Base 3.2.1
 _ZN8casacore16ScalarColumnDescIhEC1ERKNS_6StringEi@Base 3.2.1
 _ZN8casacore16ScalarColumnDescIhEC2ERKNS_6StringES4_S4_S4_RKhi@Base 3.2.1
 _ZN8casacore16ScalarColumnDescIhEC2ERKNS_6StringEi@Base 3.2.1
 _ZN8casacore16ScalarColumnDescIhED0Ev@Base 3.2.1
 _ZN8casacore16ScalarColumnDescIhED1Ev@Base 3.2.1
 _ZN8casacore16ScalarColumnDescIhED2Ev@Base 3.2.1
 _ZN8casacore16ScalarColumnDescIiE10setDefaultERKi@Base 3.2.1
 _ZN8casacore16ScalarColumnDescIiE7getDescERNS_6AipsIOE@Base 3.2.1
 _ZN8casacore16ScalarColumnDescIiE8makeDescERKNS_6StringE@Base 3.2.1
 _ZN8casacore16ScalarColumnDescIiEC1ERKNS_6StringES4_S4_S4_RKii@Base 3.2.1
 _ZN8casacore16ScalarColumnDescIiEC1ERKNS_6StringES4_S4_S4_i@Base 3.2.1
 _ZN8casacore16ScalarColumnDescIiEC1ERKNS_6StringES4_i@Base 3.2.1
 _ZN8casacore16ScalarColumnDescIiEC1ERKNS_6StringEi@Base 3.2.1
 _ZN8casacore16ScalarColumnDescIiEC1ERKS1_@Base 3.2.1
 _ZN8casacore16ScalarColumnDescIiEC2ERKNS_6StringES4_S4_S4_RKii@Base 3.2.1
 _ZN8casacore16ScalarColumnDescIiEC2ERKNS_6StringES4_S4_S4_i@Base 3.2.1
 _ZN8casacore16ScalarColumnDescIiEC2ERKNS_6StringES4_i@Base 3.2.1
 _ZN8casacore16ScalarColumnDescIiEC2ERKNS_6StringEi@Base 3.2.1
 _ZN8casacore16ScalarColumnDescIiEC2ERKS1_@Base 3.2.1
 _ZN8casacore16ScalarColumnDescIiED0Ev@Base 3.2.1
 _ZN8casacore16ScalarColumnDescIiED1Ev@Base 3.2.1
 _ZN8casacore16ScalarColumnDescIiED2Ev@Base 3.2.1
 _ZN8casacore16ScalarColumnDescIiEaSERKS1_@Base 3.2.1
 _ZN8casacore16ScalarColumnDescIjE10setDefaultERKj@Base 3.2.1
 _ZN8casacore16ScalarColumnDescIjE7getDescERNS_6AipsIOE@Base 3.2.1
 _ZN8casacore16ScalarColumnDescIjE8makeDescERKNS_6StringE@Base 3.2.1
 _ZN8casacore16ScalarColumnDescIjEC1ERKNS_6StringES4_S4_S4_RKji@Base 3.2.1
 _ZN8casacore16ScalarColumnDescIjEC1ERKNS_6StringES4_S4_S4_i@Base 3.2.1
 _ZN8casacore16ScalarColumnDescIjEC1ERKNS_6StringES4_i@Base 3.2.1
 _ZN8casacore16ScalarColumnDescIjEC1ERKNS_6StringEi@Base 3.2.1
 _ZN8casacore16ScalarColumnDescIjEC1ERKS1_@Base 3.2.1
 _ZN8casacore16ScalarColumnDescIjEC2ERKNS_6StringES4_S4_S4_RKji@Base 3.2.1
 _ZN8casacore16ScalarColumnDescIjEC2ERKNS_6StringES4_S4_S4_i@Base 3.2.1
 _ZN8casacore16ScalarColumnDescIjEC2ERKNS_6StringES4_i@Base 3.2.1
 _ZN8casacore16ScalarColumnDescIjEC2ERKNS_6StringEi@Base 3.2.1
 _ZN8casacore16ScalarColumnDescIjEC2ERKS1_@Base 3.2.1
 _ZN8casacore16ScalarColumnDescIjED0Ev@Base 3.2.1
 _ZN8casacore16ScalarColumnDescIjED1Ev@Base 3.2.1
 _ZN8casacore16ScalarColumnDescIjED2Ev@Base 3.2.1
 _ZN8casacore16ScalarColumnDescIjEaSERKS1_@Base 3.2.1
 _ZN8casacore16ScalarColumnDescIsE10setDefaultERKs@Base 3.2.1
 _ZN8casacore16ScalarColumnDescIsE7getDescERNS_6AipsIOE@Base 3.2.1
 _ZN8casacore16ScalarColumnDescIsE8makeDescERKNS_6StringE@Base 3.2.1
 _ZN8casacore16ScalarColumnDescIsEC1ERKNS_6StringES4_S4_S4_RKsi@Base 3.2.1
 _ZN8casacore16ScalarColumnDescIsEC1ERKNS_6StringES4_S4_S4_i@Base 3.2.1
 _ZN8casacore16ScalarColumnDescIsEC1ERKNS_6StringES4_i@Base 3.2.1
 _ZN8casacore16ScalarColumnDescIsEC1ERKNS_6StringEi@Base 3.2.1
 _ZN8casacore16ScalarColumnDescIsEC1ERKS1_@Base 3.2.1
 _ZN8casacore16ScalarColumnDescIsEC2ERKNS_6StringES4_S4_S4_RKsi@Base 3.2.1
 _ZN8casacore16ScalarColumnDescIsEC2ERKNS_6StringES4_S4_S4_i@Base 3.2.1
 _ZN8casacore16ScalarColumnDescIsEC2ERKNS_6StringES4_i@Base 3.2.1
 _ZN8casacore16ScalarColumnDescIsEC2ERKNS_6StringEi@Base 3.2.1
 _ZN8casacore16ScalarColumnDescIsEC2ERKS1_@Base 3.2.1
 _ZN8casacore16ScalarColumnDescIsED0Ev@Base 3.2.1
 _ZN8casacore16ScalarColumnDescIsED1Ev@Base 3.2.1
 _ZN8casacore16ScalarColumnDescIsED2Ev@Base 3.2.1
 _ZN8casacore16ScalarColumnDescIsEaSERKS1_@Base 3.2.1
 _ZN8casacore16ScalarColumnDescItE10setDefaultERKt@Base 3.2.1
 _ZN8casacore16ScalarColumnDescItE7getDescERNS_6AipsIOE@Base 3.2.1
 _ZN8casacore16ScalarColumnDescItE8makeDescERKNS_6StringE@Base 3.2.1
 _ZN8casacore16ScalarColumnDescItEC1ERKNS_6StringES4_S4_S4_RKti@Base 3.2.1
 _ZN8casacore16ScalarColumnDescItEC1ERKNS_6StringES4_S4_S4_i@Base 3.2.1
 _ZN8casacore16ScalarColumnDescItEC1ERKNS_6StringES4_i@Base 3.2.1
 _ZN8casacore16ScalarColumnDescItEC1ERKNS_6StringEi@Base 3.2.1
 _ZN8casacore16ScalarColumnDescItEC1ERKS1_@Base 3.2.1
 _ZN8casacore16ScalarColumnDescItEC2ERKNS_6StringES4_S4_S4_RKti@Base 3.2.1
 _ZN8casacore16ScalarColumnDescItEC2ERKNS_6StringES4_S4_S4_i@Base 3.2.1
 _ZN8casacore16ScalarColumnDescItEC2ERKNS_6StringES4_i@Base 3.2.1
 _ZN8casacore16ScalarColumnDescItEC2ERKNS_6StringEi@Base 3.2.1
 _ZN8casacore16ScalarColumnDescItEC2ERKS1_@Base 3.2.1
 _ZN8casacore16ScalarColumnDescItED0Ev@Base 3.2.1
 _ZN8casacore16ScalarColumnDescItED1Ev@Base 3.2.1
 _ZN8casacore16ScalarColumnDescItED2Ev@Base 3.2.1
 _ZN8casacore16ScalarColumnDescItEaSERKS1_@Base 3.2.1
 _ZN8casacore16ScalarColumnDescIxE10setDefaultERKx@Base 3.2.1
 _ZN8casacore16ScalarColumnDescIxE7getDescERNS_6AipsIOE@Base 3.2.1
 _ZN8casacore16ScalarColumnDescIxE8makeDescERKNS_6StringE@Base 3.2.1
 _ZN8casacore16ScalarColumnDescIxEC1ERKNS_6StringES4_S4_S4_RKxi@Base 3.2.1
 _ZN8casacore16ScalarColumnDescIxEC1ERKNS_6StringES4_S4_S4_i@Base 3.2.1
 _ZN8casacore16ScalarColumnDescIxEC1ERKNS_6StringES4_i@Base 3.2.1
 _ZN8casacore16ScalarColumnDescIxEC1ERKNS_6StringEi@Base 3.2.1
 _ZN8casacore16ScalarColumnDescIxEC1ERKS1_@Base 3.2.1
 _ZN8casacore16ScalarColumnDescIxEC2ERKNS_6StringES4_S4_S4_RKxi@Base 3.2.1
 _ZN8casacore16ScalarColumnDescIxEC2ERKNS_6StringES4_S4_S4_i@Base 3.2.1
 _ZN8casacore16ScalarColumnDescIxEC2ERKNS_6StringES4_i@Base 3.2.1
 _ZN8casacore16ScalarColumnDescIxEC2ERKNS_6StringEi@Base 3.2.1
 _ZN8casacore16ScalarColumnDescIxEC2ERKS1_@Base 3.2.1
 _ZN8casacore16ScalarColumnDescIxED0Ev@Base 3.2.1
 _ZN8casacore16ScalarColumnDescIxED1Ev@Base 3.2.1
 _ZN8casacore16ScalarColumnDescIxED2Ev@Base 3.2.1
 _ZN8casacore16ScalarColumnDescIxEaSERKS1_@Base 3.2.1
 _ZN8casacore16SetupNewTableRep10bindColumnERKNS_6StringERKNS_11DataManagerE@Base 3.2.1
 _ZN8casacore16SetupNewTableRep10bindColumnERKNS_6StringES3_@Base 3.2.1
 _ZN8casacore16SetupNewTableRep10bindCreateERKNS_6RecordE@Base 3.2.1
 _ZN8casacore16SetupNewTableRep13handleUnboundEv@Base 3.2.1
 _ZN8casacore16SetupNewTableRep14getDataManagerERKNS_11DataManagerE@Base 3.2.1
 _ZN8casacore16SetupNewTableRep14setShapeColumnERKNS_6StringERKNS_9IPositionE@Base 3.2.1
 _ZN8casacore16SetupNewTableRep5setupEv@Base 3.2.1
 _ZN8casacore16SetupNewTableRep7bindAllERKNS_11DataManagerEb@Base 3.2.1
 _ZN8casacore16SetupNewTableRep9bindGroupERKNS_6StringERKNS_11DataManagerEb@Base 3.2.1
 _ZN8casacore16SetupNewTableRepC1ERKNS_6StringERKNS_9TableDescENS_5Table11TableOptionERKNS_13StorageOptionE@Base 3.2.1
 _ZN8casacore16SetupNewTableRepC1ERKNS_6StringES3_NS_5Table11TableOptionERKNS_13StorageOptionE@Base 3.2.1
 _ZN8casacore16SetupNewTableRepC2ERKNS_6StringERKNS_9TableDescENS_5Table11TableOptionERKNS_13StorageOptionE@Base 3.2.1
 _ZN8casacore16SetupNewTableRepC2ERKNS_6StringES3_NS_5Table11TableOptionERKNS_13StorageOptionE@Base 3.2.1
 _ZN8casacore16SetupNewTableRepD1Ev@Base 3.2.1
 _ZN8casacore16SetupNewTableRepD2Ev@Base 3.2.1
 _ZN8casacore16TaQLConstNodeRep7restoreERNS_6AipsIOE@Base 3.2.1
 _ZN8casacore16TaQLConstNodeRepC1ERKNS_6MVTimeE@Base 3.2.1
 _ZN8casacore16TaQLConstNodeRepC1ERKNS_6StringEb@Base 3.2.1
 _ZN8casacore16TaQLConstNodeRepC1ESt7complexIdE@Base 3.2.1
 _ZN8casacore16TaQLConstNodeRepC1Eb@Base 3.2.1
 _ZN8casacore16TaQLConstNodeRepC1Ed@Base 3.2.1
 _ZN8casacore16TaQLConstNodeRepC1EdRKNS_6StringE@Base 3.2.1
 _ZN8casacore16TaQLConstNodeRepC1Ex@Base 3.2.1
 _ZN8casacore16TaQLConstNodeRepC1ExRKNS_6StringE@Base 3.2.1
 _ZN8casacore16TaQLConstNodeRepC2ERKNS_6MVTimeE@Base 3.2.1
 _ZN8casacore16TaQLConstNodeRepC2ERKNS_6StringEb@Base 3.2.1
 _ZN8casacore16TaQLConstNodeRepC2ESt7complexIdE@Base 3.2.1
 _ZN8casacore16TaQLConstNodeRepC2Eb@Base 3.2.1
 _ZN8casacore16TaQLConstNodeRepC2Ed@Base 3.2.1
 _ZN8casacore16TaQLConstNodeRepC2EdRKNS_6StringE@Base 3.2.1
 _ZN8casacore16TaQLConstNodeRepC2Ex@Base 3.2.1
 _ZN8casacore16TaQLConstNodeRepC2ExRKNS_6StringE@Base 3.2.1
 _ZN8casacore16TaQLConstNodeRepD0Ev@Base 3.2.1
 _ZN8casacore16TaQLConstNodeRepD1Ev@Base 3.2.1
 _ZN8casacore16TaQLConstNodeRepD2Ev@Base 3.2.1
 _ZN8casacore16TaQLCountNodeRep7restoreERNS_6AipsIOE@Base 3.2.1
 _ZN8casacore16TaQLCountNodeRepC1ERKNS_13TaQLMultiNodeERKNS_8TaQLNodeES3_S6_@Base 3.2.1
 _ZN8casacore16TaQLCountNodeRepC2ERKNS_13TaQLMultiNodeERKNS_8TaQLNodeES3_S6_@Base 3.2.1
 _ZN8casacore16TaQLCountNodeRepD0Ev@Base 3.2.1
 _ZN8casacore16TaQLCountNodeRepD1Ev@Base 3.2.1
 _ZN8casacore16TaQLCountNodeRepD2Ev@Base 3.2.1
 _ZN8casacore16TaQLGroupNodeRep7restoreERNS_6AipsIOE@Base 3.2.1
 _ZN8casacore16TaQLGroupNodeRepC1ENS0_4TypeERKNS_13TaQLMultiNodeE@Base 3.2.1
 _ZN8casacore16TaQLGroupNodeRepC2ENS0_4TypeERKNS_13TaQLMultiNodeE@Base 3.2.1
 _ZN8casacore16TaQLGroupNodeRepD0Ev@Base 3.2.1
 _ZN8casacore16TaQLGroupNodeRepD1Ev@Base 3.2.1
 _ZN8casacore16TaQLGroupNodeRepD2Ev@Base 3.2.1
 _ZN8casacore16TaQLIndexNodeRep7restoreERNS_6AipsIOE@Base 3.2.1
 _ZN8casacore16TaQLIndexNodeRepC1ERKNS_8TaQLNodeES3_S3_@Base 3.2.1
 _ZN8casacore16TaQLIndexNodeRepC2ERKNS_8TaQLNodeES3_S3_@Base 3.2.1
 _ZN8casacore16TaQLIndexNodeRepD0Ev@Base 3.2.1
 _ZN8casacore16TaQLIndexNodeRepD1Ev@Base 3.2.1
 _ZN8casacore16TaQLIndexNodeRepD2Ev@Base 3.2.1
 _ZN8casacore16TaQLMultiNodeRep7restoreERNS_6AipsIOE@Base 3.2.1
 _ZN8casacore16TaQLMultiNodeRepC1ERKNS_6StringES3_b@Base 3.2.1
 _ZN8casacore16TaQLMultiNodeRepC1Eb@Base 3.2.1
 _ZN8casacore16TaQLMultiNodeRepC2ERKNS_6StringES3_b@Base 3.2.1
 _ZN8casacore16TaQLMultiNodeRepC2Eb@Base 3.2.1
 _ZN8casacore16TaQLMultiNodeRepD0Ev@Base 3.2.1
 _ZN8casacore16TaQLMultiNodeRepD1Ev@Base 3.2.1
 _ZN8casacore16TaQLMultiNodeRepD2Ev@Base 3.2.1
 _ZN8casacore16TaQLQueryNodeRep12restoreSuperERNS_6AipsIOE@Base 3.2.1
 _ZN8casacore16TaQLQueryNodeRepC1Ei@Base 3.2.1
 _ZN8casacore16TaQLQueryNodeRepC2Ei@Base 3.2.1
 _ZN8casacore16TaQLQueryNodeRepD0Ev@Base 3.2.1
 _ZN8casacore16TaQLQueryNodeRepD1Ev@Base 3.2.1
 _ZN8casacore16TaQLQueryNodeRepD2Ev@Base 3.2.1
 _ZN8casacore16TaQLRangeNodeRep7restoreERNS_6AipsIOE@Base 3.2.1
 _ZN8casacore16TaQLRangeNodeRepC1ERKNS_8TaQLNodeEb@Base 3.2.1
 _ZN8casacore16TaQLRangeNodeRepC1EbNS_8TaQLNodeERKS1_b@Base 3.2.1
 _ZN8casacore16TaQLRangeNodeRepC1EbRKNS_8TaQLNodeE@Base 3.2.1
 _ZN8casacore16TaQLRangeNodeRepC2ERKNS_8TaQLNodeEb@Base 3.2.1
 _ZN8casacore16TaQLRangeNodeRepC2EbNS_8TaQLNodeERKS1_b@Base 3.2.1
 _ZN8casacore16TaQLRangeNodeRepC2EbRKNS_8TaQLNodeE@Base 3.2.1
 _ZN8casacore16TaQLRangeNodeRepD0Ev@Base 3.2.1
 _ZN8casacore16TaQLRangeNodeRepD1Ev@Base 3.2.1
 _ZN8casacore16TaQLRangeNodeRepD2Ev@Base 3.2.1
 _ZN8casacore16TaQLRegexNodeRep7restoreERNS_6AipsIOE@Base 3.2.1
 _ZN8casacore16TaQLRegexNodeRepC1ERKNS_6StringE@Base 3.2.1
 _ZN8casacore16TaQLRegexNodeRepC1ERKNS_6StringEbbbi@Base 3.2.1
 _ZN8casacore16TaQLRegexNodeRepC2ERKNS_6StringE@Base 3.2.1
 _ZN8casacore16TaQLRegexNodeRepC2ERKNS_6StringEbbbi@Base 3.2.1
 _ZN8casacore16TaQLRegexNodeRepD0Ev@Base 3.2.1
 _ZN8casacore16TaQLRegexNodeRepD1Ev@Base 3.2.1
 _ZN8casacore16TaQLRegexNodeRepD2Ev@Base 3.2.1
 _ZN8casacore16TaQLTableNodeRep7restoreERNS_6AipsIOE@Base 3.2.1
 _ZN8casacore16TaQLTableNodeRepC1ERKNS_8TaQLNodeERKNS_6StringE@Base 3.2.1
 _ZN8casacore16TaQLTableNodeRepC2ERKNS_8TaQLNodeERKNS_6StringE@Base 3.2.1
 _ZN8casacore16TaQLTableNodeRepD0Ev@Base 3.2.1
 _ZN8casacore16TaQLTableNodeRepD1Ev@Base 3.2.1
 _ZN8casacore16TaQLTableNodeRepD2Ev@Base 3.2.1
 _ZN8casacore16TaQLUnaryNodeRep7restoreERNS_6AipsIOE@Base 3.2.1
 _ZN8casacore16TaQLUnaryNodeRepC1ENS0_4TypeERKNS_8TaQLNodeE@Base 3.2.1
 _ZN8casacore16TaQLUnaryNodeRepC2ENS0_4TypeERKNS_8TaQLNodeE@Base 3.2.1
 _ZN8casacore16TaQLUnaryNodeRepD0Ev@Base 3.2.1
 _ZN8casacore16TaQLUnaryNodeRepD1Ev@Base 3.2.1
 _ZN8casacore16TaQLUnaryNodeRepD2Ev@Base 3.2.1
 _ZN8casacore16TableExprNodeAND6rangesERNS_5BlockINS_14TableExprRangeEEE@Base 3.2.1
 _ZN8casacore16TableExprNodeAND7getBoolERKNS_11TableExprIdE@Base 3.2.1
 _ZN8casacore16TableExprNodeANDC1ERKNS_16TableExprNodeRepE@Base 3.2.1
 _ZN8casacore16TableExprNodeANDC2ERKNS_16TableExprNodeRepE@Base 3.2.1
 _ZN8casacore16TableExprNodeANDD0Ev@Base 3.2.1
 _ZN8casacore16TableExprNodeANDD1Ev@Base 3.2.1
 _ZN8casacore16TableExprNodeANDD2Ev@Base 3.2.1
 _ZN8casacore16TableExprNodeMIN11getDComplexERKNS_11TableExprIdE@Base 3.2.1
 _ZN8casacore16TableExprNodeMIN6getIntERKNS_11TableExprIdE@Base 3.2.1
 _ZN8casacore16TableExprNodeMIN9getDoubleERKNS_11TableExprIdE@Base 3.2.1
 _ZN8casacore16TableExprNodeMINC1ERKNS_16TableExprNodeRepE@Base 3.2.1
 _ZN8casacore16TableExprNodeMINC2ERKNS_16TableExprNodeRepE@Base 3.2.1
 _ZN8casacore16TableExprNodeMIND0Ev@Base 3.2.1
 _ZN8casacore16TableExprNodeMIND1Ev@Base 3.2.1
 _ZN8casacore16TableExprNodeMIND2Ev@Base 3.2.1
 _ZN8casacore16TableExprNodeNOT7getBoolERKNS_11TableExprIdE@Base 3.2.1
 _ZN8casacore16TableExprNodeNOTC1ERKNS_16TableExprNodeRepE@Base 3.2.1
 _ZN8casacore16TableExprNodeNOTC2ERKNS_16TableExprNodeRepE@Base 3.2.1
 _ZN8casacore16TableExprNodeNOTD0Ev@Base 3.2.1
 _ZN8casacore16TableExprNodeNOTD1Ev@Base 3.2.1
 _ZN8casacore16TableExprNodeNOTD2Ev@Base 3.2.1
 _ZN8casacore16TableExprNodeRep10typeStringENS0_12NodeDataTypeE@Base 3.2.1
 _ZN8casacore16TableExprNodeRep10typeStringENS0_9ValueTypeE@Base 3.2.1
 _ZN8casacore16TableExprNodeRep11createRangeERNS_5BlockINS_14TableExprRangeEEE@Base 3.2.1
 _ZN8casacore16TableExprNodeRep11createRangeERNS_5BlockINS_14TableExprRangeEEEPNS_19TableExprNodeColumnEdd@Base 3.2.1
 _ZN8casacore16TableExprNodeRep11getArrayIntERKNS_11TableExprIdE@Base 3.2.1
 _ZN8casacore16TableExprNodeRep11getDComplexERKNS_11TableExprIdE@Base 3.2.1
 _ZN8casacore16TableExprNodeRep11getDoubleASERKNS_11TableExprIdE@Base 3.2.1
 _ZN8casacore16TableExprNodeRep11getStringASERKNS_11TableExprIdE@Base 3.2.1
 _ZN8casacore16TableExprNodeRep11hasArrayIntERKNS_11TableExprIdERKNS_6MArrayIxEE@Base 3.2.1
 _ZN8casacore16TableExprNodeRep11hasDComplexERKNS_11TableExprIdERKSt7complexIdE@Base 3.2.1
 _ZN8casacore16TableExprNodeRep12fillExprTypeERNS0_8ExprTypeERKNS_10CountedPtrIS0_EE@Base 3.2.1
 _ZN8casacore16TableExprNodeRep12getAggrNodesERSt6vectorIPS0_SaIS2_EE@Base 3.2.1
 _ZN8casacore16TableExprNodeRep12getArrayBoolERKNS_11TableExprIdE@Base 3.2.1
 _ZN8casacore16TableExprNodeRep12getArrayDateERKNS_11TableExprIdE@Base 3.2.1
 _ZN8casacore16TableExprNodeRep12getColumnIntERKNS_6VectorIjEE@Base 3.2.1
 _ZN8casacore16TableExprNodeRep12hasArrayBoolERKNS_11TableExprIdERKNS_6MArrayIbEE@Base 3.2.1
 _ZN8casacore16TableExprNodeRep12hasArrayDateERKNS_11TableExprIdERKNS_6MArrayINS_6MVTimeEEE@Base 3.2.1
 _ZN8casacore16TableExprNodeRep13adaptSetUnitsERKNS_4UnitE@Base 3.2.1
 _ZN8casacore16TableExprNodeRep13checkTablePtrERNS_5TableERKNS_10CountedPtrIS0_EE@Base 3.2.1
 _ZN8casacore16TableExprNodeRep13getColumnBoolERKNS_6VectorIjEE@Base 3.2.1
 _ZN8casacore16TableExprNodeRep13getColumnuIntERKNS_6VectorIjEE@Base 3.2.1
 _ZN8casacore16TableExprNodeRep13getDComplexASERKNS_11TableExprIdE@Base 3.2.1
 _ZN8casacore16TableExprNodeRep14applySelectionERKNS_6VectorIjEE@Base 3.2.1
 _ZN8casacore16TableExprNodeRep14checkAggrFuncsEv@Base 3.2.1
 _ZN8casacore16TableExprNodeRep14getArrayDoubleERKNS_11TableExprIdE@Base 3.2.1
 _ZN8casacore16TableExprNodeRep14getArrayStringERKNS_11TableExprIdE@Base 3.2.1
 _ZN8casacore16TableExprNodeRep14getColumnFloatERKNS_6VectorIjEE@Base 3.2.1
 _ZN8casacore16TableExprNodeRep14getColumnInt64ERKNS_6VectorIjEE@Base 3.2.1
 _ZN8casacore16TableExprNodeRep14getColumnNodesERSt6vectorIPS0_SaIS2_EE@Base 3.2.1
 _ZN8casacore16TableExprNodeRep14getColumnShortERKNS_6VectorIjEE@Base 3.2.1
 _ZN8casacore16TableExprNodeRep14getColumnuCharERKNS_6VectorIjEE@Base 3.2.1
 _ZN8casacore16TableExprNodeRep14hasArrayDoubleERKNS_11TableExprIdERKNS_6MArrayIdEE@Base 3.2.1
 _ZN8casacore16TableExprNodeRep14hasArrayStringERKNS_11TableExprIdERKNS_6MArrayINS_6StringEEE@Base 3.2.1
 _ZN8casacore16TableExprNodeRep15getColumnDoubleERKNS_6VectorIjEE@Base 3.2.1
 _ZN8casacore16TableExprNodeRep15getColumnStringERKNS_6VectorIjEE@Base 3.2.1
 _ZN8casacore16TableExprNodeRep15getColumnuShortERKNS_6VectorIjEE@Base 3.2.1
 _ZN8casacore16TableExprNodeRep16getArrayDComplexERKNS_11TableExprIdE@Base 3.2.1
 _ZN8casacore16TableExprNodeRep16getColumnComplexERKNS_6VectorIjEE@Base 3.2.1
 _ZN8casacore16TableExprNodeRep16hasArrayDComplexERKNS_11TableExprIdERKNS_6MArrayISt7complexIdEEE@Base 3.2.1
 _ZN8casacore16TableExprNodeRep16replaceConstNodeERKNS_10CountedPtrIS0_EE@Base 3.2.1
 _ZN8casacore16TableExprNodeRep17convertConstChildEv@Base 3.2.1
 _ZN8casacore16TableExprNodeRep17getColumnDComplexERKNS_6VectorIjEE@Base 3.2.1
 _ZN8casacore16TableExprNodeRep17makeGroupAggrFuncEv@Base 3.2.1
 _ZN8casacore16TableExprNodeRep21disableApplySelectionEv@Base 3.2.1
 _ZN8casacore16TableExprNodeRep5shapeERKNS_11TableExprIdE@Base 3.2.1
 _ZN8casacore16TableExprNodeRep6getIntERKNS_11TableExprIdE@Base 3.2.1
 _ZN8casacore16TableExprNodeRep6hasIntERKNS_11TableExprIdEx@Base 3.2.1
 _ZN8casacore16TableExprNodeRep6rangesERNS_5BlockINS_14TableExprRangeEEE@Base 3.2.1
 _ZN8casacore16TableExprNodeRep7getBoolERKNS_11TableExprIdE@Base 3.2.1
 _ZN8casacore16TableExprNodeRep7getDateERKNS_11TableExprIdE@Base 3.2.1
 _ZN8casacore16TableExprNodeRep7hasBoolERKNS_11TableExprIdEb@Base 3.2.1
 _ZN8casacore16TableExprNodeRep7hasDateERKNS_11TableExprIdERKNS_6MVTimeE@Base 3.2.1
 _ZN8casacore16TableExprNodeRep7setUnitERKNS_4UnitE@Base 3.2.1
 _ZN8casacore16TableExprNodeRep8getIntASERKNS_11TableExprIdE@Base 3.2.1
 _ZN8casacore16TableExprNodeRep8getRegexERKNS_11TableExprIdE@Base 3.2.1
 _ZN8casacore16TableExprNodeRep8getShapeERKNS_11TableExprIdE@Base 3.2.1
 _ZN8casacore16TableExprNodeRep9getBoolASERKNS_11TableExprIdE@Base 3.2.1
 _ZN8casacore16TableExprNodeRep9getDateASERKNS_11TableExprIdE@Base 3.2.1
 _ZN8casacore16TableExprNodeRep9getDoubleERKNS_11TableExprIdE@Base 3.2.1
 _ZN8casacore16TableExprNodeRep9getStringERKNS_11TableExprIdE@Base 3.2.1
 _ZN8casacore16TableExprNodeRep9hasDoubleERKNS_11TableExprIdEd@Base 3.2.1
 _ZN8casacore16TableExprNodeRep9hasStringERKNS_11TableExprIdERKNS_6StringE@Base 3.2.1
 _ZN8casacore16TableExprNodeRep9isDefinedERKNS_11TableExprIdE@Base 3.2.1
 _ZN8casacore16TableExprNodeRepC1ENS0_12NodeDataTypeENS0_9ValueTypeENS0_8OperTypeENS0_7ArgTypeENS0_8ExprTypeEiRKNS_9IPositionERKNS_5TableE@Base 3.2.1
 _ZN8casacore16TableExprNodeRepC1ENS0_12NodeDataTypeENS0_9ValueTypeENS0_8OperTypeERKNS_5TableE@Base 3.2.1
 _ZN8casacore16TableExprNodeRepC1ERKS0_@Base 3.2.1
 _ZN8casacore16TableExprNodeRepC2ENS0_12NodeDataTypeENS0_9ValueTypeENS0_8OperTypeENS0_7ArgTypeENS0_8ExprTypeEiRKNS_9IPositionERKNS_5TableE@Base 3.2.1
 _ZN8casacore16TableExprNodeRepC2ENS0_12NodeDataTypeENS0_9ValueTypeENS0_8OperTypeERKNS_5TableE@Base 3.2.1
 _ZN8casacore16TableExprNodeRepC2ERKS0_@Base 3.2.1
 _ZN8casacore16TableExprNodeRepD0Ev@Base 3.2.1
 _ZN8casacore16TableExprNodeRepD1Ev@Base 3.2.1
 _ZN8casacore16TableExprNodeRepD2Ev@Base 3.2.1
 _ZN8casacore16TableExprNodeSet11getArrayIntERKNS_11TableExprIdE@Base 3.2.1
 _ZN8casacore16TableExprNodeSet11hasArrayIntERKNS_11TableExprIdERKNS_6MArrayIxEE@Base 3.2.1
 _ZN8casacore16TableExprNodeSet11hasDComplexERKNS_11TableExprIdERKSt7complexIdE@Base 3.2.1
 _ZN8casacore16TableExprNodeSet11setFindFuncEbb@Base 3.2.1
 _ZN8casacore16TableExprNodeSet12findOpenOpenEd@Base 3.2.1
 _ZN8casacore16TableExprNodeSet12getAggrNodesERSt6vectorIPNS_16TableExprNodeRepESaIS3_EE@Base 3.2.1
 _ZN8casacore16TableExprNodeSet12getArrayBoolERKNS_11TableExprIdE@Base 3.2.1
 _ZN8casacore16TableExprNodeSet12getArrayDateERKNS_11TableExprIdE@Base 3.2.1
 _ZN8casacore16TableExprNodeSet12hasArrayBoolERKNS_11TableExprIdERKNS_6MArrayIbEE@Base 3.2.1
 _ZN8casacore16TableExprNodeSet12hasArrayDateERKNS_11TableExprIdERKNS_6MArrayINS_6MVTimeEEE@Base 3.2.1
 _ZN8casacore16TableExprNodeSet13adaptSetUnitsERKNS_4UnitE@Base 3.2.1
 _ZN8casacore16TableExprNodeSet14findClosedOpenEd@Base 3.2.1
 _ZN8casacore16TableExprNodeSet14findOpenClosedEd@Base 3.2.1
 _ZN8casacore16TableExprNodeSet14getArrayDoubleERKNS_11TableExprIdE@Base 3.2.1
 _ZN8casacore16TableExprNodeSet14getArrayStringERKNS_11TableExprIdE@Base 3.2.1
 _ZN8casacore16TableExprNodeSet14getColumnNodesERSt6vectorIPNS_16TableExprNodeRepESaIS3_EE@Base 3.2.1
 _ZN8casacore16TableExprNodeSet14hasArrayDoubleERKNS_11TableExprIdERKNS_6MArrayIdEE@Base 3.2.1
 _ZN8casacore16TableExprNodeSet14hasArrayStringERKNS_11TableExprIdERKNS_6MArrayINS_6StringEEE@Base 3.2.1
 _ZN8casacore16TableExprNodeSet16findClosedClosedEd@Base 3.2.1
 _ZN8casacore16TableExprNodeSet16getArrayDComplexERKNS_11TableExprIdE@Base 3.2.1
 _ZN8casacore16TableExprNodeSet16hasArrayDComplexERKNS_11TableExprIdERKNS_6MArrayISt7complexIdEEE@Base 3.2.1
 _ZN8casacore16TableExprNodeSet19combineIntIntervalsEv@Base 3.2.1
 _ZN8casacore16TableExprNodeSet20combineDateIntervalsEv@Base 3.2.1
 _ZN8casacore16TableExprNodeSet22combineDoubleIntervalsEv@Base 3.2.1
 _ZN8casacore16TableExprNodeSet3addERKNS_20TableExprNodeSetElemEb@Base 3.2.1
 _ZN8casacore16TableExprNodeSet6hasIntERKNS_11TableExprIdEx@Base 3.2.1
 _ZN8casacore16TableExprNodeSet7hasBoolERKNS_11TableExprIdEb@Base 3.2.1
 _ZN8casacore16TableExprNodeSet7hasDateERKNS_11TableExprIdERKNS_6MVTimeE@Base 3.2.1
 _ZN8casacore16TableExprNodeSet9hasDoubleERKNS_11TableExprIdEd@Base 3.2.1
 _ZN8casacore16TableExprNodeSet9hasStringERKNS_11TableExprIdERKNS_6StringE@Base 3.2.1
 _ZN8casacore16TableExprNodeSetC1ERKNS_6SlicerE@Base 3.2.1
 _ZN8casacore16TableExprNodeSetC1ERKNS_6VectorIjEERKS0_@Base 3.2.1
 _ZN8casacore16TableExprNodeSetC1ERKNS_9IPositionE@Base 3.2.1
 _ZN8casacore16TableExprNodeSetC1ERKS0_@Base 3.2.1
 _ZN8casacore16TableExprNodeSetC1Ev@Base 3.2.1
 _ZN8casacore16TableExprNodeSetC2ERKNS_6SlicerE@Base 3.2.1
 _ZN8casacore16TableExprNodeSetC2ERKNS_6VectorIjEERKS0_@Base 3.2.1
 _ZN8casacore16TableExprNodeSetC2ERKNS_9IPositionE@Base 3.2.1
 _ZN8casacore16TableExprNodeSetC2ERKS0_@Base 3.2.1
 _ZN8casacore16TableExprNodeSetC2Ev@Base 3.2.1
 _ZN8casacore16TableExprNodeSetD0Ev@Base 3.2.1
 _ZN8casacore16TableExprNodeSetD1Ev@Base 3.2.1
 _ZN8casacore16TableExprNodeSetD2Ev@Base 3.2.1
 _ZN8casacore16TableExprUDFNode11getDComplexERKNS_11TableExprIdE@Base 3.2.1
 _ZN8casacore16TableExprUDFNode12getAggrNodesERSt6vectorIPNS_16TableExprNodeRepESaIS3_EE@Base 3.2.1
 _ZN8casacore16TableExprUDFNode14applySelectionERKNS_6VectorIjEE@Base 3.2.1
 _ZN8casacore16TableExprUDFNode14getColumnNodesERSt6vectorIPNS_16TableExprNodeRepESaIS3_EE@Base 3.2.1
 _ZN8casacore16TableExprUDFNode17makeGroupAggrFuncEv@Base 3.2.1
 _ZN8casacore16TableExprUDFNode21disableApplySelectionEv@Base 3.2.1
 _ZN8casacore16TableExprUDFNode6getIntERKNS_11TableExprIdE@Base 3.2.1
 _ZN8casacore16TableExprUDFNode7getBoolERKNS_11TableExprIdE@Base 3.2.1
 _ZN8casacore16TableExprUDFNode7getDateERKNS_11TableExprIdE@Base 3.2.1
 _ZN8casacore16TableExprUDFNode8getRegexERKNS_11TableExprIdE@Base 3.2.1
 _ZN8casacore16TableExprUDFNode9getDoubleERKNS_11TableExprIdE@Base 3.2.1
 _ZN8casacore16TableExprUDFNode9getStringERKNS_11TableExprIdE@Base 3.2.1
 _ZN8casacore16TableExprUDFNodeC1EPNS_7UDFBaseERKNS_5TableERKNS_16TableExprNodeSetE@Base 3.2.1
 _ZN8casacore16TableExprUDFNodeC2EPNS_7UDFBaseERKNS_5TableERKNS_16TableExprNodeSetE@Base 3.2.1
 _ZN8casacore16TableExprUDFNodeD0Ev@Base 3.2.1
 _ZN8casacore16TableExprUDFNodeD1Ev@Base 3.2.1
 _ZN8casacore16TableExprUDFNodeD2Ev@Base 3.2.1
 _ZN8casacore16TableParseSelect10doDistinctEbRKNS_5TableE@Base 3.2.1
 _ZN8casacore16TableParseSelect10doSubQueryEb@Base 3.2.1
 _ZN8casacore16TableParseSelect10handleFuncERKNS_6StringERKNS_16TableExprNodeSetERKNS_9TaQLStyleE@Base 3.2.1
 _ZN8casacore16TableParseSelect10handleSortERKSt6vectorINS_14TableParseSortESaIS2_EEbNS_4Sort5OrderE@Base 3.2.1
 _ZN8casacore16TableParseSelect11createTableERKNS_9TableDescExRKNS_6RecordE@Base 3.2.1
 _ZN8casacore16TableParseSelect11doFromQueryEb@Base 3.2.1
 _ZN8casacore16TableParseSelect11findKeywordERKNS_6StringERS1_@Base 3.2.1
 _ZN8casacore16TableParseSelect11handleCountEv@Base 3.2.1
 _ZN8casacore16TableParseSelect11handleLimitERKNS_13TableExprNodeE@Base 3.2.1
 _ZN8casacore16TableParseSelect11handleLimitERKNS_20TableExprNodeSetElemE@Base 3.2.1
 _ZN8casacore16TableParseSelect11handleSliceERKNS_13TableExprNodeERKNS_16TableExprNodeSetERKNS_9TaQLStyleE@Base 3.2.1
 _ZN8casacore16TableParseSelect11handleWhereERKNS_13TableExprNodeE@Base 3.2.1
 _ZN8casacore16TableParseSelect11makeUDFNodeEPS0_RKNS_6StringERKNS_16TableExprNodeSetERKNS_5TableERKNS_9TaQLStyleE@Base 3.2.1
 _ZN8casacore16TableParseSelect11updateArrayINS_6StringES2_EEvjRKNS_11TableExprIdERKNS_13TableExprNodeERKNS_5ArrayIT0_EERNS_11ArrayColumnIT_EE@Base 3.2.1
 _ZN8casacore16TableParseSelect11updateArrayISt7complexIdES3_EEvjRKNS_11TableExprIdERKNS_13TableExprNodeERKNS_5ArrayIT0_EERNS_11ArrayColumnIT_EE@Base 3.2.1
 _ZN8casacore16TableParseSelect11updateArrayISt7complexIdEdEEvjRKNS_11TableExprIdERKNS_13TableExprNodeERKNS_5ArrayIT0_EERNS_11ArrayColumnIT_EE@Base 3.2.1
 _ZN8casacore16TableParseSelect11updateArrayISt7complexIdExEEvjRKNS_11TableExprIdERKNS_13TableExprNodeERKNS_5ArrayIT0_EERNS_11ArrayColumnIT_EE@Base 3.2.1
 _ZN8casacore16TableParseSelect11updateArrayISt7complexIfES2_IdEEEvjRKNS_11TableExprIdERKNS_13TableExprNodeERKNS_5ArrayIT0_EERNS_11ArrayColumnIT_EE@Base 3.2.1
 _ZN8casacore16TableParseSelect11updateArrayISt7complexIfEdEEvjRKNS_11TableExprIdERKNS_13TableExprNodeERKNS_5ArrayIT0_EERNS_11ArrayColumnIT_EE@Base 3.2.1
 _ZN8casacore16TableParseSelect11updateArrayISt7complexIfExEEvjRKNS_11TableExprIdERKNS_13TableExprNodeERKNS_5ArrayIT0_EERNS_11ArrayColumnIT_EE@Base 3.2.1
 _ZN8casacore16TableParseSelect11updateArrayIbbEEvjRKNS_11TableExprIdERKNS_13TableExprNodeERKNS_5ArrayIT0_EERNS_11ArrayColumnIT_EE@Base 3.2.1
 _ZN8casacore16TableParseSelect11updateArrayIddEEvjRKNS_11TableExprIdERKNS_13TableExprNodeERKNS_5ArrayIT0_EERNS_11ArrayColumnIT_EE@Base 3.2.1
 _ZN8casacore16TableParseSelect11updateArrayIdxEEvjRKNS_11TableExprIdERKNS_13TableExprNodeERKNS_5ArrayIT0_EERNS_11ArrayColumnIT_EE@Base 3.2.1
 _ZN8casacore16TableParseSelect11updateArrayIfdEEvjRKNS_11TableExprIdERKNS_13TableExprNodeERKNS_5ArrayIT0_EERNS_11ArrayColumnIT_EE@Base 3.2.1
 _ZN8casacore16TableParseSelect11updateArrayIfxEEvjRKNS_11TableExprIdERKNS_13TableExprNodeERKNS_5ArrayIT0_EERNS_11ArrayColumnIT_EE@Base 3.2.1
 _ZN8casacore16TableParseSelect11updateArrayIhdEEvjRKNS_11TableExprIdERKNS_13TableExprNodeERKNS_5ArrayIT0_EERNS_11ArrayColumnIT_EE@Base 3.2.1
 _ZN8casacore16TableParseSelect11updateArrayIhxEEvjRKNS_11TableExprIdERKNS_13TableExprNodeERKNS_5ArrayIT0_EERNS_11ArrayColumnIT_EE@Base 3.2.1
 _ZN8casacore16TableParseSelect11updateArrayIidEEvjRKNS_11TableExprIdERKNS_13TableExprNodeERKNS_5ArrayIT0_EERNS_11ArrayColumnIT_EE@Base 3.2.1
 _ZN8casacore16TableParseSelect11updateArrayIixEEvjRKNS_11TableExprIdERKNS_13TableExprNodeERKNS_5ArrayIT0_EERNS_11ArrayColumnIT_EE@Base 3.2.1
 _ZN8casacore16TableParseSelect11updateArrayIjdEEvjRKNS_11TableExprIdERKNS_13TableExprNodeERKNS_5ArrayIT0_EERNS_11ArrayColumnIT_EE@Base 3.2.1
 _ZN8casacore16TableParseSelect11updateArrayIjxEEvjRKNS_11TableExprIdERKNS_13TableExprNodeERKNS_5ArrayIT0_EERNS_11ArrayColumnIT_EE@Base 3.2.1
 _ZN8casacore16TableParseSelect11updateArrayIsdEEvjRKNS_11TableExprIdERKNS_13TableExprNodeERKNS_5ArrayIT0_EERNS_11ArrayColumnIT_EE@Base 3.2.1
 _ZN8casacore16TableParseSelect11updateArrayIsxEEvjRKNS_11TableExprIdERKNS_13TableExprNodeERKNS_5ArrayIT0_EERNS_11ArrayColumnIT_EE@Base 3.2.1
 _ZN8casacore16TableParseSelect11updateArrayItdEEvjRKNS_11TableExprIdERKNS_13TableExprNodeERKNS_5ArrayIT0_EERNS_11ArrayColumnIT_EE@Base 3.2.1
 _ZN8casacore16TableParseSelect11updateArrayItxEEvjRKNS_11TableExprIdERKNS_13TableExprNodeERKNS_5ArrayIT0_EERNS_11ArrayColumnIT_EE@Base 3.2.1
 _ZN8casacore16TableParseSelect11updateArrayIxdEEvjRKNS_11TableExprIdERKNS_13TableExprNodeERKNS_5ArrayIT0_EERNS_11ArrayColumnIT_EE@Base 3.2.1
 _ZN8casacore16TableParseSelect11updateArrayIxxEEvjRKNS_11TableExprIdERKNS_13TableExprNodeERKNS_5ArrayIT0_EERNS_11ArrayColumnIT_EE@Base 3.2.1
 _ZN8casacore16TableParseSelect11updateSliceINS_6StringES2_EEvjRKNS_11TableExprIdERKNS_13TableExprNodeERKNS_5ArrayIT0_EERKNS_6SlicerERNS_11ArrayColumnIT_EE@Base 3.2.1
 _ZN8casacore16TableParseSelect11updateSliceISt7complexIdES3_EEvjRKNS_11TableExprIdERKNS_13TableExprNodeERKNS_5ArrayIT0_EERKNS_6SlicerERNS_11ArrayColumnIT_EE@Base 3.2.1
 _ZN8casacore16TableParseSelect11updateSliceISt7complexIdEdEEvjRKNS_11TableExprIdERKNS_13TableExprNodeERKNS_5ArrayIT0_EERKNS_6SlicerERNS_11ArrayColumnIT_EE@Base 3.2.1
 _ZN8casacore16TableParseSelect11updateSliceISt7complexIdExEEvjRKNS_11TableExprIdERKNS_13TableExprNodeERKNS_5ArrayIT0_EERKNS_6SlicerERNS_11ArrayColumnIT_EE@Base 3.2.1
 _ZN8casacore16TableParseSelect11updateSliceISt7complexIfES2_IdEEEvjRKNS_11TableExprIdERKNS_13TableExprNodeERKNS_5ArrayIT0_EERKNS_6SlicerERNS_11ArrayColumnIT_EE@Base 3.2.1
 _ZN8casacore16TableParseSelect11updateSliceISt7complexIfEdEEvjRKNS_11TableExprIdERKNS_13TableExprNodeERKNS_5ArrayIT0_EERKNS_6SlicerERNS_11ArrayColumnIT_EE@Base 3.2.1
 _ZN8casacore16TableParseSelect11updateSliceISt7complexIfExEEvjRKNS_11TableExprIdERKNS_13TableExprNodeERKNS_5ArrayIT0_EERKNS_6SlicerERNS_11ArrayColumnIT_EE@Base 3.2.1
 _ZN8casacore16TableParseSelect11updateSliceIbbEEvjRKNS_11TableExprIdERKNS_13TableExprNodeERKNS_5ArrayIT0_EERKNS_6SlicerERNS_11ArrayColumnIT_EE@Base 3.2.1
 _ZN8casacore16TableParseSelect11updateSliceIddEEvjRKNS_11TableExprIdERKNS_13TableExprNodeERKNS_5ArrayIT0_EERKNS_6SlicerERNS_11ArrayColumnIT_EE@Base 3.2.1
 _ZN8casacore16TableParseSelect11updateSliceIdxEEvjRKNS_11TableExprIdERKNS_13TableExprNodeERKNS_5ArrayIT0_EERKNS_6SlicerERNS_11ArrayColumnIT_EE@Base 3.2.1
 _ZN8casacore16TableParseSelect11updateSliceIfdEEvjRKNS_11TableExprIdERKNS_13TableExprNodeERKNS_5ArrayIT0_EERKNS_6SlicerERNS_11ArrayColumnIT_EE@Base 3.2.1
 _ZN8casacore16TableParseSelect11updateSliceIfxEEvjRKNS_11TableExprIdERKNS_13TableExprNodeERKNS_5ArrayIT0_EERKNS_6SlicerERNS_11ArrayColumnIT_EE@Base 3.2.1
 _ZN8casacore16TableParseSelect11updateSliceIhdEEvjRKNS_11TableExprIdERKNS_13TableExprNodeERKNS_5ArrayIT0_EERKNS_6SlicerERNS_11ArrayColumnIT_EE@Base 3.2.1
 _ZN8casacore16TableParseSelect11updateSliceIhxEEvjRKNS_11TableExprIdERKNS_13TableExprNodeERKNS_5ArrayIT0_EERKNS_6SlicerERNS_11ArrayColumnIT_EE@Base 3.2.1
 _ZN8casacore16TableParseSelect11updateSliceIidEEvjRKNS_11TableExprIdERKNS_13TableExprNodeERKNS_5ArrayIT0_EERKNS_6SlicerERNS_11ArrayColumnIT_EE@Base 3.2.1
 _ZN8casacore16TableParseSelect11updateSliceIixEEvjRKNS_11TableExprIdERKNS_13TableExprNodeERKNS_5ArrayIT0_EERKNS_6SlicerERNS_11ArrayColumnIT_EE@Base 3.2.1
 _ZN8casacore16TableParseSelect11updateSliceIjdEEvjRKNS_11TableExprIdERKNS_13TableExprNodeERKNS_5ArrayIT0_EERKNS_6SlicerERNS_11ArrayColumnIT_EE@Base 3.2.1
 _ZN8casacore16TableParseSelect11updateSliceIjxEEvjRKNS_11TableExprIdERKNS_13TableExprNodeERKNS_5ArrayIT0_EERKNS_6SlicerERNS_11ArrayColumnIT_EE@Base 3.2.1
 _ZN8casacore16TableParseSelect11updateSliceIsdEEvjRKNS_11TableExprIdERKNS_13TableExprNodeERKNS_5ArrayIT0_EERKNS_6SlicerERNS_11ArrayColumnIT_EE@Base 3.2.1
 _ZN8casacore16TableParseSelect11updateSliceIsxEEvjRKNS_11TableExprIdERKNS_13TableExprNodeERKNS_5ArrayIT0_EERKNS_6SlicerERNS_11ArrayColumnIT_EE@Base 3.2.1
 _ZN8casacore16TableParseSelect11updateSliceItdEEvjRKNS_11TableExprIdERKNS_13TableExprNodeERKNS_5ArrayIT0_EERKNS_6SlicerERNS_11ArrayColumnIT_EE@Base 3.2.1
 _ZN8casacore16TableParseSelect11updateSliceItxEEvjRKNS_11TableExprIdERKNS_13TableExprNodeERKNS_5ArrayIT0_EERKNS_6SlicerERNS_11ArrayColumnIT_EE@Base 3.2.1
 _ZN8casacore16TableParseSelect11updateSliceIxdEEvjRKNS_11TableExprIdERKNS_13TableExprNodeERKNS_5ArrayIT0_EERKNS_6SlicerERNS_11ArrayColumnIT_EE@Base 3.2.1
 _ZN8casacore16TableParseSelect11updateSliceIxxEEvjRKNS_11TableExprIdERKNS_13TableExprNodeERKNS_5ArrayIT0_EERKNS_6SlicerERNS_11ArrayColumnIT_EE@Base 3.2.1
 _ZN8casacore16TableParseSelect11updateValueINS_6StringES2_EEvjRKNS_11TableExprIdEbRKNS_13TableExprNodeERKNS_5ArrayIbEEbRNS_11TableColumnEPKNS_6SlicerERNS_11ArrayColumnIbEE@Base 3.2.1
 _ZN8casacore16TableParseSelect11updateValueISt7complexIdES3_EEvjRKNS_11TableExprIdEbRKNS_13TableExprNodeERKNS_5ArrayIbEEbRNS_11TableColumnEPKNS_6SlicerERNS_11ArrayColumnIbEE@Base 3.2.1
 _ZN8casacore16TableParseSelect11updateValueISt7complexIdEdEEvjRKNS_11TableExprIdEbRKNS_13TableExprNodeERKNS_5ArrayIbEEbRNS_11TableColumnEPKNS_6SlicerERNS_11ArrayColumnIbEE@Base 3.2.1
 _ZN8casacore16TableParseSelect11updateValueISt7complexIdExEEvjRKNS_11TableExprIdEbRKNS_13TableExprNodeERKNS_5ArrayIbEEbRNS_11TableColumnEPKNS_6SlicerERNS_11ArrayColumnIbEE@Base 3.2.1
 _ZN8casacore16TableParseSelect11updateValueISt7complexIfES2_IdEEEvjRKNS_11TableExprIdEbRKNS_13TableExprNodeERKNS_5ArrayIbEEbRNS_11TableColumnEPKNS_6SlicerERNS_11ArrayColumnIbEE@Base 3.2.1
 _ZN8casacore16TableParseSelect11updateValueISt7complexIfEdEEvjRKNS_11TableExprIdEbRKNS_13TableExprNodeERKNS_5ArrayIbEEbRNS_11TableColumnEPKNS_6SlicerERNS_11ArrayColumnIbEE@Base 3.2.1
 _ZN8casacore16TableParseSelect11updateValueISt7complexIfExEEvjRKNS_11TableExprIdEbRKNS_13TableExprNodeERKNS_5ArrayIbEEbRNS_11TableColumnEPKNS_6SlicerERNS_11ArrayColumnIbEE@Base 3.2.1
 _ZN8casacore16TableParseSelect11updateValueIbbEEvjRKNS_11TableExprIdEbRKNS_13TableExprNodeERKNS_5ArrayIbEEbRNS_11TableColumnEPKNS_6SlicerERNS_11ArrayColumnIbEE@Base 3.2.1
 _ZN8casacore16TableParseSelect11updateValueIddEEvjRKNS_11TableExprIdEbRKNS_13TableExprNodeERKNS_5ArrayIbEEbRNS_11TableColumnEPKNS_6SlicerERNS_11ArrayColumnIbEE@Base 3.2.1
 _ZN8casacore16TableParseSelect11updateValueIdxEEvjRKNS_11TableExprIdEbRKNS_13TableExprNodeERKNS_5ArrayIbEEbRNS_11TableColumnEPKNS_6SlicerERNS_11ArrayColumnIbEE@Base 3.2.1
 _ZN8casacore16TableParseSelect11updateValueIfdEEvjRKNS_11TableExprIdEbRKNS_13TableExprNodeERKNS_5ArrayIbEEbRNS_11TableColumnEPKNS_6SlicerERNS_11ArrayColumnIbEE@Base 3.2.1
 _ZN8casacore16TableParseSelect11updateValueIfxEEvjRKNS_11TableExprIdEbRKNS_13TableExprNodeERKNS_5ArrayIbEEbRNS_11TableColumnEPKNS_6SlicerERNS_11ArrayColumnIbEE@Base 3.2.1
 _ZN8casacore16TableParseSelect11updateValueIhdEEvjRKNS_11TableExprIdEbRKNS_13TableExprNodeERKNS_5ArrayIbEEbRNS_11TableColumnEPKNS_6SlicerERNS_11ArrayColumnIbEE@Base 3.2.1
 _ZN8casacore16TableParseSelect11updateValueIhxEEvjRKNS_11TableExprIdEbRKNS_13TableExprNodeERKNS_5ArrayIbEEbRNS_11TableColumnEPKNS_6SlicerERNS_11ArrayColumnIbEE@Base 3.2.1
 _ZN8casacore16TableParseSelect11updateValueIidEEvjRKNS_11TableExprIdEbRKNS_13TableExprNodeERKNS_5ArrayIbEEbRNS_11TableColumnEPKNS_6SlicerERNS_11ArrayColumnIbEE@Base 3.2.1
 _ZN8casacore16TableParseSelect11updateValueIixEEvjRKNS_11TableExprIdEbRKNS_13TableExprNodeERKNS_5ArrayIbEEbRNS_11TableColumnEPKNS_6SlicerERNS_11ArrayColumnIbEE@Base 3.2.1
 _ZN8casacore16TableParseSelect11updateValueIjdEEvjRKNS_11TableExprIdEbRKNS_13TableExprNodeERKNS_5ArrayIbEEbRNS_11TableColumnEPKNS_6SlicerERNS_11ArrayColumnIbEE@Base 3.2.1
 _ZN8casacore16TableParseSelect11updateValueIjxEEvjRKNS_11TableExprIdEbRKNS_13TableExprNodeERKNS_5ArrayIbEEbRNS_11TableColumnEPKNS_6SlicerERNS_11ArrayColumnIbEE@Base 3.2.1
 _ZN8casacore16TableParseSelect11updateValueIsdEEvjRKNS_11TableExprIdEbRKNS_13TableExprNodeERKNS_5ArrayIbEEbRNS_11TableColumnEPKNS_6SlicerERNS_11ArrayColumnIbEE@Base 3.2.1
 _ZN8casacore16TableParseSelect11updateValueIsxEEvjRKNS_11TableExprIdEbRKNS_13TableExprNodeERKNS_5ArrayIbEEbRNS_11TableColumnEPKNS_6SlicerERNS_11ArrayColumnIbEE@Base 3.2.1
 _ZN8casacore16TableParseSelect11updateValueItdEEvjRKNS_11TableExprIdEbRKNS_13TableExprNodeERKNS_5ArrayIbEEbRNS_11TableColumnEPKNS_6SlicerERNS_11ArrayColumnIbEE@Base 3.2.1
 _ZN8casacore16TableParseSelect11updateValueItxEEvjRKNS_11TableExprIdEbRKNS_13TableExprNodeERKNS_5ArrayIbEEbRNS_11TableColumnEPKNS_6SlicerERNS_11ArrayColumnIbEE@Base 3.2.1
 _ZN8casacore16TableParseSelect11updateValueIxdEEvjRKNS_11TableExprIdEbRKNS_13TableExprNodeERKNS_5ArrayIbEEbRNS_11TableColumnEPKNS_6SlicerERNS_11ArrayColumnIbEE@Base 3.2.1
 _ZN8casacore16TableParseSelect11updateValueIxxEEvjRKNS_11TableExprIdEbRKNS_13TableExprNodeERKNS_5ArrayIbEEbRNS_11TableColumnEPKNS_6SlicerERNS_11ArrayColumnIbEE@Base 3.2.1
 _ZN8casacore16TableParseSelect12findTableKeyERKNS_5TableERKNS_6StringERKNS_6VectorIS4_EE@Base 3.2.1
 _ZN8casacore16TableParseSelect12getTableInfoERKNS_6VectorINS_6StringEEERKNS_9TaQLStyleE@Base 3.2.1
 _ZN8casacore16TableParseSelect12handleAddColERKNS_6RecordE@Base 3.2.1
 _ZN8casacore16TableParseSelect12handleAddRowERKNS_13TableExprNodeE@Base 3.2.1
 _ZN8casacore16TableParseSelect12handleAltTabEv@Base 3.2.1
 _ZN8casacore16TableParseSelect12handleColumnEiRKNS_6StringERKNS_13TableExprNodeES3_S3_S3_@Base 3.2.1
 _ZN8casacore16TableParseSelect12handleCreTabERKNS_6RecordE@Base 3.2.1
 _ZN8casacore16TableParseSelect12handleGivingERKNS_16TableExprNodeSetE@Base 3.2.1
 _ZN8casacore16TableParseSelect12handleGivingERKNS_6StringERKNS_6RecordE@Base 3.2.1
 _ZN8casacore16TableParseSelect12handleHavingERKNS_13TableExprNodeE@Base 3.2.1
 _ZN8casacore16TableParseSelect12handleInsertEPS0_@Base 3.2.1
 _ZN8casacore16TableParseSelect12handleInsertEv@Base 3.2.1
 _ZN8casacore16TableParseSelect12handleKeyColERKNS_6StringEb@Base 3.2.1
 _ZN8casacore16TableParseSelect12handleOffsetERKNS_13TableExprNodeE@Base 3.2.1
 _ZN8casacore16TableParseSelect12handleSetKeyERKNS_6StringES3_RKNS_11ValueHolderE@Base 3.2.1
 _ZN8casacore16TableParseSelect12handleUpdateEv@Base 3.2.1
 _ZN8casacore16TableParseSelect12makeDataTypeENS_8DataTypeERKNS_6StringES4_@Base 3.2.1
 _ZN8casacore16TableParseSelect12makeFuncNodeEPS0_RKNS_6StringERKNS_16TableExprNodeSetERKNS_6VectorIiEERKNS_5TableERKNS_9TaQLStyleE@Base 3.2.1
 _ZN8casacore16TableParseSelect12replaceTableERKNS_5TableE@Base 3.2.1
 _ZN8casacore16TableParseSelect12updateScalarINS_6StringES2_EEvjRKNS_11TableExprIdERKNS_13TableExprNodeERNS_11TableColumnE@Base 3.2.1
 _ZN8casacore16TableParseSelect13addColumnDescERNS_9TableDescENS_8DataTypeERKNS_6StringEiiRKNS_9IPositionES6_S6_S6_RKNS_11TableRecordERKNS_6VectorIS4_EERKNS_6RecordE@Base 3.2.1
 _ZN8casacore16TableParseSelect13doGroupByAggrERKSt6vectorIPNS_16TableExprNodeRepESaIS3_EE@Base 3.2.1
 _ZN8casacore16TableParseSelect13doProjectExprEbRKNS_10CountedPtrINS_20TableExprGroupResultEEE@Base 3.2.1
 _ZN8casacore16TableParseSelect13getTypeStringERKNS_6StringENS_8DataTypeE@Base 3.2.1
 _ZN8casacore16TableParseSelect13handleColSpecERKNS_6StringES3_RKNS_6RecordEb@Base 3.2.1
 _ZN8casacore16TableParseSelect13handleGroupbyERKSt6vectorINS_13TableExprNodeESaIS2_EEb@Base 3.2.1
 _ZN8casacore16TableParseSelect13makeMaskSliceERKNS_5ArrayIbEEbRKNS_9IPositionEPKNS_6SlicerE@Base 3.2.1
 _ZN8casacore16TableParseSelect14checkAggrFuncsERKNS_13TableExprNodeE@Base 3.2.1
 _ZN8casacore16TableParseSelect14doOnlyCountAllEPNS_16TableExprNodeRepE@Base 3.2.1
 _ZN8casacore16TableParseSelect14handleCalcCommERKNS_13TableExprNodeE@Base 3.2.1
 _ZN8casacore16TableParseSelect15checkMaskColumnEbRKNS_11ArrayColumnIbEERKNS_11TableColumnE@Base 3.2.1
 _ZN8casacore16TableParseSelect15copyMaskedValueINS_6StringES2_EEvjRNS_11ArrayColumnIT_EEPKNS_6SlicerEPKT0_jRKNS_5ArrayIbEE@Base 3.2.1
 _ZN8casacore16TableParseSelect15copyMaskedValueISt7complexIdES3_EEvjRNS_11ArrayColumnIT_EEPKNS_6SlicerEPKT0_jRKNS_5ArrayIbEE@Base 3.2.1
 _ZN8casacore16TableParseSelect15copyMaskedValueISt7complexIdEdEEvjRNS_11ArrayColumnIT_EEPKNS_6SlicerEPKT0_jRKNS_5ArrayIbEE@Base 3.2.1
 _ZN8casacore16TableParseSelect15copyMaskedValueISt7complexIdExEEvjRNS_11ArrayColumnIT_EEPKNS_6SlicerEPKT0_jRKNS_5ArrayIbEE@Base 3.2.1
 _ZN8casacore16TableParseSelect15copyMaskedValueISt7complexIfES2_IdEEEvjRNS_11ArrayColumnIT_EEPKNS_6SlicerEPKT0_jRKNS_5ArrayIbEE@Base 3.2.1
 _ZN8casacore16TableParseSelect15copyMaskedValueISt7complexIfEdEEvjRNS_11ArrayColumnIT_EEPKNS_6SlicerEPKT0_jRKNS_5ArrayIbEE@Base 3.2.1
 _ZN8casacore16TableParseSelect15copyMaskedValueISt7complexIfExEEvjRNS_11ArrayColumnIT_EEPKNS_6SlicerEPKT0_jRKNS_5ArrayIbEE@Base 3.2.1
 _ZN8casacore16TableParseSelect15copyMaskedValueIbbEEvjRNS_11ArrayColumnIT_EEPKNS_6SlicerEPKT0_jRKNS_5ArrayIbEE@Base 3.2.1
 _ZN8casacore16TableParseSelect15copyMaskedValueIddEEvjRNS_11ArrayColumnIT_EEPKNS_6SlicerEPKT0_jRKNS_5ArrayIbEE@Base 3.2.1
 _ZN8casacore16TableParseSelect15copyMaskedValueIdxEEvjRNS_11ArrayColumnIT_EEPKNS_6SlicerEPKT0_jRKNS_5ArrayIbEE@Base 3.2.1
 _ZN8casacore16TableParseSelect15copyMaskedValueIfdEEvjRNS_11ArrayColumnIT_EEPKNS_6SlicerEPKT0_jRKNS_5ArrayIbEE@Base 3.2.1
 _ZN8casacore16TableParseSelect15copyMaskedValueIfxEEvjRNS_11ArrayColumnIT_EEPKNS_6SlicerEPKT0_jRKNS_5ArrayIbEE@Base 3.2.1
 _ZN8casacore16TableParseSelect15copyMaskedValueIhdEEvjRNS_11ArrayColumnIT_EEPKNS_6SlicerEPKT0_jRKNS_5ArrayIbEE@Base 3.2.1
 _ZN8casacore16TableParseSelect15copyMaskedValueIhxEEvjRNS_11ArrayColumnIT_EEPKNS_6SlicerEPKT0_jRKNS_5ArrayIbEE@Base 3.2.1
 _ZN8casacore16TableParseSelect15copyMaskedValueIidEEvjRNS_11ArrayColumnIT_EEPKNS_6SlicerEPKT0_jRKNS_5ArrayIbEE@Base 3.2.1
 _ZN8casacore16TableParseSelect15copyMaskedValueIixEEvjRNS_11ArrayColumnIT_EEPKNS_6SlicerEPKT0_jRKNS_5ArrayIbEE@Base 3.2.1
 _ZN8casacore16TableParseSelect15copyMaskedValueIjdEEvjRNS_11ArrayColumnIT_EEPKNS_6SlicerEPKT0_jRKNS_5ArrayIbEE@Base 3.2.1
 _ZN8casacore16TableParseSelect15copyMaskedValueIjxEEvjRNS_11ArrayColumnIT_EEPKNS_6SlicerEPKT0_jRKNS_5ArrayIbEE@Base 3.2.1
 _ZN8casacore16TableParseSelect15copyMaskedValueIsdEEvjRNS_11ArrayColumnIT_EEPKNS_6SlicerEPKT0_jRKNS_5ArrayIbEE@Base 3.2.1
 _ZN8casacore16TableParseSelect15copyMaskedValueIsxEEvjRNS_11ArrayColumnIT_EEPKNS_6SlicerEPKT0_jRKNS_5ArrayIbEE@Base 3.2.1
 _ZN8casacore16TableParseSelect15copyMaskedValueItdEEvjRNS_11ArrayColumnIT_EEPKNS_6SlicerEPKT0_jRKNS_5ArrayIbEE@Base 3.2.1
 _ZN8casacore16TableParseSelect15copyMaskedValueItxEEvjRNS_11ArrayColumnIT_EEPKNS_6SlicerEPKT0_jRKNS_5ArrayIbEE@Base 3.2.1
 _ZN8casacore16TableParseSelect15copyMaskedValueIxdEEvjRNS_11ArrayColumnIT_EEPKNS_6SlicerEPKT0_jRKNS_5ArrayIbEE@Base 3.2.1
 _ZN8casacore16TableParseSelect15copyMaskedValueIxxEEvjRNS_11ArrayColumnIT_EEPKNS_6SlicerEPKT0_jRKNS_5ArrayIbEE@Base 3.2.1
 _ZN8casacore16TableParseSelect15handleRemoveKeyERKNS_6StringE@Base 3.2.1
 _ZN8casacore16TableParseSelect15handleRenameKeyERKNS_6StringES3_@Base 3.2.1
 _ZN8casacore16TableParseSelect15makeTableNoFromERKSt6vectorIPS0_SaIS2_EE@Base 3.2.1
 _ZN8casacore16TableParseSelect16handleWildColumnEiRKNS_6StringE@Base 3.2.1
 _ZN8casacore16TableParseSelect18handleColumnFinishEb@Base 3.2.1
 _ZN8casacore16TableParseSelect18makeProjectExprSelEv@Base 3.2.1
 _ZN8casacore16TableParseSelect19adjustApplySelNodesERKNS_5TableE@Base 3.2.1
 _ZN8casacore16TableParseSelect20makeProjectExprTableEv@Base 3.2.1
 _ZN8casacore16TableParseSelect25doGroupByAggrMultipleKeysERKSt6vectorIPNS_16TableExprNodeRepESaIS3_EE@Base 3.2.1
 _ZN8casacore16TableParseSelect6doSortEb@Base 3.2.1
 _ZN8casacore16TableParseSelect7doCountEbRKNS_5TableE@Base 3.2.1
 _ZN8casacore16TableParseSelect7executeEbbbjb@Base 3.2.1
 _ZN8casacore16TableParseSelect8addTableEiRKNS_6StringERKNS_5TableES3_bSt6vectorIPS5_SaIS8_EERKS7_IPS0_SaISB_EE@Base 3.2.1
 _ZN8casacore16TableParseSelect8doDeleteEbRNS_5TableE@Base 3.2.1
 _ZN8casacore16TableParseSelect8doExistsEbb@Base 3.2.1
 _ZN8casacore16TableParseSelect8doFinishEbRNS_5TableE@Base 3.2.1
 _ZN8casacore16TableParseSelect8doHavingEbRKNS_10CountedPtrINS_20TableExprGroupResultEEE@Base 3.2.1
 _ZN8casacore16TableParseSelect8doInsertEbRNS_5TableE@Base 3.2.1
 _ZN8casacore16TableParseSelect8doLimOffEb@Base 3.2.1
 _ZN8casacore16TableParseSelect8doLimOffEbRKNS_5TableE@Base 3.2.1
 _ZN8casacore16TableParseSelect8doUpdateEbRKNS_5TableERS1_RKNS_6VectorIjEERKNS_10CountedPtrINS_20TableExprGroupResultEEE@Base 3.2.1
 _ZN8casacore16TableParseSelect8findFuncERKNS_6StringEjRKNS_6VectorIiEE@Base 3.2.1
 _ZN8casacore16TableParseSelect8tableKeyERKNS_6StringES3_S3_RKNS_6VectorIS1_EERKSt6vectorIPS0_SaIS9_EE@Base 3.2.1
 _ZN8casacore16TableParseSelect9doGroupbyEbSt6vectorIPNS_16TableExprNodeRepESaIS3_EEi@Base 3.2.1
 _ZN8casacore16TableParseSelect9doProjectEbRKNS_5TableERKNS_10CountedPtrINS_20TableExprGroupResultEEE@Base 3.2.1
 _ZN8casacore16TableParseSelect9getColSetEv@Base 3.2.1
 _ZN8casacore16TableParseSelect9getRecFldERKNS_6StringE@Base 3.2.1
 _ZN8casacore16TableParseSelect9makeTableEiRKNS_6StringERKNS_5TableES3_St6vectorIPS5_SaIS8_EERKS7_IPS0_SaISB_EEb@Base 3.2.1
 _ZN8casacore16TableParseSelect9setRecFldERNS_15RecordInterfaceERKNS_6StringES5_RKNS_11ValueHolderE@Base 3.2.1
 _ZN8casacore16TableParseSelect9splitNameERNS_6StringES2_RNS_6VectorIS1_EERKS1_bbb@Base 3.2.1
 _ZN8casacore16TableParseSelectC1ENS0_11CommandTypeE@Base 3.2.1
 _ZN8casacore16TableParseSelectC2ENS0_11CommandTypeE@Base 3.2.1
 _ZN8casacore16TableParseSelectD1Ev@Base 3.2.1
 _ZN8casacore16TableParseSelectD2Ev@Base 3.2.1
 _ZN8casacore16TableParseUpdate13handleIndicesERKNS_16TableExprNodeSetERKNS_9TaQLStyleE@Base 3.2.1
 _ZN8casacore16TableParseUpdateC1ERKNS_6StringES3_RKNS_13TableExprNodeEb@Base 3.2.1
 _ZN8casacore16TableParseUpdateC1ERKNS_6StringES3_RKNS_16TableExprNodeSetERKNS_13TableExprNodeERKNS_9TaQLStyleE@Base 3.2.1
 _ZN8casacore16TableParseUpdateC1ERKNS_6StringES3_RKNS_16TableExprNodeSetES6_RKNS_13TableExprNodeERKNS_9TaQLStyleE@Base 3.2.1
 _ZN8casacore16TableParseUpdateC2ERKNS_6StringES3_RKNS_13TableExprNodeEb@Base 3.2.1
 _ZN8casacore16TableParseUpdateC2ERKNS_6StringES3_RKNS_16TableExprNodeSetERKNS_13TableExprNodeERKNS_9TaQLStyleE@Base 3.2.1
 _ZN8casacore16TableParseUpdateC2ERKNS_6StringES3_RKNS_16TableExprNodeSetES6_RKNS_13TableExprNodeERKNS_9TaQLStyleE@Base 3.2.1
 _ZN8casacore16TableParseUpdateD1Ev@Base 3.2.1
 _ZN8casacore16TableParseUpdateD2Ev@Base 3.2.1
 _ZN8casacore16TableUnknownDescC1ERKNS_6StringENS_9AipsError8CategoryE@Base 3.2.1
 _ZN8casacore16TableUnknownDescC2ERKNS_6StringENS_9AipsError8CategoryE@Base 3.2.1
 _ZN8casacore16TableUnknownDescD0Ev@Base 3.2.1
 _ZN8casacore16TableUnknownDescD1Ev@Base 3.2.1
 _ZN8casacore16TableUnknownDescD2Ev@Base 3.2.1
 _ZN8casacore16TiledColumnStMan10makeObjectERKNS_6StringERKNS_6RecordE@Base 3.2.1
 _ZN8casacore16TiledColumnStMan10readHeaderEjb@Base 3.2.1
 _ZN8casacore16TiledColumnStMan12getHypercubeEj@Base 3.2.1
 _ZN8casacore16TiledColumnStMan12getHypercubeEjRNS_9IPositionE@Base 3.2.1
 _ZN8casacore16TiledColumnStMan5flushERNS_6AipsIOEb@Base 3.2.1
 _ZN8casacore16TiledColumnStMan6addRowEj@Base 3.2.1
 _ZN8casacore16TiledColumnStMan6createEj@Base 3.2.1
 _ZN8casacore16TiledColumnStManC1ERKNS_6StringERKNS_6RecordE@Base 3.2.1
 _ZN8casacore16TiledColumnStManC1ERKNS_6StringERKNS_9IPositionEj@Base 3.2.1
 _ZN8casacore16TiledColumnStManC1Ev@Base 3.2.1
 _ZN8casacore16TiledColumnStManC2ERKNS_6StringERKNS_6RecordE@Base 3.2.1
 _ZN8casacore16TiledColumnStManC2ERKNS_6StringERKNS_9IPositionEj@Base 3.2.1
 _ZN8casacore16TiledColumnStManC2Ev@Base 3.2.1
 _ZN8casacore16TiledColumnStManD0Ev@Base 3.2.1
 _ZN8casacore16TiledColumnStManD1Ev@Base 3.2.1
 _ZN8casacore16TiledColumnStManD2Ev@Base 3.2.1
 _ZN8casacore16concatenateArrayINS_6StringEEENS_5ArrayIT_EERKS4_S6_@Base 3.2.1
 _ZN8casacore16concatenateArrayISt7complexIdEEENS_5ArrayIT_EERKS5_S7_@Base 3.2.1
 _ZN8casacore16concatenateArrayISt7complexIfEEENS_5ArrayIT_EERKS5_S7_@Base 3.2.1
 _ZN8casacore16concatenateArrayIbEENS_5ArrayIT_EERKS3_S5_@Base 3.2.1
 _ZN8casacore16concatenateArrayIdEENS_5ArrayIT_EERKS3_S5_@Base 3.2.1
 _ZN8casacore16concatenateArrayIfEENS_5ArrayIT_EERKS3_S5_@Base 3.2.1
 _ZN8casacore16concatenateArrayIiEENS_5ArrayIT_EERKS3_S5_@Base 3.2.1
 _ZN8casacore16concatenateArrayIjEENS_5ArrayIT_EERKS3_S5_@Base 3.2.1
 _ZN8casacore16dateTimeFuncHelpE@Base 3.2.1
 _ZN8casacore16partialArrayMathISt7complexIdES2_EEvRNS_6MArrayIT0_EERKNS3_IT_EERKNS_9IPositionERKNS_17MArrayFunctorBaseIS7_S4_EE@Base 3.2.1
 _ZN8casacore16partialArrayMathIbbEEvRNS_5ArrayIT0_EERKNS1_IT_EERKNS_9IPositionERKNS_16ArrayFunctorBaseIS5_S2_EE@Base 3.2.1
 _ZN8casacore16partialArrayMathIbbEEvRNS_6MArrayIT0_EERKNS1_IT_EERKNS_9IPositionERKNS_17MArrayFunctorBaseIS5_S2_EE@Base 3.2.1
 _ZN8casacore16partialArrayMathIbjEEvRNS_6MArrayIT0_EERKNS1_IT_EERKNS_9IPositionERKNS_17MArrayFunctorBaseIS5_S2_EE@Base 3.2.1
 _ZN8casacore16partialArrayMathIddEEvRNS_6MArrayIT0_EERKNS1_IT_EERKNS_9IPositionERKNS_17MArrayFunctorBaseIS5_S2_EE@Base 3.2.1
 _ZN8casacore16partialArrayMathIxxEEvRNS_6MArrayIT0_EERKNS1_IT_EERKNS_9IPositionERKNS_17MArrayFunctorBaseIS5_S2_EE@Base 3.2.1
 _ZN8casacore16partialFractilesIdEENS_5ArrayIT_EERKS3_RKNS_9IPositionEfb@Base 3.2.1
 _ZN8casacore16partialVariancesIdEENS_5ArrayISt7complexIT_EEERKS5_RKNS_9IPositionES7_j@Base 3.2.1
 _ZN8casacore16partialVariancesIdEENS_5ArrayIT_EERKS3_RKNS_9IPositionES5_j@Base 3.2.1
 _ZN8casacore16slidingArrayMathISt7complexIdES2_EEvRNS_5ArrayIT0_EERKNS3_IT_EERKNS_9IPositionERKNS_16ArrayFunctorBaseIS7_S4_EEb@Base 3.2.1
 _ZN8casacore16slidingArrayMathISt7complexIdES2_EEvRNS_6MArrayIT0_EERKNS3_IT_EERKNS_9IPositionERKNS_17MArrayFunctorBaseIS7_S4_EEb@Base 3.2.1
 _ZN8casacore16slidingArrayMathIbbEEvRNS_5ArrayIT0_EERKNS1_IT_EERKNS_9IPositionERKNS_16ArrayFunctorBaseIS5_S2_EEb@Base 3.2.1
 _ZN8casacore16slidingArrayMathIbbEEvRNS_6MArrayIT0_EERKNS1_IT_EERKNS_9IPositionERKNS_17MArrayFunctorBaseIS5_S2_EEb@Base 3.2.1
 _ZN8casacore16slidingArrayMathIbjEEvRNS_5ArrayIT0_EERKNS1_IT_EERKNS_9IPositionERKNS_16ArrayFunctorBaseIS5_S2_EEb@Base 3.2.1
 _ZN8casacore16slidingArrayMathIbjEEvRNS_6MArrayIT0_EERKNS1_IT_EERKNS_9IPositionERKNS_17MArrayFunctorBaseIS5_S2_EEb@Base 3.2.1
 _ZN8casacore16slidingArrayMathIddEEvRNS_5ArrayIT0_EERKNS1_IT_EERKNS_9IPositionERKNS_16ArrayFunctorBaseIS5_S2_EEb@Base 3.2.1
 _ZN8casacore16slidingArrayMathIddEEvRNS_6MArrayIT0_EERKNS1_IT_EERKNS_9IPositionERKNS_17MArrayFunctorBaseIS5_S2_EEb@Base 3.2.1
 _ZN8casacore16slidingArrayMathIxxEEvRNS_5ArrayIT0_EERKNS1_IT_EERKNS_9IPositionERKNS_16ArrayFunctorBaseIS5_S2_EEb@Base 3.2.1
 _ZN8casacore16slidingArrayMathIxxEEvRNS_6MArrayIT0_EERKNS1_IT_EERKNS_9IPositionERKNS_17MArrayFunctorBaseIS5_S2_EEb@Base 3.2.1
 _ZN8casacore17Allocator_private17BulkAllocatorImplINS_17new_del_allocatorINS_5SliceEEEE10deallocateEPS3_m@Base 3.2.1
 _ZN8casacore17Allocator_private17BulkAllocatorImplINS_17new_del_allocatorINS_5SliceEEEE7destroyEPS3_m@Base 3.2.1
 _ZN8casacore17Allocator_private17BulkAllocatorImplINS_17new_del_allocatorINS_5SliceEEEE8allocateEmPKv@Base 3.2.1
 _ZN8casacore17Allocator_private17BulkAllocatorImplINS_17new_del_allocatorINS_5SliceEEEE9allocatorE@Base 3.2.1
 _ZN8casacore17Allocator_private17BulkAllocatorImplINS_17new_del_allocatorINS_5SliceEEEE9constructEPS3_m@Base 3.2.1
 _ZN8casacore17Allocator_private17BulkAllocatorImplINS_17new_del_allocatorINS_5SliceEEEE9constructEPS3_mPKS3_@Base 3.2.1
 _ZN8casacore17Allocator_private17BulkAllocatorImplINS_17new_del_allocatorINS_5SliceEEEE9constructEPS3_mRKS3_@Base 3.2.1
 _ZN8casacore17Allocator_private17BulkAllocatorImplINS_17new_del_allocatorINS_5SliceEEEED0Ev@Base 3.2.1
 _ZN8casacore17Allocator_private17BulkAllocatorImplINS_17new_del_allocatorINS_5SliceEEEED1Ev@Base 3.2.1
 _ZN8casacore17Allocator_private17BulkAllocatorImplINS_17new_del_allocatorINS_5SliceEEEED2Ev@Base 3.2.1
 _ZN8casacore17Allocator_private17BulkAllocatorImplINS_17new_del_allocatorINS_6MVTimeEEEE10deallocateEPS3_m@Base 3.2.1
 _ZN8casacore17Allocator_private17BulkAllocatorImplINS_17new_del_allocatorINS_6MVTimeEEEE7destroyEPS3_m@Base 3.2.1
 _ZN8casacore17Allocator_private17BulkAllocatorImplINS_17new_del_allocatorINS_6MVTimeEEEE8allocateEmPKv@Base 3.2.1
 _ZN8casacore17Allocator_private17BulkAllocatorImplINS_17new_del_allocatorINS_6MVTimeEEEE9allocatorE@Base 3.2.1
 _ZN8casacore17Allocator_private17BulkAllocatorImplINS_17new_del_allocatorINS_6MVTimeEEEE9constructEPS3_m@Base 3.2.1
 _ZN8casacore17Allocator_private17BulkAllocatorImplINS_17new_del_allocatorINS_6MVTimeEEEE9constructEPS3_mPKS3_@Base 3.2.1
 _ZN8casacore17Allocator_private17BulkAllocatorImplINS_17new_del_allocatorINS_6MVTimeEEEE9constructEPS3_mRKS3_@Base 3.2.1
 _ZN8casacore17Allocator_private17BulkAllocatorImplINS_17new_del_allocatorINS_6MVTimeEEEED0Ev@Base 3.2.1
 _ZN8casacore17Allocator_private17BulkAllocatorImplINS_17new_del_allocatorINS_6MVTimeEEEED1Ev@Base 3.2.1
 _ZN8casacore17Allocator_private17BulkAllocatorImplINS_17new_del_allocatorINS_6MVTimeEEEED2Ev@Base 3.2.1
 _ZN8casacore17Allocator_private17BulkAllocatorImplINS_17new_del_allocatorINS_6VectorINS_5SliceEEEEEE10deallocateEPS5_m@Base 3.2.1
 _ZN8casacore17Allocator_private17BulkAllocatorImplINS_17new_del_allocatorINS_6VectorINS_5SliceEEEEEE7destroyEPS5_m@Base 3.2.1
 _ZN8casacore17Allocator_private17BulkAllocatorImplINS_17new_del_allocatorINS_6VectorINS_5SliceEEEEEE8allocateEmPKv@Base 3.2.1
 _ZN8casacore17Allocator_private17BulkAllocatorImplINS_17new_del_allocatorINS_6VectorINS_5SliceEEEEEE9allocatorE@Base 3.2.1
 _ZN8casacore17Allocator_private17BulkAllocatorImplINS_17new_del_allocatorINS_6VectorINS_5SliceEEEEEE9constructEPS5_m@Base 3.2.1
 _ZN8casacore17Allocator_private17BulkAllocatorImplINS_17new_del_allocatorINS_6VectorINS_5SliceEEEEEE9constructEPS5_mPKS5_@Base 3.2.1
 _ZN8casacore17Allocator_private17BulkAllocatorImplINS_17new_del_allocatorINS_6VectorINS_5SliceEEEEEE9constructEPS5_mRKS5_@Base 3.2.1
 _ZN8casacore17Allocator_private17BulkAllocatorImplINS_17new_del_allocatorINS_6VectorINS_5SliceEEEEEED0Ev@Base 3.2.1
 _ZN8casacore17Allocator_private17BulkAllocatorImplINS_17new_del_allocatorINS_6VectorINS_5SliceEEEEEED1Ev@Base 3.2.1
 _ZN8casacore17Allocator_private17BulkAllocatorImplINS_17new_del_allocatorINS_6VectorINS_5SliceEEEEEED2Ev@Base 3.2.1
 _ZN8casacore17Allocator_private17BulkAllocatorImplINS_17new_del_allocatorIPNS_6SlicerEEEE10deallocateEPS4_m@Base 3.2.1
 _ZN8casacore17Allocator_private17BulkAllocatorImplINS_17new_del_allocatorIPNS_6SlicerEEEE7destroyEPS4_m@Base 3.2.1
 _ZN8casacore17Allocator_private17BulkAllocatorImplINS_17new_del_allocatorIPNS_6SlicerEEEE8allocateEmPKv@Base 3.2.1
 _ZN8casacore17Allocator_private17BulkAllocatorImplINS_17new_del_allocatorIPNS_6SlicerEEEE9allocatorE@Base 3.2.1
 _ZN8casacore17Allocator_private17BulkAllocatorImplINS_17new_del_allocatorIPNS_6SlicerEEEE9constructEPS4_m@Base 3.2.1
 _ZN8casacore17Allocator_private17BulkAllocatorImplINS_17new_del_allocatorIPNS_6SlicerEEEE9constructEPS4_mPKS4_@Base 3.2.1
 _ZN8casacore17Allocator_private17BulkAllocatorImplINS_17new_del_allocatorIPNS_6SlicerEEEE9constructEPS4_mRKS4_@Base 3.2.1
 _ZN8casacore17Allocator_private17BulkAllocatorImplINS_17new_del_allocatorIPNS_6SlicerEEEED0Ev@Base 3.2.1
 _ZN8casacore17Allocator_private17BulkAllocatorImplINS_17new_del_allocatorIPNS_6SlicerEEEED1Ev@Base 3.2.1
 _ZN8casacore17Allocator_private17BulkAllocatorImplINS_17new_del_allocatorIPNS_6SlicerEEEED2Ev@Base 3.2.1
 _ZN8casacore17Allocator_private17BulkAllocatorImplINS_18casacore_allocatorINS_10CountedPtrINS_11BaseCompareEEELm32EEEE10deallocateEPS5_m@Base 3.2.1
 _ZN8casacore17Allocator_private17BulkAllocatorImplINS_18casacore_allocatorINS_10CountedPtrINS_11BaseCompareEEELm32EEEE7destroyEPS5_m@Base 3.2.1
 _ZN8casacore17Allocator_private17BulkAllocatorImplINS_18casacore_allocatorINS_10CountedPtrINS_11BaseCompareEEELm32EEEE8allocateEmPKv@Base 3.2.1
 _ZN8casacore17Allocator_private17BulkAllocatorImplINS_18casacore_allocatorINS_10CountedPtrINS_11BaseCompareEEELm32EEEE9allocatorE@Base 3.2.1
 _ZN8casacore17Allocator_private17BulkAllocatorImplINS_18casacore_allocatorINS_10CountedPtrINS_11BaseCompareEEELm32EEEE9constructEPS5_m@Base 3.2.1
 _ZN8casacore17Allocator_private17BulkAllocatorImplINS_18casacore_allocatorINS_10CountedPtrINS_11BaseCompareEEELm32EEEE9constructEPS5_mPKS5_@Base 3.2.1
 _ZN8casacore17Allocator_private17BulkAllocatorImplINS_18casacore_allocatorINS_10CountedPtrINS_11BaseCompareEEELm32EEEE9constructEPS5_mRKS5_@Base 3.2.1
 _ZN8casacore17Allocator_private17BulkAllocatorImplINS_18casacore_allocatorINS_10CountedPtrINS_11BaseCompareEEELm32EEEED0Ev@Base 3.2.1
 _ZN8casacore17Allocator_private17BulkAllocatorImplINS_18casacore_allocatorINS_10CountedPtrINS_11BaseCompareEEELm32EEEED1Ev@Base 3.2.1
 _ZN8casacore17Allocator_private17BulkAllocatorImplINS_18casacore_allocatorINS_10CountedPtrINS_11BaseCompareEEELm32EEEED2Ev@Base 3.2.1
 _ZN8casacore17Allocator_private17BulkAllocatorImplINS_18casacore_allocatorINS_11ArrayColumnIbEELm32EEEE10deallocateEPS4_m@Base 3.2.1
 _ZN8casacore17Allocator_private17BulkAllocatorImplINS_18casacore_allocatorINS_11ArrayColumnIbEELm32EEEE7destroyEPS4_m@Base 3.2.1
 _ZN8casacore17Allocator_private17BulkAllocatorImplINS_18casacore_allocatorINS_11ArrayColumnIbEELm32EEEE8allocateEmPKv@Base 3.2.1
 _ZN8casacore17Allocator_private17BulkAllocatorImplINS_18casacore_allocatorINS_11ArrayColumnIbEELm32EEEE9allocatorE@Base 3.2.1
 _ZN8casacore17Allocator_private17BulkAllocatorImplINS_18casacore_allocatorINS_11ArrayColumnIbEELm32EEEE9constructEPS4_m@Base 3.2.1
 _ZN8casacore17Allocator_private17BulkAllocatorImplINS_18casacore_allocatorINS_11ArrayColumnIbEELm32EEEE9constructEPS4_mPKS4_@Base 3.2.1
 _ZN8casacore17Allocator_private17BulkAllocatorImplINS_18casacore_allocatorINS_11ArrayColumnIbEELm32EEEE9constructEPS4_mRKS4_@Base 3.2.1
 _ZN8casacore17Allocator_private17BulkAllocatorImplINS_18casacore_allocatorINS_11ArrayColumnIbEELm32EEEED0Ev@Base 3.2.1
 _ZN8casacore17Allocator_private17BulkAllocatorImplINS_18casacore_allocatorINS_11ArrayColumnIbEELm32EEEED1Ev@Base 3.2.1
 _ZN8casacore17Allocator_private17BulkAllocatorImplINS_18casacore_allocatorINS_11ArrayColumnIbEELm32EEEED2Ev@Base 3.2.1
 _ZN8casacore17Allocator_private17BulkAllocatorImplINS_18casacore_allocatorINS_11TableColumnELm32EEEE10deallocateEPS3_m@Base 3.2.1
 _ZN8casacore17Allocator_private17BulkAllocatorImplINS_18casacore_allocatorINS_11TableColumnELm32EEEE7destroyEPS3_m@Base 3.2.1
 _ZN8casacore17Allocator_private17BulkAllocatorImplINS_18casacore_allocatorINS_11TableColumnELm32EEEE8allocateEmPKv@Base 3.2.1
 _ZN8casacore17Allocator_private17BulkAllocatorImplINS_18casacore_allocatorINS_11TableColumnELm32EEEE9allocatorE@Base 3.2.1
 _ZN8casacore17Allocator_private17BulkAllocatorImplINS_18casacore_allocatorINS_11TableColumnELm32EEEE9constructEPS3_m@Base 3.2.1
 _ZN8casacore17Allocator_private17BulkAllocatorImplINS_18casacore_allocatorINS_11TableColumnELm32EEEE9constructEPS3_mPKS3_@Base 3.2.1
 _ZN8casacore17Allocator_private17BulkAllocatorImplINS_18casacore_allocatorINS_11TableColumnELm32EEEE9constructEPS3_mRKS3_@Base 3.2.1
 _ZN8casacore17Allocator_private17BulkAllocatorImplINS_18casacore_allocatorINS_11TableColumnELm32EEEED0Ev@Base 3.2.1
 _ZN8casacore17Allocator_private17BulkAllocatorImplINS_18casacore_allocatorINS_11TableColumnELm32EEEED1Ev@Base 3.2.1
 _ZN8casacore17Allocator_private17BulkAllocatorImplINS_18casacore_allocatorINS_11TableColumnELm32EEEED2Ev@Base 3.2.1
 _ZN8casacore17Allocator_private17BulkAllocatorImplINS_18casacore_allocatorINS_11TableRecordELm32EEEE10deallocateEPS3_m@Base 3.2.1
 _ZN8casacore17Allocator_private17BulkAllocatorImplINS_18casacore_allocatorINS_11TableRecordELm32EEEE7destroyEPS3_m@Base 3.2.1
 _ZN8casacore17Allocator_private17BulkAllocatorImplINS_18casacore_allocatorINS_11TableRecordELm32EEEE8allocateEmPKv@Base 3.2.1
 _ZN8casacore17Allocator_private17BulkAllocatorImplINS_18casacore_allocatorINS_11TableRecordELm32EEEE9allocatorE@Base 3.2.1
 _ZN8casacore17Allocator_private17BulkAllocatorImplINS_18casacore_allocatorINS_11TableRecordELm32EEEE9constructEPS3_m@Base 3.2.1
 _ZN8casacore17Allocator_private17BulkAllocatorImplINS_18casacore_allocatorINS_11TableRecordELm32EEEE9constructEPS3_mPKS3_@Base 3.2.1
 _ZN8casacore17Allocator_private17BulkAllocatorImplINS_18casacore_allocatorINS_11TableRecordELm32EEEE9constructEPS3_mRKS3_@Base 3.2.1
 _ZN8casacore17Allocator_private17BulkAllocatorImplINS_18casacore_allocatorINS_11TableRecordELm32EEEED0Ev@Base 3.2.1
 _ZN8casacore17Allocator_private17BulkAllocatorImplINS_18casacore_allocatorINS_11TableRecordELm32EEEED1Ev@Base 3.2.1
 _ZN8casacore17Allocator_private17BulkAllocatorImplINS_18casacore_allocatorINS_11TableRecordELm32EEEED2Ev@Base 3.2.1
 _ZN8casacore17Allocator_private17BulkAllocatorImplINS_18casacore_allocatorINS_12LoggerHolderELm32EEEE10deallocateEPS3_m@Base 3.2.1
 _ZN8casacore17Allocator_private17BulkAllocatorImplINS_18casacore_allocatorINS_12LoggerHolderELm32EEEE7destroyEPS3_m@Base 3.2.1
 _ZN8casacore17Allocator_private17BulkAllocatorImplINS_18casacore_allocatorINS_12LoggerHolderELm32EEEE8allocateEmPKv@Base 3.2.1
 _ZN8casacore17Allocator_private17BulkAllocatorImplINS_18casacore_allocatorINS_12LoggerHolderELm32EEEE9allocatorE@Base 3.2.1
 _ZN8casacore17Allocator_private17BulkAllocatorImplINS_18casacore_allocatorINS_12LoggerHolderELm32EEEE9constructEPS3_m@Base 3.2.1
 _ZN8casacore17Allocator_private17BulkAllocatorImplINS_18casacore_allocatorINS_12LoggerHolderELm32EEEE9constructEPS3_mPKS3_@Base 3.2.1
 _ZN8casacore17Allocator_private17BulkAllocatorImplINS_18casacore_allocatorINS_12LoggerHolderELm32EEEE9constructEPS3_mRKS3_@Base 3.2.1
 _ZN8casacore17Allocator_private17BulkAllocatorImplINS_18casacore_allocatorINS_12LoggerHolderELm32EEEED0Ev@Base 3.2.1
 _ZN8casacore17Allocator_private17BulkAllocatorImplINS_18casacore_allocatorINS_12LoggerHolderELm32EEEED1Ev@Base 3.2.1
 _ZN8casacore17Allocator_private17BulkAllocatorImplINS_18casacore_allocatorINS_12LoggerHolderELm32EEEED2Ev@Base 3.2.1
 _ZN8casacore17Allocator_private17BulkAllocatorImplINS_18casacore_allocatorINS_13TableExprNodeELm32EEEE10deallocateEPS3_m@Base 3.2.1
 _ZN8casacore17Allocator_private17BulkAllocatorImplINS_18casacore_allocatorINS_13TableExprNodeELm32EEEE7destroyEPS3_m@Base 3.2.1
 _ZN8casacore17Allocator_private17BulkAllocatorImplINS_18casacore_allocatorINS_13TableExprNodeELm32EEEE8allocateEmPKv@Base 3.2.1
 _ZN8casacore17Allocator_private17BulkAllocatorImplINS_18casacore_allocatorINS_13TableExprNodeELm32EEEE9allocatorE@Base 3.2.1
 _ZN8casacore17Allocator_private17BulkAllocatorImplINS_18casacore_allocatorINS_13TableExprNodeELm32EEEE9constructEPS3_m@Base 3.2.1
 _ZN8casacore17Allocator_private17BulkAllocatorImplINS_18casacore_allocatorINS_13TableExprNodeELm32EEEE9constructEPS3_mPKS3_@Base 3.2.1
 _ZN8casacore17Allocator_private17BulkAllocatorImplINS_18casacore_allocatorINS_13TableExprNodeELm32EEEE9constructEPS3_mRKS3_@Base 3.2.1
 _ZN8casacore17Allocator_private17BulkAllocatorImplINS_18casacore_allocatorINS_13TableExprNodeELm32EEEED0Ev@Base 3.2.1
 _ZN8casacore17Allocator_private17BulkAllocatorImplINS_18casacore_allocatorINS_13TableExprNodeELm32EEEED1Ev@Base 3.2.1
 _ZN8casacore17Allocator_private17BulkAllocatorImplINS_18casacore_allocatorINS_13TableExprNodeELm32EEEED2Ev@Base 3.2.1
 _ZN8casacore17Allocator_private17BulkAllocatorImplINS_18casacore_allocatorINS_14TableExprRangeELm32EEEE10deallocateEPS3_m@Base 3.2.1
 _ZN8casacore17Allocator_private17BulkAllocatorImplINS_18casacore_allocatorINS_14TableExprRangeELm32EEEE7destroyEPS3_m@Base 3.2.1
 _ZN8casacore17Allocator_private17BulkAllocatorImplINS_18casacore_allocatorINS_14TableExprRangeELm32EEEE8allocateEmPKv@Base 3.2.1
 _ZN8casacore17Allocator_private17BulkAllocatorImplINS_18casacore_allocatorINS_14TableExprRangeELm32EEEE9allocatorE@Base 3.2.1
 _ZN8casacore17Allocator_private17BulkAllocatorImplINS_18casacore_allocatorINS_14TableExprRangeELm32EEEE9constructEPS3_m@Base 3.2.1
 _ZN8casacore17Allocator_private17BulkAllocatorImplINS_18casacore_allocatorINS_14TableExprRangeELm32EEEE9constructEPS3_mPKS3_@Base 3.2.1
 _ZN8casacore17Allocator_private17BulkAllocatorImplINS_18casacore_allocatorINS_14TableExprRangeELm32EEEE9constructEPS3_mRKS3_@Base 3.2.1
 _ZN8casacore17Allocator_private17BulkAllocatorImplINS_18casacore_allocatorINS_14TableExprRangeELm32EEEED0Ev@Base 3.2.1
 _ZN8casacore17Allocator_private17BulkAllocatorImplINS_18casacore_allocatorINS_14TableExprRangeELm32EEEED1Ev@Base 3.2.1
 _ZN8casacore17Allocator_private17BulkAllocatorImplINS_18casacore_allocatorINS_14TableExprRangeELm32EEEED2Ev@Base 3.2.1
 _ZN8casacore17Allocator_private17BulkAllocatorImplINS_18casacore_allocatorINS_5SliceELm32EEEE10deallocateEPS3_m@Base 3.2.1
 _ZN8casacore17Allocator_private17BulkAllocatorImplINS_18casacore_allocatorINS_5SliceELm32EEEE7destroyEPS3_m@Base 3.2.1
 _ZN8casacore17Allocator_private17BulkAllocatorImplINS_18casacore_allocatorINS_5SliceELm32EEEE8allocateEmPKv@Base 3.2.1
 _ZN8casacore17Allocator_private17BulkAllocatorImplINS_18casacore_allocatorINS_5SliceELm32EEEE9allocatorE@Base 3.2.1
 _ZN8casacore17Allocator_private17BulkAllocatorImplINS_18casacore_allocatorINS_5SliceELm32EEEE9constructEPS3_m@Base 3.2.1
 _ZN8casacore17Allocator_private17BulkAllocatorImplINS_18casacore_allocatorINS_5SliceELm32EEEE9constructEPS3_mPKS3_@Base 3.2.1
 _ZN8casacore17Allocator_private17BulkAllocatorImplINS_18casacore_allocatorINS_5SliceELm32EEEE9constructEPS3_mRKS3_@Base 3.2.1
 _ZN8casacore17Allocator_private17BulkAllocatorImplINS_18casacore_allocatorINS_5SliceELm32EEEED0Ev@Base 3.2.1
 _ZN8casacore17Allocator_private17BulkAllocatorImplINS_18casacore_allocatorINS_5SliceELm32EEEED1Ev@Base 3.2.1
 _ZN8casacore17Allocator_private17BulkAllocatorImplINS_18casacore_allocatorINS_5SliceELm32EEEED2Ev@Base 3.2.1
 _ZN8casacore17Allocator_private17BulkAllocatorImplINS_18casacore_allocatorINS_5TableELm32EEEE10deallocateEPS3_m@Base 3.2.1
 _ZN8casacore17Allocator_private17BulkAllocatorImplINS_18casacore_allocatorINS_5TableELm32EEEE7destroyEPS3_m@Base 3.2.1
 _ZN8casacore17Allocator_private17BulkAllocatorImplINS_18casacore_allocatorINS_5TableELm32EEEE8allocateEmPKv@Base 3.2.1
 _ZN8casacore17Allocator_private17BulkAllocatorImplINS_18casacore_allocatorINS_5TableELm32EEEE9allocatorE@Base 3.2.1
 _ZN8casacore17Allocator_private17BulkAllocatorImplINS_18casacore_allocatorINS_5TableELm32EEEE9constructEPS3_m@Base 3.2.1
 _ZN8casacore17Allocator_private17BulkAllocatorImplINS_18casacore_allocatorINS_5TableELm32EEEE9constructEPS3_mPKS3_@Base 3.2.1
 _ZN8casacore17Allocator_private17BulkAllocatorImplINS_18casacore_allocatorINS_5TableELm32EEEE9constructEPS3_mRKS3_@Base 3.2.1
 _ZN8casacore17Allocator_private17BulkAllocatorImplINS_18casacore_allocatorINS_5TableELm32EEEED0Ev@Base 3.2.1
 _ZN8casacore17Allocator_private17BulkAllocatorImplINS_18casacore_allocatorINS_5TableELm32EEEED1Ev@Base 3.2.1
 _ZN8casacore17Allocator_private17BulkAllocatorImplINS_18casacore_allocatorINS_5TableELm32EEEED2Ev@Base 3.2.1
 _ZN8casacore17Allocator_private17BulkAllocatorImplINS_18casacore_allocatorINS_6MVTimeELm32EEEE10deallocateEPS3_m@Base 3.2.1
 _ZN8casacore17Allocator_private17BulkAllocatorImplINS_18casacore_allocatorINS_6MVTimeELm32EEEE7destroyEPS3_m@Base 3.2.1
 _ZN8casacore17Allocator_private17BulkAllocatorImplINS_18casacore_allocatorINS_6MVTimeELm32EEEE8allocateEmPKv@Base 3.2.1
 _ZN8casacore17Allocator_private17BulkAllocatorImplINS_18casacore_allocatorINS_6MVTimeELm32EEEE9allocatorE@Base 3.2.1
 _ZN8casacore17Allocator_private17BulkAllocatorImplINS_18casacore_allocatorINS_6MVTimeELm32EEEE9constructEPS3_m@Base 3.2.1
 _ZN8casacore17Allocator_private17BulkAllocatorImplINS_18casacore_allocatorINS_6MVTimeELm32EEEE9constructEPS3_mPKS3_@Base 3.2.1
 _ZN8casacore17Allocator_private17BulkAllocatorImplINS_18casacore_allocatorINS_6MVTimeELm32EEEE9constructEPS3_mRKS3_@Base 3.2.1
 _ZN8casacore17Allocator_private17BulkAllocatorImplINS_18casacore_allocatorINS_6MVTimeELm32EEEED0Ev@Base 3.2.1
 _ZN8casacore17Allocator_private17BulkAllocatorImplINS_18casacore_allocatorINS_6MVTimeELm32EEEED1Ev@Base 3.2.1
 _ZN8casacore17Allocator_private17BulkAllocatorImplINS_18casacore_allocatorINS_6MVTimeELm32EEEED2Ev@Base 3.2.1
 _ZN8casacore17Allocator_private17BulkAllocatorImplINS_18casacore_allocatorINS_6StringELm32EEEE10deallocateEPS3_m@Base 3.2.1
 _ZN8casacore17Allocator_private17BulkAllocatorImplINS_18casacore_allocatorINS_6StringELm32EEEE7destroyEPS3_m@Base 3.2.1
 _ZN8casacore17Allocator_private17BulkAllocatorImplINS_18casacore_allocatorINS_6StringELm32EEEE8allocateEmPKv@Base 3.2.1
 _ZN8casacore17Allocator_private17BulkAllocatorImplINS_18casacore_allocatorINS_6StringELm32EEEE9allocatorE@Base 3.2.1
 _ZN8casacore17Allocator_private17BulkAllocatorImplINS_18casacore_allocatorINS_6StringELm32EEEE9constructEPS3_m@Base 3.2.1
 _ZN8casacore17Allocator_private17BulkAllocatorImplINS_18casacore_allocatorINS_6StringELm32EEEE9constructEPS3_mPKS3_@Base 3.2.1
 _ZN8casacore17Allocator_private17BulkAllocatorImplINS_18casacore_allocatorINS_6StringELm32EEEE9constructEPS3_mRKS3_@Base 3.2.1
 _ZN8casacore17Allocator_private17BulkAllocatorImplINS_18casacore_allocatorINS_6StringELm32EEEED0Ev@Base 3.2.1
 _ZN8casacore17Allocator_private17BulkAllocatorImplINS_18casacore_allocatorINS_6StringELm32EEEED1Ev@Base 3.2.1
 _ZN8casacore17Allocator_private17BulkAllocatorImplINS_18casacore_allocatorINS_6StringELm32EEEED2Ev@Base 3.2.1
 _ZN8casacore17Allocator_private17BulkAllocatorImplINS_18casacore_allocatorINS_6VectorINS_5SliceEEELm32EEEE10deallocateEPS5_m@Base 3.2.1
 _ZN8casacore17Allocator_private17BulkAllocatorImplINS_18casacore_allocatorINS_6VectorINS_5SliceEEELm32EEEE7destroyEPS5_m@Base 3.2.1
 _ZN8casacore17Allocator_private17BulkAllocatorImplINS_18casacore_allocatorINS_6VectorINS_5SliceEEELm32EEEE8allocateEmPKv@Base 3.2.1
 _ZN8casacore17Allocator_private17BulkAllocatorImplINS_18casacore_allocatorINS_6VectorINS_5SliceEEELm32EEEE9allocatorE@Base 3.2.1
 _ZN8casacore17Allocator_private17BulkAllocatorImplINS_18casacore_allocatorINS_6VectorINS_5SliceEEELm32EEEE9constructEPS5_m@Base 3.2.1
 _ZN8casacore17Allocator_private17BulkAllocatorImplINS_18casacore_allocatorINS_6VectorINS_5SliceEEELm32EEEE9constructEPS5_mPKS5_@Base 3.2.1
 _ZN8casacore17Allocator_private17BulkAllocatorImplINS_18casacore_allocatorINS_6VectorINS_5SliceEEELm32EEEE9constructEPS5_mRKS5_@Base 3.2.1
 _ZN8casacore17Allocator_private17BulkAllocatorImplINS_18casacore_allocatorINS_6VectorINS_5SliceEEELm32EEEED0Ev@Base 3.2.1
 _ZN8casacore17Allocator_private17BulkAllocatorImplINS_18casacore_allocatorINS_6VectorINS_5SliceEEELm32EEEED1Ev@Base 3.2.1
 _ZN8casacore17Allocator_private17BulkAllocatorImplINS_18casacore_allocatorINS_6VectorINS_5SliceEEELm32EEEED2Ev@Base 3.2.1
 _ZN8casacore17Allocator_private17BulkAllocatorImplINS_18casacore_allocatorINS_9IPositionELm32EEEE10deallocateEPS3_m@Base 3.2.1
 _ZN8casacore17Allocator_private17BulkAllocatorImplINS_18casacore_allocatorINS_9IPositionELm32EEEE7destroyEPS3_m@Base 3.2.1
 _ZN8casacore17Allocator_private17BulkAllocatorImplINS_18casacore_allocatorINS_9IPositionELm32EEEE8allocateEmPKv@Base 3.2.1
 _ZN8casacore17Allocator_private17BulkAllocatorImplINS_18casacore_allocatorINS_9IPositionELm32EEEE9allocatorE@Base 3.2.1
 _ZN8casacore17Allocator_private17BulkAllocatorImplINS_18casacore_allocatorINS_9IPositionELm32EEEE9constructEPS3_m@Base 3.2.1
 _ZN8casacore17Allocator_private17BulkAllocatorImplINS_18casacore_allocatorINS_9IPositionELm32EEEE9constructEPS3_mPKS3_@Base 3.2.1
 _ZN8casacore17Allocator_private17BulkAllocatorImplINS_18casacore_allocatorINS_9IPositionELm32EEEE9constructEPS3_mRKS3_@Base 3.2.1
 _ZN8casacore17Allocator_private17BulkAllocatorImplINS_18casacore_allocatorINS_9IPositionELm32EEEED0Ev@Base 3.2.1
 _ZN8casacore17Allocator_private17BulkAllocatorImplINS_18casacore_allocatorINS_9IPositionELm32EEEED1Ev@Base 3.2.1
 _ZN8casacore17Allocator_private17BulkAllocatorImplINS_18casacore_allocatorINS_9IPositionELm32EEEED2Ev@Base 3.2.1
 _ZN8casacore17Allocator_private17BulkAllocatorImplINS_18casacore_allocatorIPNS_10BaseColumnELm32EEEE10deallocateEPS4_m@Base 3.2.1
 _ZN8casacore17Allocator_private17BulkAllocatorImplINS_18casacore_allocatorIPNS_10BaseColumnELm32EEEE7destroyEPS4_m@Base 3.2.1
 _ZN8casacore17Allocator_private17BulkAllocatorImplINS_18casacore_allocatorIPNS_10BaseColumnELm32EEEE8allocateEmPKv@Base 3.2.1
 _ZN8casacore17Allocator_private17BulkAllocatorImplINS_18casacore_allocatorIPNS_10BaseColumnELm32EEEE9allocatorE@Base 3.2.1
 _ZN8casacore17Allocator_private17BulkAllocatorImplINS_18casacore_allocatorIPNS_10BaseColumnELm32EEEE9constructEPS4_m@Base 3.2.1
 _ZN8casacore17Allocator_private17BulkAllocatorImplINS_18casacore_allocatorIPNS_10BaseColumnELm32EEEE9constructEPS4_mPKS4_@Base 3.2.1
 _ZN8casacore17Allocator_private17BulkAllocatorImplINS_18casacore_allocatorIPNS_10BaseColumnELm32EEEE9constructEPS4_mRKS4_@Base 3.2.1
 _ZN8casacore17Allocator_private17BulkAllocatorImplINS_18casacore_allocatorIPNS_10BaseColumnELm32EEEED0Ev@Base 3.2.1
 _ZN8casacore17Allocator_private17BulkAllocatorImplINS_18casacore_allocatorIPNS_10BaseColumnELm32EEEED1Ev@Base 3.2.1
 _ZN8casacore17Allocator_private17BulkAllocatorImplINS_18casacore_allocatorIPNS_10BaseColumnELm32EEEED2Ev@Base 3.2.1
 _ZN8casacore17Allocator_private17BulkAllocatorImplINS_18casacore_allocatorIPNS_6SlicerELm32EEEE10deallocateEPS4_m@Base 3.2.1
 _ZN8casacore17Allocator_private17BulkAllocatorImplINS_18casacore_allocatorIPNS_6SlicerELm32EEEE7destroyEPS4_m@Base 3.2.1
 _ZN8casacore17Allocator_private17BulkAllocatorImplINS_18casacore_allocatorIPNS_6SlicerELm32EEEE8allocateEmPKv@Base 3.2.1
 _ZN8casacore17Allocator_private17BulkAllocatorImplINS_18casacore_allocatorIPNS_6SlicerELm32EEEE9allocatorE@Base 3.2.1
 _ZN8casacore17Allocator_private17BulkAllocatorImplINS_18casacore_allocatorIPNS_6SlicerELm32EEEE9constructEPS4_m@Base 3.2.1
 _ZN8casacore17Allocator_private17BulkAllocatorImplINS_18casacore_allocatorIPNS_6SlicerELm32EEEE9constructEPS4_mPKS4_@Base 3.2.1
 _ZN8casacore17Allocator_private17BulkAllocatorImplINS_18casacore_allocatorIPNS_6SlicerELm32EEEE9constructEPS4_mRKS4_@Base 3.2.1
 _ZN8casacore17Allocator_private17BulkAllocatorImplINS_18casacore_allocatorIPNS_6SlicerELm32EEEED0Ev@Base 3.2.1
 _ZN8casacore17Allocator_private17BulkAllocatorImplINS_18casacore_allocatorIPNS_6SlicerELm32EEEED1Ev@Base 3.2.1
 _ZN8casacore17Allocator_private17BulkAllocatorImplINS_18casacore_allocatorIPNS_6SlicerELm32EEEED2Ev@Base 3.2.1
 _ZN8casacore17Allocator_private17BulkAllocatorImplINS_18casacore_allocatorIPNS_9BaseTableELm32EEEE10deallocateEPS4_m@Base 3.2.1
 _ZN8casacore17Allocator_private17BulkAllocatorImplINS_18casacore_allocatorIPNS_9BaseTableELm32EEEE7destroyEPS4_m@Base 3.2.1
 _ZN8casacore17Allocator_private17BulkAllocatorImplINS_18casacore_allocatorIPNS_9BaseTableELm32EEEE8allocateEmPKv@Base 3.2.1
 _ZN8casacore17Allocator_private17BulkAllocatorImplINS_18casacore_allocatorIPNS_9BaseTableELm32EEEE9allocatorE@Base 3.2.1
 _ZN8casacore17Allocator_private17BulkAllocatorImplINS_18casacore_allocatorIPNS_9BaseTableELm32EEEE9constructEPS4_m@Base 3.2.1
 _ZN8casacore17Allocator_private17BulkAllocatorImplINS_18casacore_allocatorIPNS_9BaseTableELm32EEEE9constructEPS4_mPKS4_@Base 3.2.1
 _ZN8casacore17Allocator_private17BulkAllocatorImplINS_18casacore_allocatorIPNS_9BaseTableELm32EEEE9constructEPS4_mRKS4_@Base 3.2.1
 _ZN8casacore17Allocator_private17BulkAllocatorImplINS_18casacore_allocatorIPNS_9BaseTableELm32EEEED0Ev@Base 3.2.1
 _ZN8casacore17Allocator_private17BulkAllocatorImplINS_18casacore_allocatorIPNS_9BaseTableELm32EEEED1Ev@Base 3.2.1
 _ZN8casacore17Allocator_private17BulkAllocatorImplINS_18casacore_allocatorIPNS_9BaseTableELm32EEEED2Ev@Base 3.2.1
 _ZN8casacore17Allocator_private17BulkAllocatorImplINS_18casacore_allocatorIPvLm32EEEE10deallocateEPS3_m@Base 3.2.1
 _ZN8casacore17Allocator_private17BulkAllocatorImplINS_18casacore_allocatorIPvLm32EEEE7destroyEPS3_m@Base 3.2.1
 _ZN8casacore17Allocator_private17BulkAllocatorImplINS_18casacore_allocatorIPvLm32EEEE8allocateEmPKv@Base 3.2.1
 _ZN8casacore17Allocator_private17BulkAllocatorImplINS_18casacore_allocatorIPvLm32EEEE9allocatorE@Base 3.2.1
 _ZN8casacore17Allocator_private17BulkAllocatorImplINS_18casacore_allocatorIPvLm32EEEE9constructEPS3_m@Base 3.2.1
 _ZN8casacore17Allocator_private17BulkAllocatorImplINS_18casacore_allocatorIPvLm32EEEE9constructEPS3_mPKS3_@Base 3.2.1
 _ZN8casacore17Allocator_private17BulkAllocatorImplINS_18casacore_allocatorIPvLm32EEEE9constructEPS3_mRKS3_@Base 3.2.1
 _ZN8casacore17Allocator_private17BulkAllocatorImplINS_18casacore_allocatorIPvLm32EEEED0Ev@Base 3.2.1
 _ZN8casacore17Allocator_private17BulkAllocatorImplINS_18casacore_allocatorIPvLm32EEEED1Ev@Base 3.2.1
 _ZN8casacore17Allocator_private17BulkAllocatorImplINS_18casacore_allocatorIPvLm32EEEED2Ev@Base 3.2.1
 _ZN8casacore17Allocator_private17BulkAllocatorImplINS_18casacore_allocatorISt7complexIdELm32EEEE10deallocateEPS4_m@Base 3.2.1
 _ZN8casacore17Allocator_private17BulkAllocatorImplINS_18casacore_allocatorISt7complexIdELm32EEEE7destroyEPS4_m@Base 3.2.1
 _ZN8casacore17Allocator_private17BulkAllocatorImplINS_18casacore_allocatorISt7complexIdELm32EEEE8allocateEmPKv@Base 3.2.1
 _ZN8casacore17Allocator_private17BulkAllocatorImplINS_18casacore_allocatorISt7complexIdELm32EEEE9allocatorE@Base 3.2.1
 _ZN8casacore17Allocator_private17BulkAllocatorImplINS_18casacore_allocatorISt7complexIdELm32EEEE9constructEPS4_m@Base 3.2.1
 _ZN8casacore17Allocator_private17BulkAllocatorImplINS_18casacore_allocatorISt7complexIdELm32EEEE9constructEPS4_mPKS4_@Base 3.2.1
 _ZN8casacore17Allocator_private17BulkAllocatorImplINS_18casacore_allocatorISt7complexIdELm32EEEE9constructEPS4_mRKS4_@Base 3.2.1
 _ZN8casacore17Allocator_private17BulkAllocatorImplINS_18casacore_allocatorISt7complexIdELm32EEEED0Ev@Base 3.2.1
 _ZN8casacore17Allocator_private17BulkAllocatorImplINS_18casacore_allocatorISt7complexIdELm32EEEED1Ev@Base 3.2.1
 _ZN8casacore17Allocator_private17BulkAllocatorImplINS_18casacore_allocatorISt7complexIdELm32EEEED2Ev@Base 3.2.1
 _ZN8casacore17Allocator_private17BulkAllocatorImplINS_18casacore_allocatorISt7complexIfELm32EEEE10deallocateEPS4_m@Base 3.2.1
 _ZN8casacore17Allocator_private17BulkAllocatorImplINS_18casacore_allocatorISt7complexIfELm32EEEE7destroyEPS4_m@Base 3.2.1
 _ZN8casacore17Allocator_private17BulkAllocatorImplINS_18casacore_allocatorISt7complexIfELm32EEEE8allocateEmPKv@Base 3.2.1
 _ZN8casacore17Allocator_private17BulkAllocatorImplINS_18casacore_allocatorISt7complexIfELm32EEEE9allocatorE@Base 3.2.1
 _ZN8casacore17Allocator_private17BulkAllocatorImplINS_18casacore_allocatorISt7complexIfELm32EEEE9constructEPS4_m@Base 3.2.1
 _ZN8casacore17Allocator_private17BulkAllocatorImplINS_18casacore_allocatorISt7complexIfELm32EEEE9constructEPS4_mPKS4_@Base 3.2.1
 _ZN8casacore17Allocator_private17BulkAllocatorImplINS_18casacore_allocatorISt7complexIfELm32EEEE9constructEPS4_mRKS4_@Base 3.2.1
 _ZN8casacore17Allocator_private17BulkAllocatorImplINS_18casacore_allocatorISt7complexIfELm32EEEED0Ev@Base 3.2.1
 _ZN8casacore17Allocator_private17BulkAllocatorImplINS_18casacore_allocatorISt7complexIfELm32EEEED1Ev@Base 3.2.1
 _ZN8casacore17Allocator_private17BulkAllocatorImplINS_18casacore_allocatorISt7complexIfELm32EEEED2Ev@Base 3.2.1
 _ZN8casacore17Allocator_private17BulkAllocatorImplINS_18casacore_allocatorIbLm32EEEE10deallocateEPbm@Base 3.2.1
 _ZN8casacore17Allocator_private17BulkAllocatorImplINS_18casacore_allocatorIbLm32EEEE7destroyEPbm@Base 3.2.1
 _ZN8casacore17Allocator_private17BulkAllocatorImplINS_18casacore_allocatorIbLm32EEEE8allocateEmPKv@Base 3.2.1
 _ZN8casacore17Allocator_private17BulkAllocatorImplINS_18casacore_allocatorIbLm32EEEE9allocatorE@Base 3.2.1
 _ZN8casacore17Allocator_private17BulkAllocatorImplINS_18casacore_allocatorIbLm32EEEE9constructEPbm@Base 3.2.1
 _ZN8casacore17Allocator_private17BulkAllocatorImplINS_18casacore_allocatorIbLm32EEEE9constructEPbmPKb@Base 3.2.1
 _ZN8casacore17Allocator_private17BulkAllocatorImplINS_18casacore_allocatorIbLm32EEEE9constructEPbmRKb@Base 3.2.1
 _ZN8casacore17Allocator_private17BulkAllocatorImplINS_18casacore_allocatorIbLm32EEEED0Ev@Base 3.2.1
 _ZN8casacore17Allocator_private17BulkAllocatorImplINS_18casacore_allocatorIbLm32EEEED1Ev@Base 3.2.1
 _ZN8casacore17Allocator_private17BulkAllocatorImplINS_18casacore_allocatorIbLm32EEEED2Ev@Base 3.2.1
 _ZN8casacore17Allocator_private17BulkAllocatorImplINS_18casacore_allocatorIdLm32EEEE10deallocateEPdm@Base 3.2.1
 _ZN8casacore17Allocator_private17BulkAllocatorImplINS_18casacore_allocatorIdLm32EEEE7destroyEPdm@Base 3.2.1
 _ZN8casacore17Allocator_private17BulkAllocatorImplINS_18casacore_allocatorIdLm32EEEE8allocateEmPKv@Base 3.2.1
 _ZN8casacore17Allocator_private17BulkAllocatorImplINS_18casacore_allocatorIdLm32EEEE9allocatorE@Base 3.2.1
 _ZN8casacore17Allocator_private17BulkAllocatorImplINS_18casacore_allocatorIdLm32EEEE9constructEPdm@Base 3.2.1
 _ZN8casacore17Allocator_private17BulkAllocatorImplINS_18casacore_allocatorIdLm32EEEE9constructEPdmPKd@Base 3.2.1
 _ZN8casacore17Allocator_private17BulkAllocatorImplINS_18casacore_allocatorIdLm32EEEE9constructEPdmRKd@Base 3.2.1
 _ZN8casacore17Allocator_private17BulkAllocatorImplINS_18casacore_allocatorIdLm32EEEED0Ev@Base 3.2.1
 _ZN8casacore17Allocator_private17BulkAllocatorImplINS_18casacore_allocatorIdLm32EEEED1Ev@Base 3.2.1
 _ZN8casacore17Allocator_private17BulkAllocatorImplINS_18casacore_allocatorIdLm32EEEED2Ev@Base 3.2.1
 _ZN8casacore17Allocator_private17BulkAllocatorImplINS_18casacore_allocatorIfLm32EEEE10deallocateEPfm@Base 3.2.1
 _ZN8casacore17Allocator_private17BulkAllocatorImplINS_18casacore_allocatorIfLm32EEEE7destroyEPfm@Base 3.2.1
 _ZN8casacore17Allocator_private17BulkAllocatorImplINS_18casacore_allocatorIfLm32EEEE8allocateEmPKv@Base 3.2.1
 _ZN8casacore17Allocator_private17BulkAllocatorImplINS_18casacore_allocatorIfLm32EEEE9allocatorE@Base 3.2.1
 _ZN8casacore17Allocator_private17BulkAllocatorImplINS_18casacore_allocatorIfLm32EEEE9constructEPfm@Base 3.2.1
 _ZN8casacore17Allocator_private17BulkAllocatorImplINS_18casacore_allocatorIfLm32EEEE9constructEPfmPKf@Base 3.2.1
 _ZN8casacore17Allocator_private17BulkAllocatorImplINS_18casacore_allocatorIfLm32EEEE9constructEPfmRKf@Base 3.2.1
 _ZN8casacore17Allocator_private17BulkAllocatorImplINS_18casacore_allocatorIfLm32EEEED0Ev@Base 3.2.1
 _ZN8casacore17Allocator_private17BulkAllocatorImplINS_18casacore_allocatorIfLm32EEEED1Ev@Base 3.2.1
 _ZN8casacore17Allocator_private17BulkAllocatorImplINS_18casacore_allocatorIfLm32EEEED2Ev@Base 3.2.1
 _ZN8casacore17Allocator_private17BulkAllocatorImplINS_18casacore_allocatorIhLm32EEEE10deallocateEPhm@Base 3.2.1
 _ZN8casacore17Allocator_private17BulkAllocatorImplINS_18casacore_allocatorIhLm32EEEE7destroyEPhm@Base 3.2.1
 _ZN8casacore17Allocator_private17BulkAllocatorImplINS_18casacore_allocatorIhLm32EEEE8allocateEmPKv@Base 3.2.1
 _ZN8casacore17Allocator_private17BulkAllocatorImplINS_18casacore_allocatorIhLm32EEEE9allocatorE@Base 3.2.1
 _ZN8casacore17Allocator_private17BulkAllocatorImplINS_18casacore_allocatorIhLm32EEEE9constructEPhm@Base 3.2.1
 _ZN8casacore17Allocator_private17BulkAllocatorImplINS_18casacore_allocatorIhLm32EEEE9constructEPhmPKh@Base 3.2.1
 _ZN8casacore17Allocator_private17BulkAllocatorImplINS_18casacore_allocatorIhLm32EEEE9constructEPhmRKh@Base 3.2.1
 _ZN8casacore17Allocator_private17BulkAllocatorImplINS_18casacore_allocatorIhLm32EEEED0Ev@Base 3.2.1
 _ZN8casacore17Allocator_private17BulkAllocatorImplINS_18casacore_allocatorIhLm32EEEED1Ev@Base 3.2.1
 _ZN8casacore17Allocator_private17BulkAllocatorImplINS_18casacore_allocatorIhLm32EEEED2Ev@Base 3.2.1
 _ZN8casacore17Allocator_private17BulkAllocatorImplINS_18casacore_allocatorIiLm32EEEE10deallocateEPim@Base 3.2.1
 _ZN8casacore17Allocator_private17BulkAllocatorImplINS_18casacore_allocatorIiLm32EEEE7destroyEPim@Base 3.2.1
 _ZN8casacore17Allocator_private17BulkAllocatorImplINS_18casacore_allocatorIiLm32EEEE8allocateEmPKv@Base 3.2.1
 _ZN8casacore17Allocator_private17BulkAllocatorImplINS_18casacore_allocatorIiLm32EEEE9allocatorE@Base 3.2.1
 _ZN8casacore17Allocator_private17BulkAllocatorImplINS_18casacore_allocatorIiLm32EEEE9constructEPim@Base 3.2.1
 _ZN8casacore17Allocator_private17BulkAllocatorImplINS_18casacore_allocatorIiLm32EEEE9constructEPimPKi@Base 3.2.1
 _ZN8casacore17Allocator_private17BulkAllocatorImplINS_18casacore_allocatorIiLm32EEEE9constructEPimRKi@Base 3.2.1
 _ZN8casacore17Allocator_private17BulkAllocatorImplINS_18casacore_allocatorIiLm32EEEED0Ev@Base 3.2.1
 _ZN8casacore17Allocator_private17BulkAllocatorImplINS_18casacore_allocatorIiLm32EEEED1Ev@Base 3.2.1
 _ZN8casacore17Allocator_private17BulkAllocatorImplINS_18casacore_allocatorIiLm32EEEED2Ev@Base 3.2.1
 _ZN8casacore17Allocator_private17BulkAllocatorImplINS_18casacore_allocatorIjLm32EEEE10deallocateEPjm@Base 3.2.1
 _ZN8casacore17Allocator_private17BulkAllocatorImplINS_18casacore_allocatorIjLm32EEEE7destroyEPjm@Base 3.2.1
 _ZN8casacore17Allocator_private17BulkAllocatorImplINS_18casacore_allocatorIjLm32EEEE8allocateEmPKv@Base 3.2.1
 _ZN8casacore17Allocator_private17BulkAllocatorImplINS_18casacore_allocatorIjLm32EEEE9allocatorE@Base 3.2.1
 _ZN8casacore17Allocator_private17BulkAllocatorImplINS_18casacore_allocatorIjLm32EEEE9constructEPjm@Base 3.2.1
 _ZN8casacore17Allocator_private17BulkAllocatorImplINS_18casacore_allocatorIjLm32EEEE9constructEPjmPKj@Base 3.2.1
 _ZN8casacore17Allocator_private17BulkAllocatorImplINS_18casacore_allocatorIjLm32EEEE9constructEPjmRKj@Base 3.2.1
 _ZN8casacore17Allocator_private17BulkAllocatorImplINS_18casacore_allocatorIjLm32EEEED0Ev@Base 3.2.1
 _ZN8casacore17Allocator_private17BulkAllocatorImplINS_18casacore_allocatorIjLm32EEEED1Ev@Base 3.2.1
 _ZN8casacore17Allocator_private17BulkAllocatorImplINS_18casacore_allocatorIjLm32EEEED2Ev@Base 3.2.1
 _ZN8casacore17Allocator_private17BulkAllocatorImplINS_18casacore_allocatorIsLm32EEEE10deallocateEPsm@Base 3.2.1
 _ZN8casacore17Allocator_private17BulkAllocatorImplINS_18casacore_allocatorIsLm32EEEE7destroyEPsm@Base 3.2.1
 _ZN8casacore17Allocator_private17BulkAllocatorImplINS_18casacore_allocatorIsLm32EEEE8allocateEmPKv@Base 3.2.1
 _ZN8casacore17Allocator_private17BulkAllocatorImplINS_18casacore_allocatorIsLm32EEEE9allocatorE@Base 3.2.1
 _ZN8casacore17Allocator_private17BulkAllocatorImplINS_18casacore_allocatorIsLm32EEEE9constructEPsm@Base 3.2.1
 _ZN8casacore17Allocator_private17BulkAllocatorImplINS_18casacore_allocatorIsLm32EEEE9constructEPsmPKs@Base 3.2.1
 _ZN8casacore17Allocator_private17BulkAllocatorImplINS_18casacore_allocatorIsLm32EEEE9constructEPsmRKs@Base 3.2.1
 _ZN8casacore17Allocator_private17BulkAllocatorImplINS_18casacore_allocatorIsLm32EEEED0Ev@Base 3.2.1
 _ZN8casacore17Allocator_private17BulkAllocatorImplINS_18casacore_allocatorIsLm32EEEED1Ev@Base 3.2.1
 _ZN8casacore17Allocator_private17BulkAllocatorImplINS_18casacore_allocatorIsLm32EEEED2Ev@Base 3.2.1
 _ZN8casacore17Allocator_private17BulkAllocatorImplINS_18casacore_allocatorIxLm32EEEE10deallocateEPxm@Base 3.2.1
 _ZN8casacore17Allocator_private17BulkAllocatorImplINS_18casacore_allocatorIxLm32EEEE7destroyEPxm@Base 3.2.1
 _ZN8casacore17Allocator_private17BulkAllocatorImplINS_18casacore_allocatorIxLm32EEEE8allocateEmPKv@Base 3.2.1
 _ZN8casacore17Allocator_private17BulkAllocatorImplINS_18casacore_allocatorIxLm32EEEE9allocatorE@Base 3.2.1
 _ZN8casacore17Allocator_private17BulkAllocatorImplINS_18casacore_allocatorIxLm32EEEE9constructEPxm@Base 3.2.1
 _ZN8casacore17Allocator_private17BulkAllocatorImplINS_18casacore_allocatorIxLm32EEEE9constructEPxmPKx@Base 3.2.1
 _ZN8casacore17Allocator_private17BulkAllocatorImplINS_18casacore_allocatorIxLm32EEEE9constructEPxmRKx@Base 3.2.1
 _ZN8casacore17Allocator_private17BulkAllocatorImplINS_18casacore_allocatorIxLm32EEEED0Ev@Base 3.2.1
 _ZN8casacore17Allocator_private17BulkAllocatorImplINS_18casacore_allocatorIxLm32EEEED1Ev@Base 3.2.1
 _ZN8casacore17Allocator_private17BulkAllocatorImplINS_18casacore_allocatorIxLm32EEEED2Ev@Base 3.2.1
 _ZN8casacore17Allocator_private17get_allocator_rawINS_18casacore_allocatorIdLm32EEEEEPNS0_17BulkAllocatorImplIT_EEv@Base 3.2.1
 _ZN8casacore17Allocator_private17get_allocator_rawINS_18casacore_allocatorIiLm32EEEEEPNS0_17BulkAllocatorImplIT_EEv@Base 3.2.1
 _ZN8casacore17BaseTableIterator4nextEv@Base 3.2.1
 _ZN8casacore17BaseTableIterator5resetEv@Base 3.2.1
 _ZN8casacore17BaseTableIterator9copyStateERKS0_@Base 3.2.1
 _ZN8casacore17BaseTableIteratorC1EPNS_9BaseTableERKNS_5BlockINS_6StringEEERKNS3_INS_10CountedPtrINS_11BaseCompareEEEEERKNS3_IiEEi@Base 3.2.1
 _ZN8casacore17BaseTableIteratorC1ERKS0_@Base 3.2.1
 _ZN8casacore17BaseTableIteratorC2EPNS_9BaseTableERKNS_5BlockINS_6StringEEERKNS3_INS_10CountedPtrINS_11BaseCompareEEEEERKNS3_IiEEi@Base 3.2.1
 _ZN8casacore17BaseTableIteratorC2ERKS0_@Base 3.2.1
 _ZN8casacore17BaseTableIteratorD0Ev@Base 3.2.1
 _ZN8casacore17BaseTableIteratorD1Ev@Base 3.2.1
 _ZN8casacore17BaseTableIteratorD2Ev@Base 3.2.1
 _ZN8casacore17ColumnsIndexArray10fillRownrsEjRKNS_5BlockIjEE@Base 3.2.1
 _ZN8casacore17ColumnsIndexArray10setChangedERKNS_6StringE@Base 3.2.1
 _ZN8casacore17ColumnsIndexArray10setChangedEv@Base 3.2.1
 _ZN8casacore17ColumnsIndexArray11makeObjectsERKNS_10RecordDescE@Base 3.2.1
 _ZN8casacore17ColumnsIndexArray12getRowNumberERb@Base 3.2.1
 _ZN8casacore17ColumnsIndexArray12getRowNumberERbRKNS_6RecordE@Base 3.2.1
 _ZN8casacore17ColumnsIndexArray13deleteObjectsEv@Base 3.2.1
 _ZN8casacore17ColumnsIndexArray13getRowNumbersERKNS_6RecordES3_bbb@Base 3.2.1
 _ZN8casacore17ColumnsIndexArray13getRowNumbersERKNS_6RecordEb@Base 3.2.1
 _ZN8casacore17ColumnsIndexArray13getRowNumbersEb@Base 3.2.1
 _ZN8casacore17ColumnsIndexArray13getRowNumbersEbbb@Base 3.2.1
 _ZN8casacore17ColumnsIndexArray15addColumnToDescERNS_10RecordDescERKNS_11TableColumnE@Base 3.2.1
 _ZN8casacore17ColumnsIndexArray4copyERKS0_@Base 3.2.1
 _ZN8casacore17ColumnsIndexArray7compareEPvS1_ii@Base 3.2.1
 _ZN8casacore17ColumnsIndexArray8getArrayERNS_6VectorINS_6StringEEERKS2_@Base 3.2.1
 _ZN8casacore17ColumnsIndexArray8getArrayERNS_6VectorIhEERKNS_6StringE@Base 3.2.1
 _ZN8casacore17ColumnsIndexArray8getArrayERNS_6VectorIiEERKNS_6StringE@Base 3.2.1
 _ZN8casacore17ColumnsIndexArray8getArrayERNS_6VectorIjEERKNS_6StringE@Base 3.2.1
 _ZN8casacore17ColumnsIndexArray8getArrayERNS_6VectorIsEERKNS_6StringE@Base 3.2.1
 _ZN8casacore17ColumnsIndexArray8getArrayERNS_6VectorIxEERKNS_6StringE@Base 3.2.1
 _ZN8casacore17ColumnsIndexArray8readDataEv@Base 3.2.1
 _ZN8casacore17ColumnsIndexArrayC1ERKNS_5TableERKNS_6StringE@Base 3.2.1
 _ZN8casacore17ColumnsIndexArrayC1ERKS0_@Base 3.2.1
 _ZN8casacore17ColumnsIndexArrayC2ERKNS_5TableERKNS_6StringE@Base 3.2.1
 _ZN8casacore17ColumnsIndexArrayC2ERKS0_@Base 3.2.1
 _ZN8casacore17ColumnsIndexArrayD1Ev@Base 3.2.1
 _ZN8casacore17ColumnsIndexArrayD2Ev@Base 3.2.1
 _ZN8casacore17ColumnsIndexArrayaSERKS0_@Base 3.2.1
 _ZN8casacore17CompressComplexSD10makeObjectERKNS_6StringERKNS_6RecordE@Base 3.2.1
 _ZN8casacore17CompressComplexSD10scaleOnGetEffRNS_5ArrayISt7complexIfEEERKNS1_IiEE@Base 3.2.1
 _ZN8casacore17CompressComplexSD10scaleOnPutEffRKNS_5ArrayISt7complexIfEEERNS1_IiEE@Base 3.2.1
 _ZN8casacore17CompressComplexSD13registerClassEv@Base 3.2.1
 _ZN8casacore17CompressComplexSD6createEj@Base 3.2.1
 _ZN8casacore17CompressComplexSD9classNameEv@Base 3.2.1
 _ZN8casacore17CompressComplexSDC1ERKNS_6RecordE@Base 3.2.1
 _ZN8casacore17CompressComplexSDC1ERKNS_6StringES3_S3_S3_b@Base 3.2.1
 _ZN8casacore17CompressComplexSDC1ERKNS_6StringES3_ff@Base 3.2.1
 _ZN8casacore17CompressComplexSDC1ERKS0_@Base 3.2.1
 _ZN8casacore17CompressComplexSDC2ERKNS_6RecordE@Base 3.2.1
 _ZN8casacore17CompressComplexSDC2ERKNS_6StringES3_S3_S3_b@Base 3.2.1
 _ZN8casacore17CompressComplexSDC2ERKNS_6StringES3_ff@Base 3.2.1
 _ZN8casacore17CompressComplexSDC2ERKS0_@Base 3.2.1
 _ZN8casacore17CompressComplexSDD0Ev@Base 3.2.1
 _ZN8casacore17CompressComplexSDD1Ev@Base 3.2.1
 _ZN8casacore17CompressComplexSDD2Ev@Base 3.2.1
 _ZN8casacore17DataManagerColumn10getStringVEjPNS_6StringE@Base 3.2.1
 _ZN8casacore17DataManagerColumn10getdoubleVEjPd@Base 3.2.1
 _ZN8casacore17DataManagerColumn10getuShortVEjPt@Base 3.2.1
 _ZN8casacore17DataManagerColumn10putStringVEjPKNS_6StringE@Base 3.2.1
 _ZN8casacore17DataManagerColumn10putdoubleVEjPKd@Base 3.2.1
 _ZN8casacore17DataManagerColumn10putuShortVEjPKt@Base 3.2.1
 _ZN8casacore17DataManagerColumn11getComplexVEjPSt7complexIfE@Base 3.2.1
 _ZN8casacore17DataManagerColumn11getSliceArrEjRKNS_6SlicerERNS_10CountedPtrINS_9ArrayBaseEEERS5_@Base 3.2.1
 _ZN8casacore17DataManagerColumn11putComplexVEjPKSt7complexIfE@Base 3.2.1
 _ZN8casacore17DataManagerColumn11putSliceArrEjRKNS_6SlicerERNS_10CountedPtrINS_9ArrayBaseEEERKS5_@Base 3.2.1
 _ZN8casacore17DataManagerColumn12getDComplexVEjPSt7complexIdE@Base 3.2.1
 _ZN8casacore17DataManagerColumn12getSliceBaseEjRKNS_6SlicerERNS_9ArrayBaseE@Base 3.2.1
 _ZN8casacore17DataManagerColumn12putDComplexVEjPKSt7complexIdE@Base 3.2.1
 _ZN8casacore17DataManagerColumn12putSliceBaseEjRKNS_6SlicerERKNS_9ArrayBaseE@Base 3.2.1
 _ZN8casacore17DataManagerColumn12setMaxLengthEj@Base 3.2.1
 _ZN8casacore17DataManagerColumn13setShapeTiledEjRKNS_9IPositionES3_@Base 3.2.1
 _ZN8casacore17DataManagerColumn14isShapeDefinedEj@Base 3.2.1
 _ZN8casacore17DataManagerColumn14setShapeColumnERKNS_9IPositionE@Base 3.2.1
 _ZN8casacore17DataManagerColumn15getArrayColumnVEPv@Base 3.2.1
 _ZN8casacore17DataManagerColumn15getColumnSliceVERKNS_6SlicerEPv@Base 3.2.1
 _ZN8casacore17DataManagerColumn15putArrayColumnVEPKv@Base 3.2.1
 _ZN8casacore17DataManagerColumn15putColumnSliceVERKNS_6SlicerEPKv@Base 3.2.1
 _ZN8casacore17DataManagerColumn16getScalarColumnVEPv@Base 3.2.1
 _ZN8casacore17DataManagerColumn16putScalarColumnVEPKv@Base 3.2.1
 _ZN8casacore17DataManagerColumn18getArrayColumnBaseERNS_9ArrayBaseE@Base 3.2.1
 _ZN8casacore17DataManagerColumn18getColumnSliceBaseERKNS_6SlicerERNS_9ArrayBaseE@Base 3.2.1
 _ZN8casacore17DataManagerColumn18putArrayColumnBaseERKNS_9ArrayBaseE@Base 3.2.1
 _ZN8casacore17DataManagerColumn18putColumnSliceBaseERKNS_6SlicerERKNS_9ArrayBaseE@Base 3.2.1
 _ZN8casacore17DataManagerColumn20getArrayColumnCellsVERKNS_7RefRowsEPv@Base 3.2.1
 _ZN8casacore17DataManagerColumn20getColumnSliceCellsVERKNS_7RefRowsERKNS_6SlicerEPv@Base 3.2.1
 _ZN8casacore17DataManagerColumn20putArrayColumnCellsVERKNS_7RefRowsEPKv@Base 3.2.1
 _ZN8casacore17DataManagerColumn20putColumnSliceCellsVERKNS_7RefRowsERKNS_6SlicerEPKv@Base 3.2.1
 _ZN8casacore17DataManagerColumn21getScalarColumnCellsVERKNS_7RefRowsEPv@Base 3.2.1
 _ZN8casacore17DataManagerColumn21putScalarColumnCellsVERKNS_7RefRowsEPKv@Base 3.2.1
 _ZN8casacore17DataManagerColumn23getArrayColumnCellsBaseERKNS_7RefRowsERNS_9ArrayBaseE@Base 3.2.1
 _ZN8casacore17DataManagerColumn23getColumnSliceCellsBaseERKNS_7RefRowsERKNS_6SlicerERNS_9ArrayBaseE@Base 3.2.1
 _ZN8casacore17DataManagerColumn23putArrayColumnCellsBaseERKNS_7RefRowsERKNS_9ArrayBaseE@Base 3.2.1
 _ZN8casacore17DataManagerColumn23putColumnSliceCellsBaseERKNS_7RefRowsERKNS_6SlicerERKNS_9ArrayBaseE@Base 3.2.1
 _ZN8casacore17DataManagerColumn24getScalarColumnCellsBaseERKNS_7RefRowsERNS_9ArrayBaseE@Base 3.2.1
 _ZN8casacore17DataManagerColumn24putScalarColumnCellsBaseERKNS_7RefRowsERKNS_9ArrayBaseE@Base 3.2.1
 _ZN8casacore17DataManagerColumn4ndimEj@Base 3.2.1
 _ZN8casacore17DataManagerColumn5shapeEj@Base 3.2.1
 _ZN8casacore17DataManagerColumn7getIntVEjPi@Base 3.2.1
 _ZN8casacore17DataManagerColumn7putIntVEjPKi@Base 3.2.1
 _ZN8casacore17DataManagerColumn8getBoolVEjPb@Base 3.2.1
 _ZN8casacore17DataManagerColumn8getuIntVEjPj@Base 3.2.1
 _ZN8casacore17DataManagerColumn8putBoolVEjPKb@Base 3.2.1
 _ZN8casacore17DataManagerColumn8putuIntVEjPKj@Base 3.2.1
 _ZN8casacore17DataManagerColumn8setShapeEjRKNS_9IPositionE@Base 3.2.1
 _ZN8casacore17DataManagerColumn9getArrayVEjPv@Base 3.2.1
 _ZN8casacore17DataManagerColumn9getBlockVEjjPv@Base 3.2.1
 _ZN8casacore17DataManagerColumn9getInt64VEjPx@Base 3.2.1
 _ZN8casacore17DataManagerColumn9getOtherVEjPv@Base 3.2.1
 _ZN8casacore17DataManagerColumn9getShortVEjPs@Base 3.2.1
 _ZN8casacore17DataManagerColumn9getSliceVEjRKNS_6SlicerEPv@Base 3.2.1
 _ZN8casacore17DataManagerColumn9getfloatVEjPf@Base 3.2.1
 _ZN8casacore17DataManagerColumn9getuCharVEjPh@Base 3.2.1
 _ZN8casacore17DataManagerColumn9putArrayVEjPKv@Base 3.2.1
 _ZN8casacore17DataManagerColumn9putBlockVEjjPKv@Base 3.2.1
 _ZN8casacore17DataManagerColumn9putInt64VEjPKx@Base 3.2.1
 _ZN8casacore17DataManagerColumn9putOtherVEjPKv@Base 3.2.1
 _ZN8casacore17DataManagerColumn9putShortVEjPKs@Base 3.2.1
 _ZN8casacore17DataManagerColumn9putSliceVEjRKNS_6SlicerEPKv@Base 3.2.1
 _ZN8casacore17DataManagerColumn9putfloatVEjPKf@Base 3.2.1
 _ZN8casacore17DataManagerColumn9putuCharVEjPKh@Base 3.2.1
 _ZN8casacore17DataManagerColumn9tileShapeEj@Base 3.2.1
 _ZN8casacore17DataManagerColumnD0Ev@Base 3.2.1
 _ZN8casacore17DataManagerColumnD1Ev@Base 3.2.1
 _ZN8casacore17DataManagerColumnD2Ev@Base 3.2.1
 _ZN8casacore17MappedArrayEngineISt7complexIfES1_IdEE10makeObjectERKNS_6StringERKNS_6RecordE@Base 3.2.1
 _ZN8casacore17MappedArrayEngineISt7complexIfES1_IdEE8mapOnGetERNS_5ArrayIS2_EERKNS5_IS3_EE@Base 3.2.1
 _ZN8casacore17MappedArrayEngineISt7complexIfES1_IdEE8mapOnPutERKNS_5ArrayIS2_EERNS5_IS3_EE@Base 3.2.1
 _ZN8casacore17MappedArrayEngineISt7complexIfES1_IdEE9classNameEv@Base 3.2.1
 _ZN8casacore17MappedArrayEngineISt7complexIfES1_IdEEC1ERKNS_6RecordE@Base 3.2.1
 _ZN8casacore17MappedArrayEngineISt7complexIfES1_IdEEC2ERKNS_6RecordE@Base 3.2.1
 _ZN8casacore17MappedArrayEngineISt7complexIfES1_IdEED0Ev@Base 3.2.1
 _ZN8casacore17MappedArrayEngineISt7complexIfES1_IdEED1Ev@Base 3.2.1
 _ZN8casacore17MappedArrayEngineISt7complexIfES1_IdEED2Ev@Base 3.2.1
 _ZN8casacore17RODataManAccessorC1ERKNS_5TableERKNS_6StringEb@Base 3.2.1
 _ZN8casacore17RODataManAccessorC2ERKNS_5TableERKNS_6StringEb@Base 3.2.1
 _ZN8casacore17RODataManAccessorD0Ev@Base 3.2.1
 _ZN8casacore17RODataManAccessorD1Ev@Base 3.2.1
 _ZN8casacore17RODataManAccessorD2Ev@Base 3.2.1
 _ZN8casacore17StManColumnAipsIO10deleteDataEPvb@Base 3.2.1
 _ZN8casacore17StManColumnAipsIO10getStringVEjPNS_6StringE@Base 3.2.1
 _ZN8casacore17StManColumnAipsIO10getdoubleVEjPd@Base 3.2.1
 _ZN8casacore17StManColumnAipsIO10getuShortVEjPt@Base 3.2.1
 _ZN8casacore17StManColumnAipsIO10putStringVEjPKNS_6StringE@Base 3.2.1
 _ZN8casacore17StManColumnAipsIO10putdoubleVEjPKd@Base 3.2.1
 _ZN8casacore17StManColumnAipsIO10putuShortVEjPKt@Base 3.2.1
 _ZN8casacore17StManColumnAipsIO10removeDataEPvjj@Base 3.2.1
 _ZN8casacore17StManColumnAipsIO11getArrayPtrEj@Base 3.2.1
 _ZN8casacore17StManColumnAipsIO11getComplexVEjPSt7complexIfE@Base 3.2.1
 _ZN8casacore17StManColumnAipsIO11putArrayPtrEjPv@Base 3.2.1
 _ZN8casacore17StManColumnAipsIO11putComplexVEjPKSt7complexIfE@Base 3.2.1
 _ZN8casacore17StManColumnAipsIO12getBlockIntVEjjPi@Base 3.2.1
 _ZN8casacore17StManColumnAipsIO12getDComplexVEjPSt7complexIdE@Base 3.2.1
 _ZN8casacore17StManColumnAipsIO12putBlockIntVEjjPKi@Base 3.2.1
 _ZN8casacore17StManColumnAipsIO12putDComplexVEjPKSt7complexIdE@Base 3.2.1
 _ZN8casacore17StManColumnAipsIO13getBlockBoolVEjjPb@Base 3.2.1
 _ZN8casacore17StManColumnAipsIO13getBlockuIntVEjjPj@Base 3.2.1
 _ZN8casacore17StManColumnAipsIO13putBlockBoolVEjjPKb@Base 3.2.1
 _ZN8casacore17StManColumnAipsIO13putBlockuIntVEjjPKj@Base 3.2.1
 _ZN8casacore17StManColumnAipsIO14getBlockInt64VEjjPx@Base 3.2.1
 _ZN8casacore17StManColumnAipsIO14getBlockShortVEjjPs@Base 3.2.1
 _ZN8casacore17StManColumnAipsIO14getBlockfloatVEjjPf@Base 3.2.1
 _ZN8casacore17StManColumnAipsIO14getBlockuCharVEjjPh@Base 3.2.1
 _ZN8casacore17StManColumnAipsIO14putBlockInt64VEjjPKx@Base 3.2.1
 _ZN8casacore17StManColumnAipsIO14putBlockShortVEjjPKs@Base 3.2.1
 _ZN8casacore17StManColumnAipsIO14putBlockfloatVEjjPKf@Base 3.2.1
 _ZN8casacore17StManColumnAipsIO14putBlockuCharVEjjPKh@Base 3.2.1
 _ZN8casacore17StManColumnAipsIO15getBlockStringVEjjPNS_6StringE@Base 3.2.1
 _ZN8casacore17StManColumnAipsIO15getBlockdoubleVEjjPd@Base 3.2.1
 _ZN8casacore17StManColumnAipsIO15getBlockuShortVEjjPt@Base 3.2.1
 _ZN8casacore17StManColumnAipsIO15putBlockStringVEjjPKNS_6StringE@Base 3.2.1
 _ZN8casacore17StManColumnAipsIO15putBlockdoubleVEjjPKd@Base 3.2.1
 _ZN8casacore17StManColumnAipsIO15putBlockuShortVEjjPKt@Base 3.2.1
 _ZN8casacore17StManColumnAipsIO16getBlockComplexVEjjPSt7complexIfE@Base 3.2.1
 _ZN8casacore17StManColumnAipsIO16putBlockComplexVEjjPKSt7complexIfE@Base 3.2.1
 _ZN8casacore17StManColumnAipsIO17getBlockDComplexVEjjPSt7complexIdE@Base 3.2.1
 _ZN8casacore17StManColumnAipsIO17putBlockDComplexVEjjPKSt7complexIdE@Base 3.2.1
 _ZN8casacore17StManColumnAipsIO24getScalarColumnCellsIntVERKNS_7RefRowsEPNS_6VectorIiEE@Base 3.2.1
 _ZN8casacore17StManColumnAipsIO25getScalarColumnCellsBoolVERKNS_7RefRowsEPNS_6VectorIbEE@Base 3.2.1
 _ZN8casacore17StManColumnAipsIO25getScalarColumnCellsuIntVERKNS_7RefRowsEPNS_6VectorIjEE@Base 3.2.1
 _ZN8casacore17StManColumnAipsIO26getScalarColumnCellsInt64VERKNS_7RefRowsEPNS_6VectorIxEE@Base 3.2.1
 _ZN8casacore17StManColumnAipsIO26getScalarColumnCellsShortVERKNS_7RefRowsEPNS_6VectorIsEE@Base 3.2.1
 _ZN8casacore17StManColumnAipsIO26getScalarColumnCellsfloatVERKNS_7RefRowsEPNS_6VectorIfEE@Base 3.2.1
 _ZN8casacore17StManColumnAipsIO26getScalarColumnCellsuCharVERKNS_7RefRowsEPNS_6VectorIhEE@Base 3.2.1
 _ZN8casacore17StManColumnAipsIO27getScalarColumnCellsStringVERKNS_7RefRowsEPNS_6VectorINS_6StringEEE@Base 3.2.1
 _ZN8casacore17StManColumnAipsIO27getScalarColumnCellsdoubleVERKNS_7RefRowsEPNS_6VectorIdEE@Base 3.2.1
 _ZN8casacore17StManColumnAipsIO27getScalarColumnCellsuShortVERKNS_7RefRowsEPNS_6VectorItEE@Base 3.2.1
 _ZN8casacore17StManColumnAipsIO28getScalarColumnCellsComplexVERKNS_7RefRowsEPNS_6VectorISt7complexIfEEE@Base 3.2.1
 _ZN8casacore17StManColumnAipsIO29getScalarColumnCellsDComplexVERKNS_7RefRowsEPNS_6VectorISt7complexIdEEE@Base 3.2.1
 _ZN8casacore17StManColumnAipsIO6addRowEjj@Base 3.2.1
 _ZN8casacore17StManColumnAipsIO6removeEj@Base 3.2.1
 _ZN8casacore17StManColumnAipsIO6resizeEj@Base 3.2.1
 _ZN8casacore17StManColumnAipsIO7findExtEjb@Base 3.2.1
 _ZN8casacore17StManColumnAipsIO7getDataEPvjjRNS_6AipsIOEj@Base 3.2.1
 _ZN8casacore17StManColumnAipsIO7getFileEjRNS_6AipsIOE@Base 3.2.1
 _ZN8casacore17StManColumnAipsIO7getIntVEjPi@Base 3.2.1
 _ZN8casacore17StManColumnAipsIO7putDataEPvjRNS_6AipsIOE@Base 3.2.1
 _ZN8casacore17StManColumnAipsIO7putFileEjRNS_6AipsIOE@Base 3.2.1
 _ZN8casacore17StManColumnAipsIO7putIntVEjPKi@Base 3.2.1
 _ZN8casacore17StManColumnAipsIO8doCreateEj@Base 3.2.1
 _ZN8casacore17StManColumnAipsIO8getBoolVEjPb@Base 3.2.1
 _ZN8casacore17StManColumnAipsIO8getuIntVEjPj@Base 3.2.1
 _ZN8casacore17StManColumnAipsIO8putBoolVEjPKb@Base 3.2.1
 _ZN8casacore17StManColumnAipsIO8putuIntVEjPKj@Base 3.2.1
 _ZN8casacore17StManColumnAipsIO8reopenRWEv@Base 3.2.1
 _ZN8casacore17StManColumnAipsIO9allocDataEjb@Base 3.2.1
 _ZN8casacore17StManColumnAipsIO9deleteAllEv@Base 3.2.1
 _ZN8casacore17StManColumnAipsIO9getInt64VEjPx@Base 3.2.1
 _ZN8casacore17StManColumnAipsIO9getShortVEjPs@Base 3.2.1
 _ZN8casacore17StManColumnAipsIO9getfloatVEjPf@Base 3.2.1
 _ZN8casacore17StManColumnAipsIO9getuCharVEjPh@Base 3.2.1
 _ZN8casacore17StManColumnAipsIO9putInt64VEjPKx@Base 3.2.1
 _ZN8casacore17StManColumnAipsIO9putShortVEjPKs@Base 3.2.1
 _ZN8casacore17StManColumnAipsIO9putfloatVEjPKf@Base 3.2.1
 _ZN8casacore17StManColumnAipsIO9putuCharVEjPKh@Base 3.2.1
 _ZN8casacore17StManColumnAipsIOC1EPNS_11StManAipsIOEib@Base 3.2.1
 _ZN8casacore17StManColumnAipsIOC2EPNS_11StManAipsIOEib@Base 3.2.1
 _ZN8casacore17StManColumnAipsIOD0Ev@Base 3.2.1
 _ZN8casacore17StManColumnAipsIOD1Ev@Base 3.2.1
 _ZN8casacore17StManColumnAipsIOD2Ev@Base 3.2.1
 _ZN8casacore17TaQLAddColNodeRep7restoreERNS_6AipsIOE@Base 3.2.1
 _ZN8casacore17TaQLAddColNodeRepC1ERKNS_13TaQLMultiNodeES3_@Base 3.2.1
 _ZN8casacore17TaQLAddColNodeRepC2ERKNS_13TaQLMultiNodeES3_@Base 3.2.1
 _ZN8casacore17TaQLAddColNodeRepD0Ev@Base 3.2.1
 _ZN8casacore17TaQLAddColNodeRepD1Ev@Base 3.2.1
 _ZN8casacore17TaQLAddColNodeRepD2Ev@Base 3.2.1
 _ZN8casacore17TaQLAddRowNodeRep7restoreERNS_6AipsIOE@Base 3.2.1
 _ZN8casacore17TaQLAddRowNodeRepC1ERKNS_8TaQLNodeE@Base 3.2.1
 _ZN8casacore17TaQLAddRowNodeRepC2ERKNS_8TaQLNodeE@Base 3.2.1
 _ZN8casacore17TaQLAddRowNodeRepD0Ev@Base 3.2.1
 _ZN8casacore17TaQLAddRowNodeRepD1Ev@Base 3.2.1
 _ZN8casacore17TaQLAddRowNodeRepD2Ev@Base 3.2.1
 _ZN8casacore17TaQLAltTabNodeRep7restoreERNS_6AipsIOE@Base 3.2.1
 _ZN8casacore17TaQLAltTabNodeRepC1ERKNS_13TaQLMultiNodeERKNS_8TaQLNodeES3_S3_@Base 3.2.1
 _ZN8casacore17TaQLAltTabNodeRepC2ERKNS_13TaQLMultiNodeERKNS_8TaQLNodeES3_S3_@Base 3.2.1
 _ZN8casacore17TaQLAltTabNodeRepD0Ev@Base 3.2.1
 _ZN8casacore17TaQLAltTabNodeRepD1Ev@Base 3.2.1
 _ZN8casacore17TaQLAltTabNodeRepD2Ev@Base 3.2.1
 _ZN8casacore17TaQLBinaryNodeRep11handleRegexERKNS_8TaQLNodeERKNS_13TaQLRegexNodeE@Base 3.2.1
 _ZN8casacore17TaQLBinaryNodeRep7restoreERNS_6AipsIOE@Base 3.2.1
 _ZN8casacore17TaQLBinaryNodeRepC1ENS0_4TypeERKNS_8TaQLNodeES4_@Base 3.2.1
 _ZN8casacore17TaQLBinaryNodeRepC2ENS0_4TypeERKNS_8TaQLNodeES4_@Base 3.2.1
 _ZN8casacore17TaQLBinaryNodeRepD0Ev@Base 3.2.1
 _ZN8casacore17TaQLBinaryNodeRepD1Ev@Base 3.2.1
 _ZN8casacore17TaQLBinaryNodeRepD2Ev@Base 3.2.1
 _ZN8casacore17TaQLCreTabNodeRep7restoreERNS_6AipsIOE@Base 3.2.1
 _ZN8casacore17TaQLCreTabNodeRepC1ERKNS_13TaQLMultiNodeERKNS_8TaQLNodeES3_S6_S3_@Base 3.2.1
 _ZN8casacore17TaQLCreTabNodeRepC2ERKNS_13TaQLMultiNodeERKNS_8TaQLNodeES3_S6_S3_@Base 3.2.1
 _ZN8casacore17TaQLCreTabNodeRepD0Ev@Base 3.2.1
 _ZN8casacore17TaQLCreTabNodeRepD1Ev@Base 3.2.1
 _ZN8casacore17TaQLCreTabNodeRepD2Ev@Base 3.2.1
 _ZN8casacore17TaQLDeleteNodeRep7restoreERNS_6AipsIOE@Base 3.2.1
 _ZN8casacore17TaQLDeleteNodeRepC1ERKNS_13TaQLMultiNodeES3_RKNS_8TaQLNodeES6_S6_@Base 3.2.1
 _ZN8casacore17TaQLDeleteNodeRepC2ERKNS_13TaQLMultiNodeES3_RKNS_8TaQLNodeES6_S6_@Base 3.2.1
 _ZN8casacore17TaQLDeleteNodeRepD0Ev@Base 3.2.1
 _ZN8casacore17TaQLDeleteNodeRepD1Ev@Base 3.2.1
 _ZN8casacore17TaQLDeleteNodeRepD2Ev@Base 3.2.1
 _ZN8casacore17TaQLGivingNodeRep7restoreERNS_6AipsIOE@Base 3.2.1
 _ZN8casacore17TaQLGivingNodeRepC1ERKNS_13TaQLMultiNodeE@Base 3.2.1
 _ZN8casacore17TaQLGivingNodeRepC1ERKNS_6StringERKNS_13TaQLMultiNodeE@Base 3.2.1
 _ZN8casacore17TaQLGivingNodeRepC2ERKNS_13TaQLMultiNodeE@Base 3.2.1
 _ZN8casacore17TaQLGivingNodeRepC2ERKNS_6StringERKNS_13TaQLMultiNodeE@Base 3.2.1
 _ZN8casacore17TaQLGivingNodeRepD0Ev@Base 3.2.1
 _ZN8casacore17TaQLGivingNodeRepD1Ev@Base 3.2.1
 _ZN8casacore17TaQLGivingNodeRepD2Ev@Base 3.2.1
 _ZN8casacore17TaQLInsertNodeRep7restoreERNS_6AipsIOE@Base 3.2.1
 _ZN8casacore17TaQLInsertNodeRepC1ERKNS_13TaQLMultiNodeES3_S3_@Base 3.2.1
 _ZN8casacore17TaQLInsertNodeRepC1ERKNS_13TaQLMultiNodeES3_S3_RKNS_8TaQLNodeES6_@Base 3.2.1
 _ZN8casacore17TaQLInsertNodeRepC2ERKNS_13TaQLMultiNodeES3_S3_@Base 3.2.1
 _ZN8casacore17TaQLInsertNodeRepC2ERKNS_13TaQLMultiNodeES3_S3_RKNS_8TaQLNodeES6_@Base 3.2.1
 _ZN8casacore17TaQLInsertNodeRepD0Ev@Base 3.2.1
 _ZN8casacore17TaQLInsertNodeRepD1Ev@Base 3.2.1
 _ZN8casacore17TaQLInsertNodeRepD2Ev@Base 3.2.1
 _ZN8casacore17TaQLKeyColNodeRep7restoreERNS_6AipsIOE@Base 3.2.1
 _ZN8casacore17TaQLKeyColNodeRepC1ERKNS_6StringES3_@Base 3.2.1
 _ZN8casacore17TaQLKeyColNodeRepC2ERKNS_6StringES3_@Base 3.2.1
 _ZN8casacore17TaQLKeyColNodeRepD0Ev@Base 3.2.1
 _ZN8casacore17TaQLKeyColNodeRepD1Ev@Base 3.2.1
 _ZN8casacore17TaQLKeyColNodeRepD2Ev@Base 3.2.1
 _ZN8casacore17TaQLNodeResultRepD0Ev@Base 3.2.1
 _ZN8casacore17TaQLNodeResultRepD1Ev@Base 3.2.1
 _ZN8casacore17TaQLNodeResultRepD2Ev@Base 3.2.1
 _ZN8casacore17TaQLRecFldNodeRep7restoreERNS_6AipsIOE@Base 3.2.1
 _ZN8casacore17TaQLRecFldNodeRepC1ERKNS_6StringERKNS_8TaQLNodeES3_@Base 3.2.1
 _ZN8casacore17TaQLRecFldNodeRepC1ERKNS_6StringERKS0_@Base 3.2.1
 _ZN8casacore17TaQLRecFldNodeRepC1ERKNS_6StringES3_S3_@Base 3.2.1
 _ZN8casacore17TaQLRecFldNodeRepC2ERKNS_6StringERKNS_8TaQLNodeES3_@Base 3.2.1
 _ZN8casacore17TaQLRecFldNodeRepC2ERKNS_6StringERKS0_@Base 3.2.1
 _ZN8casacore17TaQLRecFldNodeRepC2ERKNS_6StringES3_S3_@Base 3.2.1
 _ZN8casacore17TaQLRecFldNodeRepD0Ev@Base 3.2.1
 _ZN8casacore17TaQLRecFldNodeRepD1Ev@Base 3.2.1
 _ZN8casacore17TaQLRecFldNodeRepD2Ev@Base 3.2.1
 _ZN8casacore17TaQLSelectNodeRep7restoreERNS_6AipsIOE@Base 3.2.1
 _ZN8casacore17TaQLSelectNodeRepC1ERKNS_8TaQLNodeERKNS_13TaQLMultiNodeES3_S3_S3_S3_S3_S3_S6_@Base 3.2.1
 _ZN8casacore17TaQLSelectNodeRepC1ERKNS_8TaQLNodeERKNS_13TaQLMultiNodeES6_S3_S3_S3_S3_S3_S3_S3_S6_@Base 3.2.1
 _ZN8casacore17TaQLSelectNodeRepC2ERKNS_8TaQLNodeERKNS_13TaQLMultiNodeES3_S3_S3_S3_S3_S3_S6_@Base 3.2.1
 _ZN8casacore17TaQLSelectNodeRepC2ERKNS_8TaQLNodeERKNS_13TaQLMultiNodeES6_S3_S3_S3_S3_S3_S3_S3_S6_@Base 3.2.1
 _ZN8casacore17TaQLSelectNodeRepD0Ev@Base 3.2.1
 _ZN8casacore17TaQLSelectNodeRepD1Ev@Base 3.2.1
 _ZN8casacore17TaQLSelectNodeRepD2Ev@Base 3.2.1
 _ZN8casacore17TaQLSetKeyNodeRep7restoreERNS_6AipsIOE@Base 3.2.1
 _ZN8casacore17TaQLSetKeyNodeRepC1ERKNS_13TaQLMultiNodeE@Base 3.2.1
 _ZN8casacore17TaQLSetKeyNodeRepC2ERKNS_13TaQLMultiNodeE@Base 3.2.1
 _ZN8casacore17TaQLSetKeyNodeRepD0Ev@Base 3.2.1
 _ZN8casacore17TaQLSetKeyNodeRepD1Ev@Base 3.2.1
 _ZN8casacore17TaQLSetKeyNodeRepD2Ev@Base 3.2.1
 _ZN8casacore17TaQLUpdateNodeRep7restoreERNS_6AipsIOE@Base 3.2.1
 _ZN8casacore17TaQLUpdateNodeRepC1ERKNS_13TaQLMultiNodeES3_S3_S3_RKNS_8TaQLNodeES6_S6_@Base 3.2.1
 _ZN8casacore17TaQLUpdateNodeRepC2ERKNS_13TaQLMultiNodeES3_S3_S3_RKNS_8TaQLNodeES6_S6_@Base 3.2.1
 _ZN8casacore17TaQLUpdateNodeRepD0Ev@Base 3.2.1
 _ZN8casacore17TaQLUpdateNodeRepD1Ev@Base 3.2.1
 _ZN8casacore17TaQLUpdateNodeRepD2Ev@Base 3.2.1
 _ZN8casacore17TableExprAggrNode11getDComplexERKNS_11TableExprIdE@Base 3.2.1
 _ZN8casacore17TableExprAggrNode12getAggrNodesERSt6vectorIPNS_16TableExprNodeRepESaIS3_EE@Base 3.2.1
 _ZN8casacore17TableExprAggrNode13checkOperandsERNS_5BlockIiEERNS_16TableExprNodeRep9ValueTypeENS_17TableExprFuncNode12FunctionTypeERSt6vectorINS_10CountedPtrIS4_EESaISB_EE@Base 3.2.1
 _ZN8casacore17TableExprAggrNode17makeGroupAggrFuncEv@Base 3.2.1
 _ZN8casacore17TableExprAggrNode19doMakeGroupAggrFuncEv@Base 3.2.1
 _ZN8casacore17TableExprAggrNode6getIntERKNS_11TableExprIdE@Base 3.2.1
 _ZN8casacore17TableExprAggrNode7getBoolERKNS_11TableExprIdE@Base 3.2.1
 _ZN8casacore17TableExprAggrNode7getDateERKNS_11TableExprIdE@Base 3.2.1
 _ZN8casacore17TableExprAggrNode9getDoubleERKNS_11TableExprIdE@Base 3.2.1
 _ZN8casacore17TableExprAggrNode9getStringERKNS_11TableExprIdE@Base 3.2.1
 _ZN8casacore17TableExprAggrNodeC1ENS_17TableExprFuncNode12FunctionTypeENS_16TableExprNodeRep12NodeDataTypeENS3_9ValueTypeERKNS_16TableExprNodeSetERKSt6vectorINS_10CountedPtrIS3_EESaISB_EERKNS_5BlockIiEE@Base 3.2.1
 _ZN8casacore17TableExprAggrNodeC2ENS_17TableExprFuncNode12FunctionTypeENS_16TableExprNodeRep12NodeDataTypeENS3_9ValueTypeERKNS_16TableExprNodeSetERKSt6vectorINS_10CountedPtrIS3_EESaISB_EERKNS_5BlockIiEE@Base 3.2.1
 _ZN8casacore17TableExprAggrNodeD0Ev@Base 3.2.1
 _ZN8casacore17TableExprAggrNodeD1Ev@Base 3.2.1
 _ZN8casacore17TableExprAggrNodeD2Ev@Base 3.2.1
 _ZN8casacore17TableExprConeNode13checkOperandsERNS_5BlockIiEERNS_16TableExprNodeRep9ValueTypeES3_NS_17TableExprFuncNode12FunctionTypeERKSt6vectorINS_10CountedPtrIS4_EESaISB_EE@Base 3.2.1
 _ZN8casacore17TableExprConeNode6getIntERKNS_11TableExprIdE@Base 3.2.1
 _ZN8casacore17TableExprConeNode7getBoolERKNS_11TableExprIdE@Base 3.2.1
 _ZN8casacore17TableExprConeNode9findNelemERKNS_10CountedPtrINS_16TableExprNodeRepEEE@Base 3.2.1
 _ZN8casacore17TableExprConeNodeC1ENS_17TableExprFuncNode12FunctionTypeENS_16TableExprNodeRep12NodeDataTypeERKNS_16TableExprNodeSetERKSt6vectorINS_10CountedPtrIS3_EESaISA_EERKNS_5BlockIiEEj@Base 3.2.1
 _ZN8casacore17TableExprConeNodeC2ENS_17TableExprFuncNode12FunctionTypeENS_16TableExprNodeRep12NodeDataTypeERKNS_16TableExprNodeSetERKSt6vectorINS_10CountedPtrIS3_EESaISA_EERKNS_5BlockIiEEj@Base 3.2.1
 _ZN8casacore17TableExprConeNodeD0Ev@Base 3.2.1
 _ZN8casacore17TableExprConeNodeD1Ev@Base 3.2.1
 _ZN8casacore17TableExprConeNodeD2Ev@Base 3.2.1
 _ZN8casacore17TableExprFuncNode10string2IntERKNS_6StringE@Base 3.2.1
 _ZN8casacore17TableExprFuncNode10stringDateERKNS_6MVTimeE@Base 3.2.1
 _ZN8casacore17TableExprFuncNode10stringTimeERKNS_6MVTimeEi@Base 3.2.1
 _ZN8casacore17TableExprFuncNode10tryToConstEv@Base 3.2.1
 _ZN8casacore17TableExprFuncNode11getDComplexERKNS_11TableExprIdE@Base 3.2.1
 _ZN8casacore17TableExprFuncNode11getMVFormatERKNS_6StringE@Base 3.2.1
 _ZN8casacore17TableExprFuncNode11string2BoolERKNS_6StringE@Base 3.2.1
 _ZN8casacore17TableExprFuncNode11string2RealERKNS_6StringE@Base 3.2.1
 _ZN8casacore17TableExprFuncNode11stringAngleEdiNS_7MVAngle11formatTypesE@Base 3.2.1
 _ZN8casacore17TableExprFuncNode11stringValueERKNS_6MVTimeERKNS_6StringEiRKSt4pairIiiE@Base 3.2.1
 _ZN8casacore17TableExprFuncNode11stringValueERKNS_6StringES3_i@Base 3.2.1
 _ZN8casacore17TableExprFuncNode11stringValueERKSt7complexIdERKNS_6StringEii@Base 3.2.1
 _ZN8casacore17TableExprFuncNode11stringValueEbRKNS_6StringEi@Base 3.2.1
 _ZN8casacore17TableExprFuncNode11stringValueEdRKNS_6StringEiiRKSt4pairIiiERKNS_4UnitE@Base 3.2.1
 _ZN8casacore17TableExprFuncNode11stringValueExRKNS_6StringEi@Base 3.2.1
 _ZN8casacore17TableExprFuncNode13checkOperandsERNS_5BlockIiEERNS_16TableExprNodeRep9ValueTypeES3_NS0_12FunctionTypeERSt6vectorINS_10CountedPtrIS4_EESaISA_EE@Base 3.2.1
 _ZN8casacore17TableExprFuncNode14fillChildNodesERKSt6vectorINS_10CountedPtrINS_16TableExprNodeRepEEESaIS4_EERKNS_5BlockIiEE@Base 3.2.1
 _ZN8casacore17TableExprFuncNode14getPrintFormatERNS_6StringERiS3_RKSt6vectorINS_10CountedPtrINS_16TableExprNodeRepEEESaIS7_EERKNS_11TableExprIdE@Base 3.2.1
 _ZN8casacore17TableExprFuncNode14makeEqualUnitsERSt6vectorINS_10CountedPtrINS_16TableExprNodeRepEEESaIS4_EEjj@Base 3.2.1
 _ZN8casacore17TableExprFuncNode14string2ComplexERKNS_6StringE@Base 3.2.1
 _ZN8casacore17TableExprFuncNode14stringDateTimeERKNS_6MVTimeEi@Base 3.2.1
 _ZN8casacore17TableExprFuncNode6getIntERKNS_11TableExprIdE@Base 3.2.1
 _ZN8casacore17TableExprFuncNode7getBoolERKNS_11TableExprIdE@Base 3.2.1
 _ZN8casacore17TableExprFuncNode7getDateERKNS_11TableExprIdE@Base 3.2.1
 _ZN8casacore17TableExprFuncNode8getRegexERKNS_11TableExprIdE@Base 3.2.1
 _ZN8casacore17TableExprFuncNode8stringDTERKNS_6MVTimeEiNS1_11formatTypesE@Base 3.2.1
 _ZN8casacore17TableExprFuncNode9fillUnitsEv@Base 3.2.1
 _ZN8casacore17TableExprFuncNode9getDoubleERKNS_11TableExprIdE@Base 3.2.1
 _ZN8casacore17TableExprFuncNode9getStringERKNS_11TableExprIdE@Base 3.2.1
 _ZN8casacore17TableExprFuncNode9stringDMSEdi@Base 3.2.1
 _ZN8casacore17TableExprFuncNode9stringHMSEdi@Base 3.2.1
 _ZN8casacore17TableExprFuncNodeC1ENS0_12FunctionTypeENS_16TableExprNodeRep12NodeDataTypeENS2_9ValueTypeERKNS_16TableExprNodeSetERKSt6vectorINS_10CountedPtrIS2_EESaISA_EERKNS_5BlockIiEERKNS_5TableE@Base 3.2.1
 _ZN8casacore17TableExprFuncNodeC2ENS0_12FunctionTypeENS_16TableExprNodeRep12NodeDataTypeENS2_9ValueTypeERKNS_16TableExprNodeSetERKSt6vectorINS_10CountedPtrIS2_EESaISA_EERKNS_5BlockIiEERKNS_5TableE@Base 3.2.1
 _ZN8casacore17TableExprFuncNodeD0Ev@Base 3.2.1
 _ZN8casacore17TableExprFuncNodeD1Ev@Base 3.2.1
 _ZN8casacore17TableExprFuncNodeD2Ev@Base 3.2.1
 _ZN8casacore17TableExprGroupAll5applyERKNS_11TableExprIdE@Base 3.2.1
 _ZN8casacore17TableExprGroupAllC1EPNS_16TableExprNodeRepE@Base 3.2.1
 _ZN8casacore17TableExprGroupAllC2EPNS_16TableExprNodeRepE@Base 3.2.1
 _ZN8casacore17TableExprGroupAllD0Ev@Base 3.2.1
 _ZN8casacore17TableExprGroupAllD1Ev@Base 3.2.1
 _ZN8casacore17TableExprGroupAllD2Ev@Base 3.2.1
 _ZN8casacore17TableExprGroupAny5applyERKNS_11TableExprIdE@Base 3.2.1
 _ZN8casacore17TableExprGroupAnyC1EPNS_16TableExprNodeRepE@Base 3.2.1
 _ZN8casacore17TableExprGroupAnyC2EPNS_16TableExprNodeRepE@Base 3.2.1
 _ZN8casacore17TableExprGroupAnyD0Ev@Base 3.2.1
 _ZN8casacore17TableExprGroupAnyD1Ev@Base 3.2.1
 _ZN8casacore17TableExprGroupAnyD2Ev@Base 3.2.1
 _ZN8casacore17TableExprNodePlusC1ENS_16TableExprNodeRep12NodeDataTypeERKS1_@Base 3.2.1
 _ZN8casacore17TableExprNodePlusC2ENS_16TableExprNodeRep12NodeDataTypeERKS1_@Base 3.2.1
 _ZN8casacore17TableExprNodePlusD0Ev@Base 3.2.1
 _ZN8casacore17TableExprNodePlusD1Ev@Base 3.2.1
 _ZN8casacore17TableExprNodePlusD2Ev@Base 3.2.1
 _ZN8casacore17TableExprNodeUnit10adaptUnitsERNS_10CountedPtrINS_16TableExprNodeRepEEES4_S4_@Base 3.2.1
 _ZN8casacore17TableExprNodeUnit11getDComplexERKNS_11TableExprIdE@Base 3.2.1
 _ZN8casacore17TableExprNodeUnit3setERNS_16TableExprNodeRepERKNS_10CountedPtrIS1_EERKNS_4UnitE@Base 3.2.1
 _ZN8casacore17TableExprNodeUnit7useUnitERKNS_10CountedPtrINS_16TableExprNodeRepEEERKNS_4UnitE@Base 3.2.1
 _ZN8casacore17TableExprNodeUnit9adaptUnitERNS_10CountedPtrINS_16TableExprNodeRepEEERKNS_4UnitE@Base 3.2.1
 _ZN8casacore17TableExprNodeUnit9getDoubleERKNS_11TableExprIdE@Base 3.2.1
 _ZN8casacore17TableExprNodeUnitC1ERKNS_10CountedPtrINS_16TableExprNodeRepEEERKNS_4UnitE@Base 3.2.1
 _ZN8casacore17TableExprNodeUnitC2ERKNS_10CountedPtrINS_16TableExprNodeRepEEERKNS_4UnitE@Base 3.2.1
 _ZN8casacore17TableExprNodeUnitD0Ev@Base 3.2.1
 _ZN8casacore17TableExprNodeUnitD1Ev@Base 3.2.1
 _ZN8casacore17TableExprNodeUnitD2Ev@Base 3.2.1
 _ZN8casacore17TableInvHyperDescC1ERKNS_6StringES3_NS_9AipsError8CategoryE@Base 3.2.1
 _ZN8casacore17TableInvHyperDescC2ERKNS_6StringES3_NS_9AipsError8CategoryE@Base 3.2.1
 _ZN8casacore17TableInvHyperDescD0Ev@Base 3.2.1
 _ZN8casacore17TableInvHyperDescD1Ev@Base 3.2.1
 _ZN8casacore17TableInvHyperDescD2Ev@Base 3.2.1
 _ZN8casacore17VirtualTaQLColumn10getStringVEjPNS_6StringE@Base 3.2.1
 _ZN8casacore17VirtualTaQLColumn10getdoubleVEjPd@Base 3.2.1
 _ZN8casacore17VirtualTaQLColumn10getuShortVEjPt@Base 3.2.1
 _ZN8casacore17VirtualTaQLColumn10makeObjectERKNS_6StringERKNS_6RecordE@Base 3.2.1
 _ZN8casacore17VirtualTaQLColumn11getComplexVEjPSt7complexIfE@Base 3.2.1
 _ZN8casacore17VirtualTaQLColumn12getDComplexVEjPSt7complexIdE@Base 3.2.1
 _ZN8casacore17VirtualTaQLColumn13makeCurResultEv@Base 3.2.1
 _ZN8casacore17VirtualTaQLColumn13registerClassEv@Base 3.2.1
 _ZN8casacore17VirtualTaQLColumn14clearCurResultEv@Base 3.2.1
 _ZN8casacore17VirtualTaQLColumn14isShapeDefinedEj@Base 3.2.1
 _ZN8casacore17VirtualTaQLColumn16makeIndArrColumnERKNS_6StringEiS3_@Base 3.2.1
 _ZN8casacore17VirtualTaQLColumn16makeScalarColumnERKNS_6StringEiS3_@Base 3.2.1
 _ZN8casacore17VirtualTaQLColumn4ndimEj@Base 3.2.1
 _ZN8casacore17VirtualTaQLColumn5shapeEj@Base 3.2.1
 _ZN8casacore17VirtualTaQLColumn6createEj@Base 3.2.1
 _ZN8casacore17VirtualTaQLColumn7getIntVEjPi@Base 3.2.1
 _ZN8casacore17VirtualTaQLColumn7prepareEv@Base 3.2.1
 _ZN8casacore17VirtualTaQLColumn8getBoolVEjPb@Base 3.2.1
 _ZN8casacore17VirtualTaQLColumn8getuIntVEjPj@Base 3.2.1
 _ZN8casacore17VirtualTaQLColumn9classNameEv@Base 3.2.1
 _ZN8casacore17VirtualTaQLColumn9getArrayVEjPv@Base 3.2.1
 _ZN8casacore17VirtualTaQLColumn9getInt64VEjPx@Base 3.2.1
 _ZN8casacore17VirtualTaQLColumn9getResultEj@Base 3.2.1
 _ZN8casacore17VirtualTaQLColumn9getShortVEjPs@Base 3.2.1
 _ZN8casacore17VirtualTaQLColumn9getfloatVEjPf@Base 3.2.1
 _ZN8casacore17VirtualTaQLColumn9getuCharVEjPh@Base 3.2.1
 _ZN8casacore17VirtualTaQLColumnC1ERKNS_6RecordE@Base 3.2.1
 _ZN8casacore17VirtualTaQLColumnC1ERKNS_6StringE@Base 3.2.1
 _ZN8casacore17VirtualTaQLColumnC2ERKNS_6RecordE@Base 3.2.1
 _ZN8casacore17VirtualTaQLColumnC2ERKNS_6StringE@Base 3.2.1
 _ZN8casacore17VirtualTaQLColumnD0Ev@Base 3.2.1
 _ZN8casacore17VirtualTaQLColumnD1Ev@Base 3.2.1
 _ZN8casacore17VirtualTaQLColumnD2Ev@Base 3.2.1
 _ZN8casacore17earthMagneticHelpE@Base 3.2.1
 _ZN8casacore17new_del_allocatorINS_5SliceEED1Ev@Base 3.2.1
 _ZN8casacore17new_del_allocatorINS_5SliceEED2Ev@Base 3.2.1
 _ZN8casacore17new_del_allocatorINS_6MVTimeEED1Ev@Base 3.2.1
 _ZN8casacore17new_del_allocatorINS_6MVTimeEED2Ev@Base 3.2.1
 _ZN8casacore17new_del_allocatorINS_6VectorINS_5SliceEEEED1Ev@Base 3.2.1
 _ZN8casacore17new_del_allocatorINS_6VectorINS_5SliceEEEED2Ev@Base 3.2.1
 _ZN8casacore17new_del_allocatorIPNS_6SlicerEED1Ev@Base 3.2.1
 _ZN8casacore17new_del_allocatorIPNS_6SlicerEED2Ev@Base 3.2.1
 _ZN8casacore17tableGramPositionEv@Base 3.2.1
 _ZN8casacore18CompareIntervalIntIhED0Ev@Base 3.2.1
 _ZN8casacore18CompareIntervalIntIhED1Ev@Base 3.2.1
 _ZN8casacore18CompareIntervalIntIhED2Ev@Base 3.2.1
 _ZN8casacore18CompareIntervalIntIiED0Ev@Base 3.2.1
 _ZN8casacore18CompareIntervalIntIiED1Ev@Base 3.2.1
 _ZN8casacore18CompareIntervalIntIiED2Ev@Base 3.2.1
 _ZN8casacore18CompareIntervalIntIjED0Ev@Base 3.2.1
 _ZN8casacore18CompareIntervalIntIjED1Ev@Base 3.2.1
 _ZN8casacore18CompareIntervalIntIjED2Ev@Base 3.2.1
 _ZN8casacore18CompareIntervalIntIsED0Ev@Base 3.2.1
 _ZN8casacore18CompareIntervalIntIsED1Ev@Base 3.2.1
 _ZN8casacore18CompareIntervalIntIsED2Ev@Base 3.2.1
 _ZN8casacore18CompareIntervalIntItED0Ev@Base 3.2.1
 _ZN8casacore18CompareIntervalIntItED1Ev@Base 3.2.1
 _ZN8casacore18CompareIntervalIntItED2Ev@Base 3.2.1
 _ZN8casacore18CompareIntervalIntIxED0Ev@Base 3.2.1
 _ZN8casacore18CompareIntervalIntIxED1Ev@Base 3.2.1
 _ZN8casacore18CompareIntervalIntIxED2Ev@Base 3.2.1
 _ZN8casacore18ConcatScalarColumnINS_6StringEE11fillSortKeyEPKNS_6VectorIS1_EERNS_4SortERNS_10CountedPtrINS_11BaseCompareEEEi@Base 3.2.1
 _ZN8casacore18ConcatScalarColumnINS_6StringEE11freeSortKeyERPKv@Base 3.2.1
 _ZN8casacore18ConcatScalarColumnINS_6StringEE11makeSortKeyERNS_4SortERNS_10CountedPtrINS_11BaseCompareEEEiRPKv@Base 3.2.1
 _ZN8casacore18ConcatScalarColumnINS_6StringEE14makeRefSortKeyERNS_4SortERNS_10CountedPtrINS_11BaseCompareEEEiRKNS_6VectorIjEERPKv@Base 3.2.1
 _ZN8casacore18ConcatScalarColumnINS_6StringEE15putScalarColumnEPKv@Base 3.2.1
 _ZN8casacore18ConcatScalarColumnINS_6StringEE20putScalarColumnCellsERKNS_7RefRowsEPKv@Base 3.2.1
 _ZN8casacore18ConcatScalarColumnINS_6StringEED0Ev@Base 3.2.1
 _ZN8casacore18ConcatScalarColumnINS_6StringEED1Ev@Base 3.2.1
 _ZN8casacore18ConcatScalarColumnINS_6StringEED2Ev@Base 3.2.1
 _ZN8casacore18ConcatScalarColumnISt7complexIdEE11fillSortKeyEPKNS_6VectorIS2_EERNS_4SortERNS_10CountedPtrINS_11BaseCompareEEEi@Base 3.2.1
 _ZN8casacore18ConcatScalarColumnISt7complexIdEE11freeSortKeyERPKv@Base 3.2.1
 _ZN8casacore18ConcatScalarColumnISt7complexIdEE11makeSortKeyERNS_4SortERNS_10CountedPtrINS_11BaseCompareEEEiRPKv@Base 3.2.1
 _ZN8casacore18ConcatScalarColumnISt7complexIdEE14makeRefSortKeyERNS_4SortERNS_10CountedPtrINS_11BaseCompareEEEiRKNS_6VectorIjEERPKv@Base 3.2.1
 _ZN8casacore18ConcatScalarColumnISt7complexIdEE15putScalarColumnEPKv@Base 3.2.1
 _ZN8casacore18ConcatScalarColumnISt7complexIdEE20putScalarColumnCellsERKNS_7RefRowsEPKv@Base 3.2.1
 _ZN8casacore18ConcatScalarColumnISt7complexIdEED0Ev@Base 3.2.1
 _ZN8casacore18ConcatScalarColumnISt7complexIdEED1Ev@Base 3.2.1
 _ZN8casacore18ConcatScalarColumnISt7complexIdEED2Ev@Base 3.2.1
 _ZN8casacore18ConcatScalarColumnISt7complexIfEE11fillSortKeyEPKNS_6VectorIS2_EERNS_4SortERNS_10CountedPtrINS_11BaseCompareEEEi@Base 3.2.1
 _ZN8casacore18ConcatScalarColumnISt7complexIfEE11freeSortKeyERPKv@Base 3.2.1
 _ZN8casacore18ConcatScalarColumnISt7complexIfEE11makeSortKeyERNS_4SortERNS_10CountedPtrINS_11BaseCompareEEEiRPKv@Base 3.2.1
 _ZN8casacore18ConcatScalarColumnISt7complexIfEE14makeRefSortKeyERNS_4SortERNS_10CountedPtrINS_11BaseCompareEEEiRKNS_6VectorIjEERPKv@Base 3.2.1
 _ZN8casacore18ConcatScalarColumnISt7complexIfEE15putScalarColumnEPKv@Base 3.2.1
 _ZN8casacore18ConcatScalarColumnISt7complexIfEE20putScalarColumnCellsERKNS_7RefRowsEPKv@Base 3.2.1
 _ZN8casacore18ConcatScalarColumnISt7complexIfEED0Ev@Base 3.2.1
 _ZN8casacore18ConcatScalarColumnISt7complexIfEED1Ev@Base 3.2.1
 _ZN8casacore18ConcatScalarColumnISt7complexIfEED2Ev@Base 3.2.1
 _ZN8casacore18ConcatScalarColumnIbE11fillSortKeyEPKNS_6VectorIbEERNS_4SortERNS_10CountedPtrINS_11BaseCompareEEEi@Base 3.2.1
 _ZN8casacore18ConcatScalarColumnIbE11freeSortKeyERPKv@Base 3.2.1
 _ZN8casacore18ConcatScalarColumnIbE11makeSortKeyERNS_4SortERNS_10CountedPtrINS_11BaseCompareEEEiRPKv@Base 3.2.1
 _ZN8casacore18ConcatScalarColumnIbE14makeRefSortKeyERNS_4SortERNS_10CountedPtrINS_11BaseCompareEEEiRKNS_6VectorIjEERPKv@Base 3.2.1
 _ZN8casacore18ConcatScalarColumnIbE15putScalarColumnEPKv@Base 3.2.1
 _ZN8casacore18ConcatScalarColumnIbE20putScalarColumnCellsERKNS_7RefRowsEPKv@Base 3.2.1
 _ZN8casacore18ConcatScalarColumnIbED0Ev@Base 3.2.1
 _ZN8casacore18ConcatScalarColumnIbED1Ev@Base 3.2.1
 _ZN8casacore18ConcatScalarColumnIbED2Ev@Base 3.2.1
 _ZN8casacore18ConcatScalarColumnIcE11fillSortKeyEPKNS_6VectorIcEERNS_4SortERNS_10CountedPtrINS_11BaseCompareEEEi@Base 3.2.1
 _ZN8casacore18ConcatScalarColumnIcE11freeSortKeyERPKv@Base 3.2.1
 _ZN8casacore18ConcatScalarColumnIcE11makeSortKeyERNS_4SortERNS_10CountedPtrINS_11BaseCompareEEEiRPKv@Base 3.2.1
 _ZN8casacore18ConcatScalarColumnIcE14makeRefSortKeyERNS_4SortERNS_10CountedPtrINS_11BaseCompareEEEiRKNS_6VectorIjEERPKv@Base 3.2.1
 _ZN8casacore18ConcatScalarColumnIcE15putScalarColumnEPKv@Base 3.2.1
 _ZN8casacore18ConcatScalarColumnIcE20putScalarColumnCellsERKNS_7RefRowsEPKv@Base 3.2.1
 _ZN8casacore18ConcatScalarColumnIcED0Ev@Base 3.2.1
 _ZN8casacore18ConcatScalarColumnIcED1Ev@Base 3.2.1
 _ZN8casacore18ConcatScalarColumnIcED2Ev@Base 3.2.1
 _ZN8casacore18ConcatScalarColumnIdE11fillSortKeyEPKNS_6VectorIdEERNS_4SortERNS_10CountedPtrINS_11BaseCompareEEEi@Base 3.2.1
 _ZN8casacore18ConcatScalarColumnIdE11freeSortKeyERPKv@Base 3.2.1
 _ZN8casacore18ConcatScalarColumnIdE11makeSortKeyERNS_4SortERNS_10CountedPtrINS_11BaseCompareEEEiRPKv@Base 3.2.1
 _ZN8casacore18ConcatScalarColumnIdE14makeRefSortKeyERNS_4SortERNS_10CountedPtrINS_11BaseCompareEEEiRKNS_6VectorIjEERPKv@Base 3.2.1
 _ZN8casacore18ConcatScalarColumnIdE15putScalarColumnEPKv@Base 3.2.1
 _ZN8casacore18ConcatScalarColumnIdE20putScalarColumnCellsERKNS_7RefRowsEPKv@Base 3.2.1
 _ZN8casacore18ConcatScalarColumnIdED0Ev@Base 3.2.1
 _ZN8casacore18ConcatScalarColumnIdED1Ev@Base 3.2.1
 _ZN8casacore18ConcatScalarColumnIdED2Ev@Base 3.2.1
 _ZN8casacore18ConcatScalarColumnIfE11fillSortKeyEPKNS_6VectorIfEERNS_4SortERNS_10CountedPtrINS_11BaseCompareEEEi@Base 3.2.1
 _ZN8casacore18ConcatScalarColumnIfE11freeSortKeyERPKv@Base 3.2.1
 _ZN8casacore18ConcatScalarColumnIfE11makeSortKeyERNS_4SortERNS_10CountedPtrINS_11BaseCompareEEEiRPKv@Base 3.2.1
 _ZN8casacore18ConcatScalarColumnIfE14makeRefSortKeyERNS_4SortERNS_10CountedPtrINS_11BaseCompareEEEiRKNS_6VectorIjEERPKv@Base 3.2.1
 _ZN8casacore18ConcatScalarColumnIfE15putScalarColumnEPKv@Base 3.2.1
 _ZN8casacore18ConcatScalarColumnIfE20putScalarColumnCellsERKNS_7RefRowsEPKv@Base 3.2.1
 _ZN8casacore18ConcatScalarColumnIfED0Ev@Base 3.2.1
 _ZN8casacore18ConcatScalarColumnIfED1Ev@Base 3.2.1
 _ZN8casacore18ConcatScalarColumnIfED2Ev@Base 3.2.1
 _ZN8casacore18ConcatScalarColumnIhE11fillSortKeyEPKNS_6VectorIhEERNS_4SortERNS_10CountedPtrINS_11BaseCompareEEEi@Base 3.2.1
 _ZN8casacore18ConcatScalarColumnIhE11freeSortKeyERPKv@Base 3.2.1
 _ZN8casacore18ConcatScalarColumnIhE11makeSortKeyERNS_4SortERNS_10CountedPtrINS_11BaseCompareEEEiRPKv@Base 3.2.1
 _ZN8casacore18ConcatScalarColumnIhE14makeRefSortKeyERNS_4SortERNS_10CountedPtrINS_11BaseCompareEEEiRKNS_6VectorIjEERPKv@Base 3.2.1
 _ZN8casacore18ConcatScalarColumnIhE15putScalarColumnEPKv@Base 3.2.1
 _ZN8casacore18ConcatScalarColumnIhE20putScalarColumnCellsERKNS_7RefRowsEPKv@Base 3.2.1
 _ZN8casacore18ConcatScalarColumnIhED0Ev@Base 3.2.1
 _ZN8casacore18ConcatScalarColumnIhED1Ev@Base 3.2.1
 _ZN8casacore18ConcatScalarColumnIhED2Ev@Base 3.2.1
 _ZN8casacore18ConcatScalarColumnIiE11fillSortKeyEPKNS_6VectorIiEERNS_4SortERNS_10CountedPtrINS_11BaseCompareEEEi@Base 3.2.1
 _ZN8casacore18ConcatScalarColumnIiE11freeSortKeyERPKv@Base 3.2.1
 _ZN8casacore18ConcatScalarColumnIiE11makeSortKeyERNS_4SortERNS_10CountedPtrINS_11BaseCompareEEEiRPKv@Base 3.2.1
 _ZN8casacore18ConcatScalarColumnIiE14makeRefSortKeyERNS_4SortERNS_10CountedPtrINS_11BaseCompareEEEiRKNS_6VectorIjEERPKv@Base 3.2.1
 _ZN8casacore18ConcatScalarColumnIiE15putScalarColumnEPKv@Base 3.2.1
 _ZN8casacore18ConcatScalarColumnIiE20putScalarColumnCellsERKNS_7RefRowsEPKv@Base 3.2.1
 _ZN8casacore18ConcatScalarColumnIiED0Ev@Base 3.2.1
 _ZN8casacore18ConcatScalarColumnIiED1Ev@Base 3.2.1
 _ZN8casacore18ConcatScalarColumnIiED2Ev@Base 3.2.1
 _ZN8casacore18ConcatScalarColumnIjE11fillSortKeyEPKNS_6VectorIjEERNS_4SortERNS_10CountedPtrINS_11BaseCompareEEEi@Base 3.2.1
 _ZN8casacore18ConcatScalarColumnIjE11freeSortKeyERPKv@Base 3.2.1
 _ZN8casacore18ConcatScalarColumnIjE11makeSortKeyERNS_4SortERNS_10CountedPtrINS_11BaseCompareEEEiRPKv@Base 3.2.1
 _ZN8casacore18ConcatScalarColumnIjE14makeRefSortKeyERNS_4SortERNS_10CountedPtrINS_11BaseCompareEEEiRKNS_6VectorIjEERPKv@Base 3.2.1
 _ZN8casacore18ConcatScalarColumnIjE15putScalarColumnEPKv@Base 3.2.1
 _ZN8casacore18ConcatScalarColumnIjE20putScalarColumnCellsERKNS_7RefRowsEPKv@Base 3.2.1
 _ZN8casacore18ConcatScalarColumnIjED0Ev@Base 3.2.1
 _ZN8casacore18ConcatScalarColumnIjED1Ev@Base 3.2.1
 _ZN8casacore18ConcatScalarColumnIjED2Ev@Base 3.2.1
 _ZN8casacore18ConcatScalarColumnIsE11fillSortKeyEPKNS_6VectorIsEERNS_4SortERNS_10CountedPtrINS_11BaseCompareEEEi@Base 3.2.1
 _ZN8casacore18ConcatScalarColumnIsE11freeSortKeyERPKv@Base 3.2.1
 _ZN8casacore18ConcatScalarColumnIsE11makeSortKeyERNS_4SortERNS_10CountedPtrINS_11BaseCompareEEEiRPKv@Base 3.2.1
 _ZN8casacore18ConcatScalarColumnIsE14makeRefSortKeyERNS_4SortERNS_10CountedPtrINS_11BaseCompareEEEiRKNS_6VectorIjEERPKv@Base 3.2.1
 _ZN8casacore18ConcatScalarColumnIsE15putScalarColumnEPKv@Base 3.2.1
 _ZN8casacore18ConcatScalarColumnIsE20putScalarColumnCellsERKNS_7RefRowsEPKv@Base 3.2.1
 _ZN8casacore18ConcatScalarColumnIsED0Ev@Base 3.2.1
 _ZN8casacore18ConcatScalarColumnIsED1Ev@Base 3.2.1
 _ZN8casacore18ConcatScalarColumnIsED2Ev@Base 3.2.1
 _ZN8casacore18ConcatScalarColumnItE11fillSortKeyEPKNS_6VectorItEERNS_4SortERNS_10CountedPtrINS_11BaseCompareEEEi@Base 3.2.1
 _ZN8casacore18ConcatScalarColumnItE11freeSortKeyERPKv@Base 3.2.1
 _ZN8casacore18ConcatScalarColumnItE11makeSortKeyERNS_4SortERNS_10CountedPtrINS_11BaseCompareEEEiRPKv@Base 3.2.1
 _ZN8casacore18ConcatScalarColumnItE14makeRefSortKeyERNS_4SortERNS_10CountedPtrINS_11BaseCompareEEEiRKNS_6VectorIjEERPKv@Base 3.2.1
 _ZN8casacore18ConcatScalarColumnItE15putScalarColumnEPKv@Base 3.2.1
 _ZN8casacore18ConcatScalarColumnItE20putScalarColumnCellsERKNS_7RefRowsEPKv@Base 3.2.1
 _ZN8casacore18ConcatScalarColumnItED0Ev@Base 3.2.1
 _ZN8casacore18ConcatScalarColumnItED1Ev@Base 3.2.1
 _ZN8casacore18ConcatScalarColumnItED2Ev@Base 3.2.1
 _ZN8casacore18ConcatScalarColumnIxE11fillSortKeyEPKNS_6VectorIxEERNS_4SortERNS_10CountedPtrINS_11BaseCompareEEEi@Base 3.2.1
 _ZN8casacore18ConcatScalarColumnIxE11freeSortKeyERPKv@Base 3.2.1
 _ZN8casacore18ConcatScalarColumnIxE11makeSortKeyERNS_4SortERNS_10CountedPtrINS_11BaseCompareEEEiRPKv@Base 3.2.1
 _ZN8casacore18ConcatScalarColumnIxE14makeRefSortKeyERNS_4SortERNS_10CountedPtrINS_11BaseCompareEEEiRKNS_6VectorIjEERPKv@Base 3.2.1
 _ZN8casacore18ConcatScalarColumnIxE15putScalarColumnEPKv@Base 3.2.1
 _ZN8casacore18ConcatScalarColumnIxE20putScalarColumnCellsERKNS_7RefRowsEPKv@Base 3.2.1
 _ZN8casacore18ConcatScalarColumnIxED0Ev@Base 3.2.1
 _ZN8casacore18ConcatScalarColumnIxED1Ev@Base 3.2.1
 _ZN8casacore18ConcatScalarColumnIxED2Ev@Base 3.2.1
 _ZN8casacore18DataManUnknownCtorC1ERKNS_6StringE@Base 3.2.1
 _ZN8casacore18DataManUnknownCtorC2ERKNS_6StringE@Base 3.2.1
 _ZN8casacore18DataManUnknownCtorD0Ev@Base 3.2.1
 _ZN8casacore18DataManUnknownCtorD1Ev@Base 3.2.1
 _ZN8casacore18DataManUnknownCtorD2Ev@Base 3.2.1
 _ZN8casacore18SSMIndStringColumn14isShapeDefinedEj@Base 3.2.1
 _ZN8casacore18SSMIndStringColumn15getArrayStringVEjPNS_5ArrayINS_6StringEEE@Base 3.2.1
 _ZN8casacore18SSMIndStringColumn15putArrayStringVEjPKNS_5ArrayINS_6StringEEE@Base 3.2.1
 _ZN8casacore18SSMIndStringColumn4ndimEj@Base 3.2.1
 _ZN8casacore18SSMIndStringColumn5shapeEj@Base 3.2.1
 _ZN8casacore18SSMIndStringColumn8setShapeEjRKNS_9IPositionE@Base 3.2.1
 _ZN8casacore18SSMIndStringColumnC1EPNS_7SSMBaseEij@Base 3.2.1
 _ZN8casacore18SSMIndStringColumnC2EPNS_7SSMBaseEij@Base 3.2.1
 _ZN8casacore18SSMIndStringColumnD0Ev@Base 3.2.1
 _ZN8casacore18SSMIndStringColumnD1Ev@Base 3.2.1
 _ZN8casacore18SSMIndStringColumnD2Ev@Base 3.2.1
 _ZN8casacore18TaQLColSpecNodeRep7restoreERNS_6AipsIOE@Base 3.2.1
 _ZN8casacore18TaQLColSpecNodeRepC1ERKNS_6StringES3_RKNS_13TaQLMultiNodeE@Base 3.2.1
 _ZN8casacore18TaQLColSpecNodeRepC2ERKNS_6StringES3_RKNS_13TaQLMultiNodeE@Base 3.2.1
 _ZN8casacore18TaQLColSpecNodeRepD0Ev@Base 3.2.1
 _ZN8casacore18TaQLColSpecNodeRepD1Ev@Base 3.2.1
 _ZN8casacore18TaQLColSpecNodeRepD2Ev@Base 3.2.1
 _ZN8casacore18TaQLColumnsNodeRep7restoreERNS_6AipsIOE@Base 3.2.1
 _ZN8casacore18TaQLColumnsNodeRepC1EbRKNS_13TaQLMultiNodeE@Base 3.2.1
 _ZN8casacore18TaQLColumnsNodeRepC2EbRKNS_13TaQLMultiNodeE@Base 3.2.1
 _ZN8casacore18TaQLColumnsNodeRepD0Ev@Base 3.2.1
 _ZN8casacore18TaQLColumnsNodeRepD1Ev@Base 3.2.1
 _ZN8casacore18TaQLColumnsNodeRepD2Ev@Base 3.2.1
 _ZN8casacore18TaQLConcTabNodeRep7restoreERNS_6AipsIOE@Base 3.2.1
 _ZN8casacore18TaQLConcTabNodeRepC1ERKNS_6StringERKNS_13TaQLMultiNodeES6_@Base 3.2.1
 _ZN8casacore18TaQLConcTabNodeRepC2ERKNS_6StringERKNS_13TaQLMultiNodeES6_@Base 3.2.1
 _ZN8casacore18TaQLConcTabNodeRepD0Ev@Base 3.2.1
 _ZN8casacore18TaQLConcTabNodeRepD1Ev@Base 3.2.1
 _ZN8casacore18TaQLConcTabNodeRepD2Ev@Base 3.2.1
 _ZN8casacore18TaQLRenDropNodeRep7restoreERNS_6AipsIOE@Base 3.2.1
 _ZN8casacore18TaQLRenDropNodeRepC1EiRKNS_13TaQLMultiNodeE@Base 3.2.1
 _ZN8casacore18TaQLRenDropNodeRepC2EiRKNS_13TaQLMultiNodeE@Base 3.2.1
 _ZN8casacore18TaQLRenDropNodeRepD0Ev@Base 3.2.1
 _ZN8casacore18TaQLRenDropNodeRepD1Ev@Base 3.2.1
 _ZN8casacore18TaQLRenDropNodeRepD2Ev@Base 3.2.1
 _ZN8casacore18TaQLSortKeyNodeRep7restoreERNS_6AipsIOE@Base 3.2.1
 _ZN8casacore18TaQLSortKeyNodeRepC1ENS0_4TypeERKNS_8TaQLNodeE@Base 3.2.1
 _ZN8casacore18TaQLSortKeyNodeRepC2ENS0_4TypeERKNS_8TaQLNodeE@Base 3.2.1
 _ZN8casacore18TaQLSortKeyNodeRepD0Ev@Base 3.2.1
 _ZN8casacore18TaQLSortKeyNodeRepD1Ev@Base 3.2.1
 _ZN8casacore18TaQLSortKeyNodeRepD2Ev@Base 3.2.1
 _ZN8casacore18TaQLUpdExprNodeRep7restoreERNS_6AipsIOE@Base 3.2.1
 _ZN8casacore18TaQLUpdExprNodeRepC1ERKNS_6StringES3_RKNS_13TaQLMultiNodeERKNS_8TaQLNodeE@Base 3.2.1
 _ZN8casacore18TaQLUpdExprNodeRepC1ERKNS_6StringES3_RKNS_13TaQLMultiNodeES6_RKNS_8TaQLNodeE@Base 3.2.1
 _ZN8casacore18TaQLUpdExprNodeRepC1ERKNS_6StringES3_RKNS_8TaQLNodeE@Base 3.2.1
 _ZN8casacore18TaQLUpdExprNodeRepC2ERKNS_6StringES3_RKNS_13TaQLMultiNodeERKNS_8TaQLNodeE@Base 3.2.1
 _ZN8casacore18TaQLUpdExprNodeRepC2ERKNS_6StringES3_RKNS_13TaQLMultiNodeES6_RKNS_8TaQLNodeE@Base 3.2.1
 _ZN8casacore18TaQLUpdExprNodeRepC2ERKNS_6StringES3_RKNS_8TaQLNodeE@Base 3.2.1
 _ZN8casacore18TaQLUpdExprNodeRepD0Ev@Base 3.2.1
 _ZN8casacore18TaQLUpdExprNodeRepD1Ev@Base 3.2.1
 _ZN8casacore18TaQLUpdExprNodeRepD2Ev@Base 3.2.1
 _ZN8casacore18TableExprGroupAggr11getArrayIntERKSt6vectorINS_11TableExprIdESaIS2_EE@Base 3.2.1
 _ZN8casacore18TableExprGroupAggr12getArrayBoolERKSt6vectorINS_11TableExprIdESaIS2_EE@Base 3.2.1
 _ZN8casacore18TableExprGroupAggr12getArrayDateERKSt6vectorINS_11TableExprIdESaIS2_EE@Base 3.2.1
 _ZN8casacore18TableExprGroupAggr14getArrayDoubleERKSt6vectorINS_11TableExprIdESaIS2_EE@Base 3.2.1
 _ZN8casacore18TableExprGroupAggr14getArrayStringERKSt6vectorINS_11TableExprIdESaIS2_EE@Base 3.2.1
 _ZN8casacore18TableExprGroupAggr16getArrayDComplexERKSt6vectorINS_11TableExprIdESaIS2_EE@Base 3.2.1
 _ZN8casacore18TableExprGroupAggr5applyERKNS_11TableExprIdE@Base 3.2.1
 _ZN8casacore18TableExprGroupAggr8getArrayINS_6MVTimeEEENS_6MArrayIT_EERKSt6vectorINS_11TableExprIdESaIS7_EE@Base 3.2.1
 _ZN8casacore18TableExprGroupAggr8getArrayINS_6StringEEENS_6MArrayIT_EERKSt6vectorINS_11TableExprIdESaIS7_EE@Base 3.2.1
 _ZN8casacore18TableExprGroupAggr8getArrayISt7complexIdEEENS_6MArrayIT_EERKSt6vectorINS_11TableExprIdESaIS8_EE@Base 3.2.1
 _ZN8casacore18TableExprGroupAggr8getArrayIbEENS_6MArrayIT_EERKSt6vectorINS_11TableExprIdESaIS6_EE@Base 3.2.1
 _ZN8casacore18TableExprGroupAggr8getArrayIdEENS_6MArrayIT_EERKSt6vectorINS_11TableExprIdESaIS6_EE@Base 3.2.1
 _ZN8casacore18TableExprGroupAggr8getArrayIxEENS_6MArrayIT_EERKSt6vectorINS_11TableExprIdESaIS6_EE@Base 3.2.1
 _ZN8casacore18TableExprGroupAggrC1EPNS_16TableExprNodeRepE@Base 3.2.1
 _ZN8casacore18TableExprGroupAggrC2EPNS_16TableExprNodeRepE@Base 3.2.1
 _ZN8casacore18TableExprGroupAggrD0Ev@Base 3.2.1
 _ZN8casacore18TableExprGroupAggrD1Ev@Base 3.2.1
 _ZN8casacore18TableExprGroupAggrD2Ev@Base 3.2.1
 _ZN8casacore18TableExprGroupLast5applyERKNS_11TableExprIdE@Base 3.2.1
 _ZN8casacore18TableExprGroupLastC1EPNS_16TableExprNodeRepE@Base 3.2.1
 _ZN8casacore18TableExprGroupLastC2EPNS_16TableExprNodeRepE@Base 3.2.1
 _ZN8casacore18TableExprGroupLastD0Ev@Base 3.2.1
 _ZN8casacore18TableExprGroupLastD1Ev@Base 3.2.1
 _ZN8casacore18TableExprGroupLastD2Ev@Base 3.2.1
 _ZN8casacore18TableExprGroupNull5applyERKNS_11TableExprIdE@Base 3.2.1
