libcasa_fits.so.4 libcasa-fits4 #MINVER#
 _ZGVN8casacore15NewDelAllocatorINS_6MVTimeEE5valueE@Base 3.2.1
 _ZGVN8casacore15NewDelAllocatorIPNS_6SlicerEE5valueE@Base 3.2.1
 _ZGVN8casacore16DefaultAllocatorINS_6MVTimeEE5valueE@Base 3.2.1
 _ZGVN8casacore16DefaultAllocatorIPNS_6SlicerEE5valueE@Base 3.2.1
 _ZGVN8casacore17Allocator_private17BulkAllocatorImplINS_17new_del_allocatorINS_6MVTimeEEEE9allocatorE@Base 3.2.1
 _ZGVN8casacore17Allocator_private17BulkAllocatorImplINS_17new_del_allocatorIPNS_6SlicerEEEE9allocatorE@Base 3.2.1
 _ZGVN8casacore17Allocator_private17BulkAllocatorImplINS_18casacore_allocatorINS_14RecordFieldPtrINS_5ArrayINS_6StringEEEEELm32EEEE9allocatorE@Base 3.2.1
 _ZGVN8casacore17Allocator_private17BulkAllocatorImplINS_18casacore_allocatorINS_14RecordFieldPtrINS_5ArrayISt7complexIdEEEEELm32EEEE9allocatorE@Base 3.2.1
 _ZGVN8casacore17Allocator_private17BulkAllocatorImplINS_18casacore_allocatorINS_14RecordFieldPtrINS_5ArrayISt7complexIfEEEEELm32EEEE9allocatorE@Base 3.2.1
 _ZGVN8casacore17Allocator_private17BulkAllocatorImplINS_18casacore_allocatorINS_14RecordFieldPtrINS_5ArrayIbEEEELm32EEEE9allocatorE@Base 3.2.1
 _ZGVN8casacore17Allocator_private17BulkAllocatorImplINS_18casacore_allocatorINS_14RecordFieldPtrINS_5ArrayIdEEEELm32EEEE9allocatorE@Base 3.2.1
 _ZGVN8casacore17Allocator_private17BulkAllocatorImplINS_18casacore_allocatorINS_14RecordFieldPtrINS_5ArrayIfEEEELm32EEEE9allocatorE@Base 3.2.1
 _ZGVN8casacore17Allocator_private17BulkAllocatorImplINS_18casacore_allocatorINS_14RecordFieldPtrINS_5ArrayIhEEEELm32EEEE9allocatorE@Base 3.2.1
 _ZGVN8casacore17Allocator_private17BulkAllocatorImplINS_18casacore_allocatorINS_14RecordFieldPtrINS_5ArrayIiEEEELm32EEEE9allocatorE@Base 3.2.1
 _ZGVN8casacore17Allocator_private17BulkAllocatorImplINS_18casacore_allocatorINS_14RecordFieldPtrINS_5ArrayIsEEEELm32EEEE9allocatorE@Base 3.2.1
 _ZGVN8casacore17Allocator_private17BulkAllocatorImplINS_18casacore_allocatorINS_14RecordFieldPtrINS_6StringEEELm32EEEE9allocatorE@Base 3.2.1
 _ZGVN8casacore17Allocator_private17BulkAllocatorImplINS_18casacore_allocatorINS_14RecordFieldPtrISt7complexIdEEELm32EEEE9allocatorE@Base 3.2.1
 _ZGVN8casacore17Allocator_private17BulkAllocatorImplINS_18casacore_allocatorINS_14RecordFieldPtrISt7complexIfEEELm32EEEE9allocatorE@Base 3.2.1
 _ZGVN8casacore17Allocator_private17BulkAllocatorImplINS_18casacore_allocatorINS_14RecordFieldPtrIbEELm32EEEE9allocatorE@Base 3.2.1
 _ZGVN8casacore17Allocator_private17BulkAllocatorImplINS_18casacore_allocatorINS_14RecordFieldPtrIdEELm32EEEE9allocatorE@Base 3.2.1
 _ZGVN8casacore17Allocator_private17BulkAllocatorImplINS_18casacore_allocatorINS_14RecordFieldPtrIfEELm32EEEE9allocatorE@Base 3.2.1
 _ZGVN8casacore17Allocator_private17BulkAllocatorImplINS_18casacore_allocatorINS_14RecordFieldPtrIhEELm32EEEE9allocatorE@Base 3.2.1
 _ZGVN8casacore17Allocator_private17BulkAllocatorImplINS_18casacore_allocatorINS_14RecordFieldPtrIiEELm32EEEE9allocatorE@Base 3.2.1
 _ZGVN8casacore17Allocator_private17BulkAllocatorImplINS_18casacore_allocatorINS_14RecordFieldPtrIsEELm32EEEE9allocatorE@Base 3.2.1
 _ZGVN8casacore17Allocator_private17BulkAllocatorImplINS_18casacore_allocatorINS_16RORecordFieldPtrINS_5ArrayINS_6StringEEEEELm32EEEE9allocatorE@Base 3.2.1
 _ZGVN8casacore17Allocator_private17BulkAllocatorImplINS_18casacore_allocatorINS_16RORecordFieldPtrINS_5ArrayISt7complexIdEEEEELm32EEEE9allocatorE@Base 3.2.1
 _ZGVN8casacore17Allocator_private17BulkAllocatorImplINS_18casacore_allocatorINS_16RORecordFieldPtrINS_5ArrayISt7complexIfEEEEELm32EEEE9allocatorE@Base 3.2.1
 _ZGVN8casacore17Allocator_private17BulkAllocatorImplINS_18casacore_allocatorINS_16RORecordFieldPtrINS_5ArrayIbEEEELm32EEEE9allocatorE@Base 3.2.1
 _ZGVN8casacore17Allocator_private17BulkAllocatorImplINS_18casacore_allocatorINS_16RORecordFieldPtrINS_5ArrayIdEEEELm32EEEE9allocatorE@Base 3.2.1
 _ZGVN8casacore17Allocator_private17BulkAllocatorImplINS_18casacore_allocatorINS_16RORecordFieldPtrINS_5ArrayIfEEEELm32EEEE9allocatorE@Base 3.2.1
 _ZGVN8casacore17Allocator_private17BulkAllocatorImplINS_18casacore_allocatorINS_16RORecordFieldPtrINS_5ArrayIhEEEELm32EEEE9allocatorE@Base 3.2.1
 _ZGVN8casacore17Allocator_private17BulkAllocatorImplINS_18casacore_allocatorINS_16RORecordFieldPtrINS_5ArrayIiEEEELm32EEEE9allocatorE@Base 3.2.1
 _ZGVN8casacore17Allocator_private17BulkAllocatorImplINS_18casacore_allocatorINS_16RORecordFieldPtrINS_5ArrayIsEEEELm32EEEE9allocatorE@Base 3.2.1
 _ZGVN8casacore17Allocator_private17BulkAllocatorImplINS_18casacore_allocatorINS_16RORecordFieldPtrINS_6StringEEELm32EEEE9allocatorE@Base 3.2.1
 _ZGVN8casacore17Allocator_private17BulkAllocatorImplINS_18casacore_allocatorINS_16RORecordFieldPtrISt7complexIdEEELm32EEEE9allocatorE@Base 3.2.1
 _ZGVN8casacore17Allocator_private17BulkAllocatorImplINS_18casacore_allocatorINS_16RORecordFieldPtrISt7complexIfEEELm32EEEE9allocatorE@Base 3.2.1
 _ZGVN8casacore17Allocator_private17BulkAllocatorImplINS_18casacore_allocatorINS_16RORecordFieldPtrIbEELm32EEEE9allocatorE@Base 3.2.1
 _ZGVN8casacore17Allocator_private17BulkAllocatorImplINS_18casacore_allocatorINS_16RORecordFieldPtrIdEELm32EEEE9allocatorE@Base 3.2.1
 _ZGVN8casacore17Allocator_private17BulkAllocatorImplINS_18casacore_allocatorINS_16RORecordFieldPtrIfEELm32EEEE9allocatorE@Base 3.2.1
 _ZGVN8casacore17Allocator_private17BulkAllocatorImplINS_18casacore_allocatorINS_16RORecordFieldPtrIhEELm32EEEE9allocatorE@Base 3.2.1
 _ZGVN8casacore17Allocator_private17BulkAllocatorImplINS_18casacore_allocatorINS_16RORecordFieldPtrIiEELm32EEEE9allocatorE@Base 3.2.1
 _ZGVN8casacore17Allocator_private17BulkAllocatorImplINS_18casacore_allocatorINS_16RORecordFieldPtrIsEELm32EEEE9allocatorE@Base 3.2.1
 _ZGVN8casacore17Allocator_private17BulkAllocatorImplINS_18casacore_allocatorINS_6MVTimeELm32EEEE9allocatorE@Base 3.2.1
 _ZGVN8casacore17Allocator_private17BulkAllocatorImplINS_18casacore_allocatorINS_6StringELm32EEEE9allocatorE@Base 3.2.1
 _ZGVN8casacore17Allocator_private17BulkAllocatorImplINS_18casacore_allocatorIPNS_6SlicerELm32EEEE9allocatorE@Base 3.2.1
 _ZGVN8casacore17Allocator_private17BulkAllocatorImplINS_18casacore_allocatorIPvLm32EEEE9allocatorE@Base 3.2.1
 _ZGVN8casacore17Allocator_private17BulkAllocatorImplINS_18casacore_allocatorIbLm32EEEE9allocatorE@Base 3.2.1
 _ZGVN8casacore17Allocator_private17BulkAllocatorImplINS_18casacore_allocatorIcLm32EEEE9allocatorE@Base 3.2.1
 _ZGVN8casacore17Allocator_private17BulkAllocatorImplINS_18casacore_allocatorIdLm32EEEE9allocatorE@Base 3.2.1
 _ZGVN8casacore17Allocator_private17BulkAllocatorImplINS_18casacore_allocatorIhLm32EEEE9allocatorE@Base 3.2.1
 _ZGVN8casacore17Allocator_private17BulkAllocatorImplINS_18casacore_allocatorIiLm32EEEE9allocatorE@Base 3.2.1
 _ZGVN8casacore17Allocator_private17BulkAllocatorImplINS_18casacore_allocatorIjLm32EEEE9allocatorE@Base 3.2.1
 _ZGVN8casacore17Allocator_private17BulkAllocatorImplINS_18casacore_allocatorIsLm32EEEE9allocatorE@Base 3.2.1
 _ZGVZN8casacore17Allocator_private17get_allocator_rawINS_17new_del_allocatorINS_6MVTimeEEEEEPNS0_17BulkAllocatorImplIT_EEvE3ptr@Base 3.2.1
 _ZGVZN8casacore17Allocator_private17get_allocator_rawINS_17new_del_allocatorIPNS_6SlicerEEEEEPNS0_17BulkAllocatorImplIT_EEvE3ptr@Base 3.2.1
 _ZGVZN8casacore17Allocator_private17get_allocator_rawINS_18casacore_allocatorINS_14RecordFieldPtrINS_5ArrayINS_6StringEEEEELm32EEEEEPNS0_17BulkAllocatorImplIT_EEvE3ptr@Base 3.2.1
 _ZGVZN8casacore17Allocator_private17get_allocator_rawINS_18casacore_allocatorINS_14RecordFieldPtrINS_5ArrayISt7complexIdEEEEELm32EEEEEPNS0_17BulkAllocatorImplIT_EEvE3ptr@Base 3.2.1
 _ZGVZN8casacore17Allocator_private17get_allocator_rawINS_18casacore_allocatorINS_14RecordFieldPtrINS_5ArrayISt7complexIfEEEEELm32EEEEEPNS0_17BulkAllocatorImplIT_EEvE3ptr@Base 3.2.1
 _ZGVZN8casacore17Allocator_private17get_allocator_rawINS_18casacore_allocatorINS_14RecordFieldPtrINS_5ArrayIbEEEELm32EEEEEPNS0_17BulkAllocatorImplIT_EEvE3ptr@Base 3.2.1
 _ZGVZN8casacore17Allocator_private17get_allocator_rawINS_18casacore_allocatorINS_14RecordFieldPtrINS_5ArrayIdEEEELm32EEEEEPNS0_17BulkAllocatorImplIT_EEvE3ptr@Base 3.2.1
 _ZGVZN8casacore17Allocator_private17get_allocator_rawINS_18casacore_allocatorINS_14RecordFieldPtrINS_5ArrayIfEEEELm32EEEEEPNS0_17BulkAllocatorImplIT_EEvE3ptr@Base 3.2.1
 _ZGVZN8casacore17Allocator_private17get_allocator_rawINS_18casacore_allocatorINS_14RecordFieldPtrINS_5ArrayIhEEEELm32EEEEEPNS0_17BulkAllocatorImplIT_EEvE3ptr@Base 3.2.1
 _ZGVZN8casacore17Allocator_private17get_allocator_rawINS_18casacore_allocatorINS_14RecordFieldPtrINS_5ArrayIiEEEELm32EEEEEPNS0_17BulkAllocatorImplIT_EEvE3ptr@Base 3.2.1
 _ZGVZN8casacore17Allocator_private17get_allocator_rawINS_18casacore_allocatorINS_14RecordFieldPtrINS_5ArrayIsEEEELm32EEEEEPNS0_17BulkAllocatorImplIT_EEvE3ptr@Base 3.2.1
 _ZGVZN8casacore17Allocator_private17get_allocator_rawINS_18casacore_allocatorINS_14RecordFieldPtrINS_6StringEEELm32EEEEEPNS0_17BulkAllocatorImplIT_EEvE3ptr@Base 3.2.1
 _ZGVZN8casacore17Allocator_private17get_allocator_rawINS_18casacore_allocatorINS_14RecordFieldPtrISt7complexIdEEELm32EEEEEPNS0_17BulkAllocatorImplIT_EEvE3ptr@Base 3.2.1
 _ZGVZN8casacore17Allocator_private17get_allocator_rawINS_18casacore_allocatorINS_14RecordFieldPtrISt7complexIfEEELm32EEEEEPNS0_17BulkAllocatorImplIT_EEvE3ptr@Base 3.2.1
 _ZGVZN8casacore17Allocator_private17get_allocator_rawINS_18casacore_allocatorINS_14RecordFieldPtrIbEELm32EEEEEPNS0_17BulkAllocatorImplIT_EEvE3ptr@Base 3.2.1
 _ZGVZN8casacore17Allocator_private17get_allocator_rawINS_18casacore_allocatorINS_14RecordFieldPtrIdEELm32EEEEEPNS0_17BulkAllocatorImplIT_EEvE3ptr@Base 3.2.1
 _ZGVZN8casacore17Allocator_private17get_allocator_rawINS_18casacore_allocatorINS_14RecordFieldPtrIfEELm32EEEEEPNS0_17BulkAllocatorImplIT_EEvE3ptr@Base 3.2.1
 _ZGVZN8casacore17Allocator_private17get_allocator_rawINS_18casacore_allocatorINS_14RecordFieldPtrIhEELm32EEEEEPNS0_17BulkAllocatorImplIT_EEvE3ptr@Base 3.2.1
 _ZGVZN8casacore17Allocator_private17get_allocator_rawINS_18casacore_allocatorINS_14RecordFieldPtrIiEELm32EEEEEPNS0_17BulkAllocatorImplIT_EEvE3ptr@Base 3.2.1
 _ZGVZN8casacore17Allocator_private17get_allocator_rawINS_18casacore_allocatorINS_14RecordFieldPtrIsEELm32EEEEEPNS0_17BulkAllocatorImplIT_EEvE3ptr@Base 3.2.1
 _ZGVZN8casacore17Allocator_private17get_allocator_rawINS_18casacore_allocatorINS_16RORecordFieldPtrINS_5ArrayINS_6StringEEEEELm32EEEEEPNS0_17BulkAllocatorImplIT_EEvE3ptr@Base 3.2.1
 _ZGVZN8casacore17Allocator_private17get_allocator_rawINS_18casacore_allocatorINS_16RORecordFieldPtrINS_5ArrayISt7complexIdEEEEELm32EEEEEPNS0_17BulkAllocatorImplIT_EEvE3ptr@Base 3.2.1
 _ZGVZN8casacore17Allocator_private17get_allocator_rawINS_18casacore_allocatorINS_16RORecordFieldPtrINS_5ArrayISt7complexIfEEEEELm32EEEEEPNS0_17BulkAllocatorImplIT_EEvE3ptr@Base 3.2.1
 _ZGVZN8casacore17Allocator_private17get_allocator_rawINS_18casacore_allocatorINS_16RORecordFieldPtrINS_5ArrayIbEEEELm32EEEEEPNS0_17BulkAllocatorImplIT_EEvE3ptr@Base 3.2.1
 _ZGVZN8casacore17Allocator_private17get_allocator_rawINS_18casacore_allocatorINS_16RORecordFieldPtrINS_5ArrayIdEEEELm32EEEEEPNS0_17BulkAllocatorImplIT_EEvE3ptr@Base 3.2.1
 _ZGVZN8casacore17Allocator_private17get_allocator_rawINS_18casacore_allocatorINS_16RORecordFieldPtrINS_5ArrayIfEEEELm32EEEEEPNS0_17BulkAllocatorImplIT_EEvE3ptr@Base 3.2.1
 _ZGVZN8casacore17Allocator_private17get_allocator_rawINS_18casacore_allocatorINS_16RORecordFieldPtrINS_5ArrayIhEEEELm32EEEEEPNS0_17BulkAllocatorImplIT_EEvE3ptr@Base 3.2.1
 _ZGVZN8casacore17Allocator_private17get_allocator_rawINS_18casacore_allocatorINS_16RORecordFieldPtrINS_5ArrayIiEEEELm32EEEEEPNS0_17BulkAllocatorImplIT_EEvE3ptr@Base 3.2.1
 _ZGVZN8casacore17Allocator_private17get_allocator_rawINS_18casacore_allocatorINS_16RORecordFieldPtrINS_5ArrayIsEEEELm32EEEEEPNS0_17BulkAllocatorImplIT_EEvE3ptr@Base 3.2.1
 _ZGVZN8casacore17Allocator_private17get_allocator_rawINS_18casacore_allocatorINS_16RORecordFieldPtrINS_6StringEEELm32EEEEEPNS0_17BulkAllocatorImplIT_EEvE3ptr@Base 3.2.1
 _ZGVZN8casacore17Allocator_private17get_allocator_rawINS_18casacore_allocatorINS_16RORecordFieldPtrISt7complexIdEEELm32EEEEEPNS0_17BulkAllocatorImplIT_EEvE3ptr@Base 3.2.1
 _ZGVZN8casacore17Allocator_private17get_allocator_rawINS_18casacore_allocatorINS_16RORecordFieldPtrISt7complexIfEEELm32EEEEEPNS0_17BulkAllocatorImplIT_EEvE3ptr@Base 3.2.1
 _ZGVZN8casacore17Allocator_private17get_allocator_rawINS_18casacore_allocatorINS_16RORecordFieldPtrIbEELm32EEEEEPNS0_17BulkAllocatorImplIT_EEvE3ptr@Base 3.2.1
 _ZGVZN8casacore17Allocator_private17get_allocator_rawINS_18casacore_allocatorINS_16RORecordFieldPtrIdEELm32EEEEEPNS0_17BulkAllocatorImplIT_EEvE3ptr@Base 3.2.1
 _ZGVZN8casacore17Allocator_private17get_allocator_rawINS_18casacore_allocatorINS_16RORecordFieldPtrIfEELm32EEEEEPNS0_17BulkAllocatorImplIT_EEvE3ptr@Base 3.2.1
 _ZGVZN8casacore17Allocator_private17get_allocator_rawINS_18casacore_allocatorINS_16RORecordFieldPtrIhEELm32EEEEEPNS0_17BulkAllocatorImplIT_EEvE3ptr@Base 3.2.1
 _ZGVZN8casacore17Allocator_private17get_allocator_rawINS_18casacore_allocatorINS_16RORecordFieldPtrIiEELm32EEEEEPNS0_17BulkAllocatorImplIT_EEvE3ptr@Base 3.2.1
 _ZGVZN8casacore17Allocator_private17get_allocator_rawINS_18casacore_allocatorINS_16RORecordFieldPtrIsEELm32EEEEEPNS0_17BulkAllocatorImplIT_EEvE3ptr@Base 3.2.1
 _ZGVZN8casacore17Allocator_private17get_allocator_rawINS_18casacore_allocatorINS_6MVTimeELm32EEEEEPNS0_17BulkAllocatorImplIT_EEvE3ptr@Base 3.2.1
 _ZGVZN8casacore17Allocator_private17get_allocator_rawINS_18casacore_allocatorINS_6StringELm32EEEEEPNS0_17BulkAllocatorImplIT_EEvE3ptr@Base 3.2.1
 _ZGVZN8casacore17Allocator_private17get_allocator_rawINS_18casacore_allocatorIPNS_6SlicerELm32EEEEEPNS0_17BulkAllocatorImplIT_EEvE3ptr@Base 3.2.1
 _ZGVZN8casacore17Allocator_private17get_allocator_rawINS_18casacore_allocatorIPvLm32EEEEEPNS0_17BulkAllocatorImplIT_EEvE3ptr@Base 3.2.1
 _ZGVZN8casacore17Allocator_private17get_allocator_rawINS_18casacore_allocatorIbLm32EEEEEPNS0_17BulkAllocatorImplIT_EEvE3ptr@Base 3.2.1
 _ZGVZN8casacore17Allocator_private17get_allocator_rawINS_18casacore_allocatorIcLm32EEEEEPNS0_17BulkAllocatorImplIT_EEvE3ptr@Base 3.2.1
 _ZGVZN8casacore17Allocator_private17get_allocator_rawINS_18casacore_allocatorIdLm32EEEEEPNS0_17BulkAllocatorImplIT_EEvE3ptr@Base 3.2.1
 _ZGVZN8casacore17Allocator_private17get_allocator_rawINS_18casacore_allocatorIhLm32EEEEEPNS0_17BulkAllocatorImplIT_EEvE3ptr@Base 3.2.1
 _ZGVZN8casacore17Allocator_private17get_allocator_rawINS_18casacore_allocatorIiLm32EEEEEPNS0_17BulkAllocatorImplIT_EEvE3ptr@Base 3.2.1
 _ZGVZN8casacore17Allocator_private17get_allocator_rawINS_18casacore_allocatorIjLm32EEEEEPNS0_17BulkAllocatorImplIT_EEvE3ptr@Base 3.2.1
 _ZGVZN8casacore17Allocator_private17get_allocator_rawINS_18casacore_allocatorIsLm32EEEEEPNS0_17BulkAllocatorImplIT_EEvE3ptr@Base 3.2.1
 _ZGVZN8casacore7ValType8strucharEvE6result@Base 3.2.1
 _ZN8casacore10BlockInput4readEv@Base 3.2.1
 _ZN8casacore10BlockInput4skipEi@Base 3.2.1
 _ZN8casacore10BlockInputC1EPKciiPFvS2_NS_9FITSError10ErrorLevelEE@Base 3.2.1
 _ZN8casacore10BlockInputC1EiiiPFvPKcNS_9FITSError10ErrorLevelEE@Base 3.2.1
 _ZN8casacore10BlockInputC2EPKciiPFvS2_NS_9FITSError10ErrorLevelEE@Base 3.2.1
 _ZN8casacore10BlockInputC2EiiiPFvPKcNS_9FITSError10ErrorLevelEE@Base 3.2.1
 _ZN8casacore10BlockInputD0Ev@Base 3.2.1
 _ZN8casacore10BlockInputD1Ev@Base 3.2.1
 _ZN8casacore10BlockInputD2Ev@Base 3.2.1
 _ZN8casacore10FITSReader8listFitsEPKc@Base 3.2.1
 _ZN8casacore10FitsFPUtil4isFPEPKd@Base 3.2.1
 _ZN8casacore10FitsFPUtil4isFPEPKf@Base 3.2.1
 _ZN8casacore10FitsFPUtil4isFPEPKv@Base 3.2.1
 _ZN8casacore10FitsFPUtil6setNaNERd@Base 3.2.1
 _ZN8casacore10FitsFPUtil6setNaNERf@Base 3.2.1
 _ZN8casacore10FitsOutput11make_outputEPKcRKNS_4FITS10FitsDeviceEiPFvS2_NS_9FITSError10ErrorLevelEE@Base 3.2.1
 _ZN8casacore10FitsOutput13set_data_infoERNS_15FitsKeywordListENS_4FITS7HDUTypeENS3_9ValueTypeEli@Base 3.2.1
 _ZN8casacore10FitsOutput5writeENS_4FITS7HDUTypeEPcic@Base 3.2.1
 _ZN8casacore10FitsOutput6errmsgENS_6FitsIO8FitsErrsEPKc@Base 3.2.1
 _ZN8casacore10FitsOutput7setfptrEP8fitsfile@Base 3.2.1
 _ZN8casacore10FitsOutput8write_spEPc@Base 3.2.1
 _ZN8casacore10FitsOutput9write_allENS_4FITS7HDUTypeEPcc@Base 3.2.1
 _ZN8casacore10FitsOutput9write_hdrERNS_15FitsKeywordListENS_4FITS7HDUTypeENS3_9ValueTypeEli@Base 3.2.1
 _ZN8casacore10FitsOutputC1EPFvPKcNS_9FITSError10ErrorLevelEE@Base 3.2.1
 _ZN8casacore10FitsOutputC1EPKcRKNS_4FITS10FitsDeviceEiPFvS2_NS_9FITSError10ErrorLevelEE@Base 3.2.1
 _ZN8casacore10FitsOutputC2EPFvPKcNS_9FITSError10ErrorLevelEE@Base 3.2.1
 _ZN8casacore10FitsOutputC2EPKcRKNS_4FITS10FitsDeviceEiPFvS2_NS_9FITSError10ErrorLevelEE@Base 3.2.1
 _ZN8casacore10FitsOutputD0Ev@Base 3.2.1
 _ZN8casacore10FitsOutputD1Ev@Base 3.2.1
 _ZN8casacore10FitsOutputD2Ev@Base 3.2.1
 _ZN8casacore10ObjCompareIhED0Ev@Base 3.2.1
 _ZN8casacore10ObjCompareIhED1Ev@Base 3.2.1
 _ZN8casacore10ObjCompareIhED2Ev@Base 3.2.1
 _ZN8casacore10ReadFITSinIdEEvRNS_12PrimaryArrayIT_EERNS_5ArrayIfEERbRNS_6StringEPS9_PNS_6VectorIS9_EEPNSC_IfEESG_SG_PSt3mapIS9_dSt4lessIS9_ESaISt4pairIKS9_dEEESB_@Base 3.2.1
 _ZN8casacore10ReadFITSinIfEEvRNS_12PrimaryArrayIT_EERNS_5ArrayIfEERbRNS_6StringEPS9_PNS_6VectorIS9_EEPNSC_IfEESG_SG_PSt3mapIS9_dSt4lessIS9_ESaISt4pairIKS9_dEEESB_@Base 3.2.1
 _ZN8casacore10ReadFITSinIhEEvRNS_12PrimaryArrayIT_EERNS_5ArrayIfEERbRNS_6StringEPS9_PNS_6VectorIS9_EEPNSC_IfEESG_SG_PSt3mapIS9_dSt4lessIS9_ESaISt4pairIKS9_dEEESB_@Base 3.2.1
 _ZN8casacore10ReadFITSinIiEEvRNS_12PrimaryArrayIT_EERNS_5ArrayIfEERbRNS_6StringEPS9_PNS_6VectorIS9_EEPNSC_IfEESG_SG_PSt3mapIS9_dSt4lessIS9_ESaISt4pairIKS9_dEEESB_@Base 3.2.1
 _ZN8casacore10ReadFITSinIsEEvRNS_12PrimaryArrayIT_EERNS_5ArrayIfEERbRNS_6StringEPS9_PNS_6VectorIS9_EEPNSC_IfEESG_SG_PSt3mapIS9_dSt4lessIS9_ESaISt4pairIKS9_dEEESB_@Base 3.2.1
 _ZN8casacore10RecordDescC1Ev@Base 3.2.1
 _ZN8casacore10RecordDescC2Ev@Base 3.2.1
 _ZN8casacore10charLengthEPKcj@Base 3.2.1
 _ZN8casacore10errLevels_E@Base 3.2.1
 _ZN8casacore11ArrayColumnIhE3putEjRKNS_11TableColumnEjb@Base 3.2.1
 _ZN8casacore11ArrayColumnIhE3putEjRKNS_5ArrayIhEE@Base 3.2.1
 _ZN8casacore11ArrayColumnIhEC1ERKNS_11TableColumnE@Base 3.2.1
 _ZN8casacore11ArrayColumnIhEC2ERKNS_11TableColumnE@Base 3.2.1
 _ZN8casacore11ArrayColumnIhED0Ev@Base 3.2.1
 _ZN8casacore11ArrayColumnIhED1Ev@Base 3.2.1
 _ZN8casacore11ArrayColumnIhED2Ev@Base 3.2.1
 _ZN8casacore11BinaryTable11getKeywordsEv@Base 3.2.1
 _ZN8casacore11BinaryTable13getDescriptorEv@Base 3.2.1
 _ZN8casacore11BinaryTable7fillRowEv@Base 3.2.1
 _ZN8casacore11BinaryTable7nextRowEv@Base 3.2.1
 _ZN8casacore11BinaryTable7thisRowEv@Base 3.2.1
 _ZN8casacore11BinaryTable9fullTableERKNS_6StringENS_5Table11TableOptionEb@Base 3.2.1
 _ZN8casacore11BinaryTable9fullTableEv@Base 3.2.1
 _ZN8casacore11BinaryTableC1ERNS_9FitsInputEPFvPKcNS_9FITSError10ErrorLevelEEbb@Base 3.2.1
 _ZN8casacore11BinaryTableC2ERNS_9FitsInputEPFvPKcNS_9FITSError10ErrorLevelEEbb@Base 3.2.1
 _ZN8casacore11BinaryTableD0Ev@Base 3.2.1
 _ZN8casacore11BinaryTableD1Ev@Base 3.2.1
 _ZN8casacore11BinaryTableD2Ev@Base 3.2.1
 _ZN8casacore11BlockOutput12flush_bufferEv@Base 3.2.1
 _ZN8casacore11BlockOutput5writeEPc@Base 3.2.1
 _ZN8casacore11BlockOutputC1EPKciiPFvS2_NS_9FITSError10ErrorLevelEE@Base 3.2.1
 _ZN8casacore11BlockOutputC1EiiiPFvPKcNS_9FITSError10ErrorLevelEE@Base 3.2.1
 _ZN8casacore11BlockOutputC2EPKciiPFvS2_NS_9FITSError10ErrorLevelEE@Base 3.2.1
 _ZN8casacore11BlockOutputC2EiiiPFvPKcNS_9FITSError10ErrorLevelEE@Base 3.2.1
 _ZN8casacore11BlockOutputD0Ev@Base 3.2.1
 _ZN8casacore11BlockOutputD1Ev@Base 3.2.1
 _ZN8casacore11BlockOutputD2Ev@Base 3.2.1
 _ZN8casacore11FITSTabular12nullsFromHDUERNS_20BinaryTableExtensionE@Base 3.2.1
 _ZN8casacore11FITSTabular12unitsFromHDUERNS_20BinaryTableExtensionE@Base 3.2.1
 _ZN8casacore11FITSTabular15keywordsFromHDUERNS_14HeaderDataUnitEb@Base 3.2.1
 _ZN8casacore11FITSTabular16resetChangedFlagEv@Base 3.2.1
 _ZN8casacore11FITSTabular18descriptionFromHDUERNS_20BinaryTableExtensionE@Base 3.2.1
 _ZN8casacore11FITSTabular21displayFormatsFromHDUERNS_20BinaryTableExtensionE@Base 3.2.1
 _ZN8casacore11FITSTabular21subStringShapeFromHDUERNS_20BinaryTableExtensionE@Base 3.2.1
 _ZN8casacore11FITSTabular6reopenERKNS_6StringE@Base 3.2.1
 _ZN8casacore11FITSTabular9tableDescERKS0_@Base 3.2.1
 _ZN8casacore11FITSTabularD0Ev@Base 3.2.1
 _ZN8casacore11FITSTabularD1Ev@Base 3.2.1
 _ZN8casacore11FITSTabularD2Ev@Base 3.2.1
 _ZN8casacore11FitsKeyword3errEPKcRKNS_4FITS9ValueTypeEPKvS2_@Base 3.2.1
 _ZN8casacore11FitsKeyword4commEPKc@Base 3.2.1
 _ZN8casacore11FitsKeyword4initERKS0_@Base 3.2.1
 _ZN8casacore11FitsKeyword4nameEPKc@Base 3.2.1
 _ZN8casacore11FitsKeyword6memchkEPv@Base 3.2.1
 _ZN8casacore11FitsKeyword6setvalERKNS_4FITS9ValueTypeEPKvi@Base 3.2.1
 _ZN8casacore11FitsKeyword7del_valEv@Base 3.2.1
 _ZN8casacore11FitsKeyword7setcommEPKci@Base 3.2.1
 _ZN8casacore11FitsKeywordC1EPKNS_19ReservedFitsKeywordEiNS_4FITS9ValueTypeEPKviPKci@Base 3.2.1
 _ZN8casacore11FitsKeywordC1EPKciNS_4FITS9ValueTypeEPKviS2_i@Base 3.2.1
 _ZN8casacore11FitsKeywordC2EPKNS_19ReservedFitsKeywordEiNS_4FITS9ValueTypeEPKviPKci@Base 3.2.1
 _ZN8casacore11FitsKeywordC2EPKciNS_4FITS9ValueTypeEPKviS2_i@Base 3.2.1
 _ZN8casacore11FitsKeywordaSEPKc@Base 3.2.1
 _ZN8casacore11SDFITSTable11coreKeywordERKNS_6StringE@Base 3.2.1
 _ZN8casacore11SDFITSTable12init_kwNamesEv@Base 3.2.1
 _ZN8casacore11SDFITSTable14isSDFitsColumnERKNS_6StringE@Base 3.2.1
 _ZN8casacore11SDFITSTable14sdfits_shuffleEv@Base 3.2.1
 _ZN8casacore11SDFITSTable15coreKeywordNameENS0_11CoreKeywordE@Base 3.2.1
 _ZN8casacore11SDFITSTable6reopenERKNS_6StringE@Base 3.2.1
 _ZN8casacore11SDFITSTable7kwNamesE@Base 3.2.1
 _ZN8casacore11SDFITSTableC1ERKNS_6StringEj@Base 3.2.1
 _ZN8casacore11SDFITSTableC2ERKNS_6StringEj@Base 3.2.1
 _ZN8casacore11SDFITSTableD0Ev@Base 3.2.1
 _ZN8casacore11SDFITSTableD1Ev@Base 3.2.1
 _ZN8casacore11SDFITSTableD2Ev@Base 3.2.1
 _ZN8casacore12FITSDateUtil13findPrecisionERKNS_6StringE@Base 3.2.1
 _ZN8casacore12FITSDateUtil17convertDateStringERNS_6StringERKS1_@Base 3.2.1
 _ZN8casacore12FITSDateUtil6toFITSERNS_6StringES2_RKNS_6MVTimeENS_6MEpoch5TypesENS0_9DateStyleEj@Base 3.2.1
 _ZN8casacore12FITSDateUtil8fromFITSERNS_6MVTimeERNS_6MEpoch5TypesERKNS_6StringES8_@Base 3.2.1
 _ZN8casacore12FitsStdInputC1EiPFvPKcNS_9FITSError10ErrorLevelEE@Base 3.2.1
 _ZN8casacore12FitsStdInputC2EiPFvPKcNS_9FITSError10ErrorLevelEE@Base 3.2.1
 _ZN8casacore12FitsStdInputD0Ev@Base 3.2.1
 _ZN8casacore12FitsStdInputD1Ev@Base 3.2.1
 _ZN8casacore12FitsStdInputD2Ev@Base 3.2.1
 _ZN8casacore12PrimaryArrayIdE4readEi@Base 3.2.1
 _ZN8casacore12PrimaryArrayIdE4readEv@Base 3.2.1
 _ZN8casacore12PrimaryArrayIdE5writeERNS_10FitsOutputE@Base 3.2.1
 _ZN8casacore12PrimaryArrayIdE8set_nextEl@Base 3.2.1
 _ZN8casacore12PrimaryArrayIdE9pa_assignEv@Base 3.2.1
 _ZN8casacore12PrimaryArrayIdEC1ERNS_9FitsInputENS_4FITS7HDUTypeEPFvPKcNS_9FITSError10ErrorLevelEE@Base 3.2.1
 _ZN8casacore12PrimaryArrayIdEC2ERNS_9FitsInputENS_4FITS7HDUTypeEPFvPKcNS_9FITSError10ErrorLevelEE@Base 3.2.1
 _ZN8casacore12PrimaryArrayIdED0Ev@Base 3.2.1
 _ZN8casacore12PrimaryArrayIdED1Ev@Base 3.2.1
 _ZN8casacore12PrimaryArrayIdED2Ev@Base 3.2.1
 _ZN8casacore12PrimaryArrayIfE4readEi@Base 3.2.1
 _ZN8casacore12PrimaryArrayIfE4readEv@Base 3.2.1
 _ZN8casacore12PrimaryArrayIfE5writeERNS_10FitsOutputE@Base 3.2.1
 _ZN8casacore12PrimaryArrayIfE8set_nextEl@Base 3.2.1
 _ZN8casacore12PrimaryArrayIfE9pa_assignEv@Base 3.2.1
 _ZN8casacore12PrimaryArrayIfEC1ERNS_9FitsInputENS_4FITS7HDUTypeEPFvPKcNS_9FITSError10ErrorLevelEE@Base 3.2.1
 _ZN8casacore12PrimaryArrayIfEC2ERNS_9FitsInputENS_4FITS7HDUTypeEPFvPKcNS_9FITSError10ErrorLevelEE@Base 3.2.1
 _ZN8casacore12PrimaryArrayIfED0Ev@Base 3.2.1
 _ZN8casacore12PrimaryArrayIfED1Ev@Base 3.2.1
 _ZN8casacore12PrimaryArrayIfED2Ev@Base 3.2.1
 _ZN8casacore12PrimaryArrayIhE4readEi@Base 3.2.1
 _ZN8casacore12PrimaryArrayIhE4readEv@Base 3.2.1
 _ZN8casacore12PrimaryArrayIhE5writeERNS_10FitsOutputE@Base 3.2.1
 _ZN8casacore12PrimaryArrayIhE8set_nextEl@Base 3.2.1
 _ZN8casacore12PrimaryArrayIhE9pa_assignEv@Base 3.2.1
 _ZN8casacore12PrimaryArrayIhEC1ERNS_9FitsInputENS_4FITS7HDUTypeEPFvPKcNS_9FITSError10ErrorLevelEE@Base 3.2.1
 _ZN8casacore12PrimaryArrayIhEC2ERNS_9FitsInputENS_4FITS7HDUTypeEPFvPKcNS_9FITSError10ErrorLevelEE@Base 3.2.1
 _ZN8casacore12PrimaryArrayIhED0Ev@Base 3.2.1
 _ZN8casacore12PrimaryArrayIhED1Ev@Base 3.2.1
 _ZN8casacore12PrimaryArrayIhED2Ev@Base 3.2.1
 _ZN8casacore12PrimaryArrayIiE4readEi@Base 3.2.1
 _ZN8casacore12PrimaryArrayIiE4readEv@Base 3.2.1
 _ZN8casacore12PrimaryArrayIiE5writeERNS_10FitsOutputE@Base 3.2.1
 _ZN8casacore12PrimaryArrayIiE8set_nextEl@Base 3.2.1
 _ZN8casacore12PrimaryArrayIiE9pa_assignEv@Base 3.2.1
 _ZN8casacore12PrimaryArrayIiEC1ERNS_9FitsInputENS_4FITS7HDUTypeEPFvPKcNS_9FITSError10ErrorLevelEE@Base 3.2.1
 _ZN8casacore12PrimaryArrayIiEC2ERNS_9FitsInputENS_4FITS7HDUTypeEPFvPKcNS_9FITSError10ErrorLevelEE@Base 3.2.1
 _ZN8casacore12PrimaryArrayIiED0Ev@Base 3.2.1
 _ZN8casacore12PrimaryArrayIiED1Ev@Base 3.2.1
 _ZN8casacore12PrimaryArrayIiED2Ev@Base 3.2.1
 _ZN8casacore12PrimaryArrayIsE4readEi@Base 3.2.1
 _ZN8casacore12PrimaryArrayIsE4readEv@Base 3.2.1
 _ZN8casacore12PrimaryArrayIsE5writeERNS_10FitsOutputE@Base 3.2.1
 _ZN8casacore12PrimaryArrayIsE8set_nextEl@Base 3.2.1
 _ZN8casacore12PrimaryArrayIsE9pa_assignEv@Base 3.2.1
 _ZN8casacore12PrimaryArrayIsEC1ERNS_9FitsInputENS_4FITS7HDUTypeEPFvPKcNS_9FITSError10ErrorLevelEE@Base 3.2.1
 _ZN8casacore12PrimaryArrayIsEC2ERNS_9FitsInputENS_4FITS7HDUTypeEPFvPKcNS_9FITSError10ErrorLevelEE@Base 3.2.1
 _ZN8casacore12PrimaryArrayIsED0Ev@Base 3.2.1
 _ZN8casacore12PrimaryArrayIsED1Ev@Base 3.2.1
 _ZN8casacore12PrimaryArrayIsED2Ev@Base 3.2.1
 _ZN8casacore12PrimaryGroupIdE4readEi@Base 3.2.1
 _ZN8casacore12PrimaryGroupIdE4readEv@Base 3.2.1
 _ZN8casacore12PrimaryGroupIdE5writeERNS_10FitsOutputE@Base 3.2.1
 _ZN8casacore12PrimaryGroupIdE8set_nextEl@Base 3.2.1
 _ZN8casacore12PrimaryGroupIdE9pg_assignEv@Base 3.2.1
 _ZN8casacore12PrimaryGroupIdED0Ev@Base 3.2.1
 _ZN8casacore12PrimaryGroupIdED1Ev@Base 3.2.1
 _ZN8casacore12PrimaryGroupIdED2Ev@Base 3.2.1
 _ZN8casacore12PrimaryGroupIfE4readEi@Base 3.2.1
 _ZN8casacore12PrimaryGroupIfE4readEv@Base 3.2.1
 _ZN8casacore12PrimaryGroupIfE5writeERNS_10FitsOutputE@Base 3.2.1
 _ZN8casacore12PrimaryGroupIfE8set_nextEl@Base 3.2.1
 _ZN8casacore12PrimaryGroupIfE9pg_assignEv@Base 3.2.1
 _ZN8casacore12PrimaryGroupIfED0Ev@Base 3.2.1
 _ZN8casacore12PrimaryGroupIfED1Ev@Base 3.2.1
 _ZN8casacore12PrimaryGroupIfED2Ev@Base 3.2.1
 _ZN8casacore12PrimaryGroupIhE4readEi@Base 3.2.1
 _ZN8casacore12PrimaryGroupIhE4readEv@Base 3.2.1
 _ZN8casacore12PrimaryGroupIhE5writeERNS_10FitsOutputE@Base 3.2.1
 _ZN8casacore12PrimaryGroupIhE8set_nextEl@Base 3.2.1
 _ZN8casacore12PrimaryGroupIhE9pg_assignEv@Base 3.2.1
 _ZN8casacore12PrimaryGroupIhED0Ev@Base 3.2.1
 _ZN8casacore12PrimaryGroupIhED1Ev@Base 3.2.1
 _ZN8casacore12PrimaryGroupIhED2Ev@Base 3.2.1
 _ZN8casacore12PrimaryGroupIiE4readEi@Base 3.2.1
 _ZN8casacore12PrimaryGroupIiE4readEv@Base 3.2.1
 _ZN8casacore12PrimaryGroupIiE5writeERNS_10FitsOutputE@Base 3.2.1
 _ZN8casacore12PrimaryGroupIiE8set_nextEl@Base 3.2.1
 _ZN8casacore12PrimaryGroupIiE9pg_assignEv@Base 3.2.1
 _ZN8casacore12PrimaryGroupIiED0Ev@Base 3.2.1
 _ZN8casacore12PrimaryGroupIiED1Ev@Base 3.2.1
 _ZN8casacore12PrimaryGroupIiED2Ev@Base 3.2.1
 _ZN8casacore12PrimaryGroupIsE4readEi@Base 3.2.1
 _ZN8casacore12PrimaryGroupIsE4readEv@Base 3.2.1
 _ZN8casacore12PrimaryGroupIsE5writeERNS_10FitsOutputE@Base 3.2.1
 _ZN8casacore12PrimaryGroupIsE8set_nextEl@Base 3.2.1
 _ZN8casacore12PrimaryGroupIsE9pg_assignEv@Base 3.2.1
 _ZN8casacore12PrimaryGroupIsED0Ev@Base 3.2.1
 _ZN8casacore12PrimaryGroupIsED1Ev@Base 3.2.1
 _ZN8casacore12PrimaryGroupIsED2Ev@Base 3.2.1
 _ZN8casacore12PrimaryTableIdE4readEi@Base 3.2.1
 _ZN8casacore12PrimaryTableIdE4readEv@Base 3.2.1
 _ZN8casacore12PrimaryTableIdE5writeERNS_10FitsOutputE@Base 3.2.1
 _ZN8casacore12PrimaryTableIdED0Ev@Base 3.2.1
 _ZN8casacore12PrimaryTableIdED1Ev@Base 3.2.1
 _ZN8casacore12PrimaryTableIdED2Ev@Base 3.2.1
 _ZN8casacore12PrimaryTableIfE4readEi@Base 3.2.1
 _ZN8casacore12PrimaryTableIfE4readEv@Base 3.2.1
 _ZN8casacore12PrimaryTableIfE5writeERNS_10FitsOutputE@Base 3.2.1
 _ZN8casacore12PrimaryTableIfED0Ev@Base 3.2.1
 _ZN8casacore12PrimaryTableIfED1Ev@Base 3.2.1
 _ZN8casacore12PrimaryTableIfED2Ev@Base 3.2.1
 _ZN8casacore12PrimaryTableIhE4readEi@Base 3.2.1
 _ZN8casacore12PrimaryTableIhE4readEv@Base 3.2.1
 _ZN8casacore12PrimaryTableIhE5writeERNS_10FitsOutputE@Base 3.2.1
 _ZN8casacore12PrimaryTableIhED0Ev@Base 3.2.1
 _ZN8casacore12PrimaryTableIhED1Ev@Base 3.2.1
 _ZN8casacore12PrimaryTableIhED2Ev@Base 3.2.1
 _ZN8casacore12PrimaryTableIiE4readEi@Base 3.2.1
 _ZN8casacore12PrimaryTableIiE4readEv@Base 3.2.1
 _ZN8casacore12PrimaryTableIiE5writeERNS_10FitsOutputE@Base 3.2.1
 _ZN8casacore12PrimaryTableIiED0Ev@Base 3.2.1
 _ZN8casacore12PrimaryTableIiED1Ev@Base 3.2.1
 _ZN8casacore12PrimaryTableIiED2Ev@Base 3.2.1
 _ZN8casacore12PrimaryTableIsE4readEi@Base 3.2.1
 _ZN8casacore12PrimaryTableIsE4readEv@Base 3.2.1
 _ZN8casacore12PrimaryTableIsE5writeERNS_10FitsOutputE@Base 3.2.1
 _ZN8casacore12PrimaryTableIsED0Ev@Base 3.2.1
 _ZN8casacore12PrimaryTableIsED1Ev@Base 3.2.1
 _ZN8casacore12PrimaryTableIsED2Ev@Base 3.2.1
 _ZN8casacore12ScalarColumnIhE3putEjRKNS_11TableColumnEjb@Base 3.2.1
 _ZN8casacore12ScalarColumnIhEC1ERKNS_5TableERKNS_6StringE@Base 3.2.1
 _ZN8casacore12ScalarColumnIhEC2ERKNS_5TableERKNS_6StringE@Base 3.2.1
 _ZN8casacore12ScalarColumnIhED0Ev@Base 3.2.1
 _ZN8casacore12ScalarColumnIhED1Ev@Base 3.2.1
 _ZN8casacore12ScalarColumnIhED2Ev@Base 3.2.1
 _ZN8casacore12convertArrayIdfEEvRNS_5ArrayIT_EERKNS1_IT0_EE@Base 3.2.1
 _ZN8casacore12convertArrayIfdEEvRNS_5ArrayIT_EERKNS1_IT0_EE@Base 3.2.1
 _ZN8casacore13FitsDiskInput4skipEi@Base 3.2.1
 _ZN8casacore13FitsDiskInputC1EPKciiPFvS2_NS_9FITSError10ErrorLevelEE@Base 3.2.1
 _ZN8casacore13FitsDiskInputC2EPKciiPFvS2_NS_9FITSError10ErrorLevelEE@Base 3.2.1
 _ZN8casacore13FitsDiskInputD0Ev@Base 3.2.1
 _ZN8casacore13FitsDiskInputD1Ev@Base 3.2.1
 _ZN8casacore13FitsDiskInputD2Ev@Base 3.2.1
 _ZN8casacore13FitsStdOutputC1EiPFvPKcNS_9FITSError10ErrorLevelEE@Base 3.2.1
 _ZN8casacore13FitsStdOutputC2EiPFvPKcNS_9FITSError10ErrorLevelEE@Base 3.2.1
 _ZN8casacore13FitsStdOutputD0Ev@Base 3.2.1
 _ZN8casacore13FitsStdOutputD1Ev@Base 3.2.1
 _ZN8casacore13FitsStdOutputD2Ev@Base 3.2.1
 _ZN8casacore13addRecordDescERNS_9TableDescERKNS_10RecordDescERKNS_6StringE@Base 3.2.1
 _ZN8casacore14FITSMultiTable12defaultMakerERKNS_6StringE@Base 3.2.1
 _ZN8casacore14FITSMultiTable12timeFromFileERKNS_6StringE@Base 3.2.1
 _ZN8casacore14FITSMultiTable16filesInTimeRangeERKNS_6StringERKNS_4TimeES6_bb@Base 3.2.1
 _ZN8casacore14FITSMultiTable16resetChangedFlagEv@Base 3.2.1
 _ZN8casacore14FITSMultiTable4nextEv@Base 3.2.1
 _ZN8casacore14FITSMultiTableC1ERKNS_6VectorINS_6StringEEEPFPNS_11FITSTabularERKS2_E@Base 3.2.1
 _ZN8casacore14FITSMultiTableC2ERKNS_6VectorINS_6StringEEEPFPNS_11FITSTabularERKS2_E@Base 3.2.1
 _ZN8casacore14FITSMultiTableD0Ev@Base 3.2.1
 _ZN8casacore14FITSMultiTableD1Ev@Base 3.2.1
 _ZN8casacore14FITSMultiTableD2Ev@Base 3.2.1
 _ZN8casacore14FITSTimedTable10currentRowEv@Base 3.2.1
 _ZN8casacore14FITSTimedTable13initNowRecordERKNS_10RecordDescE@Base 3.2.1
 _ZN8casacore14FITSTimedTable14initNextRecordERKNS_10RecordDescE@Base 3.2.1
 _ZN8casacore14FITSTimedTable16resetChangedFlagEv@Base 3.2.1
 _ZN8casacore14FITSTimedTable4nextEv@Base 3.2.1
 _ZN8casacore14FITSTimedTable7pastEndEv@Base 3.2.1
 _ZN8casacore14FITSTimedTable7setTimeEd@Base 3.2.1
 _ZN8casacore14FITSTimedTable8nextTimeEv@Base 3.2.1
 _ZN8casacore14FITSTimedTableC1EPNS_11FITSTabularEj@Base 3.2.1
 _ZN8casacore14FITSTimedTableC1Ev@Base 3.2.1
 _ZN8casacore14FITSTimedTableC2EPNS_11FITSTabularEj@Base 3.2.1
 _ZN8casacore14FITSTimedTableC2Ev@Base 3.2.1
 _ZN8casacore14FITSTimedTableD0Ev@Base 3.2.1
 _ZN8casacore14FITSTimedTableD1Ev@Base 3.2.1
 _ZN8casacore14FITSTimedTableD2Ev@Base 3.2.1
 _ZN8casacore14FitsDiskOutputC1EPKciiPFvS2_NS_9FITSError10ErrorLevelEE@Base 3.2.1
 _ZN8casacore14FitsDiskOutputC2EPKciiPFvS2_NS_9FITSError10ErrorLevelEE@Base 3.2.1
 _ZN8casacore14FitsDiskOutputD0Ev@Base 3.2.1
 _ZN8casacore14FitsDiskOutputD1Ev@Base 3.2.1
 _ZN8casacore14FitsDiskOutputD2Ev@Base 3.2.1
 _ZN8casacore14FitsTape9InputC1EPKciiPFvS2_NS_9FITSError10ErrorLevelEE@Base 3.2.1
 _ZN8casacore14FitsTape9InputC2EPKciiPFvS2_NS_9FITSError10ErrorLevelEE@Base 3.2.1
 _ZN8casacore14FitsTape9InputD0Ev@Base 3.2.1
 _ZN8casacore14FitsTape9InputD1Ev@Base 3.2.1
 _ZN8casacore14FitsTape9InputD2Ev@Base 3.2.1
 _ZN8casacore14HeaderDataUnit10kwlist_strEb@Base 3.2.1
 _ZN8casacore14HeaderDataUnit10write_dataERNS_10FitsOutputEPci@Base 3.2.1
 _ZN8casacore14HeaderDataUnit12compute_sizeERNS_15FitsKeywordListERlRiRNS_4FITS7HDUTypeERNS5_9ValueTypeEPFvPKcNS_9FITSError10ErrorLevelEERNS0_7HDUErrsE@Base 3.2.1
 _ZN8casacore14HeaderDataUnit13read_all_dataEPc@Base 3.2.1
 _ZN8casacore14HeaderDataUnit14determine_typeERNS_15FitsKeywordListERNS_4FITS7HDUTypeERNS3_9ValueTypeEPFvPKcNS_9FITSError10ErrorLevelEERNS0_7HDUErrsE@Base 3.2.1
 _ZN8casacore14HeaderDataUnit14init_data_unitENS_4FITS7HDUTypeE@Base 3.2.1
 _ZN8casacore14HeaderDataUnit14write_all_dataERNS_10FitsOutputEPc@Base 3.2.1
 _ZN8casacore14HeaderDataUnit4skipEj@Base 3.2.1
 _ZN8casacore14HeaderDataUnit4skipEv@Base 3.2.1
 _ZN8casacore14HeaderDataUnit6asgdblENS_4FITS12ReservedNameEd@Base 3.2.1
 _ZN8casacore14HeaderDataUnit6asgdblENS_4FITS12ReservedNameEid@Base 3.2.1
 _ZN8casacore14HeaderDataUnit6assignENS_4FITS12ReservedNameE@Base 3.2.1
 _ZN8casacore14HeaderDataUnit6assignENS_4FITS12ReservedNameEi@Base 3.2.1
 _ZN8casacore14HeaderDataUnit6errmsgENS0_7HDUErrsEPKc@Base 3.2.1
 _ZN8casacore14HeaderDataUnit6posEndEv@Base 3.2.1
 _ZN8casacore14HeaderDataUnit7get_hdrENS_4FITS7HDUTypeERNS_15FitsKeywordListE@Base 3.2.1
 _ZN8casacore14HeaderDataUnit9read_dataEPci@Base 3.2.1
 _ZN8casacore14HeaderDataUnit9write_hdrERNS_10FitsOutputE@Base 3.2.1
 _ZN8casacore14HeaderDataUnitC1ENS_4FITS7HDUTypeEPFvPKcNS_9FITSError10ErrorLevelEEPNS_9FitsInputE@Base 3.2.1
 _ZN8casacore14HeaderDataUnitC1ERNS_15FitsKeywordListENS_4FITS7HDUTypeEPFvPKcNS_9FITSError10ErrorLevelEEPNS_9FitsInputE@Base 3.2.1
 _ZN8casacore14HeaderDataUnitC1ERNS_9FitsInputENS_4FITS7HDUTypeEPFvPKcNS_9FITSError10ErrorLevelEE@Base 3.2.1
 _ZN8casacore14HeaderDataUnitC2ENS_4FITS7HDUTypeEPFvPKcNS_9FITSError10ErrorLevelEEPNS_9FitsInputE@Base 3.2.1
 _ZN8casacore14HeaderDataUnitC2ERNS_15FitsKeywordListENS_4FITS7HDUTypeEPFvPKcNS_9FITSError10ErrorLevelEEPNS_9FitsInputE@Base 3.2.1
 _ZN8casacore14HeaderDataUnitC2ERNS_9FitsInputENS_4FITS7HDUTypeEPFvPKcNS_9FITSError10ErrorLevelEE@Base 3.2.1
 _ZN8casacore14HeaderDataUnitD0Ev@Base 3.2.1
 _ZN8casacore14HeaderDataUnitD1Ev@Base 3.2.1
 _ZN8casacore14HeaderDataUnitD2Ev@Base 3.2.1
 _ZN8casacore14ImageExtensionIdE9ie_assignEv@Base 3.2.1
 _ZN8casacore14ImageExtensionIdED0Ev@Base 3.2.1
 _ZN8casacore14ImageExtensionIdED1Ev@Base 3.2.1
 _ZN8casacore14ImageExtensionIdED2Ev@Base 3.2.1
 _ZN8casacore14ImageExtensionIfE9ie_assignEv@Base 3.2.1
 _ZN8casacore14ImageExtensionIfED0Ev@Base 3.2.1
 _ZN8casacore14ImageExtensionIfED1Ev@Base 3.2.1
 _ZN8casacore14ImageExtensionIfED2Ev@Base 3.2.1
 _ZN8casacore14ImageExtensionIhE9ie_assignEv@Base 3.2.1
 _ZN8casacore14ImageExtensionIhED0Ev@Base 3.2.1
 _ZN8casacore14ImageExtensionIhED1Ev@Base 3.2.1
 _ZN8casacore14ImageExtensionIhED2Ev@Base 3.2.1
 _ZN8casacore14ImageExtensionIiE9ie_assignEv@Base 3.2.1
 _ZN8casacore14ImageExtensionIiED0Ev@Base 3.2.1
 _ZN8casacore14ImageExtensionIiED1Ev@Base 3.2.1
 _ZN8casacore14ImageExtensionIiED2Ev@Base 3.2.1
 _ZN8casacore14ImageExtensionIsE9ie_assignEv@Base 3.2.1
 _ZN8casacore14ImageExtensionIsED0Ev@Base 3.2.1
 _ZN8casacore14ImageExtensionIsED1Ev@Base 3.2.1
 _ZN8casacore14ImageExtensionIsED2Ev@Base 3.2.1
 _ZN8casacore14RecordFieldPtrINS_5ArrayINS_6StringEEEE14attachToRecordERNS_15RecordInterfaceEi@Base 3.2.1
 _ZN8casacore14RecordFieldPtrINS_5ArrayINS_6StringEEEE6notifyERKNS_6NoticeE@Base 3.2.1
 _ZN8casacore14RecordFieldPtrINS_5ArrayINS_6StringEEEEC1ERKS4_@Base 3.2.1
 _ZN8casacore14RecordFieldPtrINS_5ArrayINS_6StringEEEEC2ERKS4_@Base 3.2.1
 _ZN8casacore14RecordFieldPtrINS_5ArrayINS_6StringEEEED0Ev@Base 3.2.1
 _ZN8casacore14RecordFieldPtrINS_5ArrayINS_6StringEEEED1Ev@Base 3.2.1
 _ZN8casacore14RecordFieldPtrINS_5ArrayINS_6StringEEEED2Ev@Base 3.2.1
 _ZN8casacore14RecordFieldPtrINS_5ArrayISt7complexIdEEEE14attachToRecordERNS_15RecordInterfaceEi@Base 3.2.1
 _ZN8casacore14RecordFieldPtrINS_5ArrayISt7complexIdEEEE6notifyERKNS_6NoticeE@Base 3.2.1
 _ZN8casacore14RecordFieldPtrINS_5ArrayISt7complexIdEEEEC1ERKS5_@Base 3.2.1
 _ZN8casacore14RecordFieldPtrINS_5ArrayISt7complexIdEEEEC2ERKS5_@Base 3.2.1
 _ZN8casacore14RecordFieldPtrINS_5ArrayISt7complexIdEEEED0Ev@Base 3.2.1
 _ZN8casacore14RecordFieldPtrINS_5ArrayISt7complexIdEEEED1Ev@Base 3.2.1
 _ZN8casacore14RecordFieldPtrINS_5ArrayISt7complexIdEEEED2Ev@Base 3.2.1
 _ZN8casacore14RecordFieldPtrINS_5ArrayISt7complexIfEEEE14attachToRecordERNS_15RecordInterfaceEi@Base 3.2.1
 _ZN8casacore14RecordFieldPtrINS_5ArrayISt7complexIfEEEE6notifyERKNS_6NoticeE@Base 3.2.1
 _ZN8casacore14RecordFieldPtrINS_5ArrayISt7complexIfEEEEC1ERKS5_@Base 3.2.1
 _ZN8casacore14RecordFieldPtrINS_5ArrayISt7complexIfEEEEC2ERKS5_@Base 3.2.1
 _ZN8casacore14RecordFieldPtrINS_5ArrayISt7complexIfEEEED0Ev@Base 3.2.1
 _ZN8casacore14RecordFieldPtrINS_5ArrayISt7complexIfEEEED1Ev@Base 3.2.1
 _ZN8casacore14RecordFieldPtrINS_5ArrayISt7complexIfEEEED2Ev@Base 3.2.1
 _ZN8casacore14RecordFieldPtrINS_5ArrayIbEEE14attachToRecordERNS_15RecordInterfaceEi@Base 3.2.1
 _ZN8casacore14RecordFieldPtrINS_5ArrayIbEEE6notifyERKNS_6NoticeE@Base 3.2.1
 _ZN8casacore14RecordFieldPtrINS_5ArrayIbEEEC1ERKS3_@Base 3.2.1
 _ZN8casacore14RecordFieldPtrINS_5ArrayIbEEEC2ERKS3_@Base 3.2.1
 _ZN8casacore14RecordFieldPtrINS_5ArrayIbEEED0Ev@Base 3.2.1
 _ZN8casacore14RecordFieldPtrINS_5ArrayIbEEED1Ev@Base 3.2.1
 _ZN8casacore14RecordFieldPtrINS_5ArrayIbEEED2Ev@Base 3.2.1
 _ZN8casacore14RecordFieldPtrINS_5ArrayIdEEE14attachToRecordERNS_15RecordInterfaceEi@Base 3.2.1
 _ZN8casacore14RecordFieldPtrINS_5ArrayIdEEE6notifyERKNS_6NoticeE@Base 3.2.1
 _ZN8casacore14RecordFieldPtrINS_5ArrayIdEEEC1ERKS3_@Base 3.2.1
 _ZN8casacore14RecordFieldPtrINS_5ArrayIdEEEC1ERNS_15RecordInterfaceEi@Base 3.2.1
 _ZN8casacore14RecordFieldPtrINS_5ArrayIdEEEC2ERKS3_@Base 3.2.1
 _ZN8casacore14RecordFieldPtrINS_5ArrayIdEEEC2ERNS_15RecordInterfaceEi@Base 3.2.1
 _ZN8casacore14RecordFieldPtrINS_5ArrayIdEEED0Ev@Base 3.2.1
 _ZN8casacore14RecordFieldPtrINS_5ArrayIdEEED1Ev@Base 3.2.1
 _ZN8casacore14RecordFieldPtrINS_5ArrayIdEEED2Ev@Base 3.2.1
 _ZN8casacore14RecordFieldPtrINS_5ArrayIfEEE14attachToRecordERNS_15RecordInterfaceEi@Base 3.2.1
 _ZN8casacore14RecordFieldPtrINS_5ArrayIfEEE6notifyERKNS_6NoticeE@Base 3.2.1
 _ZN8casacore14RecordFieldPtrINS_5ArrayIfEEEC1ERKS3_@Base 3.2.1
 _ZN8casacore14RecordFieldPtrINS_5ArrayIfEEEC1ERNS_15RecordInterfaceEi@Base 3.2.1
 _ZN8casacore14RecordFieldPtrINS_5ArrayIfEEEC2ERKS3_@Base 3.2.1
 _ZN8casacore14RecordFieldPtrINS_5ArrayIfEEEC2ERNS_15RecordInterfaceEi@Base 3.2.1
 _ZN8casacore14RecordFieldPtrINS_5ArrayIfEEED0Ev@Base 3.2.1
 _ZN8casacore14RecordFieldPtrINS_5ArrayIfEEED1Ev@Base 3.2.1
 _ZN8casacore14RecordFieldPtrINS_5ArrayIfEEED2Ev@Base 3.2.1
 _ZN8casacore14RecordFieldPtrINS_5ArrayIhEEE14attachToRecordERNS_15RecordInterfaceEi@Base 3.2.1
 _ZN8casacore14RecordFieldPtrINS_5ArrayIhEEE6notifyERKNS_6NoticeE@Base 3.2.1
 _ZN8casacore14RecordFieldPtrINS_5ArrayIhEEEC1ERKS3_@Base 3.2.1
 _ZN8casacore14RecordFieldPtrINS_5ArrayIhEEEC2ERKS3_@Base 3.2.1
 _ZN8casacore14RecordFieldPtrINS_5ArrayIhEEED0Ev@Base 3.2.1
 _ZN8casacore14RecordFieldPtrINS_5ArrayIhEEED1Ev@Base 3.2.1
 _ZN8casacore14RecordFieldPtrINS_5ArrayIhEEED2Ev@Base 3.2.1
 _ZN8casacore14RecordFieldPtrINS_5ArrayIiEEE14attachToRecordERNS_15RecordInterfaceEi@Base 3.2.1
 _ZN8casacore14RecordFieldPtrINS_5ArrayIiEEE6notifyERKNS_6NoticeE@Base 3.2.1
 _ZN8casacore14RecordFieldPtrINS_5ArrayIiEEEC1ERKS3_@Base 3.2.1
 _ZN8casacore14RecordFieldPtrINS_5ArrayIiEEEC2ERKS3_@Base 3.2.1
 _ZN8casacore14RecordFieldPtrINS_5ArrayIiEEED0Ev@Base 3.2.1
 _ZN8casacore14RecordFieldPtrINS_5ArrayIiEEED1Ev@Base 3.2.1
 _ZN8casacore14RecordFieldPtrINS_5ArrayIiEEED2Ev@Base 3.2.1
 _ZN8casacore14RecordFieldPtrINS_5ArrayIsEEE14attachToRecordERNS_15RecordInterfaceEi@Base 3.2.1
 _ZN8casacore14RecordFieldPtrINS_5ArrayIsEEE6notifyERKNS_6NoticeE@Base 3.2.1
 _ZN8casacore14RecordFieldPtrINS_5ArrayIsEEEC1ERKS3_@Base 3.2.1
 _ZN8casacore14RecordFieldPtrINS_5ArrayIsEEEC2ERKS3_@Base 3.2.1
 _ZN8casacore14RecordFieldPtrINS_5ArrayIsEEED0Ev@Base 3.2.1
 _ZN8casacore14RecordFieldPtrINS_5ArrayIsEEED1Ev@Base 3.2.1
 _ZN8casacore14RecordFieldPtrINS_5ArrayIsEEED2Ev@Base 3.2.1
 _ZN8casacore14RecordFieldPtrINS_6StringEE14attachToRecordERNS_15RecordInterfaceEi@Base 3.2.1
 _ZN8casacore14RecordFieldPtrINS_6StringEE6notifyERKNS_6NoticeE@Base 3.2.1
 _ZN8casacore14RecordFieldPtrINS_6StringEEC1ERKS2_@Base 3.2.1
 _ZN8casacore14RecordFieldPtrINS_6StringEEC2ERKS2_@Base 3.2.1
 _ZN8casacore14RecordFieldPtrINS_6StringEED0Ev@Base 3.2.1
 _ZN8casacore14RecordFieldPtrINS_6StringEED1Ev@Base 3.2.1
 _ZN8casacore14RecordFieldPtrINS_6StringEED2Ev@Base 3.2.1
 _ZN8casacore14RecordFieldPtrISt7complexIdEE14attachToRecordERNS_15RecordInterfaceEi@Base 3.2.1
 _ZN8casacore14RecordFieldPtrISt7complexIdEE6notifyERKNS_6NoticeE@Base 3.2.1
 _ZN8casacore14RecordFieldPtrISt7complexIdEEC1ERKS3_@Base 3.2.1
 _ZN8casacore14RecordFieldPtrISt7complexIdEEC2ERKS3_@Base 3.2.1
 _ZN8casacore14RecordFieldPtrISt7complexIdEED0Ev@Base 3.2.1
 _ZN8casacore14RecordFieldPtrISt7complexIdEED1Ev@Base 3.2.1
 _ZN8casacore14RecordFieldPtrISt7complexIdEED2Ev@Base 3.2.1
 _ZN8casacore14RecordFieldPtrISt7complexIfEE14attachToRecordERNS_15RecordInterfaceEi@Base 3.2.1
 _ZN8casacore14RecordFieldPtrISt7complexIfEE6notifyERKNS_6NoticeE@Base 3.2.1
 _ZN8casacore14RecordFieldPtrISt7complexIfEEC1ERKS3_@Base 3.2.1
 _ZN8casacore14RecordFieldPtrISt7complexIfEEC2ERKS3_@Base 3.2.1
 _ZN8casacore14RecordFieldPtrISt7complexIfEED0Ev@Base 3.2.1
 _ZN8casacore14RecordFieldPtrISt7complexIfEED1Ev@Base 3.2.1
 _ZN8casacore14RecordFieldPtrISt7complexIfEED2Ev@Base 3.2.1
 _ZN8casacore14RecordFieldPtrIbE14attachToRecordERNS_15RecordInterfaceEi@Base 3.2.1
 _ZN8casacore14RecordFieldPtrIbE6notifyERKNS_6NoticeE@Base 3.2.1
 _ZN8casacore14RecordFieldPtrIbEC1ERKS1_@Base 3.2.1
 _ZN8casacore14RecordFieldPtrIbEC2ERKS1_@Base 3.2.1
 _ZN8casacore14RecordFieldPtrIbED0Ev@Base 3.2.1
 _ZN8casacore14RecordFieldPtrIbED1Ev@Base 3.2.1
 _ZN8casacore14RecordFieldPtrIbED2Ev@Base 3.2.1
 _ZN8casacore14RecordFieldPtrIdE14attachToRecordERNS_15RecordInterfaceEi@Base 3.2.1
 _ZN8casacore14RecordFieldPtrIdE6notifyERKNS_6NoticeE@Base 3.2.1
 _ZN8casacore14RecordFieldPtrIdEC1ERKS1_@Base 3.2.1
 _ZN8casacore14RecordFieldPtrIdEC1ERNS_15RecordInterfaceERKNS_13RecordFieldIdE@Base 3.2.1
 _ZN8casacore14RecordFieldPtrIdEC2ERKS1_@Base 3.2.1
 _ZN8casacore14RecordFieldPtrIdEC2ERNS_15RecordInterfaceERKNS_13RecordFieldIdE@Base 3.2.1
 _ZN8casacore14RecordFieldPtrIdED0Ev@Base 3.2.1
 _ZN8casacore14RecordFieldPtrIdED1Ev@Base 3.2.1
 _ZN8casacore14RecordFieldPtrIdED2Ev@Base 3.2.1
 _ZN8casacore14RecordFieldPtrIfE14attachToRecordERNS_15RecordInterfaceEi@Base 3.2.1
 _ZN8casacore14RecordFieldPtrIfE6notifyERKNS_6NoticeE@Base 3.2.1
 _ZN8casacore14RecordFieldPtrIfEC1ERKS1_@Base 3.2.1
 _ZN8casacore14RecordFieldPtrIfEC1ERNS_15RecordInterfaceEi@Base 3.2.1
 _ZN8casacore14RecordFieldPtrIfEC2ERKS1_@Base 3.2.1
 _ZN8casacore14RecordFieldPtrIfEC2ERNS_15RecordInterfaceEi@Base 3.2.1
 _ZN8casacore14RecordFieldPtrIfED0Ev@Base 3.2.1
 _ZN8casacore14RecordFieldPtrIfED1Ev@Base 3.2.1
 _ZN8casacore14RecordFieldPtrIfED2Ev@Base 3.2.1
 _ZN8casacore14RecordFieldPtrIhE14attachToRecordERNS_15RecordInterfaceEi@Base 3.2.1
 _ZN8casacore14RecordFieldPtrIhE6notifyERKNS_6NoticeE@Base 3.2.1
 _ZN8casacore14RecordFieldPtrIhEC1ERKS1_@Base 3.2.1
 _ZN8casacore14RecordFieldPtrIhEC2ERKS1_@Base 3.2.1
 _ZN8casacore14RecordFieldPtrIhED0Ev@Base 3.2.1
 _ZN8casacore14RecordFieldPtrIhED1Ev@Base 3.2.1
 _ZN8casacore14RecordFieldPtrIhED2Ev@Base 3.2.1
 _ZN8casacore14RecordFieldPtrIiE14attachToRecordERNS_15RecordInterfaceEi@Base 3.2.1
 _ZN8casacore14RecordFieldPtrIiE6notifyERKNS_6NoticeE@Base 3.2.1
 _ZN8casacore14RecordFieldPtrIiEC1ERKS1_@Base 3.2.1
 _ZN8casacore14RecordFieldPtrIiEC2ERKS1_@Base 3.2.1
 _ZN8casacore14RecordFieldPtrIiED0Ev@Base 3.2.1
 _ZN8casacore14RecordFieldPtrIiED1Ev@Base 3.2.1
 _ZN8casacore14RecordFieldPtrIiED2Ev@Base 3.2.1
 _ZN8casacore14RecordFieldPtrIsE14attachToRecordERNS_15RecordInterfaceEi@Base 3.2.1
 _ZN8casacore14RecordFieldPtrIsE6notifyERKNS_6NoticeE@Base 3.2.1
 _ZN8casacore14RecordFieldPtrIsEC1ERKS1_@Base 3.2.1
 _ZN8casacore14RecordFieldPtrIsEC2ERKS1_@Base 3.2.1
 _ZN8casacore14RecordFieldPtrIsED0Ev@Base 3.2.1
 _ZN8casacore14RecordFieldPtrIsED1Ev@Base 3.2.1
 _ZN8casacore14RecordFieldPtrIsED2Ev@Base 3.2.1
 _ZN8casacore14isSDFitsColumnENS_4FITS12ReservedNameE@Base 3.2.1
 _ZN8casacore15ArrayColumnDataIhE10initializeEjj@Base 3.2.1
 _ZN8casacore15ArrayColumnDataIhE14getFileDerivedERNS_6AipsIOERKNS_9ColumnSetE@Base 3.2.1
 _ZN8casacore15ArrayColumnDataIhE14putArrayColumnEPKv@Base 3.2.1
 _ZN8casacore15ArrayColumnDataIhE14putColumnSliceERKNS_6SlicerEPKv@Base 3.2.1
 _ZN8casacore15ArrayColumnDataIhE14putFileDerivedERNS_6AipsIOE@Base 3.2.1
 _ZN8casacore15ArrayColumnDataIhE14setShapeColumnERKNS_9IPositionE@Base 3.2.1
 _ZN8casacore15ArrayColumnDataIhE19putArrayColumnCellsERKNS_7RefRowsEPKv@Base 3.2.1
 _ZN8casacore15ArrayColumnDataIhE19putColumnSliceCellsERKNS_7RefRowsERKNS_6SlicerEPKv@Base 3.2.1
 _ZN8casacore15ArrayColumnDataIhE23createDataManagerColumnEv@Base 3.2.1
 _ZN8casacore15ArrayColumnDataIhE3putEjPKv@Base 3.2.1
 _ZN8casacore15ArrayColumnDataIhE8putSliceEjRKNS_6SlicerEPKv@Base 3.2.1
 _ZN8casacore15ArrayColumnDataIhE8setShapeEjRKNS_9IPositionE@Base 3.2.1
 _ZN8casacore15ArrayColumnDataIhE8setShapeEjRKNS_9IPositionES4_@Base 3.2.1
 _ZN8casacore15ArrayColumnDataIhED0Ev@Base 3.2.1
 _ZN8casacore15ArrayColumnDataIhED1Ev@Base 3.2.1
 _ZN8casacore15ArrayColumnDataIhED2Ev@Base 3.2.1
 _ZN8casacore15ArrayColumnDescIhE7getDescERNS_6AipsIOE@Base 3.2.1
 _ZN8casacore15ArrayColumnDescIhEC1ERKNS_6StringERKNS_9IPositionEi@Base 3.2.1
 _ZN8casacore15ArrayColumnDescIhEC1ERKNS_6StringES4_RKNS_9IPositionEi@Base 3.2.1
 _ZN8casacore15ArrayColumnDescIhEC1ERKNS_6StringES4_ii@Base 3.2.1
 _ZN8casacore15ArrayColumnDescIhEC1ERKNS_6StringEii@Base 3.2.1
 _ZN8casacore15ArrayColumnDescIhEC2ERKNS_6StringERKNS_9IPositionEi@Base 3.2.1
 _ZN8casacore15ArrayColumnDescIhEC2ERKNS_6StringES4_RKNS_9IPositionEi@Base 3.2.1
 _ZN8casacore15ArrayColumnDescIhEC2ERKNS_6StringES4_ii@Base 3.2.1
 _ZN8casacore15ArrayColumnDescIhEC2ERKNS_6StringEii@Base 3.2.1
 _ZN8casacore15ArrayColumnDescIhED0Ev@Base 3.2.1
 _ZN8casacore15ArrayColumnDescIhED1Ev@Base 3.2.1
 _ZN8casacore15ArrayColumnDescIhED2Ev@Base 3.2.1
 _ZN8casacore15FITSGroupWriter11check_errorEPKc@Base 3.2.1
 _ZN8casacore15FITSGroupWriter5writeEv@Base 3.2.1
 _ZN8casacore15FITSGroupWriterC1ERKNS_6StringERKNS_10RecordDescEjRKNS_6RecordEb@Base 3.2.1
 _ZN8casacore15FITSGroupWriterC2ERKNS_6StringERKNS_10RecordDescEjRKNS_6RecordEb@Base 3.2.1
 _ZN8casacore15FITSGroupWriterD1Ev@Base 3.2.1
 _ZN8casacore15FITSGroupWriterD2Ev@Base 3.2.1
 _ZN8casacore15FITSHistoryUtil11fromHISTORYERNS_12LoggerHolderERKNS_6VectorINS_6StringEEEjb@Base 3.2.1
 _ZN8casacore15FITSHistoryUtil15addHistoryGroupERNS_15FitsKeywordListERKSt6vectorINS_6StringESaIS4_EEjRKS4_@Base 3.2.1
 _ZN8casacore15FITSHistoryUtil15getHistoryGroupERNS_6VectorINS_6StringEEERS2_RNS_20ConstFitsKeywordListE@Base 3.2.1
 _ZN8casacore15FITSHistoryUtil9toHISTORYERSt6vectorINS_6StringESaIS2_EERbRjjRKNS_12LoggerHolderE@Base 3.2.1
 _ZN8casacore15FITSKeywordUtil10addCommentERNS_15RecordInterfaceERKNS_6StringE@Base 3.2.1
 _ZN8casacore15FITSKeywordUtil10addHistoryERNS_15RecordInterfaceERKNS_6StringE@Base 3.2.1
 _ZN8casacore15FITSKeywordUtil11addKeywordsERNS_15FitsKeywordListERKNS_15RecordInterfaceE@Base 3.2.1
 _ZN8casacore15FITSKeywordUtil11getKeywordsERNS_15RecordInterfaceERNS_20ConstFitsKeywordListERKNS_6VectorINS_6StringEEEb@Base 3.2.1
 _ZN8casacore15FITSKeywordUtil14removeKeywordsERNS_15RecordInterfaceERKNS_6VectorINS_6StringEEE@Base 3.2.1
 _ZN8casacore15FITSKeywordUtil15makeKeywordListEbb@Base 3.2.1
 _ZN8casacore15FITSKeywordUtil6toTDIMERNS_6StringERKNS_9IPositionE@Base 3.2.1
 _ZN8casacore15FITSKeywordUtil8fromTDIMERNS_9IPositionERKNS_6StringE@Base 3.2.1
 _ZN8casacore15FITSTableWriter10makeWriterERKNS_6StringE@Base 3.2.1
 _ZN8casacore15FITSTableWriter5writeEv@Base 3.2.1
 _ZN8casacore15FITSTableWriterC1EPNS_10FitsOutputERKNS_10RecordDescERKNS_6RecordEjS8_S8_bS8_@Base 3.2.1
 _ZN8casacore15FITSTableWriterC2EPNS_10FitsOutputERKNS_10RecordDescERKNS_6RecordEjS8_S8_bS8_@Base 3.2.1
 _ZN8casacore15FITSTableWriterD1Ev@Base 3.2.1
 _ZN8casacore15FITSTableWriterD2Ev@Base 3.2.1
 _ZN8casacore15FitsKeywordList10delete_allEv@Base 3.2.1
 _ZN8casacore15FitsKeywordList11basic_rulesEv@Base 3.2.1
 _ZN8casacore15FitsKeywordList14makeErrKeywordEPKcNS_4FITS9ValueTypeEPKvS2_@Base 3.2.1
 _ZN8casacore15FitsKeywordList3delEv@Base 3.2.1
 _ZN8casacore15FitsKeywordList4makeENS_4FITS12ReservedNameENS1_9ValueTypeEPKvPKc@Base 3.2.1
 _ZN8casacore15FitsKeywordList4makeEPKcNS_4FITS9ValueTypeEPKvS2_@Base 3.2.1
 _ZN8casacore15FitsKeywordList4makeEiNS_4FITS12ReservedNameENS1_9ValueTypeEPKvPKc@Base 3.2.1
 _ZN8casacore15FitsKeywordList4nextEPKc@Base 3.2.1
 _ZN8casacore15FitsKeywordList4nextERKNS_4FITS12ReservedNameE@Base 3.2.1
 _ZN8casacore15FitsKeywordList4nextERKNS_4FITS12ReservedNameEi@Base 3.2.1
 _ZN8casacore15FitsKeywordList4nextEv@Base 3.2.1
 _ZN8casacore15FitsKeywordList4prevEv@Base 3.2.1
 _ZN8casacore15FitsKeywordList5rulesEPFvPKcNS_9FITSError10ErrorLevelEE@Base 3.2.1
 _ZN8casacore15FitsKeywordList5rulesERNS_11FitsKeywordEPFvPKcNS_9FITSError10ErrorLevelEE@Base 3.2.1
 _ZN8casacore15FitsKeywordList6insertERNS_11FitsKeywordE@Base 3.2.1
 _ZN8casacore15FitsKeywordListC1ERKS0_@Base 3.2.1
 _ZN8casacore15FitsKeywordListC1ERNS_20ConstFitsKeywordListE@Base 3.2.1
 _ZN8casacore15FitsKeywordListC2ERKS0_@Base 3.2.1
 _ZN8casacore15FitsKeywordListC2ERNS_20ConstFitsKeywordListE@Base 3.2.1
 _ZN8casacore15FitsKeywordListD1Ev@Base 3.2.1
 _ZN8casacore15FitsKeywordListD2Ev@Base 3.2.1
 _ZN8casacore15FitsKeywordListaSERKS0_@Base 3.2.1
 _ZN8casacore15FitsKeywordListclEi@Base 3.2.1
 _ZN8casacore15FitsTape9OutputC1EPKciiPFvS2_NS_9FITSError10ErrorLevelEE@Base 3.2.1
 _ZN8casacore15FitsTape9OutputC2EPKciiPFvS2_NS_9FITSError10ErrorLevelEE@Base 3.2.1
 _ZN8casacore15FitsTape9OutputD0Ev@Base 3.2.1
 _ZN8casacore15FitsTape9OutputD1Ev@Base 3.2.1
 _ZN8casacore15FitsTape9OutputD2Ev@Base 3.2.1
 _ZN8casacore15GenSortIndirectIjE10insSortAscEPjPKjii@Base 3.2.1
 _ZN8casacore15GenSortIndirectIjE11heapSortAscEPjPKji@Base 3.2.1
 _ZN8casacore15GenSortIndirectIjE12quickSortAscEPjPKjibi@Base 3.2.1
 _ZN8casacore15GenSortIndirectIjE15heapAscSiftDownEPjiiPKj@Base 3.2.1
 _ZN8casacore15GenSortIndirectIjE15insSortAscNoDupEPjPKji@Base 3.2.1
 _ZN8casacore15GenSortIndirectIjE4sortERNS_6VectorIjEEPKjjNS_4Sort5OrderEi@Base 3.2.1
 _ZN8casacore15GenSortIndirectIjE4sortERNS_6VectorIjEERKNS_5ArrayIjEENS_4Sort5OrderEi@Base 3.2.1
 _ZN8casacore15GenSortIndirectIjE5mergeEPKjPjS4_jS4_j@Base 3.2.1
 _ZN8casacore15GenSortIndirectIjE7parSortEPjPKjjNS_4Sort5OrderEii@Base 3.2.1
 _ZN8casacore15NewDelAllocatorINS_6MVTimeEE5valueE@Base 3.2.1
 _ZN8casacore15NewDelAllocatorINS_6MVTimeEED0Ev@Base 3.2.1
 _ZN8casacore15NewDelAllocatorINS_6MVTimeEED1Ev@Base 3.2.1
 _ZN8casacore15NewDelAllocatorINS_6MVTimeEED2Ev@Base 3.2.1
 _ZN8casacore15NewDelAllocatorIPNS_6SlicerEE5valueE@Base 3.2.1
 _ZN8casacore15NewDelAllocatorIPNS_6SlicerEED0Ev@Base 3.2.1
 _ZN8casacore15NewDelAllocatorIPNS_6SlicerEED1Ev@Base 3.2.1
 _ZN8casacore15NewDelAllocatorIPNS_6SlicerEED2Ev@Base 3.2.1
 _ZN8casacore15showBinaryTableERNS_20BinaryTableExtensionE@Base 3.2.1
 _ZN8casacore16DefaultAllocatorINS_6MVTimeEE5valueE@Base 3.2.1
 _ZN8casacore16DefaultAllocatorINS_6MVTimeEED0Ev@Base 3.2.1
 _ZN8casacore16DefaultAllocatorINS_6MVTimeEED1Ev@Base 3.2.1
 _ZN8casacore16DefaultAllocatorINS_6MVTimeEED2Ev@Base 3.2.1
 _ZN8casacore16DefaultAllocatorIPNS_6SlicerEE5valueE@Base 3.2.1
 _ZN8casacore16DefaultAllocatorIPNS_6SlicerEED0Ev@Base 3.2.1
 _ZN8casacore16DefaultAllocatorIPNS_6SlicerEED1Ev@Base 3.2.1
 _ZN8casacore16DefaultAllocatorIPNS_6SlicerEED2Ev@Base 3.2.1
 _ZN8casacore16FITSSpectralUtil12frameFromTagERNS_10MFrequency5TypesERKNS_6StringEi@Base 3.2.1
 _ZN8casacore16FITSSpectralUtil12tagFromFrameERNS_6StringERiNS_10MFrequency5TypesE@Base 3.2.1
 _ZN8casacore16FITSSpectralUtil12toFITSHeaderERNS_6StringERdS3_S3_S2_RbS3_S3_RiS3_S2_RNS_5LogIOEdddNS_10MFrequency5TypesEbNS_8MDoppler5TypesEbbb@Base 3.2.1
 _ZN8casacore16FITSSpectralUtil14fromFITSHeaderERiRdS2_S2_RNS_6VectorIdEERNS_10MFrequency5TypesERNS_8MDoppler5TypesES2_RNS_5LogIOERKNS_15RecordInterfaceEcb@Base 3.2.1
 _ZN8casacore16FITSSpectralUtil15refractiveIndexERKd@Base 3.2.1
 _ZN8casacore16FITSSpectralUtil16frameFromSpecsysERNS_10MFrequency5TypesERNS_6StringE@Base 3.2.1
 _ZN8casacore16FITSSpectralUtil16specsysFromFrameERNS_6StringENS_10MFrequency5TypesE@Base 3.2.1
 _ZN8casacore16ScalarColumnDataIhE10initializeEjj@Base 3.2.1
 _ZN8casacore16ScalarColumnDataIhE11freeIterBufERPvS3_@Base 3.2.1
 _ZN8casacore16ScalarColumnDataIhE11freeSortKeyERPKv@Base 3.2.1
 _ZN8casacore16ScalarColumnDataIhE11makeSortKeyERNS_4SortERNS_10CountedPtrINS_11BaseCompareEEEiRPKv@Base 3.2.1
 _ZN8casacore16ScalarColumnDataIhE12allocIterBufERPvS3_RNS_10CountedPtrINS_11BaseCompareEEE@Base 3.2.1
 _ZN8casacore16ScalarColumnDataIhE14getFileDerivedERNS_6AipsIOERKNS_9ColumnSetE@Base 3.2.1
 _ZN8casacore16ScalarColumnDataIhE14makeRefSortKeyERNS_4SortERNS_10CountedPtrINS_11BaseCompareEEEiRKNS_6VectorIjEERPKv@Base 3.2.1
 _ZN8casacore16ScalarColumnDataIhE14putFileDerivedERNS_6AipsIOE@Base 3.2.1
 _ZN8casacore16ScalarColumnDataIhE15putScalarColumnEPKv@Base 3.2.1
 _ZN8casacore16ScalarColumnDataIhE20putScalarColumnCellsERKNS_7RefRowsEPKv@Base 3.2.1
 _ZN8casacore16ScalarColumnDataIhE23createDataManagerColumnEv@Base 3.2.1
 _ZN8casacore16ScalarColumnDataIhE3putEjPKv@Base 3.2.1
 _ZN8casacore16ScalarColumnDataIhED0Ev@Base 3.2.1
 _ZN8casacore16ScalarColumnDataIhED1Ev@Base 3.2.1
 _ZN8casacore16ScalarColumnDataIhED2Ev@Base 3.2.1
 _ZN8casacore16ScalarColumnDescIhE7getDescERNS_6AipsIOE@Base 3.2.1
 _ZN8casacore16ScalarColumnDescIhEC1ERKNS_6StringES4_i@Base 3.2.1
 _ZN8casacore16ScalarColumnDescIhEC1ERKNS_6StringEi@Base 3.2.1
 _ZN8casacore16ScalarColumnDescIhEC2ERKNS_6StringES4_i@Base 3.2.1
 _ZN8casacore16ScalarColumnDescIhEC2ERKNS_6StringEi@Base 3.2.1
 _ZN8casacore16ScalarColumnDescIhED0Ev@Base 3.2.1
 _ZN8casacore16ScalarColumnDescIhED1Ev@Base 3.2.1
 _ZN8casacore16ScalarColumnDescIhED2Ev@Base 3.2.1
 _ZN8casacore16showPrimaryArrayERNS_12PrimaryArrayIdEE@Base 3.2.1
 _ZN8casacore16showPrimaryArrayERNS_12PrimaryArrayIfEE@Base 3.2.1
 _ZN8casacore16showPrimaryArrayERNS_12PrimaryArrayIhEE@Base 3.2.1
 _ZN8casacore16showPrimaryArrayERNS_12PrimaryArrayIiEE@Base 3.2.1
 _ZN8casacore16showPrimaryArrayERNS_12PrimaryArrayIsEE@Base 3.2.1
 _ZN8casacore16showPrimaryGroupERNS_12PrimaryGroupIdEE@Base 3.2.1
 _ZN8casacore16showPrimaryGroupERNS_12PrimaryGroupIfEE@Base 3.2.1
 _ZN8casacore16showPrimaryGroupERNS_12PrimaryGroupIhEE@Base 3.2.1
 _ZN8casacore16showPrimaryGroupERNS_12PrimaryGroupIiEE@Base 3.2.1
 _ZN8casacore16showPrimaryGroupERNS_12PrimaryGroupIsEE@Base 3.2.1
 _ZN8casacore17Allocator_private17BulkAllocatorImplINS_17new_del_allocatorINS_6MVTimeEEEE10deallocateEPS3_m@Base 3.2.1
 _ZN8casacore17Allocator_private17BulkAllocatorImplINS_17new_del_allocatorINS_6MVTimeEEEE7destroyEPS3_m@Base 3.2.1
 _ZN8casacore17Allocator_private17BulkAllocatorImplINS_17new_del_allocatorINS_6MVTimeEEEE8allocateEmPKv@Base 3.2.1
 _ZN8casacore17Allocator_private17BulkAllocatorImplINS_17new_del_allocatorINS_6MVTimeEEEE9allocatorE@Base 3.2.1
 _ZN8casacore17Allocator_private17BulkAllocatorImplINS_17new_del_allocatorINS_6MVTimeEEEE9constructEPS3_m@Base 3.2.1
 _ZN8casacore17Allocator_private17BulkAllocatorImplINS_17new_del_allocatorINS_6MVTimeEEEE9constructEPS3_mPKS3_@Base 3.2.1
 _ZN8casacore17Allocator_private17BulkAllocatorImplINS_17new_del_allocatorINS_6MVTimeEEEE9constructEPS3_mRKS3_@Base 3.2.1
 _ZN8casacore17Allocator_private17BulkAllocatorImplINS_17new_del_allocatorINS_6MVTimeEEEED0Ev@Base 3.2.1
 _ZN8casacore17Allocator_private17BulkAllocatorImplINS_17new_del_allocatorINS_6MVTimeEEEED1Ev@Base 3.2.1
 _ZN8casacore17Allocator_private17BulkAllocatorImplINS_17new_del_allocatorINS_6MVTimeEEEED2Ev@Base 3.2.1
 _ZN8casacore17Allocator_private17BulkAllocatorImplINS_17new_del_allocatorIPNS_6SlicerEEEE10deallocateEPS4_m@Base 3.2.1
 _ZN8casacore17Allocator_private17BulkAllocatorImplINS_17new_del_allocatorIPNS_6SlicerEEEE7destroyEPS4_m@Base 3.2.1
 _ZN8casacore17Allocator_private17BulkAllocatorImplINS_17new_del_allocatorIPNS_6SlicerEEEE8allocateEmPKv@Base 3.2.1
 _ZN8casacore17Allocator_private17BulkAllocatorImplINS_17new_del_allocatorIPNS_6SlicerEEEE9allocatorE@Base 3.2.1
 _ZN8casacore17Allocator_private17BulkAllocatorImplINS_17new_del_allocatorIPNS_6SlicerEEEE9constructEPS4_m@Base 3.2.1
 _ZN8casacore17Allocator_private17BulkAllocatorImplINS_17new_del_allocatorIPNS_6SlicerEEEE9constructEPS4_mPKS4_@Base 3.2.1
 _ZN8casacore17Allocator_private17BulkAllocatorImplINS_17new_del_allocatorIPNS_6SlicerEEEE9constructEPS4_mRKS4_@Base 3.2.1
 _ZN8casacore17Allocator_private17BulkAllocatorImplINS_17new_del_allocatorIPNS_6SlicerEEEED0Ev@Base 3.2.1
 _ZN8casacore17Allocator_private17BulkAllocatorImplINS_17new_del_allocatorIPNS_6SlicerEEEED1Ev@Base 3.2.1
 _ZN8casacore17Allocator_private17BulkAllocatorImplINS_17new_del_allocatorIPNS_6SlicerEEEED2Ev@Base 3.2.1
 _ZN8casacore17Allocator_private17BulkAllocatorImplINS_18casacore_allocatorINS_14RecordFieldPtrINS_5ArrayINS_6StringEEEEELm32EEEE10deallocateEPS7_m@Base 3.2.1
 _ZN8casacore17Allocator_private17BulkAllocatorImplINS_18casacore_allocatorINS_14RecordFieldPtrINS_5ArrayINS_6StringEEEEELm32EEEE7destroyEPS7_m@Base 3.2.1
 _ZN8casacore17Allocator_private17BulkAllocatorImplINS_18casacore_allocatorINS_14RecordFieldPtrINS_5ArrayINS_6StringEEEEELm32EEEE8allocateEmPKv@Base 3.2.1
 _ZN8casacore17Allocator_private17BulkAllocatorImplINS_18casacore_allocatorINS_14RecordFieldPtrINS_5ArrayINS_6StringEEEEELm32EEEE9allocatorE@Base 3.2.1
 _ZN8casacore17Allocator_private17BulkAllocatorImplINS_18casacore_allocatorINS_14RecordFieldPtrINS_5ArrayINS_6StringEEEEELm32EEEE9constructEPS7_m@Base 3.2.1
 _ZN8casacore17Allocator_private17BulkAllocatorImplINS_18casacore_allocatorINS_14RecordFieldPtrINS_5ArrayINS_6StringEEEEELm32EEEE9constructEPS7_mPKS7_@Base 3.2.1
 _ZN8casacore17Allocator_private17BulkAllocatorImplINS_18casacore_allocatorINS_14RecordFieldPtrINS_5ArrayINS_6StringEEEEELm32EEEE9constructEPS7_mRKS7_@Base 3.2.1
 _ZN8casacore17Allocator_private17BulkAllocatorImplINS_18casacore_allocatorINS_14RecordFieldPtrINS_5ArrayINS_6StringEEEEELm32EEEED0Ev@Base 3.2.1
 _ZN8casacore17Allocator_private17BulkAllocatorImplINS_18casacore_allocatorINS_14RecordFieldPtrINS_5ArrayINS_6StringEEEEELm32EEEED1Ev@Base 3.2.1
 _ZN8casacore17Allocator_private17BulkAllocatorImplINS_18casacore_allocatorINS_14RecordFieldPtrINS_5ArrayINS_6StringEEEEELm32EEEED2Ev@Base 3.2.1
 _ZN8casacore17Allocator_private17BulkAllocatorImplINS_18casacore_allocatorINS_14RecordFieldPtrINS_5ArrayISt7complexIdEEEEELm32EEEE10deallocateEPS8_m@Base 3.2.1
 _ZN8casacore17Allocator_private17BulkAllocatorImplINS_18casacore_allocatorINS_14RecordFieldPtrINS_5ArrayISt7complexIdEEEEELm32EEEE7destroyEPS8_m@Base 3.2.1
 _ZN8casacore17Allocator_private17BulkAllocatorImplINS_18casacore_allocatorINS_14RecordFieldPtrINS_5ArrayISt7complexIdEEEEELm32EEEE8allocateEmPKv@Base 3.2.1
 _ZN8casacore17Allocator_private17BulkAllocatorImplINS_18casacore_allocatorINS_14RecordFieldPtrINS_5ArrayISt7complexIdEEEEELm32EEEE9allocatorE@Base 3.2.1
 _ZN8casacore17Allocator_private17BulkAllocatorImplINS_18casacore_allocatorINS_14RecordFieldPtrINS_5ArrayISt7complexIdEEEEELm32EEEE9constructEPS8_m@Base 3.2.1
 _ZN8casacore17Allocator_private17BulkAllocatorImplINS_18casacore_allocatorINS_14RecordFieldPtrINS_5ArrayISt7complexIdEEEEELm32EEEE9constructEPS8_mPKS8_@Base 3.2.1
 _ZN8casacore17Allocator_private17BulkAllocatorImplINS_18casacore_allocatorINS_14RecordFieldPtrINS_5ArrayISt7complexIdEEEEELm32EEEE9constructEPS8_mRKS8_@Base 3.2.1
 _ZN8casacore17Allocator_private17BulkAllocatorImplINS_18casacore_allocatorINS_14RecordFieldPtrINS_5ArrayISt7complexIdEEEEELm32EEEED0Ev@Base 3.2.1
 _ZN8casacore17Allocator_private17BulkAllocatorImplINS_18casacore_allocatorINS_14RecordFieldPtrINS_5ArrayISt7complexIdEEEEELm32EEEED1Ev@Base 3.2.1
 _ZN8casacore17Allocator_private17BulkAllocatorImplINS_18casacore_allocatorINS_14RecordFieldPtrINS_5ArrayISt7complexIdEEEEELm32EEEED2Ev@Base 3.2.1
 _ZN8casacore17Allocator_private17BulkAllocatorImplINS_18casacore_allocatorINS_14RecordFieldPtrINS_5ArrayISt7complexIfEEEEELm32EEEE10deallocateEPS8_m@Base 3.2.1
 _ZN8casacore17Allocator_private17BulkAllocatorImplINS_18casacore_allocatorINS_14RecordFieldPtrINS_5ArrayISt7complexIfEEEEELm32EEEE7destroyEPS8_m@Base 3.2.1
 _ZN8casacore17Allocator_private17BulkAllocatorImplINS_18casacore_allocatorINS_14RecordFieldPtrINS_5ArrayISt7complexIfEEEEELm32EEEE8allocateEmPKv@Base 3.2.1
 _ZN8casacore17Allocator_private17BulkAllocatorImplINS_18casacore_allocatorINS_14RecordFieldPtrINS_5ArrayISt7complexIfEEEEELm32EEEE9allocatorE@Base 3.2.1
 _ZN8casacore17Allocator_private17BulkAllocatorImplINS_18casacore_allocatorINS_14RecordFieldPtrINS_5ArrayISt7complexIfEEEEELm32EEEE9constructEPS8_m@Base 3.2.1
 _ZN8casacore17Allocator_private17BulkAllocatorImplINS_18casacore_allocatorINS_14RecordFieldPtrINS_5ArrayISt7complexIfEEEEELm32EEEE9constructEPS8_mPKS8_@Base 3.2.1
 _ZN8casacore17Allocator_private17BulkAllocatorImplINS_18casacore_allocatorINS_14RecordFieldPtrINS_5ArrayISt7complexIfEEEEELm32EEEE9constructEPS8_mRKS8_@Base 3.2.1
 _ZN8casacore17Allocator_private17BulkAllocatorImplINS_18casacore_allocatorINS_14RecordFieldPtrINS_5ArrayISt7complexIfEEEEELm32EEEED0Ev@Base 3.2.1
 _ZN8casacore17Allocator_private17BulkAllocatorImplINS_18casacore_allocatorINS_14RecordFieldPtrINS_5ArrayISt7complexIfEEEEELm32EEEED1Ev@Base 3.2.1
 _ZN8casacore17Allocator_private17BulkAllocatorImplINS_18casacore_allocatorINS_14RecordFieldPtrINS_5ArrayISt7complexIfEEEEELm32EEEED2Ev@Base 3.2.1
 _ZN8casacore17Allocator_private17BulkAllocatorImplINS_18casacore_allocatorINS_14RecordFieldPtrINS_5ArrayIbEEEELm32EEEE10deallocateEPS6_m@Base 3.2.1
 _ZN8casacore17Allocator_private17BulkAllocatorImplINS_18casacore_allocatorINS_14RecordFieldPtrINS_5ArrayIbEEEELm32EEEE7destroyEPS6_m@Base 3.2.1
 _ZN8casacore17Allocator_private17BulkAllocatorImplINS_18casacore_allocatorINS_14RecordFieldPtrINS_5ArrayIbEEEELm32EEEE8allocateEmPKv@Base 3.2.1
 _ZN8casacore17Allocator_private17BulkAllocatorImplINS_18casacore_allocatorINS_14RecordFieldPtrINS_5ArrayIbEEEELm32EEEE9allocatorE@Base 3.2.1
 _ZN8casacore17Allocator_private17BulkAllocatorImplINS_18casacore_allocatorINS_14RecordFieldPtrINS_5ArrayIbEEEELm32EEEE9constructEPS6_m@Base 3.2.1
 _ZN8casacore17Allocator_private17BulkAllocatorImplINS_18casacore_allocatorINS_14RecordFieldPtrINS_5ArrayIbEEEELm32EEEE9constructEPS6_mPKS6_@Base 3.2.1
 _ZN8casacore17Allocator_private17BulkAllocatorImplINS_18casacore_allocatorINS_14RecordFieldPtrINS_5ArrayIbEEEELm32EEEE9constructEPS6_mRKS6_@Base 3.2.1
 _ZN8casacore17Allocator_private17BulkAllocatorImplINS_18casacore_allocatorINS_14RecordFieldPtrINS_5ArrayIbEEEELm32EEEED0Ev@Base 3.2.1
 _ZN8casacore17Allocator_private17BulkAllocatorImplINS_18casacore_allocatorINS_14RecordFieldPtrINS_5ArrayIbEEEELm32EEEED1Ev@Base 3.2.1
 _ZN8casacore17Allocator_private17BulkAllocatorImplINS_18casacore_allocatorINS_14RecordFieldPtrINS_5ArrayIbEEEELm32EEEED2Ev@Base 3.2.1
 _ZN8casacore17Allocator_private17BulkAllocatorImplINS_18casacore_allocatorINS_14RecordFieldPtrINS_5ArrayIdEEEELm32EEEE10deallocateEPS6_m@Base 3.2.1
 _ZN8casacore17Allocator_private17BulkAllocatorImplINS_18casacore_allocatorINS_14RecordFieldPtrINS_5ArrayIdEEEELm32EEEE7destroyEPS6_m@Base 3.2.1
 _ZN8casacore17Allocator_private17BulkAllocatorImplINS_18casacore_allocatorINS_14RecordFieldPtrINS_5ArrayIdEEEELm32EEEE8allocateEmPKv@Base 3.2.1
 _ZN8casacore17Allocator_private17BulkAllocatorImplINS_18casacore_allocatorINS_14RecordFieldPtrINS_5ArrayIdEEEELm32EEEE9allocatorE@Base 3.2.1
 _ZN8casacore17Allocator_private17BulkAllocatorImplINS_18casacore_allocatorINS_14RecordFieldPtrINS_5ArrayIdEEEELm32EEEE9constructEPS6_m@Base 3.2.1
 _ZN8casacore17Allocator_private17BulkAllocatorImplINS_18casacore_allocatorINS_14RecordFieldPtrINS_5ArrayIdEEEELm32EEEE9constructEPS6_mPKS6_@Base 3.2.1
 _ZN8casacore17Allocator_private17BulkAllocatorImplINS_18casacore_allocatorINS_14RecordFieldPtrINS_5ArrayIdEEEELm32EEEE9constructEPS6_mRKS6_@Base 3.2.1
 _ZN8casacore17Allocator_private17BulkAllocatorImplINS_18casacore_allocatorINS_14RecordFieldPtrINS_5ArrayIdEEEELm32EEEED0Ev@Base 3.2.1
 _ZN8casacore17Allocator_private17BulkAllocatorImplINS_18casacore_allocatorINS_14RecordFieldPtrINS_5ArrayIdEEEELm32EEEED1Ev@Base 3.2.1
 _ZN8casacore17Allocator_private17BulkAllocatorImplINS_18casacore_allocatorINS_14RecordFieldPtrINS_5ArrayIdEEEELm32EEEED2Ev@Base 3.2.1
 _ZN8casacore17Allocator_private17BulkAllocatorImplINS_18casacore_allocatorINS_14RecordFieldPtrINS_5ArrayIfEEEELm32EEEE10deallocateEPS6_m@Base 3.2.1
 _ZN8casacore17Allocator_private17BulkAllocatorImplINS_18casacore_allocatorINS_14RecordFieldPtrINS_5ArrayIfEEEELm32EEEE7destroyEPS6_m@Base 3.2.1
 _ZN8casacore17Allocator_private17BulkAllocatorImplINS_18casacore_allocatorINS_14RecordFieldPtrINS_5ArrayIfEEEELm32EEEE8allocateEmPKv@Base 3.2.1
 _ZN8casacore17Allocator_private17BulkAllocatorImplINS_18casacore_allocatorINS_14RecordFieldPtrINS_5ArrayIfEEEELm32EEEE9allocatorE@Base 3.2.1
 _ZN8casacore17Allocator_private17BulkAllocatorImplINS_18casacore_allocatorINS_14RecordFieldPtrINS_5ArrayIfEEEELm32EEEE9constructEPS6_m@Base 3.2.1
 _ZN8casacore17Allocator_private17BulkAllocatorImplINS_18casacore_allocatorINS_14RecordFieldPtrINS_5ArrayIfEEEELm32EEEE9constructEPS6_mPKS6_@Base 3.2.1
 _ZN8casacore17Allocator_private17BulkAllocatorImplINS_18casacore_allocatorINS_14RecordFieldPtrINS_5ArrayIfEEEELm32EEEE9constructEPS6_mRKS6_@Base 3.2.1
 _ZN8casacore17Allocator_private17BulkAllocatorImplINS_18casacore_allocatorINS_14RecordFieldPtrINS_5ArrayIfEEEELm32EEEED0Ev@Base 3.2.1
 _ZN8casacore17Allocator_private17BulkAllocatorImplINS_18casacore_allocatorINS_14RecordFieldPtrINS_5ArrayIfEEEELm32EEEED1Ev@Base 3.2.1
 _ZN8casacore17Allocator_private17BulkAllocatorImplINS_18casacore_allocatorINS_14RecordFieldPtrINS_5ArrayIfEEEELm32EEEED2Ev@Base 3.2.1
 _ZN8casacore17Allocator_private17BulkAllocatorImplINS_18casacore_allocatorINS_14RecordFieldPtrINS_5ArrayIhEEEELm32EEEE10deallocateEPS6_m@Base 3.2.1
 _ZN8casacore17Allocator_private17BulkAllocatorImplINS_18casacore_allocatorINS_14RecordFieldPtrINS_5ArrayIhEEEELm32EEEE7destroyEPS6_m@Base 3.2.1
 _ZN8casacore17Allocator_private17BulkAllocatorImplINS_18casacore_allocatorINS_14RecordFieldPtrINS_5ArrayIhEEEELm32EEEE8allocateEmPKv@Base 3.2.1
 _ZN8casacore17Allocator_private17BulkAllocatorImplINS_18casacore_allocatorINS_14RecordFieldPtrINS_5ArrayIhEEEELm32EEEE9allocatorE@Base 3.2.1
 _ZN8casacore17Allocator_private17BulkAllocatorImplINS_18casacore_allocatorINS_14RecordFieldPtrINS_5ArrayIhEEEELm32EEEE9constructEPS6_m@Base 3.2.1
 _ZN8casacore17Allocator_private17BulkAllocatorImplINS_18casacore_allocatorINS_14RecordFieldPtrINS_5ArrayIhEEEELm32EEEE9constructEPS6_mPKS6_@Base 3.2.1
 _ZN8casacore17Allocator_private17BulkAllocatorImplINS_18casacore_allocatorINS_14RecordFieldPtrINS_5ArrayIhEEEELm32EEEE9constructEPS6_mRKS6_@Base 3.2.1
 _ZN8casacore17Allocator_private17BulkAllocatorImplINS_18casacore_allocatorINS_14RecordFieldPtrINS_5ArrayIhEEEELm32EEEED0Ev@Base 3.2.1
 _ZN8casacore17Allocator_private17BulkAllocatorImplINS_18casacore_allocatorINS_14RecordFieldPtrINS_5ArrayIhEEEELm32EEEED1Ev@Base 3.2.1
 _ZN8casacore17Allocator_private17BulkAllocatorImplINS_18casacore_allocatorINS_14RecordFieldPtrINS_5ArrayIhEEEELm32EEEED2Ev@Base 3.2.1
 _ZN8casacore17Allocator_private17BulkAllocatorImplINS_18casacore_allocatorINS_14RecordFieldPtrINS_5ArrayIiEEEELm32EEEE10deallocateEPS6_m@Base 3.2.1
 _ZN8casacore17Allocator_private17BulkAllocatorImplINS_18casacore_allocatorINS_14RecordFieldPtrINS_5ArrayIiEEEELm32EEEE7destroyEPS6_m@Base 3.2.1
 _ZN8casacore17Allocator_private17BulkAllocatorImplINS_18casacore_allocatorINS_14RecordFieldPtrINS_5ArrayIiEEEELm32EEEE8allocateEmPKv@Base 3.2.1
 _ZN8casacore17Allocator_private17BulkAllocatorImplINS_18casacore_allocatorINS_14RecordFieldPtrINS_5ArrayIiEEEELm32EEEE9allocatorE@Base 3.2.1
 _ZN8casacore17Allocator_private17BulkAllocatorImplINS_18casacore_allocatorINS_14RecordFieldPtrINS_5ArrayIiEEEELm32EEEE9constructEPS6_m@Base 3.2.1
 _ZN8casacore17Allocator_private17BulkAllocatorImplINS_18casacore_allocatorINS_14RecordFieldPtrINS_5ArrayIiEEEELm32EEEE9constructEPS6_mPKS6_@Base 3.2.1
 _ZN8casacore17Allocator_private17BulkAllocatorImplINS_18casacore_allocatorINS_14RecordFieldPtrINS_5ArrayIiEEEELm32EEEE9constructEPS6_mRKS6_@Base 3.2.1
 _ZN8casacore17Allocator_private17BulkAllocatorImplINS_18casacore_allocatorINS_14RecordFieldPtrINS_5ArrayIiEEEELm32EEEED0Ev@Base 3.2.1
 _ZN8casacore17Allocator_private17BulkAllocatorImplINS_18casacore_allocatorINS_14RecordFieldPtrINS_5ArrayIiEEEELm32EEEED1Ev@Base 3.2.1
 _ZN8casacore17Allocator_private17BulkAllocatorImplINS_18casacore_allocatorINS_14RecordFieldPtrINS_5ArrayIiEEEELm32EEEED2Ev@Base 3.2.1
 _ZN8casacore17Allocator_private17BulkAllocatorImplINS_18casacore_allocatorINS_14RecordFieldPtrINS_5ArrayIsEEEELm32EEEE10deallocateEPS6_m@Base 3.2.1
 _ZN8casacore17Allocator_private17BulkAllocatorImplINS_18casacore_allocatorINS_14RecordFieldPtrINS_5ArrayIsEEEELm32EEEE7destroyEPS6_m@Base 3.2.1
 _ZN8casacore17Allocator_private17BulkAllocatorImplINS_18casacore_allocatorINS_14RecordFieldPtrINS_5ArrayIsEEEELm32EEEE8allocateEmPKv@Base 3.2.1
 _ZN8casacore17Allocator_private17BulkAllocatorImplINS_18casacore_allocatorINS_14RecordFieldPtrINS_5ArrayIsEEEELm32EEEE9allocatorE@Base 3.2.1
 _ZN8casacore17Allocator_private17BulkAllocatorImplINS_18casacore_allocatorINS_14RecordFieldPtrINS_5ArrayIsEEEELm32EEEE9constructEPS6_m@Base 3.2.1
 _ZN8casacore17Allocator_private17BulkAllocatorImplINS_18casacore_allocatorINS_14RecordFieldPtrINS_5ArrayIsEEEELm32EEEE9constructEPS6_mPKS6_@Base 3.2.1
 _ZN8casacore17Allocator_private17BulkAllocatorImplINS_18casacore_allocatorINS_14RecordFieldPtrINS_5ArrayIsEEEELm32EEEE9constructEPS6_mRKS6_@Base 3.2.1
 _ZN8casacore17Allocator_private17BulkAllocatorImplINS_18casacore_allocatorINS_14RecordFieldPtrINS_5ArrayIsEEEELm32EEEED0Ev@Base 3.2.1
 _ZN8casacore17Allocator_private17BulkAllocatorImplINS_18casacore_allocatorINS_14RecordFieldPtrINS_5ArrayIsEEEELm32EEEED1Ev@Base 3.2.1
 _ZN8casacore17Allocator_private17BulkAllocatorImplINS_18casacore_allocatorINS_14RecordFieldPtrINS_5ArrayIsEEEELm32EEEED2Ev@Base 3.2.1
 _ZN8casacore17Allocator_private17BulkAllocatorImplINS_18casacore_allocatorINS_14RecordFieldPtrINS_6StringEEELm32EEEE10deallocateEPS5_m@Base 3.2.1
 _ZN8casacore17Allocator_private17BulkAllocatorImplINS_18casacore_allocatorINS_14RecordFieldPtrINS_6StringEEELm32EEEE7destroyEPS5_m@Base 3.2.1
 _ZN8casacore17Allocator_private17BulkAllocatorImplINS_18casacore_allocatorINS_14RecordFieldPtrINS_6StringEEELm32EEEE8allocateEmPKv@Base 3.2.1
 _ZN8casacore17Allocator_private17BulkAllocatorImplINS_18casacore_allocatorINS_14RecordFieldPtrINS_6StringEEELm32EEEE9allocatorE@Base 3.2.1
 _ZN8casacore17Allocator_private17BulkAllocatorImplINS_18casacore_allocatorINS_14RecordFieldPtrINS_6StringEEELm32EEEE9constructEPS5_m@Base 3.2.1
 _ZN8casacore17Allocator_private17BulkAllocatorImplINS_18casacore_allocatorINS_14RecordFieldPtrINS_6StringEEELm32EEEE9constructEPS5_mPKS5_@Base 3.2.1
 _ZN8casacore17Allocator_private17BulkAllocatorImplINS_18casacore_allocatorINS_14RecordFieldPtrINS_6StringEEELm32EEEE9constructEPS5_mRKS5_@Base 3.2.1
 _ZN8casacore17Allocator_private17BulkAllocatorImplINS_18casacore_allocatorINS_14RecordFieldPtrINS_6StringEEELm32EEEED0Ev@Base 3.2.1
 _ZN8casacore17Allocator_private17BulkAllocatorImplINS_18casacore_allocatorINS_14RecordFieldPtrINS_6StringEEELm32EEEED1Ev@Base 3.2.1
 _ZN8casacore17Allocator_private17BulkAllocatorImplINS_18casacore_allocatorINS_14RecordFieldPtrINS_6StringEEELm32EEEED2Ev@Base 3.2.1
 _ZN8casacore17Allocator_private17BulkAllocatorImplINS_18casacore_allocatorINS_14RecordFieldPtrISt7complexIdEEELm32EEEE10deallocateEPS6_m@Base 3.2.1
 _ZN8casacore17Allocator_private17BulkAllocatorImplINS_18casacore_allocatorINS_14RecordFieldPtrISt7complexIdEEELm32EEEE7destroyEPS6_m@Base 3.2.1
 _ZN8casacore17Allocator_private17BulkAllocatorImplINS_18casacore_allocatorINS_14RecordFieldPtrISt7complexIdEEELm32EEEE8allocateEmPKv@Base 3.2.1
 _ZN8casacore17Allocator_private17BulkAllocatorImplINS_18casacore_allocatorINS_14RecordFieldPtrISt7complexIdEEELm32EEEE9allocatorE@Base 3.2.1
 _ZN8casacore17Allocator_private17BulkAllocatorImplINS_18casacore_allocatorINS_14RecordFieldPtrISt7complexIdEEELm32EEEE9constructEPS6_m@Base 3.2.1
 _ZN8casacore17Allocator_private17BulkAllocatorImplINS_18casacore_allocatorINS_14RecordFieldPtrISt7complexIdEEELm32EEEE9constructEPS6_mPKS6_@Base 3.2.1
 _ZN8casacore17Allocator_private17BulkAllocatorImplINS_18casacore_allocatorINS_14RecordFieldPtrISt7complexIdEEELm32EEEE9constructEPS6_mRKS6_@Base 3.2.1
 _ZN8casacore17Allocator_private17BulkAllocatorImplINS_18casacore_allocatorINS_14RecordFieldPtrISt7complexIdEEELm32EEEED0Ev@Base 3.2.1
 _ZN8casacore17Allocator_private17BulkAllocatorImplINS_18casacore_allocatorINS_14RecordFieldPtrISt7complexIdEEELm32EEEED1Ev@Base 3.2.1
 _ZN8casacore17Allocator_private17BulkAllocatorImplINS_18casacore_allocatorINS_14RecordFieldPtrISt7complexIdEEELm32EEEED2Ev@Base 3.2.1
 _ZN8casacore17Allocator_private17BulkAllocatorImplINS_18casacore_allocatorINS_14RecordFieldPtrISt7complexIfEEELm32EEEE10deallocateEPS6_m@Base 3.2.1
 _ZN8casacore17Allocator_private17BulkAllocatorImplINS_18casacore_allocatorINS_14RecordFieldPtrISt7complexIfEEELm32EEEE7destroyEPS6_m@Base 3.2.1
 _ZN8casacore17Allocator_private17BulkAllocatorImplINS_18casacore_allocatorINS_14RecordFieldPtrISt7complexIfEEELm32EEEE8allocateEmPKv@Base 3.2.1
 _ZN8casacore17Allocator_private17BulkAllocatorImplINS_18casacore_allocatorINS_14RecordFieldPtrISt7complexIfEEELm32EEEE9allocatorE@Base 3.2.1
 _ZN8casacore17Allocator_private17BulkAllocatorImplINS_18casacore_allocatorINS_14RecordFieldPtrISt7complexIfEEELm32EEEE9constructEPS6_m@Base 3.2.1
 _ZN8casacore17Allocator_private17BulkAllocatorImplINS_18casacore_allocatorINS_14RecordFieldPtrISt7complexIfEEELm32EEEE9constructEPS6_mPKS6_@Base 3.2.1
 _ZN8casacore17Allocator_private17BulkAllocatorImplINS_18casacore_allocatorINS_14RecordFieldPtrISt7complexIfEEELm32EEEE9constructEPS6_mRKS6_@Base 3.2.1
 _ZN8casacore17Allocator_private17BulkAllocatorImplINS_18casacore_allocatorINS_14RecordFieldPtrISt7complexIfEEELm32EEEED0Ev@Base 3.2.1
 _ZN8casacore17Allocator_private17BulkAllocatorImplINS_18casacore_allocatorINS_14RecordFieldPtrISt7complexIfEEELm32EEEED1Ev@Base 3.2.1
 _ZN8casacore17Allocator_private17BulkAllocatorImplINS_18casacore_allocatorINS_14RecordFieldPtrISt7complexIfEEELm32EEEED2Ev@Base 3.2.1
 _ZN8casacore17Allocator_private17BulkAllocatorImplINS_18casacore_allocatorINS_14RecordFieldPtrIbEELm32EEEE10deallocateEPS4_m@Base 3.2.1
 _ZN8casacore17Allocator_private17BulkAllocatorImplINS_18casacore_allocatorINS_14RecordFieldPtrIbEELm32EEEE7destroyEPS4_m@Base 3.2.1
 _ZN8casacore17Allocator_private17BulkAllocatorImplINS_18casacore_allocatorINS_14RecordFieldPtrIbEELm32EEEE8allocateEmPKv@Base 3.2.1
 _ZN8casacore17Allocator_private17BulkAllocatorImplINS_18casacore_allocatorINS_14RecordFieldPtrIbEELm32EEEE9allocatorE@Base 3.2.1
 _ZN8casacore17Allocator_private17BulkAllocatorImplINS_18casacore_allocatorINS_14RecordFieldPtrIbEELm32EEEE9constructEPS4_m@Base 3.2.1
 _ZN8casacore17Allocator_private17BulkAllocatorImplINS_18casacore_allocatorINS_14RecordFieldPtrIbEELm32EEEE9constructEPS4_mPKS4_@Base 3.2.1
 _ZN8casacore17Allocator_private17BulkAllocatorImplINS_18casacore_allocatorINS_14RecordFieldPtrIbEELm32EEEE9constructEPS4_mRKS4_@Base 3.2.1
 _ZN8casacore17Allocator_private17BulkAllocatorImplINS_18casacore_allocatorINS_14RecordFieldPtrIbEELm32EEEED0Ev@Base 3.2.1
 _ZN8casacore17Allocator_private17BulkAllocatorImplINS_18casacore_allocatorINS_14RecordFieldPtrIbEELm32EEEED1Ev@Base 3.2.1
 _ZN8casacore17Allocator_private17BulkAllocatorImplINS_18casacore_allocatorINS_14RecordFieldPtrIbEELm32EEEED2Ev@Base 3.2.1
 _ZN8casacore17Allocator_private17BulkAllocatorImplINS_18casacore_allocatorINS_14RecordFieldPtrIdEELm32EEEE10deallocateEPS4_m@Base 3.2.1
 _ZN8casacore17Allocator_private17BulkAllocatorImplINS_18casacore_allocatorINS_14RecordFieldPtrIdEELm32EEEE7destroyEPS4_m@Base 3.2.1
 _ZN8casacore17Allocator_private17BulkAllocatorImplINS_18casacore_allocatorINS_14RecordFieldPtrIdEELm32EEEE8allocateEmPKv@Base 3.2.1
 _ZN8casacore17Allocator_private17BulkAllocatorImplINS_18casacore_allocatorINS_14RecordFieldPtrIdEELm32EEEE9allocatorE@Base 3.2.1
 _ZN8casacore17Allocator_private17BulkAllocatorImplINS_18casacore_allocatorINS_14RecordFieldPtrIdEELm32EEEE9constructEPS4_m@Base 3.2.1
 _ZN8casacore17Allocator_private17BulkAllocatorImplINS_18casacore_allocatorINS_14RecordFieldPtrIdEELm32EEEE9constructEPS4_mPKS4_@Base 3.2.1
 _ZN8casacore17Allocator_private17BulkAllocatorImplINS_18casacore_allocatorINS_14RecordFieldPtrIdEELm32EEEE9constructEPS4_mRKS4_@Base 3.2.1
 _ZN8casacore17Allocator_private17BulkAllocatorImplINS_18casacore_allocatorINS_14RecordFieldPtrIdEELm32EEEED0Ev@Base 3.2.1
 _ZN8casacore17Allocator_private17BulkAllocatorImplINS_18casacore_allocatorINS_14RecordFieldPtrIdEELm32EEEED1Ev@Base 3.2.1
 _ZN8casacore17Allocator_private17BulkAllocatorImplINS_18casacore_allocatorINS_14RecordFieldPtrIdEELm32EEEED2Ev@Base 3.2.1
 _ZN8casacore17Allocator_private17BulkAllocatorImplINS_18casacore_allocatorINS_14RecordFieldPtrIfEELm32EEEE10deallocateEPS4_m@Base 3.2.1
 _ZN8casacore17Allocator_private17BulkAllocatorImplINS_18casacore_allocatorINS_14RecordFieldPtrIfEELm32EEEE7destroyEPS4_m@Base 3.2.1
 _ZN8casacore17Allocator_private17BulkAllocatorImplINS_18casacore_allocatorINS_14RecordFieldPtrIfEELm32EEEE8allocateEmPKv@Base 3.2.1
 _ZN8casacore17Allocator_private17BulkAllocatorImplINS_18casacore_allocatorINS_14RecordFieldPtrIfEELm32EEEE9allocatorE@Base 3.2.1
 _ZN8casacore17Allocator_private17BulkAllocatorImplINS_18casacore_allocatorINS_14RecordFieldPtrIfEELm32EEEE9constructEPS4_m@Base 3.2.1
 _ZN8casacore17Allocator_private17BulkAllocatorImplINS_18casacore_allocatorINS_14RecordFieldPtrIfEELm32EEEE9constructEPS4_mPKS4_@Base 3.2.1
 _ZN8casacore17Allocator_private17BulkAllocatorImplINS_18casacore_allocatorINS_14RecordFieldPtrIfEELm32EEEE9constructEPS4_mRKS4_@Base 3.2.1
 _ZN8casacore17Allocator_private17BulkAllocatorImplINS_18casacore_allocatorINS_14RecordFieldPtrIfEELm32EEEED0Ev@Base 3.2.1
 _ZN8casacore17Allocator_private17BulkAllocatorImplINS_18casacore_allocatorINS_14RecordFieldPtrIfEELm32EEEED1Ev@Base 3.2.1
 _ZN8casacore17Allocator_private17BulkAllocatorImplINS_18casacore_allocatorINS_14RecordFieldPtrIfEELm32EEEED2Ev@Base 3.2.1
 _ZN8casacore17Allocator_private17BulkAllocatorImplINS_18casacore_allocatorINS_14RecordFieldPtrIhEELm32EEEE10deallocateEPS4_m@Base 3.2.1
 _ZN8casacore17Allocator_private17BulkAllocatorImplINS_18casacore_allocatorINS_14RecordFieldPtrIhEELm32EEEE7destroyEPS4_m@Base 3.2.1
 _ZN8casacore17Allocator_private17BulkAllocatorImplINS_18casacore_allocatorINS_14RecordFieldPtrIhEELm32EEEE8allocateEmPKv@Base 3.2.1
 _ZN8casacore17Allocator_private17BulkAllocatorImplINS_18casacore_allocatorINS_14RecordFieldPtrIhEELm32EEEE9allocatorE@Base 3.2.1
 _ZN8casacore17Allocator_private17BulkAllocatorImplINS_18casacore_allocatorINS_14RecordFieldPtrIhEELm32EEEE9constructEPS4_m@Base 3.2.1
 _ZN8casacore17Allocator_private17BulkAllocatorImplINS_18casacore_allocatorINS_14RecordFieldPtrIhEELm32EEEE9constructEPS4_mPKS4_@Base 3.2.1
 _ZN8casacore17Allocator_private17BulkAllocatorImplINS_18casacore_allocatorINS_14RecordFieldPtrIhEELm32EEEE9constructEPS4_mRKS4_@Base 3.2.1
 _ZN8casacore17Allocator_private17BulkAllocatorImplINS_18casacore_allocatorINS_14RecordFieldPtrIhEELm32EEEED0Ev@Base 3.2.1
 _ZN8casacore17Allocator_private17BulkAllocatorImplINS_18casacore_allocatorINS_14RecordFieldPtrIhEELm32EEEED1Ev@Base 3.2.1
 _ZN8casacore17Allocator_private17BulkAllocatorImplINS_18casacore_allocatorINS_14RecordFieldPtrIhEELm32EEEED2Ev@Base 3.2.1
 _ZN8casacore17Allocator_private17BulkAllocatorImplINS_18casacore_allocatorINS_14RecordFieldPtrIiEELm32EEEE10deallocateEPS4_m@Base 3.2.1
 _ZN8casacore17Allocator_private17BulkAllocatorImplINS_18casacore_allocatorINS_14RecordFieldPtrIiEELm32EEEE7destroyEPS4_m@Base 3.2.1
 _ZN8casacore17Allocator_private17BulkAllocatorImplINS_18casacore_allocatorINS_14RecordFieldPtrIiEELm32EEEE8allocateEmPKv@Base 3.2.1
 _ZN8casacore17Allocator_private17BulkAllocatorImplINS_18casacore_allocatorINS_14RecordFieldPtrIiEELm32EEEE9allocatorE@Base 3.2.1
 _ZN8casacore17Allocator_private17BulkAllocatorImplINS_18casacore_allocatorINS_14RecordFieldPtrIiEELm32EEEE9constructEPS4_m@Base 3.2.1
 _ZN8casacore17Allocator_private17BulkAllocatorImplINS_18casacore_allocatorINS_14RecordFieldPtrIiEELm32EEEE9constructEPS4_mPKS4_@Base 3.2.1
 _ZN8casacore17Allocator_private17BulkAllocatorImplINS_18casacore_allocatorINS_14RecordFieldPtrIiEELm32EEEE9constructEPS4_mRKS4_@Base 3.2.1
 _ZN8casacore17Allocator_private17BulkAllocatorImplINS_18casacore_allocatorINS_14RecordFieldPtrIiEELm32EEEED0Ev@Base 3.2.1
 _ZN8casacore17Allocator_private17BulkAllocatorImplINS_18casacore_allocatorINS_14RecordFieldPtrIiEELm32EEEED1Ev@Base 3.2.1
 _ZN8casacore17Allocator_private17BulkAllocatorImplINS_18casacore_allocatorINS_14RecordFieldPtrIiEELm32EEEED2Ev@Base 3.2.1
 _ZN8casacore17Allocator_private17BulkAllocatorImplINS_18casacore_allocatorINS_14RecordFieldPtrIsEELm32EEEE10deallocateEPS4_m@Base 3.2.1
 _ZN8casacore17Allocator_private17BulkAllocatorImplINS_18casacore_allocatorINS_14RecordFieldPtrIsEELm32EEEE7destroyEPS4_m@Base 3.2.1
 _ZN8casacore17Allocator_private17BulkAllocatorImplINS_18casacore_allocatorINS_14RecordFieldPtrIsEELm32EEEE8allocateEmPKv@Base 3.2.1
 _ZN8casacore17Allocator_private17BulkAllocatorImplINS_18casacore_allocatorINS_14RecordFieldPtrIsEELm32EEEE9allocatorE@Base 3.2.1
 _ZN8casacore17Allocator_private17BulkAllocatorImplINS_18casacore_allocatorINS_14RecordFieldPtrIsEELm32EEEE9constructEPS4_m@Base 3.2.1
 _ZN8casacore17Allocator_private17BulkAllocatorImplINS_18casacore_allocatorINS_14RecordFieldPtrIsEELm32EEEE9constructEPS4_mPKS4_@Base 3.2.1
 _ZN8casacore17Allocator_private17BulkAllocatorImplINS_18casacore_allocatorINS_14RecordFieldPtrIsEELm32EEEE9constructEPS4_mRKS4_@Base 3.2.1
 _ZN8casacore17Allocator_private17BulkAllocatorImplINS_18casacore_allocatorINS_14RecordFieldPtrIsEELm32EEEED0Ev@Base 3.2.1
 _ZN8casacore17Allocator_private17BulkAllocatorImplINS_18casacore_allocatorINS_14RecordFieldPtrIsEELm32EEEED1Ev@Base 3.2.1
 _ZN8casacore17Allocator_private17BulkAllocatorImplINS_18casacore_allocatorINS_14RecordFieldPtrIsEELm32EEEED2Ev@Base 3.2.1
 _ZN8casacore17Allocator_private17BulkAllocatorImplINS_18casacore_allocatorINS_16RORecordFieldPtrINS_5ArrayINS_6StringEEEEELm32EEEE10deallocateEPS7_m@Base 3.2.1
 _ZN8casacore17Allocator_private17BulkAllocatorImplINS_18casacore_allocatorINS_16RORecordFieldPtrINS_5ArrayINS_6StringEEEEELm32EEEE7destroyEPS7_m@Base 3.2.1
 _ZN8casacore17Allocator_private17BulkAllocatorImplINS_18casacore_allocatorINS_16RORecordFieldPtrINS_5ArrayINS_6StringEEEEELm32EEEE8allocateEmPKv@Base 3.2.1
 _ZN8casacore17Allocator_private17BulkAllocatorImplINS_18casacore_allocatorINS_16RORecordFieldPtrINS_5ArrayINS_6StringEEEEELm32EEEE9allocatorE@Base 3.2.1
 _ZN8casacore17Allocator_private17BulkAllocatorImplINS_18casacore_allocatorINS_16RORecordFieldPtrINS_5ArrayINS_6StringEEEEELm32EEEE9constructEPS7_m@Base 3.2.1
 _ZN8casacore17Allocator_private17BulkAllocatorImplINS_18casacore_allocatorINS_16RORecordFieldPtrINS_5ArrayINS_6StringEEEEELm32EEEE9constructEPS7_mPKS7_@Base 3.2.1
 _ZN8casacore17Allocator_private17BulkAllocatorImplINS_18casacore_allocatorINS_16RORecordFieldPtrINS_5ArrayINS_6StringEEEEELm32EEEE9constructEPS7_mRKS7_@Base 3.2.1
 _ZN8casacore17Allocator_private17BulkAllocatorImplINS_18casacore_allocatorINS_16RORecordFieldPtrINS_5ArrayINS_6StringEEEEELm32EEEED0Ev@Base 3.2.1
 _ZN8casacore17Allocator_private17BulkAllocatorImplINS_18casacore_allocatorINS_16RORecordFieldPtrINS_5ArrayINS_6StringEEEEELm32EEEED1Ev@Base 3.2.1
 _ZN8casacore17Allocator_private17BulkAllocatorImplINS_18casacore_allocatorINS_16RORecordFieldPtrINS_5ArrayINS_6StringEEEEELm32EEEED2Ev@Base 3.2.1
 _ZN8casacore17Allocator_private17BulkAllocatorImplINS_18casacore_allocatorINS_16RORecordFieldPtrINS_5ArrayISt7complexIdEEEEELm32EEEE10deallocateEPS8_m@Base 3.2.1
 _ZN8casacore17Allocator_private17BulkAllocatorImplINS_18casacore_allocatorINS_16RORecordFieldPtrINS_5ArrayISt7complexIdEEEEELm32EEEE7destroyEPS8_m@Base 3.2.1
 _ZN8casacore17Allocator_private17BulkAllocatorImplINS_18casacore_allocatorINS_16RORecordFieldPtrINS_5ArrayISt7complexIdEEEEELm32EEEE8allocateEmPKv@Base 3.2.1
 _ZN8casacore17Allocator_private17BulkAllocatorImplINS_18casacore_allocatorINS_16RORecordFieldPtrINS_5ArrayISt7complexIdEEEEELm32EEEE9allocatorE@Base 3.2.1
 _ZN8casacore17Allocator_private17BulkAllocatorImplINS_18casacore_allocatorINS_16RORecordFieldPtrINS_5ArrayISt7complexIdEEEEELm32EEEE9constructEPS8_m@Base 3.2.1
 _ZN8casacore17Allocator_private17BulkAllocatorImplINS_18casacore_allocatorINS_16RORecordFieldPtrINS_5ArrayISt7complexIdEEEEELm32EEEE9constructEPS8_mPKS8_@Base 3.2.1
 _ZN8casacore17Allocator_private17BulkAllocatorImplINS_18casacore_allocatorINS_16RORecordFieldPtrINS_5ArrayISt7complexIdEEEEELm32EEEE9constructEPS8_mRKS8_@Base 3.2.1
 _ZN8casacore17Allocator_private17BulkAllocatorImplINS_18casacore_allocatorINS_16RORecordFieldPtrINS_5ArrayISt7complexIdEEEEELm32EEEED0Ev@Base 3.2.1
 _ZN8casacore17Allocator_private17BulkAllocatorImplINS_18casacore_allocatorINS_16RORecordFieldPtrINS_5ArrayISt7complexIdEEEEELm32EEEED1Ev@Base 3.2.1
 _ZN8casacore17Allocator_private17BulkAllocatorImplINS_18casacore_allocatorINS_16RORecordFieldPtrINS_5ArrayISt7complexIdEEEEELm32EEEED2Ev@Base 3.2.1
 _ZN8casacore17Allocator_private17BulkAllocatorImplINS_18casacore_allocatorINS_16RORecordFieldPtrINS_5ArrayISt7complexIfEEEEELm32EEEE10deallocateEPS8_m@Base 3.2.1
 _ZN8casacore17Allocator_private17BulkAllocatorImplINS_18casacore_allocatorINS_16RORecordFieldPtrINS_5ArrayISt7complexIfEEEEELm32EEEE7destroyEPS8_m@Base 3.2.1
 _ZN8casacore17Allocator_private17BulkAllocatorImplINS_18casacore_allocatorINS_16RORecordFieldPtrINS_5ArrayISt7complexIfEEEEELm32EEEE8allocateEmPKv@Base 3.2.1
 _ZN8casacore17Allocator_private17BulkAllocatorImplINS_18casacore_allocatorINS_16RORecordFieldPtrINS_5ArrayISt7complexIfEEEEELm32EEEE9allocatorE@Base 3.2.1
 _ZN8casacore17Allocator_private17BulkAllocatorImplINS_18casacore_allocatorINS_16RORecordFieldPtrINS_5ArrayISt7complexIfEEEEELm32EEEE9constructEPS8_m@Base 3.2.1
 _ZN8casacore17Allocator_private17BulkAllocatorImplINS_18casacore_allocatorINS_16RORecordFieldPtrINS_5ArrayISt7complexIfEEEEELm32EEEE9constructEPS8_mPKS8_@Base 3.2.1
 _ZN8casacore17Allocator_private17BulkAllocatorImplINS_18casacore_allocatorINS_16RORecordFieldPtrINS_5ArrayISt7complexIfEEEEELm32EEEE9constructEPS8_mRKS8_@Base 3.2.1
 _ZN8casacore17Allocator_private17BulkAllocatorImplINS_18casacore_allocatorINS_16RORecordFieldPtrINS_5ArrayISt7complexIfEEEEELm32EEEED0Ev@Base 3.2.1
 _ZN8casacore17Allocator_private17BulkAllocatorImplINS_18casacore_allocatorINS_16RORecordFieldPtrINS_5ArrayISt7complexIfEEEEELm32EEEED1Ev@Base 3.2.1
 _ZN8casacore17Allocator_private17BulkAllocatorImplINS_18casacore_allocatorINS_16RORecordFieldPtrINS_5ArrayISt7complexIfEEEEELm32EEEED2Ev@Base 3.2.1
 _ZN8casacore17Allocator_private17BulkAllocatorImplINS_18casacore_allocatorINS_16RORecordFieldPtrINS_5ArrayIbEEEELm32EEEE10deallocateEPS6_m@Base 3.2.1
 _ZN8casacore17Allocator_private17BulkAllocatorImplINS_18casacore_allocatorINS_16RORecordFieldPtrINS_5ArrayIbEEEELm32EEEE7destroyEPS6_m@Base 3.2.1
 _ZN8casacore17Allocator_private17BulkAllocatorImplINS_18casacore_allocatorINS_16RORecordFieldPtrINS_5ArrayIbEEEELm32EEEE8allocateEmPKv@Base 3.2.1
 _ZN8casacore17Allocator_private17BulkAllocatorImplINS_18casacore_allocatorINS_16RORecordFieldPtrINS_5ArrayIbEEEELm32EEEE9allocatorE@Base 3.2.1
 _ZN8casacore17Allocator_private17BulkAllocatorImplINS_18casacore_allocatorINS_16RORecordFieldPtrINS_5ArrayIbEEEELm32EEEE9constructEPS6_m@Base 3.2.1
 _ZN8casacore17Allocator_private17BulkAllocatorImplINS_18casacore_allocatorINS_16RORecordFieldPtrINS_5ArrayIbEEEELm32EEEE9constructEPS6_mPKS6_@Base 3.2.1
 _ZN8casacore17Allocator_private17BulkAllocatorImplINS_18casacore_allocatorINS_16RORecordFieldPtrINS_5ArrayIbEEEELm32EEEE9constructEPS6_mRKS6_@Base 3.2.1
 _ZN8casacore17Allocator_private17BulkAllocatorImplINS_18casacore_allocatorINS_16RORecordFieldPtrINS_5ArrayIbEEEELm32EEEED0Ev@Base 3.2.1
 _ZN8casacore17Allocator_private17BulkAllocatorImplINS_18casacore_allocatorINS_16RORecordFieldPtrINS_5ArrayIbEEEELm32EEEED1Ev@Base 3.2.1
 _ZN8casacore17Allocator_private17BulkAllocatorImplINS_18casacore_allocatorINS_16RORecordFieldPtrINS_5ArrayIbEEEELm32EEEED2Ev@Base 3.2.1
 _ZN8casacore17Allocator_private17BulkAllocatorImplINS_18casacore_allocatorINS_16RORecordFieldPtrINS_5ArrayIdEEEELm32EEEE10deallocateEPS6_m@Base 3.2.1
 _ZN8casacore17Allocator_private17BulkAllocatorImplINS_18casacore_allocatorINS_16RORecordFieldPtrINS_5ArrayIdEEEELm32EEEE7destroyEPS6_m@Base 3.2.1
 _ZN8casacore17Allocator_private17BulkAllocatorImplINS_18casacore_allocatorINS_16RORecordFieldPtrINS_5ArrayIdEEEELm32EEEE8allocateEmPKv@Base 3.2.1
 _ZN8casacore17Allocator_private17BulkAllocatorImplINS_18casacore_allocatorINS_16RORecordFieldPtrINS_5ArrayIdEEEELm32EEEE9allocatorE@Base 3.2.1
 _ZN8casacore17Allocator_private17BulkAllocatorImplINS_18casacore_allocatorINS_16RORecordFieldPtrINS_5ArrayIdEEEELm32EEEE9constructEPS6_m@Base 3.2.1
 _ZN8casacore17Allocator_private17BulkAllocatorImplINS_18casacore_allocatorINS_16RORecordFieldPtrINS_5ArrayIdEEEELm32EEEE9constructEPS6_mPKS6_@Base 3.2.1
 _ZN8casacore17Allocator_private17BulkAllocatorImplINS_18casacore_allocatorINS_16RORecordFieldPtrINS_5ArrayIdEEEELm32EEEE9constructEPS6_mRKS6_@Base 3.2.1
 _ZN8casacore17Allocator_private17BulkAllocatorImplINS_18casacore_allocatorINS_16RORecordFieldPtrINS_5ArrayIdEEEELm32EEEED0Ev@Base 3.2.1
 _ZN8casacore17Allocator_private17BulkAllocatorImplINS_18casacore_allocatorINS_16RORecordFieldPtrINS_5ArrayIdEEEELm32EEEED1Ev@Base 3.2.1
 _ZN8casacore17Allocator_private17BulkAllocatorImplINS_18casacore_allocatorINS_16RORecordFieldPtrINS_5ArrayIdEEEELm32EEEED2Ev@Base 3.2.1
 _ZN8casacore17Allocator_private17BulkAllocatorImplINS_18casacore_allocatorINS_16RORecordFieldPtrINS_5ArrayIfEEEELm32EEEE10deallocateEPS6_m@Base 3.2.1
 _ZN8casacore17Allocator_private17BulkAllocatorImplINS_18casacore_allocatorINS_16RORecordFieldPtrINS_5ArrayIfEEEELm32EEEE7destroyEPS6_m@Base 3.2.1
 _ZN8casacore17Allocator_private17BulkAllocatorImplINS_18casacore_allocatorINS_16RORecordFieldPtrINS_5ArrayIfEEEELm32EEEE8allocateEmPKv@Base 3.2.1
 _ZN8casacore17Allocator_private17BulkAllocatorImplINS_18casacore_allocatorINS_16RORecordFieldPtrINS_5ArrayIfEEEELm32EEEE9allocatorE@Base 3.2.1
 _ZN8casacore17Allocator_private17BulkAllocatorImplINS_18casacore_allocatorINS_16RORecordFieldPtrINS_5ArrayIfEEEELm32EEEE9constructEPS6_m@Base 3.2.1
 _ZN8casacore17Allocator_private17BulkAllocatorImplINS_18casacore_allocatorINS_16RORecordFieldPtrINS_5ArrayIfEEEELm32EEEE9constructEPS6_mPKS6_@Base 3.2.1
 _ZN8casacore17Allocator_private17BulkAllocatorImplINS_18casacore_allocatorINS_16RORecordFieldPtrINS_5ArrayIfEEEELm32EEEE9constructEPS6_mRKS6_@Base 3.2.1
 _ZN8casacore17Allocator_private17BulkAllocatorImplINS_18casacore_allocatorINS_16RORecordFieldPtrINS_5ArrayIfEEEELm32EEEED0Ev@Base 3.2.1
 _ZN8casacore17Allocator_private17BulkAllocatorImplINS_18casacore_allocatorINS_16RORecordFieldPtrINS_5ArrayIfEEEELm32EEEED1Ev@Base 3.2.1
 _ZN8casacore17Allocator_private17BulkAllocatorImplINS_18casacore_allocatorINS_16RORecordFieldPtrINS_5ArrayIfEEEELm32EEEED2Ev@Base 3.2.1
 _ZN8casacore17Allocator_private17BulkAllocatorImplINS_18casacore_allocatorINS_16RORecordFieldPtrINS_5ArrayIhEEEELm32EEEE10deallocateEPS6_m@Base 3.2.1
 _ZN8casacore17Allocator_private17BulkAllocatorImplINS_18casacore_allocatorINS_16RORecordFieldPtrINS_5ArrayIhEEEELm32EEEE7destroyEPS6_m@Base 3.2.1
 _ZN8casacore17Allocator_private17BulkAllocatorImplINS_18casacore_allocatorINS_16RORecordFieldPtrINS_5ArrayIhEEEELm32EEEE8allocateEmPKv@Base 3.2.1
 _ZN8casacore17Allocator_private17BulkAllocatorImplINS_18casacore_allocatorINS_16RORecordFieldPtrINS_5ArrayIhEEEELm32EEEE9allocatorE@Base 3.2.1
 _ZN8casacore17Allocator_private17BulkAllocatorImplINS_18casacore_allocatorINS_16RORecordFieldPtrINS_5ArrayIhEEEELm32EEEE9constructEPS6_m@Base 3.2.1
 _ZN8casacore17Allocator_private17BulkAllocatorImplINS_18casacore_allocatorINS_16RORecordFieldPtrINS_5ArrayIhEEEELm32EEEE9constructEPS6_mPKS6_@Base 3.2.1
 _ZN8casacore17Allocator_private17BulkAllocatorImplINS_18casacore_allocatorINS_16RORecordFieldPtrINS_5ArrayIhEEEELm32EEEE9constructEPS6_mRKS6_@Base 3.2.1
 _ZN8casacore17Allocator_private17BulkAllocatorImplINS_18casacore_allocatorINS_16RORecordFieldPtrINS_5ArrayIhEEEELm32EEEED0Ev@Base 3.2.1
 _ZN8casacore17Allocator_private17BulkAllocatorImplINS_18casacore_allocatorINS_16RORecordFieldPtrINS_5ArrayIhEEEELm32EEEED1Ev@Base 3.2.1
 _ZN8casacore17Allocator_private17BulkAllocatorImplINS_18casacore_allocatorINS_16RORecordFieldPtrINS_5ArrayIhEEEELm32EEEED2Ev@Base 3.2.1
 _ZN8casacore17Allocator_private17BulkAllocatorImplINS_18casacore_allocatorINS_16RORecordFieldPtrINS_5ArrayIiEEEELm32EEEE10deallocateEPS6_m@Base 3.2.1
 _ZN8casacore17Allocator_private17BulkAllocatorImplINS_18casacore_allocatorINS_16RORecordFieldPtrINS_5ArrayIiEEEELm32EEEE7destroyEPS6_m@Base 3.2.1
 _ZN8casacore17Allocator_private17BulkAllocatorImplINS_18casacore_allocatorINS_16RORecordFieldPtrINS_5ArrayIiEEEELm32EEEE8allocateEmPKv@Base 3.2.1
 _ZN8casacore17Allocator_private17BulkAllocatorImplINS_18casacore_allocatorINS_16RORecordFieldPtrINS_5ArrayIiEEEELm32EEEE9allocatorE@Base 3.2.1
 _ZN8casacore17Allocator_private17BulkAllocatorImplINS_18casacore_allocatorINS_16RORecordFieldPtrINS_5ArrayIiEEEELm32EEEE9constructEPS6_m@Base 3.2.1
 _ZN8casacore17Allocator_private17BulkAllocatorImplINS_18casacore_allocatorINS_16RORecordFieldPtrINS_5ArrayIiEEEELm32EEEE9constructEPS6_mPKS6_@Base 3.2.1
 _ZN8casacore17Allocator_private17BulkAllocatorImplINS_18casacore_allocatorINS_16RORecordFieldPtrINS_5ArrayIiEEEELm32EEEE9constructEPS6_mRKS6_@Base 3.2.1
 _ZN8casacore17Allocator_private17BulkAllocatorImplINS_18casacore_allocatorINS_16RORecordFieldPtrINS_5ArrayIiEEEELm32EEEED0Ev@Base 3.2.1
 _ZN8casacore17Allocator_private17BulkAllocatorImplINS_18casacore_allocatorINS_16RORecordFieldPtrINS_5ArrayIiEEEELm32EEEED1Ev@Base 3.2.1
 _ZN8casacore17Allocator_private17BulkAllocatorImplINS_18casacore_allocatorINS_16RORecordFieldPtrINS_5ArrayIiEEEELm32EEEED2Ev@Base 3.2.1
 _ZN8casacore17Allocator_private17BulkAllocatorImplINS_18casacore_allocatorINS_16RORecordFieldPtrINS_5ArrayIsEEEELm32EEEE10deallocateEPS6_m@Base 3.2.1
 _ZN8casacore17Allocator_private17BulkAllocatorImplINS_18casacore_allocatorINS_16RORecordFieldPtrINS_5ArrayIsEEEELm32EEEE7destroyEPS6_m@Base 3.2.1
 _ZN8casacore17Allocator_private17BulkAllocatorImplINS_18casacore_allocatorINS_16RORecordFieldPtrINS_5ArrayIsEEEELm32EEEE8allocateEmPKv@Base 3.2.1
 _ZN8casacore17Allocator_private17BulkAllocatorImplINS_18casacore_allocatorINS_16RORecordFieldPtrINS_5ArrayIsEEEELm32EEEE9allocatorE@Base 3.2.1
 _ZN8casacore17Allocator_private17BulkAllocatorImplINS_18casacore_allocatorINS_16RORecordFieldPtrINS_5ArrayIsEEEELm32EEEE9constructEPS6_m@Base 3.2.1
 _ZN8casacore17Allocator_private17BulkAllocatorImplINS_18casacore_allocatorINS_16RORecordFieldPtrINS_5ArrayIsEEEELm32EEEE9constructEPS6_mPKS6_@Base 3.2.1
 _ZN8casacore17Allocator_private17BulkAllocatorImplINS_18casacore_allocatorINS_16RORecordFieldPtrINS_5ArrayIsEEEELm32EEEE9constructEPS6_mRKS6_@Base 3.2.1
 _ZN8casacore17Allocator_private17BulkAllocatorImplINS_18casacore_allocatorINS_16RORecordFieldPtrINS_5ArrayIsEEEELm32EEEED0Ev@Base 3.2.1
 _ZN8casacore17Allocator_private17BulkAllocatorImplINS_18casacore_allocatorINS_16RORecordFieldPtrINS_5ArrayIsEEEELm32EEEED1Ev@Base 3.2.1
 _ZN8casacore17Allocator_private17BulkAllocatorImplINS_18casacore_allocatorINS_16RORecordFieldPtrINS_5ArrayIsEEEELm32EEEED2Ev@Base 3.2.1
 _ZN8casacore17Allocator_private17BulkAllocatorImplINS_18casacore_allocatorINS_16RORecordFieldPtrINS_6StringEEELm32EEEE10deallocateEPS5_m@Base 3.2.1
 _ZN8casacore17Allocator_private17BulkAllocatorImplINS_18casacore_allocatorINS_16RORecordFieldPtrINS_6StringEEELm32EEEE7destroyEPS5_m@Base 3.2.1
 _ZN8casacore17Allocator_private17BulkAllocatorImplINS_18casacore_allocatorINS_16RORecordFieldPtrINS_6StringEEELm32EEEE8allocateEmPKv@Base 3.2.1
 _ZN8casacore17Allocator_private17BulkAllocatorImplINS_18casacore_allocatorINS_16RORecordFieldPtrINS_6StringEEELm32EEEE9allocatorE@Base 3.2.1
 _ZN8casacore17Allocator_private17BulkAllocatorImplINS_18casacore_allocatorINS_16RORecordFieldPtrINS_6StringEEELm32EEEE9constructEPS5_m@Base 3.2.1
 _ZN8casacore17Allocator_private17BulkAllocatorImplINS_18casacore_allocatorINS_16RORecordFieldPtrINS_6StringEEELm32EEEE9constructEPS5_mPKS5_@Base 3.2.1
 _ZN8casacore17Allocator_private17BulkAllocatorImplINS_18casacore_allocatorINS_16RORecordFieldPtrINS_6StringEEELm32EEEE9constructEPS5_mRKS5_@Base 3.2.1
 _ZN8casacore17Allocator_private17BulkAllocatorImplINS_18casacore_allocatorINS_16RORecordFieldPtrINS_6StringEEELm32EEEED0Ev@Base 3.2.1
 _ZN8casacore17Allocator_private17BulkAllocatorImplINS_18casacore_allocatorINS_16RORecordFieldPtrINS_6StringEEELm32EEEED1Ev@Base 3.2.1
 _ZN8casacore17Allocator_private17BulkAllocatorImplINS_18casacore_allocatorINS_16RORecordFieldPtrINS_6StringEEELm32EEEED2Ev@Base 3.2.1
 _ZN8casacore17Allocator_private17BulkAllocatorImplINS_18casacore_allocatorINS_16RORecordFieldPtrISt7complexIdEEELm32EEEE10deallocateEPS6_m@Base 3.2.1
 _ZN8casacore17Allocator_private17BulkAllocatorImplINS_18casacore_allocatorINS_16RORecordFieldPtrISt7complexIdEEELm32EEEE7destroyEPS6_m@Base 3.2.1
 _ZN8casacore17Allocator_private17BulkAllocatorImplINS_18casacore_allocatorINS_16RORecordFieldPtrISt7complexIdEEELm32EEEE8allocateEmPKv@Base 3.2.1
 _ZN8casacore17Allocator_private17BulkAllocatorImplINS_18casacore_allocatorINS_16RORecordFieldPtrISt7complexIdEEELm32EEEE9allocatorE@Base 3.2.1
 _ZN8casacore17Allocator_private17BulkAllocatorImplINS_18casacore_allocatorINS_16RORecordFieldPtrISt7complexIdEEELm32EEEE9constructEPS6_m@Base 3.2.1
 _ZN8casacore17Allocator_private17BulkAllocatorImplINS_18casacore_allocatorINS_16RORecordFieldPtrISt7complexIdEEELm32EEEE9constructEPS6_mPKS6_@Base 3.2.1
 _ZN8casacore17Allocator_private17BulkAllocatorImplINS_18casacore_allocatorINS_16RORecordFieldPtrISt7complexIdEEELm32EEEE9constructEPS6_mRKS6_@Base 3.2.1
 _ZN8casacore17Allocator_private17BulkAllocatorImplINS_18casacore_allocatorINS_16RORecordFieldPtrISt7complexIdEEELm32EEEED0Ev@Base 3.2.1
 _ZN8casacore17Allocator_private17BulkAllocatorImplINS_18casacore_allocatorINS_16RORecordFieldPtrISt7complexIdEEELm32EEEED1Ev@Base 3.2.1
 _ZN8casacore17Allocator_private17BulkAllocatorImplINS_18casacore_allocatorINS_16RORecordFieldPtrISt7complexIdEEELm32EEEED2Ev@Base 3.2.1
 _ZN8casacore17Allocator_private17BulkAllocatorImplINS_18casacore_allocatorINS_16RORecordFieldPtrISt7complexIfEEELm32EEEE10deallocateEPS6_m@Base 3.2.1
 _ZN8casacore17Allocator_private17BulkAllocatorImplINS_18casacore_allocatorINS_16RORecordFieldPtrISt7complexIfEEELm32EEEE7destroyEPS6_m@Base 3.2.1
 _ZN8casacore17Allocator_private17BulkAllocatorImplINS_18casacore_allocatorINS_16RORecordFieldPtrISt7complexIfEEELm32EEEE8allocateEmPKv@Base 3.2.1
 _ZN8casacore17Allocator_private17BulkAllocatorImplINS_18casacore_allocatorINS_16RORecordFieldPtrISt7complexIfEEELm32EEEE9allocatorE@Base 3.2.1
 _ZN8casacore17Allocator_private17BulkAllocatorImplINS_18casacore_allocatorINS_16RORecordFieldPtrISt7complexIfEEELm32EEEE9constructEPS6_m@Base 3.2.1
 _ZN8casacore17Allocator_private17BulkAllocatorImplINS_18casacore_allocatorINS_16RORecordFieldPtrISt7complexIfEEELm32EEEE9constructEPS6_mPKS6_@Base 3.2.1
 _ZN8casacore17Allocator_private17BulkAllocatorImplINS_18casacore_allocatorINS_16RORecordFieldPtrISt7complexIfEEELm32EEEE9constructEPS6_mRKS6_@Base 3.2.1
 _ZN8casacore17Allocator_private17BulkAllocatorImplINS_18casacore_allocatorINS_16RORecordFieldPtrISt7complexIfEEELm32EEEED0Ev@Base 3.2.1
 _ZN8casacore17Allocator_private17BulkAllocatorImplINS_18casacore_allocatorINS_16RORecordFieldPtrISt7complexIfEEELm32EEEED1Ev@Base 3.2.1
 _ZN8casacore17Allocator_private17BulkAllocatorImplINS_18casacore_allocatorINS_16RORecordFieldPtrISt7complexIfEEELm32EEEED2Ev@Base 3.2.1
 _ZN8casacore17Allocator_private17BulkAllocatorImplINS_18casacore_allocatorINS_16RORecordFieldPtrIbEELm32EEEE10deallocateEPS4_m@Base 3.2.1
 _ZN8casacore17Allocator_private17BulkAllocatorImplINS_18casacore_allocatorINS_16RORecordFieldPtrIbEELm32EEEE7destroyEPS4_m@Base 3.2.1
 _ZN8casacore17Allocator_private17BulkAllocatorImplINS_18casacore_allocatorINS_16RORecordFieldPtrIbEELm32EEEE8allocateEmPKv@Base 3.2.1
 _ZN8casacore17Allocator_private17BulkAllocatorImplINS_18casacore_allocatorINS_16RORecordFieldPtrIbEELm32EEEE9allocatorE@Base 3.2.1
 _ZN8casacore17Allocator_private17BulkAllocatorImplINS_18casacore_allocatorINS_16RORecordFieldPtrIbEELm32EEEE9constructEPS4_m@Base 3.2.1
 _ZN8casacore17Allocator_private17BulkAllocatorImplINS_18casacore_allocatorINS_16RORecordFieldPtrIbEELm32EEEE9constructEPS4_mPKS4_@Base 3.2.1
 _ZN8casacore17Allocator_private17BulkAllocatorImplINS_18casacore_allocatorINS_16RORecordFieldPtrIbEELm32EEEE9constructEPS4_mRKS4_@Base 3.2.1
 _ZN8casacore17Allocator_private17BulkAllocatorImplINS_18casacore_allocatorINS_16RORecordFieldPtrIbEELm32EEEED0Ev@Base 3.2.1
 _ZN8casacore17Allocator_private17BulkAllocatorImplINS_18casacore_allocatorINS_16RORecordFieldPtrIbEELm32EEEED1Ev@Base 3.2.1
 _ZN8casacore17Allocator_private17BulkAllocatorImplINS_18casacore_allocatorINS_16RORecordFieldPtrIbEELm32EEEED2Ev@Base 3.2.1
 _ZN8casacore17Allocator_private17BulkAllocatorImplINS_18casacore_allocatorINS_16RORecordFieldPtrIdEELm32EEEE10deallocateEPS4_m@Base 3.2.1
 _ZN8casacore17Allocator_private17BulkAllocatorImplINS_18casacore_allocatorINS_16RORecordFieldPtrIdEELm32EEEE7destroyEPS4_m@Base 3.2.1
 _ZN8casacore17Allocator_private17BulkAllocatorImplINS_18casacore_allocatorINS_16RORecordFieldPtrIdEELm32EEEE8allocateEmPKv@Base 3.2.1
 _ZN8casacore17Allocator_private17BulkAllocatorImplINS_18casacore_allocatorINS_16RORecordFieldPtrIdEELm32EEEE9allocatorE@Base 3.2.1
 _ZN8casacore17Allocator_private17BulkAllocatorImplINS_18casacore_allocatorINS_16RORecordFieldPtrIdEELm32EEEE9constructEPS4_m@Base 3.2.1
 _ZN8casacore17Allocator_private17BulkAllocatorImplINS_18casacore_allocatorINS_16RORecordFieldPtrIdEELm32EEEE9constructEPS4_mPKS4_@Base 3.2.1
 _ZN8casacore17Allocator_private17BulkAllocatorImplINS_18casacore_allocatorINS_16RORecordFieldPtrIdEELm32EEEE9constructEPS4_mRKS4_@Base 3.2.1
 _ZN8casacore17Allocator_private17BulkAllocatorImplINS_18casacore_allocatorINS_16RORecordFieldPtrIdEELm32EEEED0Ev@Base 3.2.1
 _ZN8casacore17Allocator_private17BulkAllocatorImplINS_18casacore_allocatorINS_16RORecordFieldPtrIdEELm32EEEED1Ev@Base 3.2.1
 _ZN8casacore17Allocator_private17BulkAllocatorImplINS_18casacore_allocatorINS_16RORecordFieldPtrIdEELm32EEEED2Ev@Base 3.2.1
 _ZN8casacore17Allocator_private17BulkAllocatorImplINS_18casacore_allocatorINS_16RORecordFieldPtrIfEELm32EEEE10deallocateEPS4_m@Base 3.2.1
 _ZN8casacore17Allocator_private17BulkAllocatorImplINS_18casacore_allocatorINS_16RORecordFieldPtrIfEELm32EEEE7destroyEPS4_m@Base 3.2.1
 _ZN8casacore17Allocator_private17BulkAllocatorImplINS_18casacore_allocatorINS_16RORecordFieldPtrIfEELm32EEEE8allocateEmPKv@Base 3.2.1
 _ZN8casacore17Allocator_private17BulkAllocatorImplINS_18casacore_allocatorINS_16RORecordFieldPtrIfEELm32EEEE9allocatorE@Base 3.2.1
 _ZN8casacore17Allocator_private17BulkAllocatorImplINS_18casacore_allocatorINS_16RORecordFieldPtrIfEELm32EEEE9constructEPS4_m@Base 3.2.1
 _ZN8casacore17Allocator_private17BulkAllocatorImplINS_18casacore_allocatorINS_16RORecordFieldPtrIfEELm32EEEE9constructEPS4_mPKS4_@Base 3.2.1
 _ZN8casacore17Allocator_private17BulkAllocatorImplINS_18casacore_allocatorINS_16RORecordFieldPtrIfEELm32EEEE9constructEPS4_mRKS4_@Base 3.2.1
 _ZN8casacore17Allocator_private17BulkAllocatorImplINS_18casacore_allocatorINS_16RORecordFieldPtrIfEELm32EEEED0Ev@Base 3.2.1
 _ZN8casacore17Allocator_private17BulkAllocatorImplINS_18casacore_allocatorINS_16RORecordFieldPtrIfEELm32EEEED1Ev@Base 3.2.1
 _ZN8casacore17Allocator_private17BulkAllocatorImplINS_18casacore_allocatorINS_16RORecordFieldPtrIfEELm32EEEED2Ev@Base 3.2.1
 _ZN8casacore17Allocator_private17BulkAllocatorImplINS_18casacore_allocatorINS_16RORecordFieldPtrIhEELm32EEEE10deallocateEPS4_m@Base 3.2.1
 _ZN8casacore17Allocator_private17BulkAllocatorImplINS_18casacore_allocatorINS_16RORecordFieldPtrIhEELm32EEEE7destroyEPS4_m@Base 3.2.1
 _ZN8casacore17Allocator_private17BulkAllocatorImplINS_18casacore_allocatorINS_16RORecordFieldPtrIhEELm32EEEE8allocateEmPKv@Base 3.2.1
 _ZN8casacore17Allocator_private17BulkAllocatorImplINS_18casacore_allocatorINS_16RORecordFieldPtrIhEELm32EEEE9allocatorE@Base 3.2.1
 _ZN8casacore17Allocator_private17BulkAllocatorImplINS_18casacore_allocatorINS_16RORecordFieldPtrIhEELm32EEEE9constructEPS4_m@Base 3.2.1
 _ZN8casacore17Allocator_private17BulkAllocatorImplINS_18casacore_allocatorINS_16RORecordFieldPtrIhEELm32EEEE9constructEPS4_mPKS4_@Base 3.2.1
 _ZN8casacore17Allocator_private17BulkAllocatorImplINS_18casacore_allocatorINS_16RORecordFieldPtrIhEELm32EEEE9constructEPS4_mRKS4_@Base 3.2.1
 _ZN8casacore17Allocator_private17BulkAllocatorImplINS_18casacore_allocatorINS_16RORecordFieldPtrIhEELm32EEEED0Ev@Base 3.2.1
 _ZN8casacore17Allocator_private17BulkAllocatorImplINS_18casacore_allocatorINS_16RORecordFieldPtrIhEELm32EEEED1Ev@Base 3.2.1
 _ZN8casacore17Allocator_private17BulkAllocatorImplINS_18casacore_allocatorINS_16RORecordFieldPtrIhEELm32EEEED2Ev@Base 3.2.1
 _ZN8casacore17Allocator_private17BulkAllocatorImplINS_18casacore_allocatorINS_16RORecordFieldPtrIiEELm32EEEE10deallocateEPS4_m@Base 3.2.1
 _ZN8casacore17Allocator_private17BulkAllocatorImplINS_18casacore_allocatorINS_16RORecordFieldPtrIiEELm32EEEE7destroyEPS4_m@Base 3.2.1
 _ZN8casacore17Allocator_private17BulkAllocatorImplINS_18casacore_allocatorINS_16RORecordFieldPtrIiEELm32EEEE8allocateEmPKv@Base 3.2.1
 _ZN8casacore17Allocator_private17BulkAllocatorImplINS_18casacore_allocatorINS_16RORecordFieldPtrIiEELm32EEEE9allocatorE@Base 3.2.1
 _ZN8casacore17Allocator_private17BulkAllocatorImplINS_18casacore_allocatorINS_16RORecordFieldPtrIiEELm32EEEE9constructEPS4_m@Base 3.2.1
 _ZN8casacore17Allocator_private17BulkAllocatorImplINS_18casacore_allocatorINS_16RORecordFieldPtrIiEELm32EEEE9constructEPS4_mPKS4_@Base 3.2.1
 _ZN8casacore17Allocator_private17BulkAllocatorImplINS_18casacore_allocatorINS_16RORecordFieldPtrIiEELm32EEEE9constructEPS4_mRKS4_@Base 3.2.1
 _ZN8casacore17Allocator_private17BulkAllocatorImplINS_18casacore_allocatorINS_16RORecordFieldPtrIiEELm32EEEED0Ev@Base 3.2.1
 _ZN8casacore17Allocator_private17BulkAllocatorImplINS_18casacore_allocatorINS_16RORecordFieldPtrIiEELm32EEEED1Ev@Base 3.2.1
 _ZN8casacore17Allocator_private17BulkAllocatorImplINS_18casacore_allocatorINS_16RORecordFieldPtrIiEELm32EEEED2Ev@Base 3.2.1
 _ZN8casacore17Allocator_private17BulkAllocatorImplINS_18casacore_allocatorINS_16RORecordFieldPtrIsEELm32EEEE10deallocateEPS4_m@Base 3.2.1
 _ZN8casacore17Allocator_private17BulkAllocatorImplINS_18casacore_allocatorINS_16RORecordFieldPtrIsEELm32EEEE7destroyEPS4_m@Base 3.2.1
 _ZN8casacore17Allocator_private17BulkAllocatorImplINS_18casacore_allocatorINS_16RORecordFieldPtrIsEELm32EEEE8allocateEmPKv@Base 3.2.1
 _ZN8casacore17Allocator_private17BulkAllocatorImplINS_18casacore_allocatorINS_16RORecordFieldPtrIsEELm32EEEE9allocatorE@Base 3.2.1
 _ZN8casacore17Allocator_private17BulkAllocatorImplINS_18casacore_allocatorINS_16RORecordFieldPtrIsEELm32EEEE9constructEPS4_m@Base 3.2.1
 _ZN8casacore17Allocator_private17BulkAllocatorImplINS_18casacore_allocatorINS_16RORecordFieldPtrIsEELm32EEEE9constructEPS4_mPKS4_@Base 3.2.1
 _ZN8casacore17Allocator_private17BulkAllocatorImplINS_18casacore_allocatorINS_16RORecordFieldPtrIsEELm32EEEE9constructEPS4_mRKS4_@Base 3.2.1
 _ZN8casacore17Allocator_private17BulkAllocatorImplINS_18casacore_allocatorINS_16RORecordFieldPtrIsEELm32EEEED0Ev@Base 3.2.1
 _ZN8casacore17Allocator_private17BulkAllocatorImplINS_18casacore_allocatorINS_16RORecordFieldPtrIsEELm32EEEED1Ev@Base 3.2.1
 _ZN8casacore17Allocator_private17BulkAllocatorImplINS_18casacore_allocatorINS_16RORecordFieldPtrIsEELm32EEEED2Ev@Base 3.2.1
 _ZN8casacore17Allocator_private17BulkAllocatorImplINS_18casacore_allocatorINS_6MVTimeELm32EEEE10deallocateEPS3_m@Base 3.2.1
 _ZN8casacore17Allocator_private17BulkAllocatorImplINS_18casacore_allocatorINS_6MVTimeELm32EEEE7destroyEPS3_m@Base 3.2.1
 _ZN8casacore17Allocator_private17BulkAllocatorImplINS_18casacore_allocatorINS_6MVTimeELm32EEEE8allocateEmPKv@Base 3.2.1
 _ZN8casacore17Allocator_private17BulkAllocatorImplINS_18casacore_allocatorINS_6MVTimeELm32EEEE9allocatorE@Base 3.2.1
 _ZN8casacore17Allocator_private17BulkAllocatorImplINS_18casacore_allocatorINS_6MVTimeELm32EEEE9constructEPS3_m@Base 3.2.1
 _ZN8casacore17Allocator_private17BulkAllocatorImplINS_18casacore_allocatorINS_6MVTimeELm32EEEE9constructEPS3_mPKS3_@Base 3.2.1
 _ZN8casacore17Allocator_private17BulkAllocatorImplINS_18casacore_allocatorINS_6MVTimeELm32EEEE9constructEPS3_mRKS3_@Base 3.2.1
 _ZN8casacore17Allocator_private17BulkAllocatorImplINS_18casacore_allocatorINS_6MVTimeELm32EEEED0Ev@Base 3.2.1
 _ZN8casacore17Allocator_private17BulkAllocatorImplINS_18casacore_allocatorINS_6MVTimeELm32EEEED1Ev@Base 3.2.1
 _ZN8casacore17Allocator_private17BulkAllocatorImplINS_18casacore_allocatorINS_6MVTimeELm32EEEED2Ev@Base 3.2.1
 _ZN8casacore17Allocator_private17BulkAllocatorImplINS_18casacore_allocatorINS_6StringELm32EEEE10deallocateEPS3_m@Base 3.2.1
 _ZN8casacore17Allocator_private17BulkAllocatorImplINS_18casacore_allocatorINS_6StringELm32EEEE7destroyEPS3_m@Base 3.2.1
 _ZN8casacore17Allocator_private17BulkAllocatorImplINS_18casacore_allocatorINS_6StringELm32EEEE8allocateEmPKv@Base 3.2.1
 _ZN8casacore17Allocator_private17BulkAllocatorImplINS_18casacore_allocatorINS_6StringELm32EEEE9allocatorE@Base 3.2.1
 _ZN8casacore17Allocator_private17BulkAllocatorImplINS_18casacore_allocatorINS_6StringELm32EEEE9constructEPS3_m@Base 3.2.1
 _ZN8casacore17Allocator_private17BulkAllocatorImplINS_18casacore_allocatorINS_6StringELm32EEEE9constructEPS3_mPKS3_@Base 3.2.1
 _ZN8casacore17Allocator_private17BulkAllocatorImplINS_18casacore_allocatorINS_6StringELm32EEEE9constructEPS3_mRKS3_@Base 3.2.1
 _ZN8casacore17Allocator_private17BulkAllocatorImplINS_18casacore_allocatorINS_6StringELm32EEEED0Ev@Base 3.2.1
 _ZN8casacore17Allocator_private17BulkAllocatorImplINS_18casacore_allocatorINS_6StringELm32EEEED1Ev@Base 3.2.1
 _ZN8casacore17Allocator_private17BulkAllocatorImplINS_18casacore_allocatorINS_6StringELm32EEEED2Ev@Base 3.2.1
 _ZN8casacore17Allocator_private17BulkAllocatorImplINS_18casacore_allocatorIPNS_6SlicerELm32EEEE10deallocateEPS4_m@Base 3.2.1
 _ZN8casacore17Allocator_private17BulkAllocatorImplINS_18casacore_allocatorIPNS_6SlicerELm32EEEE7destroyEPS4_m@Base 3.2.1
 _ZN8casacore17Allocator_private17BulkAllocatorImplINS_18casacore_allocatorIPNS_6SlicerELm32EEEE8allocateEmPKv@Base 3.2.1
 _ZN8casacore17Allocator_private17BulkAllocatorImplINS_18casacore_allocatorIPNS_6SlicerELm32EEEE9allocatorE@Base 3.2.1
 _ZN8casacore17Allocator_private17BulkAllocatorImplINS_18casacore_allocatorIPNS_6SlicerELm32EEEE9constructEPS4_m@Base 3.2.1
 _ZN8casacore17Allocator_private17BulkAllocatorImplINS_18casacore_allocatorIPNS_6SlicerELm32EEEE9constructEPS4_mPKS4_@Base 3.2.1
 _ZN8casacore17Allocator_private17BulkAllocatorImplINS_18casacore_allocatorIPNS_6SlicerELm32EEEE9constructEPS4_mRKS4_@Base 3.2.1
 _ZN8casacore17Allocator_private17BulkAllocatorImplINS_18casacore_allocatorIPNS_6SlicerELm32EEEED0Ev@Base 3.2.1
 _ZN8casacore17Allocator_private17BulkAllocatorImplINS_18casacore_allocatorIPNS_6SlicerELm32EEEED1Ev@Base 3.2.1
 _ZN8casacore17Allocator_private17BulkAllocatorImplINS_18casacore_allocatorIPNS_6SlicerELm32EEEED2Ev@Base 3.2.1
 _ZN8casacore17Allocator_private17BulkAllocatorImplINS_18casacore_allocatorIPvLm32EEEE10deallocateEPS3_m@Base 3.2.1
 _ZN8casacore17Allocator_private17BulkAllocatorImplINS_18casacore_allocatorIPvLm32EEEE7destroyEPS3_m@Base 3.2.1
 _ZN8casacore17Allocator_private17BulkAllocatorImplINS_18casacore_allocatorIPvLm32EEEE8allocateEmPKv@Base 3.2.1
 _ZN8casacore17Allocator_private17BulkAllocatorImplINS_18casacore_allocatorIPvLm32EEEE9allocatorE@Base 3.2.1
 _ZN8casacore17Allocator_private17BulkAllocatorImplINS_18casacore_allocatorIPvLm32EEEE9constructEPS3_m@Base 3.2.1
 _ZN8casacore17Allocator_private17BulkAllocatorImplINS_18casacore_allocatorIPvLm32EEEE9constructEPS3_mPKS3_@Base 3.2.1
 _ZN8casacore17Allocator_private17BulkAllocatorImplINS_18casacore_allocatorIPvLm32EEEE9constructEPS3_mRKS3_@Base 3.2.1
 _ZN8casacore17Allocator_private17BulkAllocatorImplINS_18casacore_allocatorIPvLm32EEEED0Ev@Base 3.2.1
 _ZN8casacore17Allocator_private17BulkAllocatorImplINS_18casacore_allocatorIPvLm32EEEED1Ev@Base 3.2.1
 _ZN8casacore17Allocator_private17BulkAllocatorImplINS_18casacore_allocatorIPvLm32EEEED2Ev@Base 3.2.1
 _ZN8casacore17Allocator_private17BulkAllocatorImplINS_18casacore_allocatorIbLm32EEEE10deallocateEPbm@Base 3.2.1
 _ZN8casacore17Allocator_private17BulkAllocatorImplINS_18casacore_allocatorIbLm32EEEE7destroyEPbm@Base 3.2.1
 _ZN8casacore17Allocator_private17BulkAllocatorImplINS_18casacore_allocatorIbLm32EEEE8allocateEmPKv@Base 3.2.1
 _ZN8casacore17Allocator_private17BulkAllocatorImplINS_18casacore_allocatorIbLm32EEEE9allocatorE@Base 3.2.1
 _ZN8casacore17Allocator_private17BulkAllocatorImplINS_18casacore_allocatorIbLm32EEEE9constructEPbm@Base 3.2.1
 _ZN8casacore17Allocator_private17BulkAllocatorImplINS_18casacore_allocatorIbLm32EEEE9constructEPbmPKb@Base 3.2.1
 _ZN8casacore17Allocator_private17BulkAllocatorImplINS_18casacore_allocatorIbLm32EEEE9constructEPbmRKb@Base 3.2.1
 _ZN8casacore17Allocator_private17BulkAllocatorImplINS_18casacore_allocatorIbLm32EEEED0Ev@Base 3.2.1
 _ZN8casacore17Allocator_private17BulkAllocatorImplINS_18casacore_allocatorIbLm32EEEED1Ev@Base 3.2.1
 _ZN8casacore17Allocator_private17BulkAllocatorImplINS_18casacore_allocatorIbLm32EEEED2Ev@Base 3.2.1
 _ZN8casacore17Allocator_private17BulkAllocatorImplINS_18casacore_allocatorIcLm32EEEE10deallocateEPcm@Base 3.2.1
 _ZN8casacore17Allocator_private17BulkAllocatorImplINS_18casacore_allocatorIcLm32EEEE7destroyEPcm@Base 3.2.1
 _ZN8casacore17Allocator_private17BulkAllocatorImplINS_18casacore_allocatorIcLm32EEEE8allocateEmPKv@Base 3.2.1
 _ZN8casacore17Allocator_private17BulkAllocatorImplINS_18casacore_allocatorIcLm32EEEE9allocatorE@Base 3.2.1
 _ZN8casacore17Allocator_private17BulkAllocatorImplINS_18casacore_allocatorIcLm32EEEE9constructEPcm@Base 3.2.1
 _ZN8casacore17Allocator_private17BulkAllocatorImplINS_18casacore_allocatorIcLm32EEEE9constructEPcmPKc@Base 3.2.1
 _ZN8casacore17Allocator_private17BulkAllocatorImplINS_18casacore_allocatorIcLm32EEEE9constructEPcmRKc@Base 3.2.1
 _ZN8casacore17Allocator_private17BulkAllocatorImplINS_18casacore_allocatorIcLm32EEEED0Ev@Base 3.2.1
 _ZN8casacore17Allocator_private17BulkAllocatorImplINS_18casacore_allocatorIcLm32EEEED1Ev@Base 3.2.1
 _ZN8casacore17Allocator_private17BulkAllocatorImplINS_18casacore_allocatorIcLm32EEEED2Ev@Base 3.2.1
 _ZN8casacore17Allocator_private17BulkAllocatorImplINS_18casacore_allocatorIdLm32EEEE10deallocateEPdm@Base 3.2.1
 _ZN8casacore17Allocator_private17BulkAllocatorImplINS_18casacore_allocatorIdLm32EEEE7destroyEPdm@Base 3.2.1
 _ZN8casacore17Allocator_private17BulkAllocatorImplINS_18casacore_allocatorIdLm32EEEE8allocateEmPKv@Base 3.2.1
 _ZN8casacore17Allocator_private17BulkAllocatorImplINS_18casacore_allocatorIdLm32EEEE9allocatorE@Base 3.2.1
 _ZN8casacore17Allocator_private17BulkAllocatorImplINS_18casacore_allocatorIdLm32EEEE9constructEPdm@Base 3.2.1
 _ZN8casacore17Allocator_private17BulkAllocatorImplINS_18casacore_allocatorIdLm32EEEE9constructEPdmPKd@Base 3.2.1
 _ZN8casacore17Allocator_private17BulkAllocatorImplINS_18casacore_allocatorIdLm32EEEE9constructEPdmRKd@Base 3.2.1
 _ZN8casacore17Allocator_private17BulkAllocatorImplINS_18casacore_allocatorIdLm32EEEED0Ev@Base 3.2.1
 _ZN8casacore17Allocator_private17BulkAllocatorImplINS_18casacore_allocatorIdLm32EEEED1Ev@Base 3.2.1
 _ZN8casacore17Allocator_private17BulkAllocatorImplINS_18casacore_allocatorIdLm32EEEED2Ev@Base 3.2.1
 _ZN8casacore17Allocator_private17BulkAllocatorImplINS_18casacore_allocatorIhLm32EEEE10deallocateEPhm@Base 3.2.1
 _ZN8casacore17Allocator_private17BulkAllocatorImplINS_18casacore_allocatorIhLm32EEEE7destroyEPhm@Base 3.2.1
 _ZN8casacore17Allocator_private17BulkAllocatorImplINS_18casacore_allocatorIhLm32EEEE8allocateEmPKv@Base 3.2.1
 _ZN8casacore17Allocator_private17BulkAllocatorImplINS_18casacore_allocatorIhLm32EEEE9allocatorE@Base 3.2.1
 _ZN8casacore17Allocator_private17BulkAllocatorImplINS_18casacore_allocatorIhLm32EEEE9constructEPhm@Base 3.2.1
 _ZN8casacore17Allocator_private17BulkAllocatorImplINS_18casacore_allocatorIhLm32EEEE9constructEPhmPKh@Base 3.2.1
 _ZN8casacore17Allocator_private17BulkAllocatorImplINS_18casacore_allocatorIhLm32EEEE9constructEPhmRKh@Base 3.2.1
 _ZN8casacore17Allocator_private17BulkAllocatorImplINS_18casacore_allocatorIhLm32EEEED0Ev@Base 3.2.1
 _ZN8casacore17Allocator_private17BulkAllocatorImplINS_18casacore_allocatorIhLm32EEEED1Ev@Base 3.2.1
 _ZN8casacore17Allocator_private17BulkAllocatorImplINS_18casacore_allocatorIhLm32EEEED2Ev@Base 3.2.1
 _ZN8casacore17Allocator_private17BulkAllocatorImplINS_18casacore_allocatorIiLm32EEEE10deallocateEPim@Base 3.2.1
 _ZN8casacore17Allocator_private17BulkAllocatorImplINS_18casacore_allocatorIiLm32EEEE7destroyEPim@Base 3.2.1
 _ZN8casacore17Allocator_private17BulkAllocatorImplINS_18casacore_allocatorIiLm32EEEE8allocateEmPKv@Base 3.2.1
 _ZN8casacore17Allocator_private17BulkAllocatorImplINS_18casacore_allocatorIiLm32EEEE9allocatorE@Base 3.2.1
 _ZN8casacore17Allocator_private17BulkAllocatorImplINS_18casacore_allocatorIiLm32EEEE9constructEPim@Base 3.2.1
 _ZN8casacore17Allocator_private17BulkAllocatorImplINS_18casacore_allocatorIiLm32EEEE9constructEPimPKi@Base 3.2.1
 _ZN8casacore17Allocator_private17BulkAllocatorImplINS_18casacore_allocatorIiLm32EEEE9constructEPimRKi@Base 3.2.1
 _ZN8casacore17Allocator_private17BulkAllocatorImplINS_18casacore_allocatorIiLm32EEEED0Ev@Base 3.2.1
 _ZN8casacore17Allocator_private17BulkAllocatorImplINS_18casacore_allocatorIiLm32EEEED1Ev@Base 3.2.1
 _ZN8casacore17Allocator_private17BulkAllocatorImplINS_18casacore_allocatorIiLm32EEEED2Ev@Base 3.2.1
 _ZN8casacore17Allocator_private17BulkAllocatorImplINS_18casacore_allocatorIjLm32EEEE10deallocateEPjm@Base 3.2.1
 _ZN8casacore17Allocator_private17BulkAllocatorImplINS_18casacore_allocatorIjLm32EEEE7destroyEPjm@Base 3.2.1
 _ZN8casacore17Allocator_private17BulkAllocatorImplINS_18casacore_allocatorIjLm32EEEE8allocateEmPKv@Base 3.2.1
 _ZN8casacore17Allocator_private17BulkAllocatorImplINS_18casacore_allocatorIjLm32EEEE9allocatorE@Base 3.2.1
 _ZN8casacore17Allocator_private17BulkAllocatorImplINS_18casacore_allocatorIjLm32EEEE9constructEPjm@Base 3.2.1
 _ZN8casacore17Allocator_private17BulkAllocatorImplINS_18casacore_allocatorIjLm32EEEE9constructEPjmPKj@Base 3.2.1
 _ZN8casacore17Allocator_private17BulkAllocatorImplINS_18casacore_allocatorIjLm32EEEE9constructEPjmRKj@Base 3.2.1
 _ZN8casacore17Allocator_private17BulkAllocatorImplINS_18casacore_allocatorIjLm32EEEED0Ev@Base 3.2.1
 _ZN8casacore17Allocator_private17BulkAllocatorImplINS_18casacore_allocatorIjLm32EEEED1Ev@Base 3.2.1
 _ZN8casacore17Allocator_private17BulkAllocatorImplINS_18casacore_allocatorIjLm32EEEED2Ev@Base 3.2.1
 _ZN8casacore17Allocator_private17BulkAllocatorImplINS_18casacore_allocatorIsLm32EEEE10deallocateEPsm@Base 3.2.1
 _ZN8casacore17Allocator_private17BulkAllocatorImplINS_18casacore_allocatorIsLm32EEEE7destroyEPsm@Base 3.2.1
 _ZN8casacore17Allocator_private17BulkAllocatorImplINS_18casacore_allocatorIsLm32EEEE8allocateEmPKv@Base 3.2.1
 _ZN8casacore17Allocator_private17BulkAllocatorImplINS_18casacore_allocatorIsLm32EEEE9allocatorE@Base 3.2.1
 _ZN8casacore17Allocator_private17BulkAllocatorImplINS_18casacore_allocatorIsLm32EEEE9constructEPsm@Base 3.2.1
 _ZN8casacore17Allocator_private17BulkAllocatorImplINS_18casacore_allocatorIsLm32EEEE9constructEPsmPKs@Base 3.2.1
 _ZN8casacore17Allocator_private17BulkAllocatorImplINS_18casacore_allocatorIsLm32EEEE9constructEPsmRKs@Base 3.2.1
 _ZN8casacore17Allocator_private17BulkAllocatorImplINS_18casacore_allocatorIsLm32EEEED0Ev@Base 3.2.1
 _ZN8casacore17Allocator_private17BulkAllocatorImplINS_18casacore_allocatorIsLm32EEEED1Ev@Base 3.2.1
 _ZN8casacore17Allocator_private17BulkAllocatorImplINS_18casacore_allocatorIsLm32EEEED2Ev@Base 3.2.1
 _ZN8casacore17Allocator_private17get_allocator_rawINS_18casacore_allocatorIPvLm32EEEEEPNS0_17BulkAllocatorImplIT_EEv@Base 3.2.1
 _ZN8casacore17Allocator_private17get_allocator_rawINS_18casacore_allocatorIjLm32EEEEEPNS0_17BulkAllocatorImplIT_EEv@Base 3.2.1
 _ZN8casacore17CopyRecordToTable4copyEj@Base 3.2.1
 _ZN8casacore17CopyRecordToTable8clearAllEv@Base 3.2.1
 _ZN8casacore17CopyRecordToTableC1ERKS0_@Base 3.2.1
 _ZN8casacore17CopyRecordToTableC1ERNS_5TableERKNS_15RecordInterfaceENS_6VectorIiEE@Base 3.2.1
 _ZN8casacore17CopyRecordToTableC2ERKS0_@Base 3.2.1
 _ZN8casacore17CopyRecordToTableC2ERNS_5TableERKNS_15RecordInterfaceENS_6VectorIiEE@Base 3.2.1
 _ZN8casacore17CopyRecordToTableD1Ev@Base 3.2.1
 _ZN8casacore17CopyRecordToTableD2Ev@Base 3.2.1
 _ZN8casacore17CopyRecordToTableaSERKS0_@Base 3.2.1
 _ZN8casacore17new_del_allocatorINS_6MVTimeEED1Ev@Base 3.2.1
 _ZN8casacore17new_del_allocatorINS_6MVTimeEED2Ev@Base 3.2.1
 _ZN8casacore17new_del_allocatorIPNS_6SlicerEED1Ev@Base 3.2.1
 _ZN8casacore17new_del_allocatorIPNS_6SlicerEED2Ev@Base 3.2.1
 _ZN8casacore17sizeofStringFieldERKNS_10RecordDescERKNS_6RecordEj@Base 3.2.1
 _ZN8casacore18ConcatScalarColumnIhE11fillSortKeyEPKNS_6VectorIhEERNS_4SortERNS_10CountedPtrINS_11BaseCompareEEEi@Base 3.2.1
 _ZN8casacore18ConcatScalarColumnIhE11freeSortKeyERPKv@Base 3.2.1
 _ZN8casacore18ConcatScalarColumnIhE11makeSortKeyERNS_4SortERNS_10CountedPtrINS_11BaseCompareEEEiRPKv@Base 3.2.1
 _ZN8casacore18ConcatScalarColumnIhE14makeRefSortKeyERNS_4SortERNS_10CountedPtrINS_11BaseCompareEEEiRKNS_6VectorIjEERPKv@Base 3.2.1
 _ZN8casacore18ConcatScalarColumnIhE15putScalarColumnEPKv@Base 3.2.1
 _ZN8casacore18ConcatScalarColumnIhE20putScalarColumnCellsERKNS_7RefRowsEPKv@Base 3.2.1
 _ZN8casacore18ConcatScalarColumnIhED0Ev@Base 3.2.1
 _ZN8casacore18ConcatScalarColumnIhED1Ev@Base 3.2.1
 _ZN8casacore18ConcatScalarColumnIhED2Ev@Base 3.2.1
 _ZN8casacore18CopyRecordToRecord4copyEv@Base 3.2.1
 _ZN8casacore18CopyRecordToRecordC1ERNS_15RecordInterfaceERKS1_NS_6VectorIiEE@Base 3.2.1
 _ZN8casacore18CopyRecordToRecordC2ERNS_15RecordInterfaceERKS1_NS_6VectorIiEE@Base 3.2.1
 _ZN8casacore18CopyRecordToRecordD1Ev@Base 3.2.1
 _ZN8casacore18CopyRecordToRecordD2Ev@Base 3.2.1
 _ZN8casacore18casacore_allocatorINS_14RecordFieldPtrINS_5ArrayINS_6StringEEEEELm32EED1Ev@Base 3.2.1
 _ZN8casacore18casacore_allocatorINS_14RecordFieldPtrINS_5ArrayINS_6StringEEEEELm32EED2Ev@Base 3.2.1
 _ZN8casacore18casacore_allocatorINS_14RecordFieldPtrINS_5ArrayISt7complexIdEEEEELm32EED1Ev@Base 3.2.1
 _ZN8casacore18casacore_allocatorINS_14RecordFieldPtrINS_5ArrayISt7complexIdEEEEELm32EED2Ev@Base 3.2.1
 _ZN8casacore18casacore_allocatorINS_14RecordFieldPtrINS_5ArrayISt7complexIfEEEEELm32EED1Ev@Base 3.2.1
 _ZN8casacore18casacore_allocatorINS_14RecordFieldPtrINS_5ArrayISt7complexIfEEEEELm32EED2Ev@Base 3.2.1
 _ZN8casacore18casacore_allocatorINS_14RecordFieldPtrINS_5ArrayIbEEEELm32EED1Ev@Base 3.2.1
 _ZN8casacore18casacore_allocatorINS_14RecordFieldPtrINS_5ArrayIbEEEELm32EED2Ev@Base 3.2.1
 _ZN8casacore18casacore_allocatorINS_14RecordFieldPtrINS_5ArrayIdEEEELm32EED1Ev@Base 3.2.1
 _ZN8casacore18casacore_allocatorINS_14RecordFieldPtrINS_5ArrayIdEEEELm32EED2Ev@Base 3.2.1
 _ZN8casacore18casacore_allocatorINS_14RecordFieldPtrINS_5ArrayIfEEEELm32EED1Ev@Base 3.2.1
 _ZN8casacore18casacore_allocatorINS_14RecordFieldPtrINS_5ArrayIfEEEELm32EED2Ev@Base 3.2.1
 _ZN8casacore18casacore_allocatorINS_14RecordFieldPtrINS_5ArrayIhEEEELm32EED1Ev@Base 3.2.1
 _ZN8casacore18casacore_allocatorINS_14RecordFieldPtrINS_5ArrayIhEEEELm32EED2Ev@Base 3.2.1
 _ZN8casacore18casacore_allocatorINS_14RecordFieldPtrINS_5ArrayIiEEEELm32EED1Ev@Base 3.2.1
 _ZN8casacore18casacore_allocatorINS_14RecordFieldPtrINS_5ArrayIiEEEELm32EED2Ev@Base 3.2.1
 _ZN8casacore18casacore_allocatorINS_14RecordFieldPtrINS_5ArrayIsEEEELm32EED1Ev@Base 3.2.1
 _ZN8casacore18casacore_allocatorINS_14RecordFieldPtrINS_5ArrayIsEEEELm32EED2Ev@Base 3.2.1
 _ZN8casacore18casacore_allocatorINS_14RecordFieldPtrINS_6StringEEELm32EED1Ev@Base 3.2.1
 _ZN8casacore18casacore_allocatorINS_14RecordFieldPtrINS_6StringEEELm32EED2Ev@Base 3.2.1
 _ZN8casacore18casacore_allocatorINS_14RecordFieldPtrISt7complexIdEEELm32EED1Ev@Base 3.2.1
 _ZN8casacore18casacore_allocatorINS_14RecordFieldPtrISt7complexIdEEELm32EED2Ev@Base 3.2.1
 _ZN8casacore18casacore_allocatorINS_14RecordFieldPtrISt7complexIfEEELm32EED1Ev@Base 3.2.1
 _ZN8casacore18casacore_allocatorINS_14RecordFieldPtrISt7complexIfEEELm32EED2Ev@Base 3.2.1
 _ZN8casacore18casacore_allocatorINS_14RecordFieldPtrIbEELm32EED1Ev@Base 3.2.1
 _ZN8casacore18casacore_allocatorINS_14RecordFieldPtrIbEELm32EED2Ev@Base 3.2.1
 _ZN8casacore18casacore_allocatorINS_14RecordFieldPtrIdEELm32EED1Ev@Base 3.2.1
 _ZN8casacore18casacore_allocatorINS_14RecordFieldPtrIdEELm32EED2Ev@Base 3.2.1
 _ZN8casacore18casacore_allocatorINS_14RecordFieldPtrIfEELm32EED1Ev@Base 3.2.1
 _ZN8casacore18casacore_allocatorINS_14RecordFieldPtrIfEELm32EED2Ev@Base 3.2.1
 _ZN8casacore18casacore_allocatorINS_14RecordFieldPtrIhEELm32EED1Ev@Base 3.2.1
 _ZN8casacore18casacore_allocatorINS_14RecordFieldPtrIhEELm32EED2Ev@Base 3.2.1
 _ZN8casacore18casacore_allocatorINS_14RecordFieldPtrIiEELm32EED1Ev@Base 3.2.1
 _ZN8casacore18casacore_allocatorINS_14RecordFieldPtrIiEELm32EED2Ev@Base 3.2.1
 _ZN8casacore18casacore_allocatorINS_14RecordFieldPtrIsEELm32EED1Ev@Base 3.2.1
 _ZN8casacore18casacore_allocatorINS_14RecordFieldPtrIsEELm32EED2Ev@Base 3.2.1
 _ZN8casacore18casacore_allocatorINS_16RORecordFieldPtrINS_5ArrayINS_6StringEEEEELm32EED1Ev@Base 3.2.1
 _ZN8casacore18casacore_allocatorINS_16RORecordFieldPtrINS_5ArrayINS_6StringEEEEELm32EED2Ev@Base 3.2.1
 _ZN8casacore18casacore_allocatorINS_16RORecordFieldPtrINS_5ArrayISt7complexIdEEEEELm32EED1Ev@Base 3.2.1
 _ZN8casacore18casacore_allocatorINS_16RORecordFieldPtrINS_5ArrayISt7complexIdEEEEELm32EED2Ev@Base 3.2.1
 _ZN8casacore18casacore_allocatorINS_16RORecordFieldPtrINS_5ArrayISt7complexIfEEEEELm32EED1Ev@Base 3.2.1
 _ZN8casacore18casacore_allocatorINS_16RORecordFieldPtrINS_5ArrayISt7complexIfEEEEELm32EED2Ev@Base 3.2.1
 _ZN8casacore18casacore_allocatorINS_16RORecordFieldPtrINS_5ArrayIbEEEELm32EED1Ev@Base 3.2.1
 _ZN8casacore18casacore_allocatorINS_16RORecordFieldPtrINS_5ArrayIbEEEELm32EED2Ev@Base 3.2.1
 _ZN8casacore18casacore_allocatorINS_16RORecordFieldPtrINS_5ArrayIdEEEELm32EED1Ev@Base 3.2.1
 _ZN8casacore18casacore_allocatorINS_16RORecordFieldPtrINS_5ArrayIdEEEELm32EED2Ev@Base 3.2.1
 _ZN8casacore18casacore_allocatorINS_16RORecordFieldPtrINS_5ArrayIfEEEELm32EED1Ev@Base 3.2.1
 _ZN8casacore18casacore_allocatorINS_16RORecordFieldPtrINS_5ArrayIfEEEELm32EED2Ev@Base 3.2.1
 _ZN8casacore18casacore_allocatorINS_16RORecordFieldPtrINS_5ArrayIhEEEELm32EED1Ev@Base 3.2.1
 _ZN8casacore18casacore_allocatorINS_16RORecordFieldPtrINS_5ArrayIhEEEELm32EED2Ev@Base 3.2.1
 _ZN8casacore18casacore_allocatorINS_16RORecordFieldPtrINS_5ArrayIiEEEELm32EED1Ev@Base 3.2.1
 _ZN8casacore18casacore_allocatorINS_16RORecordFieldPtrINS_5ArrayIiEEEELm32EED2Ev@Base 3.2.1
 _ZN8casacore18casacore_allocatorINS_16RORecordFieldPtrINS_5ArrayIsEEEELm32EED1Ev@Base 3.2.1
 _ZN8casacore18casacore_allocatorINS_16RORecordFieldPtrINS_5ArrayIsEEEELm32EED2Ev@Base 3.2.1
 _ZN8casacore18casacore_allocatorINS_16RORecordFieldPtrINS_6StringEEELm32EED1Ev@Base 3.2.1
 _ZN8casacore18casacore_allocatorINS_16RORecordFieldPtrINS_6StringEEELm32EED2Ev@Base 3.2.1
 _ZN8casacore18casacore_allocatorINS_16RORecordFieldPtrISt7complexIdEEELm32EED1Ev@Base 3.2.1
 _ZN8casacore18casacore_allocatorINS_16RORecordFieldPtrISt7complexIdEEELm32EED2Ev@Base 3.2.1
 _ZN8casacore18casacore_allocatorINS_16RORecordFieldPtrISt7complexIfEEELm32EED1Ev@Base 3.2.1
 _ZN8casacore18casacore_allocatorINS_16RORecordFieldPtrISt7complexIfEEELm32EED2Ev@Base 3.2.1
 _ZN8casacore18casacore_allocatorINS_16RORecordFieldPtrIbEELm32EED1Ev@Base 3.2.1
 _ZN8casacore18casacore_allocatorINS_16RORecordFieldPtrIbEELm32EED2Ev@Base 3.2.1
 _ZN8casacore18casacore_allocatorINS_16RORecordFieldPtrIdEELm32EED1Ev@Base 3.2.1
 _ZN8casacore18casacore_allocatorINS_16RORecordFieldPtrIdEELm32EED2Ev@Base 3.2.1
 _ZN8casacore18casacore_allocatorINS_16RORecordFieldPtrIfEELm32EED1Ev@Base 3.2.1
 _ZN8casacore18casacore_allocatorINS_16RORecordFieldPtrIfEELm32EED2Ev@Base 3.2.1
 _ZN8casacore18casacore_allocatorINS_16RORecordFieldPtrIhEELm32EED1Ev@Base 3.2.1
 _ZN8casacore18casacore_allocatorINS_16RORecordFieldPtrIhEELm32EED2Ev@Base 3.2.1
 _ZN8casacore18casacore_allocatorINS_16RORecordFieldPtrIiEELm32EED1Ev@Base 3.2.1
 _ZN8casacore18casacore_allocatorINS_16RORecordFieldPtrIiEELm32EED2Ev@Base 3.2.1
 _ZN8casacore18casacore_allocatorINS_16RORecordFieldPtrIsEELm32EED1Ev@Base 3.2.1
 _ZN8casacore18casacore_allocatorINS_16RORecordFieldPtrIsEELm32EED2Ev@Base 3.2.1
 _ZN8casacore18casacore_allocatorINS_6MVTimeELm32EED1Ev@Base 3.2.1
 _ZN8casacore18casacore_allocatorINS_6MVTimeELm32EED2Ev@Base 3.2.1
 _ZN8casacore18casacore_allocatorINS_6StringELm32EED1Ev@Base 3.2.1
 _ZN8casacore18casacore_allocatorINS_6StringELm32EED2Ev@Base 3.2.1
 _ZN8casacore18casacore_allocatorIPNS_6SlicerELm32EED1Ev@Base 3.2.1
 _ZN8casacore18casacore_allocatorIPNS_6SlicerELm32EED2Ev@Base 3.2.1
 _ZN8casacore18casacore_allocatorIPvLm32EED1Ev@Base 3.2.1
 _ZN8casacore18casacore_allocatorIPvLm32EED2Ev@Base 3.2.1
 _ZN8casacore18casacore_allocatorIbLm32EED1Ev@Base 3.2.1
 _ZN8casacore18casacore_allocatorIbLm32EED2Ev@Base 3.2.1
 _ZN8casacore18casacore_allocatorIcLm32EED1Ev@Base 3.2.1
 _ZN8casacore18casacore_allocatorIcLm32EED2Ev@Base 3.2.1
 _ZN8casacore18casacore_allocatorIdLm32EED1Ev@Base 3.2.1
 _ZN8casacore18casacore_allocatorIdLm32EED2Ev@Base 3.2.1
 _ZN8casacore18casacore_allocatorIhLm32EED1Ev@Base 3.2.1
 _ZN8casacore18casacore_allocatorIhLm32EED2Ev@Base 3.2.1
 _ZN8casacore18casacore_allocatorIiLm32EED1Ev@Base 3.2.1
 _ZN8casacore18casacore_allocatorIiLm32EED2Ev@Base 3.2.1
 _ZN8casacore18casacore_allocatorIjLm32EED1Ev@Base 3.2.1
 _ZN8casacore18casacore_allocatorIjLm32EED2Ev@Base 3.2.1
 _ZN8casacore18casacore_allocatorIsLm32EED1Ev@Base 3.2.1
 _ZN8casacore18casacore_allocatorIsLm32EED2Ev@Base 3.2.1
 _ZN8casacore18timeRangeStatusMsgEj@Base 3.2.1
 _ZN8casacore19AsciiTableExtension16write_ascTbl_hdrERNS_10FitsOutputElliPPKcPlS5_S5_S4_@Base 3.2.1
 _ZN8casacore19AsciiTableExtension7readrowEv@Base 3.2.1
 _ZN8casacore19AsciiTableExtension8writerowERNS_10FitsOutputE@Base 3.2.1
 _ZN8casacore19AsciiTableExtension9at_assignEv@Base 3.2.1
 _ZN8casacore19AsciiTableExtensionC1EPFvPKcNS_9FITSError10ErrorLevelEE@Base 3.2.1
 _ZN8casacore19AsciiTableExtensionC1ERNS_15FitsKeywordListEPFvPKcNS_9FITSError10ErrorLevelEE@Base 3.2.1
 _ZN8casacore19AsciiTableExtensionC1ERNS_9FitsInputEPFvPKcNS_9FITSError10ErrorLevelEE@Base 3.2.1
 _ZN8casacore19AsciiTableExtensionC2EPFvPKcNS_9FITSError10ErrorLevelEE@Base 3.2.1
 _ZN8casacore19AsciiTableExtensionC2ERNS_15FitsKeywordListEPFvPKcNS_9FITSError10ErrorLevelEE@Base 3.2.1
 _ZN8casacore19AsciiTableExtensionC2ERNS_9FitsInputEPFvPKcNS_9FITSError10ErrorLevelEE@Base 3.2.1
 _ZN8casacore19AsciiTableExtensionD0Ev@Base 3.2.1
 _ZN8casacore19AsciiTableExtensionD1Ev@Base 3.2.1
 _ZN8casacore19AsciiTableExtensionD2Ev@Base 3.2.1
 _ZN8casacore20ArrayFITSFieldCopierISt7complexIdES2_E10copyToFITSEv@Base 3.2.1
 _ZN8casacore20ArrayFITSFieldCopierISt7complexIdES2_ED0Ev@Base 3.2.1
 _ZN8casacore20ArrayFITSFieldCopierISt7complexIdES2_ED1Ev@Base 3.2.1
 _ZN8casacore20ArrayFITSFieldCopierISt7complexIdES2_ED2Ev@Base 3.2.1
 _ZN8casacore20ArrayFITSFieldCopierISt7complexIfES2_E10copyToFITSEv@Base 3.2.1
 _ZN8casacore20ArrayFITSFieldCopierISt7complexIfES2_ED0Ev@Base 3.2.1
 _ZN8casacore20ArrayFITSFieldCopierISt7complexIfES2_ED1Ev@Base 3.2.1
 _ZN8casacore20ArrayFITSFieldCopierISt7complexIfES2_ED2Ev@Base 3.2.1
 _ZN8casacore20ArrayFITSFieldCopierIbNS_11FitsLogicalEE10copyToFITSEv@Base 3.2.1
 _ZN8casacore20ArrayFITSFieldCopierIbNS_11FitsLogicalEED0Ev@Base 3.2.1
 _ZN8casacore20ArrayFITSFieldCopierIbNS_11FitsLogicalEED1Ev@Base 3.2.1
 _ZN8casacore20ArrayFITSFieldCopierIbNS_11FitsLogicalEED2Ev@Base 3.2.1
 _ZN8casacore20ArrayFITSFieldCopierIddE10copyToFITSEv@Base 3.2.1
 _ZN8casacore20ArrayFITSFieldCopierIddED0Ev@Base 3.2.1
 _ZN8casacore20ArrayFITSFieldCopierIddED1Ev@Base 3.2.1
 _ZN8casacore20ArrayFITSFieldCopierIddED2Ev@Base 3.2.1
 _ZN8casacore20ArrayFITSFieldCopierIffE10copyToFITSEv@Base 3.2.1
 _ZN8casacore20ArrayFITSFieldCopierIffED0Ev@Base 3.2.1
 _ZN8casacore20ArrayFITSFieldCopierIffED1Ev@Base 3.2.1
 _ZN8casacore20ArrayFITSFieldCopierIffED2Ev@Base 3.2.1
 _ZN8casacore20ArrayFITSFieldCopierIhhE10copyToFITSEv@Base 3.2.1
 _ZN8casacore20ArrayFITSFieldCopierIhhED0Ev@Base 3.2.1
 _ZN8casacore20ArrayFITSFieldCopierIhhED1Ev@Base 3.2.1
 _ZN8casacore20ArrayFITSFieldCopierIhhED2Ev@Base 3.2.1
 _ZN8casacore20ArrayFITSFieldCopierIiiE10copyToFITSEv@Base 3.2.1
 _ZN8casacore20ArrayFITSFieldCopierIiiED0Ev@Base 3.2.1
 _ZN8casacore20ArrayFITSFieldCopierIiiED1Ev@Base 3.2.1
 _ZN8casacore20ArrayFITSFieldCopierIiiED2Ev@Base 3.2.1
 _ZN8casacore20ArrayFITSFieldCopierIssE10copyToFITSEv@Base 3.2.1
 _ZN8casacore20ArrayFITSFieldCopierIssED0Ev@Base 3.2.1
 _ZN8casacore20ArrayFITSFieldCopierIssED1Ev@Base 3.2.1
 _ZN8casacore20ArrayFITSFieldCopierIssED2Ev@Base 3.2.1
 _ZN8casacore20BinaryTableExtension11set_fitsrowEi@Base 3.2.1
 _ZN8casacore20BinaryTableExtension16write_binTbl_hdrERNS_10FitsOutputEliPPKcS5_S5_S4_l@Base 3.2.1
 _ZN8casacore20BinaryTableExtension4bindEiRNS_8FitsBaseE@Base 3.2.1
 _ZN8casacore20BinaryTableExtension4readEi@Base 3.2.1
 _ZN8casacore20BinaryTableExtension4readEv@Base 3.2.1
 _ZN8casacore20BinaryTableExtension5writeERNS_10FitsOutputE@Base 3.2.1
 _ZN8casacore20BinaryTableExtension7readrowEv@Base 3.2.1
 _ZN8casacore20BinaryTableExtension8set_nextEi@Base 3.2.1
 _ZN8casacore20BinaryTableExtension8writerowERNS_10FitsOutputE@Base 3.2.1
 _ZN8casacore20BinaryTableExtension9bt_assignEv@Base 3.2.1
 _ZN8casacore20BinaryTableExtensionC1ENS_4FITS7HDUTypeEPFvPKcNS_9FITSError10ErrorLevelEE@Base 3.2.1
 _ZN8casacore20BinaryTableExtensionC1EPFvPKcNS_9FITSError10ErrorLevelEE@Base 3.2.1
 _ZN8casacore20BinaryTableExtensionC1ERNS_15FitsKeywordListENS_4FITS7HDUTypeEPFvPKcNS_9FITSError10ErrorLevelEE@Base 3.2.1
 _ZN8casacore20BinaryTableExtensionC1ERNS_15FitsKeywordListEPFvPKcNS_9FITSError10ErrorLevelEE@Base 3.2.1
 _ZN8casacore20BinaryTableExtensionC1ERNS_9FitsInputENS_4FITS7HDUTypeEPFvPKcNS_9FITSError10ErrorLevelEE@Base 3.2.1
 _ZN8casacore20BinaryTableExtensionC1ERNS_9FitsInputEPFvPKcNS_9FITSError10ErrorLevelEE@Base 3.2.1
 _ZN8casacore20BinaryTableExtensionC2ENS_4FITS7HDUTypeEPFvPKcNS_9FITSError10ErrorLevelEE@Base 3.2.1
 _ZN8casacore20BinaryTableExtensionC2EPFvPKcNS_9FITSError10ErrorLevelEE@Base 3.2.1
 _ZN8casacore20BinaryTableExtensionC2ERNS_15FitsKeywordListENS_4FITS7HDUTypeEPFvPKcNS_9FITSError10ErrorLevelEE@Base 3.2.1
 _ZN8casacore20BinaryTableExtensionC2ERNS_15FitsKeywordListEPFvPKcNS_9FITSError10ErrorLevelEE@Base 3.2.1
 _ZN8casacore20BinaryTableExtensionC2ERNS_9FitsInputENS_4FITS7HDUTypeEPFvPKcNS_9FITSError10ErrorLevelEE@Base 3.2.1
 _ZN8casacore20BinaryTableExtensionC2ERNS_9FitsInputEPFvPKcNS_9FITSError10ErrorLevelEE@Base 3.2.1
 _ZN8casacore20BinaryTableExtensionD0Ev@Base 3.2.1
 _ZN8casacore20BinaryTableExtensionD1Ev@Base 3.2.1
 _ZN8casacore20BinaryTableExtensionD2Ev@Base 3.2.1
 _ZN8casacore20BinaryTableExtensionclEi@Base 3.2.1
 _ZN8casacore20BinaryTableExtensionmmEv@Base 3.2.1
 _ZN8casacore20BinaryTableExtensionppEv@Base 3.2.1
 _ZN8casacore21FitsKeyCardTranslator5buildEPcRNS_15FitsKeywordListE@Base 3.2.1
 _ZN8casacore21FitsKeyCardTranslator5parseEPKcRNS_15FitsKeywordListEiPFvS2_NS_9FITSError10ErrorLevelEEb@Base 3.2.1
 _ZN8casacore21FitsKeyCardTranslator7fmtcardEPcRKNS_11FitsKeywordE@Base 3.2.1
 _ZN8casacore21FitsKeyCardTranslatorC1Ei@Base 3.2.1
 _ZN8casacore21FitsKeyCardTranslatorC2Ei@Base 3.2.1
 _ZN8casacore21ScalarFITSFieldCopierISt7complexIdES2_E10copyToFITSEv@Base 3.2.1
 _ZN8casacore21ScalarFITSFieldCopierISt7complexIdES2_ED0Ev@Base 3.2.1
 _ZN8casacore21ScalarFITSFieldCopierISt7complexIdES2_ED1Ev@Base 3.2.1
 _ZN8casacore21ScalarFITSFieldCopierISt7complexIdES2_ED2Ev@Base 3.2.1
 _ZN8casacore21ScalarFITSFieldCopierISt7complexIfES2_E10copyToFITSEv@Base 3.2.1
 _ZN8casacore21ScalarFITSFieldCopierISt7complexIfES2_ED0Ev@Base 3.2.1
 _ZN8casacore21ScalarFITSFieldCopierISt7complexIfES2_ED1Ev@Base 3.2.1
 _ZN8casacore21ScalarFITSFieldCopierISt7complexIfES2_ED2Ev@Base 3.2.1
 _ZN8casacore21ScalarFITSFieldCopierIbNS_11FitsLogicalEE10copyToFITSEv@Base 3.2.1
 _ZN8casacore21ScalarFITSFieldCopierIbNS_11FitsLogicalEED0Ev@Base 3.2.1
 _ZN8casacore21ScalarFITSFieldCopierIbNS_11FitsLogicalEED1Ev@Base 3.2.1
 _ZN8casacore21ScalarFITSFieldCopierIbNS_11FitsLogicalEED2Ev@Base 3.2.1
 _ZN8casacore21ScalarFITSFieldCopierIddE10copyToFITSEv@Base 3.2.1
 _ZN8casacore21ScalarFITSFieldCopierIddED0Ev@Base 3.2.1
 _ZN8casacore21ScalarFITSFieldCopierIddED1Ev@Base 3.2.1
 _ZN8casacore21ScalarFITSFieldCopierIddED2Ev@Base 3.2.1
 _ZN8casacore21ScalarFITSFieldCopierIffE10copyToFITSEv@Base 3.2.1
 _ZN8casacore21ScalarFITSFieldCopierIffED0Ev@Base 3.2.1
 _ZN8casacore21ScalarFITSFieldCopierIffED1Ev@Base 3.2.1
 _ZN8casacore21ScalarFITSFieldCopierIffED2Ev@Base 3.2.1
 _ZN8casacore21ScalarFITSFieldCopierIhhE10copyToFITSEv@Base 3.2.1
 _ZN8casacore21ScalarFITSFieldCopierIhhED0Ev@Base 3.2.1
 _ZN8casacore21ScalarFITSFieldCopierIhhED1Ev@Base 3.2.1
 _ZN8casacore21ScalarFITSFieldCopierIhhED2Ev@Base 3.2.1
 _ZN8casacore21ScalarFITSFieldCopierIiiE10copyToFITSEv@Base 3.2.1
 _ZN8casacore21ScalarFITSFieldCopierIiiED0Ev@Base 3.2.1
 _ZN8casacore21ScalarFITSFieldCopierIiiED1Ev@Base 3.2.1
 _ZN8casacore21ScalarFITSFieldCopierIiiED2Ev@Base 3.2.1
 _ZN8casacore21ScalarFITSFieldCopierIssE10copyToFITSEv@Base 3.2.1
 _ZN8casacore21ScalarFITSFieldCopierIssED0Ev@Base 3.2.1
 _ZN8casacore21ScalarFITSFieldCopierIssED1Ev@Base 3.2.1
 _ZN8casacore21ScalarFITSFieldCopierIssED2Ev@Base 3.2.1
 _ZN8casacore21StringFITSFieldCopier10copyToFITSEv@Base 3.2.1
 _ZN8casacore21StringFITSFieldCopierD0Ev@Base 3.2.1
 _ZN8casacore21StringFITSFieldCopierD1Ev@Base 3.2.1
 _ZN8casacore21StringFITSFieldCopierD2Ev@Base 3.2.1
 _ZN8casacore21arrayTransformInPlaceISt7complexIdES2_St10multipliesIS2_EEEvRNS_5ArrayIT_EET0_T1_@Base 3.2.1
 _ZN8casacore21arrayTransformInPlaceISt7complexIdES2_St4plusIS2_EEEvRNS_5ArrayIT_EET0_T1_@Base 3.2.1
 _ZN8casacore21arrayTransformInPlaceISt7complexIfES2_St10multipliesIS2_EEEvRNS_5ArrayIT_EET0_T1_@Base 3.2.1
 _ZN8casacore21arrayTransformInPlaceISt7complexIfES2_St4plusIS2_EEEvRNS_5ArrayIT_EET0_T1_@Base 3.2.1
 _ZN8casacore21arrayTransformInPlaceIddSt10multipliesIdEEEvRNS_5ArrayIT_EET0_T1_@Base 3.2.1
 _ZN8casacore21arrayTransformInPlaceIddSt4plusIdEEEvRNS_5ArrayIT_EET0_T1_@Base 3.2.1
 _ZN8casacore21arrayTransformInPlaceIffSt4plusIfEEEvRNS_5ArrayIT_EET0_T1_@Base 3.2.1
 _ZN8casacore23ExtensionHeaderDataUnit9ex_assignEv@Base 3.2.1
 _ZN8casacore23ExtensionHeaderDataUnitC1ENS_4FITS7HDUTypeEPFvPKcNS_9FITSError10ErrorLevelEE@Base 3.2.1
 _ZN8casacore23ExtensionHeaderDataUnitC1ERNS_15FitsKeywordListENS_4FITS7HDUTypeEPFvPKcNS_9FITSError10ErrorLevelEE@Base 3.2.1
 _ZN8casacore23ExtensionHeaderDataUnitC1ERNS_15FitsKeywordListEPFvPKcNS_9FITSError10ErrorLevelEE@Base 3.2.1
 _ZN8casacore23ExtensionHeaderDataUnitC1ERNS_9FitsInputENS_4FITS7HDUTypeEPFvPKcNS_9FITSError10ErrorLevelEE@Base 3.2.1
 _ZN8casacore23ExtensionHeaderDataUnitC1ERNS_9FitsInputEPFvPKcNS_9FITSError10ErrorLevelEE@Base 3.2.1
 _ZN8casacore23ExtensionHeaderDataUnitC2ENS_4FITS7HDUTypeEPFvPKcNS_9FITSError10ErrorLevelEE@Base 3.2.1
 _ZN8casacore23ExtensionHeaderDataUnitC2ERNS_15FitsKeywordListENS_4FITS7HDUTypeEPFvPKcNS_9FITSError10ErrorLevelEE@Base 3.2.1
 _ZN8casacore23ExtensionHeaderDataUnitC2ERNS_15FitsKeywordListEPFvPKcNS_9FITSError10ErrorLevelEE@Base 3.2.1
 _ZN8casacore23ExtensionHeaderDataUnitC2ERNS_9FitsInputENS_4FITS7HDUTypeEPFvPKcNS_9FITSError10ErrorLevelEE@Base 3.2.1
 _ZN8casacore23ExtensionHeaderDataUnitC2ERNS_9FitsInputEPFvPKcNS_9FITSError10ErrorLevelEE@Base 3.2.1
 _ZN8casacore23ExtensionHeaderDataUnitD0Ev@Base 3.2.1
 _ZN8casacore23ExtensionHeaderDataUnitD1Ev@Base 3.2.1
 _ZN8casacore23ExtensionHeaderDataUnitD2Ev@Base 3.2.1
 _ZN8casacore23readHeaderRecErrHandlerEPKcNS_9FITSError10ErrorLevelE@Base 3.2.1
 _ZN8casacore26UnitVal_static_initializerC1Ev@Base 3.2.1
 _ZN8casacore26UnitVal_static_initializerC2Ev@Base 3.2.1
 _ZN8casacore28VariableArrayFITSFieldCopierISt7complexIdES2_E10copyToFITSEv@Base 3.2.1
 _ZN8casacore28VariableArrayFITSFieldCopierISt7complexIdES2_ED0Ev@Base 3.2.1
 _ZN8casacore28VariableArrayFITSFieldCopierISt7complexIdES2_ED1Ev@Base 3.2.1
 _ZN8casacore28VariableArrayFITSFieldCopierISt7complexIdES2_ED2Ev@Base 3.2.1
 _ZN8casacore28VariableArrayFITSFieldCopierISt7complexIfES2_E10copyToFITSEv@Base 3.2.1
 _ZN8casacore28VariableArrayFITSFieldCopierISt7complexIfES2_ED0Ev@Base 3.2.1
 _ZN8casacore28VariableArrayFITSFieldCopierISt7complexIfES2_ED1Ev@Base 3.2.1
 _ZN8casacore28VariableArrayFITSFieldCopierISt7complexIfES2_ED2Ev@Base 3.2.1
 _ZN8casacore28VariableArrayFITSFieldCopierIbNS_11FitsLogicalEE10copyToFITSEv@Base 3.2.1
 _ZN8casacore28VariableArrayFITSFieldCopierIbNS_11FitsLogicalEED0Ev@Base 3.2.1
 _ZN8casacore28VariableArrayFITSFieldCopierIbNS_11FitsLogicalEED1Ev@Base 3.2.1
 _ZN8casacore28VariableArrayFITSFieldCopierIbNS_11FitsLogicalEED2Ev@Base 3.2.1
 _ZN8casacore28VariableArrayFITSFieldCopierIddE10copyToFITSEv@Base 3.2.1
 _ZN8casacore28VariableArrayFITSFieldCopierIddED0Ev@Base 3.2.1
 _ZN8casacore28VariableArrayFITSFieldCopierIddED1Ev@Base 3.2.1
 _ZN8casacore28VariableArrayFITSFieldCopierIddED2Ev@Base 3.2.1
 _ZN8casacore28VariableArrayFITSFieldCopierIffE10copyToFITSEv@Base 3.2.1
 _ZN8casacore28VariableArrayFITSFieldCopierIffED0Ev@Base 3.2.1
 _ZN8casacore28VariableArrayFITSFieldCopierIffED1Ev@Base 3.2.1
 _ZN8casacore28VariableArrayFITSFieldCopierIffED2Ev@Base 3.2.1
 _ZN8casacore28VariableArrayFITSFieldCopierIhhE10copyToFITSEv@Base 3.2.1
 _ZN8casacore28VariableArrayFITSFieldCopierIhhED0Ev@Base 3.2.1
 _ZN8casacore28VariableArrayFITSFieldCopierIhhED1Ev@Base 3.2.1
 _ZN8casacore28VariableArrayFITSFieldCopierIhhED2Ev@Base 3.2.1
 _ZN8casacore28VariableArrayFITSFieldCopierIiiE10copyToFITSEv@Base 3.2.1
 _ZN8casacore28VariableArrayFITSFieldCopierIiiED0Ev@Base 3.2.1
 _ZN8casacore28VariableArrayFITSFieldCopierIiiED1Ev@Base 3.2.1
 _ZN8casacore28VariableArrayFITSFieldCopierIiiED2Ev@Base 3.2.1
 _ZN8casacore28VariableArrayFITSFieldCopierIssE10copyToFITSEv@Base 3.2.1
 _ZN8casacore28VariableArrayFITSFieldCopierIssED0Ev@Base 3.2.1
 _ZN8casacore28VariableArrayFITSFieldCopierIssED1Ev@Base 3.2.1
 _ZN8casacore28VariableArrayFITSFieldCopierIssED2Ev@Base 3.2.1
 _ZN8casacore29ReservedFitsKeywordCollection10error_itemE@Base 3.2.1
 _ZN8casacore29ReservedFitsKeywordCollection11spaces_itemE@Base 3.2.1
 _ZN8casacore29ReservedFitsKeywordCollection12comment_itemE@Base 3.2.1
 _ZN8casacore29ReservedFitsKeywordCollection12history_itemE@Base 3.2.1
 _ZN8casacore29ReservedFitsKeywordCollection13user_def_itemE@Base 3.2.1
 _ZN8casacore29ReservedFitsKeywordCollection7reswordE@Base 3.2.1
 _ZN8casacore29ReservedFitsKeywordCollection8no_itemsE@Base 3.2.1
 _ZN8casacore29ReservedFitsKeywordCollection8resalphaE@Base 3.2.1
 _ZN8casacore29ReservedFitsKeywordCollection9end__itemE@Base 3.2.1
 _ZN8casacore4FITS11chk_commentEPKci@Base 3.2.1
 _ZN8casacore4FITS11get_commentEPKciRi@Base 3.2.1
 _ZN8casacore4FITS11get_numericEPKciRNS_15FitsValueResultE@Base 3.2.1
 _ZN8casacore4FITS12get_value_idEPKciRi@Base 3.2.1
 _ZN8casacore4FITS12maxsigdigitsE@Base 3.2.1
 _ZN8casacore4FITS12trim_commentEPKci@Base 3.2.1
 _ZN8casacore4FITS13parse_vatformEPKcRNS0_9ValueTypeERi@Base 3.2.1
 _ZN8casacore4FITS3f2lEPNS_10FitsVADescEPvi@Base 3.2.1
 _ZN8casacore4FITS3f2lEPNS_11FitsLogicalEPvi@Base 3.2.1
 _ZN8casacore4FITS3f2lEPNS_7FitsBitEPvi@Base 3.2.1
 _ZN8casacore4FITS3f2lEPNS_8IComplexEPvi@Base 3.2.1
 _ZN8casacore4FITS3f2lEPSt7complexIdEPvi@Base 3.2.1
 _ZN8casacore4FITS3f2lEPSt7complexIfEPvi@Base 3.2.1
 _ZN8casacore4FITS3f2lEPcPvi@Base 3.2.1
 _ZN8casacore4FITS3f2lEPdPvi@Base 3.2.1
 _ZN8casacore4FITS3f2lEPfPvi@Base 3.2.1
 _ZN8casacore4FITS3f2lEPhPvi@Base 3.2.1
 _ZN8casacore4FITS3f2lEPiPvi@Base 3.2.1
 _ZN8casacore4FITS3f2lEPlPvi@Base 3.2.1
 _ZN8casacore4FITS3f2lEPsPvi@Base 3.2.1
 _ZN8casacore4FITS3l2fEPvPNS_10FitsVADescEi@Base 3.2.1
 _ZN8casacore4FITS3l2fEPvPNS_11FitsLogicalEi@Base 3.2.1
 _ZN8casacore4FITS3l2fEPvPNS_7FitsBitEi@Base 3.2.1
 _ZN8casacore4FITS3l2fEPvPNS_8IComplexEi@Base 3.2.1
 _ZN8casacore4FITS3l2fEPvPSt7complexIdEi@Base 3.2.1
 _ZN8casacore4FITS3l2fEPvPSt7complexIfEi@Base 3.2.1
 _ZN8casacore4FITS3l2fEPvPci@Base 3.2.1
 _ZN8casacore4FITS3l2fEPvPdi@Base 3.2.1
 _ZN8casacore4FITS3l2fEPvPfi@Base 3.2.1
 _ZN8casacore4FITS3l2fEPvPhi@Base 3.2.1
 _ZN8casacore4FITS3l2fEPvPii@Base 3.2.1
 _ZN8casacore4FITS3l2fEPvPli@Base 3.2.1
 _ZN8casacore4FITS3l2fEPvPsi@Base 3.2.1
 _ZN8casacore4FITS5swap2EPvS1_i@Base 3.2.1
 _ZN8casacore4FITS5swap4EPvS1_i@Base 3.2.1
 _ZN8casacore4FITS5swap8EPvS1_i@Base 3.2.1
 _ZN8casacore4FITS6maxIntE@Base 3.2.1
 _ZN8casacore4FITS6minIntE@Base 3.2.1
 _ZN8casacore4FITS6valstrERSoRKNS0_9ValueTypeEPKv@Base 3.2.1
 _ZN8casacore4FITS7ResWordE@Base 3.2.1
 _ZN8casacore4FITS7ckaccumERdii@Base 3.2.1
 _ZN8casacore4FITS7ckaccumERfii@Base 3.2.1
 _ZN8casacore4FITS7maxdiglE@Base 3.2.1
 _ZN8casacore4FITS8fitssizeENS0_9ValueTypeE@Base 3.2.1
 _ZN8casacore4FITS8fstr2strEPcPKci@Base 3.2.1
 _ZN8casacore4FITS8get_nameEPKciRNS_14FitsNameResultE@Base 3.2.1
 _ZN8casacore4FITS8maxfloatE@Base 3.2.1
 _ZN8casacore4FITS8minfloatE@Base 3.2.1
 _ZN8casacore4FITS8str2fstrEPcPKci@Base 3.2.1
 _ZN8casacore4FITS9get_valueEPKciRNS_15FitsValueResultE@Base 3.2.1
 _ZN8casacore4FITS9localsizeENS0_9ValueTypeE@Base 3.2.1
 _ZN8casacore4FITS9maxdblexpE@Base 3.2.1
 _ZN8casacore4FITS9maxdoubleE@Base 3.2.1
 _ZN8casacore4FITS9maxexpdigE@Base 3.2.1
 _ZN8casacore4FITS9maxfltexpE@Base 3.2.1
 _ZN8casacore4FITS9mindblexpE@Base 3.2.1
 _ZN8casacore4FITS9mindoubleE@Base 3.2.1
 _ZN8casacore4FITS9minfltexpE@Base 3.2.1
 _ZN8casacore4FITS9tenpowerDE@Base 3.2.1
 _ZN8casacore4FITS9tenpowerFE@Base 3.2.1
 _ZN8casacore5BlockINS_14RecordFieldPtrINS_5ArrayINS_6StringEEEEEE6deinitEv@Base 3.2.1
 _ZN8casacore5BlockINS_14RecordFieldPtrINS_5ArrayINS_6StringEEEEEE6resizeEmbbNS_15ArrayInitPolicyE@Base 3.2.1-1kern1
 _ZN8casacore5BlockINS_14RecordFieldPtrINS_5ArrayISt7complexIdEEEEEE6deinitEv@Base 3.2.1
 _ZN8casacore5BlockINS_14RecordFieldPtrINS_5ArrayISt7complexIdEEEEEE6resizeEmbbNS_15ArrayInitPolicyE@Base 3.2.1
 _ZN8casacore5BlockINS_14RecordFieldPtrINS_5ArrayISt7complexIfEEEEEE6deinitEv@Base 3.2.1
 _ZN8casacore5BlockINS_14RecordFieldPtrINS_5ArrayISt7complexIfEEEEEE6resizeEmbbNS_15ArrayInitPolicyE@Base 3.2.1
 _ZN8casacore5BlockINS_14RecordFieldPtrINS_5ArrayIbEEEEE6deinitEv@Base 3.2.1
 _ZN8casacore5BlockINS_14RecordFieldPtrINS_5ArrayIdEEEEE6deinitEv@Base 3.2.1
 _ZN8casacore5BlockINS_14RecordFieldPtrINS_5ArrayIdEEEEE6resizeEmbbNS_15ArrayInitPolicyE@Base 3.2.1
 _ZN8casacore5BlockINS_14RecordFieldPtrINS_5ArrayIfEEEEE6deinitEv@Base 3.2.1
 _ZN8casacore5BlockINS_14RecordFieldPtrINS_5ArrayIfEEEEE6resizeEmbbNS_15ArrayInitPolicyE@Base 3.2.1
 _ZN8casacore5BlockINS_14RecordFieldPtrINS_5ArrayIhEEEEE6deinitEv@Base 3.2.1
 _ZN8casacore5BlockINS_14RecordFieldPtrINS_5ArrayIiEEEEE6deinitEv@Base 3.2.1
 _ZN8casacore5BlockINS_14RecordFieldPtrINS_5ArrayIiEEEEE6resizeEmbbNS_15ArrayInitPolicyE@Base 3.2.1
 _ZN8casacore5BlockINS_14RecordFieldPtrINS_5ArrayIsEEEEE6deinitEv@Base 3.2.1
 _ZN8casacore5BlockINS_14RecordFieldPtrINS_5ArrayIsEEEEE6resizeEmbbNS_15ArrayInitPolicyE@Base 3.2.1
 _ZN8casacore5BlockINS_14RecordFieldPtrINS_6StringEEEE6deinitEv@Base 3.2.1
 _ZN8casacore5BlockINS_14RecordFieldPtrINS_6StringEEEE6resizeEmbbNS_15ArrayInitPolicyE@Base 3.2.1
 _ZN8casacore5BlockINS_14RecordFieldPtrISt7complexIdEEEE6deinitEv@Base 3.2.1
 _ZN8casacore5BlockINS_14RecordFieldPtrISt7complexIdEEEE6resizeEmbbNS_15ArrayInitPolicyE@Base 3.2.1
 _ZN8casacore5BlockINS_14RecordFieldPtrISt7complexIfEEEE6deinitEv@Base 3.2.1
 _ZN8casacore5BlockINS_14RecordFieldPtrISt7complexIfEEEE6resizeEmbbNS_15ArrayInitPolicyE@Base 3.2.1
 _ZN8casacore5BlockINS_14RecordFieldPtrIbEEE6deinitEv@Base 3.2.1
 _ZN8casacore5BlockINS_14RecordFieldPtrIbEEE6resizeEmbbNS_15ArrayInitPolicyE@Base 3.2.1
 _ZN8casacore5BlockINS_14RecordFieldPtrIdEEE6deinitEv@Base 3.2.1
 _ZN8casacore5BlockINS_14RecordFieldPtrIdEEE6resizeEmbbNS_15ArrayInitPolicyE@Base 3.2.1
 _ZN8casacore5BlockINS_14RecordFieldPtrIfEEE6deinitEv@Base 3.2.1
 _ZN8casacore5BlockINS_14RecordFieldPtrIfEEE6resizeEmbbNS_15ArrayInitPolicyE@Base 3.2.1
 _ZN8casacore5BlockINS_14RecordFieldPtrIhEEE6deinitEv@Base 3.2.1
 _ZN8casacore5BlockINS_14RecordFieldPtrIiEEE6deinitEv@Base 3.2.1
 _ZN8casacore5BlockINS_14RecordFieldPtrIiEEE6resizeEmbbNS_15ArrayInitPolicyE@Base 3.2.1
 _ZN8casacore5BlockINS_14RecordFieldPtrIsEEE6deinitEv@Base 3.2.1
 _ZN8casacore5BlockINS_14RecordFieldPtrIsEEE6resizeEmbbNS_15ArrayInitPolicyE@Base 3.2.1-1kern1
 _ZN8casacore5BlockINS_16RORecordFieldPtrINS_5ArrayINS_6StringEEEEEE6deinitEv@Base 3.2.1
 _ZN8casacore5BlockINS_16RORecordFieldPtrINS_5ArrayINS_6StringEEEEEE6resizeEmbbNS_15ArrayInitPolicyE@Base 3.2.1
 _ZN8casacore5BlockINS_16RORecordFieldPtrINS_5ArrayISt7complexIdEEEEEE6deinitEv@Base 3.2.1
 _ZN8casacore5BlockINS_16RORecordFieldPtrINS_5ArrayISt7complexIdEEEEEE6resizeEmbbNS_15ArrayInitPolicyE@Base 3.2.1
 _ZN8casacore5BlockINS_16RORecordFieldPtrINS_5ArrayISt7complexIfEEEEEE6deinitEv@Base 3.2.1
 _ZN8casacore5BlockINS_16RORecordFieldPtrINS_5ArrayISt7complexIfEEEEEE6resizeEmbbNS_15ArrayInitPolicyE@Base 3.2.1
 _ZN8casacore5BlockINS_16RORecordFieldPtrINS_5ArrayIbEEEEE6deinitEv@Base 3.2.1
 _ZN8casacore5BlockINS_16RORecordFieldPtrINS_5ArrayIbEEEEE6resizeEmbbNS_15ArrayInitPolicyE@Base 3.2.1
 _ZN8casacore5BlockINS_16RORecordFieldPtrINS_5ArrayIdEEEEE6deinitEv@Base 3.2.1
 _ZN8casacore5BlockINS_16RORecordFieldPtrINS_5ArrayIdEEEEE6resizeEmbbNS_15ArrayInitPolicyE@Base 3.2.1
 _ZN8casacore5BlockINS_16RORecordFieldPtrINS_5ArrayIfEEEEE6deinitEv@Base 3.2.1
 _ZN8casacore5BlockINS_16RORecordFieldPtrINS_5ArrayIfEEEEE6resizeEmbbNS_15ArrayInitPolicyE@Base 3.2.1
 _ZN8casacore5BlockINS_16RORecordFieldPtrINS_5ArrayIhEEEEE6deinitEv@Base 3.2.1
 _ZN8casacore5BlockINS_16RORecordFieldPtrINS_5ArrayIhEEEEE6resizeEmbbNS_15ArrayInitPolicyE@Base 3.2.1
 _ZN8casacore5BlockINS_16RORecordFieldPtrINS_5ArrayIiEEEEE6deinitEv@Base 3.2.1
 _ZN8casacore5BlockINS_16RORecordFieldPtrINS_5ArrayIiEEEEE6resizeEmbbNS_15ArrayInitPolicyE@Base 3.2.1
 _ZN8casacore5BlockINS_16RORecordFieldPtrINS_5ArrayIsEEEEE6deinitEv@Base 3.2.1
 _ZN8casacore5BlockINS_16RORecordFieldPtrINS_5ArrayIsEEEEE6resizeEmbbNS_15ArrayInitPolicyE@Base 3.2.1
 _ZN8casacore5BlockINS_16RORecordFieldPtrINS_6StringEEEE6deinitEv@Base 3.2.1
 _ZN8casacore5BlockINS_16RORecordFieldPtrINS_6StringEEEE6resizeEmbbNS_15ArrayInitPolicyE@Base 3.2.1
 _ZN8casacore5BlockINS_16RORecordFieldPtrISt7complexIdEEEE6deinitEv@Base 3.2.1
 _ZN8casacore5BlockINS_16RORecordFieldPtrISt7complexIdEEEE6resizeEmbbNS_15ArrayInitPolicyE@Base 3.2.1
 _ZN8casacore5BlockINS_16RORecordFieldPtrISt7complexIfEEEE6deinitEv@Base 3.2.1
 _ZN8casacore5BlockINS_16RORecordFieldPtrISt7complexIfEEEE6resizeEmbbNS_15ArrayInitPolicyE@Base 3.2.1
 _ZN8casacore5BlockINS_16RORecordFieldPtrIbEEE6deinitEv@Base 3.2.1
 _ZN8casacore5BlockINS_16RORecordFieldPtrIbEEE6resizeEmbbNS_15ArrayInitPolicyE@Base 3.2.1
 _ZN8casacore5BlockINS_16RORecordFieldPtrIdEEE6deinitEv@Base 3.2.1
 _ZN8casacore5BlockINS_16RORecordFieldPtrIdEEE6resizeEmbbNS_15ArrayInitPolicyE@Base 3.2.1
 _ZN8casacore5BlockINS_16RORecordFieldPtrIfEEE6deinitEv@Base 3.2.1
 _ZN8casacore5BlockINS_16RORecordFieldPtrIfEEE6resizeEmbbNS_15ArrayInitPolicyE@Base 3.2.1
 _ZN8casacore5BlockINS_16RORecordFieldPtrIhEEE6deinitEv@Base 3.2.1
 _ZN8casacore5BlockINS_16RORecordFieldPtrIhEEE6resizeEmbbNS_15ArrayInitPolicyE@Base 3.2.1
 _ZN8casacore5BlockINS_16RORecordFieldPtrIiEEE6deinitEv@Base 3.2.1
 _ZN8casacore5BlockINS_16RORecordFieldPtrIiEEE6resizeEmbbNS_15ArrayInitPolicyE@Base 3.2.1
 _ZN8casacore5BlockINS_16RORecordFieldPtrIsEEE6deinitEv@Base 3.2.1
 _ZN8casacore5BlockINS_16RORecordFieldPtrIsEEE6resizeEmbbNS_15ArrayInitPolicyE@Base 3.2.1
 _ZN8casacore5BlockIhE6deinitEv@Base 3.2.1
 _ZN8casacore6COWPtrINS_13RecordDescRepEE10makeUniqueEv@Base 3.2.1
 _ZN8casacore6FitsIOC1EPFvPKcNS_9FITSError10ErrorLevelEE@Base 3.2.1
 _ZN8casacore6FitsIOC2EPFvPKcNS_9FITSError10ErrorLevelEE@Base 3.2.1
 _ZN8casacore6FitsIOD0Ev@Base 3.2.1
 _ZN8casacore6FitsIOD1Ev@Base 3.2.1
 _ZN8casacore6FitsIOD2Ev@Base 3.2.1
 _ZN8casacore6MatrixINS_6StringEE14preTakeStorageERKNS_9IPositionE@Base 3.2.1
 _ZN8casacore6MatrixINS_6StringEE15doNonDegenerateERKNS_5ArrayIS1_EERKNS_9IPositionE@Base 3.2.1
 _ZN8casacore6MatrixINS_6StringEE15postTakeStorageEv@Base 3.2.1
 _ZN8casacore6MatrixINS_6StringEE6assignERKNS_5ArrayIS1_EE@Base 3.2.1
 _ZN8casacore6MatrixINS_6StringEE6resizeERKNS_9IPositionEbNS_15ArrayInitPolicyE@Base 3.2.1
 _ZN8casacore6MatrixINS_6StringEE6resizeEv@Base 3.2.1
 _ZN8casacore6MatrixINS_6StringEE9referenceERKNS_5ArrayIS1_EE@Base 3.2.1
 _ZN8casacore6MatrixINS_6StringEED0Ev@Base 3.2.1
 _ZN8casacore6MatrixINS_6StringEED1Ev@Base 3.2.1
 _ZN8casacore6MatrixINS_6StringEED2Ev@Base 3.2.1
 _ZN8casacore6MatrixINS_6StringEEaSERKNS_5ArrayIS1_EE@Base 3.2.1
 _ZN8casacore6MatrixIiE14preTakeStorageERKNS_9IPositionE@Base 3.2.1
 _ZN8casacore6MatrixIiE15doNonDegenerateERKNS_5ArrayIiEERKNS_9IPositionE@Base 3.2.1
 _ZN8casacore6MatrixIiE15postTakeStorageEv@Base 3.2.1
 _ZN8casacore6MatrixIiE6assignERKNS_5ArrayIiEE@Base 3.2.1
 _ZN8casacore6MatrixIiE6resizeERKNS_9IPositionEbNS_15ArrayInitPolicyE@Base 3.2.1
 _ZN8casacore6MatrixIiE6resizeEv@Base 3.2.1
 _ZN8casacore6MatrixIiE9referenceERKNS_5ArrayIiEE@Base 3.2.1
 _ZN8casacore6MatrixIiED0Ev@Base 3.2.1
 _ZN8casacore6MatrixIiED1Ev@Base 3.2.1
 _ZN8casacore6MatrixIiED2Ev@Base 3.2.1
 _ZN8casacore6MatrixIiEaSERKNS_5ArrayIiEE@Base 3.2.1
 _ZN8casacore6String8toStringIjEES0_RKT_@Base 3.2.1
 _ZN8casacore6StringD1Ev@Base 3.2.1
 _ZN8casacore6StringD2Ev@Base 3.2.1
 _ZN8casacore6VectorIhE14preTakeStorageERKNS_9IPositionE@Base 3.2.1
 _ZN8casacore6VectorIhE15doNonDegenerateERKNS_5ArrayIhEERKNS_9IPositionE@Base 3.2.1
 _ZN8casacore6VectorIhE6assignERKNS_5ArrayIhEE@Base 3.2.1
 _ZN8casacore6VectorIhE6resizeERKNS_9IPositionEbNS_15ArrayInitPolicyE@Base 3.2.1
 _ZN8casacore6VectorIhE6resizeEv@Base 3.2.1
 _ZN8casacore6VectorIhE9referenceERKNS_5ArrayIhEE@Base 3.2.1
 _ZN8casacore6VectorIhEC1Em@Base 3.2.1
 _ZN8casacore6VectorIhEC1Ev@Base 3.2.1
 _ZN8casacore6VectorIhEC2Em@Base 3.2.1
 _ZN8casacore6VectorIhEC2Ev@Base 3.2.1
 _ZN8casacore6VectorIhED0Ev@Base 3.2.1
 _ZN8casacore6VectorIhED1Ev@Base 3.2.1
 _ZN8casacore6VectorIhED2Ev@Base 3.2.1
 _ZN8casacore6VectorIhEaSERKNS_5ArrayIhEE@Base 3.2.1
 _ZN8casacore6VectorIhEaSERKS1_@Base 3.2.1
 _ZN8casacore6VectorIhEclERKNS_5SliceE@Base 3.2.1
 _ZN8casacore6indgenIjEEvRNS_5ArrayIT_EES2_S2_@Base 3.2.1
 _ZN8casacore6minMaxIfEEvRT_S2_RKNS_5ArrayIS1_EE@Base 3.2.1
 _ZN8casacore6nerrs_E@Base 3.2.1
 _ZN8casacore7BlockIO10close_fileEP8fitsfilePi@Base 3.2.1
 _ZN8casacore7BlockIO6errmsgENS0_6IOErrsEPKc@Base 3.2.1
 _ZN8casacore7BlockIO7setfptrEP8fitsfile@Base 3.2.1
 _ZN8casacore7BlockIOC1EPKciiiPFvS2_NS_9FITSError10ErrorLevelEE@Base 3.2.1
 _ZN8casacore7BlockIOC1EiiiPFvPKcNS_9FITSError10ErrorLevelEE@Base 3.2.1
 _ZN8casacore7BlockIOC2EPKciiiPFvS2_NS_9FITSError10ErrorLevelEE@Base 3.2.1
 _ZN8casacore7BlockIOC2EiiiPFvPKcNS_9FITSError10ErrorLevelEE@Base 3.2.1
 _ZN8casacore7BlockIOD0Ev@Base 3.2.1
 _ZN8casacore7BlockIOD1Ev@Base 3.2.1
 _ZN8casacore7BlockIOD2Ev@Base 3.2.1
 _ZN8casacore7GenSortINS_6StringEE10insSortAscEPS1_ii@Base 3.2.1
 _ZN8casacore7GenSortINS_6StringEE11heapSortAscEPS1_i@Base 3.2.1
 _ZN8casacore7GenSortINS_6StringEE12quickSortAscEPS1_ibi@Base 3.2.1
 _ZN8casacore7GenSortINS_6StringEE13insSortAscDupEPS1_i@Base 3.2.1
 _ZN8casacore7GenSortINS_6StringEE15heapAscSiftDownEiiPS1_@Base 3.2.1
 _ZN8casacore7GenSortINS_6StringEE15insSortAscNoDupEPS1_i@Base 3.2.1
 _ZN8casacore7GenSortINS_6StringEE5mergeEPS1_S3_jPjj@Base 3.2.1
 _ZN8casacore7GenSortINS_6StringEE7parSortEPS1_jNS_4Sort5OrderEii@Base 3.2.1
 _ZN8casacore7GenSortINS_6StringEE7reverseEPS1_PKS1_j@Base 3.2.1
 _ZN8casacore7GenSortIdE10insSortAscEPdii@Base 3.2.1
 _ZN8casacore7GenSortIdE11heapSortAscEPdi@Base 3.2.1
 _ZN8casacore7GenSortIdE12quickSortAscEPdibi@Base 3.2.1
 _ZN8casacore7GenSortIdE15heapAscSiftDownEiiPd@Base 3.2.1
 _ZN8casacore7GenSortIdE5mergeEPdS2_jPjj@Base 3.2.1
 _ZN8casacore7GenSortIdE7parSortEPdjNS_4Sort5OrderEii@Base 3.2.1
 _ZN8casacore7GenSortIdE7reverseEPdPKdj@Base 3.2.1
 _ZN8casacore7GenSortIjE7reverseEPjPKjj@Base 3.2.1
 _ZN8casacore7assert_INS_10AbortErrorEEC1EiPKcS4_i@Base 3.2.1
 _ZN8casacore7assert_INS_10AbortErrorEEC2EiPKcS4_i@Base 3.2.1
 _ZN8casacore7assert_INS_10ArrayErrorEEC1EiPKcS4_i@Base 3.2.1
 _ZN8casacore7assert_INS_10ArrayErrorEEC2EiPKcS4_i@Base 3.2.1
 _ZN8casacore7assert_INS_9AipsErrorEEC1EPKvPKcS6_i@Base 3.2.1
 _ZN8casacore7assert_INS_9AipsErrorEEC1EiPKcS4_i@Base 3.2.1
 _ZN8casacore7assert_INS_9AipsErrorEEC2EPKvPKcS6_i@Base 3.2.1
 _ZN8casacore7assert_INS_9AipsErrorEEC2EiPKcS4_i@Base 3.2.1
 _ZN8casacore7showHDUEPNS_14HeaderDataUnitE@Base 3.2.1
 _ZN8casacore8FitsBase4makeERKNS_4FITS9ValueTypeEi@Base 3.2.1
 _ZN8casacore8FitsBase4makeERKNS_4FITS9ValueTypeEiPi@Base 3.2.1
 _ZN8casacore8FitsBase4makeERS0_@Base 3.2.1
 _ZN8casacore8FitsBase4vdimEv@Base 3.2.1
 _ZN8casacore8FitsBaseD0Ev@Base 3.2.1
 _ZN8casacore8FitsBaseD1Ev@Base 3.2.1
 _ZN8casacore8FitsBaseD2Ev@Base 3.2.1
 _ZN8casacore8FitsBaseaSERS0_@Base 3.2.1
 _ZN8casacore8ReadFITSEPKcRbRNS_6StringEPS3_PNS_6VectorIS3_EEPNS6_IfEESA_SA_PSt3mapIS3_dSt4lessIS3_ESaISt4pairIKS3_dEEES5_@Base 3.2.1
 _ZN8casacore8ResWord_E@Base 3.2.1
 _ZN8casacore9FITSError14defaultHandlerEPKcNS0_10ErrorLevelE@Base 3.2.1
 _ZN8casacore9FITSTable10clear_selfEv@Base 3.2.1
 _ZN8casacore9FITSTable14virtualColumnsERKNS_6VectorINS_6StringEEE@Base 3.2.1
 _ZN8casacore9FITSTable16reopenAtFirstHDUERKNS_6StringE@Base 3.2.1
 _ZN8casacore9FITSTable4moveEi@Base 3.2.1
 _ZN8casacore9FITSTable4nextEv@Base 3.2.1
 _ZN8casacore9FITSTable6reopenERKNS_6StringE@Base 3.2.1
 _ZN8casacore9FITSTable8fill_rowEv@Base 3.2.1
 _ZN8casacore9FITSTableC1ERKNS_6StringEjb@Base 3.2.1
 _ZN8casacore9FITSTableC1Ejb@Base 3.2.1
 _ZN8casacore9FITSTableC2ERKNS_6StringEjb@Base 3.2.1
 _ZN8casacore9FITSTableC2Ejb@Base 3.2.1
 _ZN8casacore9FITSTableD0Ev@Base 3.2.1
 _ZN8casacore9FITSTableD1Ev@Base 3.2.1
 _ZN8casacore9FITSTableD2Ev@Base 3.2.1
 _ZN8casacore9FitsArrayINS_10FitsVADescEE4vdimEv@Base 3.2.1
 _ZN8casacore9FitsArrayINS_10FitsVADescEEC1EiPKi@Base 3.2.1
 _ZN8casacore9FitsArrayINS_10FitsVADescEEC2EiPKi@Base 3.2.1
 _ZN8casacore9FitsArrayINS_10FitsVADescEED0Ev@Base 3.2.1
 _ZN8casacore9FitsArrayINS_10FitsVADescEED1Ev@Base 3.2.1
 _ZN8casacore9FitsArrayINS_10FitsVADescEED2Ev@Base 3.2.1
 _ZN8casacore9FitsArrayINS_11FitsLogicalEE4vdimEv@Base 3.2.1
 _ZN8casacore9FitsArrayINS_11FitsLogicalEEC1EiPKi@Base 3.2.1
 _ZN8casacore9FitsArrayINS_11FitsLogicalEEC2EiPKi@Base 3.2.1
 _ZN8casacore9FitsArrayINS_11FitsLogicalEED0Ev@Base 3.2.1
 _ZN8casacore9FitsArrayINS_11FitsLogicalEED1Ev@Base 3.2.1
 _ZN8casacore9FitsArrayINS_11FitsLogicalEED2Ev@Base 3.2.1
 _ZN8casacore9FitsArrayINS_7FitsBitEE4vdimEv@Base 3.2.1
 _ZN8casacore9FitsArrayINS_7FitsBitEEC1EiPKi@Base 3.2.1
 _ZN8casacore9FitsArrayINS_7FitsBitEEC2EiPKi@Base 3.2.1
 _ZN8casacore9FitsArrayINS_7FitsBitEED0Ev@Base 3.2.1
 _ZN8casacore9FitsArrayINS_7FitsBitEED1Ev@Base 3.2.1
 _ZN8casacore9FitsArrayINS_7FitsBitEED2Ev@Base 3.2.1
 _ZN8casacore9FitsArrayINS_7FitsBitEEclEii@Base 3.2.1
 _ZN8casacore9FitsArrayINS_7FitsBitEEclEiii@Base 3.2.1
 _ZN8casacore9FitsArrayINS_7FitsBitEEclEiiii@Base 3.2.1
 _ZN8casacore9FitsArrayINS_7FitsBitEEclEiiiii@Base 3.2.1
 _ZN8casacore9FitsArrayINS_8IComplexEE4vdimEv@Base 3.2.1
 _ZN8casacore9FitsArrayINS_8IComplexEED0Ev@Base 3.2.1
 _ZN8casacore9FitsArrayINS_8IComplexEED1Ev@Base 3.2.1
 _ZN8casacore9FitsArrayINS_8IComplexEED2Ev@Base 3.2.1
 _ZN8casacore9FitsArrayISt7complexIdEE4vdimEv@Base 3.2.1
 _ZN8casacore9FitsArrayISt7complexIdEEC1EiPKi@Base 3.2.1
 _ZN8casacore9FitsArrayISt7complexIdEEC2EiPKi@Base 3.2.1
 _ZN8casacore9FitsArrayISt7complexIdEED0Ev@Base 3.2.1
 _ZN8casacore9FitsArrayISt7complexIdEED1Ev@Base 3.2.1
 _ZN8casacore9FitsArrayISt7complexIdEED2Ev@Base 3.2.1
 _ZN8casacore9FitsArrayISt7complexIfEE4vdimEv@Base 3.2.1
 _ZN8casacore9FitsArrayISt7complexIfEEC1EiPKi@Base 3.2.1
 _ZN8casacore9FitsArrayISt7complexIfEEC2EiPKi@Base 3.2.1
 _ZN8casacore9FitsArrayISt7complexIfEED0Ev@Base 3.2.1
 _ZN8casacore9FitsArrayISt7complexIfEED1Ev@Base 3.2.1
 _ZN8casacore9FitsArrayISt7complexIfEED2Ev@Base 3.2.1
 _ZN8casacore9FitsArrayIcE4vdimEv@Base 3.2.1
 _ZN8casacore9FitsArrayIcEC1EiPKi@Base 3.2.1
 _ZN8casacore9FitsArrayIcEC2EiPKi@Base 3.2.1
 _ZN8casacore9FitsArrayIcED0Ev@Base 3.2.1
 _ZN8casacore9FitsArrayIcED1Ev@Base 3.2.1
 _ZN8casacore9FitsArrayIcED2Ev@Base 3.2.1
 _ZN8casacore9FitsArrayIdE4vdimEv@Base 3.2.1
 _ZN8casacore9FitsArrayIdEC1EiPKi@Base 3.2.1
 _ZN8casacore9FitsArrayIdEC2EiPKi@Base 3.2.1
 _ZN8casacore9FitsArrayIdED0Ev@Base 3.2.1
 _ZN8casacore9FitsArrayIdED1Ev@Base 3.2.1
 _ZN8casacore9FitsArrayIdED2Ev@Base 3.2.1
 _ZN8casacore9FitsArrayIfE4vdimEv@Base 3.2.1
 _ZN8casacore9FitsArrayIfEC1EiPKi@Base 3.2.1
 _ZN8casacore9FitsArrayIfEC2EiPKi@Base 3.2.1
 _ZN8casacore9FitsArrayIfED0Ev@Base 3.2.1
 _ZN8casacore9FitsArrayIfED1Ev@Base 3.2.1
 _ZN8casacore9FitsArrayIfED2Ev@Base 3.2.1
 _ZN8casacore9FitsArrayIhE4vdimEv@Base 3.2.1
 _ZN8casacore9FitsArrayIhEC1EiPKi@Base 3.2.1
 _ZN8casacore9FitsArrayIhEC2EiPKi@Base 3.2.1
 _ZN8casacore9FitsArrayIhED0Ev@Base 3.2.1
 _ZN8casacore9FitsArrayIhED1Ev@Base 3.2.1
 _ZN8casacore9FitsArrayIhED2Ev@Base 3.2.1
 _ZN8casacore9FitsArrayIiE4vdimEv@Base 3.2.1
 _ZN8casacore9FitsArrayIiEC1EiPKi@Base 3.2.1
 _ZN8casacore9FitsArrayIiEC2EiPKi@Base 3.2.1
 _ZN8casacore9FitsArrayIiED0Ev@Base 3.2.1
 _ZN8casacore9FitsArrayIiED1Ev@Base 3.2.1
 _ZN8casacore9FitsArrayIiED2Ev@Base 3.2.1
 _ZN8casacore9FitsArrayIsE4vdimEv@Base 3.2.1
 _ZN8casacore9FitsArrayIsEC1EiPKi@Base 3.2.1
 _ZN8casacore9FitsArrayIsEC2EiPKi@Base 3.2.1
 _ZN8casacore9FitsArrayIsED0Ev@Base 3.2.1
 _ZN8casacore9FitsArrayIsED1Ev@Base 3.2.1
 _ZN8casacore9FitsArrayIsED2Ev@Base 3.2.1
 _ZN8casacore9FitsFieldINS_10FitsVADescEE4dataEv@Base 3.2.1
 _ZN8casacore9FitsFieldINS_10FitsVADescEE4showERSo@Base 3.2.1
 _ZN8casacore9FitsFieldINS_10FitsVADescEE7setaddrEPPv@Base 3.2.1
 _ZN8casacore9FitsFieldINS_10FitsVADescEED0Ev@Base 3.2.1
 _ZN8casacore9FitsFieldINS_10FitsVADescEED1Ev@Base 3.2.1
 _ZN8casacore9FitsFieldINS_10FitsVADescEED2Ev@Base 3.2.1
 _ZN8casacore9FitsFieldINS_11FitsLogicalEE4dataEv@Base 3.2.1
 _ZN8casacore9FitsFieldINS_11FitsLogicalEE4showERSo@Base 3.2.1
 _ZN8casacore9FitsFieldINS_11FitsLogicalEE7setaddrEPPv@Base 3.2.1
 _ZN8casacore9FitsFieldINS_11FitsLogicalEED0Ev@Base 3.2.1
 _ZN8casacore9FitsFieldINS_11FitsLogicalEED1Ev@Base 3.2.1
 _ZN8casacore9FitsFieldINS_11FitsLogicalEED2Ev@Base 3.2.1
 _ZN8casacore9FitsFieldINS_7FitsBitEE4dataEv@Base 3.2.1
 _ZN8casacore9FitsFieldINS_7FitsBitEE4showERSo@Base 3.2.1
 _ZN8casacore9FitsFieldINS_7FitsBitEE7setaddrEPPv@Base 3.2.1
 _ZN8casacore9FitsFieldINS_7FitsBitEEC1Ei@Base 3.2.1
 _ZN8casacore9FitsFieldINS_7FitsBitEEC2Ei@Base 3.2.1
 _ZN8casacore9FitsFieldINS_7FitsBitEED0Ev@Base 3.2.1
 _ZN8casacore9FitsFieldINS_7FitsBitEED1Ev@Base 3.2.1
 _ZN8casacore9FitsFieldINS_7FitsBitEED2Ev@Base 3.2.1
 _ZN8casacore9FitsFieldINS_8IComplexEE4dataEv@Base 3.2.1
 _ZN8casacore9FitsFieldINS_8IComplexEE4showERSo@Base 3.2.1
 _ZN8casacore9FitsFieldINS_8IComplexEE7setaddrEPPv@Base 3.2.1
 _ZN8casacore9FitsFieldINS_8IComplexEED0Ev@Base 3.2.1
 _ZN8casacore9FitsFieldINS_8IComplexEED1Ev@Base 3.2.1
 _ZN8casacore9FitsFieldINS_8IComplexEED2Ev@Base 3.2.1
 _ZN8casacore9FitsFieldISt7complexIdEE4dataEv@Base 3.2.1
 _ZN8casacore9FitsFieldISt7complexIdEE4showERSo@Base 3.2.1
 _ZN8casacore9FitsFieldISt7complexIdEE7setaddrEPPv@Base 3.2.1
 _ZN8casacore9FitsFieldISt7complexIdEED0Ev@Base 3.2.1
 _ZN8casacore9FitsFieldISt7complexIdEED1Ev@Base 3.2.1
 _ZN8casacore9FitsFieldISt7complexIdEED2Ev@Base 3.2.1
 _ZN8casacore9FitsFieldISt7complexIfEE4dataEv@Base 3.2.1
 _ZN8casacore9FitsFieldISt7complexIfEE4showERSo@Base 3.2.1
 _ZN8casacore9FitsFieldISt7complexIfEE7setaddrEPPv@Base 3.2.1
 _ZN8casacore9FitsFieldISt7complexIfEED0Ev@Base 3.2.1
 _ZN8casacore9FitsFieldISt7complexIfEED1Ev@Base 3.2.1
 _ZN8casacore9FitsFieldISt7complexIfEED2Ev@Base 3.2.1
 _ZN8casacore9FitsFieldIcE4dataEv@Base 3.2.1
 _ZN8casacore9FitsFieldIcE4showERSo@Base 3.2.1
 _ZN8casacore9FitsFieldIcE7setaddrEPPv@Base 3.2.1
 _ZN8casacore9FitsFieldIcED0Ev@Base 3.2.1
 _ZN8casacore9FitsFieldIcED1Ev@Base 3.2.1
 _ZN8casacore9FitsFieldIcED2Ev@Base 3.2.1
 _ZN8casacore9FitsFieldIdE4dataEv@Base 3.2.1
 _ZN8casacore9FitsFieldIdE4showERSo@Base 3.2.1
 _ZN8casacore9FitsFieldIdE7setaddrEPPv@Base 3.2.1
 _ZN8casacore9FitsFieldIdED0Ev@Base 3.2.1
 _ZN8casacore9FitsFieldIdED1Ev@Base 3.2.1
 _ZN8casacore9FitsFieldIdED2Ev@Base 3.2.1
 _ZN8casacore9FitsFieldIfE4dataEv@Base 3.2.1
 _ZN8casacore9FitsFieldIfE4showERSo@Base 3.2.1
 _ZN8casacore9FitsFieldIfE7setaddrEPPv@Base 3.2.1
 _ZN8casacore9FitsFieldIfED0Ev@Base 3.2.1
 _ZN8casacore9FitsFieldIfED1Ev@Base 3.2.1
 _ZN8casacore9FitsFieldIfED2Ev@Base 3.2.1
 _ZN8casacore9FitsFieldIhE4dataEv@Base 3.2.1
 _ZN8casacore9FitsFieldIhE4showERSo@Base 3.2.1
 _ZN8casacore9FitsFieldIhE7setaddrEPPv@Base 3.2.1
 _ZN8casacore9FitsFieldIhED0Ev@Base 3.2.1
 _ZN8casacore9FitsFieldIhED1Ev@Base 3.2.1
 _ZN8casacore9FitsFieldIhED2Ev@Base 3.2.1
 _ZN8casacore9FitsFieldIiE4dataEv@Base 3.2.1
 _ZN8casacore9FitsFieldIiE4showERSo@Base 3.2.1
 _ZN8casacore9FitsFieldIiE7setaddrEPPv@Base 3.2.1
 _ZN8casacore9FitsFieldIiED0Ev@Base 3.2.1
 _ZN8casacore9FitsFieldIiED1Ev@Base 3.2.1
 _ZN8casacore9FitsFieldIiED2Ev@Base 3.2.1
 _ZN8casacore9FitsFieldIsE4dataEv@Base 3.2.1
 _ZN8casacore9FitsFieldIsE4showERSo@Base 3.2.1
 _ZN8casacore9FitsFieldIsE7setaddrEPPv@Base 3.2.1
 _ZN8casacore9FitsFieldIsED0Ev@Base 3.2.1
 _ZN8casacore9FitsFieldIsED1Ev@Base 3.2.1
 _ZN8casacore9FitsFieldIsED2Ev@Base 3.2.1
 _ZN8casacore9FitsInput10kwlist_strEb@Base 3.2.1
 _ZN8casacore9FitsInput10make_inputEPKcRKNS_4FITS10FitsDeviceEiPFvS2_NS_9FITSError10ErrorLevelEE@Base 3.2.1
 _ZN8casacore9FitsInput14process_headerENS_4FITS7HDUTypeERNS_15FitsKeywordListE@Base 3.2.1
 _ZN8casacore9FitsInput15read_header_recEv@Base 3.2.1
 _ZN8casacore9FitsInput4initEv@Base 3.2.1
 _ZN8casacore9FitsInput4readENS_4FITS7HDUTypeEPci@Base 3.2.1
 _ZN8casacore9FitsInput4skipENS_4FITS7HDUTypeEl@Base 3.2.1
 _ZN8casacore9FitsInput6errmsgENS_6FitsIO8FitsErrsEPKc@Base 3.2.1
 _ZN8casacore9FitsInput7read_spEv@Base 3.2.1
 _ZN8casacore9FitsInput8read_allENS_4FITS7HDUTypeEPc@Base 3.2.1
 _ZN8casacore9FitsInput8skip_allENS_4FITS7HDUTypeE@Base 3.2.1
 _ZN8casacore9FitsInput8skip_hduEv@Base 3.2.1
 _ZN8casacore9FitsInputC1EPFvPKcNS_9FITSError10ErrorLevelEE@Base 3.2.1
 _ZN8casacore9FitsInputC1EPKcRKNS_4FITS10FitsDeviceEiPFvS2_NS_9FITSError10ErrorLevelEE@Base 3.2.1
 _ZN8casacore9FitsInputC2EPFvPKcNS_9FITSError10ErrorLevelEE@Base 3.2.1
 _ZN8casacore9FitsInputC2EPKcRKNS_4FITS10FitsDeviceEiPFvS2_NS_9FITSError10ErrorLevelEE@Base 3.2.1
 _ZN8casacore9FitsInputD0Ev@Base 3.2.1
 _ZN8casacore9FitsInputD1Ev@Base 3.2.1
 _ZN8casacore9FitsInputD2Ev@Base 3.2.1
 _ZN8casacore9FitsParse5mkerrEPKci@Base 3.2.1
 _ZN8casacore9FitsParse5parseEPKci@Base 3.2.1
 _ZN8casacore9FitsParseC1Ei@Base 3.2.1
 _ZN8casacore9FitsParseC2Ei@Base 3.2.1
 _ZN8casacore9WriteFITSEPKcRKNS_5ArrayIfEERNS_6StringES1_PKNS_6VectorIS6_EEPKNS8_IfEESE_SE_PKSt3mapIS6_dSt4lessIS6_ESaISt4pairIKS6_dEEES1_iff@Base 3.2.1
 _ZN8casacore9messages_E@Base 3.2.1
 _ZN8casacorelsERSoRKNS_10FitsVADescE@Base 3.2.1
 _ZN8casacorelsERSoRKNS_11FitsKeywordE@Base 3.2.1
 _ZN8casacorelsERSoRKNS_11FitsLogicalE@Base 3.2.1
 _ZN8casacorelsERSoRKNS_4FITS9ValueTypeE@Base 3.2.1
 _ZN8casacorelsERSoRNS_15FitsKeywordListE@Base 3.2.1
 _ZN8casacoreplEPKcRKNS_6StringE@Base 3.2.1
 _ZN8casacoreplERKNS_6StringEPKc@Base 3.2.1
 _ZNK8casacore10ObjCompareIhE4compEPKvS3_@Base 3.2.1
 _ZNK8casacore10ObjCompareIhE8dataTypeEv@Base 3.2.1
 _ZNK8casacore11ArrayColumnIhE13checkDataTypeEv@Base 3.2.1
 _ZNK8casacore11ArrayColumnIhE5cloneEv@Base 3.2.1
 _ZNK8casacore11FITSTabular10hasChangedEv@Base 3.2.1
 _ZNK8casacore11FitsKeyword5asIntEv@Base 3.2.1
 _ZNK8casacore11FitsKeyword5valueEv@Base 3.2.1
 _ZNK8casacore11SDFITSTable8isSDFITSEv@Base 3.2.1
 _ZNK8casacore12ScalarColumnIhE13checkDataTypeEv@Base 3.2.1
 _ZNK8casacore12ScalarColumnIhE14getColumnCellsERKNS_7RefRowsERNS_6VectorIhEEb@Base 3.2.1
 _ZNK8casacore12ScalarColumnIhE5cloneEv@Base 3.2.1
 _ZNK8casacore12ScalarColumnIhE9getColumnERNS_6VectorIhEEb@Base 3.2.1
 _ZNK8casacore13BaseAllocatorINS_6MVTimeENS_15NewDelAllocatorIS1_EEE12getAllocatorEv@Base 3.2.1
 _ZNK8casacore13BaseAllocatorINS_6MVTimeENS_16AlignedAllocatorIS1_Lm32EEEE12getAllocatorEv@Base 3.2.1
 _ZNK8casacore13BaseAllocatorIPNS_6SlicerENS_15NewDelAllocatorIS2_EEE12getAllocatorEv@Base 3.2.1
 _ZNK8casacore13BaseAllocatorIPNS_6SlicerENS_16AlignedAllocatorIS2_Lm32EEEE12getAllocatorEv@Base 3.2.1
 _ZNK8casacore14FITSMultiTable10currentRowEv@Base 3.2.1
 _ZNK8casacore14FITSMultiTable10hasChangedEv@Base 3.2.1
 _ZNK8casacore14FITSMultiTable11descriptionEv@Base 3.2.1
 _ZNK8casacore14FITSMultiTable14displayFormatsEv@Base 3.2.1
 _ZNK8casacore14FITSMultiTable4nameEv@Base 3.2.1
 _ZNK8casacore14FITSMultiTable5nullsEv@Base 3.2.1
 _ZNK8casacore14FITSMultiTable5unitsEv@Base 3.2.1
 _ZNK8casacore14FITSMultiTable7isValidEv@Base 3.2.1
 _ZNK8casacore14FITSMultiTable7pastEndEv@Base 3.2.1
 _ZNK8casacore14FITSMultiTable8keywordsEv@Base 3.2.1
 _ZNK8casacore14FITSTimedTable10currentRowEv@Base 3.2.1
 _ZNK8casacore14FITSTimedTable10hasChangedEv@Base 3.2.1
 _ZNK8casacore14FITSTimedTable11currentTimeEv@Base 3.2.1
 _ZNK8casacore14FITSTimedTable11descriptionEv@Base 3.2.1
 _ZNK8casacore14FITSTimedTable14displayFormatsEv@Base 3.2.1
 _ZNK8casacore14FITSTimedTable4nameEv@Base 3.2.1
 _ZNK8casacore14FITSTimedTable5nullsEv@Base 3.2.1
 _ZNK8casacore14FITSTimedTable5unitsEv@Base 3.2.1
 _ZNK8casacore14FITSTimedTable7isValidEv@Base 3.2.1
 _ZNK8casacore14FITSTimedTable7pastEndEv@Base 3.2.1
 _ZNK8casacore14FITSTimedTable8keywordsEv@Base 3.2.1
 _ZNK8casacore15ArrayColumnDataIhE10checkShapeERKNS_9IPositionE@Base 3.2.1
 _ZNK8casacore15ArrayColumnDataIhE10ndimColumnEv@Base 3.2.1
 _ZNK8casacore15ArrayColumnDataIhE11shapeColumnEv@Base 3.2.1
 _ZNK8casacore15ArrayColumnDataIhE14canAccessSliceERb@Base 3.2.1
 _ZNK8casacore15ArrayColumnDataIhE14canChangeShapeEv@Base 3.2.1
 _ZNK8casacore15ArrayColumnDataIhE14getArrayColumnEPv@Base 3.2.1
 _ZNK8casacore15ArrayColumnDataIhE14getColumnSliceERKNS_6SlicerEPv@Base 3.2.1
 _ZNK8casacore15ArrayColumnDataIhE19getArrayColumnCellsERKNS_7RefRowsEPv@Base 3.2.1
 _ZNK8casacore15ArrayColumnDataIhE19getColumnSliceCellsERKNS_7RefRowsERKNS_6SlicerEPv@Base 3.2.1
 _ZNK8casacore15ArrayColumnDataIhE20canAccessArrayColumnERb@Base 3.2.1
 _ZNK8casacore15ArrayColumnDataIhE20canAccessColumnSliceERb@Base 3.2.1
 _ZNK8casacore15ArrayColumnDataIhE25canAccessArrayColumnCellsERb@Base 3.2.1
 _ZNK8casacore15ArrayColumnDataIhE3getEjPv@Base 3.2.1
 _ZNK8casacore15ArrayColumnDataIhE4ndimEj@Base 3.2.1
 _ZNK8casacore15ArrayColumnDataIhE5shapeEj@Base 3.2.1
 _ZNK8casacore15ArrayColumnDataIhE8getSliceEjRKNS_6SlicerEPv@Base 3.2.1
 _ZNK8casacore15ArrayColumnDataIhE9isDefinedEj@Base 3.2.1
 _ZNK8casacore15ArrayColumnDataIhE9tileShapeEj@Base 3.2.1
 _ZNK8casacore15ArrayColumnDescIhE10makeColumnEPNS_9ColumnSetE@Base 3.2.1
 _ZNK8casacore15ArrayColumnDescIhE4showERSo@Base 3.2.1
 _ZNK8casacore15ArrayColumnDescIhE5cloneEv@Base 3.2.1
 _ZNK8casacore15ArrayColumnDescIhE7putDescERNS_6AipsIOE@Base 3.2.1
 _ZNK8casacore15ArrayColumnDescIhE9classNameEv@Base 3.2.1
 _ZNK8casacore15FitsKeywordList8toStringB5cxx11Ev@Base 3.2.1
 _ZNK8casacore15RecordInterface8dataTypeERKNS_13RecordFieldIdE@Base 3.2.1
 _ZNK8casacore16ScalarColumnDataIhE15getScalarColumnEPv@Base 3.2.1
 _ZNK8casacore16ScalarColumnDataIhE20getScalarColumnCellsERKNS_7RefRowsEPv@Base 3.2.1
 _ZNK8casacore16ScalarColumnDataIhE21canAccessScalarColumnERb@Base 3.2.1
 _ZNK8casacore16ScalarColumnDataIhE26canAccessScalarColumnCellsERb@Base 3.2.1
 _ZNK8casacore16ScalarColumnDataIhE3getEjPv@Base 3.2.1
 _ZNK8casacore16ScalarColumnDataIhE9isDefinedEj@Base 3.2.1
 _ZNK8casacore16ScalarColumnDescIhE10makeColumnEPNS_9ColumnSetE@Base 3.2.1
 _ZNK8casacore16ScalarColumnDescIhE16makeConcatColumnEPNS_11ConcatTableE@Base 3.2.1
 _ZNK8casacore16ScalarColumnDescIhE4showERSo@Base 3.2.1
 _ZNK8casacore16ScalarColumnDescIhE5cloneEv@Base 3.2.1
 _ZNK8casacore16ScalarColumnDescIhE7putDescERNS_6AipsIOE@Base 3.2.1
 _ZNK8casacore16ScalarColumnDescIhE9classNameEv@Base 3.2.1
 _ZNK8casacore17Allocator_private17BulkAllocatorImplINS_17new_del_allocatorINS_6MVTimeEEEE16allocator_typeidEv@Base 3.2.1
 _ZNK8casacore17Allocator_private17BulkAllocatorImplINS_17new_del_allocatorIPNS_6SlicerEEEE16allocator_typeidEv@Base 3.2.1
 _ZNK8casacore17Allocator_private17BulkAllocatorImplINS_18casacore_allocatorINS_14RecordFieldPtrINS_5ArrayINS_6StringEEEEELm32EEEE16allocator_typeidEv@Base 3.2.1
 _ZNK8casacore17Allocator_private17BulkAllocatorImplINS_18casacore_allocatorINS_14RecordFieldPtrINS_5ArrayISt7complexIdEEEEELm32EEEE16allocator_typeidEv@Base 3.2.1
 _ZNK8casacore17Allocator_private17BulkAllocatorImplINS_18casacore_allocatorINS_14RecordFieldPtrINS_5ArrayISt7complexIfEEEEELm32EEEE16allocator_typeidEv@Base 3.2.1
 _ZNK8casacore17Allocator_private17BulkAllocatorImplINS_18casacore_allocatorINS_14RecordFieldPtrINS_5ArrayIbEEEELm32EEEE16allocator_typeidEv@Base 3.2.1
 _ZNK8casacore17Allocator_private17BulkAllocatorImplINS_18casacore_allocatorINS_14RecordFieldPtrINS_5ArrayIdEEEELm32EEEE16allocator_typeidEv@Base 3.2.1
 _ZNK8casacore17Allocator_private17BulkAllocatorImplINS_18casacore_allocatorINS_14RecordFieldPtrINS_5ArrayIfEEEELm32EEEE16allocator_typeidEv@Base 3.2.1
 _ZNK8casacore17Allocator_private17BulkAllocatorImplINS_18casacore_allocatorINS_14RecordFieldPtrINS_5ArrayIhEEEELm32EEEE16allocator_typeidEv@Base 3.2.1
 _ZNK8casacore17Allocator_private17BulkAllocatorImplINS_18casacore_allocatorINS_14RecordFieldPtrINS_5ArrayIiEEEELm32EEEE16allocator_typeidEv@Base 3.2.1
 _ZNK8casacore17Allocator_private17BulkAllocatorImplINS_18casacore_allocatorINS_14RecordFieldPtrINS_5ArrayIsEEEELm32EEEE16allocator_typeidEv@Base 3.2.1
 _ZNK8casacore17Allocator_private17BulkAllocatorImplINS_18casacore_allocatorINS_14RecordFieldPtrINS_6StringEEELm32EEEE16allocator_typeidEv@Base 3.2.1
 _ZNK8casacore17Allocator_private17BulkAllocatorImplINS_18casacore_allocatorINS_14RecordFieldPtrISt7complexIdEEELm32EEEE16allocator_typeidEv@Base 3.2.1
 _ZNK8casacore17Allocator_private17BulkAllocatorImplINS_18casacore_allocatorINS_14RecordFieldPtrISt7complexIfEEELm32EEEE16allocator_typeidEv@Base 3.2.1
 _ZNK8casacore17Allocator_private17BulkAllocatorImplINS_18casacore_allocatorINS_14RecordFieldPtrIbEELm32EEEE16allocator_typeidEv@Base 3.2.1
 _ZNK8casacore17Allocator_private17BulkAllocatorImplINS_18casacore_allocatorINS_14RecordFieldPtrIdEELm32EEEE16allocator_typeidEv@Base 3.2.1
 _ZNK8casacore17Allocator_private17BulkAllocatorImplINS_18casacore_allocatorINS_14RecordFieldPtrIfEELm32EEEE16allocator_typeidEv@Base 3.2.1
 _ZNK8casacore17Allocator_private17BulkAllocatorImplINS_18casacore_allocatorINS_14RecordFieldPtrIhEELm32EEEE16allocator_typeidEv@Base 3.2.1
 _ZNK8casacore17Allocator_private17BulkAllocatorImplINS_18casacore_allocatorINS_14RecordFieldPtrIiEELm32EEEE16allocator_typeidEv@Base 3.2.1
 _ZNK8casacore17Allocator_private17BulkAllocatorImplINS_18casacore_allocatorINS_14RecordFieldPtrIsEELm32EEEE16allocator_typeidEv@Base 3.2.1
 _ZNK8casacore17Allocator_private17BulkAllocatorImplINS_18casacore_allocatorINS_16RORecordFieldPtrINS_5ArrayINS_6StringEEEEELm32EEEE16allocator_typeidEv@Base 3.2.1
 _ZNK8casacore17Allocator_private17BulkAllocatorImplINS_18casacore_allocatorINS_16RORecordFieldPtrINS_5ArrayISt7complexIdEEEEELm32EEEE16allocator_typeidEv@Base 3.2.1
 _ZNK8casacore17Allocator_private17BulkAllocatorImplINS_18casacore_allocatorINS_16RORecordFieldPtrINS_5ArrayISt7complexIfEEEEELm32EEEE16allocator_typeidEv@Base 3.2.1
 _ZNK8casacore17Allocator_private17BulkAllocatorImplINS_18casacore_allocatorINS_16RORecordFieldPtrINS_5ArrayIbEEEELm32EEEE16allocator_typeidEv@Base 3.2.1
 _ZNK8casacore17Allocator_private17BulkAllocatorImplINS_18casacore_allocatorINS_16RORecordFieldPtrINS_5ArrayIdEEEELm32EEEE16allocator_typeidEv@Base 3.2.1
 _ZNK8casacore17Allocator_private17BulkAllocatorImplINS_18casacore_allocatorINS_16RORecordFieldPtrINS_5ArrayIfEEEELm32EEEE16allocator_typeidEv@Base 3.2.1
 _ZNK8casacore17Allocator_private17BulkAllocatorImplINS_18casacore_allocatorINS_16RORecordFieldPtrINS_5ArrayIhEEEELm32EEEE16allocator_typeidEv@Base 3.2.1
 _ZNK8casacore17Allocator_private17BulkAllocatorImplINS_18casacore_allocatorINS_16RORecordFieldPtrINS_5ArrayIiEEEELm32EEEE16allocator_typeidEv@Base 3.2.1
 _ZNK8casacore17Allocator_private17BulkAllocatorImplINS_18casacore_allocatorINS_16RORecordFieldPtrINS_5ArrayIsEEEELm32EEEE16allocator_typeidEv@Base 3.2.1
 _ZNK8casacore17Allocator_private17BulkAllocatorImplINS_18casacore_allocatorINS_16RORecordFieldPtrINS_6StringEEELm32EEEE16allocator_typeidEv@Base 3.2.1
 _ZNK8casacore17Allocator_private17BulkAllocatorImplINS_18casacore_allocatorINS_16RORecordFieldPtrISt7complexIdEEELm32EEEE16allocator_typeidEv@Base 3.2.1
 _ZNK8casacore17Allocator_private17BulkAllocatorImplINS_18casacore_allocatorINS_16RORecordFieldPtrISt7complexIfEEELm32EEEE16allocator_typeidEv@Base 3.2.1
 _ZNK8casacore17Allocator_private17BulkAllocatorImplINS_18casacore_allocatorINS_16RORecordFieldPtrIbEELm32EEEE16allocator_typeidEv@Base 3.2.1
 _ZNK8casacore17Allocator_private17BulkAllocatorImplINS_18casacore_allocatorINS_16RORecordFieldPtrIdEELm32EEEE16allocator_typeidEv@Base 3.2.1
 _ZNK8casacore17Allocator_private17BulkAllocatorImplINS_18casacore_allocatorINS_16RORecordFieldPtrIfEELm32EEEE16allocator_typeidEv@Base 3.2.1
 _ZNK8casacore17Allocator_private17BulkAllocatorImplINS_18casacore_allocatorINS_16RORecordFieldPtrIhEELm32EEEE16allocator_typeidEv@Base 3.2.1
 _ZNK8casacore17Allocator_private17BulkAllocatorImplINS_18casacore_allocatorINS_16RORecordFieldPtrIiEELm32EEEE16allocator_typeidEv@Base 3.2.1
 _ZNK8casacore17Allocator_private17BulkAllocatorImplINS_18casacore_allocatorINS_16RORecordFieldPtrIsEELm32EEEE16allocator_typeidEv@Base 3.2.1
 _ZNK8casacore17Allocator_private17BulkAllocatorImplINS_18casacore_allocatorINS_6MVTimeELm32EEEE16allocator_typeidEv@Base 3.2.1
 _ZNK8casacore17Allocator_private17BulkAllocatorImplINS_18casacore_allocatorINS_6StringELm32EEEE16allocator_typeidEv@Base 3.2.1
 _ZNK8casacore17Allocator_private17BulkAllocatorImplINS_18casacore_allocatorIPNS_6SlicerELm32EEEE16allocator_typeidEv@Base 3.2.1
 _ZNK8casacore17Allocator_private17BulkAllocatorImplINS_18casacore_allocatorIPvLm32EEEE16allocator_typeidEv@Base 3.2.1
 _ZNK8casacore17Allocator_private17BulkAllocatorImplINS_18casacore_allocatorIbLm32EEEE16allocator_typeidEv@Base 3.2.1
 _ZNK8casacore17Allocator_private17BulkAllocatorImplINS_18casacore_allocatorIcLm32EEEE16allocator_typeidEv@Base 3.2.1
 _ZNK8casacore17Allocator_private17BulkAllocatorImplINS_18casacore_allocatorIdLm32EEEE16allocator_typeidEv@Base 3.2.1
 _ZNK8casacore17Allocator_private17BulkAllocatorImplINS_18casacore_allocatorIhLm32EEEE16allocator_typeidEv@Base 3.2.1
 _ZNK8casacore17Allocator_private17BulkAllocatorImplINS_18casacore_allocatorIiLm32EEEE16allocator_typeidEv@Base 3.2.1
 _ZNK8casacore17Allocator_private17BulkAllocatorImplINS_18casacore_allocatorIjLm32EEEE16allocator_typeidEv@Base 3.2.1
 _ZNK8casacore17Allocator_private17BulkAllocatorImplINS_18casacore_allocatorIsLm32EEEE16allocator_typeidEv@Base 3.2.1
 _ZNK8casacore18ConcatScalarColumnIhE15getScalarColumnEPv@Base 3.2.1
 _ZNK8casacore18ConcatScalarColumnIhE20getScalarColumnCellsERKNS_7RefRowsEPv@Base 3.2.1
 _ZNK8casacore19ReservedFitsKeyword4nameEv@Base 3.2.1
 _ZNK8casacore29ReservedFitsKeywordCollection10isreservedEPKci@Base 3.2.1
 _ZNK8casacore29ReservedFitsKeywordCollection13get_essentialEibNS_4FITS9ValueTypeEPKviRPKc@Base 3.2.1
 _ZNK8casacore29ReservedFitsKeywordCollection14essential_nameEPKci@Base 3.2.1
 _ZNK8casacore29ReservedFitsKeywordCollection14requires_valueEi@Base 3.2.1
 _ZNK8casacore29ReservedFitsKeywordCollection3getENS_4FITS12ReservedNameEbNS1_9ValueTypeEPKviRPKc@Base 3.2.1
 _ZNK8casacore29ReservedFitsKeywordCollection3getEPKcibNS_4FITS9ValueTypeEPKviRS2_@Base 3.2.1
 _ZNK8casacore29ReservedFitsKeywordCollection5anameENS_4FITS12ReservedNameE@Base 3.2.1
 _ZNK8casacore29ReservedFitsKeywordCollection5matchEiPKcibNS_4FITS9ValueTypeEPKviRS2_@Base 3.2.1
 _ZNK8casacore29ReservedFitsKeywordCollection5rulesERKNS_19ReservedFitsKeywordEPKcibNS_4FITS9ValueTypeEPKviRS5_@Base 3.2.1
 _ZNK8casacore6MatrixINS_6StringEE2okEv@Base 3.2.1
 _ZNK8casacore6MatrixIiE2okEv@Base 3.2.1
 _ZNK8casacore6String8containsEPKc@Base 3.2.1
 _ZNK8casacore6VectorIhE2okEv@Base 3.2.1
 _ZNK8casacore8FitsBase3dimEi@Base 3.2.1
 _ZNK8casacore8FitsBase4dimsEv@Base 3.2.1
 _ZNK8casacore9FITSTable10currentRowEv@Base 3.2.1
 _ZNK8casacore9FITSTable11descriptionEv@Base 3.2.1
 _ZNK8casacore9FITSTable14displayFormatsEv@Base 3.2.1
 _ZNK8casacore9FITSTable15primaryKeywordsEv@Base 3.2.1
 _ZNK8casacore9FITSTable3eofEv@Base 3.2.1
 _ZNK8casacore9FITSTable4nameEv@Base 3.2.1
 _ZNK8casacore9FITSTable4nrowEv@Base 3.2.1
 _ZNK8casacore9FITSTable5nullsEv@Base 3.2.1
 _ZNK8casacore9FITSTable5rownrEv@Base 3.2.1
 _ZNK8casacore9FITSTable5unitsEv@Base 3.2.1
 _ZNK8casacore9FITSTable7isValidEv@Base 3.2.1
 _ZNK8casacore9FITSTable7pastEndEv@Base 3.2.1
 _ZNK8casacore9FITSTable8keywordsEv@Base 3.2.1
 _ZNK8casacore9FitsArrayINS_10FitsVADescEE3dimEi@Base 3.2.1
 _ZNK8casacore9FitsArrayINS_10FitsVADescEE4dimsEv@Base 3.2.1
 _ZNK8casacore9FitsArrayINS_11FitsLogicalEE3dimEi@Base 3.2.1
 _ZNK8casacore9FitsArrayINS_11FitsLogicalEE4dimsEv@Base 3.2.1
 _ZNK8casacore9FitsArrayINS_7FitsBitEE3dimEi@Base 3.2.1
 _ZNK8casacore9FitsArrayINS_7FitsBitEE4dimsEv@Base 3.2.1
 _ZNK8casacore9FitsArrayINS_8IComplexEE3dimEi@Base 3.2.1
 _ZNK8casacore9FitsArrayINS_8IComplexEE4dimsEv@Base 3.2.1
 _ZNK8casacore9FitsArrayISt7complexIdEE3dimEi@Base 3.2.1
 _ZNK8casacore9FitsArrayISt7complexIdEE4dimsEv@Base 3.2.1
 _ZNK8casacore9FitsArrayISt7complexIfEE3dimEi@Base 3.2.1
 _ZNK8casacore9FitsArrayISt7complexIfEE4dimsEv@Base 3.2.1
 _ZNK8casacore9FitsArrayIcE3dimEi@Base 3.2.1
 _ZNK8casacore9FitsArrayIcE4dimsEv@Base 3.2.1
 _ZNK8casacore9FitsArrayIdE3dimEi@Base 3.2.1
 _ZNK8casacore9FitsArrayIdE4dimsEv@Base 3.2.1
 _ZNK8casacore9FitsArrayIfE3dimEi@Base 3.2.1
 _ZNK8casacore9FitsArrayIfE4dimsEv@Base 3.2.1
 _ZNK8casacore9FitsArrayIhE3dimEi@Base 3.2.1
 _ZNK8casacore9FitsArrayIhE4dimsEv@Base 3.2.1
 _ZNK8casacore9FitsArrayIiE3dimEi@Base 3.2.1
 _ZNK8casacore9FitsArrayIiE4dimsEv@Base 3.2.1
 _ZNK8casacore9FitsArrayIsE3dimEi@Base 3.2.1
 _ZNK8casacore9FitsArrayIsE4dimsEv@Base 3.2.1
 _ZNK8casacore9FitsFieldINS_10FitsVADescEE13fitsfieldsizeEv@Base 3.2.1
 _ZNK8casacore9FitsFieldINS_10FitsVADescEE14localfieldsizeEv@Base 3.2.1
 _ZNK8casacore9FitsFieldINS_11FitsLogicalEE13fitsfieldsizeEv@Base 3.2.1
 _ZNK8casacore9FitsFieldINS_11FitsLogicalEE14localfieldsizeEv@Base 3.2.1
 _ZNK8casacore9FitsFieldINS_7FitsBitEE13fitsfieldsizeEv@Base 3.2.1
 _ZNK8casacore9FitsFieldINS_7FitsBitEE14localfieldsizeEv@Base 3.2.1
 _ZNK8casacore9FitsFieldINS_8IComplexEE13fitsfieldsizeEv@Base 3.2.1
 _ZNK8casacore9FitsFieldINS_8IComplexEE14localfieldsizeEv@Base 3.2.1
 _ZNK8casacore9FitsFieldISt7complexIdEE13fitsfieldsizeEv@Base 3.2.1
 _ZNK8casacore9FitsFieldISt7complexIdEE14localfieldsizeEv@Base 3.2.1
 _ZNK8casacore9FitsFieldISt7complexIfEE13fitsfieldsizeEv@Base 3.2.1
 _ZNK8casacore9FitsFieldISt7complexIfEE14localfieldsizeEv@Base 3.2.1
 _ZNK8casacore9FitsFieldIcE13fitsfieldsizeEv@Base 3.2.1
 _ZNK8casacore9FitsFieldIcE14localfieldsizeEv@Base 3.2.1
 _ZNK8casacore9FitsFieldIdE13fitsfieldsizeEv@Base 3.2.1
 _ZNK8casacore9FitsFieldIdE14localfieldsizeEv@Base 3.2.1
 _ZNK8casacore9FitsFieldIfE13fitsfieldsizeEv@Base 3.2.1
 _ZNK8casacore9FitsFieldIfE14localfieldsizeEv@Base 3.2.1
 _ZNK8casacore9FitsFieldIhE13fitsfieldsizeEv@Base 3.2.1
 _ZNK8casacore9FitsFieldIhE14localfieldsizeEv@Base 3.2.1
 _ZNK8casacore9FitsFieldIiE13fitsfieldsizeEv@Base 3.2.1
 _ZNK8casacore9FitsFieldIiE14localfieldsizeEv@Base 3.2.1
 _ZNK8casacore9FitsFieldIsE13fitsfieldsizeEv@Base 3.2.1
 _ZNK8casacore9FitsFieldIsE14localfieldsizeEv@Base 3.2.1
 _ZNKSt5ctypeIcE8do_widenEc@Base 3.2.1
 _ZNKSt8_Rb_treeIN8casacore6StringESt4pairIKS1_NS0_10CountedPtrINS0_10ColumnDescEEEESt10_Select1stIS7_ESt4lessIS1_ESaIS7_EE4findERS3_@Base 3.2.1
 _ZNSt14__shared_countILN9__gnu_cxx12_Lock_policyE2EEaSERKS2_@Base 3.2.1
 _ZNSt15_Sp_counted_ptrIPN8casacore11BaseCompareELN9__gnu_cxx12_Lock_policyE2EE10_M_destroyEv@Base 3.2.1
 _ZNSt15_Sp_counted_ptrIPN8casacore11BaseCompareELN9__gnu_cxx12_Lock_policyE2EE10_M_disposeEv@Base 3.2.1
 _ZNSt15_Sp_counted_ptrIPN8casacore11BaseCompareELN9__gnu_cxx12_Lock_policyE2EE14_M_get_deleterERKSt9type_info@Base 3.2.1
 _ZNSt15_Sp_counted_ptrIPN8casacore11BaseCompareELN9__gnu_cxx12_Lock_policyE2EED0Ev@Base 3.2.1
 _ZNSt15_Sp_counted_ptrIPN8casacore11BaseCompareELN9__gnu_cxx12_Lock_policyE2EED1Ev@Base 3.2.1
 _ZNSt15_Sp_counted_ptrIPN8casacore11BaseCompareELN9__gnu_cxx12_Lock_policyE2EED2Ev@Base 3.2.1
 _ZNSt15_Sp_counted_ptrIPN8casacore5BlockIhEELN9__gnu_cxx12_Lock_policyE2EE10_M_destroyEv@Base 3.2.1
 _ZNSt15_Sp_counted_ptrIPN8casacore5BlockIhEELN9__gnu_cxx12_Lock_policyE2EE10_M_disposeEv@Base 3.2.1
 _ZNSt15_Sp_counted_ptrIPN8casacore5BlockIhEELN9__gnu_cxx12_Lock_policyE2EE14_M_get_deleterERKSt9type_info@Base 3.2.1
 _ZNSt15_Sp_counted_ptrIPN8casacore5BlockIhEELN9__gnu_cxx12_Lock_policyE2EED0Ev@Base 3.2.1
 _ZNSt15_Sp_counted_ptrIPN8casacore5BlockIhEELN9__gnu_cxx12_Lock_policyE2EED1Ev@Base 3.2.1
 _ZNSt15_Sp_counted_ptrIPN8casacore5BlockIhEELN9__gnu_cxx12_Lock_policyE2EED2Ev@Base 3.2.1
 _ZNSt16_Sp_counted_baseILN9__gnu_cxx12_Lock_policyE2EE10_M_releaseEv@Base 3.2.1
 _ZNSt19_Sp_counted_deleterIPN8casacore13RecordDescRepENS0_10CountedPtrIS1_E7DeleterIS1_EESaIvELN9__gnu_cxx12_Lock_policyE2EE10_M_destroyEv@Base 3.2.1
 _ZNSt19_Sp_counted_deleterIPN8casacore13RecordDescRepENS0_10CountedPtrIS1_E7DeleterIS1_EESaIvELN9__gnu_cxx12_Lock_policyE2EE10_M_disposeEv@Base 3.2.1
 _ZNSt19_Sp_counted_deleterIPN8casacore13RecordDescRepENS0_10CountedPtrIS1_E7DeleterIS1_EESaIvELN9__gnu_cxx12_Lock_policyE2EE14_M_get_deleterERKSt9type_info@Base 3.2.1
 _ZNSt19_Sp_counted_deleterIPN8casacore13RecordDescRepENS0_10CountedPtrIS1_E7DeleterIS1_EESaIvELN9__gnu_cxx12_Lock_policyE2EED0Ev@Base 3.2.1
 _ZNSt19_Sp_counted_deleterIPN8casacore13RecordDescRepENS0_10CountedPtrIS1_E7DeleterIS1_EESaIvELN9__gnu_cxx12_Lock_policyE2EED1Ev@Base 3.2.1
 _ZNSt19_Sp_counted_deleterIPN8casacore13RecordDescRepENS0_10CountedPtrIS1_E7DeleterIS1_EESaIvELN9__gnu_cxx12_Lock_policyE2EED2Ev@Base 3.2.1
 _ZNSt3mapIN8casacore6StringEiSt4lessIS1_ESaISt4pairIKS1_iEEEixERS5_@Base 3.2.1
 _ZNSt6vectorIN8casacore6StringESaIS1_EE17_M_default_appendEm@Base 3.2.1
 _ZNSt6vectorIN8casacore6StringESaIS1_EE17_M_realloc_insertIJRKS1_EEEvN9__gnu_cxx17__normal_iteratorIPS1_S3_EEDpOT_@Base 3.2.1
 _ZNSt7__cxx1115basic_stringbufIcSt11char_traitsIcESaIcEED0Ev@Base 3.2.1
 _ZNSt7__cxx1115basic_stringbufIcSt11char_traitsIcESaIcEED1Ev@Base 3.2.1
 _ZNSt7__cxx1115basic_stringbufIcSt11char_traitsIcESaIcEED2Ev@Base 3.2.1
 _ZNSt8_Rb_treeIN8casacore6StringESt4pairIKS1_dESt10_Select1stIS4_ESt4lessIS1_ESaIS4_EE24_M_get_insert_unique_posERS3_@Base 3.2.1
 _ZNSt8_Rb_treeIN8casacore6StringESt4pairIKS1_dESt10_Select1stIS4_ESt4lessIS1_ESaIS4_EE29_M_get_insert_hint_unique_posESt23_Rb_tree_const_iteratorIS4_ERS3_@Base 3.2.1
 _ZNSt8_Rb_treeIN8casacore6StringESt4pairIKS1_iESt10_Select1stIS4_ESt4lessIS1_ESaIS4_EE24_M_get_insert_unique_posERS3_@Base 3.2.1
 _ZNSt8_Rb_treeIN8casacore6StringESt4pairIKS1_iESt10_Select1stIS4_ESt4lessIS1_ESaIS4_EE29_M_get_insert_hint_unique_posESt23_Rb_tree_const_iteratorIS4_ERS3_@Base 3.2.1
 _ZNSt8_Rb_treeIN8casacore6StringESt4pairIKS1_iESt10_Select1stIS4_ESt4lessIS1_ESaIS4_EE4findERS3_@Base 3.2.1
 _ZNSt8_Rb_treeIN8casacore6StringESt4pairIKS1_iESt10_Select1stIS4_ESt4lessIS1_ESaIS4_EE8_M_eraseEPSt13_Rb_tree_nodeIS4_E@Base 3.2.1
 _ZNSt8_Rb_treeIiSt4pairIKiN8casacore6StringEESt10_Select1stIS4_ESt4lessIiESaIS4_EE16_M_insert_uniqueIS0_IiS3_EEES0_ISt17_Rb_tree_iteratorIS4_EbEOT_@Base 3.2.1-1kern1
 _ZNSt8_Rb_treeIiSt4pairIKiN8casacore6StringEESt10_Select1stIS4_ESt4lessIiESaIS4_EE24_M_get_insert_unique_posERS1_@Base 3.2.1
 _ZNSt8_Rb_treeIiSt4pairIKiN8casacore6StringEESt10_Select1stIS4_ESt4lessIiESaIS4_EE29_M_get_insert_hint_unique_posESt23_Rb_tree_const_iteratorIS4_ERS1_@Base 3.2.1
 _ZNSt8_Rb_treeIiSt4pairIKiN8casacore6StringEESt10_Select1stIS4_ESt4lessIiESaIS4_EE8_M_eraseEPSt13_Rb_tree_nodeIS4_E@Base 3.2.1
 _ZTIN8casacore10BlockInputE@Base 3.2.1
 _ZTIN8casacore10FitsOutputE@Base 3.2.1
 _ZTIN8casacore10ObjCompareIhEE@Base 3.2.1
 _ZTIN8casacore11ArrayColumnIhEE@Base 3.2.1
 _ZTIN8casacore11BaseCompareE@Base 3.2.1
 _ZTIN8casacore11BinaryTableE@Base 3.2.1
 _ZTIN8casacore11BlockOutputE@Base 3.2.1
 _ZTIN8casacore11FITSTabularE@Base 3.2.1
 _ZTIN8casacore11SDFITSTableE@Base 3.2.1
 _ZTIN8casacore12FitsStdInputE@Base 3.2.1
 _ZTIN8casacore12PrimaryArrayIdEE@Base 3.2.1
 _ZTIN8casacore12PrimaryArrayIfEE@Base 3.2.1
 _ZTIN8casacore12PrimaryArrayIhEE@Base 3.2.1
 _ZTIN8casacore12PrimaryArrayIiEE@Base 3.2.1
 _ZTIN8casacore12PrimaryArrayIsEE@Base 3.2.1
 _ZTIN8casacore12PrimaryGroupIdEE@Base 3.2.1
 _ZTIN8casacore12PrimaryGroupIfEE@Base 3.2.1
 _ZTIN8casacore12PrimaryGroupIhEE@Base 3.2.1
 _ZTIN8casacore12PrimaryGroupIiEE@Base 3.2.1
 _ZTIN8casacore12PrimaryGroupIsEE@Base 3.2.1
 _ZTIN8casacore12PrimaryTableIdEE@Base 3.2.1
 _ZTIN8casacore12PrimaryTableIfEE@Base 3.2.1
 _ZTIN8casacore12PrimaryTableIhEE@Base 3.2.1
 _ZTIN8casacore12PrimaryTableIiEE@Base 3.2.1
 _ZTIN8casacore12PrimaryTableIsEE@Base 3.2.1
 _ZTIN8casacore12ScalarColumnIhEE@Base 3.2.1
 _ZTIN8casacore13BaseAllocatorINS_6MVTimeENS_15NewDelAllocatorIS1_EEEE@Base 3.2.1
 _ZTIN8casacore13BaseAllocatorINS_6MVTimeENS_16AlignedAllocatorIS1_Lm32EEEEE@Base 3.2.1
 _ZTIN8casacore13BaseAllocatorIPNS_6SlicerENS_15NewDelAllocatorIS2_EEEE@Base 3.2.1
 _ZTIN8casacore13BaseAllocatorIPNS_6SlicerENS_16AlignedAllocatorIS2_Lm32EEEEE@Base 3.2.1
 _ZTIN8casacore13FitsDiskInputE@Base 3.2.1
 _ZTIN8casacore13FitsStdOutputE@Base 3.2.1
 _ZTIN8casacore14FITSMultiTableE@Base 3.2.1
 _ZTIN8casacore14FITSTimedTableE@Base 3.2.1
 _ZTIN8casacore14FitsDiskOutputE@Base 3.2.1
 _ZTIN8casacore14FitsTape9InputE@Base 3.2.1
 _ZTIN8casacore14HeaderDataUnitE@Base 3.2.1
 _ZTIN8casacore14ImageExtensionIdEE@Base 3.2.1
 _ZTIN8casacore14ImageExtensionIfEE@Base 3.2.1
 _ZTIN8casacore14ImageExtensionIhEE@Base 3.2.1
 _ZTIN8casacore14ImageExtensionIiEE@Base 3.2.1
 _ZTIN8casacore14ImageExtensionIsEE@Base 3.2.1
 _ZTIN8casacore14RecordFieldPtrINS_5ArrayINS_6StringEEEEE@Base 3.2.1
 _ZTIN8casacore14RecordFieldPtrINS_5ArrayISt7complexIdEEEEE@Base 3.2.1
 _ZTIN8casacore14RecordFieldPtrINS_5ArrayISt7complexIfEEEEE@Base 3.2.1
 _ZTIN8casacore14RecordFieldPtrINS_5ArrayIbEEEE@Base 3.2.1
 _ZTIN8casacore14RecordFieldPtrINS_5ArrayIdEEEE@Base 3.2.1
 _ZTIN8casacore14RecordFieldPtrINS_5ArrayIfEEEE@Base 3.2.1
 _ZTIN8casacore14RecordFieldPtrINS_5ArrayIhEEEE@Base 3.2.1
 _ZTIN8casacore14RecordFieldPtrINS_5ArrayIiEEEE@Base 3.2.1
 _ZTIN8casacore14RecordFieldPtrINS_5ArrayIsEEEE@Base 3.2.1
 _ZTIN8casacore14RecordFieldPtrINS_6StringEEE@Base 3.2.1
 _ZTIN8casacore14RecordFieldPtrISt7complexIdEEE@Base 3.2.1
 _ZTIN8casacore14RecordFieldPtrISt7complexIfEEE@Base 3.2.1
 _ZTIN8casacore14RecordFieldPtrIbEE@Base 3.2.1
 _ZTIN8casacore14RecordFieldPtrIdEE@Base 3.2.1
 _ZTIN8casacore14RecordFieldPtrIfEE@Base 3.2.1
 _ZTIN8casacore14RecordFieldPtrIhEE@Base 3.2.1
 _ZTIN8casacore14RecordFieldPtrIiEE@Base 3.2.1
 _ZTIN8casacore14RecordFieldPtrIsEE@Base 3.2.1
 _ZTIN8casacore15ArrayColumnDataIhEE@Base 3.2.1
 _ZTIN8casacore15ArrayColumnDescIhEE@Base 3.2.1
 _ZTIN8casacore15FITSFieldCopierE@Base 3.2.1
 _ZTIN8casacore15FitsTape9OutputE@Base 3.2.1
 _ZTIN8casacore15NewDelAllocatorINS_6MVTimeEEE@Base 3.2.1
 _ZTIN8casacore15NewDelAllocatorIPNS_6SlicerEEE@Base 3.2.1
 _ZTIN8casacore16AlignedAllocatorINS_6MVTimeELm32EEE@Base 3.2.1
 _ZTIN8casacore16AlignedAllocatorIPNS_6SlicerELm32EEE@Base 3.2.1
 _ZTIN8casacore16DefaultAllocatorINS_6MVTimeEEE@Base 3.2.1
 _ZTIN8casacore16DefaultAllocatorIPNS_6SlicerEEE@Base 3.2.1
 _ZTIN8casacore16ScalarColumnDataIhEE@Base 3.2.1
 _ZTIN8casacore16ScalarColumnDescIhEE@Base 3.2.1
 _ZTIN8casacore17AbstractAllocatorINS_6MVTimeEEE@Base 3.2.1
 _ZTIN8casacore17AbstractAllocatorIPNS_6SlicerEEE@Base 3.2.1
 _ZTIN8casacore17Allocator_private13BulkAllocatorINS_14RecordFieldPtrINS_5ArrayINS_6StringEEEEEEE@Base 3.2.1
 _ZTIN8casacore17Allocator_private13BulkAllocatorINS_14RecordFieldPtrINS_5ArrayISt7complexIdEEEEEEE@Base 3.2.1
 _ZTIN8casacore17Allocator_private13BulkAllocatorINS_14RecordFieldPtrINS_5ArrayISt7complexIfEEEEEEE@Base 3.2.1
 _ZTIN8casacore17Allocator_private13BulkAllocatorINS_14RecordFieldPtrINS_5ArrayIbEEEEEE@Base 3.2.1
 _ZTIN8casacore17Allocator_private13BulkAllocatorINS_14RecordFieldPtrINS_5ArrayIdEEEEEE@Base 3.2.1
 _ZTIN8casacore17Allocator_private13BulkAllocatorINS_14RecordFieldPtrINS_5ArrayIfEEEEEE@Base 3.2.1
 _ZTIN8casacore17Allocator_private13BulkAllocatorINS_14RecordFieldPtrINS_5ArrayIhEEEEEE@Base 3.2.1
 _ZTIN8casacore17Allocator_private13BulkAllocatorINS_14RecordFieldPtrINS_5ArrayIiEEEEEE@Base 3.2.1
 _ZTIN8casacore17Allocator_private13BulkAllocatorINS_14RecordFieldPtrINS_5ArrayIsEEEEEE@Base 3.2.1
 _ZTIN8casacore17Allocator_private13BulkAllocatorINS_14RecordFieldPtrINS_6StringEEEEE@Base 3.2.1
 _ZTIN8casacore17Allocator_private13BulkAllocatorINS_14RecordFieldPtrISt7complexIdEEEEE@Base 3.2.1
 _ZTIN8casacore17Allocator_private13BulkAllocatorINS_14RecordFieldPtrISt7complexIfEEEEE@Base 3.2.1
 _ZTIN8casacore17Allocator_private13BulkAllocatorINS_14RecordFieldPtrIbEEEE@Base 3.2.1
 _ZTIN8casacore17Allocator_private13BulkAllocatorINS_14RecordFieldPtrIdEEEE@Base 3.2.1
 _ZTIN8casacore17Allocator_private13BulkAllocatorINS_14RecordFieldPtrIfEEEE@Base 3.2.1
 _ZTIN8casacore17Allocator_private13BulkAllocatorINS_14RecordFieldPtrIhEEEE@Base 3.2.1
 _ZTIN8casacore17Allocator_private13BulkAllocatorINS_14RecordFieldPtrIiEEEE@Base 3.2.1
 _ZTIN8casacore17Allocator_private13BulkAllocatorINS_14RecordFieldPtrIsEEEE@Base 3.2.1
 _ZTIN8casacore17Allocator_private13BulkAllocatorINS_16RORecordFieldPtrINS_5ArrayINS_6StringEEEEEEE@Base 3.2.1
 _ZTIN8casacore17Allocator_private13BulkAllocatorINS_16RORecordFieldPtrINS_5ArrayISt7complexIdEEEEEEE@Base 3.2.1
 _ZTIN8casacore17Allocator_private13BulkAllocatorINS_16RORecordFieldPtrINS_5ArrayISt7complexIfEEEEEEE@Base 3.2.1
 _ZTIN8casacore17Allocator_private13BulkAllocatorINS_16RORecordFieldPtrINS_5ArrayIbEEEEEE@Base 3.2.1
 _ZTIN8casacore17Allocator_private13BulkAllocatorINS_16RORecordFieldPtrINS_5ArrayIdEEEEEE@Base 3.2.1
 _ZTIN8casacore17Allocator_private13BulkAllocatorINS_16RORecordFieldPtrINS_5ArrayIfEEEEEE@Base 3.2.1
 _ZTIN8casacore17Allocator_private13BulkAllocatorINS_16RORecordFieldPtrINS_5ArrayIhEEEEEE@Base 3.2.1
 _ZTIN8casacore17Allocator_private13BulkAllocatorINS_16RORecordFieldPtrINS_5ArrayIiEEEEEE@Base 3.2.1
 _ZTIN8casacore17Allocator_private13BulkAllocatorINS_16RORecordFieldPtrINS_5ArrayIsEEEEEE@Base 3.2.1
 _ZTIN8casacore17Allocator_private13BulkAllocatorINS_16RORecordFieldPtrINS_6StringEEEEE@Base 3.2.1
 _ZTIN8casacore17Allocator_private13BulkAllocatorINS_16RORecordFieldPtrISt7complexIdEEEEE@Base 3.2.1
 _ZTIN8casacore17Allocator_private13BulkAllocatorINS_16RORecordFieldPtrISt7complexIfEEEEE@Base 3.2.1
 _ZTIN8casacore17Allocator_private13BulkAllocatorINS_16RORecordFieldPtrIbEEEE@Base 3.2.1
 _ZTIN8casacore17Allocator_private13BulkAllocatorINS_16RORecordFieldPtrIdEEEE@Base 3.2.1
 _ZTIN8casacore17Allocator_private13BulkAllocatorINS_16RORecordFieldPtrIfEEEE@Base 3.2.1
 _ZTIN8casacore17Allocator_private13BulkAllocatorINS_16RORecordFieldPtrIhEEEE@Base 3.2.1
 _ZTIN8casacore17Allocator_private13BulkAllocatorINS_16RORecordFieldPtrIiEEEE@Base 3.2.1
 _ZTIN8casacore17Allocator_private13BulkAllocatorINS_16RORecordFieldPtrIsEEEE@Base 3.2.1
 _ZTIN8casacore17Allocator_private13BulkAllocatorINS_6MVTimeEEE@Base 3.2.1
 _ZTIN8casacore17Allocator_private13BulkAllocatorINS_6StringEEE@Base 3.2.1
 _ZTIN8casacore17Allocator_private13BulkAllocatorIPNS_6SlicerEEE@Base 3.2.1
 _ZTIN8casacore17Allocator_private13BulkAllocatorIPvEE@Base 3.2.1
 _ZTIN8casacore17Allocator_private13BulkAllocatorIbEE@Base 3.2.1
 _ZTIN8casacore17Allocator_private13BulkAllocatorIcEE@Base 3.2.1
 _ZTIN8casacore17Allocator_private13BulkAllocatorIdEE@Base 3.2.1
 _ZTIN8casacore17Allocator_private13BulkAllocatorIhEE@Base 3.2.1
 _ZTIN8casacore17Allocator_private13BulkAllocatorIiEE@Base 3.2.1
 _ZTIN8casacore17Allocator_private13BulkAllocatorIjEE@Base 3.2.1
 _ZTIN8casacore17Allocator_private13BulkAllocatorIsEE@Base 3.2.1
 _ZTIN8casacore17Allocator_private17BulkAllocatorImplINS_17new_del_allocatorINS_6MVTimeEEEEE@Base 3.2.1
 _ZTIN8casacore17Allocator_private17BulkAllocatorImplINS_17new_del_allocatorIPNS_6SlicerEEEEE@Base 3.2.1
 _ZTIN8casacore17Allocator_private17BulkAllocatorImplINS_18casacore_allocatorINS_14RecordFieldPtrINS_5ArrayINS_6StringEEEEELm32EEEEE@Base 3.2.1
 _ZTIN8casacore17Allocator_private17BulkAllocatorImplINS_18casacore_allocatorINS_14RecordFieldPtrINS_5ArrayISt7complexIdEEEEELm32EEEEE@Base 3.2.1
 _ZTIN8casacore17Allocator_private17BulkAllocatorImplINS_18casacore_allocatorINS_14RecordFieldPtrINS_5ArrayISt7complexIfEEEEELm32EEEEE@Base 3.2.1
 _ZTIN8casacore17Allocator_private17BulkAllocatorImplINS_18casacore_allocatorINS_14RecordFieldPtrINS_5ArrayIbEEEELm32EEEEE@Base 3.2.1
 _ZTIN8casacore17Allocator_private17BulkAllocatorImplINS_18casacore_allocatorINS_14RecordFieldPtrINS_5ArrayIdEEEELm32EEEEE@Base 3.2.1
 _ZTIN8casacore17Allocator_private17BulkAllocatorImplINS_18casacore_allocatorINS_14RecordFieldPtrINS_5ArrayIfEEEELm32EEEEE@Base 3.2.1
 _ZTIN8casacore17Allocator_private17BulkAllocatorImplINS_18casacore_allocatorINS_14RecordFieldPtrINS_5ArrayIhEEEELm32EEEEE@Base 3.2.1
 _ZTIN8casacore17Allocator_private17BulkAllocatorImplINS_18casacore_allocatorINS_14RecordFieldPtrINS_5ArrayIiEEEELm32EEEEE@Base 3.2.1
 _ZTIN8casacore17Allocator_private17BulkAllocatorImplINS_18casacore_allocatorINS_14RecordFieldPtrINS_5ArrayIsEEEELm32EEEEE@Base 3.2.1
 _ZTIN8casacore17Allocator_private17BulkAllocatorImplINS_18casacore_allocatorINS_14RecordFieldPtrINS_6StringEEELm32EEEEE@Base 3.2.1
 _ZTIN8casacore17Allocator_private17BulkAllocatorImplINS_18casacore_allocatorINS_14RecordFieldPtrISt7complexIdEEELm32EEEEE@Base 3.2.1
 _ZTIN8casacore17Allocator_private17BulkAllocatorImplINS_18casacore_allocatorINS_14RecordFieldPtrISt7complexIfEEELm32EEEEE@Base 3.2.1
 _ZTIN8casacore17Allocator_private17BulkAllocatorImplINS_18casacore_allocatorINS_14RecordFieldPtrIbEELm32EEEEE@Base 3.2.1
 _ZTIN8casacore17Allocator_private17BulkAllocatorImplINS_18casacore_allocatorINS_14RecordFieldPtrIdEELm32EEEEE@Base 3.2.1
 _ZTIN8casacore17Allocator_private17BulkAllocatorImplINS_18casacore_allocatorINS_14RecordFieldPtrIfEELm32EEEEE@Base 3.2.1
 _ZTIN8casacore17Allocator_private17BulkAllocatorImplINS_18casacore_allocatorINS_14RecordFieldPtrIhEELm32EEEEE@Base 3.2.1
 _ZTIN8casacore17Allocator_private17BulkAllocatorImplINS_18casacore_allocatorINS_14RecordFieldPtrIiEELm32EEEEE@Base 3.2.1
 _ZTIN8casacore17Allocator_private17BulkAllocatorImplINS_18casacore_allocatorINS_14RecordFieldPtrIsEELm32EEEEE@Base 3.2.1
 _ZTIN8casacore17Allocator_private17BulkAllocatorImplINS_18casacore_allocatorINS_16RORecordFieldPtrINS_5ArrayINS_6StringEEEEELm32EEEEE@Base 3.2.1
 _ZTIN8casacore17Allocator_private17BulkAllocatorImplINS_18casacore_allocatorINS_16RORecordFieldPtrINS_5ArrayISt7complexIdEEEEELm32EEEEE@Base 3.2.1
 _ZTIN8casacore17Allocator_private17BulkAllocatorImplINS_18casacore_allocatorINS_16RORecordFieldPtrINS_5ArrayISt7complexIfEEEEELm32EEEEE@Base 3.2.1
 _ZTIN8casacore17Allocator_private17BulkAllocatorImplINS_18casacore_allocatorINS_16RORecordFieldPtrINS_5ArrayIbEEEELm32EEEEE@Base 3.2.1
 _ZTIN8casacore17Allocator_private17BulkAllocatorImplINS_18casacore_allocatorINS_16RORecordFieldPtrINS_5ArrayIdEEEELm32EEEEE@Base 3.2.1
 _ZTIN8casacore17Allocator_private17BulkAllocatorImplINS_18casacore_allocatorINS_16RORecordFieldPtrINS_5ArrayIfEEEELm32EEEEE@Base 3.2.1
 _ZTIN8casacore17Allocator_private17BulkAllocatorImplINS_18casacore_allocatorINS_16RORecordFieldPtrINS_5ArrayIhEEEELm32EEEEE@Base 3.2.1
 _ZTIN8casacore17Allocator_private17BulkAllocatorImplINS_18casacore_allocatorINS_16RORecordFieldPtrINS_5ArrayIiEEEELm32EEEEE@Base 3.2.1
 _ZTIN8casacore17Allocator_private17BulkAllocatorImplINS_18casacore_allocatorINS_16RORecordFieldPtrINS_5ArrayIsEEEELm32EEEEE@Base 3.2.1
 _ZTIN8casacore17Allocator_private17BulkAllocatorImplINS_18casacore_allocatorINS_16RORecordFieldPtrINS_6StringEEELm32EEEEE@Base 3.2.1
 _ZTIN8casacore17Allocator_private17BulkAllocatorImplINS_18casacore_allocatorINS_16RORecordFieldPtrISt7complexIdEEELm32EEEEE@Base 3.2.1
 _ZTIN8casacore17Allocator_private17BulkAllocatorImplINS_18casacore_allocatorINS_16RORecordFieldPtrISt7complexIfEEELm32EEEEE@Base 3.2.1
 _ZTIN8casacore17Allocator_private17BulkAllocatorImplINS_18casacore_allocatorINS_16RORecordFieldPtrIbEELm32EEEEE@Base 3.2.1
 _ZTIN8casacore17Allocator_private17BulkAllocatorImplINS_18casacore_allocatorINS_16RORecordFieldPtrIdEELm32EEEEE@Base 3.2.1
 _ZTIN8casacore17Allocator_private17BulkAllocatorImplINS_18casacore_allocatorINS_16RORecordFieldPtrIfEELm32EEEEE@Base 3.2.1
 _ZTIN8casacore17Allocator_private17BulkAllocatorImplINS_18casacore_allocatorINS_16RORecordFieldPtrIhEELm32EEEEE@Base 3.2.1
 _ZTIN8casacore17Allocator_private17BulkAllocatorImplINS_18casacore_allocatorINS_16RORecordFieldPtrIiEELm32EEEEE@Base 3.2.1
 _ZTIN8casacore17Allocator_private17BulkAllocatorImplINS_18casacore_allocatorINS_16RORecordFieldPtrIsEELm32EEEEE@Base 3.2.1
 _ZTIN8casacore17Allocator_private17BulkAllocatorImplINS_18casacore_allocatorINS_6MVTimeELm32EEEEE@Base 3.2.1
 _ZTIN8casacore17Allocator_private17BulkAllocatorImplINS_18casacore_allocatorINS_6StringELm32EEEEE@Base 3.2.1
 _ZTIN8casacore17Allocator_private17BulkAllocatorImplINS_18casacore_allocatorIPNS_6SlicerELm32EEEEE@Base 3.2.1
 _ZTIN8casacore17Allocator_private17BulkAllocatorImplINS_18casacore_allocatorIPvLm32EEEEE@Base 3.2.1
 _ZTIN8casacore17Allocator_private17BulkAllocatorImplINS_18casacore_allocatorIbLm32EEEEE@Base 3.2.1
 _ZTIN8casacore17Allocator_private17BulkAllocatorImplINS_18casacore_allocatorIcLm32EEEEE@Base 3.2.1
 _ZTIN8casacore17Allocator_private17BulkAllocatorImplINS_18casacore_allocatorIdLm32EEEEE@Base 3.2.1
 _ZTIN8casacore17Allocator_private17BulkAllocatorImplINS_18casacore_allocatorIhLm32EEEEE@Base 3.2.1
 _ZTIN8casacore17Allocator_private17BulkAllocatorImplINS_18casacore_allocatorIiLm32EEEEE@Base 3.2.1
 _ZTIN8casacore17Allocator_private17BulkAllocatorImplINS_18casacore_allocatorIjLm32EEEEE@Base 3.2.1
 _ZTIN8casacore17Allocator_private17BulkAllocatorImplINS_18casacore_allocatorIsLm32EEEEE@Base 3.2.1
 _ZTIN8casacore17new_del_allocatorINS_6MVTimeEEE@Base 3.2.1
 _ZTIN8casacore17new_del_allocatorIPNS_6SlicerEEE@Base 3.2.1
 _ZTIN8casacore18ConcatScalarColumnIhEE@Base 3.2.1
 _ZTIN8casacore18casacore_allocatorINS_14RecordFieldPtrINS_5ArrayINS_6StringEEEEELm32EEE@Base 3.2.1
 _ZTIN8casacore18casacore_allocatorINS_14RecordFieldPtrINS_5ArrayISt7complexIdEEEEELm32EEE@Base 3.2.1
 _ZTIN8casacore18casacore_allocatorINS_14RecordFieldPtrINS_5ArrayISt7complexIfEEEEELm32EEE@Base 3.2.1
 _ZTIN8casacore18casacore_allocatorINS_14RecordFieldPtrINS_5ArrayIbEEEELm32EEE@Base 3.2.1
 _ZTIN8casacore18casacore_allocatorINS_14RecordFieldPtrINS_5ArrayIdEEEELm32EEE@Base 3.2.1
 _ZTIN8casacore18casacore_allocatorINS_14RecordFieldPtrINS_5ArrayIfEEEELm32EEE@Base 3.2.1
 _ZTIN8casacore18casacore_allocatorINS_14RecordFieldPtrINS_5ArrayIhEEEELm32EEE@Base 3.2.1
 _ZTIN8casacore18casacore_allocatorINS_14RecordFieldPtrINS_5ArrayIiEEEELm32EEE@Base 3.2.1
 _ZTIN8casacore18casacore_allocatorINS_14RecordFieldPtrINS_5ArrayIsEEEELm32EEE@Base 3.2.1
 _ZTIN8casacore18casacore_allocatorINS_14RecordFieldPtrINS_6StringEEELm32EEE@Base 3.2.1
 _ZTIN8casacore18casacore_allocatorINS_14RecordFieldPtrISt7complexIdEEELm32EEE@Base 3.2.1
 _ZTIN8casacore18casacore_allocatorINS_14RecordFieldPtrISt7complexIfEEELm32EEE@Base 3.2.1
 _ZTIN8casacore18casacore_allocatorINS_14RecordFieldPtrIbEELm32EEE@Base 3.2.1
 _ZTIN8casacore18casacore_allocatorINS_14RecordFieldPtrIdEELm32EEE@Base 3.2.1
 _ZTIN8casacore18casacore_allocatorINS_14RecordFieldPtrIfEELm32EEE@Base 3.2.1
 _ZTIN8casacore18casacore_allocatorINS_14RecordFieldPtrIhEELm32EEE@Base 3.2.1
 _ZTIN8casacore18casacore_allocatorINS_14RecordFieldPtrIiEELm32EEE@Base 3.2.1
 _ZTIN8casacore18casacore_allocatorINS_14RecordFieldPtrIsEELm32EEE@Base 3.2.1
 _ZTIN8casacore18casacore_allocatorINS_16RORecordFieldPtrINS_5ArrayINS_6StringEEEEELm32EEE@Base 3.2.1
 _ZTIN8casacore18casacore_allocatorINS_16RORecordFieldPtrINS_5ArrayISt7complexIdEEEEELm32EEE@Base 3.2.1
 _ZTIN8casacore18casacore_allocatorINS_16RORecordFieldPtrINS_5ArrayISt7complexIfEEEEELm32EEE@Base 3.2.1
 _ZTIN8casacore18casacore_allocatorINS_16RORecordFieldPtrINS_5ArrayIbEEEELm32EEE@Base 3.2.1
 _ZTIN8casacore18casacore_allocatorINS_16RORecordFieldPtrINS_5ArrayIdEEEELm32EEE@Base 3.2.1
 _ZTIN8casacore18casacore_allocatorINS_16RORecordFieldPtrINS_5ArrayIfEEEELm32EEE@Base 3.2.1
 _ZTIN8casacore18casacore_allocatorINS_16RORecordFieldPtrINS_5ArrayIhEEEELm32EEE@Base 3.2.1
 _ZTIN8casacore18casacore_allocatorINS_16RORecordFieldPtrINS_5ArrayIiEEEELm32EEE@Base 3.2.1
 _ZTIN8casacore18casacore_allocatorINS_16RORecordFieldPtrINS_5ArrayIsEEEELm32EEE@Base 3.2.1
 _ZTIN8casacore18casacore_allocatorINS_16RORecordFieldPtrINS_6StringEEELm32EEE@Base 3.2.1
 _ZTIN8casacore18casacore_allocatorINS_16RORecordFieldPtrISt7complexIdEEELm32EEE@Base 3.2.1
 _ZTIN8casacore18casacore_allocatorINS_16RORecordFieldPtrISt7complexIfEEELm32EEE@Base 3.2.1
 _ZTIN8casacore18casacore_allocatorINS_16RORecordFieldPtrIbEELm32EEE@Base 3.2.1
 _ZTIN8casacore18casacore_allocatorINS_16RORecordFieldPtrIdEELm32EEE@Base 3.2.1
 _ZTIN8casacore18casacore_allocatorINS_16RORecordFieldPtrIfEELm32EEE@Base 3.2.1
 _ZTIN8casacore18casacore_allocatorINS_16RORecordFieldPtrIhEELm32EEE@Base 3.2.1
 _ZTIN8casacore18casacore_allocatorINS_16RORecordFieldPtrIiEELm32EEE@Base 3.2.1
 _ZTIN8casacore18casacore_allocatorINS_16RORecordFieldPtrIsEELm32EEE@Base 3.2.1
 _ZTIN8casacore18casacore_allocatorINS_6MVTimeELm32EEE@Base 3.2.1
 _ZTIN8casacore18casacore_allocatorINS_6StringELm32EEE@Base 3.2.1
 _ZTIN8casacore18casacore_allocatorIPNS_6SlicerELm32EEE@Base 3.2.1
 _ZTIN8casacore18casacore_allocatorIPvLm32EEE@Base 3.2.1
 _ZTIN8casacore18casacore_allocatorIbLm32EEE@Base 3.2.1
 _ZTIN8casacore18casacore_allocatorIcLm32EEE@Base 3.2.1
 _ZTIN8casacore18casacore_allocatorIdLm32EEE@Base 3.2.1
 _ZTIN8casacore18casacore_allocatorIhLm32EEE@Base 3.2.1
 _ZTIN8casacore18casacore_allocatorIiLm32EEE@Base 3.2.1
 _ZTIN8casacore18casacore_allocatorIjLm32EEE@Base 3.2.1
 _ZTIN8casacore18casacore_allocatorIsLm32EEE@Base 3.2.1
 _ZTIN8casacore19AsciiTableExtensionE@Base 3.2.1
 _ZTIN8casacore20ArrayFITSFieldCopierISt7complexIdES2_EE@Base 3.2.1
 _ZTIN8casacore20ArrayFITSFieldCopierISt7complexIfES2_EE@Base 3.2.1
 _ZTIN8casacore20ArrayFITSFieldCopierIbNS_11FitsLogicalEEE@Base 3.2.1
 _ZTIN8casacore20ArrayFITSFieldCopierIddEE@Base 3.2.1
 _ZTIN8casacore20ArrayFITSFieldCopierIffEE@Base 3.2.1
 _ZTIN8casacore20ArrayFITSFieldCopierIhhEE@Base 3.2.1
 _ZTIN8casacore20ArrayFITSFieldCopierIiiEE@Base 3.2.1
 _ZTIN8casacore20ArrayFITSFieldCopierIssEE@Base 3.2.1
 _ZTIN8casacore20BinaryTableExtensionE@Base 3.2.1
 _ZTIN8casacore21ScalarFITSFieldCopierISt7complexIdES2_EE@Base 3.2.1
 _ZTIN8casacore21ScalarFITSFieldCopierISt7complexIfES2_EE@Base 3.2.1
 _ZTIN8casacore21ScalarFITSFieldCopierIbNS_11FitsLogicalEEE@Base 3.2.1
 _ZTIN8casacore21ScalarFITSFieldCopierIddEE@Base 3.2.1
 _ZTIN8casacore21ScalarFITSFieldCopierIffEE@Base 3.2.1
 _ZTIN8casacore21ScalarFITSFieldCopierIhhEE@Base 3.2.1
 _ZTIN8casacore21ScalarFITSFieldCopierIiiEE@Base 3.2.1
 _ZTIN8casacore21ScalarFITSFieldCopierIssEE@Base 3.2.1
 _ZTIN8casacore21StringFITSFieldCopierE@Base 3.2.1
 _ZTIN8casacore23ExtensionHeaderDataUnitE@Base 3.2.1
 _ZTIN8casacore28VariableArrayFITSFieldCopierISt7complexIdES2_EE@Base 3.2.1
 _ZTIN8casacore28VariableArrayFITSFieldCopierISt7complexIfES2_EE@Base 3.2.1
 _ZTIN8casacore28VariableArrayFITSFieldCopierIbNS_11FitsLogicalEEE@Base 3.2.1
 _ZTIN8casacore28VariableArrayFITSFieldCopierIddEE@Base 3.2.1
 _ZTIN8casacore28VariableArrayFITSFieldCopierIffEE@Base 3.2.1
 _ZTIN8casacore28VariableArrayFITSFieldCopierIhhEE@Base 3.2.1
 _ZTIN8casacore28VariableArrayFITSFieldCopierIiiEE@Base 3.2.1
 _ZTIN8casacore28VariableArrayFITSFieldCopierIssEE@Base 3.2.1
 _ZTIN8casacore6FitsIOE@Base 3.2.1
 _ZTIN8casacore6MatrixINS_6StringEEE@Base 3.2.1
 _ZTIN8casacore6MatrixIiEE@Base 3.2.1
 _ZTIN8casacore6VectorIhEE@Base 3.2.1
 _ZTIN8casacore7BlockIOE@Base 3.2.1
 _ZTIN8casacore8FitsBaseE@Base 3.2.1
 _ZTIN8casacore9FITSTableE@Base 3.2.1
 _ZTIN8casacore9FitsArrayINS_10FitsVADescEEE@Base 3.2.1
 _ZTIN8casacore9FitsArrayINS_11FitsLogicalEEE@Base 3.2.1
 _ZTIN8casacore9FitsArrayINS_7FitsBitEEE@Base 3.2.1
 _ZTIN8casacore9FitsArrayINS_8IComplexEEE@Base 3.2.1
 _ZTIN8casacore9FitsArrayISt7complexIdEEE@Base 3.2.1
 _ZTIN8casacore9FitsArrayISt7complexIfEEE@Base 3.2.1
 _ZTIN8casacore9FitsArrayIcEE@Base 3.2.1
 _ZTIN8casacore9FitsArrayIdEE@Base 3.2.1
 _ZTIN8casacore9FitsArrayIfEE@Base 3.2.1
 _ZTIN8casacore9FitsArrayIhEE@Base 3.2.1
 _ZTIN8casacore9FitsArrayIiEE@Base 3.2.1
 _ZTIN8casacore9FitsArrayIsEE@Base 3.2.1
 _ZTIN8casacore9FitsFieldINS_10FitsVADescEEE@Base 3.2.1
 _ZTIN8casacore9FitsFieldINS_11FitsLogicalEEE@Base 3.2.1
 _ZTIN8casacore9FitsFieldINS_7FitsBitEEE@Base 3.2.1
 _ZTIN8casacore9FitsFieldINS_8IComplexEEE@Base 3.2.1
 _ZTIN8casacore9FitsFieldISt7complexIdEEE@Base 3.2.1
 _ZTIN8casacore9FitsFieldISt7complexIfEEE@Base 3.2.1
 _ZTIN8casacore9FitsFieldIcEE@Base 3.2.1
 _ZTIN8casacore9FitsFieldIdEE@Base 3.2.1
 _ZTIN8casacore9FitsFieldIfEE@Base 3.2.1
 _ZTIN8casacore9FitsFieldIhEE@Base 3.2.1
 _ZTIN8casacore9FitsFieldIiEE@Base 3.2.1
 _ZTIN8casacore9FitsFieldIsEE@Base 3.2.1
 _ZTIN8casacore9FitsInputE@Base 3.2.1
 _ZTIN9__gnu_cxx13new_allocatorIN8casacore14RecordFieldPtrINS1_5ArrayINS1_6StringEEEEEEE@Base 3.2.1
 _ZTIN9__gnu_cxx13new_allocatorIN8casacore14RecordFieldPtrINS1_5ArrayISt7complexIdEEEEEEE@Base 3.2.1
 _ZTIN9__gnu_cxx13new_allocatorIN8casacore14RecordFieldPtrINS1_5ArrayISt7complexIfEEEEEEE@Base 3.2.1
 _ZTIN9__gnu_cxx13new_allocatorIN8casacore14RecordFieldPtrINS1_5ArrayIbEEEEEE@Base 3.2.1
 _ZTIN9__gnu_cxx13new_allocatorIN8casacore14RecordFieldPtrINS1_5ArrayIdEEEEEE@Base 3.2.1
 _ZTIN9__gnu_cxx13new_allocatorIN8casacore14RecordFieldPtrINS1_5ArrayIfEEEEEE@Base 3.2.1
 _ZTIN9__gnu_cxx13new_allocatorIN8casacore14RecordFieldPtrINS1_5ArrayIhEEEEEE@Base 3.2.1
 _ZTIN9__gnu_cxx13new_allocatorIN8casacore14RecordFieldPtrINS1_5ArrayIiEEEEEE@Base 3.2.1
 _ZTIN9__gnu_cxx13new_allocatorIN8casacore14RecordFieldPtrINS1_5ArrayIsEEEEEE@Base 3.2.1
 _ZTIN9__gnu_cxx13new_allocatorIN8casacore14RecordFieldPtrINS1_6StringEEEEE@Base 3.2.1
 _ZTIN9__gnu_cxx13new_allocatorIN8casacore14RecordFieldPtrISt7complexIdEEEEE@Base 3.2.1
 _ZTIN9__gnu_cxx13new_allocatorIN8casacore14RecordFieldPtrISt7complexIfEEEEE@Base 3.2.1
 _ZTIN9__gnu_cxx13new_allocatorIN8casacore14RecordFieldPtrIbEEEE@Base 3.2.1
 _ZTIN9__gnu_cxx13new_allocatorIN8casacore14RecordFieldPtrIdEEEE@Base 3.2.1
 _ZTIN9__gnu_cxx13new_allocatorIN8casacore14RecordFieldPtrIfEEEE@Base 3.2.1
 _ZTIN9__gnu_cxx13new_allocatorIN8casacore14RecordFieldPtrIhEEEE@Base 3.2.1
 _ZTIN9__gnu_cxx13new_allocatorIN8casacore14RecordFieldPtrIiEEEE@Base 3.2.1
 _ZTIN9__gnu_cxx13new_allocatorIN8casacore14RecordFieldPtrIsEEEE@Base 3.2.1
 _ZTIN9__gnu_cxx13new_allocatorIN8casacore16RORecordFieldPtrINS1_5ArrayINS1_6StringEEEEEEE@Base 3.2.1
 _ZTIN9__gnu_cxx13new_allocatorIN8casacore16RORecordFieldPtrINS1_5ArrayISt7complexIdEEEEEEE@Base 3.2.1
 _ZTIN9__gnu_cxx13new_allocatorIN8casacore16RORecordFieldPtrINS1_5ArrayISt7complexIfEEEEEEE@Base 3.2.1
 _ZTIN9__gnu_cxx13new_allocatorIN8casacore16RORecordFieldPtrINS1_5ArrayIbEEEEEE@Base 3.2.1
 _ZTIN9__gnu_cxx13new_allocatorIN8casacore16RORecordFieldPtrINS1_5ArrayIdEEEEEE@Base 3.2.1
 _ZTIN9__gnu_cxx13new_allocatorIN8casacore16RORecordFieldPtrINS1_5ArrayIfEEEEEE@Base 3.2.1
 _ZTIN9__gnu_cxx13new_allocatorIN8casacore16RORecordFieldPtrINS1_5ArrayIhEEEEEE@Base 3.2.1
 _ZTIN9__gnu_cxx13new_allocatorIN8casacore16RORecordFieldPtrINS1_5ArrayIiEEEEEE@Base 3.2.1
 _ZTIN9__gnu_cxx13new_allocatorIN8casacore16RORecordFieldPtrINS1_5ArrayIsEEEEEE@Base 3.2.1
 _ZTIN9__gnu_cxx13new_allocatorIN8casacore16RORecordFieldPtrINS1_6StringEEEEE@Base 3.2.1
 _ZTIN9__gnu_cxx13new_allocatorIN8casacore16RORecordFieldPtrISt7complexIdEEEEE@Base 3.2.1
 _ZTIN9__gnu_cxx13new_allocatorIN8casacore16RORecordFieldPtrISt7complexIfEEEEE@Base 3.2.1
 _ZTIN9__gnu_cxx13new_allocatorIN8casacore16RORecordFieldPtrIbEEEE@Base 3.2.1
 _ZTIN9__gnu_cxx13new_allocatorIN8casacore16RORecordFieldPtrIdEEEE@Base 3.2.1
 _ZTIN9__gnu_cxx13new_allocatorIN8casacore16RORecordFieldPtrIfEEEE@Base 3.2.1
 _ZTIN9__gnu_cxx13new_allocatorIN8casacore16RORecordFieldPtrIhEEEE@Base 3.2.1
 _ZTIN9__gnu_cxx13new_allocatorIN8casacore16RORecordFieldPtrIiEEEE@Base 3.2.1
 _ZTIN9__gnu_cxx13new_allocatorIN8casacore16RORecordFieldPtrIsEEEE@Base 3.2.1
 _ZTIN9__gnu_cxx13new_allocatorIN8casacore6MVTimeEEE@Base 3.2.1
 _ZTIN9__gnu_cxx13new_allocatorIN8casacore6StringEEE@Base 3.2.1
 _ZTIN9__gnu_cxx13new_allocatorIPN8casacore6SlicerEEE@Base 3.2.1
 _ZTIN9__gnu_cxx13new_allocatorIPvEE@Base 3.2.1
 _ZTIN9__gnu_cxx13new_allocatorIbEE@Base 3.2.1
 _ZTIN9__gnu_cxx13new_allocatorIcEE@Base 3.2.1
 _ZTIN9__gnu_cxx13new_allocatorIdEE@Base 3.2.1
 _ZTIN9__gnu_cxx13new_allocatorIhEE@Base 3.2.1
 _ZTIN9__gnu_cxx13new_allocatorIiEE@Base 3.2.1
 _ZTIN9__gnu_cxx13new_allocatorIjEE@Base 3.2.1
 _ZTIN9__gnu_cxx13new_allocatorIsEE@Base 3.2.1
 _ZTISaIN8casacore14RecordFieldPtrINS_5ArrayINS_6StringEEEEEE@Base 3.2.1
 _ZTISaIN8casacore14RecordFieldPtrINS_5ArrayISt7complexIdEEEEEE@Base 3.2.1
 _ZTISaIN8casacore14RecordFieldPtrINS_5ArrayISt7complexIfEEEEEE@Base 3.2.1
 _ZTISaIN8casacore14RecordFieldPtrINS_5ArrayIbEEEEE@Base 3.2.1
 _ZTISaIN8casacore14RecordFieldPtrINS_5ArrayIdEEEEE@Base 3.2.1
 _ZTISaIN8casacore14RecordFieldPtrINS_5ArrayIfEEEEE@Base 3.2.1
 _ZTISaIN8casacore14RecordFieldPtrINS_5ArrayIhEEEEE@Base 3.2.1
 _ZTISaIN8casacore14RecordFieldPtrINS_5ArrayIiEEEEE@Base 3.2.1
 _ZTISaIN8casacore14RecordFieldPtrINS_5ArrayIsEEEEE@Base 3.2.1
 _ZTISaIN8casacore14RecordFieldPtrINS_6StringEEEE@Base 3.2.1
 _ZTISaIN8casacore14RecordFieldPtrISt7complexIdEEEE@Base 3.2.1
 _ZTISaIN8casacore14RecordFieldPtrISt7complexIfEEEE@Base 3.2.1
 _ZTISaIN8casacore14RecordFieldPtrIbEEE@Base 3.2.1
 _ZTISaIN8casacore14RecordFieldPtrIdEEE@Base 3.2.1
 _ZTISaIN8casacore14RecordFieldPtrIfEEE@Base 3.2.1
 _ZTISaIN8casacore14RecordFieldPtrIhEEE@Base 3.2.1
 _ZTISaIN8casacore14RecordFieldPtrIiEEE@Base 3.2.1
 _ZTISaIN8casacore14RecordFieldPtrIsEEE@Base 3.2.1
 _ZTISaIN8casacore16RORecordFieldPtrINS_5ArrayINS_6StringEEEEEE@Base 3.2.1
 _ZTISaIN8casacore16RORecordFieldPtrINS_5ArrayISt7complexIdEEEEEE@Base 3.2.1
 _ZTISaIN8casacore16RORecordFieldPtrINS_5ArrayISt7complexIfEEEEEE@Base 3.2.1
 _ZTISaIN8casacore16RORecordFieldPtrINS_5ArrayIbEEEEE@Base 3.2.1
 _ZTISaIN8casacore16RORecordFieldPtrINS_5ArrayIdEEEEE@Base 3.2.1
 _ZTISaIN8casacore16RORecordFieldPtrINS_5ArrayIfEEEEE@Base 3.2.1
 _ZTISaIN8casacore16RORecordFieldPtrINS_5ArrayIhEEEEE@Base 3.2.1
 _ZTISaIN8casacore16RORecordFieldPtrINS_5ArrayIiEEEEE@Base 3.2.1
 _ZTISaIN8casacore16RORecordFieldPtrINS_5ArrayIsEEEEE@Base 3.2.1
 _ZTISaIN8casacore16RORecordFieldPtrINS_6StringEEEE@Base 3.2.1
 _ZTISaIN8casacore16RORecordFieldPtrISt7complexIdEEEE@Base 3.2.1
 _ZTISaIN8casacore16RORecordFieldPtrISt7complexIfEEEE@Base 3.2.1
 _ZTISaIN8casacore16RORecordFieldPtrIbEEE@Base 3.2.1
 _ZTISaIN8casacore16RORecordFieldPtrIdEEE@Base 3.2.1
 _ZTISaIN8casacore16RORecordFieldPtrIfEEE@Base 3.2.1
 _ZTISaIN8casacore16RORecordFieldPtrIhEEE@Base 3.2.1
 _ZTISaIN8casacore16RORecordFieldPtrIiEEE@Base 3.2.1
 _ZTISaIN8casacore16RORecordFieldPtrIsEEE@Base 3.2.1
 _ZTISaIN8casacore6MVTimeEE@Base 3.2.1
 _ZTISaIN8casacore6StringEE@Base 3.2.1
 _ZTISaIPN8casacore6SlicerEE@Base 3.2.1
 _ZTISaIPvE@Base 3.2.1
 _ZTISaIbE@Base 3.2.1
 _ZTISaIcE@Base 3.2.1
 _ZTISaIdE@Base 3.2.1
 _ZTISaIhE@Base 3.2.1
 _ZTISaIiE@Base 3.2.1
 _ZTISaIjE@Base 3.2.1
 _ZTISaIsE@Base 3.2.1
 _ZTISt11_Mutex_baseILN9__gnu_cxx12_Lock_policyE2EE@Base 3.2.1
 _ZTISt15_Sp_counted_ptrIPN8casacore11BaseCompareELN9__gnu_cxx12_Lock_policyE2EE@Base 3.2.1
 _ZTISt15_Sp_counted_ptrIPN8casacore5BlockIhEELN9__gnu_cxx12_Lock_policyE2EE@Base 3.2.1
 _ZTISt16_Sp_counted_baseILN9__gnu_cxx12_Lock_policyE2EE@Base 3.2.1
 _ZTISt19_Sp_counted_deleterIPN8casacore13RecordDescRepENS0_10CountedPtrIS1_E7DeleterIS1_EESaIvELN9__gnu_cxx12_Lock_policyE2EE@Base 3.2.1
 _ZTSN8casacore10BlockInputE@Base 3.2.1
 _ZTSN8casacore10CountedPtrINS_13RecordDescRepEE7DeleterIS1_EE@Base 3.2.1
 _ZTSN8casacore10FitsOutputE@Base 3.2.1
 _ZTSN8casacore10ObjCompareIhEE@Base 3.2.1
 _ZTSN8casacore11ArrayColumnIhEE@Base 3.2.1
 _ZTSN8casacore11BaseCompareE@Base 3.2.1
 _ZTSN8casacore11BinaryTableE@Base 3.2.1
 _ZTSN8casacore11BlockOutputE@Base 3.2.1
 _ZTSN8casacore11FITSTabularE@Base 3.2.1
 _ZTSN8casacore11SDFITSTableE@Base 3.2.1
 _ZTSN8casacore12FitsStdInputE@Base 3.2.1
 _ZTSN8casacore12PrimaryArrayIdEE@Base 3.2.1
 _ZTSN8casacore12PrimaryArrayIfEE@Base 3.2.1
 _ZTSN8casacore12PrimaryArrayIhEE@Base 3.2.1
 _ZTSN8casacore12PrimaryArrayIiEE@Base 3.2.1
 _ZTSN8casacore12PrimaryArrayIsEE@Base 3.2.1
 _ZTSN8casacore12PrimaryGroupIdEE@Base 3.2.1
 _ZTSN8casacore12PrimaryGroupIfEE@Base 3.2.1
 _ZTSN8casacore12PrimaryGroupIhEE@Base 3.2.1
 _ZTSN8casacore12PrimaryGroupIiEE@Base 3.2.1
 _ZTSN8casacore12PrimaryGroupIsEE@Base 3.2.1
 _ZTSN8casacore12PrimaryTableIdEE@Base 3.2.1
 _ZTSN8casacore12PrimaryTableIfEE@Base 3.2.1
 _ZTSN8casacore12PrimaryTableIhEE@Base 3.2.1
 _ZTSN8casacore12PrimaryTableIiEE@Base 3.2.1
 _ZTSN8casacore12PrimaryTableIsEE@Base 3.2.1
 _ZTSN8casacore12ScalarColumnIhEE@Base 3.2.1
 _ZTSN8casacore13BaseAllocatorINS_6MVTimeENS_15NewDelAllocatorIS1_EEEE@Base 3.2.1
 _ZTSN8casacore13BaseAllocatorINS_6MVTimeENS_16AlignedAllocatorIS1_Lm32EEEEE@Base 3.2.1
 _ZTSN8casacore13BaseAllocatorIPNS_6SlicerENS_15NewDelAllocatorIS2_EEEE@Base 3.2.1
 _ZTSN8casacore13BaseAllocatorIPNS_6SlicerENS_16AlignedAllocatorIS2_Lm32EEEEE@Base 3.2.1
 _ZTSN8casacore13FitsDiskInputE@Base 3.2.1
 _ZTSN8casacore13FitsStdOutputE@Base 3.2.1
 _ZTSN8casacore14FITSMultiTableE@Base 3.2.1
 _ZTSN8casacore14FITSTimedTableE@Base 3.2.1
 _ZTSN8casacore14FitsDiskOutputE@Base 3.2.1
 _ZTSN8casacore14FitsTape9InputE@Base 3.2.1
 _ZTSN8casacore14HeaderDataUnitE@Base 3.2.1
 _ZTSN8casacore14ImageExtensionIdEE@Base 3.2.1
 _ZTSN8casacore14ImageExtensionIfEE@Base 3.2.1
 _ZTSN8casacore14ImageExtensionIhEE@Base 3.2.1
 _ZTSN8casacore14ImageExtensionIiEE@Base 3.2.1
 _ZTSN8casacore14ImageExtensionIsEE@Base 3.2.1
 _ZTSN8casacore14RecordFieldPtrINS_5ArrayINS_6StringEEEEE@Base 3.2.1
 _ZTSN8casacore14RecordFieldPtrINS_5ArrayISt7complexIdEEEEE@Base 3.2.1
 _ZTSN8casacore14RecordFieldPtrINS_5ArrayISt7complexIfEEEEE@Base 3.2.1
 _ZTSN8casacore14RecordFieldPtrINS_5ArrayIbEEEE@Base 3.2.1
 _ZTSN8casacore14RecordFieldPtrINS_5ArrayIdEEEE@Base 3.2.1
 _ZTSN8casacore14RecordFieldPtrINS_5ArrayIfEEEE@Base 3.2.1
 _ZTSN8casacore14RecordFieldPtrINS_5ArrayIhEEEE@Base 3.2.1
 _ZTSN8casacore14RecordFieldPtrINS_5ArrayIiEEEE@Base 3.2.1
 _ZTSN8casacore14RecordFieldPtrINS_5ArrayIsEEEE@Base 3.2.1
 _ZTSN8casacore14RecordFieldPtrINS_6StringEEE@Base 3.2.1
 _ZTSN8casacore14RecordFieldPtrISt7complexIdEEE@Base 3.2.1
 _ZTSN8casacore14RecordFieldPtrISt7complexIfEEE@Base 3.2.1
 _ZTSN8casacore14RecordFieldPtrIbEE@Base 3.2.1
 _ZTSN8casacore14RecordFieldPtrIdEE@Base 3.2.1
 _ZTSN8casacore14RecordFieldPtrIfEE@Base 3.2.1
 _ZTSN8casacore14RecordFieldPtrIhEE@Base 3.2.1
 _ZTSN8casacore14RecordFieldPtrIiEE@Base 3.2.1
 _ZTSN8casacore14RecordFieldPtrIsEE@Base 3.2.1
 _ZTSN8casacore15ArrayColumnDataIhEE@Base 3.2.1
 _ZTSN8casacore15ArrayColumnDescIhEE@Base 3.2.1
 _ZTSN8casacore15FITSFieldCopierE@Base 3.2.1
 _ZTSN8casacore15FitsTape9OutputE@Base 3.2.1
 _ZTSN8casacore15NewDelAllocatorINS_6MVTimeEEE@Base 3.2.1
 _ZTSN8casacore15NewDelAllocatorIPNS_6SlicerEEE@Base 3.2.1
 _ZTSN8casacore16AlignedAllocatorINS_6MVTimeELm32EEE@Base 3.2.1
 _ZTSN8casacore16AlignedAllocatorIPNS_6SlicerELm32EEE@Base 3.2.1
 _ZTSN8casacore16DefaultAllocatorINS_6MVTimeEEE@Base 3.2.1
 _ZTSN8casacore16DefaultAllocatorIPNS_6SlicerEEE@Base 3.2.1
 _ZTSN8casacore16ScalarColumnDataIhEE@Base 3.2.1
 _ZTSN8casacore16ScalarColumnDescIhEE@Base 3.2.1
 _ZTSN8casacore17AbstractAllocatorINS_6MVTimeEEE@Base 3.2.1
 _ZTSN8casacore17AbstractAllocatorIPNS_6SlicerEEE@Base 3.2.1
 _ZTSN8casacore17Allocator_private13BulkAllocatorINS_14RecordFieldPtrINS_5ArrayINS_6StringEEEEEEE@Base 3.2.1
 _ZTSN8casacore17Allocator_private13BulkAllocatorINS_14RecordFieldPtrINS_5ArrayISt7complexIdEEEEEEE@Base 3.2.1
 _ZTSN8casacore17Allocator_private13BulkAllocatorINS_14RecordFieldPtrINS_5ArrayISt7complexIfEEEEEEE@Base 3.2.1
 _ZTSN8casacore17Allocator_private13BulkAllocatorINS_14RecordFieldPtrINS_5ArrayIbEEEEEE@Base 3.2.1
 _ZTSN8casacore17Allocator_private13BulkAllocatorINS_14RecordFieldPtrINS_5ArrayIdEEEEEE@Base 3.2.1
 _ZTSN8casacore17Allocator_private13BulkAllocatorINS_14RecordFieldPtrINS_5ArrayIfEEEEEE@Base 3.2.1
 _ZTSN8casacore17Allocator_private13BulkAllocatorINS_14RecordFieldPtrINS_5ArrayIhEEEEEE@Base 3.2.1
 _ZTSN8casacore17Allocator_private13BulkAllocatorINS_14RecordFieldPtrINS_5ArrayIiEEEEEE@Base 3.2.1
 _ZTSN8casacore17Allocator_private13BulkAllocatorINS_14RecordFieldPtrINS_5ArrayIsEEEEEE@Base 3.2.1
 _ZTSN8casacore17Allocator_private13BulkAllocatorINS_14RecordFieldPtrINS_6StringEEEEE@Base 3.2.1
 _ZTSN8casacore17Allocator_private13BulkAllocatorINS_14RecordFieldPtrISt7complexIdEEEEE@Base 3.2.1
 _ZTSN8casacore17Allocator_private13BulkAllocatorINS_14RecordFieldPtrISt7complexIfEEEEE@Base 3.2.1
 _ZTSN8casacore17Allocator_private13BulkAllocatorINS_14RecordFieldPtrIbEEEE@Base 3.2.1
 _ZTSN8casacore17Allocator_private13BulkAllocatorINS_14RecordFieldPtrIdEEEE@Base 3.2.1
 _ZTSN8casacore17Allocator_private13BulkAllocatorINS_14RecordFieldPtrIfEEEE@Base 3.2.1
 _ZTSN8casacore17Allocator_private13BulkAllocatorINS_14RecordFieldPtrIhEEEE@Base 3.2.1
 _ZTSN8casacore17Allocator_private13BulkAllocatorINS_14RecordFieldPtrIiEEEE@Base 3.2.1
 _ZTSN8casacore17Allocator_private13BulkAllocatorINS_14RecordFieldPtrIsEEEE@Base 3.2.1
 _ZTSN8casacore17Allocator_private13BulkAllocatorINS_16RORecordFieldPtrINS_5ArrayINS_6StringEEEEEEE@Base 3.2.1
 _ZTSN8casacore17Allocator_private13BulkAllocatorINS_16RORecordFieldPtrINS_5ArrayISt7complexIdEEEEEEE@Base 3.2.1
 _ZTSN8casacore17Allocator_private13BulkAllocatorINS_16RORecordFieldPtrINS_5ArrayISt7complexIfEEEEEEE@Base 3.2.1
 _ZTSN8casacore17Allocator_private13BulkAllocatorINS_16RORecordFieldPtrINS_5ArrayIbEEEEEE@Base 3.2.1
 _ZTSN8casacore17Allocator_private13BulkAllocatorINS_16RORecordFieldPtrINS_5ArrayIdEEEEEE@Base 3.2.1
 _ZTSN8casacore17Allocator_private13BulkAllocatorINS_16RORecordFieldPtrINS_5ArrayIfEEEEEE@Base 3.2.1
 _ZTSN8casacore17Allocator_private13BulkAllocatorINS_16RORecordFieldPtrINS_5ArrayIhEEEEEE@Base 3.2.1
 _ZTSN8casacore17Allocator_private13BulkAllocatorINS_16RORecordFieldPtrINS_5ArrayIiEEEEEE@Base 3.2.1
 _ZTSN8casacore17Allocator_private13BulkAllocatorINS_16RORecordFieldPtrINS_5ArrayIsEEEEEE@Base 3.2.1
 _ZTSN8casacore17Allocator_private13BulkAllocatorINS_16RORecordFieldPtrINS_6StringEEEEE@Base 3.2.1
 _ZTSN8casacore17Allocator_private13BulkAllocatorINS_16RORecordFieldPtrISt7complexIdEEEEE@Base 3.2.1
 _ZTSN8casacore17Allocator_private13BulkAllocatorINS_16RORecordFieldPtrISt7complexIfEEEEE@Base 3.2.1
 _ZTSN8casacore17Allocator_private13BulkAllocatorINS_16RORecordFieldPtrIbEEEE@Base 3.2.1
 _ZTSN8casacore17Allocator_private13BulkAllocatorINS_16RORecordFieldPtrIdEEEE@Base 3.2.1
 _ZTSN8casacore17Allocator_private13BulkAllocatorINS_16RORecordFieldPtrIfEEEE@Base 3.2.1
 _ZTSN8casacore17Allocator_private13BulkAllocatorINS_16RORecordFieldPtrIhEEEE@Base 3.2.1
 _ZTSN8casacore17Allocator_private13BulkAllocatorINS_16RORecordFieldPtrIiEEEE@Base 3.2.1
 _ZTSN8casacore17Allocator_private13BulkAllocatorINS_16RORecordFieldPtrIsEEEE@Base 3.2.1
 _ZTSN8casacore17Allocator_private13BulkAllocatorINS_6MVTimeEEE@Base 3.2.1
 _ZTSN8casacore17Allocator_private13BulkAllocatorINS_6StringEEE@Base 3.2.1
 _ZTSN8casacore17Allocator_private13BulkAllocatorIPNS_6SlicerEEE@Base 3.2.1
 _ZTSN8casacore17Allocator_private13BulkAllocatorIPvEE@Base 3.2.1
 _ZTSN8casacore17Allocator_private13BulkAllocatorIbEE@Base 3.2.1
 _ZTSN8casacore17Allocator_private13BulkAllocatorIcEE@Base 3.2.1
 _ZTSN8casacore17Allocator_private13BulkAllocatorIdEE@Base 3.2.1
 _ZTSN8casacore17Allocator_private13BulkAllocatorIhEE@Base 3.2.1
 _ZTSN8casacore17Allocator_private13BulkAllocatorIiEE@Base 3.2.1
 _ZTSN8casacore17Allocator_private13BulkAllocatorIjEE@Base 3.2.1
 _ZTSN8casacore17Allocator_private13BulkAllocatorIsEE@Base 3.2.1
 _ZTSN8casacore17Allocator_private17BulkAllocatorImplINS_17new_del_allocatorINS_6MVTimeEEEEE@Base 3.2.1
 _ZTSN8casacore17Allocator_private17BulkAllocatorImplINS_17new_del_allocatorIPNS_6SlicerEEEEE@Base 3.2.1
 _ZTSN8casacore17Allocator_private17BulkAllocatorImplINS_18casacore_allocatorINS_14RecordFieldPtrINS_5ArrayINS_6StringEEEEELm32EEEEE@Base 3.2.1
 _ZTSN8casacore17Allocator_private17BulkAllocatorImplINS_18casacore_allocatorINS_14RecordFieldPtrINS_5ArrayISt7complexIdEEEEELm32EEEEE@Base 3.2.1
 _ZTSN8casacore17Allocator_private17BulkAllocatorImplINS_18casacore_allocatorINS_14RecordFieldPtrINS_5ArrayISt7complexIfEEEEELm32EEEEE@Base 3.2.1
 _ZTSN8casacore17Allocator_private17BulkAllocatorImplINS_18casacore_allocatorINS_14RecordFieldPtrINS_5ArrayIbEEEELm32EEEEE@Base 3.2.1
 _ZTSN8casacore17Allocator_private17BulkAllocatorImplINS_18casacore_allocatorINS_14RecordFieldPtrINS_5ArrayIdEEEELm32EEEEE@Base 3.2.1
 _ZTSN8casacore17Allocator_private17BulkAllocatorImplINS_18casacore_allocatorINS_14RecordFieldPtrINS_5ArrayIfEEEELm32EEEEE@Base 3.2.1
 _ZTSN8casacore17Allocator_private17BulkAllocatorImplINS_18casacore_allocatorINS_14RecordFieldPtrINS_5ArrayIhEEEELm32EEEEE@Base 3.2.1
 _ZTSN8casacore17Allocator_private17BulkAllocatorImplINS_18casacore_allocatorINS_14RecordFieldPtrINS_5ArrayIiEEEELm32EEEEE@Base 3.2.1
 _ZTSN8casacore17Allocator_private17BulkAllocatorImplINS_18casacore_allocatorINS_14RecordFieldPtrINS_5ArrayIsEEEELm32EEEEE@Base 3.2.1
 _ZTSN8casacore17Allocator_private17BulkAllocatorImplINS_18casacore_allocatorINS_14RecordFieldPtrINS_6StringEEELm32EEEEE@Base 3.2.1
 _ZTSN8casacore17Allocator_private17BulkAllocatorImplINS_18casacore_allocatorINS_14RecordFieldPtrISt7complexIdEEELm32EEEEE@Base 3.2.1
 _ZTSN8casacore17Allocator_private17BulkAllocatorImplINS_18casacore_allocatorINS_14RecordFieldPtrISt7complexIfEEELm32EEEEE@Base 3.2.1
 _ZTSN8casacore17Allocator_private17BulkAllocatorImplINS_18casacore_allocatorINS_14RecordFieldPtrIbEELm32EEEEE@Base 3.2.1
 _ZTSN8casacore17Allocator_private17BulkAllocatorImplINS_18casacore_allocatorINS_14RecordFieldPtrIdEELm32EEEEE@Base 3.2.1
 _ZTSN8casacore17Allocator_private17BulkAllocatorImplINS_18casacore_allocatorINS_14RecordFieldPtrIfEELm32EEEEE@Base 3.2.1
 _ZTSN8casacore17Allocator_private17BulkAllocatorImplINS_18casacore_allocatorINS_14RecordFieldPtrIhEELm32EEEEE@Base 3.2.1
 _ZTSN8casacore17Allocator_private17BulkAllocatorImplINS_18casacore_allocatorINS_14RecordFieldPtrIiEELm32EEEEE@Base 3.2.1
 _ZTSN8casacore17Allocator_private17BulkAllocatorImplINS_18casacore_allocatorINS_14RecordFieldPtrIsEELm32EEEEE@Base 3.2.1
 _ZTSN8casacore17Allocator_private17BulkAllocatorImplINS_18casacore_allocatorINS_16RORecordFieldPtrINS_5ArrayINS_6StringEEEEELm32EEEEE@Base 3.2.1
 _ZTSN8casacore17Allocator_private17BulkAllocatorImplINS_18casacore_allocatorINS_16RORecordFieldPtrINS_5ArrayISt7complexIdEEEEELm32EEEEE@Base 3.2.1
 _ZTSN8casacore17Allocator_private17BulkAllocatorImplINS_18casacore_allocatorINS_16RORecordFieldPtrINS_5ArrayISt7complexIfEEEEELm32EEEEE@Base 3.2.1
 _ZTSN8casacore17Allocator_private17BulkAllocatorImplINS_18casacore_allocatorINS_16RORecordFieldPtrINS_5ArrayIbEEEELm32EEEEE@Base 3.2.1
 _ZTSN8casacore17Allocator_private17BulkAllocatorImplINS_18casacore_allocatorINS_16RORecordFieldPtrINS_5ArrayIdEEEELm32EEEEE@Base 3.2.1
 _ZTSN8casacore17Allocator_private17BulkAllocatorImplINS_18casacore_allocatorINS_16RORecordFieldPtrINS_5ArrayIfEEEELm32EEEEE@Base 3.2.1
 _ZTSN8casacore17Allocator_private17BulkAllocatorImplINS_18casacore_allocatorINS_16RORecordFieldPtrINS_5ArrayIhEEEELm32EEEEE@Base 3.2.1
 _ZTSN8casacore17Allocator_private17BulkAllocatorImplINS_18casacore_allocatorINS_16RORecordFieldPtrINS_5ArrayIiEEEELm32EEEEE@Base 3.2.1
 _ZTSN8casacore17Allocator_private17BulkAllocatorImplINS_18casacore_allocatorINS_16RORecordFieldPtrINS_5ArrayIsEEEELm32EEEEE@Base 3.2.1
 _ZTSN8casacore17Allocator_private17BulkAllocatorImplINS_18casacore_allocatorINS_16RORecordFieldPtrINS_6StringEEELm32EEEEE@Base 3.2.1
 _ZTSN8casacore17Allocator_private17BulkAllocatorImplINS_18casacore_allocatorINS_16RORecordFieldPtrISt7complexIdEEELm32EEEEE@Base 3.2.1
 _ZTSN8casacore17Allocator_private17BulkAllocatorImplINS_18casacore_allocatorINS_16RORecordFieldPtrISt7complexIfEEELm32EEEEE@Base 3.2.1
 _ZTSN8casacore17Allocator_private17BulkAllocatorImplINS_18casacore_allocatorINS_16RORecordFieldPtrIbEELm32EEEEE@Base 3.2.1
 _ZTSN8casacore17Allocator_private17BulkAllocatorImplINS_18casacore_allocatorINS_16RORecordFieldPtrIdEELm32EEEEE@Base 3.2.1
 _ZTSN8casacore17Allocator_private17BulkAllocatorImplINS_18casacore_allocatorINS_16RORecordFieldPtrIfEELm32EEEEE@Base 3.2.1
 _ZTSN8casacore17Allocator_private17BulkAllocatorImplINS_18casacore_allocatorINS_16RORecordFieldPtrIhEELm32EEEEE@Base 3.2.1
 _ZTSN8casacore17Allocator_private17BulkAllocatorImplINS_18casacore_allocatorINS_16RORecordFieldPtrIiEELm32EEEEE@Base 3.2.1
 _ZTSN8casacore17Allocator_private17BulkAllocatorImplINS_18casacore_allocatorINS_16RORecordFieldPtrIsEELm32EEEEE@Base 3.2.1
 _ZTSN8casacore17Allocator_private17BulkAllocatorImplINS_18casacore_allocatorINS_6MVTimeELm32EEEEE@Base 3.2.1
 _ZTSN8casacore17Allocator_private17BulkAllocatorImplINS_18casacore_allocatorINS_6StringELm32EEEEE@Base 3.2.1
 _ZTSN8casacore17Allocator_private17BulkAllocatorImplINS_18casacore_allocatorIPNS_6SlicerELm32EEEEE@Base 3.2.1
 _ZTSN8casacore17Allocator_private17BulkAllocatorImplINS_18casacore_allocatorIPvLm32EEEEE@Base 3.2.1
 _ZTSN8casacore17Allocator_private17BulkAllocatorImplINS_18casacore_allocatorIbLm32EEEEE@Base 3.2.1
 _ZTSN8casacore17Allocator_private17BulkAllocatorImplINS_18casacore_allocatorIcLm32EEEEE@Base 3.2.1
 _ZTSN8casacore17Allocator_private17BulkAllocatorImplINS_18casacore_allocatorIdLm32EEEEE@Base 3.2.1
 _ZTSN8casacore17Allocator_private17BulkAllocatorImplINS_18casacore_allocatorIhLm32EEEEE@Base 3.2.1
 _ZTSN8casacore17Allocator_private17BulkAllocatorImplINS_18casacore_allocatorIiLm32EEEEE@Base 3.2.1
 _ZTSN8casacore17Allocator_private17BulkAllocatorImplINS_18casacore_allocatorIjLm32EEEEE@Base 3.2.1
 _ZTSN8casacore17Allocator_private17BulkAllocatorImplINS_18casacore_allocatorIsLm32EEEEE@Base 3.2.1
 _ZTSN8casacore17new_del_allocatorINS_6MVTimeEEE@Base 3.2.1
 _ZTSN8casacore17new_del_allocatorIPNS_6SlicerEEE@Base 3.2.1
 _ZTSN8casacore18ConcatScalarColumnIhEE@Base 3.2.1
 _ZTSN8casacore18casacore_allocatorINS_14RecordFieldPtrINS_5ArrayINS_6StringEEEEELm32EEE@Base 3.2.1
 _ZTSN8casacore18casacore_allocatorINS_14RecordFieldPtrINS_5ArrayISt7complexIdEEEEELm32EEE@Base 3.2.1
 _ZTSN8casacore18casacore_allocatorINS_14RecordFieldPtrINS_5ArrayISt7complexIfEEEEELm32EEE@Base 3.2.1
 _ZTSN8casacore18casacore_allocatorINS_14RecordFieldPtrINS_5ArrayIbEEEELm32EEE@Base 3.2.1
 _ZTSN8casacore18casacore_allocatorINS_14RecordFieldPtrINS_5ArrayIdEEEELm32EEE@Base 3.2.1
 _ZTSN8casacore18casacore_allocatorINS_14RecordFieldPtrINS_5ArrayIfEEEELm32EEE@Base 3.2.1
 _ZTSN8casacore18casacore_allocatorINS_14RecordFieldPtrINS_5ArrayIhEEEELm32EEE@Base 3.2.1
 _ZTSN8casacore18casacore_allocatorINS_14RecordFieldPtrINS_5ArrayIiEEEELm32EEE@Base 3.2.1
 _ZTSN8casacore18casacore_allocatorINS_14RecordFieldPtrINS_5ArrayIsEEEELm32EEE@Base 3.2.1
 _ZTSN8casacore18casacore_allocatorINS_14RecordFieldPtrINS_6StringEEELm32EEE@Base 3.2.1
 _ZTSN8casacore18casacore_allocatorINS_14RecordFieldPtrISt7complexIdEEELm32EEE@Base 3.2.1
 _ZTSN8casacore18casacore_allocatorINS_14RecordFieldPtrISt7complexIfEEELm32EEE@Base 3.2.1
 _ZTSN8casacore18casacore_allocatorINS_14RecordFieldPtrIbEELm32EEE@Base 3.2.1
 _ZTSN8casacore18casacore_allocatorINS_14RecordFieldPtrIdEELm32EEE@Base 3.2.1
 _ZTSN8casacore18casacore_allocatorINS_14RecordFieldPtrIfEELm32EEE@Base 3.2.1
 _ZTSN8casacore18casacore_allocatorINS_14RecordFieldPtrIhEELm32EEE@Base 3.2.1
 _ZTSN8casacore18casacore_allocatorINS_14RecordFieldPtrIiEELm32EEE@Base 3.2.1
 _ZTSN8casacore18casacore_allocatorINS_14RecordFieldPtrIsEELm32EEE@Base 3.2.1
 _ZTSN8casacore18casacore_allocatorINS_16RORecordFieldPtrINS_5ArrayINS_6StringEEEEELm32EEE@Base 3.2.1
 _ZTSN8casacore18casacore_allocatorINS_16RORecordFieldPtrINS_5ArrayISt7complexIdEEEEELm32EEE@Base 3.2.1
 _ZTSN8casacore18casacore_allocatorINS_16RORecordFieldPtrINS_5ArrayISt7complexIfEEEEELm32EEE@Base 3.2.1
 _ZTSN8casacore18casacore_allocatorINS_16RORecordFieldPtrINS_5ArrayIbEEEELm32EEE@Base 3.2.1
 _ZTSN8casacore18casacore_allocatorINS_16RORecordFieldPtrINS_5ArrayIdEEEELm32EEE@Base 3.2.1
 _ZTSN8casacore18casacore_allocatorINS_16RORecordFieldPtrINS_5ArrayIfEEEELm32EEE@Base 3.2.1
 _ZTSN8casacore18casacore_allocatorINS_16RORecordFieldPtrINS_5ArrayIhEEEELm32EEE@Base 3.2.1
 _ZTSN8casacore18casacore_allocatorINS_16RORecordFieldPtrINS_5ArrayIiEEEELm32EEE@Base 3.2.1
 _ZTSN8casacore18casacore_allocatorINS_16RORecordFieldPtrINS_5ArrayIsEEEELm32EEE@Base 3.2.1
 _ZTSN8casacore18casacore_allocatorINS_16RORecordFieldPtrINS_6StringEEELm32EEE@Base 3.2.1
 _ZTSN8casacore18casacore_allocatorINS_16RORecordFieldPtrISt7complexIdEEELm32EEE@Base 3.2.1
 _ZTSN8casacore18casacore_allocatorINS_16RORecordFieldPtrISt7complexIfEEELm32EEE@Base 3.2.1
 _ZTSN8casacore18casacore_allocatorINS_16RORecordFieldPtrIbEELm32EEE@Base 3.2.1
 _ZTSN8casacore18casacore_allocatorINS_16RORecordFieldPtrIdEELm32EEE@Base 3.2.1
 _ZTSN8casacore18casacore_allocatorINS_16RORecordFieldPtrIfEELm32EEE@Base 3.2.1
 _ZTSN8casacore18casacore_allocatorINS_16RORecordFieldPtrIhEELm32EEE@Base 3.2.1
 _ZTSN8casacore18casacore_allocatorINS_16RORecordFieldPtrIiEELm32EEE@Base 3.2.1
 _ZTSN8casacore18casacore_allocatorINS_16RORecordFieldPtrIsEELm32EEE@Base 3.2.1
 _ZTSN8casacore18casacore_allocatorINS_6MVTimeELm32EEE@Base 3.2.1
 _ZTSN8casacore18casacore_allocatorINS_6StringELm32EEE@Base 3.2.1
 _ZTSN8casacore18casacore_allocatorIPNS_6SlicerELm32EEE@Base 3.2.1
 _ZTSN8casacore18casacore_allocatorIPvLm32EEE@Base 3.2.1
 _ZTSN8casacore18casacore_allocatorIbLm32EEE@Base 3.2.1
 _ZTSN8casacore18casacore_allocatorIcLm32EEE@Base 3.2.1
 _ZTSN8casacore18casacore_allocatorIdLm32EEE@Base 3.2.1
 _ZTSN8casacore18casacore_allocatorIhLm32EEE@Base 3.2.1
 _ZTSN8casacore18casacore_allocatorIiLm32EEE@Base 3.2.1
 _ZTSN8casacore18casacore_allocatorIjLm32EEE@Base 3.2.1
 _ZTSN8casacore18casacore_allocatorIsLm32EEE@Base 3.2.1
 _ZTSN8casacore19AsciiTableExtensionE@Base 3.2.1
 _ZTSN8casacore20ArrayFITSFieldCopierISt7complexIdES2_EE@Base 3.2.1
 _ZTSN8casacore20ArrayFITSFieldCopierISt7complexIfES2_EE@Base 3.2.1
 _ZTSN8casacore20ArrayFITSFieldCopierIbNS_11FitsLogicalEEE@Base 3.2.1
 _ZTSN8casacore20ArrayFITSFieldCopierIddEE@Base 3.2.1
 _ZTSN8casacore20ArrayFITSFieldCopierIffEE@Base 3.2.1
 _ZTSN8casacore20ArrayFITSFieldCopierIhhEE@Base 3.2.1
 _ZTSN8casacore20ArrayFITSFieldCopierIiiEE@Base 3.2.1
 _ZTSN8casacore20ArrayFITSFieldCopierIssEE@Base 3.2.1
 _ZTSN8casacore20BinaryTableExtensionE@Base 3.2.1
 _ZTSN8casacore21ScalarFITSFieldCopierISt7complexIdES2_EE@Base 3.2.1
 _ZTSN8casacore21ScalarFITSFieldCopierISt7complexIfES2_EE@Base 3.2.1
 _ZTSN8casacore21ScalarFITSFieldCopierIbNS_11FitsLogicalEEE@Base 3.2.1
 _ZTSN8casacore21ScalarFITSFieldCopierIddEE@Base 3.2.1
 _ZTSN8casacore21ScalarFITSFieldCopierIffEE@Base 3.2.1
 _ZTSN8casacore21ScalarFITSFieldCopierIhhEE@Base 3.2.1
 _ZTSN8casacore21ScalarFITSFieldCopierIiiEE@Base 3.2.1
 _ZTSN8casacore21ScalarFITSFieldCopierIssEE@Base 3.2.1
 _ZTSN8casacore21StringFITSFieldCopierE@Base 3.2.1
 _ZTSN8casacore23ExtensionHeaderDataUnitE@Base 3.2.1
 _ZTSN8casacore28VariableArrayFITSFieldCopierISt7complexIdES2_EE@Base 3.2.1
 _ZTSN8casacore28VariableArrayFITSFieldCopierISt7complexIfES2_EE@Base 3.2.1
 _ZTSN8casacore28VariableArrayFITSFieldCopierIbNS_11FitsLogicalEEE@Base 3.2.1
 _ZTSN8casacore28VariableArrayFITSFieldCopierIddEE@Base 3.2.1
 _ZTSN8casacore28VariableArrayFITSFieldCopierIffEE@Base 3.2.1
 _ZTSN8casacore28VariableArrayFITSFieldCopierIhhEE@Base 3.2.1
 _ZTSN8casacore28VariableArrayFITSFieldCopierIiiEE@Base 3.2.1
 _ZTSN8casacore28VariableArrayFITSFieldCopierIssEE@Base 3.2.1
 _ZTSN8casacore6FitsIOE@Base 3.2.1
 _ZTSN8casacore6MatrixINS_6StringEEE@Base 3.2.1
 _ZTSN8casacore6MatrixIiEE@Base 3.2.1
 _ZTSN8casacore6VectorIhEE@Base 3.2.1
 _ZTSN8casacore7BlockIOE@Base 3.2.1
 _ZTSN8casacore8FitsBaseE@Base 3.2.1
 _ZTSN8casacore9FITSTableE@Base 3.2.1
 _ZTSN8casacore9FitsArrayINS_10FitsVADescEEE@Base 3.2.1
 _ZTSN8casacore9FitsArrayINS_11FitsLogicalEEE@Base 3.2.1
 _ZTSN8casacore9FitsArrayINS_7FitsBitEEE@Base 3.2.1
 _ZTSN8casacore9FitsArrayINS_8IComplexEEE@Base 3.2.1
 _ZTSN8casacore9FitsArrayISt7complexIdEEE@Base 3.2.1
 _ZTSN8casacore9FitsArrayISt7complexIfEEE@Base 3.2.1
 _ZTSN8casacore9FitsArrayIcEE@Base 3.2.1
 _ZTSN8casacore9FitsArrayIdEE@Base 3.2.1
 _ZTSN8casacore9FitsArrayIfEE@Base 3.2.1
 _ZTSN8casacore9FitsArrayIhEE@Base 3.2.1
 _ZTSN8casacore9FitsArrayIiEE@Base 3.2.1
 _ZTSN8casacore9FitsArrayIsEE@Base 3.2.1
 _ZTSN8casacore9FitsFieldINS_10FitsVADescEEE@Base 3.2.1
 _ZTSN8casacore9FitsFieldINS_11FitsLogicalEEE@Base 3.2.1
 _ZTSN8casacore9FitsFieldINS_7FitsBitEEE@Base 3.2.1
 _ZTSN8casacore9FitsFieldINS_8IComplexEEE@Base 3.2.1
 _ZTSN8casacore9FitsFieldISt7complexIdEEE@Base 3.2.1
 _ZTSN8casacore9FitsFieldISt7complexIfEEE@Base 3.2.1
 _ZTSN8casacore9FitsFieldIcEE@Base 3.2.1
 _ZTSN8casacore9FitsFieldIdEE@Base 3.2.1
 _ZTSN8casacore9FitsFieldIfEE@Base 3.2.1
 _ZTSN8casacore9FitsFieldIhEE@Base 3.2.1
 _ZTSN8casacore9FitsFieldIiEE@Base 3.2.1
 _ZTSN8casacore9FitsFieldIsEE@Base 3.2.1
 _ZTSN8casacore9FitsInputE@Base 3.2.1
 _ZTSN9__gnu_cxx13new_allocatorIN8casacore14RecordFieldPtrINS1_5ArrayINS1_6StringEEEEEEE@Base 3.2.1
 _ZTSN9__gnu_cxx13new_allocatorIN8casacore14RecordFieldPtrINS1_5ArrayISt7complexIdEEEEEEE@Base 3.2.1
 _ZTSN9__gnu_cxx13new_allocatorIN8casacore14RecordFieldPtrINS1_5ArrayISt7complexIfEEEEEEE@Base 3.2.1
 _ZTSN9__gnu_cxx13new_allocatorIN8casacore14RecordFieldPtrINS1_5ArrayIbEEEEEE@Base 3.2.1
 _ZTSN9__gnu_cxx13new_allocatorIN8casacore14RecordFieldPtrINS1_5ArrayIdEEEEEE@Base 3.2.1
 _ZTSN9__gnu_cxx13new_allocatorIN8casacore14RecordFieldPtrINS1_5ArrayIfEEEEEE@Base 3.2.1
 _ZTSN9__gnu_cxx13new_allocatorIN8casacore14RecordFieldPtrINS1_5ArrayIhEEEEEE@Base 3.2.1
 _ZTSN9__gnu_cxx13new_allocatorIN8casacore14RecordFieldPtrINS1_5ArrayIiEEEEEE@Base 3.2.1
 _ZTSN9__gnu_cxx13new_allocatorIN8casacore14RecordFieldPtrINS1_5ArrayIsEEEEEE@Base 3.2.1
 _ZTSN9__gnu_cxx13new_allocatorIN8casacore14RecordFieldPtrINS1_6StringEEEEE@Base 3.2.1
 _ZTSN9__gnu_cxx13new_allocatorIN8casacore14RecordFieldPtrISt7complexIdEEEEE@Base 3.2.1
 _ZTSN9__gnu_cxx13new_allocatorIN8casacore14RecordFieldPtrISt7complexIfEEEEE@Base 3.2.1
 _ZTSN9__gnu_cxx13new_allocatorIN8casacore14RecordFieldPtrIbEEEE@Base 3.2.1
 _ZTSN9__gnu_cxx13new_allocatorIN8casacore14RecordFieldPtrIdEEEE@Base 3.2.1
 _ZTSN9__gnu_cxx13new_allocatorIN8casacore14RecordFieldPtrIfEEEE@Base 3.2.1
 _ZTSN9__gnu_cxx13new_allocatorIN8casacore14RecordFieldPtrIhEEEE@Base 3.2.1
 _ZTSN9__gnu_cxx13new_allocatorIN8casacore14RecordFieldPtrIiEEEE@Base 3.2.1
 _ZTSN9__gnu_cxx13new_allocatorIN8casacore14RecordFieldPtrIsEEEE@Base 3.2.1
 _ZTSN9__gnu_cxx13new_allocatorIN8casacore16RORecordFieldPtrINS1_5ArrayINS1_6StringEEEEEEE@Base 3.2.1
 _ZTSN9__gnu_cxx13new_allocatorIN8casacore16RORecordFieldPtrINS1_5ArrayISt7complexIdEEEEEEE@Base 3.2.1
 _ZTSN9__gnu_cxx13new_allocatorIN8casacore16RORecordFieldPtrINS1_5ArrayISt7complexIfEEEEEEE@Base 3.2.1
 _ZTSN9__gnu_cxx13new_allocatorIN8casacore16RORecordFieldPtrINS1_5ArrayIbEEEEEE@Base 3.2.1
 _ZTSN9__gnu_cxx13new_allocatorIN8casacore16RORecordFieldPtrINS1_5ArrayIdEEEEEE@Base 3.2.1
 _ZTSN9__gnu_cxx13new_allocatorIN8casacore16RORecordFieldPtrINS1_5ArrayIfEEEEEE@Base 3.2.1
 _ZTSN9__gnu_cxx13new_allocatorIN8casacore16RORecordFieldPtrINS1_5ArrayIhEEEEEE@Base 3.2.1
 _ZTSN9__gnu_cxx13new_allocatorIN8casacore16RORecordFieldPtrINS1_5ArrayIiEEEEEE@Base 3.2.1
 _ZTSN9__gnu_cxx13new_allocatorIN8casacore16RORecordFieldPtrINS1_5ArrayIsEEEEEE@Base 3.2.1
 _ZTSN9__gnu_cxx13new_allocatorIN8casacore16RORecordFieldPtrINS1_6StringEEEEE@Base 3.2.1
 _ZTSN9__gnu_cxx13new_allocatorIN8casacore16RORecordFieldPtrISt7complexIdEEEEE@Base 3.2.1
 _ZTSN9__gnu_cxx13new_allocatorIN8casacore16RORecordFieldPtrISt7complexIfEEEEE@Base 3.2.1
 _ZTSN9__gnu_cxx13new_allocatorIN8casacore16RORecordFieldPtrIbEEEE@Base 3.2.1
 _ZTSN9__gnu_cxx13new_allocatorIN8casacore16RORecordFieldPtrIdEEEE@Base 3.2.1
 _ZTSN9__gnu_cxx13new_allocatorIN8casacore16RORecordFieldPtrIfEEEE@Base 3.2.1
 _ZTSN9__gnu_cxx13new_allocatorIN8casacore16RORecordFieldPtrIhEEEE@Base 3.2.1
 _ZTSN9__gnu_cxx13new_allocatorIN8casacore16RORecordFieldPtrIiEEEE@Base 3.2.1
 _ZTSN9__gnu_cxx13new_allocatorIN8casacore16RORecordFieldPtrIsEEEE@Base 3.2.1
 _ZTSN9__gnu_cxx13new_allocatorIN8casacore6MVTimeEEE@Base 3.2.1
 _ZTSN9__gnu_cxx13new_allocatorIN8casacore6StringEEE@Base 3.2.1
 _ZTSN9__gnu_cxx13new_allocatorIPN8casacore6SlicerEEE@Base 3.2.1
 _ZTSN9__gnu_cxx13new_allocatorIPvEE@Base 3.2.1
 _ZTSN9__gnu_cxx13new_allocatorIbEE@Base 3.2.1
 _ZTSN9__gnu_cxx13new_allocatorIcEE@Base 3.2.1
 _ZTSN9__gnu_cxx13new_allocatorIdEE@Base 3.2.1
 _ZTSN9__gnu_cxx13new_allocatorIhEE@Base 3.2.1
 _ZTSN9__gnu_cxx13new_allocatorIiEE@Base 3.2.1
 _ZTSN9__gnu_cxx13new_allocatorIjEE@Base 3.2.1
 _ZTSN9__gnu_cxx13new_allocatorIsEE@Base 3.2.1
 _ZTSSaIN8casacore14RecordFieldPtrINS_5ArrayINS_6StringEEEEEE@Base 3.2.1
 _ZTSSaIN8casacore14RecordFieldPtrINS_5ArrayISt7complexIdEEEEEE@Base 3.2.1
 _ZTSSaIN8casacore14RecordFieldPtrINS_5ArrayISt7complexIfEEEEEE@Base 3.2.1
 _ZTSSaIN8casacore14RecordFieldPtrINS_5ArrayIbEEEEE@Base 3.2.1
 _ZTSSaIN8casacore14RecordFieldPtrINS_5ArrayIdEEEEE@Base 3.2.1
 _ZTSSaIN8casacore14RecordFieldPtrINS_5ArrayIfEEEEE@Base 3.2.1
 _ZTSSaIN8casacore14RecordFieldPtrINS_5ArrayIhEEEEE@Base 3.2.1
 _ZTSSaIN8casacore14RecordFieldPtrINS_5ArrayIiEEEEE@Base 3.2.1
 _ZTSSaIN8casacore14RecordFieldPtrINS_5ArrayIsEEEEE@Base 3.2.1
 _ZTSSaIN8casacore14RecordFieldPtrINS_6StringEEEE@Base 3.2.1
 _ZTSSaIN8casacore14RecordFieldPtrISt7complexIdEEEE@Base 3.2.1
 _ZTSSaIN8casacore14RecordFieldPtrISt7complexIfEEEE@Base 3.2.1
 _ZTSSaIN8casacore14RecordFieldPtrIbEEE@Base 3.2.1
 _ZTSSaIN8casacore14RecordFieldPtrIdEEE@Base 3.2.1
 _ZTSSaIN8casacore14RecordFieldPtrIfEEE@Base 3.2.1
 _ZTSSaIN8casacore14RecordFieldPtrIhEEE@Base 3.2.1
 _ZTSSaIN8casacore14RecordFieldPtrIiEEE@Base 3.2.1
 _ZTSSaIN8casacore14RecordFieldPtrIsEEE@Base 3.2.1
 _ZTSSaIN8casacore16RORecordFieldPtrINS_5ArrayINS_6StringEEEEEE@Base 3.2.1
 _ZTSSaIN8casacore16RORecordFieldPtrINS_5ArrayISt7complexIdEEEEEE@Base 3.2.1
 _ZTSSaIN8casacore16RORecordFieldPtrINS_5ArrayISt7complexIfEEEEEE@Base 3.2.1
 _ZTSSaIN8casacore16RORecordFieldPtrINS_5ArrayIbEEEEE@Base 3.2.1
 _ZTSSaIN8casacore16RORecordFieldPtrINS_5ArrayIdEEEEE@Base 3.2.1
 _ZTSSaIN8casacore16RORecordFieldPtrINS_5ArrayIfEEEEE@Base 3.2.1
 _ZTSSaIN8casacore16RORecordFieldPtrINS_5ArrayIhEEEEE@Base 3.2.1
 _ZTSSaIN8casacore16RORecordFieldPtrINS_5ArrayIiEEEEE@Base 3.2.1
 _ZTSSaIN8casacore16RORecordFieldPtrINS_5ArrayIsEEEEE@Base 3.2.1
 _ZTSSaIN8casacore16RORecordFieldPtrINS_6StringEEEE@Base 3.2.1
 _ZTSSaIN8casacore16RORecordFieldPtrISt7complexIdEEEE@Base 3.2.1
 _ZTSSaIN8casacore16RORecordFieldPtrISt7complexIfEEEE@Base 3.2.1
 _ZTSSaIN8casacore16RORecordFieldPtrIbEEE@Base 3.2.1
 _ZTSSaIN8casacore16RORecordFieldPtrIdEEE@Base 3.2.1
 _ZTSSaIN8casacore16RORecordFieldPtrIfEEE@Base 3.2.1
 _ZTSSaIN8casacore16RORecordFieldPtrIhEEE@Base 3.2.1
 _ZTSSaIN8casacore16RORecordFieldPtrIiEEE@Base 3.2.1
 _ZTSSaIN8casacore16RORecordFieldPtrIsEEE@Base 3.2.1
 _ZTSSaIN8casacore6MVTimeEE@Base 3.2.1
 _ZTSSaIN8casacore6StringEE@Base 3.2.1
 _ZTSSaIPN8casacore6SlicerEE@Base 3.2.1
 _ZTSSaIPvE@Base 3.2.1
 _ZTSSaIbE@Base 3.2.1
 _ZTSSaIcE@Base 3.2.1
 _ZTSSaIdE@Base 3.2.1
 _ZTSSaIhE@Base 3.2.1
 _ZTSSaIiE@Base 3.2.1
 _ZTSSaIjE@Base 3.2.1
 _ZTSSaIsE@Base 3.2.1
 _ZTSSt11_Mutex_baseILN9__gnu_cxx12_Lock_policyE2EE@Base 3.2.1
 _ZTSSt15_Sp_counted_ptrIPN8casacore11BaseCompareELN9__gnu_cxx12_Lock_policyE2EE@Base 3.2.1
 _ZTSSt15_Sp_counted_ptrIPN8casacore5BlockIhEELN9__gnu_cxx12_Lock_policyE2EE@Base 3.2.1
 _ZTSSt16_Sp_counted_baseILN9__gnu_cxx12_Lock_policyE2EE@Base 3.2.1
 _ZTSSt19_Sp_counted_deleterIPN8casacore13RecordDescRepENS0_10CountedPtrIS1_E7DeleterIS1_EESaIvELN9__gnu_cxx12_Lock_policyE2EE@Base 3.2.1
 _ZTVN8casacore10BlockInputE@Base 3.2.1
 _ZTVN8casacore10FitsOutputE@Base 3.2.1
 _ZTVN8casacore10ObjCompareIhEE@Base 3.2.1
 _ZTVN8casacore11ArrayColumnIhEE@Base 3.2.1
 _ZTVN8casacore11BinaryTableE@Base 3.2.1
 _ZTVN8casacore11BlockOutputE@Base 3.2.1
 _ZTVN8casacore11FITSTabularE@Base 3.2.1
 _ZTVN8casacore11SDFITSTableE@Base 3.2.1
 _ZTVN8casacore12FitsStdInputE@Base 3.2.1
 _ZTVN8casacore12PrimaryArrayIdEE@Base 3.2.1
 _ZTVN8casacore12PrimaryArrayIfEE@Base 3.2.1
 _ZTVN8casacore12PrimaryArrayIhEE@Base 3.2.1
 _ZTVN8casacore12PrimaryArrayIiEE@Base 3.2.1
 _ZTVN8casacore12PrimaryArrayIsEE@Base 3.2.1
 _ZTVN8casacore12PrimaryGroupIdEE@Base 3.2.1
 _ZTVN8casacore12PrimaryGroupIfEE@Base 3.2.1
 _ZTVN8casacore12PrimaryGroupIhEE@Base 3.2.1
 _ZTVN8casacore12PrimaryGroupIiEE@Base 3.2.1
 _ZTVN8casacore12PrimaryGroupIsEE@Base 3.2.1
 _ZTVN8casacore12PrimaryTableIdEE@Base 3.2.1
 _ZTVN8casacore12PrimaryTableIfEE@Base 3.2.1
 _ZTVN8casacore12PrimaryTableIhEE@Base 3.2.1
 _ZTVN8casacore12PrimaryTableIiEE@Base 3.2.1
 _ZTVN8casacore12PrimaryTableIsEE@Base 3.2.1
 _ZTVN8casacore12ScalarColumnIhEE@Base 3.2.1
 _ZTVN8casacore13FitsDiskInputE@Base 3.2.1
 _ZTVN8casacore13FitsStdOutputE@Base 3.2.1
 _ZTVN8casacore14FITSMultiTableE@Base 3.2.1
 _ZTVN8casacore14FITSTimedTableE@Base 3.2.1
 _ZTVN8casacore14FitsDiskOutputE@Base 3.2.1
 _ZTVN8casacore14FitsTape9InputE@Base 3.2.1
 _ZTVN8casacore14HeaderDataUnitE@Base 3.2.1
 _ZTVN8casacore14ImageExtensionIdEE@Base 3.2.1
 _ZTVN8casacore14ImageExtensionIfEE@Base 3.2.1
 _ZTVN8casacore14ImageExtensionIhEE@Base 3.2.1
 _ZTVN8casacore14ImageExtensionIiEE@Base 3.2.1
 _ZTVN8casacore14ImageExtensionIsEE@Base 3.2.1
 _ZTVN8casacore14RecordFieldPtrINS_5ArrayINS_6StringEEEEE@Base 3.2.1
 _ZTVN8casacore14RecordFieldPtrINS_5ArrayISt7complexIdEEEEE@Base 3.2.1
 _ZTVN8casacore14RecordFieldPtrINS_5ArrayISt7complexIfEEEEE@Base 3.2.1
 _ZTVN8casacore14RecordFieldPtrINS_5ArrayIbEEEE@Base 3.2.1
 _ZTVN8casacore14RecordFieldPtrINS_5ArrayIdEEEE@Base 3.2.1
 _ZTVN8casacore14RecordFieldPtrINS_5ArrayIfEEEE@Base 3.2.1
 _ZTVN8casacore14RecordFieldPtrINS_5ArrayIhEEEE@Base 3.2.1
 _ZTVN8casacore14RecordFieldPtrINS_5ArrayIiEEEE@Base 3.2.1
 _ZTVN8casacore14RecordFieldPtrINS_5ArrayIsEEEE@Base 3.2.1
 _ZTVN8casacore14RecordFieldPtrINS_6StringEEE@Base 3.2.1
 _ZTVN8casacore14RecordFieldPtrISt7complexIdEEE@Base 3.2.1
 _ZTVN8casacore14RecordFieldPtrISt7complexIfEEE@Base 3.2.1
 _ZTVN8casacore14RecordFieldPtrIbEE@Base 3.2.1
 _ZTVN8casacore14RecordFieldPtrIdEE@Base 3.2.1
 _ZTVN8casacore14RecordFieldPtrIfEE@Base 3.2.1
 _ZTVN8casacore14RecordFieldPtrIhEE@Base 3.2.1
 _ZTVN8casacore14RecordFieldPtrIiEE@Base 3.2.1
 _ZTVN8casacore14RecordFieldPtrIsEE@Base 3.2.1
 _ZTVN8casacore15ArrayColumnDataIhEE@Base 3.2.1
 _ZTVN8casacore15ArrayColumnDescIhEE@Base 3.2.1
 _ZTVN8casacore15FitsTape9OutputE@Base 3.2.1
 _ZTVN8casacore15NewDelAllocatorINS_6MVTimeEEE@Base 3.2.1
 _ZTVN8casacore15NewDelAllocatorIPNS_6SlicerEEE@Base 3.2.1
 _ZTVN8casacore16DefaultAllocatorINS_6MVTimeEEE@Base 3.2.1
 _ZTVN8casacore16DefaultAllocatorIPNS_6SlicerEEE@Base 3.2.1
 _ZTVN8casacore16ScalarColumnDataIhEE@Base 3.2.1
 _ZTVN8casacore16ScalarColumnDescIhEE@Base 3.2.1
 _ZTVN8casacore17Allocator_private17BulkAllocatorImplINS_17new_del_allocatorINS_6MVTimeEEEEE@Base 3.2.1
 _ZTVN8casacore17Allocator_private17BulkAllocatorImplINS_17new_del_allocatorIPNS_6SlicerEEEEE@Base 3.2.1
 _ZTVN8casacore17Allocator_private17BulkAllocatorImplINS_18casacore_allocatorINS_14RecordFieldPtrINS_5ArrayINS_6StringEEEEELm32EEEEE@Base 3.2.1
 _ZTVN8casacore17Allocator_private17BulkAllocatorImplINS_18casacore_allocatorINS_14RecordFieldPtrINS_5ArrayISt7complexIdEEEEELm32EEEEE@Base 3.2.1
 _ZTVN8casacore17Allocator_private17BulkAllocatorImplINS_18casacore_allocatorINS_14RecordFieldPtrINS_5ArrayISt7complexIfEEEEELm32EEEEE@Base 3.2.1
 _ZTVN8casacore17Allocator_private17BulkAllocatorImplINS_18casacore_allocatorINS_14RecordFieldPtrINS_5ArrayIbEEEELm32EEEEE@Base 3.2.1
 _ZTVN8casacore17Allocator_private17BulkAllocatorImplINS_18casacore_allocatorINS_14RecordFieldPtrINS_5ArrayIdEEEELm32EEEEE@Base 3.2.1
 _ZTVN8casacore17Allocator_private17BulkAllocatorImplINS_18casacore_allocatorINS_14RecordFieldPtrINS_5ArrayIfEEEELm32EEEEE@Base 3.2.1
 _ZTVN8casacore17Allocator_private17BulkAllocatorImplINS_18casacore_allocatorINS_14RecordFieldPtrINS_5ArrayIhEEEELm32EEEEE@Base 3.2.1
 _ZTVN8casacore17Allocator_private17BulkAllocatorImplINS_18casacore_allocatorINS_14RecordFieldPtrINS_5ArrayIiEEEELm32EEEEE@Base 3.2.1
 _ZTVN8casacore17Allocator_private17BulkAllocatorImplINS_18casacore_allocatorINS_14RecordFieldPtrINS_5ArrayIsEEEELm32EEEEE@Base 3.2.1
 _ZTVN8casacore17Allocator_private17BulkAllocatorImplINS_18casacore_allocatorINS_14RecordFieldPtrINS_6StringEEELm32EEEEE@Base 3.2.1
 _ZTVN8casacore17Allocator_private17BulkAllocatorImplINS_18casacore_allocatorINS_14RecordFieldPtrISt7complexIdEEELm32EEEEE@Base 3.2.1
 _ZTVN8casacore17Allocator_private17BulkAllocatorImplINS_18casacore_allocatorINS_14RecordFieldPtrISt7complexIfEEELm32EEEEE@Base 3.2.1
 _ZTVN8casacore17Allocator_private17BulkAllocatorImplINS_18casacore_allocatorINS_14RecordFieldPtrIbEELm32EEEEE@Base 3.2.1
 _ZTVN8casacore17Allocator_private17BulkAllocatorImplINS_18casacore_allocatorINS_14RecordFieldPtrIdEELm32EEEEE@Base 3.2.1
 _ZTVN8casacore17Allocator_private17BulkAllocatorImplINS_18casacore_allocatorINS_14RecordFieldPtrIfEELm32EEEEE@Base 3.2.1
 _ZTVN8casacore17Allocator_private17BulkAllocatorImplINS_18casacore_allocatorINS_14RecordFieldPtrIhEELm32EEEEE@Base 3.2.1
 _ZTVN8casacore17Allocator_private17BulkAllocatorImplINS_18casacore_allocatorINS_14RecordFieldPtrIiEELm32EEEEE@Base 3.2.1
 _ZTVN8casacore17Allocator_private17BulkAllocatorImplINS_18casacore_allocatorINS_14RecordFieldPtrIsEELm32EEEEE@Base 3.2.1
 _ZTVN8casacore17Allocator_private17BulkAllocatorImplINS_18casacore_allocatorINS_16RORecordFieldPtrINS_5ArrayINS_6StringEEEEELm32EEEEE@Base 3.2.1
 _ZTVN8casacore17Allocator_private17BulkAllocatorImplINS_18casacore_allocatorINS_16RORecordFieldPtrINS_5ArrayISt7complexIdEEEEELm32EEEEE@Base 3.2.1
 _ZTVN8casacore17Allocator_private17BulkAllocatorImplINS_18casacore_allocatorINS_16RORecordFieldPtrINS_5ArrayISt7complexIfEEEEELm32EEEEE@Base 3.2.1
 _ZTVN8casacore17Allocator_private17BulkAllocatorImplINS_18casacore_allocatorINS_16RORecordFieldPtrINS_5ArrayIbEEEELm32EEEEE@Base 3.2.1
 _ZTVN8casacore17Allocator_private17BulkAllocatorImplINS_18casacore_allocatorINS_16RORecordFieldPtrINS_5ArrayIdEEEELm32EEEEE@Base 3.2.1
 _ZTVN8casacore17Allocator_private17BulkAllocatorImplINS_18casacore_allocatorINS_16RORecordFieldPtrINS_5ArrayIfEEEELm32EEEEE@Base 3.2.1
 _ZTVN8casacore17Allocator_private17BulkAllocatorImplINS_18casacore_allocatorINS_16RORecordFieldPtrINS_5ArrayIhEEEELm32EEEEE@Base 3.2.1
 _ZTVN8casacore17Allocator_private17BulkAllocatorImplINS_18casacore_allocatorINS_16RORecordFieldPtrINS_5ArrayIiEEEELm32EEEEE@Base 3.2.1
 _ZTVN8casacore17Allocator_private17BulkAllocatorImplINS_18casacore_allocatorINS_16RORecordFieldPtrINS_5ArrayIsEEEELm32EEEEE@Base 3.2.1
 _ZTVN8casacore17Allocator_private17BulkAllocatorImplINS_18casacore_allocatorINS_16RORecordFieldPtrINS_6StringEEELm32EEEEE@Base 3.2.1
 _ZTVN8casacore17Allocator_private17BulkAllocatorImplINS_18casacore_allocatorINS_16RORecordFieldPtrISt7complexIdEEELm32EEEEE@Base 3.2.1
 _ZTVN8casacore17Allocator_private17BulkAllocatorImplINS_18casacore_allocatorINS_16RORecordFieldPtrISt7complexIfEEELm32EEEEE@Base 3.2.1
 _ZTVN8casacore17Allocator_private17BulkAllocatorImplINS_18casacore_allocatorINS_16RORecordFieldPtrIbEELm32EEEEE@Base 3.2.1
 _ZTVN8casacore17Allocator_private17BulkAllocatorImplINS_18casacore_allocatorINS_16RORecordFieldPtrIdEELm32EEEEE@Base 3.2.1
 _ZTVN8casacore17Allocator_private17BulkAllocatorImplINS_18casacore_allocatorINS_16RORecordFieldPtrIfEELm32EEEEE@Base 3.2.1
 _ZTVN8casacore17Allocator_private17BulkAllocatorImplINS_18casacore_allocatorINS_16RORecordFieldPtrIhEELm32EEEEE@Base 3.2.1
 _ZTVN8casacore17Allocator_private17BulkAllocatorImplINS_18casacore_allocatorINS_16RORecordFieldPtrIiEELm32EEEEE@Base 3.2.1
 _ZTVN8casacore17Allocator_private17BulkAllocatorImplINS_18casacore_allocatorINS_16RORecordFieldPtrIsEELm32EEEEE@Base 3.2.1
 _ZTVN8casacore17Allocator_private17BulkAllocatorImplINS_18casacore_allocatorINS_6MVTimeELm32EEEEE@Base 3.2.1
 _ZTVN8casacore17Allocator_private17BulkAllocatorImplINS_18casacore_allocatorINS_6StringELm32EEEEE@Base 3.2.1
 _ZTVN8casacore17Allocator_private17BulkAllocatorImplINS_18casacore_allocatorIPNS_6SlicerELm32EEEEE@Base 3.2.1
 _ZTVN8casacore17Allocator_private17BulkAllocatorImplINS_18casacore_allocatorIPvLm32EEEEE@Base 3.2.1
 _ZTVN8casacore17Allocator_private17BulkAllocatorImplINS_18casacore_allocatorIbLm32EEEEE@Base 3.2.1
 _ZTVN8casacore17Allocator_private17BulkAllocatorImplINS_18casacore_allocatorIcLm32EEEEE@Base 3.2.1
 _ZTVN8casacore17Allocator_private17BulkAllocatorImplINS_18casacore_allocatorIdLm32EEEEE@Base 3.2.1
 _ZTVN8casacore17Allocator_private17BulkAllocatorImplINS_18casacore_allocatorIhLm32EEEEE@Base 3.2.1
 _ZTVN8casacore17Allocator_private17BulkAllocatorImplINS_18casacore_allocatorIiLm32EEEEE@Base 3.2.1
 _ZTVN8casacore17Allocator_private17BulkAllocatorImplINS_18casacore_allocatorIjLm32EEEEE@Base 3.2.1
 _ZTVN8casacore17Allocator_private17BulkAllocatorImplINS_18casacore_allocatorIsLm32EEEEE@Base 3.2.1
 _ZTVN8casacore18ConcatScalarColumnIhEE@Base 3.2.1
 _ZTVN8casacore19AsciiTableExtensionE@Base 3.2.1
 _ZTVN8casacore20ArrayFITSFieldCopierISt7complexIdES2_EE@Base 3.2.1
 _ZTVN8casacore20ArrayFITSFieldCopierISt7complexIfES2_EE@Base 3.2.1
 _ZTVN8casacore20ArrayFITSFieldCopierIbNS_11FitsLogicalEEE@Base 3.2.1
 _ZTVN8casacore20ArrayFITSFieldCopierIddEE@Base 3.2.1
 _ZTVN8casacore20ArrayFITSFieldCopierIffEE@Base 3.2.1
 _ZTVN8casacore20ArrayFITSFieldCopierIhhEE@Base 3.2.1
 _ZTVN8casacore20ArrayFITSFieldCopierIiiEE@Base 3.2.1
 _ZTVN8casacore20ArrayFITSFieldCopierIssEE@Base 3.2.1
 _ZTVN8casacore20BinaryTableExtensionE@Base 3.2.1
 _ZTVN8casacore21ScalarFITSFieldCopierISt7complexIdES2_EE@Base 3.2.1
 _ZTVN8casacore21ScalarFITSFieldCopierISt7complexIfES2_EE@Base 3.2.1
 _ZTVN8casacore21ScalarFITSFieldCopierIbNS_11FitsLogicalEEE@Base 3.2.1
 _ZTVN8casacore21ScalarFITSFieldCopierIddEE@Base 3.2.1
 _ZTVN8casacore21ScalarFITSFieldCopierIffEE@Base 3.2.1
 _ZTVN8casacore21ScalarFITSFieldCopierIhhEE@Base 3.2.1
 _ZTVN8casacore21ScalarFITSFieldCopierIiiEE@Base 3.2.1
 _ZTVN8casacore21ScalarFITSFieldCopierIssEE@Base 3.2.1
 _ZTVN8casacore21StringFITSFieldCopierE@Base 3.2.1
 _ZTVN8casacore23ExtensionHeaderDataUnitE@Base 3.2.1
 _ZTVN8casacore28VariableArrayFITSFieldCopierISt7complexIdES2_EE@Base 3.2.1
 _ZTVN8casacore28VariableArrayFITSFieldCopierISt7complexIfES2_EE@Base 3.2.1
 _ZTVN8casacore28VariableArrayFITSFieldCopierIbNS_11FitsLogicalEEE@Base 3.2.1
 _ZTVN8casacore28VariableArrayFITSFieldCopierIddEE@Base 3.2.1
 _ZTVN8casacore28VariableArrayFITSFieldCopierIffEE@Base 3.2.1
 _ZTVN8casacore28VariableArrayFITSFieldCopierIhhEE@Base 3.2.1
 _ZTVN8casacore28VariableArrayFITSFieldCopierIiiEE@Base 3.2.1
 _ZTVN8casacore28VariableArrayFITSFieldCopierIssEE@Base 3.2.1
 _ZTVN8casacore6FitsIOE@Base 3.2.1
 _ZTVN8casacore6MatrixINS_6StringEEE@Base 3.2.1
 _ZTVN8casacore6MatrixIiEE@Base 3.2.1
 _ZTVN8casacore6VectorIhEE@Base 3.2.1
 _ZTVN8casacore7BlockIOE@Base 3.2.1
 _ZTVN8casacore8FitsBaseE@Base 3.2.1
 _ZTVN8casacore9FITSTableE@Base 3.2.1
 _ZTVN8casacore9FitsArrayINS_10FitsVADescEEE@Base 3.2.1
 _ZTVN8casacore9FitsArrayINS_11FitsLogicalEEE@Base 3.2.1
 _ZTVN8casacore9FitsArrayINS_7FitsBitEEE@Base 3.2.1
 _ZTVN8casacore9FitsArrayINS_8IComplexEEE@Base 3.2.1
 _ZTVN8casacore9FitsArrayISt7complexIdEEE@Base 3.2.1
 _ZTVN8casacore9FitsArrayISt7complexIfEEE@Base 3.2.1
 _ZTVN8casacore9FitsArrayIcEE@Base 3.2.1
 _ZTVN8casacore9FitsArrayIdEE@Base 3.2.1
 _ZTVN8casacore9FitsArrayIfEE@Base 3.2.1
 _ZTVN8casacore9FitsArrayIhEE@Base 3.2.1
 _ZTVN8casacore9FitsArrayIiEE@Base 3.2.1
 _ZTVN8casacore9FitsArrayIsEE@Base 3.2.1
 _ZTVN8casacore9FitsFieldINS_10FitsVADescEEE@Base 3.2.1
 _ZTVN8casacore9FitsFieldINS_11FitsLogicalEEE@Base 3.2.1
 _ZTVN8casacore9FitsFieldINS_7FitsBitEEE@Base 3.2.1
 _ZTVN8casacore9FitsFieldINS_8IComplexEEE@Base 3.2.1
 _ZTVN8casacore9FitsFieldISt7complexIdEEE@Base 3.2.1
 _ZTVN8casacore9FitsFieldISt7complexIfEEE@Base 3.2.1
 _ZTVN8casacore9FitsFieldIcEE@Base 3.2.1
 _ZTVN8casacore9FitsFieldIdEE@Base 3.2.1
 _ZTVN8casacore9FitsFieldIfEE@Base 3.2.1
 _ZTVN8casacore9FitsFieldIhEE@Base 3.2.1
 _ZTVN8casacore9FitsFieldIiEE@Base 3.2.1
 _ZTVN8casacore9FitsFieldIsEE@Base 3.2.1
 _ZTVN8casacore9FitsInputE@Base 3.2.1
 _ZTVSt15_Sp_counted_ptrIPN8casacore11BaseCompareELN9__gnu_cxx12_Lock_policyE2EE@Base 3.2.1
 _ZTVSt15_Sp_counted_ptrIPN8casacore5BlockIhEELN9__gnu_cxx12_Lock_policyE2EE@Base 3.2.1
 _ZTVSt19_Sp_counted_deleterIPN8casacore13RecordDescRepENS0_10CountedPtrIS1_E7DeleterIS1_EESaIvELN9__gnu_cxx12_Lock_policyE2EE@Base 3.2.1
 _ZZN8casacore17Allocator_private17get_allocator_rawINS_17new_del_allocatorINS_6MVTimeEEEEEPNS0_17BulkAllocatorImplIT_EEvE3ptr@Base 3.2.1
 _ZZN8casacore17Allocator_private17get_allocator_rawINS_17new_del_allocatorINS_6MVTimeEEEEEPNS0_17BulkAllocatorImplIT_EEvE7storage@Base 3.2.1
 _ZZN8casacore17Allocator_private17get_allocator_rawINS_17new_del_allocatorIPNS_6SlicerEEEEEPNS0_17BulkAllocatorImplIT_EEvE3ptr@Base 3.2.1
 _ZZN8casacore17Allocator_private17get_allocator_rawINS_17new_del_allocatorIPNS_6SlicerEEEEEPNS0_17BulkAllocatorImplIT_EEvE7storage@Base 3.2.1
 _ZZN8casacore17Allocator_private17get_allocator_rawINS_18casacore_allocatorINS_14RecordFieldPtrINS_5ArrayINS_6StringEEEEELm32EEEEEPNS0_17BulkAllocatorImplIT_EEvE3ptr@Base 3.2.1
 _ZZN8casacore17Allocator_private17get_allocator_rawINS_18casacore_allocatorINS_14RecordFieldPtrINS_5ArrayINS_6StringEEEEELm32EEEEEPNS0_17BulkAllocatorImplIT_EEvE7storage@Base 3.2.1
 _ZZN8casacore17Allocator_private17get_allocator_rawINS_18casacore_allocatorINS_14RecordFieldPtrINS_5ArrayISt7complexIdEEEEELm32EEEEEPNS0_17BulkAllocatorImplIT_EEvE3ptr@Base 3.2.1
 _ZZN8casacore17Allocator_private17get_allocator_rawINS_18casacore_allocatorINS_14RecordFieldPtrINS_5ArrayISt7complexIdEEEEELm32EEEEEPNS0_17BulkAllocatorImplIT_EEvE7storage@Base 3.2.1
 _ZZN8casacore17Allocator_private17get_allocator_rawINS_18casacore_allocatorINS_14RecordFieldPtrINS_5ArrayISt7complexIfEEEEELm32EEEEEPNS0_17BulkAllocatorImplIT_EEvE3ptr@Base 3.2.1
 _ZZN8casacore17Allocator_private17get_allocator_rawINS_18casacore_allocatorINS_14RecordFieldPtrINS_5ArrayISt7complexIfEEEEELm32EEEEEPNS0_17BulkAllocatorImplIT_EEvE7storage@Base 3.2.1
 _ZZN8casacore17Allocator_private17get_allocator_rawINS_18casacore_allocatorINS_14RecordFieldPtrINS_5ArrayIbEEEELm32EEEEEPNS0_17BulkAllocatorImplIT_EEvE3ptr@Base 3.2.1
 _ZZN8casacore17Allocator_private17get_allocator_rawINS_18casacore_allocatorINS_14RecordFieldPtrINS_5ArrayIbEEEELm32EEEEEPNS0_17BulkAllocatorImplIT_EEvE7storage@Base 3.2.1
 _ZZN8casacore17Allocator_private17get_allocator_rawINS_18casacore_allocatorINS_14RecordFieldPtrINS_5ArrayIdEEEELm32EEEEEPNS0_17BulkAllocatorImplIT_EEvE3ptr@Base 3.2.1
 _ZZN8casacore17Allocator_private17get_allocator_rawINS_18casacore_allocatorINS_14RecordFieldPtrINS_5ArrayIdEEEELm32EEEEEPNS0_17BulkAllocatorImplIT_EEvE7storage@Base 3.2.1
 _ZZN8casacore17Allocator_private17get_allocator_rawINS_18casacore_allocatorINS_14RecordFieldPtrINS_5ArrayIfEEEELm32EEEEEPNS0_17BulkAllocatorImplIT_EEvE3ptr@Base 3.2.1
 _ZZN8casacore17Allocator_private17get_allocator_rawINS_18casacore_allocatorINS_14RecordFieldPtrINS_5ArrayIfEEEELm32EEEEEPNS0_17BulkAllocatorImplIT_EEvE7storage@Base 3.2.1
 _ZZN8casacore17Allocator_private17get_allocator_rawINS_18casacore_allocatorINS_14RecordFieldPtrINS_5ArrayIhEEEELm32EEEEEPNS0_17BulkAllocatorImplIT_EEvE3ptr@Base 3.2.1
 _ZZN8casacore17Allocator_private17get_allocator_rawINS_18casacore_allocatorINS_14RecordFieldPtrINS_5ArrayIhEEEELm32EEEEEPNS0_17BulkAllocatorImplIT_EEvE7storage@Base 3.2.1
 _ZZN8casacore17Allocator_private17get_allocator_rawINS_18casacore_allocatorINS_14RecordFieldPtrINS_5ArrayIiEEEELm32EEEEEPNS0_17BulkAllocatorImplIT_EEvE3ptr@Base 3.2.1
 _ZZN8casacore17Allocator_private17get_allocator_rawINS_18casacore_allocatorINS_14RecordFieldPtrINS_5ArrayIiEEEELm32EEEEEPNS0_17BulkAllocatorImplIT_EEvE7storage@Base 3.2.1
 _ZZN8casacore17Allocator_private17get_allocator_rawINS_18casacore_allocatorINS_14RecordFieldPtrINS_5ArrayIsEEEELm32EEEEEPNS0_17BulkAllocatorImplIT_EEvE3ptr@Base 3.2.1
 _ZZN8casacore17Allocator_private17get_allocator_rawINS_18casacore_allocatorINS_14RecordFieldPtrINS_5ArrayIsEEEELm32EEEEEPNS0_17BulkAllocatorImplIT_EEvE7storage@Base 3.2.1
 _ZZN8casacore17Allocator_private17get_allocator_rawINS_18casacore_allocatorINS_14RecordFieldPtrINS_6StringEEELm32EEEEEPNS0_17BulkAllocatorImplIT_EEvE3ptr@Base 3.2.1
 _ZZN8casacore17Allocator_private17get_allocator_rawINS_18casacore_allocatorINS_14RecordFieldPtrINS_6StringEEELm32EEEEEPNS0_17BulkAllocatorImplIT_EEvE7storage@Base 3.2.1
 _ZZN8casacore17Allocator_private17get_allocator_rawINS_18casacore_allocatorINS_14RecordFieldPtrISt7complexIdEEELm32EEEEEPNS0_17BulkAllocatorImplIT_EEvE3ptr@Base 3.2.1
 _ZZN8casacore17Allocator_private17get_allocator_rawINS_18casacore_allocatorINS_14RecordFieldPtrISt7complexIdEEELm32EEEEEPNS0_17BulkAllocatorImplIT_EEvE7storage@Base 3.2.1
 _ZZN8casacore17Allocator_private17get_allocator_rawINS_18casacore_allocatorINS_14RecordFieldPtrISt7complexIfEEELm32EEEEEPNS0_17BulkAllocatorImplIT_EEvE3ptr@Base 3.2.1
 _ZZN8casacore17Allocator_private17get_allocator_rawINS_18casacore_allocatorINS_14RecordFieldPtrISt7complexIfEEELm32EEEEEPNS0_17BulkAllocatorImplIT_EEvE7storage@Base 3.2.1
 _ZZN8casacore17Allocator_private17get_allocator_rawINS_18casacore_allocatorINS_14RecordFieldPtrIbEELm32EEEEEPNS0_17BulkAllocatorImplIT_EEvE3ptr@Base 3.2.1
 _ZZN8casacore17Allocator_private17get_allocator_rawINS_18casacore_allocatorINS_14RecordFieldPtrIbEELm32EEEEEPNS0_17BulkAllocatorImplIT_EEvE7storage@Base 3.2.1
 _ZZN8casacore17Allocator_private17get_allocator_rawINS_18casacore_allocatorINS_14RecordFieldPtrIdEELm32EEEEEPNS0_17BulkAllocatorImplIT_EEvE3ptr@Base 3.2.1
 _ZZN8casacore17Allocator_private17get_allocator_rawINS_18casacore_allocatorINS_14RecordFieldPtrIdEELm32EEEEEPNS0_17BulkAllocatorImplIT_EEvE7storage@Base 3.2.1
 _ZZN8casacore17Allocator_private17get_allocator_rawINS_18casacore_allocatorINS_14RecordFieldPtrIfEELm32EEEEEPNS0_17BulkAllocatorImplIT_EEvE3ptr@Base 3.2.1
 _ZZN8casacore17Allocator_private17get_allocator_rawINS_18casacore_allocatorINS_14RecordFieldPtrIfEELm32EEEEEPNS0_17BulkAllocatorImplIT_EEvE7storage@Base 3.2.1
 _ZZN8casacore17Allocator_private17get_allocator_rawINS_18casacore_allocatorINS_14RecordFieldPtrIhEELm32EEEEEPNS0_17BulkAllocatorImplIT_EEvE3ptr@Base 3.2.1
 _ZZN8casacore17Allocator_private17get_allocator_rawINS_18casacore_allocatorINS_14RecordFieldPtrIhEELm32EEEEEPNS0_17BulkAllocatorImplIT_EEvE7storage@Base 3.2.1
 _ZZN8casacore17Allocator_private17get_allocator_rawINS_18casacore_allocatorINS_14RecordFieldPtrIiEELm32EEEEEPNS0_17BulkAllocatorImplIT_EEvE3ptr@Base 3.2.1
 _ZZN8casacore17Allocator_private17get_allocator_rawINS_18casacore_allocatorINS_14RecordFieldPtrIiEELm32EEEEEPNS0_17BulkAllocatorImplIT_EEvE7storage@Base 3.2.1
 _ZZN8casacore17Allocator_private17get_allocator_rawINS_18casacore_allocatorINS_14RecordFieldPtrIsEELm32EEEEEPNS0_17BulkAllocatorImplIT_EEvE3ptr@Base 3.2.1
 _ZZN8casacore17Allocator_private17get_allocator_rawINS_18casacore_allocatorINS_14RecordFieldPtrIsEELm32EEEEEPNS0_17BulkAllocatorImplIT_EEvE7storage@Base 3.2.1
 _ZZN8casacore17Allocator_private17get_allocator_rawINS_18casacore_allocatorINS_16RORecordFieldPtrINS_5ArrayINS_6StringEEEEELm32EEEEEPNS0_17BulkAllocatorImplIT_EEvE3ptr@Base 3.2.1
 _ZZN8casacore17Allocator_private17get_allocator_rawINS_18casacore_allocatorINS_16RORecordFieldPtrINS_5ArrayINS_6StringEEEEELm32EEEEEPNS0_17BulkAllocatorImplIT_EEvE7storage@Base 3.2.1
 _ZZN8casacore17Allocator_private17get_allocator_rawINS_18casacore_allocatorINS_16RORecordFieldPtrINS_5ArrayISt7complexIdEEEEELm32EEEEEPNS0_17BulkAllocatorImplIT_EEvE3ptr@Base 3.2.1
 _ZZN8casacore17Allocator_private17get_allocator_rawINS_18casacore_allocatorINS_16RORecordFieldPtrINS_5ArrayISt7complexIdEEEEELm32EEEEEPNS0_17BulkAllocatorImplIT_EEvE7storage@Base 3.2.1
 _ZZN8casacore17Allocator_private17get_allocator_rawINS_18casacore_allocatorINS_16RORecordFieldPtrINS_5ArrayISt7complexIfEEEEELm32EEEEEPNS0_17BulkAllocatorImplIT_EEvE3ptr@Base 3.2.1
 _ZZN8casacore17Allocator_private17get_allocator_rawINS_18casacore_allocatorINS_16RORecordFieldPtrINS_5ArrayISt7complexIfEEEEELm32EEEEEPNS0_17BulkAllocatorImplIT_EEvE7storage@Base 3.2.1
 _ZZN8casacore17Allocator_private17get_allocator_rawINS_18casacore_allocatorINS_16RORecordFieldPtrINS_5ArrayIbEEEELm32EEEEEPNS0_17BulkAllocatorImplIT_EEvE3ptr@Base 3.2.1
 _ZZN8casacore17Allocator_private17get_allocator_rawINS_18casacore_allocatorINS_16RORecordFieldPtrINS_5ArrayIbEEEELm32EEEEEPNS0_17BulkAllocatorImplIT_EEvE7storage@Base 3.2.1
 _ZZN8casacore17Allocator_private17get_allocator_rawINS_18casacore_allocatorINS_16RORecordFieldPtrINS_5ArrayIdEEEELm32EEEEEPNS0_17BulkAllocatorImplIT_EEvE3ptr@Base 3.2.1
 _ZZN8casacore17Allocator_private17get_allocator_rawINS_18casacore_allocatorINS_16RORecordFieldPtrINS_5ArrayIdEEEELm32EEEEEPNS0_17BulkAllocatorImplIT_EEvE7storage@Base 3.2.1
 _ZZN8casacore17Allocator_private17get_allocator_rawINS_18casacore_allocatorINS_16RORecordFieldPtrINS_5ArrayIfEEEELm32EEEEEPNS0_17BulkAllocatorImplIT_EEvE3ptr@Base 3.2.1
 _ZZN8casacore17Allocator_private17get_allocator_rawINS_18casacore_allocatorINS_16RORecordFieldPtrINS_5ArrayIfEEEELm32EEEEEPNS0_17BulkAllocatorImplIT_EEvE7storage@Base 3.2.1
 _ZZN8casacore17Allocator_private17get_allocator_rawINS_18casacore_allocatorINS_16RORecordFieldPtrINS_5ArrayIhEEEELm32EEEEEPNS0_17BulkAllocatorImplIT_EEvE3ptr@Base 3.2.1
 _ZZN8casacore17Allocator_private17get_allocator_rawINS_18casacore_allocatorINS_16RORecordFieldPtrINS_5ArrayIhEEEELm32EEEEEPNS0_17BulkAllocatorImplIT_EEvE7storage@Base 3.2.1
 _ZZN8casacore17Allocator_private17get_allocator_rawINS_18casacore_allocatorINS_16RORecordFieldPtrINS_5ArrayIiEEEELm32EEEEEPNS0_17BulkAllocatorImplIT_EEvE3ptr@Base 3.2.1
 _ZZN8casacore17Allocator_private17get_allocator_rawINS_18casacore_allocatorINS_16RORecordFieldPtrINS_5ArrayIiEEEELm32EEEEEPNS0_17BulkAllocatorImplIT_EEvE7storage@Base 3.2.1
 _ZZN8casacore17Allocator_private17get_allocator_rawINS_18casacore_allocatorINS_16RORecordFieldPtrINS_5ArrayIsEEEELm32EEEEEPNS0_17BulkAllocatorImplIT_EEvE3ptr@Base 3.2.1
 _ZZN8casacore17Allocator_private17get_allocator_rawINS_18casacore_allocatorINS_16RORecordFieldPtrINS_5ArrayIsEEEELm32EEEEEPNS0_17BulkAllocatorImplIT_EEvE7storage@Base 3.2.1
 _ZZN8casacore17Allocator_private17get_allocator_rawINS_18casacore_allocatorINS_16RORecordFieldPtrINS_6StringEEELm32EEEEEPNS0_17BulkAllocatorImplIT_EEvE3ptr@Base 3.2.1
 _ZZN8casacore17Allocator_private17get_allocator_rawINS_18casacore_allocatorINS_16RORecordFieldPtrINS_6StringEEELm32EEEEEPNS0_17BulkAllocatorImplIT_EEvE7storage@Base 3.2.1
 _ZZN8casacore17Allocator_private17get_allocator_rawINS_18casacore_allocatorINS_16RORecordFieldPtrISt7complexIdEEELm32EEEEEPNS0_17BulkAllocatorImplIT_EEvE3ptr@Base 3.2.1
 _ZZN8casacore17Allocator_private17get_allocator_rawINS_18casacore_allocatorINS_16RORecordFieldPtrISt7complexIdEEELm32EEEEEPNS0_17BulkAllocatorImplIT_EEvE7storage@Base 3.2.1
 _ZZN8casacore17Allocator_private17get_allocator_rawINS_18casacore_allocatorINS_16RORecordFieldPtrISt7complexIfEEELm32EEEEEPNS0_17BulkAllocatorImplIT_EEvE3ptr@Base 3.2.1
 _ZZN8casacore17Allocator_private17get_allocator_rawINS_18casacore_allocatorINS_16RORecordFieldPtrISt7complexIfEEELm32EEEEEPNS0_17BulkAllocatorImplIT_EEvE7storage@Base 3.2.1
 _ZZN8casacore17Allocator_private17get_allocator_rawINS_18casacore_allocatorINS_16RORecordFieldPtrIbEELm32EEEEEPNS0_17BulkAllocatorImplIT_EEvE3ptr@Base 3.2.1
 _ZZN8casacore17Allocator_private17get_allocator_rawINS_18casacore_allocatorINS_16RORecordFieldPtrIbEELm32EEEEEPNS0_17BulkAllocatorImplIT_EEvE7storage@Base 3.2.1
 _ZZN8casacore17Allocator_private17get_allocator_rawINS_18casacore_allocatorINS_16RORecordFieldPtrIdEELm32EEEEEPNS0_17BulkAllocatorImplIT_EEvE3ptr@Base 3.2.1
 _ZZN8casacore17Allocator_private17get_allocator_rawINS_18casacore_allocatorINS_16RORecordFieldPtrIdEELm32EEEEEPNS0_17BulkAllocatorImplIT_EEvE7storage@Base 3.2.1
 _ZZN8casacore17Allocator_private17get_allocator_rawINS_18casacore_allocatorINS_16RORecordFieldPtrIfEELm32EEEEEPNS0_17BulkAllocatorImplIT_EEvE3ptr@Base 3.2.1
 _ZZN8casacore17Allocator_private17get_allocator_rawINS_18casacore_allocatorINS_16RORecordFieldPtrIfEELm32EEEEEPNS0_17BulkAllocatorImplIT_EEvE7storage@Base 3.2.1
 _ZZN8casacore17Allocator_private17get_allocator_rawINS_18casacore_allocatorINS_16RORecordFieldPtrIhEELm32EEEEEPNS0_17BulkAllocatorImplIT_EEvE3ptr@Base 3.2.1
 _ZZN8casacore17Allocator_private17get_allocator_rawINS_18casacore_allocatorINS_16RORecordFieldPtrIhEELm32EEEEEPNS0_17BulkAllocatorImplIT_EEvE7storage@Base 3.2.1
 _ZZN8casacore17Allocator_private17get_allocator_rawINS_18casacore_allocatorINS_16RORecordFieldPtrIiEELm32EEEEEPNS0_17BulkAllocatorImplIT_EEvE3ptr@Base 3.2.1
 _ZZN8casacore17Allocator_private17get_allocator_rawINS_18casacore_allocatorINS_16RORecordFieldPtrIiEELm32EEEEEPNS0_17BulkAllocatorImplIT_EEvE7storage@Base 3.2.1
 _ZZN8casacore17Allocator_private17get_allocator_rawINS_18casacore_allocatorINS_16RORecordFieldPtrIsEELm32EEEEEPNS0_17BulkAllocatorImplIT_EEvE3ptr@Base 3.2.1
 _ZZN8casacore17Allocator_private17get_allocator_rawINS_18casacore_allocatorINS_16RORecordFieldPtrIsEELm32EEEEEPNS0_17BulkAllocatorImplIT_EEvE7storage@Base 3.2.1
 _ZZN8casacore17Allocator_private17get_allocator_rawINS_18casacore_allocatorINS_6MVTimeELm32EEEEEPNS0_17BulkAllocatorImplIT_EEvE3ptr@Base 3.2.1
 _ZZN8casacore17Allocator_private17get_allocator_rawINS_18casacore_allocatorINS_6MVTimeELm32EEEEEPNS0_17BulkAllocatorImplIT_EEvE7storage@Base 3.2.1
 _ZZN8casacore17Allocator_private17get_allocator_rawINS_18casacore_allocatorINS_6StringELm32EEEEEPNS0_17BulkAllocatorImplIT_EEvE3ptr@Base 3.2.1
 _ZZN8casacore17Allocator_private17get_allocator_rawINS_18casacore_allocatorINS_6StringELm32EEEEEPNS0_17BulkAllocatorImplIT_EEvE7storage@Base 3.2.1
 _ZZN8casacore17Allocator_private17get_allocator_rawINS_18casacore_allocatorIPNS_6SlicerELm32EEEEEPNS0_17BulkAllocatorImplIT_EEvE3ptr@Base 3.2.1
 _ZZN8casacore17Allocator_private17get_allocator_rawINS_18casacore_allocatorIPNS_6SlicerELm32EEEEEPNS0_17BulkAllocatorImplIT_EEvE7storage@Base 3.2.1
 _ZZN8casacore17Allocator_private17get_allocator_rawINS_18casacore_allocatorIPvLm32EEEEEPNS0_17BulkAllocatorImplIT_EEvE3ptr@Base 3.2.1
 _ZZN8casacore17Allocator_private17get_allocator_rawINS_18casacore_allocatorIPvLm32EEEEEPNS0_17BulkAllocatorImplIT_EEvE7storage@Base 3.2.1
 _ZZN8casacore17Allocator_private17get_allocator_rawINS_18casacore_allocatorIbLm32EEEEEPNS0_17BulkAllocatorImplIT_EEvE3ptr@Base 3.2.1
 _ZZN8casacore17Allocator_private17get_allocator_rawINS_18casacore_allocatorIbLm32EEEEEPNS0_17BulkAllocatorImplIT_EEvE7storage@Base 3.2.1
 _ZZN8casacore17Allocator_private17get_allocator_rawINS_18casacore_allocatorIcLm32EEEEEPNS0_17BulkAllocatorImplIT_EEvE3ptr@Base 3.2.1
 _ZZN8casacore17Allocator_private17get_allocator_rawINS_18casacore_allocatorIcLm32EEEEEPNS0_17BulkAllocatorImplIT_EEvE7storage@Base 3.2.1
 _ZZN8casacore17Allocator_private17get_allocator_rawINS_18casacore_allocatorIdLm32EEEEEPNS0_17BulkAllocatorImplIT_EEvE3ptr@Base 3.2.1
 _ZZN8casacore17Allocator_private17get_allocator_rawINS_18casacore_allocatorIdLm32EEEEEPNS0_17BulkAllocatorImplIT_EEvE7storage@Base 3.2.1
 _ZZN8casacore17Allocator_private17get_allocator_rawINS_18casacore_allocatorIhLm32EEEEEPNS0_17BulkAllocatorImplIT_EEvE3ptr@Base 3.2.1
 _ZZN8casacore17Allocator_private17get_allocator_rawINS_18casacore_allocatorIhLm32EEEEEPNS0_17BulkAllocatorImplIT_EEvE7storage@Base 3.2.1
 _ZZN8casacore17Allocator_private17get_allocator_rawINS_18casacore_allocatorIiLm32EEEEEPNS0_17BulkAllocatorImplIT_EEvE3ptr@Base 3.2.1
 _ZZN8casacore17Allocator_private17get_allocator_rawINS_18casacore_allocatorIiLm32EEEEEPNS0_17BulkAllocatorImplIT_EEvE7storage@Base 3.2.1
 _ZZN8casacore17Allocator_private17get_allocator_rawINS_18casacore_allocatorIjLm32EEEEEPNS0_17BulkAllocatorImplIT_EEvE3ptr@Base 3.2.1
 _ZZN8casacore17Allocator_private17get_allocator_rawINS_18casacore_allocatorIjLm32EEEEEPNS0_17BulkAllocatorImplIT_EEvE7storage@Base 3.2.1
 _ZZN8casacore17Allocator_private17get_allocator_rawINS_18casacore_allocatorIsLm32EEEEEPNS0_17BulkAllocatorImplIT_EEvE3ptr@Base 3.2.1
 _ZZN8casacore17Allocator_private17get_allocator_rawINS_18casacore_allocatorIsLm32EEEEEPNS0_17BulkAllocatorImplIT_EEvE7storage@Base 3.2.1
 _ZZN8casacore7ValType8strucharEvE6result@Base 3.2.1
 _ZZN8casacore7assert_INS_10AbortErrorEEC4EiPKcS4_iE7message@Base 3.2.1
 _ZZN8casacore7assert_INS_10ArrayErrorEEC4EiPKcS4_iE7message@Base 3.2.1
 _ZZN8casacore7assert_INS_9AipsErrorEEC4EPKvPKcS6_iE7message@Base 3.2.1
 _ZZN8casacore7assert_INS_9AipsErrorEEC4EiPKcS4_iE7message@Base 3.2.1
