libcasa_scimath.so.4 libcasa-scimath4 #MINVER#
 _ZGVN8casacore14ChebyshevParamINS_8AutoDiffISt7complexIdEEEE7modes_sE@Base 3.2.1-1kern1
 _ZGVN8casacore14ChebyshevParamINS_8AutoDiffIdEEE7modes_sE@Base 3.2.1-1kern1
 _ZGVN8casacore14ChebyshevParamISt7complexIdEE7modes_sE@Base 3.2.1-1kern1
 _ZGVN8casacore14ChebyshevParamIdE7modes_sE@Base 3.2.1-1kern1
 _ZGVN8casacore15NewDelAllocatorINS_6VectorIdEEE5valueE@Base 3.2.1-1kern1
 _ZGVN8casacore15NewDelAllocatorINS_7QuantumIdEEE5valueE@Base 3.2.1-1kern1
 _ZGVN8casacore15NewDelAllocatorINS_8AutoDiffISt7complexIdEEEE5valueE@Base 3.2.1-1kern1
 _ZGVN8casacore15NewDelAllocatorINS_8AutoDiffIdEEE5valueE@Base 3.2.1-1kern1
 _ZGVN8casacore16DefaultAllocatorINS_6VectorIdEEE5valueE@Base 3.2.1-1kern1
 _ZGVN8casacore16DefaultAllocatorINS_7QuantumIdEEE5valueE@Base 3.2.1-1kern1
 _ZGVN8casacore16DefaultAllocatorINS_8AutoDiffISt7complexIdEEEE5valueE@Base 3.2.1-1kern1
 _ZGVN8casacore16DefaultAllocatorINS_8AutoDiffIdEEE5valueE@Base 3.2.1-1kern1
 _ZGVN8casacore17Allocator_private17BulkAllocatorImplINS_17new_del_allocatorINS_6VectorIdEEEEE9allocatorE@Base 3.2.1-1kern1
 _ZGVN8casacore17Allocator_private17BulkAllocatorImplINS_17new_del_allocatorINS_7QuantumIdEEEEE9allocatorE@Base 3.2.1-1kern1
 _ZGVN8casacore17Allocator_private17BulkAllocatorImplINS_17new_del_allocatorINS_8AutoDiffISt7complexIdEEEEEE9allocatorE@Base 3.2.1-1kern1
 _ZGVN8casacore17Allocator_private17BulkAllocatorImplINS_17new_del_allocatorINS_8AutoDiffIdEEEEE9allocatorE@Base 3.2.1-1kern1
 _ZGVN8casacore17Allocator_private17BulkAllocatorImplINS_18casacore_allocatorINS_6VectorIdEELm32EEEE9allocatorE@Base 3.2.1-1kern1
 _ZGVN8casacore17Allocator_private17BulkAllocatorImplINS_18casacore_allocatorINS_7QuantumIdEELm32EEEE9allocatorE@Base 3.2.1-1kern1
 _ZGVN8casacore17Allocator_private17BulkAllocatorImplINS_18casacore_allocatorINS_8AutoDiffISt7complexIdEEELm32EEEE9allocatorE@Base 3.2.1-1kern1
 _ZGVN8casacore17Allocator_private17BulkAllocatorImplINS_18casacore_allocatorINS_8AutoDiffIdEELm32EEEE9allocatorE@Base 3.2.1-1kern1
 _ZGVN8casacore17Allocator_private17BulkAllocatorImplINS_18casacore_allocatorIPvLm32EEEE9allocatorE@Base 3.2.1-1kern1
 _ZGVN8casacore17Allocator_private17BulkAllocatorImplINS_18casacore_allocatorISt7complexIdELm32EEEE9allocatorE@Base 3.2.1-1kern1
 _ZGVN8casacore17Allocator_private17BulkAllocatorImplINS_18casacore_allocatorISt7complexIfELm32EEEE9allocatorE@Base 3.2.1-1kern1
 _ZGVN8casacore17Allocator_private17BulkAllocatorImplINS_18casacore_allocatorIdLm32EEEE9allocatorE@Base 3.2.1-1kern1
 _ZGVN8casacore17Allocator_private17BulkAllocatorImplINS_18casacore_allocatorIjLm32EEEE9allocatorE@Base 3.2.1-1kern1
 _ZGVZN8casacore17Allocator_private17get_allocator_rawINS_17new_del_allocatorINS_6VectorIdEEEEEEPNS0_17BulkAllocatorImplIT_EEvE3ptr@Base 3.2.1-1kern1
 _ZGVZN8casacore17Allocator_private17get_allocator_rawINS_17new_del_allocatorINS_7QuantumIdEEEEEEPNS0_17BulkAllocatorImplIT_EEvE3ptr@Base 3.2.1-1kern1
 _ZGVZN8casacore17Allocator_private17get_allocator_rawINS_17new_del_allocatorINS_8AutoDiffISt7complexIdEEEEEEEPNS0_17BulkAllocatorImplIT_EEvE3ptr@Base 3.2.1-1kern1
 _ZGVZN8casacore17Allocator_private17get_allocator_rawINS_17new_del_allocatorINS_8AutoDiffIdEEEEEEPNS0_17BulkAllocatorImplIT_EEvE3ptr@Base 3.2.1-1kern1
 _ZGVZN8casacore17Allocator_private17get_allocator_rawINS_18casacore_allocatorINS_6VectorIdEELm32EEEEEPNS0_17BulkAllocatorImplIT_EEvE3ptr@Base 3.2.1-1kern1
 _ZGVZN8casacore17Allocator_private17get_allocator_rawINS_18casacore_allocatorINS_7QuantumIdEELm32EEEEEPNS0_17BulkAllocatorImplIT_EEvE3ptr@Base 3.2.1-1kern1
 _ZGVZN8casacore17Allocator_private17get_allocator_rawINS_18casacore_allocatorINS_8AutoDiffISt7complexIdEEELm32EEEEEPNS0_17BulkAllocatorImplIT_EEvE3ptr@Base 3.2.1-1kern1
 _ZGVZN8casacore17Allocator_private17get_allocator_rawINS_18casacore_allocatorINS_8AutoDiffIdEELm32EEEEEPNS0_17BulkAllocatorImplIT_EEvE3ptr@Base 3.2.1-1kern1
 _ZGVZN8casacore17Allocator_private17get_allocator_rawINS_18casacore_allocatorIPvLm32EEEEEPNS0_17BulkAllocatorImplIT_EEvE3ptr@Base 3.2.1-1kern1
 _ZGVZN8casacore17Allocator_private17get_allocator_rawINS_18casacore_allocatorISt7complexIdELm32EEEEEPNS0_17BulkAllocatorImplIT_EEvE3ptr@Base 3.2.1-1kern1
 _ZGVZN8casacore17Allocator_private17get_allocator_rawINS_18casacore_allocatorISt7complexIfELm32EEEEEPNS0_17BulkAllocatorImplIT_EEvE3ptr@Base 3.2.1-1kern1
 _ZGVZN8casacore17Allocator_private17get_allocator_rawINS_18casacore_allocatorIdLm32EEEEEPNS0_17BulkAllocatorImplIT_EEvE3ptr@Base 3.2.1-1kern1
 _ZGVZN8casacore17Allocator_private17get_allocator_rawINS_18casacore_allocatorIjLm32EEEEEPNS0_17BulkAllocatorImplIT_EEvE3ptr@Base 3.2.1-1kern1
 _ZGVZN8casacore2QC5hTurnEvE6result@Base 3.2.1-1kern1
 _ZGVZN8casacore2QC5qTurnEvE6result@Base 3.2.1-1kern1
 _ZGVZNK8casacore10CombiParamINS_8AutoDiffISt7complexIdEEEE4nameEvE1x@Base 3.2.1-1kern1
 _ZGVZNK8casacore10CombiParamINS_8AutoDiffIdEEE4nameEvE1x@Base 3.2.1-1kern1
 _ZGVZNK8casacore10CombiParamISt7complexIdEE4nameEvE1x@Base 3.2.1-1kern1
 _ZGVZNK8casacore10CombiParamIdE4nameEvE1x@Base 3.2.1-1kern1
 _ZGVZNK8casacore13CompiledParamINS_8AutoDiffISt7complexIdEEEE4nameEvE1x@Base 3.2.1-1kern1
 _ZGVZNK8casacore13CompiledParamINS_8AutoDiffIdEEE4nameEvE1x@Base 3.2.1-1kern1
 _ZGVZNK8casacore13CompiledParamISt7complexIdEE4nameEvE1x@Base 3.2.1-1kern1
 _ZGVZNK8casacore13CompiledParamIdE4nameEvE1x@Base 3.2.1-1kern1
 _ZGVZNK8casacore13CompoundParamINS_8AutoDiffISt7complexIdEEEE4nameEvE1x@Base 3.2.1-1kern1
 _ZGVZNK8casacore13CompoundParamINS_8AutoDiffIdEEE4nameEvE1x@Base 3.2.1-1kern1
 _ZGVZNK8casacore13CompoundParamISt7complexIdEE4nameEvE1x@Base 3.2.1-1kern1
 _ZGVZNK8casacore13CompoundParamIdE4nameEvE1x@Base 3.2.1-1kern1
 _ZGVZNK8casacore13Interpolate1DIddE4nameEvE1x@Base 3.2.1-1kern1
 _ZGVZNK8casacore14ChebyshevParamINS_8AutoDiffISt7complexIdEEEE4nameEvE1x@Base 3.2.1-1kern1
 _ZGVZNK8casacore14ChebyshevParamINS_8AutoDiffIdEEE4nameEvE1x@Base 3.2.1-1kern1
 _ZGVZNK8casacore14ChebyshevParamISt7complexIdEE4nameEvE1x@Base 3.2.1-1kern1
 _ZGVZNK8casacore14ChebyshevParamIdE4nameEvE1x@Base 3.2.1-1kern1
 _ZGVZNK8casacore14FunctionHolderISt7complexIdEE4initEvE3fnc@Base 3.2.1-1kern1
 _ZGVZNK8casacore14FunctionHolderISt7complexIdEE5identEvE4myid@Base 3.2.1-1kern1
 _ZGVZNK8casacore14FunctionHolderIdE4initEvE3fnc@Base 3.2.1-1kern1
 _ZGVZNK8casacore14FunctionHolderIdE5identEvE4myid@Base 3.2.1-1kern1
 _ZGVZNK8casacore15Gaussian1DParamINS_8AutoDiffISt7complexIdEEEE4nameEvE1x@Base 3.2.1-1kern1
 _ZGVZNK8casacore15Gaussian1DParamINS_8AutoDiffIdEEE4nameEvE1x@Base 3.2.1-1kern1
 _ZGVZNK8casacore15Gaussian1DParamISt7complexIdEE4nameEvE1x@Base 3.2.1-1kern1
 _ZGVZNK8casacore15Gaussian1DParamIdE4nameEvE1x@Base 3.2.1-1kern1
 _ZGVZNK8casacore15Gaussian2DParamINS_8AutoDiffISt7complexIdEEEE4nameEvE1x@Base 3.2.1-1kern1
 _ZGVZNK8casacore15Gaussian2DParamINS_8AutoDiffIdEEE4nameEvE1x@Base 3.2.1-1kern1
 _ZGVZNK8casacore15Gaussian2DParamISt7complexIdEE4nameEvE1x@Base 3.2.1-1kern1
 _ZGVZNK8casacore15Gaussian2DParamIdE4nameEvE1x@Base 3.2.1-1kern1
 _ZGVZNK8casacore15Gaussian3DParamINS_8AutoDiffISt7complexIdEEEE4nameEvE1x@Base 3.2.1-1kern1
 _ZGVZNK8casacore15Gaussian3DParamINS_8AutoDiffIdEEE4nameEvE1x@Base 3.2.1-1kern1
 _ZGVZNK8casacore15Gaussian3DParamISt7complexIdEE4nameEvE1x@Base 3.2.1-1kern1
 _ZGVZNK8casacore15Gaussian3DParamIdE4nameEvE1x@Base 3.2.1-1kern1
 _ZGVZNK8casacore15GaussianNDParamINS_8AutoDiffISt7complexIdEEEE4nameEvE1x@Base 3.2.1-1kern1
 _ZGVZNK8casacore15GaussianNDParamINS_8AutoDiffIdEEE4nameEvE1x@Base 3.2.1-1kern1
 _ZGVZNK8casacore15GaussianNDParamISt7complexIdEE4nameEvE1x@Base 3.2.1-1kern1
 _ZGVZNK8casacore15GaussianNDParamIdE4nameEvE1x@Base 3.2.1-1kern1
 _ZGVZNK8casacore15HyperPlaneParamINS_8AutoDiffISt7complexIdEEEE4nameEvE1x@Base 3.2.1-1kern1
 _ZGVZNK8casacore15HyperPlaneParamINS_8AutoDiffIdEEE4nameEvE1x@Base 3.2.1-1kern1
 _ZGVZNK8casacore15HyperPlaneParamISt7complexIdEE4nameEvE1x@Base 3.2.1-1kern1
 _ZGVZNK8casacore15HyperPlaneParamIdE4nameEvE1x@Base 3.2.1-1kern1
 _ZGVZNK8casacore15PolynomialParamINS_8AutoDiffISt7complexIdEEEE4nameEvE1x@Base 3.2.1-1kern1
 _ZGVZNK8casacore15PolynomialParamINS_8AutoDiffIdEEE4nameEvE1x@Base 3.2.1-1kern1
 _ZGVZNK8casacore15PolynomialParamISt7complexIdEE4nameEvE1x@Base 3.2.1-1kern1
 _ZGVZNK8casacore15PolynomialParamIdE4nameEvE1x@Base 3.2.1-1kern1
 _ZGVZNK8casacore15Sinusoid1DParamINS_8AutoDiffISt7complexIdEEEE4nameEvE1x@Base 3.2.1-1kern1
 _ZGVZNK8casacore15Sinusoid1DParamINS_8AutoDiffIdEEE4nameEvE1x@Base 3.2.1-1kern1
 _ZGVZNK8casacore15Sinusoid1DParamISt7complexIdEE4nameEvE1x@Base 3.2.1-1kern1
 _ZGVZNK8casacore15Sinusoid1DParamIdE4nameEvE1x@Base 3.2.1-1kern1
 _ZGVZNK8casacore18OddPolynomialParamINS_8AutoDiffISt7complexIdEEEE4nameEvE1x@Base 3.2.1-1kern1
 _ZGVZNK8casacore18OddPolynomialParamINS_8AutoDiffIdEEE4nameEvE1x@Base 3.2.1-1kern1
 _ZGVZNK8casacore18OddPolynomialParamISt7complexIdEE4nameEvE1x@Base 3.2.1-1kern1
 _ZGVZNK8casacore18OddPolynomialParamIdE4nameEvE1x@Base 3.2.1-1kern1
 _ZGVZNK8casacore19EvenPolynomialParamINS_8AutoDiffISt7complexIdEEEE4nameEvE1x@Base 3.2.1-1kern1
 _ZGVZNK8casacore19EvenPolynomialParamINS_8AutoDiffIdEEE4nameEvE1x@Base 3.2.1-1kern1
 _ZGVZNK8casacore19EvenPolynomialParamISt7complexIdEE4nameEvE1x@Base 3.2.1-1kern1
 _ZGVZNK8casacore19EvenPolynomialParamIdE4nameEvE1x@Base 3.2.1-1kern1
 _ZGVZNK8casacore8FunctionINS_8AutoDiffISt7complexIdEEES4_E4nameEvE1x@Base 3.2.1-1kern1
 _ZGVZNK8casacore8FunctionINS_8AutoDiffIdEES2_E4nameEvE1x@Base 3.2.1-1kern1
 _ZGVZNK8casacore8FunctionISt7complexIdES2_E4nameEvE1x@Base 3.2.1-1kern1
 _ZGVZNK8casacore8FunctionIddE4nameEvE1x@Base 3.2.1-1kern1
 _ZN8casacore10CombiParamINS_8AutoDiffISt7complexIdEEEE11addFunctionERKNS_8FunctionIS4_S4_EE@Base 3.2.1-1kern1
 _ZN8casacore10CombiParamINS_8AutoDiffISt7complexIdEEEEC1ERKS5_@Base 3.2.1-1kern1
 _ZN8casacore10CombiParamINS_8AutoDiffISt7complexIdEEEEC2ERKS5_@Base 3.2.1-1kern1
 _ZN8casacore10CombiParamINS_8AutoDiffISt7complexIdEEEED0Ev@Base 3.2.1-1kern1
 _ZN8casacore10CombiParamINS_8AutoDiffISt7complexIdEEEED1Ev@Base 3.2.1-1kern1
 _ZN8casacore10CombiParamINS_8AutoDiffISt7complexIdEEEED2Ev@Base 3.2.1-1kern1
 _ZN8casacore10CombiParamINS_8AutoDiffIdEEE11addFunctionERKNS_8FunctionIS2_S2_EE@Base 3.2.1-1kern1
 _ZN8casacore10CombiParamINS_8AutoDiffIdEEEC1ERKS3_@Base 3.2.1-1kern1
 _ZN8casacore10CombiParamINS_8AutoDiffIdEEEC2ERKS3_@Base 3.2.1-1kern1
 _ZN8casacore10CombiParamINS_8AutoDiffIdEEED0Ev@Base 3.2.1-1kern1
 _ZN8casacore10CombiParamINS_8AutoDiffIdEEED1Ev@Base 3.2.1-1kern1
 _ZN8casacore10CombiParamINS_8AutoDiffIdEEED2Ev@Base 3.2.1-1kern1
 _ZN8casacore10CombiParamISt7complexIdEE11addFunctionERKNS_8FunctionIS2_S2_EE@Base 3.2.1-1kern1
 _ZN8casacore10CombiParamISt7complexIdEED0Ev@Base 3.2.1-1kern1
 _ZN8casacore10CombiParamISt7complexIdEED1Ev@Base 3.2.1-1kern1
 _ZN8casacore10CombiParamISt7complexIdEED2Ev@Base 3.2.1-1kern1
 _ZN8casacore10CombiParamIdE11addFunctionERKNS_8FunctionIddEE@Base 3.2.1-1kern1
 _ZN8casacore10CombiParamIdED0Ev@Base 3.2.1-1kern1
 _ZN8casacore10CombiParamIdED1Ev@Base 3.2.1-1kern1
 _ZN8casacore10CombiParamIdED2Ev@Base 3.2.1-1kern1
 _ZN8casacore10CountedPtrINS_5BlockINS_6VectorIdEEEEEaSEPS4_@Base 3.2.1-1kern1
 _ZN8casacore10CountedPtrINS_5BlockINS_8AutoDiffISt7complexIdEEEEEEaSEPS6_@Base 3.2.1-1kern1
 _ZN8casacore10CountedPtrINS_5BlockINS_8AutoDiffIdEEEEEaSEPS4_@Base 3.2.1-1kern1
 _ZN8casacore10Gaussian1DINS_8AutoDiffISt7complexIdEEEED0Ev@Base 3.2.1-1kern1
 _ZN8casacore10Gaussian1DINS_8AutoDiffISt7complexIdEEEED1Ev@Base 3.2.1-1kern1
 _ZN8casacore10Gaussian1DINS_8AutoDiffISt7complexIdEEEED2Ev@Base 3.2.1-1kern1
 _ZN8casacore10Gaussian1DINS_8AutoDiffIdEEED0Ev@Base 3.2.1-1kern1
 _ZN8casacore10Gaussian1DINS_8AutoDiffIdEEED1Ev@Base 3.2.1-1kern1
 _ZN8casacore10Gaussian1DINS_8AutoDiffIdEEED2Ev@Base 3.2.1-1kern1
 _ZN8casacore10Gaussian1DISt7complexIdEED0Ev@Base 3.2.1-1kern1
 _ZN8casacore10Gaussian1DISt7complexIdEED1Ev@Base 3.2.1-1kern1
 _ZN8casacore10Gaussian1DISt7complexIdEED2Ev@Base 3.2.1-1kern1
 _ZN8casacore10Gaussian1DIdED0Ev@Base 3.2.1-1kern1
 _ZN8casacore10Gaussian1DIdED1Ev@Base 3.2.1-1kern1
 _ZN8casacore10Gaussian1DIdED2Ev@Base 3.2.1-1kern1
 _ZN8casacore10Gaussian2DINS_8AutoDiffISt7complexIdEEEED0Ev@Base 3.2.1-1kern1
 _ZN8casacore10Gaussian2DINS_8AutoDiffISt7complexIdEEEED1Ev@Base 3.2.1-1kern1
 _ZN8casacore10Gaussian2DINS_8AutoDiffISt7complexIdEEEED2Ev@Base 3.2.1-1kern1
 _ZN8casacore10Gaussian2DINS_8AutoDiffIdEEED0Ev@Base 3.2.1-1kern1
 _ZN8casacore10Gaussian2DINS_8AutoDiffIdEEED1Ev@Base 3.2.1-1kern1
 _ZN8casacore10Gaussian2DINS_8AutoDiffIdEEED2Ev@Base 3.2.1-1kern1
 _ZN8casacore10Gaussian2DISt7complexIdEED0Ev@Base 3.2.1-1kern1
 _ZN8casacore10Gaussian2DISt7complexIdEED1Ev@Base 3.2.1-1kern1
 _ZN8casacore10Gaussian2DISt7complexIdEED2Ev@Base 3.2.1-1kern1
 _ZN8casacore10Gaussian2DIdED0Ev@Base 3.2.1-1kern1
 _ZN8casacore10Gaussian2DIdED1Ev@Base 3.2.1-1kern1
 _ZN8casacore10Gaussian2DIdED2Ev@Base 3.2.1-1kern1
 _ZN8casacore10Gaussian3DINS_8AutoDiffISt7complexIdEEEED0Ev@Base 3.2.1-1kern1
 _ZN8casacore10Gaussian3DINS_8AutoDiffISt7complexIdEEEED1Ev@Base 3.2.1-1kern1
 _ZN8casacore10Gaussian3DINS_8AutoDiffISt7complexIdEEEED2Ev@Base 3.2.1-1kern1
 _ZN8casacore10Gaussian3DINS_8AutoDiffIdEEED0Ev@Base 3.2.1-1kern1
 _ZN8casacore10Gaussian3DINS_8AutoDiffIdEEED1Ev@Base 3.2.1-1kern1
 _ZN8casacore10Gaussian3DINS_8AutoDiffIdEEED2Ev@Base 3.2.1-1kern1
 _ZN8casacore10Gaussian3DISt7complexIdEED0Ev@Base 3.2.1-1kern1
 _ZN8casacore10Gaussian3DISt7complexIdEED1Ev@Base 3.2.1-1kern1
 _ZN8casacore10Gaussian3DISt7complexIdEED2Ev@Base 3.2.1-1kern1
 _ZN8casacore10Gaussian3DIdED0Ev@Base 3.2.1-1kern1
 _ZN8casacore10Gaussian3DIdED1Ev@Base 3.2.1-1kern1
 _ZN8casacore10Gaussian3DIdED2Ev@Base 3.2.1-1kern1
 _ZN8casacore10GaussianNDINS_8AutoDiffISt7complexIdEEEED0Ev@Base 3.2.1-1kern1
 _ZN8casacore10GaussianNDINS_8AutoDiffISt7complexIdEEEED1Ev@Base 3.2.1-1kern1
 _ZN8casacore10GaussianNDINS_8AutoDiffISt7complexIdEEEED2Ev@Base 3.2.1-1kern1
 _ZN8casacore10GaussianNDINS_8AutoDiffIdEEED0Ev@Base 3.2.1-1kern1
 _ZN8casacore10GaussianNDINS_8AutoDiffIdEEED1Ev@Base 3.2.1-1kern1
 _ZN8casacore10GaussianNDINS_8AutoDiffIdEEED2Ev@Base 3.2.1-1kern1
 _ZN8casacore10GaussianNDISt7complexIdEED0Ev@Base 3.2.1-1kern1
 _ZN8casacore10GaussianNDISt7complexIdEED1Ev@Base 3.2.1-1kern1
 _ZN8casacore10GaussianNDISt7complexIdEED2Ev@Base 3.2.1-1kern1
 _ZN8casacore10GaussianNDIdED0Ev@Base 3.2.1-1kern1
 _ZN8casacore10GaussianNDIdED1Ev@Base 3.2.1-1kern1
 _ZN8casacore10GaussianNDIdED2Ev@Base 3.2.1-1kern1
 _ZN8casacore10HyperPlaneINS_8AutoDiffISt7complexIdEEEED0Ev@Base 3.2.1-1kern1
 _ZN8casacore10HyperPlaneINS_8AutoDiffISt7complexIdEEEED1Ev@Base 3.2.1-1kern1
 _ZN8casacore10HyperPlaneINS_8AutoDiffISt7complexIdEEEED2Ev@Base 3.2.1-1kern1
 _ZN8casacore10HyperPlaneINS_8AutoDiffIdEEED0Ev@Base 3.2.1-1kern1
 _ZN8casacore10HyperPlaneINS_8AutoDiffIdEEED1Ev@Base 3.2.1-1kern1
 _ZN8casacore10HyperPlaneINS_8AutoDiffIdEEED2Ev@Base 3.2.1-1kern1
 _ZN8casacore10HyperPlaneISt7complexIdEED0Ev@Base 3.2.1-1kern1
 _ZN8casacore10HyperPlaneISt7complexIdEED1Ev@Base 3.2.1-1kern1
 _ZN8casacore10HyperPlaneISt7complexIdEED2Ev@Base 3.2.1-1kern1
 _ZN8casacore10HyperPlaneIdED0Ev@Base 3.2.1-1kern1
 _ZN8casacore10HyperPlaneIdED1Ev@Base 3.2.1-1kern1
 _ZN8casacore10HyperPlaneIdED2Ev@Base 3.2.1-1kern1
 _ZN8casacore10PolynomialINS_8AutoDiffISt7complexIdEEEED0Ev@Base 3.2.1-1kern1
 _ZN8casacore10PolynomialINS_8AutoDiffISt7complexIdEEEED1Ev@Base 3.2.1-1kern1
 _ZN8casacore10PolynomialINS_8AutoDiffISt7complexIdEEEED2Ev@Base 3.2.1-1kern1
 _ZN8casacore10PolynomialINS_8AutoDiffIdEEED0Ev@Base 3.2.1-1kern1
 _ZN8casacore10PolynomialINS_8AutoDiffIdEEED1Ev@Base 3.2.1-1kern1
 _ZN8casacore10PolynomialINS_8AutoDiffIdEEED2Ev@Base 3.2.1-1kern1
 _ZN8casacore10PolynomialISt7complexIdEED0Ev@Base 3.2.1-1kern1
 _ZN8casacore10PolynomialISt7complexIdEED1Ev@Base 3.2.1-1kern1
 _ZN8casacore10PolynomialISt7complexIdEED2Ev@Base 3.2.1-1kern1
 _ZN8casacore10PolynomialIdED0Ev@Base 3.2.1-1kern1
 _ZN8casacore10PolynomialIdED1Ev@Base 3.2.1-1kern1
 _ZN8casacore10PolynomialIdED2Ev@Base 3.2.1-1kern1
 _ZN8casacore10Sinusoid1DINS_8AutoDiffISt7complexIdEEEED0Ev@Base 3.2.1-1kern1
 _ZN8casacore10Sinusoid1DINS_8AutoDiffISt7complexIdEEEED1Ev@Base 3.2.1-1kern1
 _ZN8casacore10Sinusoid1DINS_8AutoDiffISt7complexIdEEEED2Ev@Base 3.2.1-1kern1
 _ZN8casacore10Sinusoid1DINS_8AutoDiffIdEEED0Ev@Base 3.2.1-1kern1
 _ZN8casacore10Sinusoid1DINS_8AutoDiffIdEEED1Ev@Base 3.2.1-1kern1
 _ZN8casacore10Sinusoid1DINS_8AutoDiffIdEEED2Ev@Base 3.2.1-1kern1
 _ZN8casacore10Sinusoid1DISt7complexIdEED0Ev@Base 3.2.1-1kern1
 _ZN8casacore10Sinusoid1DISt7complexIdEED1Ev@Base 3.2.1-1kern1
 _ZN8casacore10Sinusoid1DISt7complexIdEED2Ev@Base 3.2.1-1kern1
 _ZN8casacore10Sinusoid1DIdED0Ev@Base 3.2.1-1kern1
 _ZN8casacore10Sinusoid1DIdED1Ev@Base 3.2.1-1kern1
 _ZN8casacore10Sinusoid1DIdED2Ev@Base 3.2.1-1kern1
 _ZN8casacore11getArrayValINS_6StringEEEvRT_iRKNS_6RecordERKS1_j@Base 3.2.1-1kern1
 _ZN8casacore11getArrayValISt7complexIdEEEvRT_iRKNS_6RecordERKNS_6StringEj@Base 3.2.1-1kern1
 _ZN8casacore11getArrayValISt7complexIfEEEvRT_iRKNS_6RecordERKNS_6StringEj@Base 3.2.1-1kern1
 _ZN8casacore11getArrayValIbEEvRT_iRKNS_6RecordERKNS_6StringEj@Base 3.2.1-1kern1
 _ZN8casacore11getArrayValIdEEvRT_iRKNS_6RecordERKNS_6StringEj@Base 3.2.1-1kern1
 _ZN8casacore11getArrayValIfEEvRT_iRKNS_6RecordERKNS_6StringEj@Base 3.2.1-1kern1
 _ZN8casacore11getArrayValIiEEvRT_iRKNS_6RecordERKNS_6StringEj@Base 3.2.1-1kern1
 _ZN8casacore11getArrayValIsEEvRT_iRKNS_6RecordERKNS_6StringEj@Base 3.2.1-1kern1
 _ZN8casacore11objcopyctorINS_6VectorIdEEEEvPT_PKS3_m@Base 3.2.1-1kern1
 _ZN8casacore11objcopyctorINS_6VectorIdEEEEvPT_PKS3_mmm@Base 3.2.1-1kern1
 _ZN8casacore11objcopyctorINS_7QuantumIdEEEEvPT_PKS3_m@Base 3.2.1-1kern1
 _ZN8casacore11objcopyctorINS_7QuantumIdEEEEvPT_PKS3_mmm@Base 3.2.1-1kern1
 _ZN8casacore11objcopyctorINS_8AutoDiffISt7complexIdEEEEEvPT_PKS5_m@Base 3.2.1-1kern1
 _ZN8casacore11objcopyctorINS_8AutoDiffISt7complexIdEEEEEvPT_PKS5_mmm@Base 3.2.1-1kern1
 _ZN8casacore11objcopyctorINS_8AutoDiffIdEEEEvPT_PKS3_m@Base 3.2.1-1kern1
 _ZN8casacore11objcopyctorINS_8AutoDiffIdEEEEvPT_PKS3_mmm@Base 3.2.1-1kern1
 _ZN8casacore12FittingProxy10functionalEiRKNS_6RecordERKNS_6VectorIdEES7_S7_iS3_@Base 3.2.1-1kern1
 _ZN8casacore12FittingProxy12cxfunctionalEiRKNS_6RecordERKNS_6VectorISt7complexIdEEES9_S9_iS3_@Base 3.2.1-1kern1
 _ZN8casacore12FittingProxy3setEiiidd@Base 3.2.1-1kern1
 _ZN8casacore12FittingProxy4doneEi@Base 3.2.1-1kern1
 _ZN8casacore12FittingProxy4initEiiidd@Base 3.2.1-1kern1
 _ZN8casacore12FittingProxy5getidEv@Base 3.2.1-1kern1
 _ZN8casacore12FittingProxy5resetEi@Base 3.2.1-1kern1
 _ZN8casacore12FittingProxy6linearEiRKNS_6RecordERKNS_6VectorIdEES7_S7_S3_@Base 3.2.1-1kern1
 _ZN8casacore12FittingProxy7FitType11setFitterCXEPNS_12GenericL2FitISt7complexIdEEE@Base 3.2.1-1kern1
 _ZN8casacore12FittingProxy7FitType9setFitterEPNS_12GenericL2FitIdEE@Base 3.2.1-1kern1
 _ZN8casacore12FittingProxy7FitType9setSolvedEb@Base 3.2.1-1kern1
 _ZN8casacore12FittingProxy7FitType9setStatusEiidd@Base 3.2.1-1kern1
 _ZN8casacore12FittingProxy7FitTypeC1Ev@Base 3.2.1-1kern1
 _ZN8casacore12FittingProxy7FitTypeC2Ev@Base 3.2.1-1kern1
 _ZN8casacore12FittingProxy7FitTypeD1Ev@Base 3.2.1-1kern1
 _ZN8casacore12FittingProxy7FitTypeD2Ev@Base 3.2.1-1kern1
 _ZN8casacore12FittingProxy8cxlinearEiRKNS_6RecordERKNS_6VectorISt7complexIdEEES9_S9_S3_@Base 3.2.1-1kern1
 _ZN8casacore12FittingProxy8getstateEi@Base 3.2.1-1kern1
 _ZN8casacore12FittingProxyC1Ev@Base 3.2.1-1kern1
 _ZN8casacore12FittingProxyC2Ev@Base 3.2.1-1kern1
 _ZN8casacore12FittingProxyD0Ev@Base 3.2.1-1kern1
 _ZN8casacore12FittingProxyD1Ev@Base 3.2.1-1kern1
 _ZN8casacore12FittingProxyD2Ev@Base 3.2.1-1kern1
 _ZN8casacore12FuncExprDataC1Ev@Base 3.2.1-1kern1
 _ZN8casacore12FuncExprDataC2Ev@Base 3.2.1-1kern1
 _ZN8casacore12FuncExprDataD1Ev@Base 3.2.1-1kern1
 _ZN8casacore12FuncExprDataD2Ev@Base 3.2.1-1kern1
 _ZN8casacore12GaussianBeam10fromRecordERKNS_6RecordE@Base 3.2.1-1kern1
 _ZN8casacore12GaussianBeam13setMajorMinorERKNS_7QuantumIdEES4_@Base 3.2.1-1kern1
 _ZN8casacore12GaussianBeam5setPAERKNS_7QuantumIdEEb@Base 3.2.1-1kern1
 _ZN8casacore12GaussianBeam7_unwrapERKNS_7QuantumIdEE@Base 3.2.1-1kern1
 _ZN8casacore12GaussianBeam7convertERKNS_6StringES3_S3_@Base 3.2.1-1kern1
 _ZN8casacore12GaussianBeam9NULL_BEAME@Base 3.2.1-1kern1
 _ZN8casacore12GaussianBeam9classNameEv@Base 3.2.1-1kern1
 _ZN8casacore12GaussianBeamC1ERKNS_6VectorINS_7QuantumIdEEEE@Base 3.2.1-1kern1
 _ZN8casacore12GaussianBeamC1ERKNS_7QuantumIdEES4_S4_@Base 3.2.1-1kern1
 _ZN8casacore12GaussianBeamC1ERKS0_@Base 3.2.1-1kern1
 _ZN8casacore12GaussianBeamC1Ev@Base 3.2.1-1kern1
 _ZN8casacore12GaussianBeamC2ERKNS_6VectorINS_7QuantumIdEEEE@Base 3.2.1-1kern1
 _ZN8casacore12GaussianBeamC2ERKNS_7QuantumIdEES4_S4_@Base 3.2.1-1kern1
 _ZN8casacore12GaussianBeamC2ERKS0_@Base 3.2.1-1kern1
 _ZN8casacore12GaussianBeamC2Ev@Base 3.2.1-1kern1
 _ZN8casacore12GaussianBeamD1Ev@Base 3.2.1-1kern1
 _ZN8casacore12GaussianBeamD2Ev@Base 3.2.1-1kern1
 _ZN8casacore12GaussianBeamaSERKS0_@Base 3.2.1-1kern1
 _ZN8casacore12GenericL2FitISt7complexIdEE11buildMatrixERKNS_5ArrayIS2_EERKNS_6VectorIS2_EEPSA_PKNS8_IbEE@Base 3.2.1-1kern1
 _ZN8casacore12GenericL2FitISt7complexIdEE13addConstraintERKNS_8FunctionINS_8AutoDiffIS2_EES6_EERKNS_6VectorIS2_EES2_@Base 3.2.1-1kern1
 _ZN8casacore12GenericL2FitISt7complexIdEE13resetFunctionEv@Base 3.2.1-1kern1
 _ZN8casacore12GenericL2FitISt7complexIdEE15buildConstraintEv@Base 3.2.1-1kern1
 _ZN8casacore12GenericL2FitISt7complexIdEE15setConstraintExEjRKNS_6VectorIS2_EES2_@Base 3.2.1-1kern1
 _ZN8casacore12GenericL2FitISt7complexIdEE16getSVDConstraintEj@Base 3.2.1-1kern1
 _ZN8casacore12GenericL2FitISt7complexIdEE24setMaskedParameterValuesERKNS_6VectorIS2_EE@Base 3.2.1-1kern1
 _ZN8casacore12GenericL2FitISt7complexIdEE9initfit_pEj@Base 3.2.1-1kern1
 _ZN8casacore12GenericL2FitISt7complexIdEEC1Ev@Base 3.2.1-1kern1
 _ZN8casacore12GenericL2FitISt7complexIdEEC2Ev@Base 3.2.1-1kern1
 _ZN8casacore12GenericL2FitISt7complexIdEED0Ev@Base 3.2.1-1kern1
 _ZN8casacore12GenericL2FitISt7complexIdEED1Ev@Base 3.2.1-1kern1
 _ZN8casacore12GenericL2FitISt7complexIdEED2Ev@Base 3.2.1-1kern1
 _ZN8casacore12GenericL2FitIdE11buildMatrixERKNS_5ArrayIdEERKNS_6VectorIdEEPS8_PKNS6_IbEE@Base 3.2.1-1kern1
 _ZN8casacore12GenericL2FitIdE13addConstraintERKNS_8FunctionINS_8AutoDiffIdEES4_EERKNS_6VectorIdEEd@Base 3.2.1-1kern1
 _ZN8casacore12GenericL2FitIdE13resetFunctionEv@Base 3.2.1-1kern1
 _ZN8casacore12GenericL2FitIdE15buildConstraintEv@Base 3.2.1-1kern1
 _ZN8casacore12GenericL2FitIdE15compuCovarianceERNS_6MatrixIdEE@Base 3.2.1-1kern1
 _ZN8casacore12GenericL2FitIdE15setConstraintExEjRKNS_6VectorIdEEd@Base 3.2.1-1kern1
 _ZN8casacore12GenericL2FitIdE16getSVDConstraintEj@Base 3.2.1-1kern1
 _ZN8casacore12GenericL2FitIdE24setMaskedParameterValuesERKNS_6VectorIdEE@Base 3.2.1-1kern1
 _ZN8casacore12GenericL2FitIdE9initfit_pEj@Base 3.2.1-1kern1
 _ZN8casacore12GenericL2FitIdEC1Ev@Base 3.2.1-1kern1
 _ZN8casacore12GenericL2FitIdEC2Ev@Base 3.2.1-1kern1
 _ZN8casacore12GenericL2FitIdED0Ev@Base 3.2.1-1kern1
 _ZN8casacore12GenericL2FitIdED1Ev@Base 3.2.1-1kern1
 _ZN8casacore12GenericL2FitIdED2Ev@Base 3.2.1-1kern1
 _ZN8casacore12LinearFitSVDISt7complexIdEEC1Ev@Base 3.2.1-1kern1
 _ZN8casacore12LinearFitSVDISt7complexIdEEC2Ev@Base 3.2.1-1kern1
 _ZN8casacore12LinearFitSVDISt7complexIdEED0Ev@Base 3.2.1-1kern1
 _ZN8casacore12LinearFitSVDISt7complexIdEED1Ev@Base 3.2.1-1kern1
 _ZN8casacore12LinearFitSVDISt7complexIdEED2Ev@Base 3.2.1-1kern1
 _ZN8casacore12LinearFitSVDIdEC1Ev@Base 3.2.1-1kern1
 _ZN8casacore12LinearFitSVDIdEC2Ev@Base 3.2.1-1kern1
 _ZN8casacore12LinearFitSVDIdED0Ev@Base 3.2.1-1kern1
 _ZN8casacore12LinearFitSVDIdED1Ev@Base 3.2.1-1kern1
 _ZN8casacore12LinearFitSVDIdED2Ev@Base 3.2.1-1kern1
 _ZN8casacore12MatrixSolver11getResidualEv@Base 3.2.1-1kern1
 _ZN8casacore12MatrixSolver11getSolutionEv@Base 3.2.1-1kern1
 _ZN8casacore12MatrixSolver16accurateSolutionEv@Base 3.2.1-1kern1
 _ZN8casacore12MatrixSolver4setXERKNS_6VectorIfEE@Base 3.2.1-1kern1
 _ZN8casacore12MatrixSolver5setABERKNS_6MatrixIfEERKNS_6VectorIfEE@Base 3.2.1-1kern1
 _ZN8casacore12MatrixSolver5solveEv@Base 3.2.1-1kern1
 _ZN8casacore12MatrixSolver7logSinkEv@Base 3.2.1-1kern1
 _ZN8casacore12MatrixSolverC1ERKNS_6MatrixIfEERKNS_6VectorIfEE@Base 3.2.1-1kern1
 _ZN8casacore12MatrixSolverC1ERKS0_@Base 3.2.1-1kern1
 _ZN8casacore12MatrixSolverC1Ev@Base 3.2.1-1kern1
 _ZN8casacore12MatrixSolverC2ERKNS_6MatrixIfEERKNS_6VectorIfEE@Base 3.2.1-1kern1
 _ZN8casacore12MatrixSolverC2ERKS0_@Base 3.2.1-1kern1
 _ZN8casacore12MatrixSolverC2Ev@Base 3.2.1-1kern1
 _ZN8casacore12MatrixSolverD0Ev@Base 3.2.1-1kern1
 _ZN8casacore12MatrixSolverD1Ev@Base 3.2.1-1kern1
 _ZN8casacore12MatrixSolverD2Ev@Base 3.2.1-1kern1
 _ZN8casacore12MatrixSolveraSERKS0_@Base 3.2.1-1kern1
 _ZN8casacore12MedianSlider3addERKNS_6VectorIfEE@Base 3.2.1-1kern1
 _ZN8casacore12MedianSlider3addERKNS_6VectorIfEERKNS1_IbEE@Base 3.2.1-1kern1
 _ZN8casacore12MedianSlider3addEfb@Base 3.2.1-1kern1
 _ZN8casacore12MedianSlider4nextEj@Base 3.2.1-1kern1
 _ZN8casacore12MedianSlider6assureEv@Base 3.2.1-1kern1
 _ZN8casacore12MedianSlider7cleanupEv@Base 3.2.1-1kern1
 _ZN8casacore12MedianSlider7prevValEjRb@Base 3.2.1-1kern1
 _ZN8casacore12MedianSliderC1ERKS0_@Base 3.2.1-1kern1
 _ZN8casacore12MedianSliderC1Ei@Base 3.2.1-1kern1
 _ZN8casacore12MedianSliderC1Ev@Base 3.2.1-1kern1
 _ZN8casacore12MedianSliderC2ERKS0_@Base 3.2.1-1kern1
 _ZN8casacore12MedianSliderC2Ei@Base 3.2.1-1kern1
 _ZN8casacore12MedianSliderC2Ev@Base 3.2.1-1kern1
 _ZN8casacore12MedianSliderD1Ev@Base 3.2.1-1kern1
 _ZN8casacore12MedianSliderD2Ev@Base 3.2.1-1kern1
 _ZN8casacore12MedianSlideraSERKS0_@Base 3.2.1-1kern1
 _ZN8casacore12SerialHelper5gtypeE@Base 3.2.1-1kern1
 _ZN8casacore12SerialHelper8FUNCTYPEE@Base 3.2.1-1kern1
 _ZN8casacore12VectorKernel12toKernelTypeERKNS_6StringE@Base 3.2.1-1kern1
 _ZN8casacore12VectorKernel13toKernelTypesERKNS_6StringERKNS_5RegexE@Base 3.2.1-1kern1
 _ZN8casacore12VectorKernel13toKernelTypesERKNS_6VectorINS_6StringEEE@Base 3.2.1-1kern1
 _ZN8casacore12VectorKernel14fromKernelTypeENS0_11KernelTypesE@Base 3.2.1-1kern1
 _ZN8casacore12VectorKernel4makeENS0_11KernelTypesEdjbb@Base 3.2.1-1kern1
 _ZN8casacore12VectorKernel4makeENS0_11KernelTypesEfjbb@Base 3.2.1-1kern1
 _ZN8casacore13ArrayIteratorINS_6VectorIdEEE12apSetPointerEi@Base 3.2.1-1kern1
 _ZN8casacore13ArrayIteratorINS_6VectorIdEEE3setERKNS_9IPositionE@Base 3.2.1-1kern1
 _ZN8casacore13ArrayIteratorINS_6VectorIdEEE4initERKNS_5ArrayIS2_EE@Base 3.2.1-1kern1
 _ZN8casacore13ArrayIteratorINS_6VectorIdEEE4nextEv@Base 3.2.1-1kern1
 _ZN8casacore13ArrayIteratorINS_6VectorIdEEE5resetEv@Base 3.2.1-1kern1
 _ZN8casacore13ArrayIteratorINS_6VectorIdEEE8getArrayEv@Base 3.2.1-1kern1
 _ZN8casacore13ArrayIteratorINS_6VectorIdEEED0Ev@Base 3.2.1-1kern1
 _ZN8casacore13ArrayIteratorINS_6VectorIdEEED1Ev@Base 3.2.1-1kern1
 _ZN8casacore13ArrayIteratorINS_6VectorIdEEED2Ev@Base 3.2.1-1kern1
 _ZN8casacore13ArrayIteratorINS_7QuantumIdEEE12apSetPointerEi@Base 3.2.1-1kern1
 _ZN8casacore13ArrayIteratorINS_7QuantumIdEEE3setERKNS_9IPositionE@Base 3.2.1-1kern1
 _ZN8casacore13ArrayIteratorINS_7QuantumIdEEE4initERKNS_5ArrayIS2_EE@Base 3.2.1-1kern1
 _ZN8casacore13ArrayIteratorINS_7QuantumIdEEE4nextEv@Base 3.2.1-1kern1
 _ZN8casacore13ArrayIteratorINS_7QuantumIdEEE5resetEv@Base 3.2.1-1kern1
 _ZN8casacore13ArrayIteratorINS_7QuantumIdEEE8getArrayEv@Base 3.2.1-1kern1
 _ZN8casacore13ArrayIteratorINS_7QuantumIdEEED0Ev@Base 3.2.1-1kern1
 _ZN8casacore13ArrayIteratorINS_7QuantumIdEEED1Ev@Base 3.2.1-1kern1
 _ZN8casacore13ArrayIteratorINS_7QuantumIdEEED2Ev@Base 3.2.1-1kern1
 _ZN8casacore13ArrayIteratorINS_8AutoDiffISt7complexIdEEEE12apSetPointerEi@Base 3.2.1-1kern1
 _ZN8casacore13ArrayIteratorINS_8AutoDiffISt7complexIdEEEE3setERKNS_9IPositionE@Base 3.2.1-1kern1
 _ZN8casacore13ArrayIteratorINS_8AutoDiffISt7complexIdEEEE4initERKNS_5ArrayIS4_EE@Base 3.2.1-1kern1
 _ZN8casacore13ArrayIteratorINS_8AutoDiffISt7complexIdEEEE4nextEv@Base 3.2.1-1kern1
 _ZN8casacore13ArrayIteratorINS_8AutoDiffISt7complexIdEEEE5resetEv@Base 3.2.1-1kern1
 _ZN8casacore13ArrayIteratorINS_8AutoDiffISt7complexIdEEEE8getArrayEv@Base 3.2.1-1kern1
 _ZN8casacore13ArrayIteratorINS_8AutoDiffISt7complexIdEEEED0Ev@Base 3.2.1-1kern1
 _ZN8casacore13ArrayIteratorINS_8AutoDiffISt7complexIdEEEED1Ev@Base 3.2.1-1kern1
 _ZN8casacore13ArrayIteratorINS_8AutoDiffISt7complexIdEEEED2Ev@Base 3.2.1-1kern1
 _ZN8casacore13ArrayIteratorINS_8AutoDiffIdEEE12apSetPointerEi@Base 3.2.1-1kern1
 _ZN8casacore13ArrayIteratorINS_8AutoDiffIdEEE3setERKNS_9IPositionE@Base 3.2.1-1kern1
 _ZN8casacore13ArrayIteratorINS_8AutoDiffIdEEE4initERKNS_5ArrayIS2_EE@Base 3.2.1-1kern1
 _ZN8casacore13ArrayIteratorINS_8AutoDiffIdEEE4nextEv@Base 3.2.1-1kern1
 _ZN8casacore13ArrayIteratorINS_8AutoDiffIdEEE5resetEv@Base 3.2.1-1kern1
 _ZN8casacore13ArrayIteratorINS_8AutoDiffIdEEE8getArrayEv@Base 3.2.1-1kern1
 _ZN8casacore13ArrayIteratorINS_8AutoDiffIdEEED0Ev@Base 3.2.1-1kern1
 _ZN8casacore13ArrayIteratorINS_8AutoDiffIdEEED1Ev@Base 3.2.1-1kern1
 _ZN8casacore13ArrayIteratorINS_8AutoDiffIdEEED2Ev@Base 3.2.1-1kern1
 _ZN8casacore13ArrayIteratorISt7complexIdEE12apSetPointerEi@Base 3.2.1-1kern1
 _ZN8casacore13ArrayIteratorISt7complexIdEE3setERKNS_9IPositionE@Base 3.2.1-1kern1
 _ZN8casacore13ArrayIteratorISt7complexIdEE4initERKNS_5ArrayIS2_EE@Base 3.2.1-1kern1
 _ZN8casacore13ArrayIteratorISt7complexIdEE4nextEv@Base 3.2.1-1kern1
 _ZN8casacore13ArrayIteratorISt7complexIdEE5resetEv@Base 3.2.1-1kern1
 _ZN8casacore13ArrayIteratorISt7complexIdEE8getArrayEv@Base 3.2.1-1kern1
 _ZN8casacore13ArrayIteratorISt7complexIdEEC1ERKNS_5ArrayIS2_EERKNS_9IPositionEb@Base 3.2.1-1kern1
 _ZN8casacore13ArrayIteratorISt7complexIdEEC2ERKNS_5ArrayIS2_EERKNS_9IPositionEb@Base 3.2.1-1kern1
 _ZN8casacore13ArrayIteratorISt7complexIdEED0Ev@Base 3.2.1-1kern1
 _ZN8casacore13ArrayIteratorISt7complexIdEED1Ev@Base 3.2.1-1kern1
 _ZN8casacore13ArrayIteratorISt7complexIdEED2Ev@Base 3.2.1-1kern1
 _ZN8casacore13ArrayIteratorISt7complexIfEE12apSetPointerEi@Base 3.2.1-1kern1
 _ZN8casacore13ArrayIteratorISt7complexIfEE3setERKNS_9IPositionE@Base 3.2.1-1kern1
 _ZN8casacore13ArrayIteratorISt7complexIfEE4initERKNS_5ArrayIS2_EE@Base 3.2.1-1kern1
 _ZN8casacore13ArrayIteratorISt7complexIfEE4nextEv@Base 3.2.1-1kern1
 _ZN8casacore13ArrayIteratorISt7complexIfEE5resetEv@Base 3.2.1-1kern1
 _ZN8casacore13ArrayIteratorISt7complexIfEE8getArrayEv@Base 3.2.1-1kern1
 _ZN8casacore13ArrayIteratorISt7complexIfEEC1ERKNS_5ArrayIS2_EERKNS_9IPositionEb@Base 3.2.1-1kern1
 _ZN8casacore13ArrayIteratorISt7complexIfEEC2ERKNS_5ArrayIS2_EERKNS_9IPositionEb@Base 3.2.1-1kern1
 _ZN8casacore13ArrayIteratorISt7complexIfEED0Ev@Base 3.2.1-1kern1
 _ZN8casacore13ArrayIteratorISt7complexIfEED1Ev@Base 3.2.1-1kern1
 _ZN8casacore13ArrayIteratorISt7complexIfEED2Ev@Base 3.2.1-1kern1
 _ZN8casacore13ArrayIteratorIbE12apSetPointerEi@Base 3.2.1-1kern1
 _ZN8casacore13ArrayIteratorIbE3setERKNS_9IPositionE@Base 3.2.1-1kern1
 _ZN8casacore13ArrayIteratorIbE4initERKNS_5ArrayIbEE@Base 3.2.1-1kern1
 _ZN8casacore13ArrayIteratorIbE4nextEv@Base 3.2.1-1kern1
 _ZN8casacore13ArrayIteratorIbE5resetEv@Base 3.2.1-1kern1
 _ZN8casacore13ArrayIteratorIbE8getArrayEv@Base 3.2.1-1kern1
 _ZN8casacore13ArrayIteratorIbEC1ERKNS_5ArrayIbEERKNS_9IPositionEb@Base 3.2.1-1kern1
 _ZN8casacore13ArrayIteratorIbEC2ERKNS_5ArrayIbEERKNS_9IPositionEb@Base 3.2.1-1kern1
 _ZN8casacore13ArrayIteratorIbED0Ev@Base 3.2.1-1kern1
 _ZN8casacore13ArrayIteratorIbED1Ev@Base 3.2.1-1kern1
 _ZN8casacore13ArrayIteratorIbED2Ev@Base 3.2.1-1kern1
 _ZN8casacore13ArrayIteratorIdE12apSetPointerEi@Base 3.2.1-1kern1
 _ZN8casacore13ArrayIteratorIdE3setERKNS_9IPositionE@Base 3.2.1-1kern1
 _ZN8casacore13ArrayIteratorIdE4initERKNS_5ArrayIdEE@Base 3.2.1-1kern1
 _ZN8casacore13ArrayIteratorIdE4nextEv@Base 3.2.1-1kern1
 _ZN8casacore13ArrayIteratorIdE5resetEv@Base 3.2.1-1kern1
 _ZN8casacore13ArrayIteratorIdE8getArrayEv@Base 3.2.1-1kern1
 _ZN8casacore13ArrayIteratorIdED0Ev@Base 3.2.1-1kern1
 _ZN8casacore13ArrayIteratorIdED1Ev@Base 3.2.1-1kern1
 _ZN8casacore13ArrayIteratorIdED2Ev@Base 3.2.1-1kern1
 _ZN8casacore13ArrayIteratorIfE12apSetPointerEi@Base 3.2.1-1kern1
 _ZN8casacore13ArrayIteratorIfE3setERKNS_9IPositionE@Base 3.2.1-1kern1
 _ZN8casacore13ArrayIteratorIfE4initERKNS_5ArrayIfEE@Base 3.2.1-1kern1
 _ZN8casacore13ArrayIteratorIfE4nextEv@Base 3.2.1-1kern1
 _ZN8casacore13ArrayIteratorIfE5resetEv@Base 3.2.1-1kern1
 _ZN8casacore13ArrayIteratorIfE8getArrayEv@Base 3.2.1-1kern1
 _ZN8casacore13ArrayIteratorIfED0Ev@Base 3.2.1-1kern1
 _ZN8casacore13ArrayIteratorIfED1Ev@Base 3.2.1-1kern1
 _ZN8casacore13ArrayIteratorIfED2Ev@Base 3.2.1-1kern1
 _ZN8casacore13CombiFunctionINS_8AutoDiffISt7complexIdEEEED0Ev@Base 3.2.1-1kern1
 _ZN8casacore13CombiFunctionINS_8AutoDiffISt7complexIdEEEED1Ev@Base 3.2.1-1kern1
 _ZN8casacore13CombiFunctionINS_8AutoDiffISt7complexIdEEEED2Ev@Base 3.2.1-1kern1
 _ZN8casacore13CombiFunctionINS_8AutoDiffIdEEED0Ev@Base 3.2.1-1kern1
 _ZN8casacore13CombiFunctionINS_8AutoDiffIdEEED1Ev@Base 3.2.1-1kern1
 _ZN8casacore13CombiFunctionINS_8AutoDiffIdEEED2Ev@Base 3.2.1-1kern1
 _ZN8casacore13CombiFunctionISt7complexIdEED0Ev@Base 3.2.1-1kern1
 _ZN8casacore13CombiFunctionISt7complexIdEED1Ev@Base 3.2.1-1kern1
 _ZN8casacore13CombiFunctionISt7complexIdEED2Ev@Base 3.2.1-1kern1
 _ZN8casacore13CombiFunctionIdED0Ev@Base 3.2.1-1kern1
 _ZN8casacore13CombiFunctionIdED1Ev@Base 3.2.1-1kern1
 _ZN8casacore13CombiFunctionIdED2Ev@Base 3.2.1-1kern1
 _ZN8casacore13Combinatorics10theirMutexE@Base 3.2.1-1kern1
 _ZN8casacore13Combinatorics15_factorialCacheE@Base 3.2.1-1kern1
 _ZN8casacore13Combinatorics19_factorialCacheSizeE@Base 3.2.1-1kern1
 _ZN8casacore13Combinatorics6chooseEjj@Base 3.2.1-1kern1
 _ZN8casacore13Combinatorics9fillCacheEj@Base 3.2.1-1kern1
 _ZN8casacore13CompiledParamINS_8AutoDiffISt7complexIdEEEE11setFunctionERKNS_6StringE@Base 3.2.1-1kern1
 _ZN8casacore13CompiledParamINS_8AutoDiffISt7complexIdEEEEC1ERKS5_@Base 3.2.1-1kern1
 _ZN8casacore13CompiledParamINS_8AutoDiffISt7complexIdEEEEC1Ev@Base 3.2.1-1kern1
 _ZN8casacore13CompiledParamINS_8AutoDiffISt7complexIdEEEEC2ERKS5_@Base 3.2.1-1kern1
 _ZN8casacore13CompiledParamINS_8AutoDiffISt7complexIdEEEEC2Ev@Base 3.2.1-1kern1
 _ZN8casacore13CompiledParamINS_8AutoDiffISt7complexIdEEEED0Ev@Base 3.2.1-1kern1
 _ZN8casacore13CompiledParamINS_8AutoDiffISt7complexIdEEEED1Ev@Base 3.2.1-1kern1
 _ZN8casacore13CompiledParamINS_8AutoDiffISt7complexIdEEEED2Ev@Base 3.2.1-1kern1
 _ZN8casacore13CompiledParamINS_8AutoDiffIdEEE11setFunctionERKNS_6StringE@Base 3.2.1-1kern1
 _ZN8casacore13CompiledParamINS_8AutoDiffIdEEEC1ERKS3_@Base 3.2.1-1kern1
 _ZN8casacore13CompiledParamINS_8AutoDiffIdEEEC1Ev@Base 3.2.1-1kern1
 _ZN8casacore13CompiledParamINS_8AutoDiffIdEEEC2ERKS3_@Base 3.2.1-1kern1
 _ZN8casacore13CompiledParamINS_8AutoDiffIdEEEC2Ev@Base 3.2.1-1kern1
 _ZN8casacore13CompiledParamINS_8AutoDiffIdEEED0Ev@Base 3.2.1-1kern1
 _ZN8casacore13CompiledParamINS_8AutoDiffIdEEED1Ev@Base 3.2.1-1kern1
 _ZN8casacore13CompiledParamINS_8AutoDiffIdEEED2Ev@Base 3.2.1-1kern1
 _ZN8casacore13CompiledParamISt7complexIdEE11setFunctionERKNS_6StringE@Base 3.2.1-1kern1
 _ZN8casacore13CompiledParamISt7complexIdEEC1ERKS3_@Base 3.2.1-1kern1
 _ZN8casacore13CompiledParamISt7complexIdEEC1Ev@Base 3.2.1-1kern1
 _ZN8casacore13CompiledParamISt7complexIdEEC2ERKS3_@Base 3.2.1-1kern1
 _ZN8casacore13CompiledParamISt7complexIdEEC2Ev@Base 3.2.1-1kern1
 _ZN8casacore13CompiledParamISt7complexIdEED0Ev@Base 3.2.1-1kern1
 _ZN8casacore13CompiledParamISt7complexIdEED1Ev@Base 3.2.1-1kern1
 _ZN8casacore13CompiledParamISt7complexIdEED2Ev@Base 3.2.1-1kern1
 _ZN8casacore13CompiledParamIdE11setFunctionERKNS_6StringE@Base 3.2.1-1kern1
 _ZN8casacore13CompiledParamIdEC1ERKS1_@Base 3.2.1-1kern1
 _ZN8casacore13CompiledParamIdEC1Ev@Base 3.2.1-1kern1
 _ZN8casacore13CompiledParamIdEC2ERKS1_@Base 3.2.1-1kern1
 _ZN8casacore13CompiledParamIdEC2Ev@Base 3.2.1-1kern1
 _ZN8casacore13CompiledParamIdED0Ev@Base 3.2.1-1kern1
 _ZN8casacore13CompiledParamIdED1Ev@Base 3.2.1-1kern1
 _ZN8casacore13CompiledParamIdED2Ev@Base 3.2.1-1kern1
 _ZN8casacore13CompoundParamINS_8AutoDiffISt7complexIdEEEE11addFunctionERKNS_8FunctionIS4_S4_EE@Base 3.2.1-1kern1
 _ZN8casacore13CompoundParamINS_8AutoDiffISt7complexIdEEEEC1ERKS5_@Base 3.2.1-1kern1
 _ZN8casacore13CompoundParamINS_8AutoDiffISt7complexIdEEEEC1Ev@Base 3.2.1-1kern1
 _ZN8casacore13CompoundParamINS_8AutoDiffISt7complexIdEEEEC2ERKS5_@Base 3.2.1-1kern1
 _ZN8casacore13CompoundParamINS_8AutoDiffISt7complexIdEEEEC2Ev@Base 3.2.1-1kern1
 _ZN8casacore13CompoundParamINS_8AutoDiffISt7complexIdEEEED0Ev@Base 3.2.1-1kern1
 _ZN8casacore13CompoundParamINS_8AutoDiffISt7complexIdEEEED1Ev@Base 3.2.1-1kern1
 _ZN8casacore13CompoundParamINS_8AutoDiffISt7complexIdEEEED2Ev@Base 3.2.1-1kern1
 _ZN8casacore13CompoundParamINS_8AutoDiffIdEEE11addFunctionERKNS_8FunctionIS2_S2_EE@Base 3.2.1-1kern1
 _ZN8casacore13CompoundParamINS_8AutoDiffIdEEEC1ERKS3_@Base 3.2.1-1kern1
 _ZN8casacore13CompoundParamINS_8AutoDiffIdEEEC1Ev@Base 3.2.1-1kern1
 _ZN8casacore13CompoundParamINS_8AutoDiffIdEEEC2ERKS3_@Base 3.2.1-1kern1
 _ZN8casacore13CompoundParamINS_8AutoDiffIdEEEC2Ev@Base 3.2.1-1kern1
 _ZN8casacore13CompoundParamINS_8AutoDiffIdEEED0Ev@Base 3.2.1-1kern1
 _ZN8casacore13CompoundParamINS_8AutoDiffIdEEED1Ev@Base 3.2.1-1kern1
 _ZN8casacore13CompoundParamINS_8AutoDiffIdEEED2Ev@Base 3.2.1-1kern1
 _ZN8casacore13CompoundParamISt7complexIdEE11addFunctionERKNS_8FunctionIS2_S2_EE@Base 3.2.1-1kern1
 _ZN8casacore13CompoundParamISt7complexIdEEC1Ev@Base 3.2.1-1kern1
 _ZN8casacore13CompoundParamISt7complexIdEEC2Ev@Base 3.2.1-1kern1
 _ZN8casacore13CompoundParamISt7complexIdEED0Ev@Base 3.2.1-1kern1
 _ZN8casacore13CompoundParamISt7complexIdEED1Ev@Base 3.2.1-1kern1
 _ZN8casacore13CompoundParamISt7complexIdEED2Ev@Base 3.2.1-1kern1
 _ZN8casacore13CompoundParamIdE11addFunctionERKNS_8FunctionIddEE@Base 3.2.1-1kern1
 _ZN8casacore13CompoundParamIdEC1Ev@Base 3.2.1-1kern1
 _ZN8casacore13CompoundParamIdEC2Ev@Base 3.2.1-1kern1
 _ZN8casacore13CompoundParamIdED0Ev@Base 3.2.1-1kern1
 _ZN8casacore13CompoundParamIdED1Ev@Base 3.2.1-1kern1
 _ZN8casacore13CompoundParamIdED2Ev@Base 3.2.1-1kern1
 _ZN8casacore13FunctionParamINS_8AutoDiffISt7complexIdEEEE4maskEj@Base 3.2.1-1kern1
 _ZN8casacore13FunctionParamINS_8AutoDiffISt7complexIdEEEEC1ERKS5_@Base 3.2.1-1kern1
 _ZN8casacore13FunctionParamINS_8AutoDiffISt7complexIdEEEEC1Ej@Base 3.2.1-1kern1
 _ZN8casacore13FunctionParamINS_8AutoDiffISt7complexIdEEEEC2ERKS5_@Base 3.2.1-1kern1
 _ZN8casacore13FunctionParamINS_8AutoDiffISt7complexIdEEEEC2Ej@Base 3.2.1-1kern1
 _ZN8casacore13FunctionParamINS_8AutoDiffISt7complexIdEEEED0Ev@Base 3.2.1-1kern1
 _ZN8casacore13FunctionParamINS_8AutoDiffISt7complexIdEEEED1Ev@Base 3.2.1-1kern1
 _ZN8casacore13FunctionParamINS_8AutoDiffISt7complexIdEEEED2Ev@Base 3.2.1-1kern1
 _ZN8casacore13FunctionParamINS_8AutoDiffIdEEE4maskEj@Base 3.2.1-1kern1
 _ZN8casacore13FunctionParamINS_8AutoDiffIdEEEC1ERKS3_@Base 3.2.1-1kern1
 _ZN8casacore13FunctionParamINS_8AutoDiffIdEEEC1Ej@Base 3.2.1-1kern1
 _ZN8casacore13FunctionParamINS_8AutoDiffIdEEEC2ERKS3_@Base 3.2.1-1kern1
 _ZN8casacore13FunctionParamINS_8AutoDiffIdEEEC2Ej@Base 3.2.1-1kern1
 _ZN8casacore13FunctionParamINS_8AutoDiffIdEEED0Ev@Base 3.2.1-1kern1
 _ZN8casacore13FunctionParamINS_8AutoDiffIdEEED1Ev@Base 3.2.1-1kern1
 _ZN8casacore13FunctionParamINS_8AutoDiffIdEEED2Ev@Base 3.2.1-1kern1
 _ZN8casacore13FunctionParamISt7complexIdEE4maskEj@Base 3.2.1-1kern1
 _ZN8casacore13FunctionParamISt7complexIdEEC1ERKS3_@Base 3.2.1-1kern1
 _ZN8casacore13FunctionParamISt7complexIdEEC1Ej@Base 3.2.1-1kern1
 _ZN8casacore13FunctionParamISt7complexIdEEC2ERKS3_@Base 3.2.1-1kern1
 _ZN8casacore13FunctionParamISt7complexIdEEC2Ej@Base 3.2.1-1kern1
 _ZN8casacore13FunctionParamISt7complexIdEED0Ev@Base 3.2.1-1kern1
 _ZN8casacore13FunctionParamISt7complexIdEED1Ev@Base 3.2.1-1kern1
 _ZN8casacore13FunctionParamISt7complexIdEED2Ev@Base 3.2.1-1kern1
 _ZN8casacore13FunctionParamIdE4maskEj@Base 3.2.1-1kern1
 _ZN8casacore13FunctionParamIdEC1ERKS1_@Base 3.2.1-1kern1
 _ZN8casacore13FunctionParamIdEC1Ej@Base 3.2.1-1kern1
 _ZN8casacore13FunctionParamIdEC2ERKS1_@Base 3.2.1-1kern1
 _ZN8casacore13FunctionParamIdEC2Ej@Base 3.2.1-1kern1
 _ZN8casacore13FunctionParamIdED0Ev@Base 3.2.1-1kern1
 _ZN8casacore13FunctionParamIdED1Ev@Base 3.2.1-1kern1
 _ZN8casacore13FunctionParamIdED2Ev@Base 3.2.1-1kern1
 _ZN8casacore13Interpolate1DIddE7setDataERKNS_17SampledFunctionalIdEES5_bb@Base 3.2.1-1kern1
 _ZN8casacore13Interpolate1DIddED0Ev@Base 3.2.1-1kern1
 _ZN8casacore13Interpolate1DIddED1Ev@Base 3.2.1-1kern1
 _ZN8casacore13Interpolate1DIddED2Ev@Base 3.2.1-1kern1
 _ZN8casacore13Interpolate2D14stringToMethodERKNS_6StringE@Base 3.2.1-1kern1
 _ZN8casacore13Interpolate2DC1ENS0_6MethodE@Base 3.2.1-1kern1
 _ZN8casacore13Interpolate2DC1ERKS0_@Base 3.2.1-1kern1
 _ZN8casacore13Interpolate2DC2ENS0_6MethodE@Base 3.2.1-1kern1
 _ZN8casacore13Interpolate2DC2ERKS0_@Base 3.2.1-1kern1
 _ZN8casacore13Interpolate2DD1Ev@Base 3.2.1-1kern1
 _ZN8casacore13Interpolate2DD2Ev@Base 3.2.1-1kern1
 _ZN8casacore13Interpolate2DaSERKS0_@Base 3.2.1-1kern1
 _ZN8casacore13NumericTraitsISt7complexIdEE7epsilonE@Base 3.2.1-1kern1
 _ZN8casacore13NumericTraitsISt7complexIdEE7maximumE@Base 3.2.1-1kern1
 _ZN8casacore13NumericTraitsISt7complexIdEE7minimumE@Base 3.2.1-1kern1
 _ZN8casacore13NumericTraitsISt7complexIfEE7epsilonE@Base 3.2.1-1kern1
 _ZN8casacore13NumericTraitsISt7complexIfEE7maximumE@Base 3.2.1-1kern1
 _ZN8casacore13NumericTraitsISt7complexIfEE7minimumE@Base 3.2.1-1kern1
 _ZN8casacore13NumericTraitsIdE7epsilonE@Base 3.2.1-1kern1
 _ZN8casacore13NumericTraitsIdE7maximumE@Base 3.2.1-1kern1
 _ZN8casacore13NumericTraitsIdE7minimumE@Base 3.2.1-1kern1
 _ZN8casacore13NumericTraitsIfE7epsilonE@Base 3.2.1-1kern1
 _ZN8casacore13NumericTraitsIfE7maximumE@Base 3.2.1-1kern1
 _ZN8casacore13NumericTraitsIfE7minimumE@Base 3.2.1-1kern1
 _ZN8casacore13OddPolynomialINS_8AutoDiffISt7complexIdEEEED0Ev@Base 3.2.1-1kern1
 _ZN8casacore13OddPolynomialINS_8AutoDiffISt7complexIdEEEED1Ev@Base 3.2.1-1kern1
 _ZN8casacore13OddPolynomialINS_8AutoDiffISt7complexIdEEEED2Ev@Base 3.2.1-1kern1
 _ZN8casacore13OddPolynomialINS_8AutoDiffIdEEED0Ev@Base 3.2.1-1kern1
 _ZN8casacore13OddPolynomialINS_8AutoDiffIdEEED1Ev@Base 3.2.1-1kern1
 _ZN8casacore13OddPolynomialINS_8AutoDiffIdEEED2Ev@Base 3.2.1-1kern1
 _ZN8casacore13OddPolynomialISt7complexIdEED0Ev@Base 3.2.1-1kern1
 _ZN8casacore13OddPolynomialISt7complexIdEED1Ev@Base 3.2.1-1kern1
 _ZN8casacore13OddPolynomialISt7complexIdEED2Ev@Base 3.2.1-1kern1
 _ZN8casacore13OddPolynomialIdED0Ev@Base 3.2.1-1kern1
 _ZN8casacore13OddPolynomialIdED1Ev@Base 3.2.1-1kern1
 _ZN8casacore13OddPolynomialIdED2Ev@Base 3.2.1-1kern1
 _ZN8casacore13directProductERNS_12SquareMatrixISt7complexIfELi4EEERKNS0_IS2_Li2EEES7_@Base 3.2.1-1kern1
 _ZN8casacore14ChebyshevParamINS_8AutoDiffISt7complexIdEEEE7modes_sE@Base 3.2.1-1kern1
 _ZN8casacore14ChebyshevParamINS_8AutoDiffISt7complexIdEEEED0Ev@Base 3.2.1-1kern1
 _ZN8casacore14ChebyshevParamINS_8AutoDiffISt7complexIdEEEED1Ev@Base 3.2.1-1kern1
 _ZN8casacore14ChebyshevParamINS_8AutoDiffISt7complexIdEEEED2Ev@Base 3.2.1-1kern1
 _ZN8casacore14ChebyshevParamINS_8AutoDiffIdEEE7modes_sE@Base 3.2.1-1kern1
 _ZN8casacore14ChebyshevParamINS_8AutoDiffIdEEED0Ev@Base 3.2.1-1kern1
 _ZN8casacore14ChebyshevParamINS_8AutoDiffIdEEED1Ev@Base 3.2.1-1kern1
 _ZN8casacore14ChebyshevParamINS_8AutoDiffIdEEED2Ev@Base 3.2.1-1kern1
 _ZN8casacore14ChebyshevParamISt7complexIdEE7modes_sE@Base 3.2.1-1kern1
 _ZN8casacore14ChebyshevParamIdE7modes_sE@Base 3.2.1-1kern1
 _ZN8casacore14EvenPolynomialINS_8AutoDiffISt7complexIdEEEED0Ev@Base 3.2.1-1kern1
 _ZN8casacore14EvenPolynomialINS_8AutoDiffISt7complexIdEEEED1Ev@Base 3.2.1-1kern1
 _ZN8casacore14EvenPolynomialINS_8AutoDiffISt7complexIdEEEED2Ev@Base 3.2.1-1kern1
 _ZN8casacore14EvenPolynomialINS_8AutoDiffIdEEED0Ev@Base 3.2.1-1kern1
 _ZN8casacore14EvenPolynomialINS_8AutoDiffIdEEED1Ev@Base 3.2.1-1kern1
 _ZN8casacore14EvenPolynomialINS_8AutoDiffIdEEED2Ev@Base 3.2.1-1kern1
 _ZN8casacore14EvenPolynomialISt7complexIdEED0Ev@Base 3.2.1-1kern1
 _ZN8casacore14EvenPolynomialISt7complexIdEED1Ev@Base 3.2.1-1kern1
 _ZN8casacore14EvenPolynomialISt7complexIdEED2Ev@Base 3.2.1-1kern1
 _ZN8casacore14EvenPolynomialIdED0Ev@Base 3.2.1-1kern1
 _ZN8casacore14EvenPolynomialIdED1Ev@Base 3.2.1-1kern1
 _ZN8casacore14EvenPolynomialIdED2Ev@Base 3.2.1-1kern1
 _ZN8casacore14FuncExpression5setOpERNS_12FuncExprData12ExprOperatorE@Base 3.2.1-1kern1
 _ZN8casacore14FuncExpression6createERKNS_6StringE@Base 3.2.1-1kern1
 _ZN8casacore14FuncExpression6setValERKd@Base 3.2.1-1kern1
 _ZN8casacore14FuncExpression7setCodeERKNS_12FuncExprData12ExprOperatorE@Base 3.2.1-1kern1
 _ZN8casacore14FuncExpression8compExprERNS_8MUStringE@Base 3.2.1-1kern1
 _ZN8casacore14FuncExpression8compStmtERNS_8MUStringE@Base 3.2.1-1kern1
 _ZN8casacore14FuncExpression8compTermERNS_8MUStringE@Base 3.2.1-1kern1
 _ZN8casacore14FuncExpression9initStateEv@Base 3.2.1-1kern1
 _ZN8casacore14FuncExpressionC1ERKNS_6StringE@Base 3.2.1-1kern1
 _ZN8casacore14FuncExpressionC1ERKS0_@Base 3.2.1-1kern1
 _ZN8casacore14FuncExpressionC1Ev@Base 3.2.1-1kern1
 _ZN8casacore14FuncExpressionC2ERKNS_6StringE@Base 3.2.1-1kern1
 _ZN8casacore14FuncExpressionC2ERKS0_@Base 3.2.1-1kern1
 _ZN8casacore14FuncExpressionC2Ev@Base 3.2.1-1kern1
 _ZN8casacore14FuncExpressionD1Ev@Base 3.2.1-1kern1
 _ZN8casacore14FuncExpressionD2Ev@Base 3.2.1-1kern1
 _ZN8casacore14FuncExpressionaSERKS0_@Base 3.2.1-1kern1
 _ZN8casacore14FunctionHolderISt7complexIdEE10fromRecordERNS_6StringERKNS_15RecordInterfaceE@Base 3.2.1-1kern1
 _ZN8casacore14FunctionHolderISt7complexIdEE10fromStringERNS_6StringERKS4_@Base 3.2.1-1kern1
 _ZN8casacore14FunctionHolderISt7complexIdEE13setParametersERPNS_8FunctionINS_8AutoDiffIS2_EES6_EERKNS_6VectorIS2_EE@Base 3.2.1-1kern1
 _ZN8casacore14FunctionHolderISt7complexIdEE7getTypeINS_8AutoDiffIS2_EEEEbRNS_6StringERPNS_8FunctionIT_SA_EE@Base 3.2.1-1kern1
 _ZN8casacore14FunctionHolderISt7complexIdEE7getTypeINS_8AutoDiffIS2_EEEEbRNS_6StringERPNS_8FunctionIT_SA_EERKNS_15RecordInterfaceE@Base 3.2.1-1kern1
 _ZN8casacore14FunctionHolderISt7complexIdEE7getTypeIS2_EEbRNS_6StringERPNS_8FunctionIT_S8_EE@Base 3.2.1-1kern1
 _ZN8casacore14FunctionHolderISt7complexIdEE7getTypeIS2_EEbRNS_6StringERPNS_8FunctionIT_S8_EERKNS_15RecordInterfaceE@Base 3.2.1-1kern1
 _ZN8casacore14FunctionHolderISt7complexIdEE9getRecordINS_8AutoDiffIS2_EEEEbRNS_6StringERPNS_8FunctionIT_SA_EERKNS_15RecordInterfaceE@Base 3.2.1-1kern1
 _ZN8casacore14FunctionHolderISt7complexIdEE9getRecordIS2_EEbRNS_6StringERPNS_8FunctionIT_S8_EERKNS_15RecordInterfaceE@Base 3.2.1-1kern1
 _ZN8casacore14FunctionHolderISt7complexIdEEC1ERKNS_8FunctionIS2_S2_EE@Base 3.2.1-1kern1
 _ZN8casacore14FunctionHolderISt7complexIdEEC1Ev@Base 3.2.1-1kern1
 _ZN8casacore14FunctionHolderISt7complexIdEEC2ERKNS_8FunctionIS2_S2_EE@Base 3.2.1-1kern1
 _ZN8casacore14FunctionHolderISt7complexIdEEC2Ev@Base 3.2.1-1kern1
 _ZN8casacore14FunctionHolderISt7complexIdEED0Ev@Base 3.2.1-1kern1
 _ZN8casacore14FunctionHolderISt7complexIdEED1Ev@Base 3.2.1-1kern1
 _ZN8casacore14FunctionHolderISt7complexIdEED2Ev@Base 3.2.1-1kern1
 _ZN8casacore14FunctionHolderIdE10fromRecordERNS_6StringERKNS_15RecordInterfaceE@Base 3.2.1-1kern1
 _ZN8casacore14FunctionHolderIdE10fromStringERNS_6StringERKS2_@Base 3.2.1-1kern1
 _ZN8casacore14FunctionHolderIdE13setParametersERPNS_8FunctionINS_8AutoDiffIdEES4_EERKNS_6VectorIdEE@Base 3.2.1-1kern1
 _ZN8casacore14FunctionHolderIdE7getTypeINS_8AutoDiffIdEEEEbRNS_6StringERPNS_8FunctionIT_S8_EE@Base 3.2.1-1kern1
 _ZN8casacore14FunctionHolderIdE7getTypeINS_8AutoDiffIdEEEEbRNS_6StringERPNS_8FunctionIT_S8_EERKNS_15RecordInterfaceE@Base 3.2.1-1kern1
 _ZN8casacore14FunctionHolderIdE7getTypeIdEEbRNS_6StringERPNS_8FunctionIT_S6_EE@Base 3.2.1-1kern1
 _ZN8casacore14FunctionHolderIdE7getTypeIdEEbRNS_6StringERPNS_8FunctionIT_S6_EERKNS_15RecordInterfaceE@Base 3.2.1-1kern1
 _ZN8casacore14FunctionHolderIdE9getRecordINS_8AutoDiffIdEEEEbRNS_6StringERPNS_8FunctionIT_S8_EERKNS_15RecordInterfaceE@Base 3.2.1-1kern1
 _ZN8casacore14FunctionHolderIdE9getRecordIdEEbRNS_6StringERPNS_8FunctionIT_S6_EERKNS_15RecordInterfaceE@Base 3.2.1-1kern1
 _ZN8casacore14FunctionHolderIdEC1ERKNS_8FunctionIddEE@Base 3.2.1-1kern1
 _ZN8casacore14FunctionHolderIdEC1Ev@Base 3.2.1-1kern1
 _ZN8casacore14FunctionHolderIdEC2ERKNS_8FunctionIddEE@Base 3.2.1-1kern1
 _ZN8casacore14FunctionHolderIdEC2Ev@Base 3.2.1-1kern1
 _ZN8casacore14FunctionHolderIdED0Ev@Base 3.2.1-1kern1
 _ZN8casacore14FunctionHolderIdED1Ev@Base 3.2.1-1kern1
 _ZN8casacore14FunctionHolderIdED2Ev@Base 3.2.1-1kern1
 _ZN8casacore14FunctionTraitsINS_8AutoDiffISt7complexIdEEEE8setValueERS4_RKS3_jj@Base 3.2.1-1kern1
 _ZN8casacore14FunctionTraitsINS_8AutoDiffIdEEE8setValueERS2_RKdjj@Base 3.2.1-1kern1
 _ZN8casacore14NonLinearFitLMISt7complexIdEE5fitItERNS_6VectorIS2_EERKNS_5ArrayIS2_EERKS5_PSB_PKNS4_IbEE@Base 3.2.1-1kern1
 _ZN8casacore14NonLinearFitLMISt7complexIdEED0Ev@Base 3.2.1-1kern1
 _ZN8casacore14NonLinearFitLMISt7complexIdEED1Ev@Base 3.2.1-1kern1
 _ZN8casacore14NonLinearFitLMISt7complexIdEED2Ev@Base 3.2.1-1kern1
 _ZN8casacore14NonLinearFitLMIdE5fitItERNS_6VectorIdEERKNS_5ArrayIdEERKS3_PS9_PKNS2_IbEE@Base 3.2.1-1kern1
 _ZN8casacore14NonLinearFitLMIdED0Ev@Base 3.2.1-1kern1
 _ZN8casacore14NonLinearFitLMIdED1Ev@Base 3.2.1-1kern1
 _ZN8casacore14NonLinearFitLMIdED2Ev@Base 3.2.1-1kern1
 _ZN8casacore14StatisticsData20indicesFromFractionsEyRKSt3setIdSt4lessIdESaIdEE@Base 3.2.1-1kern1
 _ZN8casacore14StatisticsData8toStringENS0_5STATSE@Base 3.2.1-1kern1
 _ZN8casacore14VectorIteratorISt7complexIdEED0Ev@Base 3.2.1-1kern1
 _ZN8casacore14VectorIteratorISt7complexIdEED1Ev@Base 3.2.1-1kern1
 _ZN8casacore14VectorIteratorISt7complexIdEED2Ev@Base 3.2.1-1kern1
 _ZN8casacore14VectorIteratorISt7complexIfEED0Ev@Base 3.2.1-1kern1
 _ZN8casacore14VectorIteratorISt7complexIfEED1Ev@Base 3.2.1-1kern1
 _ZN8casacore14VectorIteratorISt7complexIfEED2Ev@Base 3.2.1-1kern1
 _ZN8casacore14crossProduct2DIdEET_RKNS_6VectorIS1_EES5_@Base 3.2.1-1kern1
 _ZN8casacore15FunctionalProxy13setparametersERKNS_6VectorIdEE@Base 3.2.1-1kern1
 _ZN8casacore15FunctionalProxy14setparameterscERKNS_6VectorISt7complexIdEEE@Base 3.2.1-1kern1
 _ZN8casacore15FunctionalProxy1fERKNS_6VectorIdEE@Base 3.2.1-1kern1
 _ZN8casacore15FunctionalProxy2fcERKNS_6VectorISt7complexIdEEE@Base 3.2.1-1kern1
 _ZN8casacore15FunctionalProxy3addERKS0_@Base 3.2.1-1kern1
 _ZN8casacore15FunctionalProxy3fdfERKNS_6VectorIdEE@Base 3.2.1-1kern1
 _ZN8casacore15FunctionalProxy4addcERKS0_@Base 3.2.1-1kern1
 _ZN8casacore15FunctionalProxy4fdfcERKNS_6VectorIdEE@Base 3.2.1-1kern1
 _ZN8casacore15FunctionalProxy6setparEid@Base 3.2.1-1kern1
 _ZN8casacore15FunctionalProxy7fhd2recEv@Base 3.2.1-1kern1
 _ZN8casacore15FunctionalProxy7rec2fhdERKNS_6RecordE@Base 3.2.1-1kern1
 _ZN8casacore15FunctionalProxy7setmaskEib@Base 3.2.1-1kern1
 _ZN8casacore15FunctionalProxy7setparcEiSt7complexIdE@Base 3.2.1-1kern1
 _ZN8casacore15FunctionalProxy8asrecordEv@Base 3.2.1-1kern1
 _ZN8casacore15FunctionalProxy8fhdc2recEv@Base 3.2.1-1kern1
 _ZN8casacore15FunctionalProxy8rec2fhdcERKNS_6RecordE@Base 3.2.1-1kern1
 _ZN8casacore15FunctionalProxy8setmasksERKNS_6VectorIbEE@Base 3.2.1-1kern1
 _ZN8casacore15FunctionalProxyC1ERKNS_6RecordEi@Base 3.2.1-1kern1
 _ZN8casacore15FunctionalProxyC2ERKNS_6RecordEi@Base 3.2.1-1kern1
 _ZN8casacore15FunctionalProxyD0Ev@Base 3.2.1-1kern1
 _ZN8casacore15FunctionalProxyD1Ev@Base 3.2.1-1kern1
 _ZN8casacore15FunctionalProxyD2Ev@Base 3.2.1-1kern1
 _ZN8casacore15Gaussian1DParamINS_8AutoDiffISt7complexIdEEEEC1ERKS5_@Base 3.2.1-1kern1
 _ZN8casacore15Gaussian1DParamINS_8AutoDiffISt7complexIdEEEEC1Ev@Base 3.2.1-1kern1
 _ZN8casacore15Gaussian1DParamINS_8AutoDiffISt7complexIdEEEEC1IS3_EERKNS0_IT_EE@Base 3.2.1-1kern1
 _ZN8casacore15Gaussian1DParamINS_8AutoDiffISt7complexIdEEEEC2ERKS5_@Base 3.2.1-1kern1
 _ZN8casacore15Gaussian1DParamINS_8AutoDiffISt7complexIdEEEEC2Ev@Base 3.2.1-1kern1
 _ZN8casacore15Gaussian1DParamINS_8AutoDiffISt7complexIdEEEEC2IS3_EERKNS0_IT_EE@Base 3.2.1-1kern1
 _ZN8casacore15Gaussian1DParamINS_8AutoDiffISt7complexIdEEEED0Ev@Base 3.2.1-1kern1
 _ZN8casacore15Gaussian1DParamINS_8AutoDiffISt7complexIdEEEED1Ev@Base 3.2.1-1kern1
 _ZN8casacore15Gaussian1DParamINS_8AutoDiffISt7complexIdEEEED2Ev@Base 3.2.1-1kern1
 _ZN8casacore15Gaussian1DParamINS_8AutoDiffIdEEEC1ERKS3_@Base 3.2.1-1kern1
 _ZN8casacore15Gaussian1DParamINS_8AutoDiffIdEEEC1Ev@Base 3.2.1-1kern1
 _ZN8casacore15Gaussian1DParamINS_8AutoDiffIdEEEC1IdEERKNS0_IT_EE@Base 3.2.1-1kern1
 _ZN8casacore15Gaussian1DParamINS_8AutoDiffIdEEEC2ERKS3_@Base 3.2.1-1kern1
 _ZN8casacore15Gaussian1DParamINS_8AutoDiffIdEEEC2Ev@Base 3.2.1-1kern1
 _ZN8casacore15Gaussian1DParamINS_8AutoDiffIdEEEC2IdEERKNS0_IT_EE@Base 3.2.1-1kern1
 _ZN8casacore15Gaussian1DParamINS_8AutoDiffIdEEED0Ev@Base 3.2.1-1kern1
 _ZN8casacore15Gaussian1DParamINS_8AutoDiffIdEEED1Ev@Base 3.2.1-1kern1
 _ZN8casacore15Gaussian1DParamINS_8AutoDiffIdEEED2Ev@Base 3.2.1-1kern1
 _ZN8casacore15Gaussian1DParamISt7complexIdEEC1ERKS3_@Base 3.2.1-1kern1
 _ZN8casacore15Gaussian1DParamISt7complexIdEEC1Ev@Base 3.2.1-1kern1
 _ZN8casacore15Gaussian1DParamISt7complexIdEEC2ERKS3_@Base 3.2.1-1kern1
 _ZN8casacore15Gaussian1DParamISt7complexIdEEC2Ev@Base 3.2.1-1kern1
 _ZN8casacore15Gaussian1DParamIdEC1ERKdS3_S3_@Base 3.2.1-1kern1
 _ZN8casacore15Gaussian1DParamIdEC2ERKdS3_S3_@Base 3.2.1-1kern1
 _ZN8casacore15Gaussian2DParamINS_8AutoDiffISt7complexIdEEEE5setPAERKS4_@Base 3.2.1-1kern1
 _ZN8casacore15Gaussian2DParamINS_8AutoDiffISt7complexIdEEEEC1ERKS5_@Base 3.2.1-1kern1
 _ZN8casacore15Gaussian2DParamINS_8AutoDiffISt7complexIdEEEEC1Ev@Base 3.2.1-1kern1
 _ZN8casacore15Gaussian2DParamINS_8AutoDiffISt7complexIdEEEEC1IS3_EERKNS0_IT_EE@Base 3.2.1-1kern1
 _ZN8casacore15Gaussian2DParamINS_8AutoDiffISt7complexIdEEEEC2ERKS5_@Base 3.2.1-1kern1
 _ZN8casacore15Gaussian2DParamINS_8AutoDiffISt7complexIdEEEEC2Ev@Base 3.2.1-1kern1
 _ZN8casacore15Gaussian2DParamINS_8AutoDiffISt7complexIdEEEEC2IS3_EERKNS0_IT_EE@Base 3.2.1-1kern1
 _ZN8casacore15Gaussian2DParamINS_8AutoDiffISt7complexIdEEEED0Ev@Base 3.2.1-1kern1
 _ZN8casacore15Gaussian2DParamINS_8AutoDiffISt7complexIdEEEED1Ev@Base 3.2.1-1kern1
 _ZN8casacore15Gaussian2DParamINS_8AutoDiffISt7complexIdEEEED2Ev@Base 3.2.1-1kern1
 _ZN8casacore15Gaussian2DParamINS_8AutoDiffIdEEE5setPAERKS2_@Base 3.2.1-1kern1
 _ZN8casacore15Gaussian2DParamINS_8AutoDiffIdEEEC1ERKS3_@Base 3.2.1-1kern1
 _ZN8casacore15Gaussian2DParamINS_8AutoDiffIdEEEC1Ev@Base 3.2.1-1kern1
 _ZN8casacore15Gaussian2DParamINS_8AutoDiffIdEEEC1IdEERKNS0_IT_EE@Base 3.2.1-1kern1
 _ZN8casacore15Gaussian2DParamINS_8AutoDiffIdEEEC2ERKS3_@Base 3.2.1-1kern1
 _ZN8casacore15Gaussian2DParamINS_8AutoDiffIdEEEC2Ev@Base 3.2.1-1kern1
 _ZN8casacore15Gaussian2DParamINS_8AutoDiffIdEEEC2IdEERKNS0_IT_EE@Base 3.2.1-1kern1
 _ZN8casacore15Gaussian2DParamINS_8AutoDiffIdEEED0Ev@Base 3.2.1-1kern1
 _ZN8casacore15Gaussian2DParamINS_8AutoDiffIdEEED1Ev@Base 3.2.1-1kern1
 _ZN8casacore15Gaussian2DParamINS_8AutoDiffIdEEED2Ev@Base 3.2.1-1kern1
 _ZN8casacore15Gaussian2DParamISt7complexIdEE5setPAERKS2_@Base 3.2.1-1kern1
 _ZN8casacore15Gaussian2DParamISt7complexIdEEC1ERKS3_@Base 3.2.1-1kern1
 _ZN8casacore15Gaussian2DParamISt7complexIdEEC1Ev@Base 3.2.1-1kern1
 _ZN8casacore15Gaussian2DParamISt7complexIdEEC2ERKS3_@Base 3.2.1-1kern1
 _ZN8casacore15Gaussian2DParamISt7complexIdEEC2Ev@Base 3.2.1-1kern1
 _ZN8casacore15Gaussian2DParamIdE5setPAERKd@Base 3.2.1-1kern1
 _ZN8casacore15Gaussian2DParamIdEC1Ev@Base 3.2.1-1kern1
 _ZN8casacore15Gaussian2DParamIdEC2Ev@Base 3.2.1-1kern1
 _ZN8casacore15Gaussian3DParamINS_8AutoDiffISt7complexIdEEEEC1ERKS5_@Base 3.2.1-1kern1
 _ZN8casacore15Gaussian3DParamINS_8AutoDiffISt7complexIdEEEEC1Ev@Base 3.2.1-1kern1
 _ZN8casacore15Gaussian3DParamINS_8AutoDiffISt7complexIdEEEEC1IS3_EERKNS0_IT_EE@Base 3.2.1-1kern1
 _ZN8casacore15Gaussian3DParamINS_8AutoDiffISt7complexIdEEEEC2ERKS5_@Base 3.2.1-1kern1
 _ZN8casacore15Gaussian3DParamINS_8AutoDiffISt7complexIdEEEEC2Ev@Base 3.2.1-1kern1
 _ZN8casacore15Gaussian3DParamINS_8AutoDiffISt7complexIdEEEEC2IS3_EERKNS0_IT_EE@Base 3.2.1-1kern1
 _ZN8casacore15Gaussian3DParamINS_8AutoDiffISt7complexIdEEEED0Ev@Base 3.2.1-1kern1
 _ZN8casacore15Gaussian3DParamINS_8AutoDiffISt7complexIdEEEED1Ev@Base 3.2.1-1kern1
 _ZN8casacore15Gaussian3DParamINS_8AutoDiffISt7complexIdEEEED2Ev@Base 3.2.1-1kern1
 _ZN8casacore15Gaussian3DParamINS_8AutoDiffIdEEEC1ERKS3_@Base 3.2.1-1kern1
 _ZN8casacore15Gaussian3DParamINS_8AutoDiffIdEEEC1Ev@Base 3.2.1-1kern1
 _ZN8casacore15Gaussian3DParamINS_8AutoDiffIdEEEC1IdEERKNS0_IT_EE@Base 3.2.1-1kern1
 _ZN8casacore15Gaussian3DParamINS_8AutoDiffIdEEEC2ERKS3_@Base 3.2.1-1kern1
 _ZN8casacore15Gaussian3DParamINS_8AutoDiffIdEEEC2Ev@Base 3.2.1-1kern1
 _ZN8casacore15Gaussian3DParamINS_8AutoDiffIdEEEC2IdEERKNS0_IT_EE@Base 3.2.1-1kern1
 _ZN8casacore15Gaussian3DParamINS_8AutoDiffIdEEED0Ev@Base 3.2.1-1kern1
 _ZN8casacore15Gaussian3DParamINS_8AutoDiffIdEEED1Ev@Base 3.2.1-1kern1
 _ZN8casacore15Gaussian3DParamINS_8AutoDiffIdEEED2Ev@Base 3.2.1-1kern1
 _ZN8casacore15Gaussian3DParamISt7complexIdEEC1ERKS3_@Base 3.2.1-1kern1
 _ZN8casacore15Gaussian3DParamISt7complexIdEEC1Ev@Base 3.2.1-1kern1
 _ZN8casacore15Gaussian3DParamISt7complexIdEEC2ERKS3_@Base 3.2.1-1kern1
 _ZN8casacore15Gaussian3DParamISt7complexIdEEC2Ev@Base 3.2.1-1kern1
 _ZN8casacore15Gaussian3DParamIdEC1Ev@Base 3.2.1-1kern1
 _ZN8casacore15Gaussian3DParamIdEC2Ev@Base 3.2.1-1kern1
 _ZN8casacore15GaussianNDParamINS_8AutoDiffISt7complexIdEEEE7setFluxERKS4_@Base 3.2.1-1kern1
 _ZN8casacore15GaussianNDParamINS_8AutoDiffISt7complexIdEEEEC1Ej@Base 3.2.1-1kern1
 _ZN8casacore15GaussianNDParamINS_8AutoDiffISt7complexIdEEEEC1Ev@Base 3.2.1-1kern1
 _ZN8casacore15GaussianNDParamINS_8AutoDiffISt7complexIdEEEEC2Ej@Base 3.2.1-1kern1
 _ZN8casacore15GaussianNDParamINS_8AutoDiffISt7complexIdEEEEC2Ev@Base 3.2.1-1kern1
 _ZN8casacore15GaussianNDParamINS_8AutoDiffISt7complexIdEEEED0Ev@Base 3.2.1-1kern1
 _ZN8casacore15GaussianNDParamINS_8AutoDiffISt7complexIdEEEED1Ev@Base 3.2.1-1kern1
 _ZN8casacore15GaussianNDParamINS_8AutoDiffISt7complexIdEEEED2Ev@Base 3.2.1-1kern1
 _ZN8casacore15GaussianNDParamINS_8AutoDiffIdEEE7setFluxERKS2_@Base 3.2.1-1kern1
 _ZN8casacore15GaussianNDParamINS_8AutoDiffIdEEEC1Ej@Base 3.2.1-1kern1
 _ZN8casacore15GaussianNDParamINS_8AutoDiffIdEEEC1Ev@Base 3.2.1-1kern1
 _ZN8casacore15GaussianNDParamINS_8AutoDiffIdEEEC2Ej@Base 3.2.1-1kern1
 _ZN8casacore15GaussianNDParamINS_8AutoDiffIdEEEC2Ev@Base 3.2.1-1kern1
 _ZN8casacore15GaussianNDParamINS_8AutoDiffIdEEED0Ev@Base 3.2.1-1kern1
 _ZN8casacore15GaussianNDParamINS_8AutoDiffIdEEED1Ev@Base 3.2.1-1kern1
 _ZN8casacore15GaussianNDParamINS_8AutoDiffIdEEED2Ev@Base 3.2.1-1kern1
 _ZN8casacore15GaussianNDParamISt7complexIdEE7setFluxERKS2_@Base 3.2.1-1kern1
 _ZN8casacore15GaussianNDParamISt7complexIdEEC1Ej@Base 3.2.1-1kern1
 _ZN8casacore15GaussianNDParamISt7complexIdEEC1Ev@Base 3.2.1-1kern1
 _ZN8casacore15GaussianNDParamISt7complexIdEEC2Ej@Base 3.2.1-1kern1
 _ZN8casacore15GaussianNDParamISt7complexIdEEC2Ev@Base 3.2.1-1kern1
 _ZN8casacore15GenSortIndirectIdE10insSortAscEPjPKdii@Base 3.2.1-1kern1
 _ZN8casacore15GenSortIndirectIdE11heapSortAscEPjPKdi@Base 3.2.1-1kern1
 _ZN8casacore15GenSortIndirectIdE12quickSortAscEPjPKdibi@Base 3.2.1-1kern1
 _ZN8casacore15GenSortIndirectIdE15heapAscSiftDownEPjiiPKd@Base 3.2.1-1kern1
 _ZN8casacore15GenSortIndirectIdE15insSortAscNoDupEPjPKdi@Base 3.2.1-1kern1
 _ZN8casacore15GenSortIndirectIdE5mergeEPKdPjS4_jS4_j@Base 3.2.1-1kern1
 _ZN8casacore15GenSortIndirectIdE7parSortEPjPKdjNS_4Sort5OrderEii@Base 3.2.1-1kern1
 _ZN8casacore15NewDelAllocatorINS_6VectorIdEEE5valueE@Base 3.2.1-1kern1
 _ZN8casacore15NewDelAllocatorINS_6VectorIdEEED0Ev@Base 3.2.1-1kern1
 _ZN8casacore15NewDelAllocatorINS_6VectorIdEEED1Ev@Base 3.2.1-1kern1
 _ZN8casacore15NewDelAllocatorINS_6VectorIdEEED2Ev@Base 3.2.1-1kern1
 _ZN8casacore15NewDelAllocatorINS_7QuantumIdEEE5valueE@Base 3.2.1-1kern1
 _ZN8casacore15NewDelAllocatorINS_7QuantumIdEEED0Ev@Base 3.2.1-1kern1
 _ZN8casacore15NewDelAllocatorINS_7QuantumIdEEED1Ev@Base 3.2.1-1kern1
 _ZN8casacore15NewDelAllocatorINS_7QuantumIdEEED2Ev@Base 3.2.1-1kern1
 _ZN8casacore15NewDelAllocatorINS_8AutoDiffISt7complexIdEEEE5valueE@Base 3.2.1-1kern1
 _ZN8casacore15NewDelAllocatorINS_8AutoDiffISt7complexIdEEEED0Ev@Base 3.2.1-1kern1
 _ZN8casacore15NewDelAllocatorINS_8AutoDiffISt7complexIdEEEED1Ev@Base 3.2.1-1kern1
 _ZN8casacore15NewDelAllocatorINS_8AutoDiffISt7complexIdEEEED2Ev@Base 3.2.1-1kern1
 _ZN8casacore15NewDelAllocatorINS_8AutoDiffIdEEE5valueE@Base 3.2.1-1kern1
 _ZN8casacore15NewDelAllocatorINS_8AutoDiffIdEEED0Ev@Base 3.2.1-1kern1
 _ZN8casacore15NewDelAllocatorINS_8AutoDiffIdEEED1Ev@Base 3.2.1-1kern1
 _ZN8casacore15NewDelAllocatorINS_8AutoDiffIdEEED2Ev@Base 3.2.1-1kern1
 _ZN8casacore15Sinusoid1DParamINS_8AutoDiffISt7complexIdEEEEC1Ev@Base 3.2.1-1kern1
 _ZN8casacore15Sinusoid1DParamINS_8AutoDiffISt7complexIdEEEEC2Ev@Base 3.2.1-1kern1
 _ZN8casacore15Sinusoid1DParamINS_8AutoDiffIdEEEC1Ev@Base 3.2.1-1kern1
 _ZN8casacore15Sinusoid1DParamINS_8AutoDiffIdEEEC2Ev@Base 3.2.1-1kern1
 _ZN8casacore15Sinusoid1DParamISt7complexIdEEC1Ev@Base 3.2.1-1kern1
 _ZN8casacore15Sinusoid1DParamISt7complexIdEEC2Ev@Base 3.2.1-1kern1
 _ZN8casacore15arrayCompareAllISt7complexIdENS_7NearAbsIS2_S2_EEEEbRKNS_5ArrayIT_EES6_T0_@Base 3.2.1-1kern1
 _ZN8casacore15arrayCompareAllISt7complexIfENS_7NearAbsIS2_S2_EEEEbRKNS_5ArrayIT_EES6_T0_@Base 3.2.1-1kern1
 _ZN8casacore15arrayCompareAllIdNS_7NearAbsIddEEEEbRKNS_5ArrayIT_EES4_T0_@Base 3.2.1-1kern1
 _ZN8casacore15arrayCompareAllIfNS_7NearAbsIffEEEEbRKNS_5ArrayIT_EES4_T0_@Base 3.2.1-1kern1
 _ZN8casacore16CompiledFunctionINS_8AutoDiffISt7complexIdEEEED0Ev@Base 3.2.1-1kern1
 _ZN8casacore16CompiledFunctionINS_8AutoDiffISt7complexIdEEEED1Ev@Base 3.2.1-1kern1
 _ZN8casacore16CompiledFunctionINS_8AutoDiffISt7complexIdEEEED2Ev@Base 3.2.1-1kern1
 _ZN8casacore16CompiledFunctionINS_8AutoDiffIdEEED0Ev@Base 3.2.1-1kern1
 _ZN8casacore16CompiledFunctionINS_8AutoDiffIdEEED1Ev@Base 3.2.1-1kern1
 _ZN8casacore16CompiledFunctionINS_8AutoDiffIdEEED2Ev@Base 3.2.1-1kern1
 _ZN8casacore16CompiledFunctionISt7complexIdEED0Ev@Base 3.2.1-1kern1
 _ZN8casacore16CompiledFunctionISt7complexIdEED1Ev@Base 3.2.1-1kern1
 _ZN8casacore16CompiledFunctionISt7complexIdEED2Ev@Base 3.2.1-1kern1
 _ZN8casacore16CompiledFunctionIdED0Ev@Base 3.2.1-1kern1
 _ZN8casacore16CompiledFunctionIdED1Ev@Base 3.2.1-1kern1
 _ZN8casacore16CompiledFunctionIdED2Ev@Base 3.2.1-1kern1
 _ZN8casacore16CompoundFunctionINS_8AutoDiffISt7complexIdEEEE9toParam_pEv@Base 3.2.1-1kern1
 _ZN8casacore16CompoundFunctionINS_8AutoDiffISt7complexIdEEEED0Ev@Base 3.2.1-1kern1
 _ZN8casacore16CompoundFunctionINS_8AutoDiffISt7complexIdEEEED1Ev@Base 3.2.1-1kern1
 _ZN8casacore16CompoundFunctionINS_8AutoDiffISt7complexIdEEEED2Ev@Base 3.2.1-1kern1
 _ZN8casacore16CompoundFunctionINS_8AutoDiffIdEEE9toParam_pEv@Base 3.2.1-1kern1
 _ZN8casacore16CompoundFunctionINS_8AutoDiffIdEEED0Ev@Base 3.2.1-1kern1
 _ZN8casacore16CompoundFunctionINS_8AutoDiffIdEEED1Ev@Base 3.2.1-1kern1
 _ZN8casacore16CompoundFunctionINS_8AutoDiffIdEEED2Ev@Base 3.2.1-1kern1
 _ZN8casacore16CompoundFunctionISt7complexIdEED0Ev@Base 3.2.1-1kern1
 _ZN8casacore16CompoundFunctionISt7complexIdEED1Ev@Base 3.2.1-1kern1
 _ZN8casacore16CompoundFunctionISt7complexIdEED2Ev@Base 3.2.1-1kern1
 _ZN8casacore16CompoundFunctionIdED0Ev@Base 3.2.1-1kern1
 _ZN8casacore16CompoundFunctionIdED1Ev@Base 3.2.1-1kern1
 _ZN8casacore16CompoundFunctionIdED2Ev@Base 3.2.1-1kern1
 _ZN8casacore16DefaultAllocatorINS_6VectorIdEEE5valueE@Base 3.2.1-1kern1
 _ZN8casacore16DefaultAllocatorINS_6VectorIdEEED0Ev@Base 3.2.1-1kern1
 _ZN8casacore16DefaultAllocatorINS_6VectorIdEEED1Ev@Base 3.2.1-1kern1
 _ZN8casacore16DefaultAllocatorINS_6VectorIdEEED2Ev@Base 3.2.1-1kern1
 _ZN8casacore16DefaultAllocatorINS_7QuantumIdEEE5valueE@Base 3.2.1-1kern1
 _ZN8casacore16DefaultAllocatorINS_7QuantumIdEEED0Ev@Base 3.2.1-1kern1
 _ZN8casacore16DefaultAllocatorINS_7QuantumIdEEED1Ev@Base 3.2.1-1kern1
 _ZN8casacore16DefaultAllocatorINS_7QuantumIdEEED2Ev@Base 3.2.1-1kern1
 _ZN8casacore16DefaultAllocatorINS_8AutoDiffISt7complexIdEEEE5valueE@Base 3.2.1-1kern1
 _ZN8casacore16DefaultAllocatorINS_8AutoDiffISt7complexIdEEEED0Ev@Base 3.2.1-1kern1
 _ZN8casacore16DefaultAllocatorINS_8AutoDiffISt7complexIdEEEED1Ev@Base 3.2.1-1kern1
 _ZN8casacore16DefaultAllocatorINS_8AutoDiffISt7complexIdEEEED2Ev@Base 3.2.1-1kern1
 _ZN8casacore16DefaultAllocatorINS_8AutoDiffIdEEE5valueE@Base 3.2.1-1kern1
 _ZN8casacore16DefaultAllocatorINS_8AutoDiffIdEEED0Ev@Base 3.2.1-1kern1
 _ZN8casacore16DefaultAllocatorINS_8AutoDiffIdEEED1Ev@Base 3.2.1-1kern1
 _ZN8casacore16DefaultAllocatorINS_8AutoDiffIdEEED2Ev@Base 3.2.1-1kern1
 _ZN8casacore16NNLSMatrixSolver5solveEv@Base 3.2.1-1kern1
 _ZN8casacore16NNLSMatrixSolverC1ERKNS_6MatrixIfEERKNS_6VectorIfEE@Base 3.2.1-1kern1
 _ZN8casacore16NNLSMatrixSolverC1ERKS0_@Base 3.2.1-1kern1
 _ZN8casacore16NNLSMatrixSolverC1Ev@Base 3.2.1-1kern1
 _ZN8casacore16NNLSMatrixSolverC2ERKNS_6MatrixIfEERKNS_6VectorIfEE@Base 3.2.1-1kern1
 _ZN8casacore16NNLSMatrixSolverC2ERKS0_@Base 3.2.1-1kern1
 _ZN8casacore16NNLSMatrixSolverC2Ev@Base 3.2.1-1kern1
 _ZN8casacore16NNLSMatrixSolverD0Ev@Base 3.2.1-1kern1
 _ZN8casacore16NNLSMatrixSolverD1Ev@Base 3.2.1-1kern1
 _ZN8casacore16NNLSMatrixSolverD2Ev@Base 3.2.1-1kern1
 _ZN8casacore16ZScoreCalculator12getMaxZScoreEy@Base 3.2.1-1kern1
 _ZN8casacore16ZScoreCalculator16_nptsToMaxZScoreE@Base 3.2.1-1kern1
 _ZN8casacore16ZScoreCalculator6_mutexE@Base 3.2.1-1kern1
 _ZN8casacore17Allocator_private17BulkAllocatorImplINS_17new_del_allocatorINS_6VectorIdEEEEE10deallocateEPS4_m@Base 3.2.1-1kern1
 _ZN8casacore17Allocator_private17BulkAllocatorImplINS_17new_del_allocatorINS_6VectorIdEEEEE7destroyEPS4_m@Base 3.2.1-1kern1
 _ZN8casacore17Allocator_private17BulkAllocatorImplINS_17new_del_allocatorINS_6VectorIdEEEEE8allocateEmPKv@Base 3.2.1-1kern1
 _ZN8casacore17Allocator_private17BulkAllocatorImplINS_17new_del_allocatorINS_6VectorIdEEEEE9allocatorE@Base 3.2.1-1kern1
 _ZN8casacore17Allocator_private17BulkAllocatorImplINS_17new_del_allocatorINS_6VectorIdEEEEE9constructEPS4_m@Base 3.2.1-1kern1
 _ZN8casacore17Allocator_private17BulkAllocatorImplINS_17new_del_allocatorINS_6VectorIdEEEEE9constructEPS4_mPKS4_@Base 3.2.1-1kern1
 _ZN8casacore17Allocator_private17BulkAllocatorImplINS_17new_del_allocatorINS_6VectorIdEEEEE9constructEPS4_mRKS4_@Base 3.2.1-1kern1
 _ZN8casacore17Allocator_private17BulkAllocatorImplINS_17new_del_allocatorINS_6VectorIdEEEEED0Ev@Base 3.2.1-1kern1
 _ZN8casacore17Allocator_private17BulkAllocatorImplINS_17new_del_allocatorINS_6VectorIdEEEEED1Ev@Base 3.2.1-1kern1
 _ZN8casacore17Allocator_private17BulkAllocatorImplINS_17new_del_allocatorINS_6VectorIdEEEEED2Ev@Base 3.2.1-1kern1
 _ZN8casacore17Allocator_private17BulkAllocatorImplINS_17new_del_allocatorINS_7QuantumIdEEEEE10deallocateEPS4_m@Base 3.2.1-1kern1
 _ZN8casacore17Allocator_private17BulkAllocatorImplINS_17new_del_allocatorINS_7QuantumIdEEEEE7destroyEPS4_m@Base 3.2.1-1kern1
 _ZN8casacore17Allocator_private17BulkAllocatorImplINS_17new_del_allocatorINS_7QuantumIdEEEEE8allocateEmPKv@Base 3.2.1-1kern1
 _ZN8casacore17Allocator_private17BulkAllocatorImplINS_17new_del_allocatorINS_7QuantumIdEEEEE9allocatorE@Base 3.2.1-1kern1
 _ZN8casacore17Allocator_private17BulkAllocatorImplINS_17new_del_allocatorINS_7QuantumIdEEEEE9constructEPS4_m@Base 3.2.1-1kern1
 _ZN8casacore17Allocator_private17BulkAllocatorImplINS_17new_del_allocatorINS_7QuantumIdEEEEE9constructEPS4_mPKS4_@Base 3.2.1-1kern1
 _ZN8casacore17Allocator_private17BulkAllocatorImplINS_17new_del_allocatorINS_7QuantumIdEEEEE9constructEPS4_mRKS4_@Base 3.2.1-1kern1
 _ZN8casacore17Allocator_private17BulkAllocatorImplINS_17new_del_allocatorINS_7QuantumIdEEEEED0Ev@Base 3.2.1-1kern1
 _ZN8casacore17Allocator_private17BulkAllocatorImplINS_17new_del_allocatorINS_7QuantumIdEEEEED1Ev@Base 3.2.1-1kern1
 _ZN8casacore17Allocator_private17BulkAllocatorImplINS_17new_del_allocatorINS_7QuantumIdEEEEED2Ev@Base 3.2.1-1kern1
 _ZN8casacore17Allocator_private17BulkAllocatorImplINS_17new_del_allocatorINS_8AutoDiffISt7complexIdEEEEEE10deallocateEPS6_m@Base 3.2.1-1kern1
 _ZN8casacore17Allocator_private17BulkAllocatorImplINS_17new_del_allocatorINS_8AutoDiffISt7complexIdEEEEEE7destroyEPS6_m@Base 3.2.1-1kern1
 _ZN8casacore17Allocator_private17BulkAllocatorImplINS_17new_del_allocatorINS_8AutoDiffISt7complexIdEEEEEE8allocateEmPKv@Base 3.2.1-1kern1
 _ZN8casacore17Allocator_private17BulkAllocatorImplINS_17new_del_allocatorINS_8AutoDiffISt7complexIdEEEEEE9allocatorE@Base 3.2.1-1kern1
 _ZN8casacore17Allocator_private17BulkAllocatorImplINS_17new_del_allocatorINS_8AutoDiffISt7complexIdEEEEEE9constructEPS6_m@Base 3.2.1-1kern1
 _ZN8casacore17Allocator_private17BulkAllocatorImplINS_17new_del_allocatorINS_8AutoDiffISt7complexIdEEEEEE9constructEPS6_mPKS6_@Base 3.2.1-1kern1
 _ZN8casacore17Allocator_private17BulkAllocatorImplINS_17new_del_allocatorINS_8AutoDiffISt7complexIdEEEEEE9constructEPS6_mRKS6_@Base 3.2.1-1kern1
 _ZN8casacore17Allocator_private17BulkAllocatorImplINS_17new_del_allocatorINS_8AutoDiffISt7complexIdEEEEEED0Ev@Base 3.2.1-1kern1
 _ZN8casacore17Allocator_private17BulkAllocatorImplINS_17new_del_allocatorINS_8AutoDiffISt7complexIdEEEEEED1Ev@Base 3.2.1-1kern1
 _ZN8casacore17Allocator_private17BulkAllocatorImplINS_17new_del_allocatorINS_8AutoDiffISt7complexIdEEEEEED2Ev@Base 3.2.1-1kern1
 _ZN8casacore17Allocator_private17BulkAllocatorImplINS_17new_del_allocatorINS_8AutoDiffIdEEEEE10deallocateEPS4_m@Base 3.2.1-1kern1
 _ZN8casacore17Allocator_private17BulkAllocatorImplINS_17new_del_allocatorINS_8AutoDiffIdEEEEE7destroyEPS4_m@Base 3.2.1-1kern1
 _ZN8casacore17Allocator_private17BulkAllocatorImplINS_17new_del_allocatorINS_8AutoDiffIdEEEEE8allocateEmPKv@Base 3.2.1-1kern1
 _ZN8casacore17Allocator_private17BulkAllocatorImplINS_17new_del_allocatorINS_8AutoDiffIdEEEEE9allocatorE@Base 3.2.1-1kern1
 _ZN8casacore17Allocator_private17BulkAllocatorImplINS_17new_del_allocatorINS_8AutoDiffIdEEEEE9constructEPS4_m@Base 3.2.1-1kern1
 _ZN8casacore17Allocator_private17BulkAllocatorImplINS_17new_del_allocatorINS_8AutoDiffIdEEEEE9constructEPS4_mPKS4_@Base 3.2.1-1kern1
 _ZN8casacore17Allocator_private17BulkAllocatorImplINS_17new_del_allocatorINS_8AutoDiffIdEEEEE9constructEPS4_mRKS4_@Base 3.2.1-1kern1
 _ZN8casacore17Allocator_private17BulkAllocatorImplINS_17new_del_allocatorINS_8AutoDiffIdEEEEED0Ev@Base 3.2.1-1kern1
 _ZN8casacore17Allocator_private17BulkAllocatorImplINS_17new_del_allocatorINS_8AutoDiffIdEEEEED1Ev@Base 3.2.1-1kern1
 _ZN8casacore17Allocator_private17BulkAllocatorImplINS_17new_del_allocatorINS_8AutoDiffIdEEEEED2Ev@Base 3.2.1-1kern1
 _ZN8casacore17Allocator_private17BulkAllocatorImplINS_18casacore_allocatorINS_6VectorIdEELm32EEEE10deallocateEPS4_m@Base 3.2.1-1kern1
 _ZN8casacore17Allocator_private17BulkAllocatorImplINS_18casacore_allocatorINS_6VectorIdEELm32EEEE7destroyEPS4_m@Base 3.2.1-1kern1
 _ZN8casacore17Allocator_private17BulkAllocatorImplINS_18casacore_allocatorINS_6VectorIdEELm32EEEE8allocateEmPKv@Base 3.2.1-1kern1
 _ZN8casacore17Allocator_private17BulkAllocatorImplINS_18casacore_allocatorINS_6VectorIdEELm32EEEE9allocatorE@Base 3.2.1-1kern1
 _ZN8casacore17Allocator_private17BulkAllocatorImplINS_18casacore_allocatorINS_6VectorIdEELm32EEEE9constructEPS4_m@Base 3.2.1-1kern1
 _ZN8casacore17Allocator_private17BulkAllocatorImplINS_18casacore_allocatorINS_6VectorIdEELm32EEEE9constructEPS4_mPKS4_@Base 3.2.1-1kern1
 _ZN8casacore17Allocator_private17BulkAllocatorImplINS_18casacore_allocatorINS_6VectorIdEELm32EEEE9constructEPS4_mRKS4_@Base 3.2.1-1kern1
 _ZN8casacore17Allocator_private17BulkAllocatorImplINS_18casacore_allocatorINS_6VectorIdEELm32EEEED0Ev@Base 3.2.1-1kern1
 _ZN8casacore17Allocator_private17BulkAllocatorImplINS_18casacore_allocatorINS_6VectorIdEELm32EEEED1Ev@Base 3.2.1-1kern1
 _ZN8casacore17Allocator_private17BulkAllocatorImplINS_18casacore_allocatorINS_6VectorIdEELm32EEEED2Ev@Base 3.2.1-1kern1
 _ZN8casacore17Allocator_private17BulkAllocatorImplINS_18casacore_allocatorINS_7QuantumIdEELm32EEEE10deallocateEPS4_m@Base 3.2.1-1kern1
 _ZN8casacore17Allocator_private17BulkAllocatorImplINS_18casacore_allocatorINS_7QuantumIdEELm32EEEE7destroyEPS4_m@Base 3.2.1-1kern1
 _ZN8casacore17Allocator_private17BulkAllocatorImplINS_18casacore_allocatorINS_7QuantumIdEELm32EEEE8allocateEmPKv@Base 3.2.1-1kern1
 _ZN8casacore17Allocator_private17BulkAllocatorImplINS_18casacore_allocatorINS_7QuantumIdEELm32EEEE9allocatorE@Base 3.2.1-1kern1
 _ZN8casacore17Allocator_private17BulkAllocatorImplINS_18casacore_allocatorINS_7QuantumIdEELm32EEEE9constructEPS4_m@Base 3.2.1-1kern1
 _ZN8casacore17Allocator_private17BulkAllocatorImplINS_18casacore_allocatorINS_7QuantumIdEELm32EEEE9constructEPS4_mPKS4_@Base 3.2.1-1kern1
 _ZN8casacore17Allocator_private17BulkAllocatorImplINS_18casacore_allocatorINS_7QuantumIdEELm32EEEE9constructEPS4_mRKS4_@Base 3.2.1-1kern1
 _ZN8casacore17Allocator_private17BulkAllocatorImplINS_18casacore_allocatorINS_7QuantumIdEELm32EEEED0Ev@Base 3.2.1-1kern1
 _ZN8casacore17Allocator_private17BulkAllocatorImplINS_18casacore_allocatorINS_7QuantumIdEELm32EEEED1Ev@Base 3.2.1-1kern1
 _ZN8casacore17Allocator_private17BulkAllocatorImplINS_18casacore_allocatorINS_7QuantumIdEELm32EEEED2Ev@Base 3.2.1-1kern1
 _ZN8casacore17Allocator_private17BulkAllocatorImplINS_18casacore_allocatorINS_8AutoDiffISt7complexIdEEELm32EEEE10deallocateEPS6_m@Base 3.2.1-1kern1
 _ZN8casacore17Allocator_private17BulkAllocatorImplINS_18casacore_allocatorINS_8AutoDiffISt7complexIdEEELm32EEEE7destroyEPS6_m@Base 3.2.1-1kern1
 _ZN8casacore17Allocator_private17BulkAllocatorImplINS_18casacore_allocatorINS_8AutoDiffISt7complexIdEEELm32EEEE8allocateEmPKv@Base 3.2.1-1kern1
 _ZN8casacore17Allocator_private17BulkAllocatorImplINS_18casacore_allocatorINS_8AutoDiffISt7complexIdEEELm32EEEE9allocatorE@Base 3.2.1-1kern1
 _ZN8casacore17Allocator_private17BulkAllocatorImplINS_18casacore_allocatorINS_8AutoDiffISt7complexIdEEELm32EEEE9constructEPS6_m@Base 3.2.1-1kern1
 _ZN8casacore17Allocator_private17BulkAllocatorImplINS_18casacore_allocatorINS_8AutoDiffISt7complexIdEEELm32EEEE9constructEPS6_mPKS6_@Base 3.2.1-1kern1
 _ZN8casacore17Allocator_private17BulkAllocatorImplINS_18casacore_allocatorINS_8AutoDiffISt7complexIdEEELm32EEEE9constructEPS6_mRKS6_@Base 3.2.1-1kern1
 _ZN8casacore17Allocator_private17BulkAllocatorImplINS_18casacore_allocatorINS_8AutoDiffISt7complexIdEEELm32EEEED0Ev@Base 3.2.1-1kern1
 _ZN8casacore17Allocator_private17BulkAllocatorImplINS_18casacore_allocatorINS_8AutoDiffISt7complexIdEEELm32EEEED1Ev@Base 3.2.1-1kern1
 _ZN8casacore17Allocator_private17BulkAllocatorImplINS_18casacore_allocatorINS_8AutoDiffISt7complexIdEEELm32EEEED2Ev@Base 3.2.1-1kern1
 _ZN8casacore17Allocator_private17BulkAllocatorImplINS_18casacore_allocatorINS_8AutoDiffIdEELm32EEEE10deallocateEPS4_m@Base 3.2.1-1kern1
 _ZN8casacore17Allocator_private17BulkAllocatorImplINS_18casacore_allocatorINS_8AutoDiffIdEELm32EEEE7destroyEPS4_m@Base 3.2.1-1kern1
 _ZN8casacore17Allocator_private17BulkAllocatorImplINS_18casacore_allocatorINS_8AutoDiffIdEELm32EEEE8allocateEmPKv@Base 3.2.1-1kern1
 _ZN8casacore17Allocator_private17BulkAllocatorImplINS_18casacore_allocatorINS_8AutoDiffIdEELm32EEEE9allocatorE@Base 3.2.1-1kern1
 _ZN8casacore17Allocator_private17BulkAllocatorImplINS_18casacore_allocatorINS_8AutoDiffIdEELm32EEEE9constructEPS4_m@Base 3.2.1-1kern1
 _ZN8casacore17Allocator_private17BulkAllocatorImplINS_18casacore_allocatorINS_8AutoDiffIdEELm32EEEE9constructEPS4_mPKS4_@Base 3.2.1-1kern1
 _ZN8casacore17Allocator_private17BulkAllocatorImplINS_18casacore_allocatorINS_8AutoDiffIdEELm32EEEE9constructEPS4_mRKS4_@Base 3.2.1-1kern1
 _ZN8casacore17Allocator_private17BulkAllocatorImplINS_18casacore_allocatorINS_8AutoDiffIdEELm32EEEED0Ev@Base 3.2.1-1kern1
 _ZN8casacore17Allocator_private17BulkAllocatorImplINS_18casacore_allocatorINS_8AutoDiffIdEELm32EEEED1Ev@Base 3.2.1-1kern1
 _ZN8casacore17Allocator_private17BulkAllocatorImplINS_18casacore_allocatorINS_8AutoDiffIdEELm32EEEED2Ev@Base 3.2.1-1kern1
 _ZN8casacore17Allocator_private17BulkAllocatorImplINS_18casacore_allocatorIPvLm32EEEE10deallocateEPS3_m@Base 3.2.1-1kern1
 _ZN8casacore17Allocator_private17BulkAllocatorImplINS_18casacore_allocatorIPvLm32EEEE7destroyEPS3_m@Base 3.2.1-1kern1
 _ZN8casacore17Allocator_private17BulkAllocatorImplINS_18casacore_allocatorIPvLm32EEEE8allocateEmPKv@Base 3.2.1-1kern1
 _ZN8casacore17Allocator_private17BulkAllocatorImplINS_18casacore_allocatorIPvLm32EEEE9allocatorE@Base 3.2.1-1kern1
 _ZN8casacore17Allocator_private17BulkAllocatorImplINS_18casacore_allocatorIPvLm32EEEE9constructEPS3_m@Base 3.2.1-1kern1
 _ZN8casacore17Allocator_private17BulkAllocatorImplINS_18casacore_allocatorIPvLm32EEEE9constructEPS3_mPKS3_@Base 3.2.1-1kern1
 _ZN8casacore17Allocator_private17BulkAllocatorImplINS_18casacore_allocatorIPvLm32EEEE9constructEPS3_mRKS3_@Base 3.2.1-1kern1
 _ZN8casacore17Allocator_private17BulkAllocatorImplINS_18casacore_allocatorIPvLm32EEEED0Ev@Base 3.2.1-1kern1
 _ZN8casacore17Allocator_private17BulkAllocatorImplINS_18casacore_allocatorIPvLm32EEEED1Ev@Base 3.2.1-1kern1
 _ZN8casacore17Allocator_private17BulkAllocatorImplINS_18casacore_allocatorIPvLm32EEEED2Ev@Base 3.2.1-1kern1
 _ZN8casacore17Allocator_private17BulkAllocatorImplINS_18casacore_allocatorISt7complexIdELm32EEEE10deallocateEPS4_m@Base 3.2.1-1kern1
 _ZN8casacore17Allocator_private17BulkAllocatorImplINS_18casacore_allocatorISt7complexIdELm32EEEE7destroyEPS4_m@Base 3.2.1-1kern1
 _ZN8casacore17Allocator_private17BulkAllocatorImplINS_18casacore_allocatorISt7complexIdELm32EEEE8allocateEmPKv@Base 3.2.1-1kern1
 _ZN8casacore17Allocator_private17BulkAllocatorImplINS_18casacore_allocatorISt7complexIdELm32EEEE9allocatorE@Base 3.2.1-1kern1
 _ZN8casacore17Allocator_private17BulkAllocatorImplINS_18casacore_allocatorISt7complexIdELm32EEEE9constructEPS4_m@Base 3.2.1-1kern1
 _ZN8casacore17Allocator_private17BulkAllocatorImplINS_18casacore_allocatorISt7complexIdELm32EEEE9constructEPS4_mPKS4_@Base 3.2.1-1kern1
 _ZN8casacore17Allocator_private17BulkAllocatorImplINS_18casacore_allocatorISt7complexIdELm32EEEE9constructEPS4_mRKS4_@Base 3.2.1-1kern1
 _ZN8casacore17Allocator_private17BulkAllocatorImplINS_18casacore_allocatorISt7complexIdELm32EEEED0Ev@Base 3.2.1-1kern1
 _ZN8casacore17Allocator_private17BulkAllocatorImplINS_18casacore_allocatorISt7complexIdELm32EEEED1Ev@Base 3.2.1-1kern1
 _ZN8casacore17Allocator_private17BulkAllocatorImplINS_18casacore_allocatorISt7complexIdELm32EEEED2Ev@Base 3.2.1-1kern1
 _ZN8casacore17Allocator_private17BulkAllocatorImplINS_18casacore_allocatorISt7complexIfELm32EEEE10deallocateEPS4_m@Base 3.2.1-1kern1
 _ZN8casacore17Allocator_private17BulkAllocatorImplINS_18casacore_allocatorISt7complexIfELm32EEEE7destroyEPS4_m@Base 3.2.1-1kern1
 _ZN8casacore17Allocator_private17BulkAllocatorImplINS_18casacore_allocatorISt7complexIfELm32EEEE8allocateEmPKv@Base 3.2.1-1kern1
 _ZN8casacore17Allocator_private17BulkAllocatorImplINS_18casacore_allocatorISt7complexIfELm32EEEE9allocatorE@Base 3.2.1-1kern1
 _ZN8casacore17Allocator_private17BulkAllocatorImplINS_18casacore_allocatorISt7complexIfELm32EEEE9constructEPS4_m@Base 3.2.1-1kern1
 _ZN8casacore17Allocator_private17BulkAllocatorImplINS_18casacore_allocatorISt7complexIfELm32EEEE9constructEPS4_mPKS4_@Base 3.2.1-1kern1
 _ZN8casacore17Allocator_private17BulkAllocatorImplINS_18casacore_allocatorISt7complexIfELm32EEEE9constructEPS4_mRKS4_@Base 3.2.1-1kern1
 _ZN8casacore17Allocator_private17BulkAllocatorImplINS_18casacore_allocatorISt7complexIfELm32EEEED0Ev@Base 3.2.1-1kern1
 _ZN8casacore17Allocator_private17BulkAllocatorImplINS_18casacore_allocatorISt7complexIfELm32EEEED1Ev@Base 3.2.1-1kern1
 _ZN8casacore17Allocator_private17BulkAllocatorImplINS_18casacore_allocatorISt7complexIfELm32EEEED2Ev@Base 3.2.1-1kern1
 _ZN8casacore17Allocator_private17BulkAllocatorImplINS_18casacore_allocatorIdLm32EEEE10deallocateEPdm@Base 3.2.1-1kern1
 _ZN8casacore17Allocator_private17BulkAllocatorImplINS_18casacore_allocatorIdLm32EEEE7destroyEPdm@Base 3.2.1-1kern1
 _ZN8casacore17Allocator_private17BulkAllocatorImplINS_18casacore_allocatorIdLm32EEEE8allocateEmPKv@Base 3.2.1-1kern1
 _ZN8casacore17Allocator_private17BulkAllocatorImplINS_18casacore_allocatorIdLm32EEEE9allocatorE@Base 3.2.1-1kern1
 _ZN8casacore17Allocator_private17BulkAllocatorImplINS_18casacore_allocatorIdLm32EEEE9constructEPdm@Base 3.2.1-1kern1
 _ZN8casacore17Allocator_private17BulkAllocatorImplINS_18casacore_allocatorIdLm32EEEE9constructEPdmPKd@Base 3.2.1-1kern1
 _ZN8casacore17Allocator_private17BulkAllocatorImplINS_18casacore_allocatorIdLm32EEEE9constructEPdmRKd@Base 3.2.1-1kern1
 _ZN8casacore17Allocator_private17BulkAllocatorImplINS_18casacore_allocatorIdLm32EEEED0Ev@Base 3.2.1-1kern1
 _ZN8casacore17Allocator_private17BulkAllocatorImplINS_18casacore_allocatorIdLm32EEEED1Ev@Base 3.2.1-1kern1
 _ZN8casacore17Allocator_private17BulkAllocatorImplINS_18casacore_allocatorIdLm32EEEED2Ev@Base 3.2.1-1kern1
 _ZN8casacore17Allocator_private17BulkAllocatorImplINS_18casacore_allocatorIjLm32EEEE10deallocateEPjm@Base 3.2.1-1kern1
 _ZN8casacore17Allocator_private17BulkAllocatorImplINS_18casacore_allocatorIjLm32EEEE7destroyEPjm@Base 3.2.1-1kern1
 _ZN8casacore17Allocator_private17BulkAllocatorImplINS_18casacore_allocatorIjLm32EEEE8allocateEmPKv@Base 3.2.1-1kern1
 _ZN8casacore17Allocator_private17BulkAllocatorImplINS_18casacore_allocatorIjLm32EEEE9allocatorE@Base 3.2.1-1kern1
 _ZN8casacore17Allocator_private17BulkAllocatorImplINS_18casacore_allocatorIjLm32EEEE9constructEPjm@Base 3.2.1-1kern1
 _ZN8casacore17Allocator_private17BulkAllocatorImplINS_18casacore_allocatorIjLm32EEEE9constructEPjmPKj@Base 3.2.1-1kern1
 _ZN8casacore17Allocator_private17BulkAllocatorImplINS_18casacore_allocatorIjLm32EEEE9constructEPjmRKj@Base 3.2.1-1kern1
 _ZN8casacore17Allocator_private17BulkAllocatorImplINS_18casacore_allocatorIjLm32EEEED0Ev@Base 3.2.1-1kern1
 _ZN8casacore17Allocator_private17BulkAllocatorImplINS_18casacore_allocatorIjLm32EEEED1Ev@Base 3.2.1-1kern1
 _ZN8casacore17Allocator_private17BulkAllocatorImplINS_18casacore_allocatorIjLm32EEEED2Ev@Base 3.2.1-1kern1
 _ZN8casacore17Allocator_private17get_allocator_rawINS_18casacore_allocatorIPvLm32EEEEEPNS0_17BulkAllocatorImplIT_EEv@Base 3.2.1-1kern1
 _ZN8casacore17new_del_allocatorINS_6VectorIdEEED1Ev@Base 3.2.1-1kern1
 _ZN8casacore17new_del_allocatorINS_6VectorIdEEED2Ev@Base 3.2.1-1kern1
 _ZN8casacore17new_del_allocatorINS_7QuantumIdEEED1Ev@Base 3.2.1-1kern1
 _ZN8casacore17new_del_allocatorINS_7QuantumIdEEED2Ev@Base 3.2.1-1kern1
 _ZN8casacore17new_del_allocatorINS_8AutoDiffISt7complexIdEEEED1Ev@Base 3.2.1-1kern1
 _ZN8casacore17new_del_allocatorINS_8AutoDiffISt7complexIdEEEED2Ev@Base 3.2.1-1kern1
 _ZN8casacore17new_del_allocatorINS_8AutoDiffIdEEED1Ev@Base 3.2.1-1kern1
 _ZN8casacore17new_del_allocatorINS_8AutoDiffIdEEED2Ev@Base 3.2.1-1kern1
 _ZN8casacore18FieldNotFoundErrorC1ERKNS_6StringENS_9AipsError8CategoryE@Base 3.2.1-1kern1
 _ZN8casacore18FieldNotFoundErrorC2ERKNS_6StringENS_9AipsError8CategoryE@Base 3.2.1-1kern1
 _ZN8casacore18FieldNotFoundErrorD0Ev@Base 3.2.1-1kern1
 _ZN8casacore18FieldNotFoundErrorD1Ev@Base 3.2.1-1kern1
 _ZN8casacore18FieldNotFoundErrorD2Ev@Base 3.2.1-1kern1
 _ZN8casacore18casacore_allocatorINS_6VectorIdEELm32EED1Ev@Base 3.2.1-1kern1
 _ZN8casacore18casacore_allocatorINS_6VectorIdEELm32EED2Ev@Base 3.2.1-1kern1
 _ZN8casacore18casacore_allocatorINS_7QuantumIdEELm32EED1Ev@Base 3.2.1-1kern1
 _ZN8casacore18casacore_allocatorINS_7QuantumIdEELm32EED2Ev@Base 3.2.1-1kern1
 _ZN8casacore18casacore_allocatorINS_8AutoDiffISt7complexIdEEELm32EED1Ev@Base 3.2.1-1kern1
 _ZN8casacore18casacore_allocatorINS_8AutoDiffISt7complexIdEEELm32EED2Ev@Base 3.2.1-1kern1
 _ZN8casacore18casacore_allocatorINS_8AutoDiffIdEELm32EED1Ev@Base 3.2.1-1kern1
 _ZN8casacore18casacore_allocatorINS_8AutoDiffIdEELm32EED2Ev@Base 3.2.1-1kern1
 _ZN8casacore18casacore_allocatorIPvLm32EED1Ev@Base 3.2.1-1kern1
 _ZN8casacore18casacore_allocatorIPvLm32EED2Ev@Base 3.2.1-1kern1
 _ZN8casacore18casacore_allocatorISt7complexIdELm32EED1Ev@Base 3.2.1-1kern1
 _ZN8casacore18casacore_allocatorISt7complexIdELm32EED2Ev@Base 3.2.1-1kern1
 _ZN8casacore18casacore_allocatorISt7complexIfELm32EED1Ev@Base 3.2.1-1kern1
 _ZN8casacore18casacore_allocatorISt7complexIfELm32EED2Ev@Base 3.2.1-1kern1
 _ZN8casacore18casacore_allocatorIdLm32EED1Ev@Base 3.2.1-1kern1
 _ZN8casacore18casacore_allocatorIdLm32EED2Ev@Base 3.2.1-1kern1
 _ZN8casacore18casacore_allocatorIjLm32EED1Ev@Base 3.2.1-1kern1
 _ZN8casacore18casacore_allocatorIjLm32EED2Ev@Base 3.2.1-1kern1
 _ZN8casacore20FunctionFactoryErrorD0Ev@Base 3.2.1-1kern1
 _ZN8casacore20FunctionFactoryErrorD1Ev@Base 3.2.1-1kern1
 _ZN8casacore20FunctionFactoryErrorD2Ev@Base 3.2.1-1kern1
 _ZN8casacore21ArrayPositionIteratorD0Ev@Base 3.2.1-1kern1
 _ZN8casacore21ArrayPositionIteratorD1Ev@Base 3.2.1-1kern1
 _ZN8casacore21ArrayPositionIteratorD2Ev@Base 3.2.1-1kern1
 _ZN8casacore21arrayTransformInPlaceISt7complexIdES2_St10multipliesIS2_EEEvRNS_5ArrayIT_EET0_T1_@Base 3.2.1-1kern1
 _ZN8casacore21arrayTransformInPlaceISt7complexIdES2_St4plusIS2_EEEvRNS_5ArrayIT_EERKNS5_IT0_EET1_@Base 3.2.1-1kern1
 _ZN8casacore21arrayTransformInPlaceISt7complexIdES2_St7dividesIS2_EEEvRNS_5ArrayIT_EET0_T1_@Base 3.2.1-1kern1
 _ZN8casacore21arrayTransformInPlaceIddSt10multipliesIdEEEvRNS_5ArrayIT_EET0_T1_@Base 3.2.1-1kern1
 _ZN8casacore21arrayTransformInPlaceIddSt4plusIdEEEvRNS_5ArrayIT_EERKNS3_IT0_EET1_@Base 3.2.1-1kern1
 _ZN8casacore21arrayTransformInPlaceIddSt7dividesIdEEEvRNS_5ArrayIT_EET0_T1_@Base 3.2.1-1kern1
 _ZN8casacore22BiweightStatisticsData17_unsupportedStatsE@Base 3.2.1-1kern1
 _ZN8casacore22BiweightStatisticsData19getUnsupportedStatsEv@Base 3.2.1-1kern1
 _ZN8casacore22BiweightStatisticsData6_mutexE@Base 3.2.1-1kern1
 _ZN8casacore22ChebyshevParamModeImplINS_8AutoDiffISt7complexIdEEEE7setModeERKNS_15RecordInterfaceE@Base 3.2.1-1kern1
 _ZN8casacore22ChebyshevParamModeImplINS_8AutoDiffIdEEE7setModeERKNS_15RecordInterfaceE@Base 3.2.1-1kern1
 _ZN8casacore22ChebyshevParamModeImplISt7complexIdEE7setModeERKNS_15RecordInterfaceE@Base 3.2.1-1kern1
 _ZN8casacore22ChebyshevParamModeImplIdE7setModeERKNS_15RecordInterfaceE@Base 3.2.1-1kern1
 _ZN8casacore22SimButterworthBandpassINS_8AutoDiffISt7complexIdEEEE7setModeERKNS_15RecordInterfaceE@Base 3.2.1-1kern1
 _ZN8casacore22SimButterworthBandpassINS_8AutoDiffISt7complexIdEEEED0Ev@Base 3.2.1-1kern1
 _ZN8casacore22SimButterworthBandpassINS_8AutoDiffISt7complexIdEEEED1Ev@Base 3.2.1-1kern1
 _ZN8casacore22SimButterworthBandpassINS_8AutoDiffISt7complexIdEEEED2Ev@Base 3.2.1-1kern1
 _ZN8casacore22SimButterworthBandpassINS_8AutoDiffIdEEE7setModeERKNS_15RecordInterfaceE@Base 3.2.1-1kern1
 _ZN8casacore22SimButterworthBandpassINS_8AutoDiffIdEEED0Ev@Base 3.2.1-1kern1
 _ZN8casacore22SimButterworthBandpassINS_8AutoDiffIdEEED1Ev@Base 3.2.1-1kern1
 _ZN8casacore22SimButterworthBandpassINS_8AutoDiffIdEEED2Ev@Base 3.2.1-1kern1
 _ZN8casacore22SimButterworthBandpassISt7complexIdEE7setModeERKNS_15RecordInterfaceE@Base 3.2.1-1kern1
 _ZN8casacore22SimButterworthBandpassISt7complexIdEED0Ev@Base 3.2.1-1kern1
 _ZN8casacore22SimButterworthBandpassISt7complexIdEED1Ev@Base 3.2.1-1kern1
 _ZN8casacore22SimButterworthBandpassISt7complexIdEED2Ev@Base 3.2.1-1kern1
 _ZN8casacore22SimButterworthBandpassIdE7setModeERKNS_15RecordInterfaceE@Base 3.2.1-1kern1
 _ZN8casacore22SimButterworthBandpassIdED0Ev@Base 3.2.1-1kern1
 _ZN8casacore22SimButterworthBandpassIdED1Ev@Base 3.2.1-1kern1
 _ZN8casacore22SimButterworthBandpassIdED2Ev@Base 3.2.1-1kern1
 _ZN8casacore23ClassicalStatisticsData10BLOCK_SIZEE@Base 3.2.1-1kern1
 _ZN8casacore23ClassicalStatisticsData13CACHE_PADDINGE@Base 3.2.1-1kern1
 _ZN8casacore23ScalarSampledFunctionalIdED0Ev@Base 3.2.1-1kern1
 _ZN8casacore23ScalarSampledFunctionalIdED1Ev@Base 3.2.1-1kern1
 _ZN8casacore23ScalarSampledFunctionalIdED2Ev@Base 3.2.1-1kern1
 _ZN8casacore25InvalidSerializationError8preambleE@Base 3.2.1-1kern1
 _ZN8casacore25InvalidSerializationErrorC1ERKNS_6StringENS_9AipsError8CategoryE@Base 3.2.1-1kern1
 _ZN8casacore25InvalidSerializationErrorC2ERKNS_6StringENS_9AipsError8CategoryE@Base 3.2.1-1kern1
 _ZN8casacore25InvalidSerializationErrorD0Ev@Base 3.2.1-1kern1
 _ZN8casacore25InvalidSerializationErrorD1Ev@Base 3.2.1-1kern1
 _ZN8casacore25InvalidSerializationErrorD2Ev@Base 3.2.1-1kern1
 _ZN8casacore25UnrecognizedFunctionErrorD0Ev@Base 3.2.1-1kern1
 _ZN8casacore25UnrecognizedFunctionErrorD1Ev@Base 3.2.1-1kern1
 _ZN8casacore25UnrecognizedFunctionErrorD2Ev@Base 3.2.1-1kern1
 _ZN8casacore26UnitVal_static_initializerC1Ev@Base 3.2.1-1kern1
 _ZN8casacore26UnitVal_static_initializerC2Ev@Base 3.2.1-1kern1
 _ZN8casacore3absISt7complexIdEEENS_8AutoDiffIT_EERKS5_@Base 3.2.1-1kern1
 _ZN8casacore3absIdEENS_8AutoDiffIT_EERKS3_@Base 3.2.1-1kern1
 _ZN8casacore3cosISt7complexIdEEENS_8AutoDiffIT_EERKS5_@Base 3.2.1-1kern1
 _ZN8casacore3cosIdEENS_8AutoDiffIT_EERKS3_@Base 3.2.1-1kern1
 _ZN8casacore3expISt7complexIdEEENS_8AutoDiffIT_EERKS5_@Base 3.2.1-1kern1
 _ZN8casacore3expIdEENS_8AutoDiffIT_EERKS3_@Base 3.2.1-1kern1
 _ZN8casacore3logISt7complexIdEEENS_8AutoDiffIT_EERKS5_@Base 3.2.1-1kern1
 _ZN8casacore3logIdEENS_8AutoDiffIT_EERKS3_@Base 3.2.1-1kern1
 _ZN8casacore3powISt7complexIdEEENS_8AutoDiffIT_EERKS5_S7_@Base 3.2.1-1kern1
 _ZN8casacore3powIdEENS_8AutoDiffIT_EERKS3_S5_@Base 3.2.1-1kern1
 _ZN8casacore3sinISt7complexIdEEENS_8AutoDiffIT_EERKS5_@Base 3.2.1-1kern1
 _ZN8casacore3sinIdEENS_8AutoDiffIT_EERKS3_@Base 3.2.1-1kern1
 _ZN8casacore4FFTW10theirMutexE@Base 3.2.1-1kern1
 _ZN8casacore4FFTW16plan_c2c_forwardERKNS_9IPositionEPSt7complexIdE@Base 3.2.1-1kern1
 _ZN8casacore4FFTW16plan_c2c_forwardERKNS_9IPositionEPSt7complexIfE@Base 3.2.1-1kern1
 _ZN8casacore4FFTW17plan_c2c_backwardERKNS_9IPositionEPSt7complexIdE@Base 3.2.1-1kern1
 _ZN8casacore4FFTW17plan_c2c_backwardERKNS_9IPositionEPSt7complexIfE@Base 3.2.1-1kern1
 _ZN8casacore4FFTW19is_initialized_fftwE@Base 3.2.1-1kern1
 _ZN8casacore4FFTW3c2cERKNS_9IPositionEPSt7complexIdEb@Base 3.2.1-1kern1
 _ZN8casacore4FFTW3c2cERKNS_9IPositionEPSt7complexIfEb@Base 3.2.1-1kern1
 _ZN8casacore4FFTW3c2rERKNS_9IPositionEPSt7complexIdEPd@Base 3.2.1-1kern1
 _ZN8casacore4FFTW3c2rERKNS_9IPositionEPSt7complexIfEPf@Base 3.2.1-1kern1
 _ZN8casacore4FFTW3r2cERKNS_9IPositionEPdPSt7complexIdE@Base 3.2.1-1kern1
 _ZN8casacore4FFTW3r2cERKNS_9IPositionEPfPSt7complexIfE@Base 3.2.1-1kern1
 _ZN8casacore4FFTW8plan_c2rERKNS_9IPositionEPSt7complexIdEPd@Base 3.2.1-1kern1
 _ZN8casacore4FFTW8plan_c2rERKNS_9IPositionEPSt7complexIfEPf@Base 3.2.1-1kern1
 _ZN8casacore4FFTW8plan_r2cERKNS_9IPositionEPdPSt7complexIdE@Base 3.2.1-1kern1
 _ZN8casacore4FFTW8plan_r2cERKNS_9IPositionEPfPSt7complexIfE@Base 3.2.1-1kern1
 _ZN8casacore4FFTWC1Ev@Base 3.2.1-1kern1
 _ZN8casacore4FFTWC2Ev@Base 3.2.1-1kern1
 _ZN8casacore4FFTWD1Ev@Base 3.2.1-1kern1
 _ZN8casacore4FFTWD2Ev@Base 3.2.1-1kern1
 _ZN8casacore4SCSL5ccfftEiidPSt7complexIdES3_PdS4_i@Base 3.2.1-1kern1
 _ZN8casacore4SCSL5ccfftEiifPSt7complexIfES3_PfS4_i@Base 3.2.1-1kern1
 _ZN8casacore4SCSL5csfftEiidPSt7complexIdEPdS4_S4_i@Base 3.2.1-1kern1
 _ZN8casacore4SCSL5csfftEiifPSt7complexIfEPfS4_S4_i@Base 3.2.1-1kern1
 _ZN8casacore4SCSL5scfftEiidPdPSt7complexIdES1_S1_i@Base 3.2.1-1kern1
 _ZN8casacore4SCSL5scfftEiifPfPSt7complexIfES1_S1_i@Base 3.2.1-1kern1
 _ZN8casacore4SCSL6ccfftmEiiifPSt7complexIfEiS3_iPfS4_i@Base 3.2.1-1kern1
 _ZN8casacore4SCSL6csfftmEiiifPSt7complexIfEiPfiS4_S4_i@Base 3.2.1-1kern1
 _ZN8casacore4SCSL6dzfftmEiiidPdiPSt7complexIdEiS1_S1_i@Base 3.2.1-1kern1
 _ZN8casacore4SCSL6scfftmEiiifPfiPSt7complexIfEiS1_S1_i@Base 3.2.1-1kern1
 _ZN8casacore4SCSL6zdfftmEiiidPSt7complexIdEiPdiS4_S4_i@Base 3.2.1-1kern1
 _ZN8casacore4SCSL6zzfftmEiiidPSt7complexIdEiS3_iPdS4_i@Base 3.2.1-1kern1
 _ZN8casacore4SCSL7ccfft2dEiiifPSt7complexIfEiS3_iPfS4_i@Base 3.2.1-1kern1
 _ZN8casacore4SCSL7ccfft3dEiiiifPSt7complexIfEiiS3_iiPfS4_i@Base 3.2.1-1kern1
 _ZN8casacore4SCSL7csfft2dEiiifPSt7complexIfEiPfiS4_S4_i@Base 3.2.1-1kern1
 _ZN8casacore4SCSL7csfft3dEiiiifPSt7complexIfEiiPfiiS4_S4_i@Base 3.2.1-1kern1
 _ZN8casacore4SCSL7dzfft2dEiiidPdiPSt7complexIdEiS1_S1_i@Base 3.2.1-1kern1
 _ZN8casacore4SCSL7dzfft3dEiiiidPdiiPSt7complexIdEiiS1_S1_i@Base 3.2.1-1kern1
 _ZN8casacore4SCSL7scfft2dEiiifPfiPSt7complexIfEiS1_S1_i@Base 3.2.1-1kern1
 _ZN8casacore4SCSL7scfft3dEiiiifPfiiPSt7complexIfEiiS1_S1_i@Base 3.2.1-1kern1
 _ZN8casacore4SCSL7zdfft2dEiiidPSt7complexIdEiPdiS4_S4_i@Base 3.2.1-1kern1
 _ZN8casacore4SCSL7zdfft3dEiiiidPSt7complexIdEiiPdiiS4_S4_i@Base 3.2.1-1kern1
 _ZN8casacore4SCSL7zzfft2dEiiidPSt7complexIdEiS3_iPdS4_i@Base 3.2.1-1kern1
 _ZN8casacore4SCSL7zzfft3dEiiiidPSt7complexIdEiiS3_iiPdS4_i@Base 3.2.1-1kern1
 _ZN8casacore4atanISt7complexIdEEENS_8AutoDiffIT_EERKS5_@Base 3.2.1-1kern1
 _ZN8casacore4atanIdEENS_8AutoDiffIT_EERKS3_@Base 3.2.1-1kern1
 _ZN8casacore4ceilISt7complexIdEEENS_8AutoDiffIT_EERKS5_@Base 3.2.1-1kern1
 _ZN8casacore4ceilIdEENS_8AutoDiffIT_EERKS3_@Base 3.2.1-1kern1
 _ZN8casacore4conjERKNS_12SquareMatrixISt7complexIfELi2EEE@Base 3.2.1-1kern1
 _ZN8casacore4nearERKNS_12GaussianBeamES2_dRKNS_7QuantumIdEE@Base 3.2.1-1kern1
 _ZN8casacore4nearIdEEbRKNS_7QuantumIT_EES5_d@Base 3.2.1-1kern1
 _ZN8casacore4sqrtISt7complexIdEEENS_8AutoDiffIT_EERKS5_@Base 3.2.1-1kern1
 _ZN8casacore4sqrtIdEENS_8AutoDiffIT_EERKS3_@Base 3.2.1-1kern1
 _ZN8casacore5ArrayINS_6VectorIdEEE10assignBaseERKNS_9ArrayBaseEb@Base 3.2.1-1kern1
 _ZN8casacore5ArrayINS_6VectorIdEEE10getStorageERb@Base 3.2.1-1kern1
 _ZN8casacore5ArrayINS_6VectorIdEEE10putStorageERPS2_b@Base 3.2.1-1kern1
 _ZN8casacore5ArrayINS_6VectorIdEEE11getVStorageERb@Base 3.2.1-1kern1
 _ZN8casacore5ArrayINS_6VectorIdEEE11putVStorageERPvb@Base 3.2.1-1kern1
 _ZN8casacore5ArrayINS_6VectorIdEEE11takeStorageERKNS_9IPositionEPKS2_@Base 3.2.1-1kern1
 _ZN8casacore5ArrayINS_6VectorIdEEE11takeStorageERKNS_9IPositionEPKS2_RKNS_17AbstractAllocatorIS2_EE@Base 3.2.1-1kern1
 _ZN8casacore5ArrayINS_6VectorIdEEE11takeStorageERKNS_9IPositionEPS2_NS_17StorageInitPolicyE@Base 3.2.1-1kern1
 _ZN8casacore5ArrayINS_6VectorIdEEE11takeStorageERKNS_9IPositionEPS2_NS_17StorageInitPolicyERKNS_17AbstractAllocatorIS2_EE@Base 3.2.1-1kern1
 _ZN8casacore5ArrayINS_6VectorIdEEE14preTakeStorageERKNS_9IPositionE@Base 3.2.1-1kern1
 _ZN8casacore5ArrayINS_6VectorIdEEE15BaseIteratorSTL9incrementEv@Base 3.2.1-1kern1
 _ZN8casacore5ArrayINS_6VectorIdEEE15BaseIteratorSTLC1ERKS3_@Base 3.2.1-1kern1
 _ZN8casacore5ArrayINS_6VectorIdEEE15BaseIteratorSTLC2ERKS3_@Base 3.2.1-1kern1
 _ZN8casacore5ArrayINS_6VectorIdEEE15doNonDegenerateERKS3_RKNS_9IPositionE@Base 3.2.1-1kern1
 _ZN8casacore5ArrayINS_6VectorIdEEE15postTakeStorageEv@Base 3.2.1-1kern1
 _ZN8casacore5ArrayINS_6VectorIdEEE16copyMatchingPartERKS3_@Base 3.2.1-1kern1
 _ZN8casacore5ArrayINS_6VectorIdEEE23copyToContiguousStorageEPS2_RKS3_NS_15ArrayInitPolicyE@Base 3.2.1-1kern1
 _ZN8casacore5ArrayINS_6VectorIdEEE6assignERKS3_@Base 3.2.1-1kern1
 _ZN8casacore5ArrayINS_6VectorIdEEE6resizeERKNS_9IPositionEb@Base 3.2.1-1kern1
 _ZN8casacore5ArrayINS_6VectorIdEEE6resizeERKNS_9IPositionEbNS_15ArrayInitPolicyE@Base 3.2.1-1kern1
 _ZN8casacore5ArrayINS_6VectorIdEEE6resizeEv@Base 3.2.1-1kern1
 _ZN8casacore5ArrayINS_6VectorIdEEE9referenceERKS3_@Base 3.2.1-1kern1
 _ZN8casacore5ArrayINS_6VectorIdEEEC1ERKNS_9IPositionENS_15ArrayInitPolicyEPNS_17Allocator_private13BulkAllocatorIS2_EE@Base 3.2.1-1kern1
 _ZN8casacore5ArrayINS_6VectorIdEEEC1ERKS3_@Base 3.2.1-1kern1
 _ZN8casacore5ArrayINS_6VectorIdEEEC1Ev@Base 3.2.1-1kern1
 _ZN8casacore5ArrayINS_6VectorIdEEEC2ERKNS_9IPositionENS_15ArrayInitPolicyEPNS_17Allocator_private13BulkAllocatorIS2_EE@Base 3.2.1-1kern1
 _ZN8casacore5ArrayINS_6VectorIdEEEC2ERKS3_@Base 3.2.1-1kern1
 _ZN8casacore5ArrayINS_6VectorIdEEEC2Ev@Base 3.2.1-1kern1
 _ZN8casacore5ArrayINS_6VectorIdEEED0Ev@Base 3.2.1-1kern1
 _ZN8casacore5ArrayINS_6VectorIdEEED1Ev@Base 3.2.1-1kern1
 _ZN8casacore5ArrayINS_6VectorIdEEED2Ev@Base 3.2.1-1kern1
 _ZN8casacore5ArrayINS_6VectorIdEEEaSERKS3_@Base 3.2.1-1kern1
 _ZN8casacore5ArrayINS_6VectorIdEEEclERKNS_6SlicerE@Base 3.2.1-1kern1
 _ZN8casacore5ArrayINS_6VectorIdEEEclERKNS_9IPositionES6_@Base 3.2.1-1kern1
 _ZN8casacore5ArrayINS_6VectorIdEEEclERKNS_9IPositionES6_S6_@Base 3.2.1-1kern1
 _ZN8casacore5ArrayINS_7QuantumIdEEE10assignBaseERKNS_9ArrayBaseEb@Base 3.2.1-1kern1
 _ZN8casacore5ArrayINS_7QuantumIdEEE10getStorageERb@Base 3.2.1-1kern1
 _ZN8casacore5ArrayINS_7QuantumIdEEE10putStorageERPS2_b@Base 3.2.1-1kern1
 _ZN8casacore5ArrayINS_7QuantumIdEEE11getVStorageERb@Base 3.2.1-1kern1
 _ZN8casacore5ArrayINS_7QuantumIdEEE11putVStorageERPvb@Base 3.2.1-1kern1
 _ZN8casacore5ArrayINS_7QuantumIdEEE11takeStorageERKNS_9IPositionEPKS2_@Base 3.2.1-1kern1
 _ZN8casacore5ArrayINS_7QuantumIdEEE11takeStorageERKNS_9IPositionEPKS2_RKNS_17AbstractAllocatorIS2_EE@Base 3.2.1-1kern1
 _ZN8casacore5ArrayINS_7QuantumIdEEE11takeStorageERKNS_9IPositionEPS2_NS_17StorageInitPolicyE@Base 3.2.1-1kern1
 _ZN8casacore5ArrayINS_7QuantumIdEEE11takeStorageERKNS_9IPositionEPS2_NS_17StorageInitPolicyERKNS_17AbstractAllocatorIS2_EE@Base 3.2.1-1kern1
 _ZN8casacore5ArrayINS_7QuantumIdEEE14preTakeStorageERKNS_9IPositionE@Base 3.2.1-1kern1
 _ZN8casacore5ArrayINS_7QuantumIdEEE15BaseIteratorSTL9incrementEv@Base 3.2.1-1kern1
 _ZN8casacore5ArrayINS_7QuantumIdEEE15BaseIteratorSTLC1ERKS3_@Base 3.2.1-1kern1
 _ZN8casacore5ArrayINS_7QuantumIdEEE15BaseIteratorSTLC2ERKS3_@Base 3.2.1-1kern1
 _ZN8casacore5ArrayINS_7QuantumIdEEE15doNonDegenerateERKS3_RKNS_9IPositionE@Base 3.2.1-1kern1
 _ZN8casacore5ArrayINS_7QuantumIdEEE15postTakeStorageEv@Base 3.2.1-1kern1
 _ZN8casacore5ArrayINS_7QuantumIdEEE16copyMatchingPartERKS3_@Base 3.2.1-1kern1
 _ZN8casacore5ArrayINS_7QuantumIdEEE23copyToContiguousStorageEPS2_RKS3_NS_15ArrayInitPolicyE@Base 3.2.1-1kern1
 _ZN8casacore5ArrayINS_7QuantumIdEEE6assignERKS3_@Base 3.2.1-1kern1
 _ZN8casacore5ArrayINS_7QuantumIdEEE6resizeERKNS_9IPositionEb@Base 3.2.1-1kern1
 _ZN8casacore5ArrayINS_7QuantumIdEEE6resizeERKNS_9IPositionEbNS_15ArrayInitPolicyE@Base 3.2.1-1kern1
 _ZN8casacore5ArrayINS_7QuantumIdEEE6resizeEv@Base 3.2.1-1kern1
 _ZN8casacore5ArrayINS_7QuantumIdEEE9referenceERKS3_@Base 3.2.1-1kern1
 _ZN8casacore5ArrayINS_7QuantumIdEEEC1ERKNS_9IPositionENS_15ArrayInitPolicyEPNS_17Allocator_private13BulkAllocatorIS2_EE@Base 3.2.1-1kern1
 _ZN8casacore5ArrayINS_7QuantumIdEEEC1ERKS3_@Base 3.2.1-1kern1
 _ZN8casacore5ArrayINS_7QuantumIdEEEC1Ev@Base 3.2.1-1kern1
 _ZN8casacore5ArrayINS_7QuantumIdEEEC2ERKNS_9IPositionENS_15ArrayInitPolicyEPNS_17Allocator_private13BulkAllocatorIS2_EE@Base 3.2.1-1kern1
 _ZN8casacore5ArrayINS_7QuantumIdEEEC2ERKS3_@Base 3.2.1-1kern1
 _ZN8casacore5ArrayINS_7QuantumIdEEEC2Ev@Base 3.2.1-1kern1
 _ZN8casacore5ArrayINS_7QuantumIdEEED0Ev@Base 3.2.1-1kern1
 _ZN8casacore5ArrayINS_7QuantumIdEEED1Ev@Base 3.2.1-1kern1
 _ZN8casacore5ArrayINS_7QuantumIdEEED2Ev@Base 3.2.1-1kern1
 _ZN8casacore5ArrayINS_7QuantumIdEEEaSERKS3_@Base 3.2.1-1kern1
 _ZN8casacore5ArrayINS_7QuantumIdEEEclERKNS_6SlicerE@Base 3.2.1-1kern1
 _ZN8casacore5ArrayINS_7QuantumIdEEEclERKNS_9IPositionES6_@Base 3.2.1-1kern1
 _ZN8casacore5ArrayINS_7QuantumIdEEEclERKNS_9IPositionES6_S6_@Base 3.2.1-1kern1
 _ZN8casacore5ArrayINS_8AutoDiffISt7complexIdEEEE10assignBaseERKNS_9ArrayBaseEb@Base 3.2.1-1kern1
 _ZN8casacore5ArrayINS_8AutoDiffISt7complexIdEEEE10getStorageERb@Base 3.2.1-1kern1
 _ZN8casacore5ArrayINS_8AutoDiffISt7complexIdEEEE10putStorageERPS4_b@Base 3.2.1-1kern1
 _ZN8casacore5ArrayINS_8AutoDiffISt7complexIdEEEE11getVStorageERb@Base 3.2.1-1kern1
 _ZN8casacore5ArrayINS_8AutoDiffISt7complexIdEEEE11putVStorageERPvb@Base 3.2.1-1kern1
 _ZN8casacore5ArrayINS_8AutoDiffISt7complexIdEEEE11takeStorageERKNS_9IPositionEPKS4_@Base 3.2.1-1kern1
 _ZN8casacore5ArrayINS_8AutoDiffISt7complexIdEEEE11takeStorageERKNS_9IPositionEPKS4_RKNS_17AbstractAllocatorIS4_EE@Base 3.2.1-1kern1
 _ZN8casacore5ArrayINS_8AutoDiffISt7complexIdEEEE11takeStorageERKNS_9IPositionEPS4_NS_17StorageInitPolicyE@Base 3.2.1-1kern1
 _ZN8casacore5ArrayINS_8AutoDiffISt7complexIdEEEE11takeStorageERKNS_9IPositionEPS4_NS_17StorageInitPolicyERKNS_17AbstractAllocatorIS4_EE@Base 3.2.1-1kern1
 _ZN8casacore5ArrayINS_8AutoDiffISt7complexIdEEEE14preTakeStorageERKNS_9IPositionE@Base 3.2.1-1kern1
 _ZN8casacore5ArrayINS_8AutoDiffISt7complexIdEEEE15BaseIteratorSTL9incrementEv@Base 3.2.1-1kern1
 _ZN8casacore5ArrayINS_8AutoDiffISt7complexIdEEEE15BaseIteratorSTLC1ERKS5_@Base 3.2.1-1kern1
 _ZN8casacore5ArrayINS_8AutoDiffISt7complexIdEEEE15BaseIteratorSTLC2ERKS5_@Base 3.2.1-1kern1
 _ZN8casacore5ArrayINS_8AutoDiffISt7complexIdEEEE15doNonDegenerateERKS5_RKNS_9IPositionE@Base 3.2.1-1kern1
 _ZN8casacore5ArrayINS_8AutoDiffISt7complexIdEEEE15postTakeStorageEv@Base 3.2.1-1kern1
 _ZN8casacore5ArrayINS_8AutoDiffISt7complexIdEEEE16copyMatchingPartERKS5_@Base 3.2.1-1kern1
 _ZN8casacore5ArrayINS_8AutoDiffISt7complexIdEEEE23copyToContiguousStorageEPS4_RKS5_NS_15ArrayInitPolicyE@Base 3.2.1-1kern1
 _ZN8casacore5ArrayINS_8AutoDiffISt7complexIdEEEE6assignERKS5_@Base 3.2.1-1kern1
 _ZN8casacore5ArrayINS_8AutoDiffISt7complexIdEEEE6resizeERKNS_9IPositionEb@Base 3.2.1-1kern1
 _ZN8casacore5ArrayINS_8AutoDiffISt7complexIdEEEE6resizeERKNS_9IPositionEbNS_15ArrayInitPolicyE@Base 3.2.1-1kern1
 _ZN8casacore5ArrayINS_8AutoDiffISt7complexIdEEEE6resizeEv@Base 3.2.1-1kern1
 _ZN8casacore5ArrayINS_8AutoDiffISt7complexIdEEEE9referenceERKS5_@Base 3.2.1-1kern1
 _ZN8casacore5ArrayINS_8AutoDiffISt7complexIdEEEEC1ERKNS_9IPositionENS_15ArrayInitPolicyEPNS_17Allocator_private13BulkAllocatorIS4_EE@Base 3.2.1-1kern1
 _ZN8casacore5ArrayINS_8AutoDiffISt7complexIdEEEEC1ERKS5_@Base 3.2.1-1kern1
 _ZN8casacore5ArrayINS_8AutoDiffISt7complexIdEEEEC1Ev@Base 3.2.1-1kern1
 _ZN8casacore5ArrayINS_8AutoDiffISt7complexIdEEEEC2ERKNS_9IPositionENS_15ArrayInitPolicyEPNS_17Allocator_private13BulkAllocatorIS4_EE@Base 3.2.1-1kern1
 _ZN8casacore5ArrayINS_8AutoDiffISt7complexIdEEEEC2ERKS5_@Base 3.2.1-1kern1
 _ZN8casacore5ArrayINS_8AutoDiffISt7complexIdEEEEC2Ev@Base 3.2.1-1kern1
 _ZN8casacore5ArrayINS_8AutoDiffISt7complexIdEEEED0Ev@Base 3.2.1-1kern1
 _ZN8casacore5ArrayINS_8AutoDiffISt7complexIdEEEED1Ev@Base 3.2.1-1kern1
 _ZN8casacore5ArrayINS_8AutoDiffISt7complexIdEEEED2Ev@Base 3.2.1-1kern1
 _ZN8casacore5ArrayINS_8AutoDiffISt7complexIdEEEEaSERKS5_@Base 3.2.1-1kern1
 _ZN8casacore5ArrayINS_8AutoDiffISt7complexIdEEEEclERKNS_6SlicerE@Base 3.2.1-1kern1
 _ZN8casacore5ArrayINS_8AutoDiffISt7complexIdEEEEclERKNS_9IPositionES8_@Base 3.2.1-1kern1
 _ZN8casacore5ArrayINS_8AutoDiffISt7complexIdEEEEclERKNS_9IPositionES8_S8_@Base 3.2.1-1kern1
 _ZN8casacore5ArrayINS_8AutoDiffIdEEE10assignBaseERKNS_9ArrayBaseEb@Base 3.2.1-1kern1
 _ZN8casacore5ArrayINS_8AutoDiffIdEEE10getStorageERb@Base 3.2.1-1kern1
 _ZN8casacore5ArrayINS_8AutoDiffIdEEE10putStorageERPS2_b@Base 3.2.1-1kern1
 _ZN8casacore5ArrayINS_8AutoDiffIdEEE11getVStorageERb@Base 3.2.1-1kern1
 _ZN8casacore5ArrayINS_8AutoDiffIdEEE11putVStorageERPvb@Base 3.2.1-1kern1
 _ZN8casacore5ArrayINS_8AutoDiffIdEEE11takeStorageERKNS_9IPositionEPKS2_@Base 3.2.1-1kern1
 _ZN8casacore5ArrayINS_8AutoDiffIdEEE11takeStorageERKNS_9IPositionEPKS2_RKNS_17AbstractAllocatorIS2_EE@Base 3.2.1-1kern1
 _ZN8casacore5ArrayINS_8AutoDiffIdEEE11takeStorageERKNS_9IPositionEPS2_NS_17StorageInitPolicyE@Base 3.2.1-1kern1
 _ZN8casacore5ArrayINS_8AutoDiffIdEEE11takeStorageERKNS_9IPositionEPS2_NS_17StorageInitPolicyERKNS_17AbstractAllocatorIS2_EE@Base 3.2.1-1kern1
 _ZN8casacore5ArrayINS_8AutoDiffIdEEE14preTakeStorageERKNS_9IPositionE@Base 3.2.1-1kern1
 _ZN8casacore5ArrayINS_8AutoDiffIdEEE15BaseIteratorSTL9incrementEv@Base 3.2.1-1kern1
 _ZN8casacore5ArrayINS_8AutoDiffIdEEE15BaseIteratorSTLC1ERKS3_@Base 3.2.1-1kern1
 _ZN8casacore5ArrayINS_8AutoDiffIdEEE15BaseIteratorSTLC2ERKS3_@Base 3.2.1-1kern1
 _ZN8casacore5ArrayINS_8AutoDiffIdEEE15doNonDegenerateERKS3_RKNS_9IPositionE@Base 3.2.1-1kern1
 _ZN8casacore5ArrayINS_8AutoDiffIdEEE15postTakeStorageEv@Base 3.2.1-1kern1
 _ZN8casacore5ArrayINS_8AutoDiffIdEEE16copyMatchingPartERKS3_@Base 3.2.1-1kern1
 _ZN8casacore5ArrayINS_8AutoDiffIdEEE23copyToContiguousStorageEPS2_RKS3_NS_15ArrayInitPolicyE@Base 3.2.1-1kern1
 _ZN8casacore5ArrayINS_8AutoDiffIdEEE6assignERKS3_@Base 3.2.1-1kern1
 _ZN8casacore5ArrayINS_8AutoDiffIdEEE6resizeERKNS_9IPositionEb@Base 3.2.1-1kern1
 _ZN8casacore5ArrayINS_8AutoDiffIdEEE6resizeERKNS_9IPositionEbNS_15ArrayInitPolicyE@Base 3.2.1-1kern1
 _ZN8casacore5ArrayINS_8AutoDiffIdEEE6resizeEv@Base 3.2.1-1kern1
 _ZN8casacore5ArrayINS_8AutoDiffIdEEE9referenceERKS3_@Base 3.2.1-1kern1
 _ZN8casacore5ArrayINS_8AutoDiffIdEEEC1ERKNS_9IPositionENS_15ArrayInitPolicyEPNS_17Allocator_private13BulkAllocatorIS2_EE@Base 3.2.1-1kern1
 _ZN8casacore5ArrayINS_8AutoDiffIdEEEC1ERKS3_@Base 3.2.1-1kern1
 _ZN8casacore5ArrayINS_8AutoDiffIdEEEC1Ev@Base 3.2.1-1kern1
 _ZN8casacore5ArrayINS_8AutoDiffIdEEEC2ERKNS_9IPositionENS_15ArrayInitPolicyEPNS_17Allocator_private13BulkAllocatorIS2_EE@Base 3.2.1-1kern1
 _ZN8casacore5ArrayINS_8AutoDiffIdEEEC2ERKS3_@Base 3.2.1-1kern1
 _ZN8casacore5ArrayINS_8AutoDiffIdEEEC2Ev@Base 3.2.1-1kern1
 _ZN8casacore5ArrayINS_8AutoDiffIdEEED0Ev@Base 3.2.1-1kern1
 _ZN8casacore5ArrayINS_8AutoDiffIdEEED1Ev@Base 3.2.1-1kern1
 _ZN8casacore5ArrayINS_8AutoDiffIdEEED2Ev@Base 3.2.1-1kern1
 _ZN8casacore5ArrayINS_8AutoDiffIdEEEaSERKS3_@Base 3.2.1-1kern1
 _ZN8casacore5ArrayINS_8AutoDiffIdEEEclERKNS_6SlicerE@Base 3.2.1-1kern1
 _ZN8casacore5ArrayINS_8AutoDiffIdEEEclERKNS_9IPositionES6_@Base 3.2.1-1kern1
 _ZN8casacore5ArrayINS_8AutoDiffIdEEEclERKNS_9IPositionES6_S6_@Base 3.2.1-1kern1
 _ZN8casacore5BlockINS_6VectorIdEEE4initENS_15ArrayInitPolicyE@Base 3.2.1-1kern1
 _ZN8casacore5BlockINS_6VectorIdEEE6deinitEv@Base 3.2.1-1kern1
 _ZN8casacore5BlockINS_7QuantumIdEEE6deinitEv@Base 3.2.1-1kern1
 _ZN8casacore5BlockINS_7QuantumIdEEE7deallocEv@Base 3.2.1-1kern1
 _ZN8casacore5BlockINS_8AutoDiffISt7complexIdEEEE4initENS_15ArrayInitPolicyE@Base 3.2.1-1kern1
 _ZN8casacore5BlockINS_8AutoDiffISt7complexIdEEEE6deinitEv@Base 3.2.1-1kern1
 _ZN8casacore5BlockINS_8AutoDiffIdEEE4initENS_15ArrayInitPolicyE@Base 3.2.1-1kern1
 _ZN8casacore5BlockINS_8AutoDiffIdEEE6deinitEv@Base 3.2.1-1kern1
 _ZN8casacore5BlockINS_8AutoDiffIdEEE7deallocEv@Base 3.2.1-1kern1
 _ZN8casacore5Mutex6unlockEv@Base 3.2.1-1kern1
 _ZN8casacore5floorISt7complexIdEEENS_8AutoDiffIT_EERKS5_@Base 3.2.1-1kern1
 _ZN8casacore5floorIdEENS_8AutoDiffIT_EERKS3_@Base 3.2.1-1kern1
 _ZN8casacore5sphfnEiif@Base 3.2.1-1kern1
 _ZN8casacore6LSQFit10createNCEQEv@Base 3.2.1-1kern1
 _ZN8casacore6LSQFit10fromAipsIOERNS_6AipsIOE@Base 3.2.1-1kern1
 _ZN8casacore6LSQFit10fromRecordERNS_6StringERKNS_15RecordInterfaceE@Base 3.2.1-1kern1
 _ZN8casacore6LSQFit10getWorkCOVEv@Base 3.2.1-1kern1
 _ZN8casacore6LSQFit10getWorkSOLEv@Base 3.2.1-1kern1
 _ZN8casacore6LSQFit10invertRectEv@Base 3.2.1-1kern1
 _ZN8casacore6LSQFit11solveItLoopERdRjb@Base 3.2.1-1kern1
 _ZN8casacore6LSQFit13getCovarianceIdEEbPT_@Base 3.2.1-1kern1
 _ZN8casacore6LSQFit13setConstraintIdNS_17VectorSTLIteratorISt7complexIdEEEEEbjRKT0_RKS3_IT_E@Base 3.2.1-1kern1
 _ZN8casacore6LSQFit17extendConstraintsEj@Base 3.2.1-1kern1
 _ZN8casacore6LSQFit3larE@Base 3.2.1-1kern1
 _ZN8casacore6LSQFit3narE@Base 3.2.1-1kern1
 _ZN8casacore6LSQFit3nncE@Base 3.2.1-1kern1
 _ZN8casacore6LSQFit3nunE@Base 3.2.1-1kern1
 _ZN8casacore6LSQFit3pivE@Base 3.2.1-1kern1
 _ZN8casacore6LSQFit3setEdd@Base 3.2.1-1kern1
 _ZN8casacore6LSQFit3setEjRKNS_10LSQComplexEj@Base 3.2.1-1kern1
 _ZN8casacore6LSQFit3setEjj@Base 3.2.1-1kern1
 _ZN8casacore6LSQFit3solE@Base 3.2.1-1kern1
 _ZN8casacore6LSQFit4REALE@Base 3.2.1-1kern1
 _ZN8casacore6LSQFit4copyERKS0_b@Base 3.2.1-1kern1
 _ZN8casacore6LSQFit4initEv@Base 3.2.1-1kern1
 _ZN8casacore6LSQFit4nceqE@Base 3.2.1-1kern1
 _ZN8casacore6LSQFit4nconE@Base 3.2.1-1kern1
 _ZN8casacore6LSQFit4precE@Base 3.2.1-1kern1
 _ZN8casacore6LSQFit4rankE@Base 3.2.1-1kern1
 _ZN8casacore6LSQFit4saveEb@Base 3.2.1-1kern1
 _ZN8casacore6LSQFit4wcovE@Base 3.2.1-1kern1
 _ZN8casacore6LSQFit4wsolE@Base 3.2.1-1kern1
 _ZN8casacore6LSQFit5clearEv@Base 3.2.1-1kern1
 _ZN8casacore6LSQFit5knownE@Base 3.2.1-1kern1
 _ZN8casacore6LSQFit5mergeERKS0_@Base 3.2.1-1kern1
 _ZN8casacore6LSQFit5recidE@Base 3.2.1-1kern1
 _ZN8casacore6LSQFit5resetEv@Base 3.2.1-1kern1
 _ZN8casacore6LSQFit5stateE@Base 3.2.1-1kern1
 _ZN8casacore6LSQFit6ASREALE@Base 3.2.1-1kern1
 _ZN8casacore6LSQFit6constrE@Base 3.2.1-1kern1
 _ZN8casacore6LSQFit6deinitEv@Base 3.2.1-1kern1
 _ZN8casacore6LSQFit6errorsE@Base 3.2.1-1kern1
 _ZN8casacore6LSQFit6invertERjb@Base 3.2.1-1kern1
 _ZN8casacore6LSQFit6nonlinE@Base 3.2.1-1kern1
 _ZN8casacore6LSQFit7COMPLEXE@Base 3.2.1-1kern1
 _ZN8casacore6LSQFit7mergeItERKS0_jPKj@Base 3.2.1-1kern1
 _ZN8casacore6LSQFit7restoreEb@Base 3.2.1-1kern1
 _ZN8casacore6LSQFit7solveItEv@Base 3.2.1-1kern1
 _ZN8casacore6LSQFit7solveMREj@Base 3.2.1-1kern1
 _ZN8casacore6LSQFit8makeNormIdNS_17VectorSTLIteratorISt7complexIdEEEEEvRKT0_RKT_RKS3_IS9_Ebb@Base 3.2.1-1kern1
 _ZN8casacore6LSQFit8startnonE@Base 3.2.1-1kern1
 _ZN8casacore6LSQFit9CONJUGATEE@Base 3.2.1-1kern1
 _ZN8casacore6LSQFit9SEPARABLEE@Base 3.2.1-1kern1
 _ZN8casacore6LSQFit9getErrorsIdEEbPSt7complexIT_E@Base 3.2.1-1kern1
 _ZN8casacore6LSQFitC1ERKS0_@Base 3.2.1-1kern1
 _ZN8casacore6LSQFitC1EjRKNS_10LSQComplexEj@Base 3.2.1-1kern1
 _ZN8casacore6LSQFitC1EjRKNS_7LSQRealEj@Base 3.2.1-1kern1
 _ZN8casacore6LSQFitC1Ejj@Base 3.2.1-1kern1
 _ZN8casacore6LSQFitC1Ev@Base 3.2.1-1kern1
 _ZN8casacore6LSQFitC2ERKS0_@Base 3.2.1-1kern1
 _ZN8casacore6LSQFitC2EjRKNS_10LSQComplexEj@Base 3.2.1-1kern1
 _ZN8casacore6LSQFitC2EjRKNS_7LSQRealEj@Base 3.2.1-1kern1
 _ZN8casacore6LSQFitC2Ejj@Base 3.2.1-1kern1
 _ZN8casacore6LSQFitC2Ev@Base 3.2.1-1kern1
 _ZN8casacore6LSQFitD1Ev@Base 3.2.1-1kern1
 _ZN8casacore6LSQFitD2Ev@Base 3.2.1-1kern1
 _ZN8casacore6LSQFitaSERKS0_@Base 3.2.1-1kern1
 _ZN8casacore6String8toStringINS_14StatisticsData5STATSEEES0_RKT_@Base 3.2.1-1kern1
 _ZN8casacore6StringD1Ev@Base 3.2.1-1kern1
 _ZN8casacore6StringD2Ev@Base 3.2.1-1kern1
 _ZN8casacore6VectorINS0_IdEEE14preTakeStorageERKNS_9IPositionE@Base 3.2.1-1kern1
 _ZN8casacore6VectorINS0_IdEEE15doNonDegenerateERKNS_5ArrayIS1_EERKNS_9IPositionE@Base 3.2.1-1kern1
 _ZN8casacore6VectorINS0_IdEEE6assignERKNS_5ArrayIS1_EE@Base 3.2.1-1kern1
 _ZN8casacore6VectorINS0_IdEEE6resizeERKNS_9IPositionEbNS_15ArrayInitPolicyE@Base 3.2.1-1kern1
 _ZN8casacore6VectorINS0_IdEEE6resizeEv@Base 3.2.1-1kern1
 _ZN8casacore6VectorINS0_IdEEE9referenceERKNS_5ArrayIS1_EE@Base 3.2.1-1kern1
 _ZN8casacore6VectorINS0_IdEEEC1Em@Base 3.2.1-1kern1
 _ZN8casacore6VectorINS0_IdEEEC2Em@Base 3.2.1-1kern1
 _ZN8casacore6VectorINS0_IdEEED0Ev@Base 3.2.1-1kern1
 _ZN8casacore6VectorINS0_IdEEED1Ev@Base 3.2.1-1kern1
 _ZN8casacore6VectorINS0_IdEEED2Ev@Base 3.2.1-1kern1
 _ZN8casacore6VectorINS0_IdEEEaSERKNS_5ArrayIS1_EE@Base 3.2.1-1kern1
 _ZN8casacore6VectorINS0_IdEEEaSERKS2_@Base 3.2.1-1kern1
 _ZN8casacore6VectorINS_7QuantumIdEEE14preTakeStorageERKNS_9IPositionE@Base 3.2.1-1kern1
 _ZN8casacore6VectorINS_7QuantumIdEEE15doNonDegenerateERKNS_5ArrayIS2_EERKNS_9IPositionE@Base 3.2.1-1kern1
 _ZN8casacore6VectorINS_7QuantumIdEEE6assignERKNS_5ArrayIS2_EE@Base 3.2.1-1kern1
 _ZN8casacore6VectorINS_7QuantumIdEEE6resizeERKNS_9IPositionEbNS_15ArrayInitPolicyE@Base 3.2.1-1kern1
 _ZN8casacore6VectorINS_7QuantumIdEEE6resizeEv@Base 3.2.1-1kern1
 _ZN8casacore6VectorINS_7QuantumIdEEE9referenceERKNS_5ArrayIS2_EE@Base 3.2.1-1kern1
 _ZN8casacore6VectorINS_7QuantumIdEEED0Ev@Base 3.2.1-1kern1
 _ZN8casacore6VectorINS_7QuantumIdEEED1Ev@Base 3.2.1-1kern1
 _ZN8casacore6VectorINS_7QuantumIdEEED2Ev@Base 3.2.1-1kern1
 _ZN8casacore6VectorINS_7QuantumIdEEEaSERKNS_5ArrayIS2_EE@Base 3.2.1-1kern1
 _ZN8casacore6VectorINS_7QuantumIdEEEaSERKS3_@Base 3.2.1-1kern1
 _ZN8casacore6VectorINS_8AutoDiffISt7complexIdEEEE14preTakeStorageERKNS_9IPositionE@Base 3.2.1-1kern1
 _ZN8casacore6VectorINS_8AutoDiffISt7complexIdEEEE15doNonDegenerateERKNS_5ArrayIS4_EERKNS_9IPositionE@Base 3.2.1-1kern1
 _ZN8casacore6VectorINS_8AutoDiffISt7complexIdEEEE6assignERKNS_5ArrayIS4_EE@Base 3.2.1-1kern1
 _ZN8casacore6VectorINS_8AutoDiffISt7complexIdEEEE6resizeERKNS_9IPositionEbNS_15ArrayInitPolicyE@Base 3.2.1-1kern1
 _ZN8casacore6VectorINS_8AutoDiffISt7complexIdEEEE6resizeEv@Base 3.2.1-1kern1
 _ZN8casacore6VectorINS_8AutoDiffISt7complexIdEEEE9referenceERKNS_5ArrayIS4_EE@Base 3.2.1-1kern1
 _ZN8casacore6VectorINS_8AutoDiffISt7complexIdEEEEC1Em@Base 3.2.1-1kern1
 _ZN8casacore6VectorINS_8AutoDiffISt7complexIdEEEEC2Em@Base 3.2.1-1kern1
 _ZN8casacore6VectorINS_8AutoDiffISt7complexIdEEEED0Ev@Base 3.2.1-1kern1
 _ZN8casacore6VectorINS_8AutoDiffISt7complexIdEEEED1Ev@Base 3.2.1-1kern1
 _ZN8casacore6VectorINS_8AutoDiffISt7complexIdEEEED2Ev@Base 3.2.1-1kern1
 _ZN8casacore6VectorINS_8AutoDiffISt7complexIdEEEEaSERKNS_5ArrayIS4_EE@Base 3.2.1-1kern1
 _ZN8casacore6VectorINS_8AutoDiffISt7complexIdEEEEaSERKS5_@Base 3.2.1-1kern1
 _ZN8casacore6VectorINS_8AutoDiffIdEEE14preTakeStorageERKNS_9IPositionE@Base 3.2.1-1kern1
 _ZN8casacore6VectorINS_8AutoDiffIdEEE15doNonDegenerateERKNS_5ArrayIS2_EERKNS_9IPositionE@Base 3.2.1-1kern1
 _ZN8casacore6VectorINS_8AutoDiffIdEEE6assignERKNS_5ArrayIS2_EE@Base 3.2.1-1kern1
 _ZN8casacore6VectorINS_8AutoDiffIdEEE6resizeERKNS_9IPositionEbNS_15ArrayInitPolicyE@Base 3.2.1-1kern1
 _ZN8casacore6VectorINS_8AutoDiffIdEEE6resizeEv@Base 3.2.1-1kern1
 _ZN8casacore6VectorINS_8AutoDiffIdEEE9referenceERKNS_5ArrayIS2_EE@Base 3.2.1-1kern1
 _ZN8casacore6VectorINS_8AutoDiffIdEEEC1Em@Base 3.2.1-1kern1
 _ZN8casacore6VectorINS_8AutoDiffIdEEEC2Em@Base 3.2.1-1kern1
 _ZN8casacore6VectorINS_8AutoDiffIdEEED0Ev@Base 3.2.1-1kern1
 _ZN8casacore6VectorINS_8AutoDiffIdEEED1Ev@Base 3.2.1-1kern1
 _ZN8casacore6VectorINS_8AutoDiffIdEEED2Ev@Base 3.2.1-1kern1
 _ZN8casacore6VectorINS_8AutoDiffIdEEEaSERKNS_5ArrayIS2_EE@Base 3.2.1-1kern1
 _ZN8casacore6VectorINS_8AutoDiffIdEEEaSERKS3_@Base 3.2.1-1kern1
 _ZN8casacore6indgenIjEEvRNS_5ArrayIT_EES2_S2_@Base 3.2.1-1kern1
 _ZN8casacore7FFTPack4costEiPdS1_@Base 3.2.1-1kern1
 _ZN8casacore7FFTPack4costEiPfS1_@Base 3.2.1-1kern1
 _ZN8casacore7FFTPack4sintEiPdS1_@Base 3.2.1-1kern1
 _ZN8casacore7FFTPack4sintEiPfS1_@Base 3.2.1-1kern1
 _ZN8casacore7FFTPack5cfftbEiPSt7complexIdEPd@Base 3.2.1-1kern1
 _ZN8casacore7FFTPack5cfftbEiPSt7complexIfEPf@Base 3.2.1-1kern1
 _ZN8casacore7FFTPack5cfftfEiPSt7complexIdEPd@Base 3.2.1-1kern1
 _ZN8casacore7FFTPack5cfftfEiPSt7complexIfEPf@Base 3.2.1-1kern1
 _ZN8casacore7FFTPack5cfftiEiPd@Base 3.2.1-1kern1
 _ZN8casacore7FFTPack5cfftiEiPf@Base 3.2.1-1kern1
 _ZN8casacore7FFTPack5cosqbEiPdS1_@Base 3.2.1-1kern1
 _ZN8casacore7FFTPack5cosqbEiPfS1_@Base 3.2.1-1kern1
 _ZN8casacore7FFTPack5cosqfEiPdS1_@Base 3.2.1-1kern1
 _ZN8casacore7FFTPack5cosqfEiPfS1_@Base 3.2.1-1kern1
 _ZN8casacore7FFTPack5cosqiEiPd@Base 3.2.1-1kern1
 _ZN8casacore7FFTPack5cosqiEiPf@Base 3.2.1-1kern1
 _ZN8casacore7FFTPack5costiEiPd@Base 3.2.1-1kern1
 _ZN8casacore7FFTPack5costiEiPf@Base 3.2.1-1kern1
 _ZN8casacore7FFTPack5rfftbEiPdS1_@Base 3.2.1-1kern1
 _ZN8casacore7FFTPack5rfftbEiPfS1_@Base 3.2.1-1kern1
 _ZN8casacore7FFTPack5rfftfEiPdS1_@Base 3.2.1-1kern1
 _ZN8casacore7FFTPack5rfftfEiPfS1_@Base 3.2.1-1kern1
 _ZN8casacore7FFTPack5rfftiEiPd@Base 3.2.1-1kern1
 _ZN8casacore7FFTPack5rfftiEiPf@Base 3.2.1-1kern1
 _ZN8casacore7FFTPack5sinqbEiPdS1_@Base 3.2.1-1kern1
 _ZN8casacore7FFTPack5sinqbEiPfS1_@Base 3.2.1-1kern1
 _ZN8casacore7FFTPack5sinqfEiPdS1_@Base 3.2.1-1kern1
 _ZN8casacore7FFTPack5sinqfEiPfS1_@Base 3.2.1-1kern1
 _ZN8casacore7FFTPack5sinqiEiPd@Base 3.2.1-1kern1
 _ZN8casacore7FFTPack5sinqiEiPf@Base 3.2.1-1kern1
 _ZN8casacore7FFTPack5sintiEiPd@Base 3.2.1-1kern1
 _ZN8casacore7FFTPack5sintiEiPf@Base 3.2.1-1kern1
 _ZN8casacore7FFTPack6cfft2bERKiS2_S2_RPSt7complexIfERPfS2_S8_S2_Ri@Base 3.2.1-1kern1
 _ZN8casacore7FFTPack6cfft2fERKiS2_S2_RPSt7complexIfERPfS2_S8_S2_Ri@Base 3.2.1-1kern1
 _ZN8casacore7FFTPack6cfft2iERKiS2_RPfS2_Ri@Base 3.2.1-1kern1
 _ZN8casacore7FFTPack6ezfftbEiPfS1_S1_S1_S1_@Base 3.2.1-1kern1
 _ZN8casacore7FFTPack6ezfftfEiPfS1_S1_S1_S1_@Base 3.2.1-1kern1
 _ZN8casacore7FFTPack6ezfftiEiPf@Base 3.2.1-1kern1
 _ZN8casacore7GenSortIjE7reverseEPjPKjj@Base 3.2.1-1kern1
 _ZN8casacore7LSQaips13getCovarianceISt7complexIdEEEbRNS_5ArrayIT_EE@Base 3.2.1-1kern1
 _ZN8casacore7assert_INS_9AipsErrorEEC1EiPKcS4_i@Base 3.2.1-1kern1
 _ZN8casacore7assert_INS_9AipsErrorEEC2EiPKcS4_i@Base 3.2.1-1kern1
 _ZN8casacore7nearAbsIdEEbRKNS_7QuantumIT_EES5_S5_@Base 3.2.1-1kern1
 _ZN8casacore7objcopyINS_6VectorIdEEEEvPT_PKS3_m@Base 3.2.1-1kern1
 _ZN8casacore7objcopyINS_6VectorIdEEEEvPT_PKS3_mmm@Base 3.2.1-1kern1
 _ZN8casacore7objcopyINS_7QuantumIdEEEEvPT_PKS3_m@Base 3.2.1-1kern1
 _ZN8casacore7objcopyINS_7QuantumIdEEEEvPT_PKS3_mmm@Base 3.2.1-1kern1
 _ZN8casacore7objcopyINS_8AutoDiffISt7complexIdEEEEEvPT_PKS5_m@Base 3.2.1-1kern1
 _ZN8casacore7objcopyINS_8AutoDiffISt7complexIdEEEEEvPT_PKS5_mmm@Base 3.2.1-1kern1
 _ZN8casacore7objcopyINS_8AutoDiffIdEEEEvPT_PKS3_m@Base 3.2.1-1kern1
 _ZN8casacore7objcopyINS_8AutoDiffIdEEEEvPT_PKS3_mmm@Base 3.2.1-1kern1
 _ZN8casacore7objcopyISt7complexIdEEEvPT_PKS3_m@Base 3.2.1-1kern1
 _ZN8casacore7objcopyISt7complexIdEEEvPT_PKS3_mmm@Base 3.2.1-1kern1
 _ZN8casacore7objcopyISt7complexIfEEEvPT_PKS3_m@Base 3.2.1-1kern1
 _ZN8casacore7objcopyISt7complexIfEEEvPT_PKS3_mmm@Base 3.2.1-1kern1
 _ZN8casacore7objcopyIdEEvPT_PKS1_m@Base 3.2.1-1kern1
 _ZN8casacore7objcopyIdEEvPT_PKS1_mmm@Base 3.2.1-1kern1
 _ZN8casacore7objcopyIfEEvPT_PKS1_m@Base 3.2.1-1kern1
 _ZN8casacore7objcopyIfEEvPT_PKS1_mmm@Base 3.2.1-1kern1
 _ZN8casacore7productIfEENS_6VectorIT_EERKNS_6MatrixIS2_EERKS3_@Base 3.2.1-1kern1
 _ZN8casacore8AutoDiffISt7complexIdEEC1ERKS2_j@Base 3.2.1-1kern1
 _ZN8casacore8AutoDiffISt7complexIdEEC1ERKS2_jj@Base 3.2.1-1kern1
 _ZN8casacore8AutoDiffISt7complexIdEEC1ERKS3_@Base 3.2.1-1kern1
 _ZN8casacore8AutoDiffISt7complexIdEEC2ERKS2_j@Base 3.2.1-1kern1
 _ZN8casacore8AutoDiffISt7complexIdEEC2ERKS2_jj@Base 3.2.1-1kern1
 _ZN8casacore8AutoDiffISt7complexIdEEC2ERKS3_@Base 3.2.1-1kern1
 _ZN8casacore8AutoDiffISt7complexIdEEdVERKS3_@Base 3.2.1-1kern1
 _ZN8casacore8AutoDiffISt7complexIdEEmIERKS3_@Base 3.2.1-1kern1
 _ZN8casacore8AutoDiffISt7complexIdEEmLERKS3_@Base 3.2.1-1kern1
 _ZN8casacore8AutoDiffISt7complexIdEEpLERKS3_@Base 3.2.1-1kern1
 _ZN8casacore8AutoDiffIdEC1ERKS1_@Base 3.2.1-1kern1
 _ZN8casacore8AutoDiffIdEC1ERKdj@Base 3.2.1-1kern1
 _ZN8casacore8AutoDiffIdEC1ERKdjj@Base 3.2.1-1kern1
 _ZN8casacore8AutoDiffIdEC2ERKS1_@Base 3.2.1-1kern1
 _ZN8casacore8AutoDiffIdEC2ERKdj@Base 3.2.1-1kern1
 _ZN8casacore8AutoDiffIdEC2ERKdjj@Base 3.2.1-1kern1
 _ZN8casacore8AutoDiffIdEdVERKS1_@Base 3.2.1-1kern1
 _ZN8casacore8AutoDiffIdEmIERKS1_@Base 3.2.1-1kern1
 _ZN8casacore8AutoDiffIdEmLERKS1_@Base 3.2.1-1kern1
 _ZN8casacore8AutoDiffIdEpLERKS1_@Base 3.2.1-1kern1
 _ZN8casacore8FunctionINS_8AutoDiffISt7complexIdEEES4_E7setModeERKNS_15RecordInterfaceE@Base 3.2.1-1kern1
 _ZN8casacore8FunctionINS_8AutoDiffISt7complexIdEEES4_EC1Ej@Base 3.2.1-1kern1
 _ZN8casacore8FunctionINS_8AutoDiffISt7complexIdEEES4_EC2Ej@Base 3.2.1-1kern1
 _ZN8casacore8FunctionINS_8AutoDiffIdEES2_E7setModeERKNS_15RecordInterfaceE@Base 3.2.1-1kern1
 _ZN8casacore8FunctionINS_8AutoDiffIdEES2_EC1Ej@Base 3.2.1-1kern1
 _ZN8casacore8FunctionINS_8AutoDiffIdEES2_EC2Ej@Base 3.2.1-1kern1
 _ZN8casacore8FunctionISt7complexIdES2_E7setModeERKNS_15RecordInterfaceE@Base 3.2.1-1kern1
 _ZN8casacore8FunctionISt7complexIdES2_EC1Ej@Base 3.2.1-1kern1
 _ZN8casacore8FunctionISt7complexIdES2_EC2Ej@Base 3.2.1-1kern1
 _ZN8casacore8FunctionIddE7setModeERKNS_15RecordInterfaceE@Base 3.2.1-1kern1
 _ZN8casacore8FunctionIddEC1Ej@Base 3.2.1-1kern1
 _ZN8casacore8FunctionIddEC2Ej@Base 3.2.1-1kern1
 _ZN8casacore8Geometry23doLineSegmentsIntersectEdddddddd@Base 3.2.1-1kern1
 _ZN8casacore8Geometry8rotate2DEddRKNS_7QuantumIdEE@Base 3.2.1-1kern1
 _ZN8casacore8VanVleck10theirMutexE@Base 3.2.1-1kern1
 _ZN8casacore8VanVleck10threshNgt3Eid@Base 3.2.1-1kern1
 _ZN8casacore8VanVleck11predictNgt3Eid@Base 3.2.1-1kern1
 _ZN8casacore8VanVleck13itsEquiSpacedE@Base 3.2.1-1kern1
 _ZN8casacore8VanVleck13setEquiSpacedEddddi@Base 3.2.1-1kern1
 _ZN8casacore8VanVleck14itsQx1Qy1diffsE@Base 3.2.1-1kern1
 _ZN8casacore8VanVleck15setQuantizationERKNS_6MatrixIdEES4_@Base 3.2.1-1kern1
 _ZN8casacore8VanVleck16initInterpolatorEv@Base 3.2.1-1kern1
 _ZN8casacore8VanVleck1rEd@Base 3.2.1-1kern1
 _ZN8casacore8VanVleck4rincERdS1_@Base 3.2.1-1kern1
 _ZN8casacore8VanVleck4sizeEj@Base 3.2.1-1kern1
 _ZN8casacore8VanVleck5dcoffERdS1_idd@Base 3.2.1-1kern1
 _ZN8casacore8VanVleck5itsNxE@Base 3.2.1-1kern1
 _ZN8casacore8VanVleck5itsNyE@Base 3.2.1-1kern1
 _ZN8casacore8VanVleck6dcoff3ERdS1_dd@Base 3.2.1-1kern1
 _ZN8casacore8VanVleck6invErfEd@Base 3.2.1-1kern1
 _ZN8casacore8VanVleck6itsQx0E@Base 3.2.1-1kern1
 _ZN8casacore8VanVleck6itsQx1E@Base 3.2.1-1kern1
 _ZN8casacore8VanVleck6itsQy0E@Base 3.2.1-1kern1
 _ZN8casacore8VanVleck6itsQy1E@Base 3.2.1-1kern1
 _ZN8casacore8VanVleck7getsizeEv@Base 3.2.1-1kern1
 _ZN8casacore8VanVleck7invErfcEd@Base 3.2.1-1kern1
 _ZN8casacore8VanVleck7itsSizeE@Base 3.2.1-1kern1
 _ZN8casacore8VanVleck7itsXlevE@Base 3.2.1-1kern1
 _ZN8casacore8VanVleck7itsYlevE@Base 3.2.1-1kern1
 _ZN8casacore8VanVleck8drbydrhoEPd@Base 3.2.1-1kern1
 _ZN8casacore8VanVleck8getTableERNS_6VectorIdEES3_@Base 3.2.1-1kern1
 _ZN8casacore8VanVleck8itsXmeanE@Base 3.2.1-1kern1
 _ZN8casacore8VanVleck8itsYmeanE@Base 3.2.1-1kern1
 _ZN8casacore8VanVleck9itsInterpE@Base 3.2.1-1kern1
 _ZN8casacore8VanVleck9itsQx0Qx0E@Base 3.2.1-1kern1
 _ZN8casacore8VanVleck9itsQx0Qy0E@Base 3.2.1-1kern1
 _ZN8casacore8VanVleck9itsQy0Qy0E@Base 3.2.1-1kern1
 _ZN8casacore8getArrayINS_6StringEEEvRNS_5ArrayIT_EEiRKNS_6RecordERKS1_@Base 3.2.1-1kern1
 _ZN8casacore8getArrayISt7complexIdEEEvRNS_5ArrayIT_EEiRKNS_6RecordERKNS_6StringE@Base 3.2.1-1kern1
 _ZN8casacore8getArrayISt7complexIfEEEvRNS_5ArrayIT_EEiRKNS_6RecordERKNS_6StringE@Base 3.2.1-1kern1
 _ZN8casacore8getArrayIbEEvRNS_5ArrayIT_EEiRKNS_6RecordERKNS_6StringE@Base 3.2.1-1kern1
 _ZN8casacore8getArrayIdEEvRNS_5ArrayIT_EEiRKNS_6RecordERKNS_6StringE@Base 3.2.1-1kern1
 _ZN8casacore8getArrayIfEEvRNS_5ArrayIT_EEiRKNS_6RecordERKNS_6StringE@Base 3.2.1-1kern1
 _ZN8casacore8getArrayIiEEvRNS_5ArrayIT_EEiRKNS_6RecordERKNS_6StringE@Base 3.2.1-1kern1
 _ZN8casacore8getArrayIsEEvRNS_5ArrayIT_EEiRKNS_6RecordERKNS_6StringE@Base 3.2.1-1kern1
 _ZN8casacore9ChebyshevINS_8AutoDiffISt7complexIdEEEED0Ev@Base 3.2.1-1kern1
 _ZN8casacore9ChebyshevINS_8AutoDiffISt7complexIdEEEED1Ev@Base 3.2.1-1kern1
 _ZN8casacore9ChebyshevINS_8AutoDiffISt7complexIdEEEED2Ev@Base 3.2.1-1kern1
 _ZN8casacore9ChebyshevINS_8AutoDiffIdEEED0Ev@Base 3.2.1-1kern1
 _ZN8casacore9ChebyshevINS_8AutoDiffIdEEED1Ev@Base 3.2.1-1kern1
 _ZN8casacore9ChebyshevINS_8AutoDiffIdEEED2Ev@Base 3.2.1-1kern1
 _ZN8casacore9ChebyshevISt7complexIdEED0Ev@Base 3.2.1-1kern1
 _ZN8casacore9ChebyshevISt7complexIdEED1Ev@Base 3.2.1-1kern1
 _ZN8casacore9ChebyshevISt7complexIdEED2Ev@Base 3.2.1-1kern1
 _ZN8casacore9ChebyshevIdED0Ev@Base 3.2.1-1kern1
 _ZN8casacore9ChebyshevIdED1Ev@Base 3.2.1-1kern1
 _ZN8casacore9ChebyshevIdED2Ev@Base 3.2.1-1kern1
 _ZN8casacore9FFTServerIdSt7complexIdEE14determineShapeERKNS_9IPositionERKNS_5ArrayIS2_EE@Base 3.2.1-1kern1
 _ZN8casacore9FFTServerIdSt7complexIdEE3fftERNS_5ArrayIS2_EERKNS4_IdEE@Base 3.2.1-1kern1
 _ZN8casacore9FFTServerIdSt7complexIdEE3fftERNS_5ArrayIS2_EERKS5_b@Base 3.2.1-1kern1
 _ZN8casacore9FFTServerIdSt7complexIdEE3fftERNS_5ArrayIS2_EERNS4_IdEEb@Base 3.2.1-1kern1
 _ZN8casacore9FFTServerIdSt7complexIdEE3fftERNS_5ArrayIS2_EEb@Base 3.2.1-1kern1
 _ZN8casacore9FFTServerIdSt7complexIdEE3fftERNS_5ArrayIdEERKNS4_IS2_EE@Base 3.2.1-1kern1
 _ZN8casacore9FFTServerIdSt7complexIdEE3fftERNS_5ArrayIdEERNS4_IS2_EEb@Base 3.2.1-1kern1
 _ZN8casacore9FFTServerIdSt7complexIdEE4fft0ERNS_5ArrayIS2_EERKNS4_IdEE@Base 3.2.1-1kern1
 _ZN8casacore9FFTServerIdSt7complexIdEE4fft0ERNS_5ArrayIS2_EERKS5_b@Base 3.2.1-1kern1
 _ZN8casacore9FFTServerIdSt7complexIdEE4fft0ERNS_5ArrayIS2_EERNS4_IdEEb@Base 3.2.1-1kern1
 _ZN8casacore9FFTServerIdSt7complexIdEE4fft0ERNS_5ArrayIS2_EEb@Base 3.2.1-1kern1
 _ZN8casacore9FFTServerIdSt7complexIdEE4fft0ERNS_5ArrayIdEERKNS4_IS2_EE@Base 3.2.1-1kern1
 _ZN8casacore9FFTServerIdSt7complexIdEE4fft0ERNS_5ArrayIdEERNS4_IS2_EEb@Base 3.2.1-1kern1
 _ZN8casacore9FFTServerIdSt7complexIdEE4flipERNS_5ArrayIS2_EEbb@Base 3.2.1-1kern1
 _ZN8casacore9FFTServerIdSt7complexIdEE4flipERNS_5ArrayIdEEbb@Base 3.2.1-1kern1
 _ZN8casacore9FFTServerIdSt7complexIdEE6resizeERKNS_9IPositionENS_8FFTEnums13TransformTypeE@Base 3.2.1-1kern1
 _ZN8casacore9FFTServerIdSt7complexIdEE8fftshiftERNS_5ArrayIS2_EERKjRKdb@Base 3.2.1-1kern1
 _ZN8casacore9FFTServerIdSt7complexIdEE8fftshiftERNS_5ArrayIS2_EERNS4_IbEERKS5_RKS7_RKjRKdbb@Base 3.2.1-1kern1
 _ZN8casacore9FFTServerIdSt7complexIdEE8fftshiftERNS_5ArrayIdEERNS4_IbEERKS5_RKS7_RKjRKdb@Base 3.2.1-1kern1
 _ZN8casacore9FFTServerIdSt7complexIdEEC1ERKNS_9IPositionENS_8FFTEnums13TransformTypeE@Base 3.2.1-1kern1
 _ZN8casacore9FFTServerIdSt7complexIdEEC1ERKS3_@Base 3.2.1-1kern1
 _ZN8casacore9FFTServerIdSt7complexIdEEC1Ev@Base 3.2.1-1kern1
 _ZN8casacore9FFTServerIdSt7complexIdEEC2ERKNS_9IPositionENS_8FFTEnums13TransformTypeE@Base 3.2.1-1kern1
 _ZN8casacore9FFTServerIdSt7complexIdEEC2ERKS3_@Base 3.2.1-1kern1
 _ZN8casacore9FFTServerIdSt7complexIdEEC2Ev@Base 3.2.1-1kern1
 _ZN8casacore9FFTServerIdSt7complexIdEED1Ev@Base 3.2.1-1kern1
 _ZN8casacore9FFTServerIdSt7complexIdEED2Ev@Base 3.2.1-1kern1
 _ZN8casacore9FFTServerIdSt7complexIdEEaSERKS3_@Base 3.2.1-1kern1
 _ZN8casacore9FFTServerIfSt7complexIfEE14determineShapeERKNS_9IPositionERKNS_5ArrayIS2_EE@Base 3.2.1-1kern1
 _ZN8casacore9FFTServerIfSt7complexIfEE3fftERNS_5ArrayIS2_EERKNS4_IfEE@Base 3.2.1-1kern1
 _ZN8casacore9FFTServerIfSt7complexIfEE3fftERNS_5ArrayIS2_EERKS5_b@Base 3.2.1-1kern1
 _ZN8casacore9FFTServerIfSt7complexIfEE3fftERNS_5ArrayIS2_EERNS4_IfEEb@Base 3.2.1-1kern1
 _ZN8casacore9FFTServerIfSt7complexIfEE3fftERNS_5ArrayIS2_EEb@Base 3.2.1-1kern1
 _ZN8casacore9FFTServerIfSt7complexIfEE3fftERNS_5ArrayIfEERKNS4_IS2_EE@Base 3.2.1-1kern1
 _ZN8casacore9FFTServerIfSt7complexIfEE3fftERNS_5ArrayIfEERNS4_IS2_EEb@Base 3.2.1-1kern1
 _ZN8casacore9FFTServerIfSt7complexIfEE4fft0ERNS_5ArrayIS2_EERKNS4_IfEE@Base 3.2.1-1kern1
 _ZN8casacore9FFTServerIfSt7complexIfEE4fft0ERNS_5ArrayIS2_EERKS5_b@Base 3.2.1-1kern1
 _ZN8casacore9FFTServerIfSt7complexIfEE4fft0ERNS_5ArrayIS2_EERNS4_IfEEb@Base 3.2.1-1kern1
 _ZN8casacore9FFTServerIfSt7complexIfEE4fft0ERNS_5ArrayIS2_EEb@Base 3.2.1-1kern1
 _ZN8casacore9FFTServerIfSt7complexIfEE4fft0ERNS_5ArrayIfEERKNS4_IS2_EE@Base 3.2.1-1kern1
 _ZN8casacore9FFTServerIfSt7complexIfEE4fft0ERNS_5ArrayIfEERNS4_IS2_EEb@Base 3.2.1-1kern1
 _ZN8casacore9FFTServerIfSt7complexIfEE4flipERNS_5ArrayIS2_EEbb@Base 3.2.1-1kern1
 _ZN8casacore9FFTServerIfSt7complexIfEE4flipERNS_5ArrayIfEEbb@Base 3.2.1-1kern1
 _ZN8casacore9FFTServerIfSt7complexIfEE6resizeERKNS_9IPositionENS_8FFTEnums13TransformTypeE@Base 3.2.1-1kern1
 _ZN8casacore9FFTServerIfSt7complexIfEE8fftshiftERNS_5ArrayIS2_EERKjRKdb@Base 3.2.1-1kern1
 _ZN8casacore9FFTServerIfSt7complexIfEE8fftshiftERNS_5ArrayIS2_EERNS4_IbEERKS5_RKS7_RKjRKdbb@Base 3.2.1-1kern1
 _ZN8casacore9FFTServerIfSt7complexIfEE8fftshiftERNS_5ArrayIfEERNS4_IbEERKS5_RKS7_RKjRKdb@Base 3.2.1-1kern1
 _ZN8casacore9FFTServerIfSt7complexIfEEC1ERKNS_9IPositionENS_8FFTEnums13TransformTypeE@Base 3.2.1-1kern1
 _ZN8casacore9FFTServerIfSt7complexIfEEC1ERKS3_@Base 3.2.1-1kern1
 _ZN8casacore9FFTServerIfSt7complexIfEEC1Ev@Base 3.2.1-1kern1
 _ZN8casacore9FFTServerIfSt7complexIfEEC2ERKNS_9IPositionENS_8FFTEnums13TransformTypeE@Base 3.2.1-1kern1
 _ZN8casacore9FFTServerIfSt7complexIfEEC2ERKS3_@Base 3.2.1-1kern1
 _ZN8casacore9FFTServerIfSt7complexIfEEC2Ev@Base 3.2.1-1kern1
 _ZN8casacore9FFTServerIfSt7complexIfEED1Ev@Base 3.2.1-1kern1
 _ZN8casacore9FFTServerIfSt7complexIfEED2Ev@Base 3.2.1-1kern1
 _ZN8casacore9FFTServerIfSt7complexIfEEaSERKS3_@Base 3.2.1-1kern1
 _ZN8casacore9LSQMatrix10doDiagonalEj@Base 3.2.1-1kern1
 _ZN8casacore9LSQMatrix10fromAipsIOERNS_6AipsIOE@Base 3.2.1-1kern1
 _ZN8casacore9LSQMatrix10fromRecordERNS_6StringERKNS_15RecordInterfaceE@Base 3.2.1-1kern1
 _ZN8casacore9LSQMatrix11addDiagonalEjd@Base 3.2.1-1kern1
 _ZN8casacore9LSQMatrix11maxDiagonalEj@Base 3.2.1-1kern1
 _ZN8casacore9LSQMatrix11mulDiagonalEjd@Base 3.2.1-1kern1
 _ZN8casacore9LSQMatrix3setEj@Base 3.2.1-1kern1
 _ZN8casacore9LSQMatrix3setEjb@Base 3.2.1-1kern1
 _ZN8casacore9LSQMatrix4copyERKS0_@Base 3.2.1-1kern1
 _ZN8casacore9LSQMatrix4initEv@Base 3.2.1-1kern1
 _ZN8casacore9LSQMatrix5clearEv@Base 3.2.1-1kern1
 _ZN8casacore9LSQMatrix6deinitEv@Base 3.2.1-1kern1
 _ZN8casacore9LSQMatrix7tmatdatE@Base 3.2.1-1kern1
 _ZN8casacore9LSQMatrix7tmatsizE@Base 3.2.1-1kern1
 _ZN8casacore9LSQMatrix9getCArrayERNS_6AipsIOEjRPd@Base 3.2.1-1kern1
 _ZN8casacore9LSQMatrix9getCArrayERNS_6AipsIOEjRPj@Base 3.2.1-1kern1
 _ZN8casacore9LSQMatrix9getCArrayERNS_6StringERKNS_15RecordInterfaceERKS1_jRPd@Base 3.2.1-1kern1
 _ZN8casacore9LSQMatrix9getCArrayERNS_6StringERKNS_15RecordInterfaceERKS1_jRPj@Base 3.2.1-1kern1
 _ZN8casacore9LSQMatrix9putCArrayERNS_6AipsIOEjPKd@Base 3.2.1-1kern1
 _ZN8casacore9LSQMatrix9putCArrayERNS_6AipsIOEjPKj@Base 3.2.1-1kern1
 _ZN8casacore9LSQMatrix9putCArrayERNS_6StringERNS_15RecordInterfaceERKS1_jPKd@Base 3.2.1-1kern1
 _ZN8casacore9LSQMatrix9putCArrayERNS_6StringERNS_15RecordInterfaceERKS1_jPKj@Base 3.2.1-1kern1
 _ZN8casacore9LSQMatrixC1ERKS0_@Base 3.2.1-1kern1
 _ZN8casacore9LSQMatrixC1Ej@Base 3.2.1-1kern1
 _ZN8casacore9LSQMatrixC1Ejb@Base 3.2.1-1kern1
 _ZN8casacore9LSQMatrixC1Ev@Base 3.2.1-1kern1
 _ZN8casacore9LSQMatrixC2ERKS0_@Base 3.2.1-1kern1
 _ZN8casacore9LSQMatrixC2Ej@Base 3.2.1-1kern1
 _ZN8casacore9LSQMatrixC2Ejb@Base 3.2.1-1kern1
 _ZN8casacore9LSQMatrixC2Ev@Base 3.2.1-1kern1
 _ZN8casacore9LSQMatrixD0Ev@Base 3.2.1-1kern1
 _ZN8casacore9LSQMatrixD1Ev@Base 3.2.1-1kern1
 _ZN8casacore9LSQMatrixD2Ev@Base 3.2.1-1kern1
 _ZN8casacore9LSQMatrixaSERKS0_@Base 3.2.1-1kern1
 _ZN8casacore9LinearFitISt7complexIdEE5fitItERNS_6VectorIS2_EERKNS_5ArrayIS2_EERKS5_PSB_PKNS4_IbEE@Base 3.2.1-1kern1
 _ZN8casacore9LinearFitISt7complexIdEED0Ev@Base 3.2.1-1kern1
 _ZN8casacore9LinearFitISt7complexIdEED1Ev@Base 3.2.1-1kern1
 _ZN8casacore9LinearFitISt7complexIdEED2Ev@Base 3.2.1-1kern1
 _ZN8casacore9LinearFitIdE5fitItERNS_6VectorIdEERKNS_5ArrayIdEERKS3_PS9_PKNS2_IbEE@Base 3.2.1-1kern1
 _ZN8casacore9LinearFitIdED0Ev@Base 3.2.1-1kern1
 _ZN8casacore9LinearFitIdED1Ev@Base 3.2.1-1kern1
 _ZN8casacore9LinearFitIdED2Ev@Base 3.2.1-1kern1
 _ZN8casacore9PtrHolderINS_15RecordInterfaceEE27delete_pointer_if_necessaryEv@Base 3.2.1-1kern1
 _ZN8casacore9PtrHolderINS_8FunctionISt7complexIdES3_EEE27delete_pointer_if_necessaryEv@Base 3.2.1-1kern1
 _ZN8casacore9PtrHolderINS_8FunctionIddEEE27delete_pointer_if_necessaryEv@Base 3.2.1-1kern1
 _ZN8casacoreeqIdEEbRKNS_7QuantumIT_EES5_@Base 3.2.1-1kern1
 _ZN8casacoregtIdEEbRKNS_7QuantumIT_EES5_@Base 3.2.1-1kern1
 _ZN8casacorelsERNS_5LogIOERKNS_12GaussianBeamE@Base 3.2.1-1kern1
 _ZN8casacorelsERSoRKNS_12FuncExprDataE@Base 3.2.1-1kern1
 _ZN8casacorelsERSoRKNS_12GaussianBeamE@Base 3.2.1-1kern1
 _ZN8casacorelsERSoRKNS_14FuncExpressionE@Base 3.2.1-1kern1
 _ZN8casacoreltERKSt7complexIdES3_@Base 3.2.1-1kern1
 _ZN8casacoreltIdEEbRKNS_7QuantumIT_EES5_@Base 3.2.1-1kern1
 _ZN8casacoremiISt7complexIdEEENS_8AutoDiffIT_EERKS4_RKS5_@Base 3.2.1-1kern1
 _ZN8casacoremiIdEENS_8AutoDiffIT_EERKS2_RKS3_@Base 3.2.1-1kern1
 _ZN8casacoremlERKNS_12SquareMatrixISt7complexIfELi4EEERKNS_11RigidVectorIfLi4EEE@Base 3.2.1-1kern1
 _ZN8casacoremlISt7complexIdEEENS_8AutoDiffIT_EERKS5_RKS4_@Base 3.2.1-1kern1
 _ZN8casacorengISt7complexIdEEENS_8AutoDiffIT_EERKS5_@Base 3.2.1-1kern1
 _ZN8casacorengIdEENS_8AutoDiffIT_EERKS3_@Base 3.2.1-1kern1
 _ZN8casacorepLISt7complexIdEEEvRNS_5ArrayIT_EERKS5_@Base 3.2.1-1kern1
 _ZN8casacorepLIdEEvRNS_5ArrayIT_EERKS3_@Base 3.2.1-1kern1
 _ZN8casacoreplEPKcRKNS_6StringE@Base 3.2.1-1kern1
 _ZN8casacoreplERKNS_6StringEPKc@Base 3.2.1-1kern1
 _ZN8casacoreplERKNS_6StringES2_@Base 3.2.1-1kern1
 _ZNK8casacore10CombiParamINS_8AutoDiffISt7complexIdEEEE4nameEv@Base 3.2.1-1kern1
 _ZNK8casacore10CombiParamINS_8AutoDiffISt7complexIdEEEE4ndimEv@Base 3.2.1-1kern1
 _ZNK8casacore10CombiParamINS_8AutoDiffIdEEE4nameEv@Base 3.2.1-1kern1
 _ZNK8casacore10CombiParamINS_8AutoDiffIdEEE4ndimEv@Base 3.2.1-1kern1
 _ZNK8casacore10CombiParamISt7complexIdEE4nameEv@Base 3.2.1-1kern1
 _ZNK8casacore10CombiParamISt7complexIdEE4ndimEv@Base 3.2.1-1kern1
 _ZNK8casacore10CombiParamIdE4nameEv@Base 3.2.1-1kern1
 _ZNK8casacore10CombiParamIdE4ndimEv@Base 3.2.1-1kern1
 _ZNK8casacore10CountedPtrINS_5BlockINS_6VectorIdEEEEE7DeleterIS4_EclEPS4_@Base 3.2.1-1kern1
 _ZNK8casacore10CountedPtrINS_5BlockINS_7QuantumIdEEEEE7DeleterIS4_EclEPS4_@Base 3.2.1-1kern1
 _ZNK8casacore10CountedPtrINS_5BlockINS_8AutoDiffISt7complexIdEEEEEE7DeleterIS6_EclEPS6_@Base 3.2.1-1kern1
 _ZNK8casacore10CountedPtrINS_5BlockINS_8AutoDiffIdEEEEE7DeleterIS4_EclEPS4_@Base 3.2.1-1kern1
 _ZNK8casacore10Function1DINS_8AutoDiffISt7complexIdEEES4_E4ndimEv@Base 3.2.1-1kern1
 _ZNK8casacore10Function1DINS_8AutoDiffIdEES2_E4ndimEv@Base 3.2.1-1kern1
 _ZNK8casacore10Function1DISt7complexIdES2_E4ndimEv@Base 3.2.1-1kern1
 _ZNK8casacore10Function1DIddE4ndimEv@Base 3.2.1-1kern1
 _ZNK8casacore10Gaussian1DINS_8AutoDiffISt7complexIdEEEE10cloneNonADEv@Base 3.2.1-1kern1
 _ZNK8casacore10Gaussian1DINS_8AutoDiffISt7complexIdEEEE4evalEPKS3_@Base 3.2.1-1kern1
 _ZNK8casacore10Gaussian1DINS_8AutoDiffISt7complexIdEEEE5cloneEv@Base 3.2.1-1kern1
 _ZNK8casacore10Gaussian1DINS_8AutoDiffISt7complexIdEEEE7cloneADEv@Base 3.2.1-1kern1
 _ZNK8casacore10Gaussian1DINS_8AutoDiffIdEEE10cloneNonADEv@Base 3.2.1-1kern1
 _ZNK8casacore10Gaussian1DINS_8AutoDiffIdEEE4evalEPKd@Base 3.2.1-1kern1
 _ZNK8casacore10Gaussian1DINS_8AutoDiffIdEEE5cloneEv@Base 3.2.1-1kern1
 _ZNK8casacore10Gaussian1DINS_8AutoDiffIdEEE7cloneADEv@Base 3.2.1-1kern1
 _ZNK8casacore10Gaussian1DISt7complexIdEE10cloneNonADEv@Base 3.2.1-1kern1
 _ZNK8casacore10Gaussian1DISt7complexIdEE4evalEPKS2_@Base 3.2.1-1kern1
 _ZNK8casacore10Gaussian1DISt7complexIdEE5cloneEv@Base 3.2.1-1kern1
 _ZNK8casacore10Gaussian1DISt7complexIdEE7cloneADEv@Base 3.2.1-1kern1
 _ZNK8casacore10Gaussian1DIdE10cloneNonADEv@Base 3.2.1-1kern1
 _ZNK8casacore10Gaussian1DIdE4evalEPKd@Base 3.2.1-1kern1
 _ZNK8casacore10Gaussian1DIdE5cloneEv@Base 3.2.1-1kern1
 _ZNK8casacore10Gaussian1DIdE7cloneADEv@Base 3.2.1-1kern1
 _ZNK8casacore10Gaussian2DINS_8AutoDiffISt7complexIdEEEE10cloneNonADEv@Base 3.2.1-1kern1
 _ZNK8casacore10Gaussian2DINS_8AutoDiffISt7complexIdEEEE4evalEPKS3_@Base 3.2.1-1kern1
 _ZNK8casacore10Gaussian2DINS_8AutoDiffISt7complexIdEEEE5cloneEv@Base 3.2.1-1kern1
 _ZNK8casacore10Gaussian2DINS_8AutoDiffISt7complexIdEEEE7cloneADEv@Base 3.2.1-1kern1
 _ZNK8casacore10Gaussian2DINS_8AutoDiffIdEEE10cloneNonADEv@Base 3.2.1-1kern1
 _ZNK8casacore10Gaussian2DINS_8AutoDiffIdEEE4evalEPKd@Base 3.2.1-1kern1
 _ZNK8casacore10Gaussian2DINS_8AutoDiffIdEEE5cloneEv@Base 3.2.1-1kern1
 _ZNK8casacore10Gaussian2DINS_8AutoDiffIdEEE7cloneADEv@Base 3.2.1-1kern1
 _ZNK8casacore10Gaussian2DISt7complexIdEE10cloneNonADEv@Base 3.2.1-1kern1
 _ZNK8casacore10Gaussian2DISt7complexIdEE4evalEPKS2_@Base 3.2.1-1kern1
 _ZNK8casacore10Gaussian2DISt7complexIdEE5cloneEv@Base 3.2.1-1kern1
 _ZNK8casacore10Gaussian2DISt7complexIdEE7cloneADEv@Base 3.2.1-1kern1
 _ZNK8casacore10Gaussian2DIdE10cloneNonADEv@Base 3.2.1-1kern1
 _ZNK8casacore10Gaussian2DIdE4evalEPKd@Base 3.2.1-1kern1
 _ZNK8casacore10Gaussian2DIdE5cloneEv@Base 3.2.1-1kern1
 _ZNK8casacore10Gaussian2DIdE7cloneADEv@Base 3.2.1-1kern1
 _ZNK8casacore10Gaussian3DINS_8AutoDiffISt7complexIdEEEE10cloneNonADEv@Base 3.2.1-1kern1
 _ZNK8casacore10Gaussian3DINS_8AutoDiffISt7complexIdEEEE4evalEPKS3_@Base 3.2.1-1kern1
 _ZNK8casacore10Gaussian3DINS_8AutoDiffISt7complexIdEEEE5cloneEv@Base 3.2.1-1kern1
 _ZNK8casacore10Gaussian3DINS_8AutoDiffISt7complexIdEEEE7cloneADEv@Base 3.2.1-1kern1
 _ZNK8casacore10Gaussian3DINS_8AutoDiffIdEEE10cloneNonADEv@Base 3.2.1-1kern1
 _ZNK8casacore10Gaussian3DINS_8AutoDiffIdEEE4evalEPKd@Base 3.2.1-1kern1
 _ZNK8casacore10Gaussian3DINS_8AutoDiffIdEEE5cloneEv@Base 3.2.1-1kern1
 _ZNK8casacore10Gaussian3DINS_8AutoDiffIdEEE7cloneADEv@Base 3.2.1-1kern1
 _ZNK8casacore10Gaussian3DISt7complexIdEE10cloneNonADEv@Base 3.2.1-1kern1
 _ZNK8casacore10Gaussian3DISt7complexIdEE4evalEPKS2_@Base 3.2.1-1kern1
 _ZNK8casacore10Gaussian3DISt7complexIdEE5cloneEv@Base 3.2.1-1kern1
 _ZNK8casacore10Gaussian3DISt7complexIdEE7cloneADEv@Base 3.2.1-1kern1
 _ZNK8casacore10Gaussian3DIdE10cloneNonADEv@Base 3.2.1-1kern1
 _ZNK8casacore10Gaussian3DIdE4evalEPKd@Base 3.2.1-1kern1
 _ZNK8casacore10Gaussian3DIdE5cloneEv@Base 3.2.1-1kern1
 _ZNK8casacore10Gaussian3DIdE7cloneADEv@Base 3.2.1-1kern1
 _ZNK8casacore10GaussianNDINS_8AutoDiffISt7complexIdEEEE4evalEPKS3_@Base 3.2.1-1kern1
 _ZNK8casacore10GaussianNDINS_8AutoDiffISt7complexIdEEEE5cloneEv@Base 3.2.1-1kern1
 _ZNK8casacore10GaussianNDINS_8AutoDiffIdEEE4evalEPKd@Base 3.2.1-1kern1
 _ZNK8casacore10GaussianNDINS_8AutoDiffIdEEE5cloneEv@Base 3.2.1-1kern1
 _ZNK8casacore10GaussianNDISt7complexIdEE4evalEPKS2_@Base 3.2.1-1kern1
 _ZNK8casacore10GaussianNDISt7complexIdEE5cloneEv@Base 3.2.1-1kern1
 _ZNK8casacore10GaussianNDIdE4evalEPKd@Base 3.2.1-1kern1
 _ZNK8casacore10GaussianNDIdE5cloneEv@Base 3.2.1-1kern1
 _ZNK8casacore10HyperPlaneINS_8AutoDiffISt7complexIdEEEE10cloneNonADEv@Base 3.2.1-1kern1
 _ZNK8casacore10HyperPlaneINS_8AutoDiffISt7complexIdEEEE4evalEPKS3_@Base 3.2.1-1kern1
 _ZNK8casacore10HyperPlaneINS_8AutoDiffISt7complexIdEEEE5cloneEv@Base 3.2.1-1kern1
 _ZNK8casacore10HyperPlaneINS_8AutoDiffISt7complexIdEEEE7cloneADEv@Base 3.2.1-1kern1
 _ZNK8casacore10HyperPlaneINS_8AutoDiffIdEEE10cloneNonADEv@Base 3.2.1-1kern1
 _ZNK8casacore10HyperPlaneINS_8AutoDiffIdEEE4evalEPKd@Base 3.2.1-1kern1
 _ZNK8casacore10HyperPlaneINS_8AutoDiffIdEEE5cloneEv@Base 3.2.1-1kern1
 _ZNK8casacore10HyperPlaneINS_8AutoDiffIdEEE7cloneADEv@Base 3.2.1-1kern1
 _ZNK8casacore10HyperPlaneISt7complexIdEE10cloneNonADEv@Base 3.2.1-1kern1
 _ZNK8casacore10HyperPlaneISt7complexIdEE4evalEPKS2_@Base 3.2.1-1kern1
 _ZNK8casacore10HyperPlaneISt7complexIdEE5cloneEv@Base 3.2.1-1kern1
 _ZNK8casacore10HyperPlaneISt7complexIdEE7cloneADEv@Base 3.2.1-1kern1
 _ZNK8casacore10HyperPlaneIdE10cloneNonADEv@Base 3.2.1-1kern1
 _ZNK8casacore10HyperPlaneIdE4evalEPKd@Base 3.2.1-1kern1
 _ZNK8casacore10HyperPlaneIdE5cloneEv@Base 3.2.1-1kern1
 _ZNK8casacore10HyperPlaneIdE7cloneADEv@Base 3.2.1-1kern1
 _ZNK8casacore10PolynomialINS_8AutoDiffISt7complexIdEEEE10cloneNonADEv@Base 3.2.1-1kern1
 _ZNK8casacore10PolynomialINS_8AutoDiffISt7complexIdEEEE4evalEPKS3_@Base 3.2.1-1kern1
 _ZNK8casacore10PolynomialINS_8AutoDiffISt7complexIdEEEE5cloneEv@Base 3.2.1-1kern1
 _ZNK8casacore10PolynomialINS_8AutoDiffISt7complexIdEEEE7cloneADEv@Base 3.2.1-1kern1
 _ZNK8casacore10PolynomialINS_8AutoDiffIdEEE10cloneNonADEv@Base 3.2.1-1kern1
 _ZNK8casacore10PolynomialINS_8AutoDiffIdEEE4evalEPKd@Base 3.2.1-1kern1
 _ZNK8casacore10PolynomialINS_8AutoDiffIdEEE5cloneEv@Base 3.2.1-1kern1
 _ZNK8casacore10PolynomialINS_8AutoDiffIdEEE7cloneADEv@Base 3.2.1-1kern1
 _ZNK8casacore10PolynomialISt7complexIdEE10cloneNonADEv@Base 3.2.1-1kern1
 _ZNK8casacore10PolynomialISt7complexIdEE4evalEPKS2_@Base 3.2.1-1kern1
 _ZNK8casacore10PolynomialISt7complexIdEE5cloneEv@Base 3.2.1-1kern1
 _ZNK8casacore10PolynomialISt7complexIdEE7cloneADEv@Base 3.2.1-1kern1
 _ZNK8casacore10PolynomialIdE10cloneNonADEv@Base 3.2.1-1kern1
 _ZNK8casacore10PolynomialIdE4evalEPKd@Base 3.2.1-1kern1
 _ZNK8casacore10PolynomialIdE5cloneEv@Base 3.2.1-1kern1
 _ZNK8casacore10PolynomialIdE7cloneADEv@Base 3.2.1-1kern1
 _ZNK8casacore10Sinusoid1DINS_8AutoDiffISt7complexIdEEEE10cloneNonADEv@Base 3.2.1-1kern1
 _ZNK8casacore10Sinusoid1DINS_8AutoDiffISt7complexIdEEEE4evalEPKS3_@Base 3.2.1-1kern1
 _ZNK8casacore10Sinusoid1DINS_8AutoDiffISt7complexIdEEEE5cloneEv@Base 3.2.1-1kern1
 _ZNK8casacore10Sinusoid1DINS_8AutoDiffISt7complexIdEEEE7cloneADEv@Base 3.2.1-1kern1
 _ZNK8casacore10Sinusoid1DINS_8AutoDiffIdEEE10cloneNonADEv@Base 3.2.1-1kern1
 _ZNK8casacore10Sinusoid1DINS_8AutoDiffIdEEE4evalEPKd@Base 3.2.1-1kern1
 _ZNK8casacore10Sinusoid1DINS_8AutoDiffIdEEE5cloneEv@Base 3.2.1-1kern1
 _ZNK8casacore10Sinusoid1DINS_8AutoDiffIdEEE7cloneADEv@Base 3.2.1-1kern1
 _ZNK8casacore10Sinusoid1DISt7complexIdEE10cloneNonADEv@Base 3.2.1-1kern1
 _ZNK8casacore10Sinusoid1DISt7complexIdEE4evalEPKS2_@Base 3.2.1-1kern1
 _ZNK8casacore10Sinusoid1DISt7complexIdEE5cloneEv@Base 3.2.1-1kern1
 _ZNK8casacore10Sinusoid1DISt7complexIdEE7cloneADEv@Base 3.2.1-1kern1
 _ZNK8casacore10Sinusoid1DIdE10cloneNonADEv@Base 3.2.1-1kern1
 _ZNK8casacore10Sinusoid1DIdE4evalEPKd@Base 3.2.1-1kern1
 _ZNK8casacore10Sinusoid1DIdE5cloneEv@Base 3.2.1-1kern1
 _ZNK8casacore10Sinusoid1DIdE7cloneADEv@Base 3.2.1-1kern1
 _ZNK8casacore12FittingProxy7FitType11getFitterCXEv@Base 3.2.1-1kern1
 _ZNK8casacore12FittingProxy7FitType9getFitterEv@Base 3.2.1-1kern1
 _ZNK8casacore12FuncExprData5printERSoRKNS0_12ExprOperatorE@Base 3.2.1-1kern1
 _ZNK8casacore12FuncExprData5printERSoRKSt3mapINS_6StringENS0_12ExprOperatorESt4lessIS3_ESaISt4pairIKS3_S4_EEE@Base 3.2.1-1kern1
 _ZNK8casacore12GaussianBeam5getPAERKNS_4UnitEb@Base 3.2.1-1kern1
 _ZNK8casacore12GaussianBeam5getPAEb@Base 3.2.1-1kern1
 _ZNK8casacore12GaussianBeam6isNullEv@Base 3.2.1-1kern1
 _ZNK8casacore12GaussianBeam7getAreaERKNS_4UnitE@Base 3.2.1-1kern1
 _ZNK8casacore12GaussianBeam8getMajorERKNS_4UnitE@Base 3.2.1-1kern1
 _ZNK8casacore12GaussianBeam8getMajorEv@Base 3.2.1-1kern1
 _ZNK8casacore12GaussianBeam8getMinorERKNS_4UnitE@Base 3.2.1-1kern1
 _ZNK8casacore12GaussianBeam8getMinorEv@Base 3.2.1-1kern1
 _ZNK8casacore12GaussianBeam8toRecordEv@Base 3.2.1-1kern1
 _ZNK8casacore12GaussianBeam8toVectorEb@Base 3.2.1-1kern1
 _ZNK8casacore12GaussianBeameqERKS0_@Base 3.2.1-1kern1
 _ZNK8casacore12GaussianBeamneERKS0_@Base 3.2.1-1kern1
 _ZNK8casacore12GenericL2FitISt7complexIdEE8getVal_pERKNS_5ArrayIS2_EEjj@Base 3.2.1-1kern1
 _ZNK8casacore12GenericL2FitIdE8getVal_pERKNS_5ArrayIdEEjj@Base 3.2.1-1kern1
 _ZNK8casacore12SerialHelper11getFuncTypeERNS_6StringE@Base 3.2.1-1kern1
 _ZNK8casacore12SerialHelper13checkFuncTypeERKNS_6StringE@Base 3.2.1-1kern1
 _ZNK8casacore12SerialHelper3getERNS_5ArrayINS_6StringEEERKS2_@Base 3.2.1-1kern1
 _ZNK8casacore12SerialHelper3getERNS_5ArrayISt7complexIdEEERKNS_6StringE@Base 3.2.1-1kern1
 _ZNK8casacore12SerialHelper3getERNS_5ArrayISt7complexIfEEERKNS_6StringE@Base 3.2.1-1kern1
 _ZNK8casacore12SerialHelper3getERNS_5ArrayIbEERKNS_6StringE@Base 3.2.1-1kern1
 _ZNK8casacore12SerialHelper3getERNS_5ArrayIdEERKNS_6StringE@Base 3.2.1-1kern1
 _ZNK8casacore12SerialHelper3getERNS_5ArrayIfEERKNS_6StringE@Base 3.2.1-1kern1
 _ZNK8casacore12SerialHelper3getERNS_5ArrayIiEERKNS_6StringE@Base 3.2.1-1kern1
 _ZNK8casacore12SerialHelper3getERNS_5ArrayIsEERKNS_6StringE@Base 3.2.1-1kern1
 _ZNK8casacore12SerialHelper3getERNS_6RecordERKNS_6StringE@Base 3.2.1-1kern1
 _ZNK8casacore12SerialHelper3getERNS_6StringERKS1_j@Base 3.2.1-1kern1
 _ZNK8casacore12SerialHelper3getERSt7complexIdERKNS_6StringEj@Base 3.2.1-1kern1
 _ZNK8casacore12SerialHelper3getERSt7complexIfERKNS_6StringEj@Base 3.2.1-1kern1
 _ZNK8casacore12SerialHelper3getERbRKNS_6StringEj@Base 3.2.1-1kern1
 _ZNK8casacore12SerialHelper3getERdRKNS_6StringEj@Base 3.2.1-1kern1
 _ZNK8casacore12SerialHelper3getERfRKNS_6StringEj@Base 3.2.1-1kern1
 _ZNK8casacore12SerialHelper3getERiRKNS_6StringEj@Base 3.2.1-1kern1
 _ZNK8casacore12SerialHelper3getERsRKNS_6StringEj@Base 3.2.1-1kern1
 _ZNK8casacore13BaseAllocatorINS_6VectorIdEENS_15NewDelAllocatorIS2_EEE12getAllocatorEv@Base 3.2.1-1kern1
 _ZNK8casacore13BaseAllocatorINS_6VectorIdEENS_16AlignedAllocatorIS2_Lm32EEEE12getAllocatorEv@Base 3.2.1-1kern1
 _ZNK8casacore13BaseAllocatorINS_7QuantumIdEENS_15NewDelAllocatorIS2_EEE12getAllocatorEv@Base 3.2.1-1kern1
 _ZNK8casacore13BaseAllocatorINS_7QuantumIdEENS_16AlignedAllocatorIS2_Lm32EEEE12getAllocatorEv@Base 3.2.1-1kern1
 _ZNK8casacore13BaseAllocatorINS_8AutoDiffISt7complexIdEEENS_15NewDelAllocatorIS4_EEE12getAllocatorEv@Base 3.2.1-1kern1
 _ZNK8casacore13BaseAllocatorINS_8AutoDiffISt7complexIdEEENS_16AlignedAllocatorIS4_Lm32EEEE12getAllocatorEv@Base 3.2.1-1kern1
 _ZNK8casacore13BaseAllocatorINS_8AutoDiffIdEENS_15NewDelAllocatorIS2_EEE12getAllocatorEv@Base 3.2.1-1kern1
 _ZNK8casacore13BaseAllocatorINS_8AutoDiffIdEENS_16AlignedAllocatorIS2_Lm32EEEE12getAllocatorEv@Base 3.2.1-1kern1
 _ZNK8casacore13CombiFunctionINS_8AutoDiffISt7complexIdEEEE10cloneNonADEv@Base 3.2.1-1kern1
 _ZNK8casacore13CombiFunctionINS_8AutoDiffISt7complexIdEEEE4evalEPKS3_@Base 3.2.1-1kern1
 _ZNK8casacore13CombiFunctionINS_8AutoDiffISt7complexIdEEEE5cloneEv@Base 3.2.1-1kern1
 _ZNK8casacore13CombiFunctionINS_8AutoDiffISt7complexIdEEEE7cloneADEv@Base 3.2.1-1kern1
 _ZNK8casacore13CombiFunctionINS_8AutoDiffIdEEE10cloneNonADEv@Base 3.2.1-1kern1
 _ZNK8casacore13CombiFunctionINS_8AutoDiffIdEEE4evalEPKd@Base 3.2.1-1kern1
 _ZNK8casacore13CombiFunctionINS_8AutoDiffIdEEE5cloneEv@Base 3.2.1-1kern1
 _ZNK8casacore13CombiFunctionINS_8AutoDiffIdEEE7cloneADEv@Base 3.2.1-1kern1
 _ZNK8casacore13CombiFunctionISt7complexIdEE10cloneNonADEv@Base 3.2.1-1kern1
 _ZNK8casacore13CombiFunctionISt7complexIdEE4evalEPKS2_@Base 3.2.1-1kern1
 _ZNK8casacore13CombiFunctionISt7complexIdEE5cloneEv@Base 3.2.1-1kern1
 _ZNK8casacore13CombiFunctionISt7complexIdEE7cloneADEv@Base 3.2.1-1kern1
 _ZNK8casacore13CombiFunctionIdE10cloneNonADEv@Base 3.2.1-1kern1
 _ZNK8casacore13CombiFunctionIdE4evalEPKd@Base 3.2.1-1kern1
 _ZNK8casacore13CombiFunctionIdE5cloneEv@Base 3.2.1-1kern1
 _ZNK8casacore13CombiFunctionIdE7cloneADEv@Base 3.2.1-1kern1
 _ZNK8casacore13CompiledParamINS_8AutoDiffISt7complexIdEEEE4nameEv@Base 3.2.1-1kern1
 _ZNK8casacore13CompiledParamINS_8AutoDiffISt7complexIdEEEE4ndimEv@Base 3.2.1-1kern1
 _ZNK8casacore13CompiledParamINS_8AutoDiffIdEEE4nameEv@Base 3.2.1-1kern1
 _ZNK8casacore13CompiledParamINS_8AutoDiffIdEEE4ndimEv@Base 3.2.1-1kern1
 _ZNK8casacore13CompiledParamISt7complexIdEE4nameEv@Base 3.2.1-1kern1
 _ZNK8casacore13CompiledParamISt7complexIdEE4ndimEv@Base 3.2.1-1kern1
 _ZNK8casacore13CompiledParamIdE4nameEv@Base 3.2.1-1kern1
 _ZNK8casacore13CompiledParamIdE4ndimEv@Base 3.2.1-1kern1
 _ZNK8casacore13CompoundParamINS_8AutoDiffISt7complexIdEEEE4nameEv@Base 3.2.1-1kern1
 _ZNK8casacore13CompoundParamINS_8AutoDiffISt7complexIdEEEE4ndimEv@Base 3.2.1-1kern1
 _ZNK8casacore13CompoundParamINS_8AutoDiffIdEEE4nameEv@Base 3.2.1-1kern1
 _ZNK8casacore13CompoundParamINS_8AutoDiffIdEEE4ndimEv@Base 3.2.1-1kern1
 _ZNK8casacore13CompoundParamISt7complexIdEE4nameEv@Base 3.2.1-1kern1
 _ZNK8casacore13CompoundParamISt7complexIdEE4ndimEv@Base 3.2.1-1kern1
 _ZNK8casacore13CompoundParamIdE4nameEv@Base 3.2.1-1kern1
 _ZNK8casacore13CompoundParamIdE4ndimEv@Base 3.2.1-1kern1
 _ZNK8casacore13FunctionParamINS_8AutoDiffISt7complexIdEEEE15createMaskedPtrEv@Base 3.2.1-1kern1
 _ZNK8casacore13FunctionParamINS_8AutoDiffIdEEE15createMaskedPtrEv@Base 3.2.1-1kern1
 _ZNK8casacore13Interpolate1DIddE23polynomialInterpolationEdjj@Base 3.2.1-1kern1
 _ZNK8casacore13Interpolate1DIddE4evalEPKd@Base 3.2.1-1kern1
 _ZNK8casacore13Interpolate1DIddE4nameEv@Base 3.2.1-1kern1
 _ZNK8casacore13Interpolate1DIddE5cloneEv@Base 3.2.1-1kern1
 _ZNK8casacore13Interpolate2D11interpCubicIdEEbRT_RKNS_6VectorIdEERKNS_6MatrixIS2_EERPKNS8_IbEE@Base 3.2.1-1kern1
 _ZNK8casacore13Interpolate2D11interpCubicIfEEbRT_RKNS_6VectorIdEERKNS_6MatrixIS2_EERPKNS8_IbEE@Base 3.2.1-1kern1
 _ZNK8casacore13Interpolate2D12interpLinearIdEEbRT_RKNS_6VectorIdEERKNS_6MatrixIS2_EERPKNS8_IbEE@Base 3.2.1-1kern1
 _ZNK8casacore13Interpolate2D12interpLinearIfEEbRT_RKNS_6VectorIdEERKNS_6MatrixIS2_EERPKNS8_IbEE@Base 3.2.1-1kern1
 _ZNK8casacore13Interpolate2D13interpLanczosIdEEbRT_RKNS_6VectorIdEERKNS_6MatrixIS2_EERPKNS8_IbEE@Base 3.2.1-1kern1
 _ZNK8casacore13Interpolate2D13interpLanczosIfEEbRT_RKNS_6VectorIdEERKNS_6MatrixIS2_EERPKNS8_IbEE@Base 3.2.1-1kern1
 _ZNK8casacore13Interpolate2D13interpLinear2IdEEbRT_S3_RKNS_6VectorIdEERKNS_6MatrixIS2_EESB_RKNS8_IbEE@Base 3.2.1-1kern1
 _ZNK8casacore13Interpolate2D13interpNearestIdEEbRT_RKNS_6VectorIdEERKNS_6MatrixIS2_EERPKNS8_IbEE@Base 3.2.1-1kern1
 _ZNK8casacore13Interpolate2D13interpNearestIfEEbRT_RKNS_6VectorIdEERKNS_6MatrixIS2_EERPKNS8_IbEE@Base 3.2.1-1kern1
 _ZNK8casacore13Interpolate2D15interpCubicBoolERbRKNS_6VectorIdEERKNS_6MatrixIbEE@Base 3.2.1-1kern1
 _ZNK8casacore13Interpolate2D16anyBadMaskPixelsERPKNS_6MatrixIbEEiiii@Base 3.2.1-1kern1
 _ZNK8casacore13Interpolate2D16interpLinearBoolERbRKNS_6VectorIdEERKNS_6MatrixIbEE@Base 3.2.1-1kern1
 _ZNK8casacore13Interpolate2D17interpLanczosBoolERbRKNS_6VectorIdEERKNS_6MatrixIbEE@Base 3.2.1-1kern1
 _ZNK8casacore13Interpolate2D17interpNearestBoolERbRKNS_6VectorIdEERKNS_6MatrixIbEE@Base 3.2.1-1kern1
 _ZNK8casacore13Interpolate2D6bcucofEPA4_dPKdS4_S4_S4_@Base 3.2.1-1kern1
 _ZNK8casacore13Interpolate2D6interpERSt7complexIdERKNS_6VectorIdEERKNS_6MatrixIS2_EE@Base 3.2.1-1kern1
 _ZNK8casacore13Interpolate2D6interpERSt7complexIdERKNS_6VectorIdEERKNS_6MatrixIS2_EERKNS8_IbEE@Base 3.2.1-1kern1
 _ZNK8casacore13Interpolate2D6interpERSt7complexIfERKNS_6VectorIdEERKNS_6MatrixIS2_EE@Base 3.2.1-1kern1
 _ZNK8casacore13Interpolate2D6interpERSt7complexIfERKNS_6VectorIdEERKNS_6MatrixIS2_EERKNS8_IbEE@Base 3.2.1-1kern1
 _ZNK8casacore13Interpolate2D6interpERbRKNS_6VectorIdEERKNS_6MatrixIbEE@Base 3.2.1-1kern1
 _ZNK8casacore13Interpolate2D6interpERdRKNS_6VectorIdEERKNS_6MatrixIdEE@Base 3.2.1-1kern1
 _ZNK8casacore13Interpolate2D6interpERdRKNS_6VectorIdEERKNS_6MatrixIdEERKNS6_IbEE@Base 3.2.1-1kern1
 _ZNK8casacore13Interpolate2D6interpERdS1_RKNS_6VectorIdEERKNS_6MatrixIdEES9_RKNS6_IbEE@Base 3.2.1-1kern1
 _ZNK8casacore13Interpolate2D6interpERfRKNS_6VectorIdEERKNS_6MatrixIfEE@Base 3.2.1-1kern1
 _ZNK8casacore13Interpolate2D6interpERfRKNS_6VectorIdEERKNS_6MatrixIfEERKNS6_IbEE@Base 3.2.1-1kern1
 _ZNK8casacore13OddPolynomialINS_8AutoDiffISt7complexIdEEEE10cloneNonADEv@Base 3.2.1-1kern1
 _ZNK8casacore13OddPolynomialINS_8AutoDiffISt7complexIdEEEE4evalEPKS3_@Base 3.2.1-1kern1
 _ZNK8casacore13OddPolynomialINS_8AutoDiffISt7complexIdEEEE5cloneEv@Base 3.2.1-1kern1
 _ZNK8casacore13OddPolynomialINS_8AutoDiffISt7complexIdEEEE7cloneADEv@Base 3.2.1-1kern1
 _ZNK8casacore13OddPolynomialINS_8AutoDiffIdEEE10cloneNonADEv@Base 3.2.1-1kern1
 _ZNK8casacore13OddPolynomialINS_8AutoDiffIdEEE4evalEPKd@Base 3.2.1-1kern1
 _ZNK8casacore13OddPolynomialINS_8AutoDiffIdEEE5cloneEv@Base 3.2.1-1kern1
 _ZNK8casacore13OddPolynomialINS_8AutoDiffIdEEE7cloneADEv@Base 3.2.1-1kern1
 _ZNK8casacore13OddPolynomialISt7complexIdEE10cloneNonADEv@Base 3.2.1-1kern1
 _ZNK8casacore13OddPolynomialISt7complexIdEE4evalEPKS2_@Base 3.2.1-1kern1
 _ZNK8casacore13OddPolynomialISt7complexIdEE5cloneEv@Base 3.2.1-1kern1
 _ZNK8casacore13OddPolynomialISt7complexIdEE7cloneADEv@Base 3.2.1-1kern1
 _ZNK8casacore13OddPolynomialIdE10cloneNonADEv@Base 3.2.1-1kern1
 _ZNK8casacore13OddPolynomialIdE4evalEPKd@Base 3.2.1-1kern1
 _ZNK8casacore13OddPolynomialIdE5cloneEv@Base 3.2.1-1kern1
 _ZNK8casacore13OddPolynomialIdE7cloneADEv@Base 3.2.1-1kern1
 _ZNK8casacore14ChebyshevParamINS_8AutoDiffISt7complexIdEEEE4nameEv@Base 3.2.1-1kern1
 _ZNK8casacore14ChebyshevParamINS_8AutoDiffIdEEE4nameEv@Base 3.2.1-1kern1
 _ZNK8casacore14ChebyshevParamISt7complexIdEE4nameEv@Base 3.2.1-1kern1
 _ZNK8casacore14ChebyshevParamIdE4nameEv@Base 3.2.1-1kern1
 _ZNK8casacore14EvenPolynomialINS_8AutoDiffISt7complexIdEEEE10cloneNonADEv@Base 3.2.1-1kern1
 _ZNK8casacore14EvenPolynomialINS_8AutoDiffISt7complexIdEEEE4evalEPKS3_@Base 3.2.1-1kern1
 _ZNK8casacore14EvenPolynomialINS_8AutoDiffISt7complexIdEEEE5cloneEv@Base 3.2.1-1kern1
 _ZNK8casacore14EvenPolynomialINS_8AutoDiffISt7complexIdEEEE7cloneADEv@Base 3.2.1-1kern1
 _ZNK8casacore14EvenPolynomialINS_8AutoDiffIdEEE10cloneNonADEv@Base 3.2.1-1kern1
 _ZNK8casacore14EvenPolynomialINS_8AutoDiffIdEEE4evalEPKd@Base 3.2.1-1kern1
 _ZNK8casacore14EvenPolynomialINS_8AutoDiffIdEEE5cloneEv@Base 3.2.1-1kern1
 _ZNK8casacore14EvenPolynomialINS_8AutoDiffIdEEE7cloneADEv@Base 3.2.1-1kern1
 _ZNK8casacore14EvenPolynomialISt7complexIdEE10cloneNonADEv@Base 3.2.1-1kern1
 _ZNK8casacore14EvenPolynomialISt7complexIdEE4evalEPKS2_@Base 3.2.1-1kern1
 _ZNK8casacore14EvenPolynomialISt7complexIdEE5cloneEv@Base 3.2.1-1kern1
 _ZNK8casacore14EvenPolynomialISt7complexIdEE7cloneADEv@Base 3.2.1-1kern1
 _ZNK8casacore14EvenPolynomialIdE10cloneNonADEv@Base 3.2.1-1kern1
 _ZNK8casacore14EvenPolynomialIdE4evalEPKd@Base 3.2.1-1kern1
 _ZNK8casacore14EvenPolynomialIdE5cloneEv@Base 3.2.1-1kern1
 _ZNK8casacore14EvenPolynomialIdE7cloneADEv@Base 3.2.1-1kern1
 _ZNK8casacore14FuncExpression4execERd@Base 3.2.1-1kern1
 _ZNK8casacore14FuncExpression5printERSo@Base 3.2.1-1kern1
 _ZNK8casacore14FuncExpression7getCodeEv@Base 3.2.1-1kern1
 _ZNK8casacore14FunctionHolderISt7complexIdEE10asFunctionEv@Base 3.2.1-1kern1
 _ZNK8casacore14FunctionHolderISt7complexIdEE4initEv@Base 3.2.1-1kern1
 _ZNK8casacore14FunctionHolderISt7complexIdEE5identEv@Base 3.2.1-1kern1
 _ZNK8casacore14FunctionHolderISt7complexIdEE7putTypeERNS_6StringERNS_15RecordInterfaceE@Base 3.2.1-1kern1
 _ZNK8casacore14FunctionHolderISt7complexIdEE8toRecordERNS_6StringERNS_15RecordInterfaceE@Base 3.2.1-1kern1
 _ZNK8casacore14FunctionHolderIdE10asFunctionEv@Base 3.2.1-1kern1
 _ZNK8casacore14FunctionHolderIdE4initEv@Base 3.2.1-1kern1
 _ZNK8casacore14FunctionHolderIdE5identEv@Base 3.2.1-1kern1
 _ZNK8casacore14FunctionHolderIdE7putTypeERNS_6StringERNS_15RecordInterfaceE@Base 3.2.1-1kern1
 _ZNK8casacore14FunctionHolderIdE8toRecordERNS_6StringERNS_15RecordInterfaceE@Base 3.2.1-1kern1
 _ZNK8casacore15FunctionalProxy10parametersEv@Base 3.2.1-1kern1
 _ZNK8casacore15FunctionalProxy11parameterscEv@Base 3.2.1-1kern1
 _ZNK8casacore15FunctionalProxy4ndimEv@Base 3.2.1-1kern1
 _ZNK8casacore15FunctionalProxy4nparEv@Base 3.2.1-1kern1
 _ZNK8casacore15FunctionalProxy5masksEv@Base 3.2.1-1kern1
 _ZNK8casacore15Gaussian1DParamINS_8AutoDiffISt7complexIdEEEE4nameEv@Base 3.2.1-1kern1
 _ZNK8casacore15Gaussian1DParamINS_8AutoDiffIdEEE4nameEv@Base 3.2.1-1kern1
 _ZNK8casacore15Gaussian1DParamISt7complexIdEE4nameEv@Base 3.2.1-1kern1
 _ZNK8casacore15Gaussian1DParamIdE4nameEv@Base 3.2.1-1kern1
 _ZNK8casacore15Gaussian2DParamINS_8AutoDiffISt7complexIdEEEE2PAEv@Base 3.2.1-1kern1
 _ZNK8casacore15Gaussian2DParamINS_8AutoDiffISt7complexIdEEEE4nameEv@Base 3.2.1-1kern1
 _ZNK8casacore15Gaussian2DParamINS_8AutoDiffISt7complexIdEEEE4ndimEv@Base 3.2.1-1kern1
 _ZNK8casacore15Gaussian2DParamINS_8AutoDiffISt7complexIdEEEE9majorAxisEv@Base 3.2.1-1kern1
 _ZNK8casacore15Gaussian2DParamINS_8AutoDiffIdEEE2PAEv@Base 3.2.1-1kern1
 _ZNK8casacore15Gaussian2DParamINS_8AutoDiffIdEEE4nameEv@Base 3.2.1-1kern1
 _ZNK8casacore15Gaussian2DParamINS_8AutoDiffIdEEE4ndimEv@Base 3.2.1-1kern1
 _ZNK8casacore15Gaussian2DParamINS_8AutoDiffIdEEE9majorAxisEv@Base 3.2.1-1kern1
 _ZNK8casacore15Gaussian2DParamISt7complexIdEE2PAEv@Base 3.2.1-1kern1
 _ZNK8casacore15Gaussian2DParamISt7complexIdEE4nameEv@Base 3.2.1-1kern1
 _ZNK8casacore15Gaussian2DParamISt7complexIdEE4ndimEv@Base 3.2.1-1kern1
 _ZNK8casacore15Gaussian2DParamISt7complexIdEE9majorAxisEv@Base 3.2.1-1kern1
 _ZNK8casacore15Gaussian2DParamIdE2PAEv@Base 3.2.1-1kern1
 _ZNK8casacore15Gaussian2DParamIdE4nameEv@Base 3.2.1-1kern1
 _ZNK8casacore15Gaussian2DParamIdE4ndimEv@Base 3.2.1-1kern1
 _ZNK8casacore15Gaussian3DParamINS_8AutoDiffISt7complexIdEEEE11settrigvalsEv@Base 3.2.1-1kern1
 _ZNK8casacore15Gaussian3DParamINS_8AutoDiffISt7complexIdEEEE4nameEv@Base 3.2.1-1kern1
 _ZNK8casacore15Gaussian3DParamINS_8AutoDiffISt7complexIdEEEE4ndimEv@Base 3.2.1-1kern1
 _ZNK8casacore15Gaussian3DParamINS_8AutoDiffIdEEE11settrigvalsEv@Base 3.2.1-1kern1
 _ZNK8casacore15Gaussian3DParamINS_8AutoDiffIdEEE4nameEv@Base 3.2.1-1kern1
 _ZNK8casacore15Gaussian3DParamINS_8AutoDiffIdEEE4ndimEv@Base 3.2.1-1kern1
 _ZNK8casacore15Gaussian3DParamISt7complexIdEE11settrigvalsEv@Base 3.2.1-1kern1
 _ZNK8casacore15Gaussian3DParamISt7complexIdEE4nameEv@Base 3.2.1-1kern1
 _ZNK8casacore15Gaussian3DParamISt7complexIdEE4ndimEv@Base 3.2.1-1kern1
 _ZNK8casacore15Gaussian3DParamIdE11settrigvalsEv@Base 3.2.1-1kern1
 _ZNK8casacore15Gaussian3DParamIdE4nameEv@Base 3.2.1-1kern1
 _ZNK8casacore15Gaussian3DParamIdE4ndimEv@Base 3.2.1-1kern1
 _ZNK8casacore15GaussianNDParamINS_8AutoDiffISt7complexIdEEEE4nameEv@Base 3.2.1-1kern1
 _ZNK8casacore15GaussianNDParamINS_8AutoDiffISt7complexIdEEEE4ndimEv@Base 3.2.1-1kern1
 _ZNK8casacore15GaussianNDParamINS_8AutoDiffIdEEE4nameEv@Base 3.2.1-1kern1
 _ZNK8casacore15GaussianNDParamINS_8AutoDiffIdEEE4ndimEv@Base 3.2.1-1kern1
 _ZNK8casacore15GaussianNDParamISt7complexIdEE4nameEv@Base 3.2.1-1kern1
 _ZNK8casacore15GaussianNDParamISt7complexIdEE4ndimEv@Base 3.2.1-1kern1
 _ZNK8casacore15GaussianNDParamIdE4nameEv@Base 3.2.1-1kern1
 _ZNK8casacore15GaussianNDParamIdE4ndimEv@Base 3.2.1-1kern1
 _ZNK8casacore15HyperPlaneParamINS_8AutoDiffISt7complexIdEEEE4nameEv@Base 3.2.1-1kern1
 _ZNK8casacore15HyperPlaneParamINS_8AutoDiffISt7complexIdEEEE4ndimEv@Base 3.2.1-1kern1
 _ZNK8casacore15HyperPlaneParamINS_8AutoDiffIdEEE4nameEv@Base 3.2.1-1kern1
 _ZNK8casacore15HyperPlaneParamINS_8AutoDiffIdEEE4ndimEv@Base 3.2.1-1kern1
 _ZNK8casacore15HyperPlaneParamISt7complexIdEE4nameEv@Base 3.2.1-1kern1
 _ZNK8casacore15HyperPlaneParamISt7complexIdEE4ndimEv@Base 3.2.1-1kern1
 _ZNK8casacore15HyperPlaneParamIdE4nameEv@Base 3.2.1-1kern1
 _ZNK8casacore15HyperPlaneParamIdE4ndimEv@Base 3.2.1-1kern1
 _ZNK8casacore15PolynomialParamINS_8AutoDiffISt7complexIdEEEE4nameEv@Base 3.2.1-1kern1
 _ZNK8casacore15PolynomialParamINS_8AutoDiffIdEEE4nameEv@Base 3.2.1-1kern1
 _ZNK8casacore15PolynomialParamISt7complexIdEE4nameEv@Base 3.2.1-1kern1
 _ZNK8casacore15PolynomialParamIdE4nameEv@Base 3.2.1-1kern1
 _ZNK8casacore15Sinusoid1DParamINS_8AutoDiffISt7complexIdEEEE4nameEv@Base 3.2.1-1kern1
 _ZNK8casacore15Sinusoid1DParamINS_8AutoDiffIdEEE4nameEv@Base 3.2.1-1kern1
 _ZNK8casacore15Sinusoid1DParamISt7complexIdEE4nameEv@Base 3.2.1-1kern1
 _ZNK8casacore15Sinusoid1DParamIdE4nameEv@Base 3.2.1-1kern1
 _ZNK8casacore16CompiledFunctionINS_8AutoDiffISt7complexIdEEEE10cloneNonADEv@Base 3.2.1-1kern1
 _ZNK8casacore16CompiledFunctionINS_8AutoDiffISt7complexIdEEEE4evalEPKS3_@Base 3.2.1-1kern1
 _ZNK8casacore16CompiledFunctionINS_8AutoDiffISt7complexIdEEEE5cloneEv@Base 3.2.1-1kern1
 _ZNK8casacore16CompiledFunctionINS_8AutoDiffISt7complexIdEEEE7cloneADEv@Base 3.2.1-1kern1
 _ZNK8casacore16CompiledFunctionINS_8AutoDiffIdEEE10cloneNonADEv@Base 3.2.1-1kern1
 _ZNK8casacore16CompiledFunctionINS_8AutoDiffIdEEE4evalEPKd@Base 3.2.1-1kern1
 _ZNK8casacore16CompiledFunctionINS_8AutoDiffIdEEE5cloneEv@Base 3.2.1-1kern1
 _ZNK8casacore16CompiledFunctionINS_8AutoDiffIdEEE7cloneADEv@Base 3.2.1-1kern1
 _ZNK8casacore16CompiledFunctionISt7complexIdEE10cloneNonADEv@Base 3.2.1-1kern1
 _ZNK8casacore16CompiledFunctionISt7complexIdEE4evalEPKS2_@Base 3.2.1-1kern1
 _ZNK8casacore16CompiledFunctionISt7complexIdEE5cloneEv@Base 3.2.1-1kern1
 _ZNK8casacore16CompiledFunctionISt7complexIdEE7cloneADEv@Base 3.2.1-1kern1
 _ZNK8casacore16CompiledFunctionIdE10cloneNonADEv@Base 3.2.1-1kern1
 _ZNK8casacore16CompiledFunctionIdE4evalEPKd@Base 3.2.1-1kern1
 _ZNK8casacore16CompiledFunctionIdE5cloneEv@Base 3.2.1-1kern1
 _ZNK8casacore16CompiledFunctionIdE7cloneADEv@Base 3.2.1-1kern1
 _ZNK8casacore16CompoundFunctionINS_8AutoDiffISt7complexIdEEEE10cloneNonADEv@Base 3.2.1-1kern1
 _ZNK8casacore16CompoundFunctionINS_8AutoDiffISt7complexIdEEEE11fromParam_pEv@Base 3.2.1-1kern1
 _ZNK8casacore16CompoundFunctionINS_8AutoDiffISt7complexIdEEEE4evalEPKS3_@Base 3.2.1-1kern1
 _ZNK8casacore16CompoundFunctionINS_8AutoDiffISt7complexIdEEEE5cloneEv@Base 3.2.1-1kern1
 _ZNK8casacore16CompoundFunctionINS_8AutoDiffISt7complexIdEEEE7cloneADEv@Base 3.2.1-1kern1
 _ZNK8casacore16CompoundFunctionINS_8AutoDiffIdEEE10cloneNonADEv@Base 3.2.1-1kern1
 _ZNK8casacore16CompoundFunctionINS_8AutoDiffIdEEE11fromParam_pEv@Base 3.2.1-1kern1
 _ZNK8casacore16CompoundFunctionINS_8AutoDiffIdEEE4evalEPKd@Base 3.2.1-1kern1
 _ZNK8casacore16CompoundFunctionINS_8AutoDiffIdEEE5cloneEv@Base 3.2.1-1kern1
 _ZNK8casacore16CompoundFunctionINS_8AutoDiffIdEEE7cloneADEv@Base 3.2.1-1kern1
 _ZNK8casacore16CompoundFunctionISt7complexIdEE10cloneNonADEv@Base 3.2.1-1kern1
 _ZNK8casacore16CompoundFunctionISt7complexIdEE11fromParam_pEv@Base 3.2.1-1kern1
 _ZNK8casacore16CompoundFunctionISt7complexIdEE4evalEPKS2_@Base 3.2.1-1kern1
 _ZNK8casacore16CompoundFunctionISt7complexIdEE5cloneEv@Base 3.2.1-1kern1
 _ZNK8casacore16CompoundFunctionISt7complexIdEE7cloneADEv@Base 3.2.1-1kern1
 _ZNK8casacore16CompoundFunctionIdE10cloneNonADEv@Base 3.2.1-1kern1
 _ZNK8casacore16CompoundFunctionIdE11fromParam_pEv@Base 3.2.1-1kern1
 _ZNK8casacore16CompoundFunctionIdE4evalEPKd@Base 3.2.1-1kern1
 _ZNK8casacore16CompoundFunctionIdE5cloneEv@Base 3.2.1-1kern1
 _ZNK8casacore16CompoundFunctionIdE7cloneADEv@Base 3.2.1-1kern1
 _ZNK8casacore17Allocator_private17BulkAllocatorImplINS_17new_del_allocatorINS_6VectorIdEEEEE16allocator_typeidEv@Base 3.2.1-1kern1
 _ZNK8casacore17Allocator_private17BulkAllocatorImplINS_17new_del_allocatorINS_7QuantumIdEEEEE16allocator_typeidEv@Base 3.2.1-1kern1
 _ZNK8casacore17Allocator_private17BulkAllocatorImplINS_17new_del_allocatorINS_8AutoDiffISt7complexIdEEEEEE16allocator_typeidEv@Base 3.2.1-1kern1
 _ZNK8casacore17Allocator_private17BulkAllocatorImplINS_17new_del_allocatorINS_8AutoDiffIdEEEEE16allocator_typeidEv@Base 3.2.1-1kern1
 _ZNK8casacore17Allocator_private17BulkAllocatorImplINS_18casacore_allocatorINS_6VectorIdEELm32EEEE16allocator_typeidEv@Base 3.2.1-1kern1
 _ZNK8casacore17Allocator_private17BulkAllocatorImplINS_18casacore_allocatorINS_7QuantumIdEELm32EEEE16allocator_typeidEv@Base 3.2.1-1kern1
 _ZNK8casacore17Allocator_private17BulkAllocatorImplINS_18casacore_allocatorINS_8AutoDiffISt7complexIdEEELm32EEEE16allocator_typeidEv@Base 3.2.1-1kern1
 _ZNK8casacore17Allocator_private17BulkAllocatorImplINS_18casacore_allocatorINS_8AutoDiffIdEELm32EEEE16allocator_typeidEv@Base 3.2.1-1kern1
 _ZNK8casacore17Allocator_private17BulkAllocatorImplINS_18casacore_allocatorIPvLm32EEEE16allocator_typeidEv@Base 3.2.1-1kern1
 _ZNK8casacore17Allocator_private17BulkAllocatorImplINS_18casacore_allocatorISt7complexIdELm32EEEE16allocator_typeidEv@Base 3.2.1-1kern1
 _ZNK8casacore17Allocator_private17BulkAllocatorImplINS_18casacore_allocatorISt7complexIfELm32EEEE16allocator_typeidEv@Base 3.2.1-1kern1
 _ZNK8casacore17Allocator_private17BulkAllocatorImplINS_18casacore_allocatorIdLm32EEEE16allocator_typeidEv@Base 3.2.1-1kern1
 _ZNK8casacore17Allocator_private17BulkAllocatorImplINS_18casacore_allocatorIjLm32EEEE16allocator_typeidEv@Base 3.2.1-1kern1
 _ZNK8casacore18OddPolynomialParamINS_8AutoDiffISt7complexIdEEEE4nameEv@Base 3.2.1-1kern1
 _ZNK8casacore18OddPolynomialParamINS_8AutoDiffIdEEE4nameEv@Base 3.2.1-1kern1
 _ZNK8casacore18OddPolynomialParamISt7complexIdEE4nameEv@Base 3.2.1-1kern1
 _ZNK8casacore18OddPolynomialParamIdE4nameEv@Base 3.2.1-1kern1
 _ZNK8casacore19EvenPolynomialParamINS_8AutoDiffISt7complexIdEEEE4nameEv@Base 3.2.1-1kern1
 _ZNK8casacore19EvenPolynomialParamINS_8AutoDiffIdEEE4nameEv@Base 3.2.1-1kern1
 _ZNK8casacore19EvenPolynomialParamISt7complexIdEE4nameEv@Base 3.2.1-1kern1
 _ZNK8casacore19EvenPolynomialParamIdE4nameEv@Base 3.2.1-1kern1
 _ZNK8casacore22ChebyshevParamModeImplINS_8AutoDiffISt7complexIdEEEE7getModeERNS_15RecordInterfaceE@Base 3.2.1-1kern1
 _ZNK8casacore22ChebyshevParamModeImplINS_8AutoDiffIdEEE7getModeERNS_15RecordInterfaceE@Base 3.2.1-1kern1
 _ZNK8casacore22ChebyshevParamModeImplISt7complexIdEE7getModeERNS_15RecordInterfaceE@Base 3.2.1-1kern1
 _ZNK8casacore22ChebyshevParamModeImplISt7complexIdEE7hasModeEv@Base 3.2.1-1kern1
 _ZNK8casacore22ChebyshevParamModeImplIdE7getModeERNS_15RecordInterfaceE@Base 3.2.1-1kern1
 _ZNK8casacore22ChebyshevParamModeImplIdE7hasModeEv@Base 3.2.1-1kern1
 _ZNK8casacore22SimButterworthBandpassINS_8AutoDiffISt7complexIdEEEE4evalEPKS3_@Base 3.2.1-1kern1
 _ZNK8casacore22SimButterworthBandpassINS_8AutoDiffISt7complexIdEEEE5cloneEv@Base 3.2.1-1kern1
 _ZNK8casacore22SimButterworthBandpassINS_8AutoDiffISt7complexIdEEEE7getModeERNS_15RecordInterfaceE@Base 3.2.1-1kern1
 _ZNK8casacore22SimButterworthBandpassINS_8AutoDiffISt7complexIdEEEE7hasModeEv@Base 3.2.1-1kern1
 _ZNK8casacore22SimButterworthBandpassINS_8AutoDiffIdEEE4evalEPKd@Base 3.2.1-1kern1
 _ZNK8casacore22SimButterworthBandpassINS_8AutoDiffIdEEE5cloneEv@Base 3.2.1-1kern1
 _ZNK8casacore22SimButterworthBandpassINS_8AutoDiffIdEEE7getModeERNS_15RecordInterfaceE@Base 3.2.1-1kern1
 _ZNK8casacore22SimButterworthBandpassINS_8AutoDiffIdEEE7hasModeEv@Base 3.2.1-1kern1
 _ZNK8casacore22SimButterworthBandpassISt7complexIdEE4evalEPKS2_@Base 3.2.1-1kern1
 _ZNK8casacore22SimButterworthBandpassISt7complexIdEE5cloneEv@Base 3.2.1-1kern1
 _ZNK8casacore22SimButterworthBandpassISt7complexIdEE7getModeERNS_15RecordInterfaceE@Base 3.2.1-1kern1
 _ZNK8casacore22SimButterworthBandpassISt7complexIdEE7hasModeEv@Base 3.2.1-1kern1
 _ZNK8casacore22SimButterworthBandpassIdE4evalEPKd@Base 3.2.1-1kern1
 _ZNK8casacore22SimButterworthBandpassIdE5cloneEv@Base 3.2.1-1kern1
 _ZNK8casacore22SimButterworthBandpassIdE7getModeERNS_15RecordInterfaceE@Base 3.2.1-1kern1
 _ZNK8casacore22SimButterworthBandpassIdE7hasModeEv@Base 3.2.1-1kern1
 _ZNK8casacore23ScalarSampledFunctionalIdE9nelementsEv@Base 3.2.1-1kern1
 _ZNK8casacore23ScalarSampledFunctionalIdEclERKj@Base 3.2.1-1kern1
 _ZNK8casacore5ArrayINS_6VectorIdEEE10getSectionERKNS_6SlicerE@Base 3.2.1-1kern1
 _ZNK8casacore5ArrayINS_6VectorIdEEE11freeStorageERPKS2_b@Base 3.2.1-1kern1
 _ZNK8casacore5ArrayINS_6VectorIdEEE11getVStorageERb@Base 3.2.1-1kern1
 _ZNK8casacore5ArrayINS_6VectorIdEEE12freeVStorageERPKvb@Base 3.2.1-1kern1
 _ZNK8casacore5ArrayINS_6VectorIdEEE12makeIteratorEj@Base 3.2.1-1kern1
 _ZNK8casacore5ArrayINS_6VectorIdEEE18nonNewDelAllocatorEv@Base 3.2.1-1kern1
 _ZNK8casacore5ArrayINS_6VectorIdEEE2okEv@Base 3.2.1-1kern1
 _ZNK8casacore5ArrayINS_6VectorIdEEE9makeArrayEv@Base 3.2.1-1kern1
 _ZNK8casacore5ArrayINS_7QuantumIdEEE10getSectionERKNS_6SlicerE@Base 3.2.1-1kern1
 _ZNK8casacore5ArrayINS_7QuantumIdEEE11freeStorageERPKS2_b@Base 3.2.1-1kern1
 _ZNK8casacore5ArrayINS_7QuantumIdEEE11getVStorageERb@Base 3.2.1-1kern1
 _ZNK8casacore5ArrayINS_7QuantumIdEEE12freeVStorageERPKvb@Base 3.2.1-1kern1
 _ZNK8casacore5ArrayINS_7QuantumIdEEE12makeIteratorEj@Base 3.2.1-1kern1
 _ZNK8casacore5ArrayINS_7QuantumIdEEE18nonNewDelAllocatorEv@Base 3.2.1-1kern1
 _ZNK8casacore5ArrayINS_7QuantumIdEEE2okEv@Base 3.2.1-1kern1
 _ZNK8casacore5ArrayINS_7QuantumIdEEE9makeArrayEv@Base 3.2.1-1kern1
 _ZNK8casacore5ArrayINS_8AutoDiffISt7complexIdEEEE10getSectionERKNS_6SlicerE@Base 3.2.1-1kern1
 _ZNK8casacore5ArrayINS_8AutoDiffISt7complexIdEEEE11freeStorageERPKS4_b@Base 3.2.1-1kern1
 _ZNK8casacore5ArrayINS_8AutoDiffISt7complexIdEEEE11getVStorageERb@Base 3.2.1-1kern1
 _ZNK8casacore5ArrayINS_8AutoDiffISt7complexIdEEEE12freeVStorageERPKvb@Base 3.2.1-1kern1
 _ZNK8casacore5ArrayINS_8AutoDiffISt7complexIdEEEE12makeIteratorEj@Base 3.2.1-1kern1
 _ZNK8casacore5ArrayINS_8AutoDiffISt7complexIdEEEE18nonNewDelAllocatorEv@Base 3.2.1-1kern1
 _ZNK8casacore5ArrayINS_8AutoDiffISt7complexIdEEEE2okEv@Base 3.2.1-1kern1
 _ZNK8casacore5ArrayINS_8AutoDiffISt7complexIdEEEE9makeArrayEv@Base 3.2.1-1kern1
 _ZNK8casacore5ArrayINS_8AutoDiffIdEEE10getSectionERKNS_6SlicerE@Base 3.2.1-1kern1
 _ZNK8casacore5ArrayINS_8AutoDiffIdEEE11freeStorageERPKS2_b@Base 3.2.1-1kern1
 _ZNK8casacore5ArrayINS_8AutoDiffIdEEE11getVStorageERb@Base 3.2.1-1kern1
 _ZNK8casacore5ArrayINS_8AutoDiffIdEEE12freeVStorageERPKvb@Base 3.2.1-1kern1
 _ZNK8casacore5ArrayINS_8AutoDiffIdEEE12makeIteratorEj@Base 3.2.1-1kern1
 _ZNK8casacore5ArrayINS_8AutoDiffIdEEE18nonNewDelAllocatorEv@Base 3.2.1-1kern1
 _ZNK8casacore5ArrayINS_8AutoDiffIdEEE2okEv@Base 3.2.1-1kern1
 _ZNK8casacore5ArrayINS_8AutoDiffIdEEE9makeArrayEv@Base 3.2.1-1kern1
 _ZNK8casacore6LSQFit12normInfKnownEPKd@Base 3.2.1-1kern1
 _ZNK8casacore6LSQFit12normSolutionEPKd@Base 3.2.1-1kern1
 _ZNK8casacore6LSQFit13getWeightedSDEv@Base 3.2.1-1kern1
 _ZNK8casacore6LSQFit5getSDEv@Base 3.2.1-1kern1
 _ZNK8casacore6LSQFit5identEv@Base 3.2.1-1kern1
 _ZNK8casacore6LSQFit6getChiEv@Base 3.2.1-1kern1
 _ZNK8casacore6LSQFit7debugItERjS1_S1_S1_S1_RPdS3_S3_S3_RPjS3_S3_RdS6_@Base 3.2.1-1kern1
 _ZNK8casacore6LSQFit8toAipsIOERNS_6AipsIOE@Base 3.2.1-1kern1
 _ZNK8casacore6LSQFit8toRecordERNS_6StringERNS_15RecordInterfaceE@Base 3.2.1-1kern1
 _ZNK8casacore6LSQFit9readyTextB5cxx11Ev@Base 3.2.1-1kern1
 _ZNK8casacore6VectorINS0_IdEEE2okEv@Base 3.2.1-1kern1
 _ZNK8casacore6VectorINS_7QuantumIdEEE2okEv@Base 3.2.1-1kern1
 _ZNK8casacore6VectorINS_8AutoDiffISt7complexIdEEEE2okEv@Base 3.2.1-1kern1
 _ZNK8casacore6VectorINS_8AutoDiffIdEEE2okEv@Base 3.2.1-1kern1
 _ZNK8casacore8AutoDiffISt7complexIdEE11derivativesERNS_6VectorIS2_EE@Base 3.2.1-1kern1
 _ZNK8casacore8AutoDiffIdE11derivativesERNS_6VectorIdEE@Base 3.2.1-1kern1
 _ZNK8casacore8FunctionINS_8AutoDiffISt7complexIdEEES4_E10cloneNonADEv@Base 3.2.1-1kern1
 _ZNK8casacore8FunctionINS_8AutoDiffISt7complexIdEEES4_E4nameEv@Base 3.2.1-1kern1
 _ZNK8casacore8FunctionINS_8AutoDiffISt7complexIdEEES4_E7cloneADEv@Base 3.2.1-1kern1
 _ZNK8casacore8FunctionINS_8AutoDiffISt7complexIdEEES4_E7getModeERNS_15RecordInterfaceE@Base 3.2.1-1kern1
 _ZNK8casacore8FunctionINS_8AutoDiffISt7complexIdEEES4_E7hasModeEv@Base 3.2.1-1kern1
 _ZNK8casacore8FunctionINS_8AutoDiffISt7complexIdEEES4_EclEPKS3_@Base 3.2.1-1kern1
 _ZNK8casacore8FunctionINS_8AutoDiffISt7complexIdEEES4_EclERKNS_6VectorIS3_EE@Base 3.2.1-1kern1
 _ZNK8casacore8FunctionINS_8AutoDiffISt7complexIdEEES4_EclERKS3_@Base 3.2.1-1kern1
 _ZNK8casacore8FunctionINS_8AutoDiffISt7complexIdEEES4_EclERKS3_S7_@Base 3.2.1-1kern1
 _ZNK8casacore8FunctionINS_8AutoDiffISt7complexIdEEES4_EclERKS3_S7_S7_@Base 3.2.1-1kern1
 _ZNK8casacore8FunctionINS_8AutoDiffISt7complexIdEEES4_EclEv@Base 3.2.1-1kern1
 _ZNK8casacore8FunctionINS_8AutoDiffIdEES2_E10cloneNonADEv@Base 3.2.1-1kern1
 _ZNK8casacore8FunctionINS_8AutoDiffIdEES2_E4nameEv@Base 3.2.1-1kern1
 _ZNK8casacore8FunctionINS_8AutoDiffIdEES2_E7cloneADEv@Base 3.2.1-1kern1
 _ZNK8casacore8FunctionINS_8AutoDiffIdEES2_E7getModeERNS_15RecordInterfaceE@Base 3.2.1-1kern1
 _ZNK8casacore8FunctionINS_8AutoDiffIdEES2_E7hasModeEv@Base 3.2.1-1kern1
 _ZNK8casacore8FunctionINS_8AutoDiffIdEES2_EclEPKd@Base 3.2.1-1kern1
 _ZNK8casacore8FunctionINS_8AutoDiffIdEES2_EclERKNS_6VectorIdEE@Base 3.2.1-1kern1
 _ZNK8casacore8FunctionINS_8AutoDiffIdEES2_EclERKd@Base 3.2.1-1kern1
 _ZNK8casacore8FunctionINS_8AutoDiffIdEES2_EclERKdS5_@Base 3.2.1-1kern1
 _ZNK8casacore8FunctionINS_8AutoDiffIdEES2_EclERKdS5_S5_@Base 3.2.1-1kern1
 _ZNK8casacore8FunctionINS_8AutoDiffIdEES2_EclEv@Base 3.2.1-1kern1
 _ZNK8casacore8FunctionISt7complexIdES2_E10cloneNonADEv@Base 3.2.1-1kern1
 _ZNK8casacore8FunctionISt7complexIdES2_E4nameEv@Base 3.2.1-1kern1
 _ZNK8casacore8FunctionISt7complexIdES2_E7cloneADEv@Base 3.2.1-1kern1
 _ZNK8casacore8FunctionISt7complexIdES2_E7getModeERNS_15RecordInterfaceE@Base 3.2.1-1kern1
 _ZNK8casacore8FunctionISt7complexIdES2_E7hasModeEv@Base 3.2.1-1kern1
 _ZNK8casacore8FunctionISt7complexIdES2_EclEPKS2_@Base 3.2.1-1kern1
 _ZNK8casacore8FunctionISt7complexIdES2_EclERKNS_6VectorIS2_EE@Base 3.2.1-1kern1
 _ZNK8casacore8FunctionISt7complexIdES2_EclERKS2_@Base 3.2.1-1kern1
 _ZNK8casacore8FunctionISt7complexIdES2_EclERKS2_S5_@Base 3.2.1-1kern1
 _ZNK8casacore8FunctionISt7complexIdES2_EclERKS2_S5_S5_@Base 3.2.1-1kern1
 _ZNK8casacore8FunctionISt7complexIdES2_EclEv@Base 3.2.1-1kern1
 _ZNK8casacore8FunctionIddE10cloneNonADEv@Base 3.2.1-1kern1
 _ZNK8casacore8FunctionIddE4nameEv@Base 3.2.1-1kern1
 _ZNK8casacore8FunctionIddE7cloneADEv@Base 3.2.1-1kern1
 _ZNK8casacore8FunctionIddE7getModeERNS_15RecordInterfaceE@Base 3.2.1-1kern1
 _ZNK8casacore8FunctionIddE7hasModeEv@Base 3.2.1-1kern1
 _ZNK8casacore8FunctionIddEclEPKd@Base 3.2.1-1kern1
 _ZNK8casacore8FunctionIddEclERKNS_6VectorIdEE@Base 3.2.1-1kern1
 _ZNK8casacore8FunctionIddEclERKd@Base 3.2.1-1kern1
 _ZNK8casacore8FunctionIddEclERKdS3_@Base 3.2.1-1kern1
 _ZNK8casacore8FunctionIddEclERKdS3_S3_@Base 3.2.1-1kern1
 _ZNK8casacore8FunctionIddEclEv@Base 3.2.1-1kern1
 _ZNK8casacore9AipsError4whatEv@Base 3.2.1-1kern1
 _ZNK8casacore9ChebyshevINS_8AutoDiffISt7complexIdEEEE4evalEPKS3_@Base 3.2.1-1kern1
 _ZNK8casacore9ChebyshevINS_8AutoDiffISt7complexIdEEEE5cloneEv@Base 3.2.1-1kern1
 _ZNK8casacore9ChebyshevINS_8AutoDiffIdEEE4evalEPKd@Base 3.2.1-1kern1
 _ZNK8casacore9ChebyshevINS_8AutoDiffIdEEE5cloneEv@Base 3.2.1-1kern1
 _ZNK8casacore9ChebyshevISt7complexIdEE4evalEPKS2_@Base 3.2.1-1kern1
 _ZNK8casacore9ChebyshevISt7complexIdEE5cloneEv@Base 3.2.1-1kern1
 _ZNK8casacore9ChebyshevIdE4evalEPKd@Base 3.2.1-1kern1
 _ZNK8casacore9ChebyshevIdE5cloneEv@Base 3.2.1-1kern1
 _ZNK8casacore9LSQMatrix5identEv@Base 3.2.1-1kern1
 _ZNK8casacore9LSQMatrix8toAipsIOERNS_6AipsIOE@Base 3.2.1-1kern1
 _ZNK8casacore9LSQMatrix8toRecordERNS_6StringERNS_15RecordInterfaceE@Base 3.2.1-1kern1
 _ZNKSt5ctypeIcE8do_widenEc@Base 3.2.1-1kern1
 _ZNSt15_Sp_counted_ptrIPN8casacore5BlockINS0_6VectorIdEEEELN9__gnu_cxx12_Lock_policyE2EE10_M_destroyEv@Base 3.2.1-1kern1
 _ZNSt15_Sp_counted_ptrIPN8casacore5BlockINS0_6VectorIdEEEELN9__gnu_cxx12_Lock_policyE2EE10_M_disposeEv@Base 3.2.1-1kern1
 _ZNSt15_Sp_counted_ptrIPN8casacore5BlockINS0_6VectorIdEEEELN9__gnu_cxx12_Lock_policyE2EE14_M_get_deleterERKSt9type_info@Base 3.2.1-1kern1
 _ZNSt15_Sp_counted_ptrIPN8casacore5BlockINS0_6VectorIdEEEELN9__gnu_cxx12_Lock_policyE2EED0Ev@Base 3.2.1-1kern1
 _ZNSt15_Sp_counted_ptrIPN8casacore5BlockINS0_6VectorIdEEEELN9__gnu_cxx12_Lock_policyE2EED1Ev@Base 3.2.1-1kern1
 _ZNSt15_Sp_counted_ptrIPN8casacore5BlockINS0_6VectorIdEEEELN9__gnu_cxx12_Lock_policyE2EED2Ev@Base 3.2.1-1kern1
 _ZNSt15_Sp_counted_ptrIPN8casacore5BlockINS0_7QuantumIdEEEELN9__gnu_cxx12_Lock_policyE2EE10_M_destroyEv@Base 3.2.1-1kern1
 _ZNSt15_Sp_counted_ptrIPN8casacore5BlockINS0_7QuantumIdEEEELN9__gnu_cxx12_Lock_policyE2EE10_M_disposeEv@Base 3.2.1-1kern1
 _ZNSt15_Sp_counted_ptrIPN8casacore5BlockINS0_7QuantumIdEEEELN9__gnu_cxx12_Lock_policyE2EE14_M_get_deleterERKSt9type_info@Base 3.2.1-1kern1
 _ZNSt15_Sp_counted_ptrIPN8casacore5BlockINS0_7QuantumIdEEEELN9__gnu_cxx12_Lock_policyE2EED0Ev@Base 3.2.1-1kern1
 _ZNSt15_Sp_counted_ptrIPN8casacore5BlockINS0_7QuantumIdEEEELN9__gnu_cxx12_Lock_policyE2EED1Ev@Base 3.2.1-1kern1
 _ZNSt15_Sp_counted_ptrIPN8casacore5BlockINS0_7QuantumIdEEEELN9__gnu_cxx12_Lock_policyE2EED2Ev@Base 3.2.1-1kern1
 _ZNSt15_Sp_counted_ptrIPN8casacore5BlockINS0_8AutoDiffISt7complexIdEEEEELN9__gnu_cxx12_Lock_policyE2EE10_M_destroyEv@Base 3.2.1-1kern1
 _ZNSt15_Sp_counted_ptrIPN8casacore5BlockINS0_8AutoDiffISt7complexIdEEEEELN9__gnu_cxx12_Lock_policyE2EE10_M_disposeEv@Base 3.2.1-1kern1
 _ZNSt15_Sp_counted_ptrIPN8casacore5BlockINS0_8AutoDiffISt7complexIdEEEEELN9__gnu_cxx12_Lock_policyE2EE14_M_get_deleterERKSt9type_info@Base 3.2.1-1kern1
 _ZNSt15_Sp_counted_ptrIPN8casacore5BlockINS0_8AutoDiffISt7complexIdEEEEELN9__gnu_cxx12_Lock_policyE2EED0Ev@Base 3.2.1-1kern1
 _ZNSt15_Sp_counted_ptrIPN8casacore5BlockINS0_8AutoDiffISt7complexIdEEEEELN9__gnu_cxx12_Lock_policyE2EED1Ev@Base 3.2.1-1kern1
 _ZNSt15_Sp_counted_ptrIPN8casacore5BlockINS0_8AutoDiffISt7complexIdEEEEELN9__gnu_cxx12_Lock_policyE2EED2Ev@Base 3.2.1-1kern1
 _ZNSt15_Sp_counted_ptrIPN8casacore5BlockINS0_8AutoDiffIdEEEELN9__gnu_cxx12_Lock_policyE2EE10_M_destroyEv@Base 3.2.1-1kern1
 _ZNSt15_Sp_counted_ptrIPN8casacore5BlockINS0_8AutoDiffIdEEEELN9__gnu_cxx12_Lock_policyE2EE10_M_disposeEv@Base 3.2.1-1kern1
 _ZNSt15_Sp_counted_ptrIPN8casacore5BlockINS0_8AutoDiffIdEEEELN9__gnu_cxx12_Lock_policyE2EE14_M_get_deleterERKSt9type_info@Base 3.2.1-1kern1
 _ZNSt15_Sp_counted_ptrIPN8casacore5BlockINS0_8AutoDiffIdEEEELN9__gnu_cxx12_Lock_policyE2EED0Ev@Base 3.2.1-1kern1
 _ZNSt15_Sp_counted_ptrIPN8casacore5BlockINS0_8AutoDiffIdEEEELN9__gnu_cxx12_Lock_policyE2EED1Ev@Base 3.2.1-1kern1
 _ZNSt15_Sp_counted_ptrIPN8casacore5BlockINS0_8AutoDiffIdEEEELN9__gnu_cxx12_Lock_policyE2EED2Ev@Base 3.2.1-1kern1
 _ZNSt16_Sp_counted_baseILN9__gnu_cxx12_Lock_policyE2EE10_M_releaseEv@Base 3.2.1-1kern1
 _ZNSt19_Sp_counted_deleterIPN8casacore21ArrayPositionIteratorENS0_10CountedPtrIS1_E7DeleterIS1_EESaIvELN9__gnu_cxx12_Lock_policyE2EE10_M_destroyEv@Base 3.2.1-1kern1
 _ZNSt19_Sp_counted_deleterIPN8casacore21ArrayPositionIteratorENS0_10CountedPtrIS1_E7DeleterIS1_EESaIvELN9__gnu_cxx12_Lock_policyE2EE10_M_disposeEv@Base 3.2.1-1kern1
 _ZNSt19_Sp_counted_deleterIPN8casacore21ArrayPositionIteratorENS0_10CountedPtrIS1_E7DeleterIS1_EESaIvELN9__gnu_cxx12_Lock_policyE2EE14_M_get_deleterERKSt9type_info@Base 3.2.1-1kern1
 _ZNSt19_Sp_counted_deleterIPN8casacore21ArrayPositionIteratorENS0_10CountedPtrIS1_E7DeleterIS1_EESaIvELN9__gnu_cxx12_Lock_policyE2EED0Ev@Base 3.2.1-1kern1
 _ZNSt19_Sp_counted_deleterIPN8casacore21ArrayPositionIteratorENS0_10CountedPtrIS1_E7DeleterIS1_EESaIvELN9__gnu_cxx12_Lock_policyE2EED1Ev@Base 3.2.1-1kern1
 _ZNSt19_Sp_counted_deleterIPN8casacore21ArrayPositionIteratorENS0_10CountedPtrIS1_E7DeleterIS1_EESaIvELN9__gnu_cxx12_Lock_policyE2EED2Ev@Base 3.2.1-1kern1
 _ZNSt19_Sp_counted_deleterIPN8casacore5BlockINS0_6VectorIdEEEENS0_10CountedPtrIS4_E7DeleterIS4_EESaIvELN9__gnu_cxx12_Lock_policyE2EE10_M_destroyEv@Base 3.2.1-1kern1
 _ZNSt19_Sp_counted_deleterIPN8casacore5BlockINS0_6VectorIdEEEENS0_10CountedPtrIS4_E7DeleterIS4_EESaIvELN9__gnu_cxx12_Lock_policyE2EE10_M_disposeEv@Base 3.2.1-1kern1
 _ZNSt19_Sp_counted_deleterIPN8casacore5BlockINS0_6VectorIdEEEENS0_10CountedPtrIS4_E7DeleterIS4_EESaIvELN9__gnu_cxx12_Lock_policyE2EE14_M_get_deleterERKSt9type_info@Base 3.2.1-1kern1
 _ZNSt19_Sp_counted_deleterIPN8casacore5BlockINS0_6VectorIdEEEENS0_10CountedPtrIS4_E7DeleterIS4_EESaIvELN9__gnu_cxx12_Lock_policyE2EED0Ev@Base 3.2.1-1kern1
 _ZNSt19_Sp_counted_deleterIPN8casacore5BlockINS0_6VectorIdEEEENS0_10CountedPtrIS4_E7DeleterIS4_EESaIvELN9__gnu_cxx12_Lock_policyE2EED1Ev@Base 3.2.1-1kern1
 _ZNSt19_Sp_counted_deleterIPN8casacore5BlockINS0_6VectorIdEEEENS0_10CountedPtrIS4_E7DeleterIS4_EESaIvELN9__gnu_cxx12_Lock_policyE2EED2Ev@Base 3.2.1-1kern1
 _ZNSt19_Sp_counted_deleterIPN8casacore5BlockINS0_7QuantumIdEEEENS0_10CountedPtrIS4_E7DeleterIS4_EESaIvELN9__gnu_cxx12_Lock_policyE2EE10_M_destroyEv@Base 3.2.1-1kern1
 _ZNSt19_Sp_counted_deleterIPN8casacore5BlockINS0_7QuantumIdEEEENS0_10CountedPtrIS4_E7DeleterIS4_EESaIvELN9__gnu_cxx12_Lock_policyE2EE10_M_disposeEv@Base 3.2.1-1kern1
 _ZNSt19_Sp_counted_deleterIPN8casacore5BlockINS0_7QuantumIdEEEENS0_10CountedPtrIS4_E7DeleterIS4_EESaIvELN9__gnu_cxx12_Lock_policyE2EE14_M_get_deleterERKSt9type_info@Base 3.2.1-1kern1
 _ZNSt19_Sp_counted_deleterIPN8casacore5BlockINS0_7QuantumIdEEEENS0_10CountedPtrIS4_E7DeleterIS4_EESaIvELN9__gnu_cxx12_Lock_policyE2EED0Ev@Base 3.2.1-1kern1
 _ZNSt19_Sp_counted_deleterIPN8casacore5BlockINS0_7QuantumIdEEEENS0_10CountedPtrIS4_E7DeleterIS4_EESaIvELN9__gnu_cxx12_Lock_policyE2EED1Ev@Base 3.2.1-1kern1
 _ZNSt19_Sp_counted_deleterIPN8casacore5BlockINS0_7QuantumIdEEEENS0_10CountedPtrIS4_E7DeleterIS4_EESaIvELN9__gnu_cxx12_Lock_policyE2EED2Ev@Base 3.2.1-1kern1
 _ZNSt19_Sp_counted_deleterIPN8casacore5BlockINS0_8AutoDiffISt7complexIdEEEEENS0_10CountedPtrIS6_E7DeleterIS6_EESaIvELN9__gnu_cxx12_Lock_policyE2EE10_M_destroyEv@Base 3.2.1-1kern1
 _ZNSt19_Sp_counted_deleterIPN8casacore5BlockINS0_8AutoDiffISt7complexIdEEEEENS0_10CountedPtrIS6_E7DeleterIS6_EESaIvELN9__gnu_cxx12_Lock_policyE2EE10_M_disposeEv@Base 3.2.1-1kern1
 _ZNSt19_Sp_counted_deleterIPN8casacore5BlockINS0_8AutoDiffISt7complexIdEEEEENS0_10CountedPtrIS6_E7DeleterIS6_EESaIvELN9__gnu_cxx12_Lock_policyE2EE14_M_get_deleterERKSt9type_info@Base 3.2.1-1kern1
 _ZNSt19_Sp_counted_deleterIPN8casacore5BlockINS0_8AutoDiffISt7complexIdEEEEENS0_10CountedPtrIS6_E7DeleterIS6_EESaIvELN9__gnu_cxx12_Lock_policyE2EED0Ev@Base 3.2.1-1kern1
 _ZNSt19_Sp_counted_deleterIPN8casacore5BlockINS0_8AutoDiffISt7complexIdEEEEENS0_10CountedPtrIS6_E7DeleterIS6_EESaIvELN9__gnu_cxx12_Lock_policyE2EED1Ev@Base 3.2.1-1kern1
 _ZNSt19_Sp_counted_deleterIPN8casacore5BlockINS0_8AutoDiffISt7complexIdEEEEENS0_10CountedPtrIS6_E7DeleterIS6_EESaIvELN9__gnu_cxx12_Lock_policyE2EED2Ev@Base 3.2.1-1kern1
 _ZNSt19_Sp_counted_deleterIPN8casacore5BlockINS0_8AutoDiffIdEEEENS0_10CountedPtrIS4_E7DeleterIS4_EESaIvELN9__gnu_cxx12_Lock_policyE2EE10_M_destroyEv@Base 3.2.1-1kern1
 _ZNSt19_Sp_counted_deleterIPN8casacore5BlockINS0_8AutoDiffIdEEEENS0_10CountedPtrIS4_E7DeleterIS4_EESaIvELN9__gnu_cxx12_Lock_policyE2EE10_M_disposeEv@Base 3.2.1-1kern1
 _ZNSt19_Sp_counted_deleterIPN8casacore5BlockINS0_8AutoDiffIdEEEENS0_10CountedPtrIS4_E7DeleterIS4_EESaIvELN9__gnu_cxx12_Lock_policyE2EE14_M_get_deleterERKSt9type_info@Base 3.2.1-1kern1
 _ZNSt19_Sp_counted_deleterIPN8casacore5BlockINS0_8AutoDiffIdEEEENS0_10CountedPtrIS4_E7DeleterIS4_EESaIvELN9__gnu_cxx12_Lock_policyE2EED0Ev@Base 3.2.1-1kern1
 _ZNSt19_Sp_counted_deleterIPN8casacore5BlockINS0_8AutoDiffIdEEEENS0_10CountedPtrIS4_E7DeleterIS4_EESaIvELN9__gnu_cxx12_Lock_policyE2EED1Ev@Base 3.2.1-1kern1
 _ZNSt19_Sp_counted_deleterIPN8casacore5BlockINS0_8AutoDiffIdEEEENS0_10CountedPtrIS4_E7DeleterIS4_EESaIvELN9__gnu_cxx12_Lock_policyE2EED2Ev@Base 3.2.1-1kern1
 _ZNSt19_Sp_counted_deleterIPN8casacore9ArrayBaseENS0_10CountedPtrIS1_E7DeleterIS1_EESaIvELN9__gnu_cxx12_Lock_policyE2EE10_M_destroyEv@Base 3.2.1-1kern1
 _ZNSt19_Sp_counted_deleterIPN8casacore9ArrayBaseENS0_10CountedPtrIS1_E7DeleterIS1_EESaIvELN9__gnu_cxx12_Lock_policyE2EE10_M_disposeEv@Base 3.2.1-1kern1
 _ZNSt19_Sp_counted_deleterIPN8casacore9ArrayBaseENS0_10CountedPtrIS1_E7DeleterIS1_EESaIvELN9__gnu_cxx12_Lock_policyE2EE14_M_get_deleterERKSt9type_info@Base 3.2.1-1kern1
 _ZNSt19_Sp_counted_deleterIPN8casacore9ArrayBaseENS0_10CountedPtrIS1_E7DeleterIS1_EESaIvELN9__gnu_cxx12_Lock_policyE2EED0Ev@Base 3.2.1-1kern1
 _ZNSt19_Sp_counted_deleterIPN8casacore9ArrayBaseENS0_10CountedPtrIS1_E7DeleterIS1_EESaIvELN9__gnu_cxx12_Lock_policyE2EED1Ev@Base 3.2.1-1kern1
 _ZNSt19_Sp_counted_deleterIPN8casacore9ArrayBaseENS0_10CountedPtrIS1_E7DeleterIS1_EESaIvELN9__gnu_cxx12_Lock_policyE2EED2Ev@Base 3.2.1-1kern1
 _ZNSt3mapIN8casacore6StringENS0_12FuncExprData12ExprOperatorESt4lessIS1_ESaISt4pairIKS1_S3_EEEixEOS1_@Base 3.2.1-1kern1
 _ZNSt3mapIydSt4lessIyESaISt4pairIKydEEED1Ev@Base 3.2.1-1kern1
 _ZNSt3mapIydSt4lessIyESaISt4pairIKydEEED2Ev@Base 3.2.1-1kern1
 _ZNSt3setIN8casacore14StatisticsData5STATSESt4lessIS2_ESaIS2_EED1Ev@Base 3.2.1-1kern1
 _ZNSt3setIN8casacore14StatisticsData5STATSESt4lessIS2_ESaIS2_EED2Ev@Base 3.2.1-1kern1
 _ZNSt6vectorIN8casacore12FuncExprData12ExprOperatorESaIS2_EE17_M_default_appendEm@Base 3.2.1-1kern1
 _ZNSt6vectorIN8casacore12FuncExprData12ExprOperatorESaIS2_EE17_M_realloc_insertIJRKS2_EEEvN9__gnu_cxx17__normal_iteratorIPS2_S4_EEDpOT_@Base 3.2.1-1kern1
 _ZNSt6vectorIN8casacore12FuncExprData12ExprOperatorESaIS2_EED1Ev@Base 3.2.1-1kern1
 _ZNSt6vectorIN8casacore12FuncExprData12ExprOperatorESaIS2_EED2Ev@Base 3.2.1-1kern1
 _ZNSt6vectorIN8casacore12FuncExprData12ExprOperatorESaIS2_EEaSERKS4_@Base 3.2.1-1kern1
 _ZNSt6vectorIN8casacore8AutoDiffISt7complexIdEEESaIS4_EE12emplace_backIJS4_EEEvDpOT_@Base 3.2.1-1kern1
 _ZNSt6vectorIN8casacore8AutoDiffISt7complexIdEEESaIS4_EE17_M_default_appendEm@Base 3.2.1-1kern1
 _ZNSt6vectorIN8casacore8AutoDiffISt7complexIdEEESaIS4_EE17_M_realloc_insertIJS4_EEEvN9__gnu_cxx17__normal_iteratorIPS4_S6_EEDpOT_@Base 3.2.1-1kern1
 _ZNSt6vectorIN8casacore8AutoDiffIdEESaIS2_EE12emplace_backIJS2_EEEvDpOT_@Base 3.2.1-1kern1
 _ZNSt6vectorIN8casacore8AutoDiffIdEESaIS2_EE17_M_default_appendEm@Base 3.2.1-1kern1
 _ZNSt6vectorIN8casacore8AutoDiffIdEESaIS2_EE17_M_realloc_insertIJS2_EEEvN9__gnu_cxx17__normal_iteratorIPS2_S4_EEDpOT_@Base 3.2.1-1kern1
 _ZNSt6vectorISt7complexIdESaIS1_EE12emplace_backIJS1_EEEvDpOT_@Base 3.2.1-1kern1
 _ZNSt6vectorISt7complexIdESaIS1_EE17_M_default_appendEm@Base 3.2.1-1kern1
 _ZNSt6vectorISt7complexIdESaIS1_EE17_M_realloc_insertIJS1_EEEvN9__gnu_cxx17__normal_iteratorIPS1_S3_EEDpOT_@Base 3.2.1-1kern1
 _ZNSt6vectorISt7complexIfESaIS1_EE17_M_default_appendEm@Base 3.2.1-1kern1
 _ZNSt6vectorIdSaIdEE12emplace_backIJdEEEvDpOT_@Base 3.2.1-1kern1
 _ZNSt6vectorIdSaIdEE17_M_default_appendEm@Base 3.2.1-1kern1
 _ZNSt6vectorIdSaIdEE17_M_realloc_insertIJRKdEEEvN9__gnu_cxx17__normal_iteratorIPdS1_EEDpOT_@Base 3.2.1-1kern1
 _ZNSt6vectorIdSaIdEE17_M_realloc_insertIJdEEEvN9__gnu_cxx17__normal_iteratorIPdS1_EEDpOT_@Base 3.2.1-1kern1
 _ZNSt6vectorIdSaIdEEaSERKS1_@Base 3.2.1-1kern1
 _ZNSt6vectorIfSaIfEE17_M_default_appendEm@Base 3.2.1-1kern1
 _ZNSt7__cxx1115basic_stringbufIcSt11char_traitsIcESaIcEED0Ev@Base 3.2.1-1kern1
 _ZNSt7__cxx1115basic_stringbufIcSt11char_traitsIcESaIcEED1Ev@Base 3.2.1-1kern1
 _ZNSt7__cxx1115basic_stringbufIcSt11char_traitsIcESaIcEED2Ev@Base 3.2.1-1kern1
 _ZNSt8_Rb_treeIN8casacore12FuncExprData7opTypesESt4pairIKS2_NS1_12ExprOperatorEESt10_Select1stIS6_ESt4lessIS2_ESaIS6_EE24_M_get_insert_unique_posERS4_@Base 3.2.1-1kern1
 _ZNSt8_Rb_treeIN8casacore12FuncExprData7opTypesESt4pairIKS2_NS1_12ExprOperatorEESt10_Select1stIS6_ESt4lessIS2_ESaIS6_EE29_M_get_insert_hint_unique_posESt23_Rb_tree_const_iteratorIS6_ERS4_@Base 3.2.1-1kern1
 _ZNSt8_Rb_treeIN8casacore12FuncExprData7opTypesESt4pairIKS2_NS1_12ExprOperatorEESt10_Select1stIS6_ESt4lessIS2_ESaIS6_EE7_M_copyINSC_11_Alloc_nodeEEEPSt13_Rb_tree_nodeIS6_EPKSG_PSt18_Rb_tree_node_baseRT_@Base 3.2.1-1kern1
 _ZNSt8_Rb_treeIN8casacore12FuncExprData7opTypesESt4pairIKS2_NS1_12ExprOperatorEESt10_Select1stIS6_ESt4lessIS2_ESaIS6_EE7_M_copyINSC_20_Reuse_or_alloc_nodeEEEPSt13_Rb_tree_nodeIS6_EPKSG_PSt18_Rb_tree_node_baseRT_@Base 3.2.1-1kern1
 _ZNSt8_Rb_treeIN8casacore12FuncExprData7opTypesESt4pairIKS2_NS1_12ExprOperatorEESt10_Select1stIS6_ESt4lessIS2_ESaIS6_EE8_M_eraseEPSt13_Rb_tree_nodeIS6_E@Base 3.2.1-1kern1
 _ZNSt8_Rb_treeIN8casacore12FuncExprData7opTypesESt4pairIKS2_NS1_12ExprOperatorEESt10_Select1stIS6_ESt4lessIS2_ESaIS6_EEaSERKSC_@Base 3.2.1-1kern1
 _ZNSt8_Rb_treeIN8casacore14StatisticsData5STATSES2_St9_IdentityIS2_ESt4lessIS2_ESaIS2_EE16_M_insert_uniqueIS2_EESt4pairISt17_Rb_tree_iteratorIS2_EbEOT_@Base 3.2.1-1kern1
 _ZNSt8_Rb_treeIN8casacore14StatisticsData5STATSES2_St9_IdentityIS2_ESt4lessIS2_ESaIS2_EE7_M_copyINS8_11_Alloc_nodeEEEPSt13_Rb_tree_nodeIS2_EPKSC_PSt18_Rb_tree_node_baseRT_@Base 3.2.1-1kern1
 _ZNSt8_Rb_treeIN8casacore14StatisticsData5STATSES2_St9_IdentityIS2_ESt4lessIS2_ESaIS2_EE8_M_eraseEPSt13_Rb_tree_nodeIS2_E@Base 3.2.1-1kern1
 _ZNSt8_Rb_treeIN8casacore6StringESt4pairIKS1_NS0_12FuncExprData12ExprOperatorEESt10_Select1stIS6_ESt4lessIS1_ESaIS6_EE24_M_get_insert_unique_posERS3_@Base 3.2.1-1kern1
 _ZNSt8_Rb_treeIN8casacore6StringESt4pairIKS1_NS0_12FuncExprData12ExprOperatorEESt10_Select1stIS6_ESt4lessIS1_ESaIS6_EE29_M_get_insert_hint_unique_posESt23_Rb_tree_const_iteratorIS6_ERS3_@Base 3.2.1-1kern1
 _ZNSt8_Rb_treeIN8casacore6StringESt4pairIKS1_NS0_12FuncExprData12ExprOperatorEESt10_Select1stIS6_ESt4lessIS1_ESaIS6_EE4findERS3_@Base 3.2.1-1kern1
 _ZNSt8_Rb_treeIN8casacore6StringESt4pairIKS1_NS0_12FuncExprData12ExprOperatorEESt10_Select1stIS6_ESt4lessIS1_ESaIS6_EE7_M_copyINSC_11_Alloc_nodeEEEPSt13_Rb_tree_nodeIS6_EPKSG_PSt18_Rb_tree_node_baseRT_@Base 3.2.1-1kern1
 _ZNSt8_Rb_treeIN8casacore6StringESt4pairIKS1_NS0_12FuncExprData12ExprOperatorEESt10_Select1stIS6_ESt4lessIS1_ESaIS6_EE7_M_copyINSC_20_Reuse_or_alloc_nodeEEEPSt13_Rb_tree_nodeIS6_EPKSG_PSt18_Rb_tree_node_baseRT_@Base 3.2.1-1kern1
 _ZNSt8_Rb_treeIN8casacore6StringESt4pairIKS1_NS0_12FuncExprData12ExprOperatorEESt10_Select1stIS6_ESt4lessIS1_ESaIS6_EE8_M_eraseEPSt13_Rb_tree_nodeIS6_E@Base 3.2.1-1kern1
 _ZNSt8_Rb_treeIN8casacore6StringESt4pairIKS1_NS0_12FuncExprData12ExprOperatorEESt10_Select1stIS6_ESt4lessIS1_ESaIS6_EEaSERKSC_@Base 3.2.1-1kern1
 _ZNSt8_Rb_treeIdSt4pairIKdyESt10_Select1stIS2_ESt4lessIdESaIS2_EE24_M_get_insert_unique_posERS1_@Base 3.2.1-1kern1
 _ZNSt8_Rb_treeIdSt4pairIKdyESt10_Select1stIS2_ESt4lessIdESaIS2_EE29_M_get_insert_hint_unique_posESt23_Rb_tree_const_iteratorIS2_ERS1_@Base 3.2.1-1kern1
 _ZNSt8_Rb_treeIdSt4pairIKdyESt10_Select1stIS2_ESt4lessIdESaIS2_EE8_M_eraseEPSt13_Rb_tree_nodeIS2_E@Base 3.2.1-1kern1
 _ZNSt8_Rb_treeIySt4pairIKydESt10_Select1stIS2_ESt4lessIyESaIS2_EE14_M_insert_nodeEPSt18_Rb_tree_node_baseSA_PSt13_Rb_tree_nodeIS2_E@Base 3.2.1-1kern1
 _ZNSt8_Rb_treeIySt4pairIKydESt10_Select1stIS2_ESt4lessIyESaIS2_EE24_M_get_insert_unique_posERS1_@Base 3.2.1-1kern1
 _ZNSt8_Rb_treeIySt4pairIKydESt10_Select1stIS2_ESt4lessIyESaIS2_EE29_M_get_insert_hint_unique_posESt23_Rb_tree_const_iteratorIS2_ERS1_@Base 3.2.1-1kern1
 _ZNSt8_Rb_treeIySt4pairIKydESt10_Select1stIS2_ESt4lessIyESaIS2_EE8_M_eraseEPSt13_Rb_tree_nodeIS2_E@Base 3.2.1-1kern1
 _ZTIN8casacore10CombiParamINS_8AutoDiffISt7complexIdEEEEE@Base 3.2.1-1kern1
 _ZTIN8casacore10CombiParamINS_8AutoDiffIdEEEE@Base 3.2.1-1kern1
 _ZTIN8casacore10CombiParamISt7complexIdEEE@Base 3.2.1-1kern1
 _ZTIN8casacore10CombiParamIdEE@Base 3.2.1-1kern1
 _ZTIN8casacore10Function1DINS_8AutoDiffISt7complexIdEEES4_EE@Base 3.2.1-1kern1
 _ZTIN8casacore10Function1DINS_8AutoDiffIdEES2_EE@Base 3.2.1-1kern1
 _ZTIN8casacore10Function1DISt7complexIdES2_EE@Base 3.2.1-1kern1
 _ZTIN8casacore10Function1DIddEE@Base 3.2.1-1kern1
 _ZTIN8casacore10FunctionalINS_6VectorISt7complexIdEEENS_8AutoDiffIS3_EEEE@Base 3.2.1-1kern1
 _ZTIN8casacore10FunctionalINS_6VectorISt7complexIdEEES3_EE@Base 3.2.1-1kern1
 _ZTIN8casacore10FunctionalINS_6VectorIdEENS_8AutoDiffIdEEEE@Base 3.2.1-1kern1
 _ZTIN8casacore10FunctionalINS_6VectorIdEEdEE@Base 3.2.1-1kern1
 _ZTIN8casacore10FunctionalISt7complexIdENS_8AutoDiffIS2_EEEE@Base 3.2.1-1kern1
 _ZTIN8casacore10FunctionalISt7complexIdES2_EE@Base 3.2.1-1kern1
 _ZTIN8casacore10FunctionalIdNS_8AutoDiffIdEEEE@Base 3.2.1-1kern1
 _ZTIN8casacore10FunctionalIddEE@Base 3.2.1-1kern1
 _ZTIN8casacore10FunctionalIjdEE@Base 3.2.1-1kern1
 _ZTIN8casacore10Gaussian1DINS_8AutoDiffISt7complexIdEEEEE@Base 3.2.1-1kern1
 _ZTIN8casacore10Gaussian1DINS_8AutoDiffIdEEEE@Base 3.2.1-1kern1
 _ZTIN8casacore10Gaussian1DISt7complexIdEEE@Base 3.2.1-1kern1
 _ZTIN8casacore10Gaussian1DIdEE@Base 3.2.1-1kern1
 _ZTIN8casacore10Gaussian2DINS_8AutoDiffISt7complexIdEEEEE@Base 3.2.1-1kern1
 _ZTIN8casacore10Gaussian2DINS_8AutoDiffIdEEEE@Base 3.2.1-1kern1
 _ZTIN8casacore10Gaussian2DISt7complexIdEEE@Base 3.2.1-1kern1
 _ZTIN8casacore10Gaussian2DIdEE@Base 3.2.1-1kern1
 _ZTIN8casacore10Gaussian3DINS_8AutoDiffISt7complexIdEEEEE@Base 3.2.1-1kern1
 _ZTIN8casacore10Gaussian3DINS_8AutoDiffIdEEEE@Base 3.2.1-1kern1
 _ZTIN8casacore10Gaussian3DISt7complexIdEEE@Base 3.2.1-1kern1
 _ZTIN8casacore10Gaussian3DIdEE@Base 3.2.1-1kern1
 _ZTIN8casacore10GaussianNDINS_8AutoDiffISt7complexIdEEEEE@Base 3.2.1-1kern1
 _ZTIN8casacore10GaussianNDINS_8AutoDiffIdEEEE@Base 3.2.1-1kern1
 _ZTIN8casacore10GaussianNDISt7complexIdEEE@Base 3.2.1-1kern1
 _ZTIN8casacore10GaussianNDIdEE@Base 3.2.1-1kern1
 _ZTIN8casacore10HyperPlaneINS_8AutoDiffISt7complexIdEEEEE@Base 3.2.1-1kern1
 _ZTIN8casacore10HyperPlaneINS_8AutoDiffIdEEEE@Base 3.2.1-1kern1
 _ZTIN8casacore10HyperPlaneISt7complexIdEEE@Base 3.2.1-1kern1
 _ZTIN8casacore10HyperPlaneIdEE@Base 3.2.1-1kern1
 _ZTIN8casacore10PolynomialINS_8AutoDiffISt7complexIdEEEEE@Base 3.2.1-1kern1
 _ZTIN8casacore10PolynomialINS_8AutoDiffIdEEEE@Base 3.2.1-1kern1
 _ZTIN8casacore10PolynomialISt7complexIdEEE@Base 3.2.1-1kern1
 _ZTIN8casacore10PolynomialIdEE@Base 3.2.1-1kern1
 _ZTIN8casacore10Sinusoid1DINS_8AutoDiffISt7complexIdEEEEE@Base 3.2.1-1kern1
 _ZTIN8casacore10Sinusoid1DINS_8AutoDiffIdEEEE@Base 3.2.1-1kern1
 _ZTIN8casacore10Sinusoid1DISt7complexIdEEE@Base 3.2.1-1kern1
 _ZTIN8casacore10Sinusoid1DIdEE@Base 3.2.1-1kern1
 _ZTIN8casacore12FittingProxyE@Base 3.2.1-1kern1
 _ZTIN8casacore12GenericL2FitISt7complexIdEEE@Base 3.2.1-1kern1
 _ZTIN8casacore12GenericL2FitIdEE@Base 3.2.1-1kern1
 _ZTIN8casacore12LinearFitSVDISt7complexIdEEE@Base 3.2.1-1kern1
 _ZTIN8casacore12LinearFitSVDIdEE@Base 3.2.1-1kern1
 _ZTIN8casacore12MatrixSolverE@Base 3.2.1-1kern1
 _ZTIN8casacore12NonLinearFitISt7complexIdEEE@Base 3.2.1-1kern1
 _ZTIN8casacore12NonLinearFitIdEE@Base 3.2.1-1kern1
 _ZTIN8casacore13ArrayIteratorINS_6VectorIdEEEE@Base 3.2.1-1kern1
 _ZTIN8casacore13ArrayIteratorINS_7QuantumIdEEEE@Base 3.2.1-1kern1
 _ZTIN8casacore13ArrayIteratorINS_8AutoDiffISt7complexIdEEEEE@Base 3.2.1-1kern1
 _ZTIN8casacore13ArrayIteratorINS_8AutoDiffIdEEEE@Base 3.2.1-1kern1
 _ZTIN8casacore13ArrayIteratorISt7complexIdEEE@Base 3.2.1-1kern1
 _ZTIN8casacore13ArrayIteratorISt7complexIfEEE@Base 3.2.1-1kern1
 _ZTIN8casacore13ArrayIteratorIbEE@Base 3.2.1-1kern1
 _ZTIN8casacore13ArrayIteratorIdEE@Base 3.2.1-1kern1
 _ZTIN8casacore13ArrayIteratorIfEE@Base 3.2.1-1kern1
 _ZTIN8casacore13BaseAllocatorINS_6VectorIdEENS_15NewDelAllocatorIS2_EEEE@Base 3.2.1-1kern1
 _ZTIN8casacore13BaseAllocatorINS_6VectorIdEENS_16AlignedAllocatorIS2_Lm32EEEEE@Base 3.2.1-1kern1
 _ZTIN8casacore13BaseAllocatorINS_7QuantumIdEENS_15NewDelAllocatorIS2_EEEE@Base 3.2.1-1kern1
 _ZTIN8casacore13BaseAllocatorINS_7QuantumIdEENS_16AlignedAllocatorIS2_Lm32EEEEE@Base 3.2.1-1kern1
 _ZTIN8casacore13BaseAllocatorINS_8AutoDiffISt7complexIdEEENS_15NewDelAllocatorIS4_EEEE@Base 3.2.1-1kern1
 _ZTIN8casacore13BaseAllocatorINS_8AutoDiffISt7complexIdEEENS_16AlignedAllocatorIS4_Lm32EEEEE@Base 3.2.1-1kern1
 _ZTIN8casacore13BaseAllocatorINS_8AutoDiffIdEENS_15NewDelAllocatorIS2_EEEE@Base 3.2.1-1kern1
 _ZTIN8casacore13BaseAllocatorINS_8AutoDiffIdEENS_16AlignedAllocatorIS2_Lm32EEEEE@Base 3.2.1-1kern1
 _ZTIN8casacore13CombiFunctionINS_8AutoDiffISt7complexIdEEEEE@Base 3.2.1-1kern1
 _ZTIN8casacore13CombiFunctionINS_8AutoDiffIdEEEE@Base 3.2.1-1kern1
 _ZTIN8casacore13CombiFunctionISt7complexIdEEE@Base 3.2.1-1kern1
 _ZTIN8casacore13CombiFunctionIdEE@Base 3.2.1-1kern1
 _ZTIN8casacore13CompiledParamINS_8AutoDiffISt7complexIdEEEEE@Base 3.2.1-1kern1
 _ZTIN8casacore13CompiledParamINS_8AutoDiffIdEEEE@Base 3.2.1-1kern1
 _ZTIN8casacore13CompiledParamISt7complexIdEEE@Base 3.2.1-1kern1
 _ZTIN8casacore13CompiledParamIdEE@Base 3.2.1-1kern1
 _ZTIN8casacore13CompoundParamINS_8AutoDiffISt7complexIdEEEEE@Base 3.2.1-1kern1
 _ZTIN8casacore13CompoundParamINS_8AutoDiffIdEEEE@Base 3.2.1-1kern1
 _ZTIN8casacore13CompoundParamISt7complexIdEEE@Base 3.2.1-1kern1
 _ZTIN8casacore13CompoundParamIdEE@Base 3.2.1-1kern1
 _ZTIN8casacore13FunctionParamINS_8AutoDiffISt7complexIdEEEEE@Base 3.2.1-1kern1
 _ZTIN8casacore13FunctionParamINS_8AutoDiffIdEEEE@Base 3.2.1-1kern1
 _ZTIN8casacore13FunctionParamISt7complexIdEEE@Base 3.2.1-1kern1
 _ZTIN8casacore13FunctionParamIdEE@Base 3.2.1-1kern1
 _ZTIN8casacore13Interpolate1DIddEE@Base 3.2.1-1kern1
 _ZTIN8casacore13OddPolynomialINS_8AutoDiffISt7complexIdEEEEE@Base 3.2.1-1kern1
 _ZTIN8casacore13OddPolynomialINS_8AutoDiffIdEEEE@Base 3.2.1-1kern1
 _ZTIN8casacore13OddPolynomialISt7complexIdEEE@Base 3.2.1-1kern1
 _ZTIN8casacore13OddPolynomialIdEE@Base 3.2.1-1kern1
 _ZTIN8casacore14ChebyshevParamINS_8AutoDiffISt7complexIdEEEEE@Base 3.2.1-1kern1
 _ZTIN8casacore14ChebyshevParamINS_8AutoDiffIdEEEE@Base 3.2.1-1kern1
 _ZTIN8casacore14ChebyshevParamISt7complexIdEEE@Base 3.2.1-1kern1
 _ZTIN8casacore14ChebyshevParamIdEE@Base 3.2.1-1kern1
 _ZTIN8casacore14EvenPolynomialINS_8AutoDiffISt7complexIdEEEEE@Base 3.2.1-1kern1
 _ZTIN8casacore14EvenPolynomialINS_8AutoDiffIdEEEE@Base 3.2.1-1kern1
 _ZTIN8casacore14EvenPolynomialISt7complexIdEEE@Base 3.2.1-1kern1
 _ZTIN8casacore14EvenPolynomialIdEE@Base 3.2.1-1kern1
 _ZTIN8casacore14FunctionHolderISt7complexIdEEE@Base 3.2.1-1kern1
 _ZTIN8casacore14FunctionHolderIdEE@Base 3.2.1-1kern1
 _ZTIN8casacore14NonLinearFitLMISt7complexIdEEE@Base 3.2.1-1kern1
 _ZTIN8casacore14NonLinearFitLMIdEE@Base 3.2.1-1kern1
 _ZTIN8casacore14VectorIteratorISt7complexIdEEE@Base 3.2.1-1kern1
 _ZTIN8casacore14VectorIteratorISt7complexIfEEE@Base 3.2.1-1kern1
 _ZTIN8casacore15FunctionalProxyE@Base 3.2.1-1kern1
 _ZTIN8casacore15Gaussian1DParamINS_8AutoDiffISt7complexIdEEEEE@Base 3.2.1-1kern1
 _ZTIN8casacore15Gaussian1DParamINS_8AutoDiffIdEEEE@Base 3.2.1-1kern1
 _ZTIN8casacore15Gaussian1DParamISt7complexIdEEE@Base 3.2.1-1kern1
 _ZTIN8casacore15Gaussian1DParamIdEE@Base 3.2.1-1kern1
 _ZTIN8casacore15Gaussian2DParamINS_8AutoDiffISt7complexIdEEEEE@Base 3.2.1-1kern1
 _ZTIN8casacore15Gaussian2DParamINS_8AutoDiffIdEEEE@Base 3.2.1-1kern1
 _ZTIN8casacore15Gaussian2DParamISt7complexIdEEE@Base 3.2.1-1kern1
 _ZTIN8casacore15Gaussian2DParamIdEE@Base 3.2.1-1kern1
 _ZTIN8casacore15Gaussian3DParamINS_8AutoDiffISt7complexIdEEEEE@Base 3.2.1-1kern1
 _ZTIN8casacore15Gaussian3DParamINS_8AutoDiffIdEEEE@Base 3.2.1-1kern1
 _ZTIN8casacore15Gaussian3DParamISt7complexIdEEE@Base 3.2.1-1kern1
 _ZTIN8casacore15Gaussian3DParamIdEE@Base 3.2.1-1kern1
 _ZTIN8casacore15GaussianNDParamINS_8AutoDiffISt7complexIdEEEEE@Base 3.2.1-1kern1
 _ZTIN8casacore15GaussianNDParamINS_8AutoDiffIdEEEE@Base 3.2.1-1kern1
 _ZTIN8casacore15GaussianNDParamISt7complexIdEEE@Base 3.2.1-1kern1
 _ZTIN8casacore15GaussianNDParamIdEE@Base 3.2.1-1kern1
 _ZTIN8casacore15HyperPlaneParamINS_8AutoDiffISt7complexIdEEEEE@Base 3.2.1-1kern1
 _ZTIN8casacore15HyperPlaneParamINS_8AutoDiffIdEEEE@Base 3.2.1-1kern1
 _ZTIN8casacore15HyperPlaneParamISt7complexIdEEE@Base 3.2.1-1kern1
 _ZTIN8casacore15HyperPlaneParamIdEE@Base 3.2.1-1kern1
 _ZTIN8casacore15NewDelAllocatorINS_6VectorIdEEEE@Base 3.2.1-1kern1
 _ZTIN8casacore15NewDelAllocatorINS_7QuantumIdEEEE@Base 3.2.1-1kern1
 _ZTIN8casacore15NewDelAllocatorINS_8AutoDiffISt7complexIdEEEEE@Base 3.2.1-1kern1
 _ZTIN8casacore15NewDelAllocatorINS_8AutoDiffIdEEEE@Base 3.2.1-1kern1
 _ZTIN8casacore15PolynomialParamINS_8AutoDiffISt7complexIdEEEEE@Base 3.2.1-1kern1
 _ZTIN8casacore15PolynomialParamINS_8AutoDiffIdEEEE@Base 3.2.1-1kern1
 _ZTIN8casacore15PolynomialParamISt7complexIdEEE@Base 3.2.1-1kern1
 _ZTIN8casacore15PolynomialParamIdEE@Base 3.2.1-1kern1
 _ZTIN8casacore15Sinusoid1DParamINS_8AutoDiffISt7complexIdEEEEE@Base 3.2.1-1kern1
 _ZTIN8casacore15Sinusoid1DParamINS_8AutoDiffIdEEEE@Base 3.2.1-1kern1
 _ZTIN8casacore15Sinusoid1DParamISt7complexIdEEE@Base 3.2.1-1kern1
 _ZTIN8casacore15Sinusoid1DParamIdEE@Base 3.2.1-1kern1
 _ZTIN8casacore16AlignedAllocatorINS_6VectorIdEELm32EEE@Base 3.2.1-1kern1
 _ZTIN8casacore16AlignedAllocatorINS_7QuantumIdEELm32EEE@Base 3.2.1-1kern1
 _ZTIN8casacore16AlignedAllocatorINS_8AutoDiffISt7complexIdEEELm32EEE@Base 3.2.1-1kern1
 _ZTIN8casacore16AlignedAllocatorINS_8AutoDiffIdEELm32EEE@Base 3.2.1-1kern1
 _ZTIN8casacore16CompiledFunctionINS_8AutoDiffISt7complexIdEEEEE@Base 3.2.1-1kern1
 _ZTIN8casacore16CompiledFunctionINS_8AutoDiffIdEEEE@Base 3.2.1-1kern1
 _ZTIN8casacore16CompiledFunctionISt7complexIdEEE@Base 3.2.1-1kern1
 _ZTIN8casacore16CompiledFunctionIdEE@Base 3.2.1-1kern1
 _ZTIN8casacore16CompoundFunctionINS_8AutoDiffISt7complexIdEEEEE@Base 3.2.1-1kern1
 _ZTIN8casacore16CompoundFunctionINS_8AutoDiffIdEEEE@Base 3.2.1-1kern1
 _ZTIN8casacore16CompoundFunctionISt7complexIdEEE@Base 3.2.1-1kern1
 _ZTIN8casacore16CompoundFunctionIdEE@Base 3.2.1-1kern1
 _ZTIN8casacore16DefaultAllocatorINS_6VectorIdEEEE@Base 3.2.1-1kern1
 _ZTIN8casacore16DefaultAllocatorINS_7QuantumIdEEEE@Base 3.2.1-1kern1
 _ZTIN8casacore16DefaultAllocatorINS_8AutoDiffISt7complexIdEEEEE@Base 3.2.1-1kern1
 _ZTIN8casacore16DefaultAllocatorINS_8AutoDiffIdEEEE@Base 3.2.1-1kern1
 _ZTIN8casacore16NNLSMatrixSolverE@Base 3.2.1-1kern1
 _ZTIN8casacore17AbstractAllocatorINS_6VectorIdEEEE@Base 3.2.1-1kern1
 _ZTIN8casacore17AbstractAllocatorINS_7QuantumIdEEEE@Base 3.2.1-1kern1
 _ZTIN8casacore17AbstractAllocatorINS_8AutoDiffISt7complexIdEEEEE@Base 3.2.1-1kern1
 _ZTIN8casacore17AbstractAllocatorINS_8AutoDiffIdEEEE@Base 3.2.1-1kern1
 _ZTIN8casacore17Allocator_private13BulkAllocatorINS_6VectorIdEEEE@Base 3.2.1-1kern1
 _ZTIN8casacore17Allocator_private13BulkAllocatorINS_7QuantumIdEEEE@Base 3.2.1-1kern1
 _ZTIN8casacore17Allocator_private13BulkAllocatorINS_8AutoDiffISt7complexIdEEEEE@Base 3.2.1-1kern1
 _ZTIN8casacore17Allocator_private13BulkAllocatorINS_8AutoDiffIdEEEE@Base 3.2.1-1kern1
 _ZTIN8casacore17Allocator_private13BulkAllocatorIPvEE@Base 3.2.1-1kern1
 _ZTIN8casacore17Allocator_private13BulkAllocatorISt7complexIdEEE@Base 3.2.1-1kern1
 _ZTIN8casacore17Allocator_private13BulkAllocatorISt7complexIfEEE@Base 3.2.1-1kern1
 _ZTIN8casacore17Allocator_private13BulkAllocatorIdEE@Base 3.2.1-1kern1
 _ZTIN8casacore17Allocator_private13BulkAllocatorIjEE@Base 3.2.1-1kern1
 _ZTIN8casacore17Allocator_private17BulkAllocatorImplINS_17new_del_allocatorINS_6VectorIdEEEEEE@Base 3.2.1-1kern1
 _ZTIN8casacore17Allocator_private17BulkAllocatorImplINS_17new_del_allocatorINS_7QuantumIdEEEEEE@Base 3.2.1-1kern1
 _ZTIN8casacore17Allocator_private17BulkAllocatorImplINS_17new_del_allocatorINS_8AutoDiffISt7complexIdEEEEEEE@Base 3.2.1-1kern1
 _ZTIN8casacore17Allocator_private17BulkAllocatorImplINS_17new_del_allocatorINS_8AutoDiffIdEEEEEE@Base 3.2.1-1kern1
 _ZTIN8casacore17Allocator_private17BulkAllocatorImplINS_18casacore_allocatorINS_6VectorIdEELm32EEEEE@Base 3.2.1-1kern1
 _ZTIN8casacore17Allocator_private17BulkAllocatorImplINS_18casacore_allocatorINS_7QuantumIdEELm32EEEEE@Base 3.2.1-1kern1
 _ZTIN8casacore17Allocator_private17BulkAllocatorImplINS_18casacore_allocatorINS_8AutoDiffISt7complexIdEEELm32EEEEE@Base 3.2.1-1kern1
 _ZTIN8casacore17Allocator_private17BulkAllocatorImplINS_18casacore_allocatorINS_8AutoDiffIdEELm32EEEEE@Base 3.2.1-1kern1
 _ZTIN8casacore17Allocator_private17BulkAllocatorImplINS_18casacore_allocatorIPvLm32EEEEE@Base 3.2.1-1kern1
 _ZTIN8casacore17Allocator_private17BulkAllocatorImplINS_18casacore_allocatorISt7complexIdELm32EEEEE@Base 3.2.1-1kern1
 _ZTIN8casacore17Allocator_private17BulkAllocatorImplINS_18casacore_allocatorISt7complexIfELm32EEEEE@Base 3.2.1-1kern1
 _ZTIN8casacore17Allocator_private17BulkAllocatorImplINS_18casacore_allocatorIdLm32EEEEE@Base 3.2.1-1kern1
 _ZTIN8casacore17Allocator_private17BulkAllocatorImplINS_18casacore_allocatorIjLm32EEEEE@Base 3.2.1-1kern1
 _ZTIN8casacore17SampledFunctionalIdEE@Base 3.2.1-1kern1
 _ZTIN8casacore17new_del_allocatorINS_6VectorIdEEEE@Base 3.2.1-1kern1
 _ZTIN8casacore17new_del_allocatorINS_7QuantumIdEEEE@Base 3.2.1-1kern1
 _ZTIN8casacore17new_del_allocatorINS_8AutoDiffISt7complexIdEEEEE@Base 3.2.1-1kern1
 _ZTIN8casacore17new_del_allocatorINS_8AutoDiffIdEEEE@Base 3.2.1-1kern1
 _ZTIN8casacore18FieldNotFoundErrorE@Base 3.2.1-1kern1
 _ZTIN8casacore18OddPolynomialParamINS_8AutoDiffISt7complexIdEEEEE@Base 3.2.1-1kern1
 _ZTIN8casacore18OddPolynomialParamINS_8AutoDiffIdEEEE@Base 3.2.1-1kern1
 _ZTIN8casacore18OddPolynomialParamISt7complexIdEEE@Base 3.2.1-1kern1
 _ZTIN8casacore18OddPolynomialParamIdEE@Base 3.2.1-1kern1
 _ZTIN8casacore18casacore_allocatorINS_6VectorIdEELm32EEE@Base 3.2.1-1kern1
 _ZTIN8casacore18casacore_allocatorINS_7QuantumIdEELm32EEE@Base 3.2.1-1kern1
 _ZTIN8casacore18casacore_allocatorINS_8AutoDiffISt7complexIdEEELm32EEE@Base 3.2.1-1kern1
 _ZTIN8casacore18casacore_allocatorINS_8AutoDiffIdEELm32EEE@Base 3.2.1-1kern1
 _ZTIN8casacore18casacore_allocatorIPvLm32EEE@Base 3.2.1-1kern1
 _ZTIN8casacore18casacore_allocatorISt7complexIdELm32EEE@Base 3.2.1-1kern1
 _ZTIN8casacore18casacore_allocatorISt7complexIfELm32EEE@Base 3.2.1-1kern1
 _ZTIN8casacore18casacore_allocatorIdLm32EEE@Base 3.2.1-1kern1
 _ZTIN8casacore18casacore_allocatorIjLm32EEE@Base 3.2.1-1kern1
 _ZTIN8casacore19EvenPolynomialParamINS_8AutoDiffISt7complexIdEEEEE@Base 3.2.1-1kern1
 _ZTIN8casacore19EvenPolynomialParamINS_8AutoDiffIdEEEE@Base 3.2.1-1kern1
 _ZTIN8casacore19EvenPolynomialParamISt7complexIdEEE@Base 3.2.1-1kern1
 _ZTIN8casacore19EvenPolynomialParamIdEE@Base 3.2.1-1kern1
 _ZTIN8casacore20FunctionFactoryErrorE@Base 3.2.1-1kern1
 _ZTIN8casacore22ChebyshevParamModeImplINS_8AutoDiffISt7complexIdEEEEE@Base 3.2.1-1kern1
 _ZTIN8casacore22ChebyshevParamModeImplINS_8AutoDiffIdEEEE@Base 3.2.1-1kern1
 _ZTIN8casacore22ChebyshevParamModeImplISt7complexIdEEE@Base 3.2.1-1kern1
 _ZTIN8casacore22ChebyshevParamModeImplIdEE@Base 3.2.1-1kern1
 _ZTIN8casacore22SimButterworthBandpassINS_8AutoDiffISt7complexIdEEEEE@Base 3.2.1-1kern1
 _ZTIN8casacore22SimButterworthBandpassINS_8AutoDiffIdEEEE@Base 3.2.1-1kern1
 _ZTIN8casacore22SimButterworthBandpassISt7complexIdEEE@Base 3.2.1-1kern1
 _ZTIN8casacore22SimButterworthBandpassIdEE@Base 3.2.1-1kern1
 _ZTIN8casacore23ScalarSampledFunctionalIdEE@Base 3.2.1-1kern1
 _ZTIN8casacore25InvalidSerializationErrorE@Base 3.2.1-1kern1
 _ZTIN8casacore25UnrecognizedFunctionErrorE@Base 3.2.1-1kern1
 _ZTIN8casacore5ArrayINS_6VectorIdEEEE@Base 3.2.1-1kern1
 _ZTIN8casacore5ArrayINS_7QuantumIdEEEE@Base 3.2.1-1kern1
 _ZTIN8casacore5ArrayINS_8AutoDiffISt7complexIdEEEEE@Base 3.2.1-1kern1
 _ZTIN8casacore5ArrayINS_8AutoDiffIdEEEE@Base 3.2.1-1kern1
 _ZTIN8casacore6LSQFitE@Base 3.2.1-1kern1
 _ZTIN8casacore6VectorINS0_IdEEEE@Base 3.2.1-1kern1
 _ZTIN8casacore6VectorINS_7QuantumIdEEEE@Base 3.2.1-1kern1
 _ZTIN8casacore6VectorINS_8AutoDiffISt7complexIdEEEEE@Base 3.2.1-1kern1
 _ZTIN8casacore6VectorINS_8AutoDiffIdEEEE@Base 3.2.1-1kern1
 _ZTIN8casacore7LSQaipsE@Base 3.2.1-1kern1
 _ZTIN8casacore8FunctionINS_8AutoDiffISt7complexIdEEES4_EE@Base 3.2.1-1kern1
 _ZTIN8casacore8FunctionINS_8AutoDiffIdEES2_EE@Base 3.2.1-1kern1
 _ZTIN8casacore8FunctionISt7complexIdES2_EE@Base 3.2.1-1kern1
 _ZTIN8casacore8FunctionIddEE@Base 3.2.1-1kern1
 _ZTIN8casacore9ChebyshevINS_8AutoDiffISt7complexIdEEEEE@Base 3.2.1-1kern1
 _ZTIN8casacore9ChebyshevINS_8AutoDiffIdEEEE@Base 3.2.1-1kern1
 _ZTIN8casacore9ChebyshevISt7complexIdEEE@Base 3.2.1-1kern1
 _ZTIN8casacore9ChebyshevIdEE@Base 3.2.1-1kern1
 _ZTIN8casacore9LSQMatrixE@Base 3.2.1-1kern1
 _ZTIN8casacore9LinearFitISt7complexIdEEE@Base 3.2.1-1kern1
 _ZTIN8casacore9LinearFitIdEE@Base 3.2.1-1kern1
 _ZTIN9__gnu_cxx13new_allocatorIN8casacore6VectorIdEEEE@Base 3.2.1-1kern1
 _ZTIN9__gnu_cxx13new_allocatorIN8casacore7QuantumIdEEEE@Base 3.2.1-1kern1
 _ZTIN9__gnu_cxx13new_allocatorIN8casacore8AutoDiffISt7complexIdEEEEE@Base 3.2.1-1kern1
 _ZTIN9__gnu_cxx13new_allocatorIN8casacore8AutoDiffIdEEEE@Base 3.2.1-1kern1
 _ZTIN9__gnu_cxx13new_allocatorIPvEE@Base 3.2.1-1kern1
 _ZTIN9__gnu_cxx13new_allocatorISt7complexIdEEE@Base 3.2.1-1kern1
 _ZTIN9__gnu_cxx13new_allocatorISt7complexIfEEE@Base 3.2.1-1kern1
 _ZTIN9__gnu_cxx13new_allocatorIdEE@Base 3.2.1-1kern1
 _ZTIN9__gnu_cxx13new_allocatorIjEE@Base 3.2.1-1kern1
 _ZTISaIN8casacore6VectorIdEEE@Base 3.2.1-1kern1
 _ZTISaIN8casacore7QuantumIdEEE@Base 3.2.1-1kern1
 _ZTISaIN8casacore8AutoDiffISt7complexIdEEEE@Base 3.2.1-1kern1
 _ZTISaIN8casacore8AutoDiffIdEEE@Base 3.2.1-1kern1
 _ZTISaIPvE@Base 3.2.1-1kern1
 _ZTISaISt7complexIdEE@Base 3.2.1-1kern1
 _ZTISaISt7complexIfEE@Base 3.2.1-1kern1
 _ZTISaIdE@Base 3.2.1-1kern1
 _ZTISaIjE@Base 3.2.1-1kern1
 _ZTISt11_Mutex_baseILN9__gnu_cxx12_Lock_policyE2EE@Base 3.2.1-1kern1
 _ZTISt15_Sp_counted_ptrIPN8casacore5BlockINS0_6VectorIdEEEELN9__gnu_cxx12_Lock_policyE2EE@Base 3.2.1-1kern1
 _ZTISt15_Sp_counted_ptrIPN8casacore5BlockINS0_7QuantumIdEEEELN9__gnu_cxx12_Lock_policyE2EE@Base 3.2.1-1kern1
 _ZTISt15_Sp_counted_ptrIPN8casacore5BlockINS0_8AutoDiffISt7complexIdEEEEELN9__gnu_cxx12_Lock_policyE2EE@Base 3.2.1-1kern1
 _ZTISt15_Sp_counted_ptrIPN8casacore5BlockINS0_8AutoDiffIdEEEELN9__gnu_cxx12_Lock_policyE2EE@Base 3.2.1-1kern1
 _ZTISt16_Sp_counted_baseILN9__gnu_cxx12_Lock_policyE2EE@Base 3.2.1-1kern1
 _ZTISt19_Sp_counted_deleterIPN8casacore21ArrayPositionIteratorENS0_10CountedPtrIS1_E7DeleterIS1_EESaIvELN9__gnu_cxx12_Lock_policyE2EE@Base 3.2.1-1kern1
 _ZTISt19_Sp_counted_deleterIPN8casacore5BlockINS0_6VectorIdEEEENS0_10CountedPtrIS4_E7DeleterIS4_EESaIvELN9__gnu_cxx12_Lock_policyE2EE@Base 3.2.1-1kern1
 _ZTISt19_Sp_counted_deleterIPN8casacore5BlockINS0_7QuantumIdEEEENS0_10CountedPtrIS4_E7DeleterIS4_EESaIvELN9__gnu_cxx12_Lock_policyE2EE@Base 3.2.1-1kern1
 _ZTISt19_Sp_counted_deleterIPN8casacore5BlockINS0_8AutoDiffISt7complexIdEEEEENS0_10CountedPtrIS6_E7DeleterIS6_EESaIvELN9__gnu_cxx12_Lock_policyE2EE@Base 3.2.1-1kern1
 _ZTISt19_Sp_counted_deleterIPN8casacore5BlockINS0_8AutoDiffIdEEEENS0_10CountedPtrIS4_E7DeleterIS4_EESaIvELN9__gnu_cxx12_Lock_policyE2EE@Base 3.2.1-1kern1
 _ZTISt19_Sp_counted_deleterIPN8casacore9ArrayBaseENS0_10CountedPtrIS1_E7DeleterIS1_EESaIvELN9__gnu_cxx12_Lock_policyE2EE@Base 3.2.1-1kern1
 _ZTSN8casacore10CombiParamINS_8AutoDiffISt7complexIdEEEEE@Base 3.2.1-1kern1
 _ZTSN8casacore10CombiParamINS_8AutoDiffIdEEEE@Base 3.2.1-1kern1
 _ZTSN8casacore10CombiParamISt7complexIdEEE@Base 3.2.1-1kern1
 _ZTSN8casacore10CombiParamIdEE@Base 3.2.1-1kern1
 _ZTSN8casacore10CountedPtrINS_21ArrayPositionIteratorEE7DeleterIS1_EE@Base 3.2.1-1kern1
 _ZTSN8casacore10CountedPtrINS_5BlockINS_6VectorIdEEEEE7DeleterIS4_EE@Base 3.2.1-1kern1
 _ZTSN8casacore10CountedPtrINS_5BlockINS_7QuantumIdEEEEE7DeleterIS4_EE@Base 3.2.1-1kern1
 _ZTSN8casacore10CountedPtrINS_5BlockINS_8AutoDiffISt7complexIdEEEEEE7DeleterIS6_EE@Base 3.2.1-1kern1
 _ZTSN8casacore10CountedPtrINS_5BlockINS_8AutoDiffIdEEEEE7DeleterIS4_EE@Base 3.2.1-1kern1
 _ZTSN8casacore10CountedPtrINS_9ArrayBaseEE7DeleterIS1_EE@Base 3.2.1-1kern1
 _ZTSN8casacore10Function1DINS_8AutoDiffISt7complexIdEEES4_EE@Base 3.2.1-1kern1
 _ZTSN8casacore10Function1DINS_8AutoDiffIdEES2_EE@Base 3.2.1-1kern1
 _ZTSN8casacore10Function1DISt7complexIdES2_EE@Base 3.2.1-1kern1
 _ZTSN8casacore10Function1DIddEE@Base 3.2.1-1kern1
 _ZTSN8casacore10FunctionalINS_6VectorISt7complexIdEEENS_8AutoDiffIS3_EEEE@Base 3.2.1-1kern1
 _ZTSN8casacore10FunctionalINS_6VectorISt7complexIdEEES3_EE@Base 3.2.1-1kern1
 _ZTSN8casacore10FunctionalINS_6VectorIdEENS_8AutoDiffIdEEEE@Base 3.2.1-1kern1
 _ZTSN8casacore10FunctionalINS_6VectorIdEEdEE@Base 3.2.1-1kern1
 _ZTSN8casacore10FunctionalISt7complexIdENS_8AutoDiffIS2_EEEE@Base 3.2.1-1kern1
 _ZTSN8casacore10FunctionalISt7complexIdES2_EE@Base 3.2.1-1kern1
 _ZTSN8casacore10FunctionalIdNS_8AutoDiffIdEEEE@Base 3.2.1-1kern1
 _ZTSN8casacore10FunctionalIddEE@Base 3.2.1-1kern1
 _ZTSN8casacore10FunctionalIjdEE@Base 3.2.1-1kern1
 _ZTSN8casacore10Gaussian1DINS_8AutoDiffISt7complexIdEEEEE@Base 3.2.1-1kern1
 _ZTSN8casacore10Gaussian1DINS_8AutoDiffIdEEEE@Base 3.2.1-1kern1
 _ZTSN8casacore10Gaussian1DISt7complexIdEEE@Base 3.2.1-1kern1
 _ZTSN8casacore10Gaussian1DIdEE@Base 3.2.1-1kern1
 _ZTSN8casacore10Gaussian2DINS_8AutoDiffISt7complexIdEEEEE@Base 3.2.1-1kern1
 _ZTSN8casacore10Gaussian2DINS_8AutoDiffIdEEEE@Base 3.2.1-1kern1
 _ZTSN8casacore10Gaussian2DISt7complexIdEEE@Base 3.2.1-1kern1
 _ZTSN8casacore10Gaussian2DIdEE@Base 3.2.1-1kern1
 _ZTSN8casacore10Gaussian3DINS_8AutoDiffISt7complexIdEEEEE@Base 3.2.1-1kern1
 _ZTSN8casacore10Gaussian3DINS_8AutoDiffIdEEEE@Base 3.2.1-1kern1
 _ZTSN8casacore10Gaussian3DISt7complexIdEEE@Base 3.2.1-1kern1
 _ZTSN8casacore10Gaussian3DIdEE@Base 3.2.1-1kern1
 _ZTSN8casacore10GaussianNDINS_8AutoDiffISt7complexIdEEEEE@Base 3.2.1-1kern1
 _ZTSN8casacore10GaussianNDINS_8AutoDiffIdEEEE@Base 3.2.1-1kern1
 _ZTSN8casacore10GaussianNDISt7complexIdEEE@Base 3.2.1-1kern1
 _ZTSN8casacore10GaussianNDIdEE@Base 3.2.1-1kern1
 _ZTSN8casacore10HyperPlaneINS_8AutoDiffISt7complexIdEEEEE@Base 3.2.1-1kern1
 _ZTSN8casacore10HyperPlaneINS_8AutoDiffIdEEEE@Base 3.2.1-1kern1
 _ZTSN8casacore10HyperPlaneISt7complexIdEEE@Base 3.2.1-1kern1
 _ZTSN8casacore10HyperPlaneIdEE@Base 3.2.1-1kern1
 _ZTSN8casacore10PolynomialINS_8AutoDiffISt7complexIdEEEEE@Base 3.2.1-1kern1
 _ZTSN8casacore10PolynomialINS_8AutoDiffIdEEEE@Base 3.2.1-1kern1
 _ZTSN8casacore10PolynomialISt7complexIdEEE@Base 3.2.1-1kern1
 _ZTSN8casacore10PolynomialIdEE@Base 3.2.1-1kern1
 _ZTSN8casacore10Sinusoid1DINS_8AutoDiffISt7complexIdEEEEE@Base 3.2.1-1kern1
 _ZTSN8casacore10Sinusoid1DINS_8AutoDiffIdEEEE@Base 3.2.1-1kern1
 _ZTSN8casacore10Sinusoid1DISt7complexIdEEE@Base 3.2.1-1kern1
 _ZTSN8casacore10Sinusoid1DIdEE@Base 3.2.1-1kern1
 _ZTSN8casacore12FittingProxyE@Base 3.2.1-1kern1
 _ZTSN8casacore12GenericL2FitISt7complexIdEEE@Base 3.2.1-1kern1
 _ZTSN8casacore12GenericL2FitIdEE@Base 3.2.1-1kern1
 _ZTSN8casacore12LinearFitSVDISt7complexIdEEE@Base 3.2.1-1kern1
 _ZTSN8casacore12LinearFitSVDIdEE@Base 3.2.1-1kern1
 _ZTSN8casacore12MatrixSolverE@Base 3.2.1-1kern1
 _ZTSN8casacore12NonLinearFitISt7complexIdEEE@Base 3.2.1-1kern1
 _ZTSN8casacore12NonLinearFitIdEE@Base 3.2.1-1kern1
 _ZTSN8casacore13ArrayIteratorINS_6VectorIdEEEE@Base 3.2.1-1kern1
 _ZTSN8casacore13ArrayIteratorINS_7QuantumIdEEEE@Base 3.2.1-1kern1
 _ZTSN8casacore13ArrayIteratorINS_8AutoDiffISt7complexIdEEEEE@Base 3.2.1-1kern1
 _ZTSN8casacore13ArrayIteratorINS_8AutoDiffIdEEEE@Base 3.2.1-1kern1
 _ZTSN8casacore13ArrayIteratorISt7complexIdEEE@Base 3.2.1-1kern1
 _ZTSN8casacore13ArrayIteratorISt7complexIfEEE@Base 3.2.1-1kern1
 _ZTSN8casacore13ArrayIteratorIbEE@Base 3.2.1-1kern1
 _ZTSN8casacore13ArrayIteratorIdEE@Base 3.2.1-1kern1
 _ZTSN8casacore13ArrayIteratorIfEE@Base 3.2.1-1kern1
 _ZTSN8casacore13BaseAllocatorINS_6VectorIdEENS_15NewDelAllocatorIS2_EEEE@Base 3.2.1-1kern1
 _ZTSN8casacore13BaseAllocatorINS_6VectorIdEENS_16AlignedAllocatorIS2_Lm32EEEEE@Base 3.2.1-1kern1
 _ZTSN8casacore13BaseAllocatorINS_7QuantumIdEENS_15NewDelAllocatorIS2_EEEE@Base 3.2.1-1kern1
 _ZTSN8casacore13BaseAllocatorINS_7QuantumIdEENS_16AlignedAllocatorIS2_Lm32EEEEE@Base 3.2.1-1kern1
 _ZTSN8casacore13BaseAllocatorINS_8AutoDiffISt7complexIdEEENS_15NewDelAllocatorIS4_EEEE@Base 3.2.1-1kern1
 _ZTSN8casacore13BaseAllocatorINS_8AutoDiffISt7complexIdEEENS_16AlignedAllocatorIS4_Lm32EEEEE@Base 3.2.1-1kern1
 _ZTSN8casacore13BaseAllocatorINS_8AutoDiffIdEENS_15NewDelAllocatorIS2_EEEE@Base 3.2.1-1kern1
 _ZTSN8casacore13BaseAllocatorINS_8AutoDiffIdEENS_16AlignedAllocatorIS2_Lm32EEEEE@Base 3.2.1-1kern1
 _ZTSN8casacore13CombiFunctionINS_8AutoDiffISt7complexIdEEEEE@Base 3.2.1-1kern1
 _ZTSN8casacore13CombiFunctionINS_8AutoDiffIdEEEE@Base 3.2.1-1kern1
 _ZTSN8casacore13CombiFunctionISt7complexIdEEE@Base 3.2.1-1kern1
 _ZTSN8casacore13CombiFunctionIdEE@Base 3.2.1-1kern1
 _ZTSN8casacore13CompiledParamINS_8AutoDiffISt7complexIdEEEEE@Base 3.2.1-1kern1
 _ZTSN8casacore13CompiledParamINS_8AutoDiffIdEEEE@Base 3.2.1-1kern1
 _ZTSN8casacore13CompiledParamISt7complexIdEEE@Base 3.2.1-1kern1
 _ZTSN8casacore13CompiledParamIdEE@Base 3.2.1-1kern1
 _ZTSN8casacore13CompoundParamINS_8AutoDiffISt7complexIdEEEEE@Base 3.2.1-1kern1
 _ZTSN8casacore13CompoundParamINS_8AutoDiffIdEEEE@Base 3.2.1-1kern1
 _ZTSN8casacore13CompoundParamISt7complexIdEEE@Base 3.2.1-1kern1
 _ZTSN8casacore13CompoundParamIdEE@Base 3.2.1-1kern1
 _ZTSN8casacore13FunctionParamINS_8AutoDiffISt7complexIdEEEEE@Base 3.2.1-1kern1
 _ZTSN8casacore13FunctionParamINS_8AutoDiffIdEEEE@Base 3.2.1-1kern1
 _ZTSN8casacore13FunctionParamISt7complexIdEEE@Base 3.2.1-1kern1
 _ZTSN8casacore13FunctionParamIdEE@Base 3.2.1-1kern1
 _ZTSN8casacore13Interpolate1DIddEE@Base 3.2.1-1kern1
 _ZTSN8casacore13OddPolynomialINS_8AutoDiffISt7complexIdEEEEE@Base 3.2.1-1kern1
 _ZTSN8casacore13OddPolynomialINS_8AutoDiffIdEEEE@Base 3.2.1-1kern1
 _ZTSN8casacore13OddPolynomialISt7complexIdEEE@Base 3.2.1-1kern1
 _ZTSN8casacore13OddPolynomialIdEE@Base 3.2.1-1kern1
 _ZTSN8casacore14ChebyshevParamINS_8AutoDiffISt7complexIdEEEEE@Base 3.2.1-1kern1
 _ZTSN8casacore14ChebyshevParamINS_8AutoDiffIdEEEE@Base 3.2.1-1kern1
 _ZTSN8casacore14ChebyshevParamISt7complexIdEEE@Base 3.2.1-1kern1
 _ZTSN8casacore14ChebyshevParamIdEE@Base 3.2.1-1kern1
 _ZTSN8casacore14EvenPolynomialINS_8AutoDiffISt7complexIdEEEEE@Base 3.2.1-1kern1
 _ZTSN8casacore14EvenPolynomialINS_8AutoDiffIdEEEE@Base 3.2.1-1kern1
 _ZTSN8casacore14EvenPolynomialISt7complexIdEEE@Base 3.2.1-1kern1
 _ZTSN8casacore14EvenPolynomialIdEE@Base 3.2.1-1kern1
 _ZTSN8casacore14FunctionHolderISt7complexIdEEE@Base 3.2.1-1kern1
 _ZTSN8casacore14FunctionHolderIdEE@Base 3.2.1-1kern1
 _ZTSN8casacore14NonLinearFitLMISt7complexIdEEE@Base 3.2.1-1kern1
 _ZTSN8casacore14NonLinearFitLMIdEE@Base 3.2.1-1kern1
 _ZTSN8casacore14VectorIteratorISt7complexIdEEE@Base 3.2.1-1kern1
 _ZTSN8casacore14VectorIteratorISt7complexIfEEE@Base 3.2.1-1kern1
 _ZTSN8casacore15FunctionalProxyE@Base 3.2.1-1kern1
 _ZTSN8casacore15Gaussian1DParamINS_8AutoDiffISt7complexIdEEEEE@Base 3.2.1-1kern1
 _ZTSN8casacore15Gaussian1DParamINS_8AutoDiffIdEEEE@Base 3.2.1-1kern1
 _ZTSN8casacore15Gaussian1DParamISt7complexIdEEE@Base 3.2.1-1kern1
 _ZTSN8casacore15Gaussian1DParamIdEE@Base 3.2.1-1kern1
 _ZTSN8casacore15Gaussian2DParamINS_8AutoDiffISt7complexIdEEEEE@Base 3.2.1-1kern1
 _ZTSN8casacore15Gaussian2DParamINS_8AutoDiffIdEEEE@Base 3.2.1-1kern1
 _ZTSN8casacore15Gaussian2DParamISt7complexIdEEE@Base 3.2.1-1kern1
 _ZTSN8casacore15Gaussian2DParamIdEE@Base 3.2.1-1kern1
 _ZTSN8casacore15Gaussian3DParamINS_8AutoDiffISt7complexIdEEEEE@Base 3.2.1-1kern1
 _ZTSN8casacore15Gaussian3DParamINS_8AutoDiffIdEEEE@Base 3.2.1-1kern1
 _ZTSN8casacore15Gaussian3DParamISt7complexIdEEE@Base 3.2.1-1kern1
 _ZTSN8casacore15Gaussian3DParamIdEE@Base 3.2.1-1kern1
 _ZTSN8casacore15GaussianNDParamINS_8AutoDiffISt7complexIdEEEEE@Base 3.2.1-1kern1
 _ZTSN8casacore15GaussianNDParamINS_8AutoDiffIdEEEE@Base 3.2.1-1kern1
 _ZTSN8casacore15GaussianNDParamISt7complexIdEEE@Base 3.2.1-1kern1
 _ZTSN8casacore15GaussianNDParamIdEE@Base 3.2.1-1kern1
 _ZTSN8casacore15HyperPlaneParamINS_8AutoDiffISt7complexIdEEEEE@Base 3.2.1-1kern1
 _ZTSN8casacore15HyperPlaneParamINS_8AutoDiffIdEEEE@Base 3.2.1-1kern1
 _ZTSN8casacore15HyperPlaneParamISt7complexIdEEE@Base 3.2.1-1kern1
 _ZTSN8casacore15HyperPlaneParamIdEE@Base 3.2.1-1kern1
 _ZTSN8casacore15NewDelAllocatorINS_6VectorIdEEEE@Base 3.2.1-1kern1
 _ZTSN8casacore15NewDelAllocatorINS_7QuantumIdEEEE@Base 3.2.1-1kern1
 _ZTSN8casacore15NewDelAllocatorINS_8AutoDiffISt7complexIdEEEEE@Base 3.2.1-1kern1
 _ZTSN8casacore15NewDelAllocatorINS_8AutoDiffIdEEEE@Base 3.2.1-1kern1
 _ZTSN8casacore15PolynomialParamINS_8AutoDiffISt7complexIdEEEEE@Base 3.2.1-1kern1
 _ZTSN8casacore15PolynomialParamINS_8AutoDiffIdEEEE@Base 3.2.1-1kern1
 _ZTSN8casacore15PolynomialParamISt7complexIdEEE@Base 3.2.1-1kern1
 _ZTSN8casacore15PolynomialParamIdEE@Base 3.2.1-1kern1
 _ZTSN8casacore15Sinusoid1DParamINS_8AutoDiffISt7complexIdEEEEE@Base 3.2.1-1kern1
 _ZTSN8casacore15Sinusoid1DParamINS_8AutoDiffIdEEEE@Base 3.2.1-1kern1
 _ZTSN8casacore15Sinusoid1DParamISt7complexIdEEE@Base 3.2.1-1kern1
 _ZTSN8casacore15Sinusoid1DParamIdEE@Base 3.2.1-1kern1
 _ZTSN8casacore16AlignedAllocatorINS_6VectorIdEELm32EEE@Base 3.2.1-1kern1
 _ZTSN8casacore16AlignedAllocatorINS_7QuantumIdEELm32EEE@Base 3.2.1-1kern1
 _ZTSN8casacore16AlignedAllocatorINS_8AutoDiffISt7complexIdEEELm32EEE@Base 3.2.1-1kern1
 _ZTSN8casacore16AlignedAllocatorINS_8AutoDiffIdEELm32EEE@Base 3.2.1-1kern1
 _ZTSN8casacore16CompiledFunctionINS_8AutoDiffISt7complexIdEEEEE@Base 3.2.1-1kern1
 _ZTSN8casacore16CompiledFunctionINS_8AutoDiffIdEEEE@Base 3.2.1-1kern1
 _ZTSN8casacore16CompiledFunctionISt7complexIdEEE@Base 3.2.1-1kern1
 _ZTSN8casacore16CompiledFunctionIdEE@Base 3.2.1-1kern1
 _ZTSN8casacore16CompoundFunctionINS_8AutoDiffISt7complexIdEEEEE@Base 3.2.1-1kern1
 _ZTSN8casacore16CompoundFunctionINS_8AutoDiffIdEEEE@Base 3.2.1-1kern1
 _ZTSN8casacore16CompoundFunctionISt7complexIdEEE@Base 3.2.1-1kern1
 _ZTSN8casacore16CompoundFunctionIdEE@Base 3.2.1-1kern1
 _ZTSN8casacore16DefaultAllocatorINS_6VectorIdEEEE@Base 3.2.1-1kern1
 _ZTSN8casacore16DefaultAllocatorINS_7QuantumIdEEEE@Base 3.2.1-1kern1
 _ZTSN8casacore16DefaultAllocatorINS_8AutoDiffISt7complexIdEEEEE@Base 3.2.1-1kern1
 _ZTSN8casacore16DefaultAllocatorINS_8AutoDiffIdEEEE@Base 3.2.1-1kern1
 _ZTSN8casacore16NNLSMatrixSolverE@Base 3.2.1-1kern1
 _ZTSN8casacore17AbstractAllocatorINS_6VectorIdEEEE@Base 3.2.1-1kern1
 _ZTSN8casacore17AbstractAllocatorINS_7QuantumIdEEEE@Base 3.2.1-1kern1
 _ZTSN8casacore17AbstractAllocatorINS_8AutoDiffISt7complexIdEEEEE@Base 3.2.1-1kern1
 _ZTSN8casacore17AbstractAllocatorINS_8AutoDiffIdEEEE@Base 3.2.1-1kern1
 _ZTSN8casacore17Allocator_private13BulkAllocatorINS_6VectorIdEEEE@Base 3.2.1-1kern1
 _ZTSN8casacore17Allocator_private13BulkAllocatorINS_7QuantumIdEEEE@Base 3.2.1-1kern1
 _ZTSN8casacore17Allocator_private13BulkAllocatorINS_8AutoDiffISt7complexIdEEEEE@Base 3.2.1-1kern1
 _ZTSN8casacore17Allocator_private13BulkAllocatorINS_8AutoDiffIdEEEE@Base 3.2.1-1kern1
 _ZTSN8casacore17Allocator_private13BulkAllocatorIPvEE@Base 3.2.1-1kern1
 _ZTSN8casacore17Allocator_private13BulkAllocatorISt7complexIdEEE@Base 3.2.1-1kern1
 _ZTSN8casacore17Allocator_private13BulkAllocatorISt7complexIfEEE@Base 3.2.1-1kern1
 _ZTSN8casacore17Allocator_private13BulkAllocatorIdEE@Base 3.2.1-1kern1
 _ZTSN8casacore17Allocator_private13BulkAllocatorIjEE@Base 3.2.1-1kern1
 _ZTSN8casacore17Allocator_private17BulkAllocatorImplINS_17new_del_allocatorINS_6VectorIdEEEEEE@Base 3.2.1-1kern1
 _ZTSN8casacore17Allocator_private17BulkAllocatorImplINS_17new_del_allocatorINS_7QuantumIdEEEEEE@Base 3.2.1-1kern1
 _ZTSN8casacore17Allocator_private17BulkAllocatorImplINS_17new_del_allocatorINS_8AutoDiffISt7complexIdEEEEEEE@Base 3.2.1-1kern1
 _ZTSN8casacore17Allocator_private17BulkAllocatorImplINS_17new_del_allocatorINS_8AutoDiffIdEEEEEE@Base 3.2.1-1kern1
 _ZTSN8casacore17Allocator_private17BulkAllocatorImplINS_18casacore_allocatorINS_6VectorIdEELm32EEEEE@Base 3.2.1-1kern1
 _ZTSN8casacore17Allocator_private17BulkAllocatorImplINS_18casacore_allocatorINS_7QuantumIdEELm32EEEEE@Base 3.2.1-1kern1
 _ZTSN8casacore17Allocator_private17BulkAllocatorImplINS_18casacore_allocatorINS_8AutoDiffISt7complexIdEEELm32EEEEE@Base 3.2.1-1kern1
 _ZTSN8casacore17Allocator_private17BulkAllocatorImplINS_18casacore_allocatorINS_8AutoDiffIdEELm32EEEEE@Base 3.2.1-1kern1
 _ZTSN8casacore17Allocator_private17BulkAllocatorImplINS_18casacore_allocatorIPvLm32EEEEE@Base 3.2.1-1kern1
 _ZTSN8casacore17Allocator_private17BulkAllocatorImplINS_18casacore_allocatorISt7complexIdELm32EEEEE@Base 3.2.1-1kern1
 _ZTSN8casacore17Allocator_private17BulkAllocatorImplINS_18casacore_allocatorISt7complexIfELm32EEEEE@Base 3.2.1-1kern1
 _ZTSN8casacore17Allocator_private17BulkAllocatorImplINS_18casacore_allocatorIdLm32EEEEE@Base 3.2.1-1kern1
 _ZTSN8casacore17Allocator_private17BulkAllocatorImplINS_18casacore_allocatorIjLm32EEEEE@Base 3.2.1-1kern1
 _ZTSN8casacore17SampledFunctionalIdEE@Base 3.2.1-1kern1
 _ZTSN8casacore17new_del_allocatorINS_6VectorIdEEEE@Base 3.2.1-1kern1
 _ZTSN8casacore17new_del_allocatorINS_7QuantumIdEEEE@Base 3.2.1-1kern1
 _ZTSN8casacore17new_del_allocatorINS_8AutoDiffISt7complexIdEEEEE@Base 3.2.1-1kern1
 _ZTSN8casacore17new_del_allocatorINS_8AutoDiffIdEEEE@Base 3.2.1-1kern1
 _ZTSN8casacore18FieldNotFoundErrorE@Base 3.2.1-1kern1
 _ZTSN8casacore18OddPolynomialParamINS_8AutoDiffISt7complexIdEEEEE@Base 3.2.1-1kern1
 _ZTSN8casacore18OddPolynomialParamINS_8AutoDiffIdEEEE@Base 3.2.1-1kern1
 _ZTSN8casacore18OddPolynomialParamISt7complexIdEEE@Base 3.2.1-1kern1
 _ZTSN8casacore18OddPolynomialParamIdEE@Base 3.2.1-1kern1
 _ZTSN8casacore18casacore_allocatorINS_6VectorIdEELm32EEE@Base 3.2.1-1kern1
 _ZTSN8casacore18casacore_allocatorINS_7QuantumIdEELm32EEE@Base 3.2.1-1kern1
 _ZTSN8casacore18casacore_allocatorINS_8AutoDiffISt7complexIdEEELm32EEE@Base 3.2.1-1kern1
 _ZTSN8casacore18casacore_allocatorINS_8AutoDiffIdEELm32EEE@Base 3.2.1-1kern1
 _ZTSN8casacore18casacore_allocatorIPvLm32EEE@Base 3.2.1-1kern1
 _ZTSN8casacore18casacore_allocatorISt7complexIdELm32EEE@Base 3.2.1-1kern1
 _ZTSN8casacore18casacore_allocatorISt7complexIfELm32EEE@Base 3.2.1-1kern1
 _ZTSN8casacore18casacore_allocatorIdLm32EEE@Base 3.2.1-1kern1
 _ZTSN8casacore18casacore_allocatorIjLm32EEE@Base 3.2.1-1kern1
 _ZTSN8casacore19EvenPolynomialParamINS_8AutoDiffISt7complexIdEEEEE@Base 3.2.1-1kern1
 _ZTSN8casacore19EvenPolynomialParamINS_8AutoDiffIdEEEE@Base 3.2.1-1kern1
 _ZTSN8casacore19EvenPolynomialParamISt7complexIdEEE@Base 3.2.1-1kern1
 _ZTSN8casacore19EvenPolynomialParamIdEE@Base 3.2.1-1kern1
 _ZTSN8casacore20FunctionFactoryErrorE@Base 3.2.1-1kern1
 _ZTSN8casacore22ChebyshevParamModeImplINS_8AutoDiffISt7complexIdEEEEE@Base 3.2.1-1kern1
 _ZTSN8casacore22ChebyshevParamModeImplINS_8AutoDiffIdEEEE@Base 3.2.1-1kern1
 _ZTSN8casacore22ChebyshevParamModeImplISt7complexIdEEE@Base 3.2.1-1kern1
 _ZTSN8casacore22ChebyshevParamModeImplIdEE@Base 3.2.1-1kern1
 _ZTSN8casacore22SimButterworthBandpassINS_8AutoDiffISt7complexIdEEEEE@Base 3.2.1-1kern1
 _ZTSN8casacore22SimButterworthBandpassINS_8AutoDiffIdEEEE@Base 3.2.1-1kern1
 _ZTSN8casacore22SimButterworthBandpassISt7complexIdEEE@Base 3.2.1-1kern1
 _ZTSN8casacore22SimButterworthBandpassIdEE@Base 3.2.1-1kern1
 _ZTSN8casacore23ScalarSampledFunctionalIdEE@Base 3.2.1-1kern1
 _ZTSN8casacore25InvalidSerializationErrorE@Base 3.2.1-1kern1
 _ZTSN8casacore25UnrecognizedFunctionErrorE@Base 3.2.1-1kern1
 _ZTSN8casacore5ArrayINS_6VectorIdEEEE@Base 3.2.1-1kern1
 _ZTSN8casacore5ArrayINS_7QuantumIdEEEE@Base 3.2.1-1kern1
 _ZTSN8casacore5ArrayINS_8AutoDiffISt7complexIdEEEEE@Base 3.2.1-1kern1
 _ZTSN8casacore5ArrayINS_8AutoDiffIdEEEE@Base 3.2.1-1kern1
 _ZTSN8casacore6LSQFitE@Base 3.2.1-1kern1
 _ZTSN8casacore6VectorINS0_IdEEEE@Base 3.2.1-1kern1
 _ZTSN8casacore6VectorINS_7QuantumIdEEEE@Base 3.2.1-1kern1
 _ZTSN8casacore6VectorINS_8AutoDiffISt7complexIdEEEEE@Base 3.2.1-1kern1
 _ZTSN8casacore6VectorINS_8AutoDiffIdEEEE@Base 3.2.1-1kern1
 _ZTSN8casacore7LSQaipsE@Base 3.2.1-1kern1
 _ZTSN8casacore8FunctionINS_8AutoDiffISt7complexIdEEES4_EE@Base 3.2.1-1kern1
 _ZTSN8casacore8FunctionINS_8AutoDiffIdEES2_EE@Base 3.2.1-1kern1
 _ZTSN8casacore8FunctionISt7complexIdES2_EE@Base 3.2.1-1kern1
 _ZTSN8casacore8FunctionIddEE@Base 3.2.1-1kern1
 _ZTSN8casacore9ChebyshevINS_8AutoDiffISt7complexIdEEEEE@Base 3.2.1-1kern1
 _ZTSN8casacore9ChebyshevINS_8AutoDiffIdEEEE@Base 3.2.1-1kern1
 _ZTSN8casacore9ChebyshevISt7complexIdEEE@Base 3.2.1-1kern1
 _ZTSN8casacore9ChebyshevIdEE@Base 3.2.1-1kern1
 _ZTSN8casacore9LSQMatrixE@Base 3.2.1-1kern1
 _ZTSN8casacore9LinearFitISt7complexIdEEE@Base 3.2.1-1kern1
 _ZTSN8casacore9LinearFitIdEE@Base 3.2.1-1kern1
 _ZTSN9__gnu_cxx13new_allocatorIN8casacore6VectorIdEEEE@Base 3.2.1-1kern1
 _ZTSN9__gnu_cxx13new_allocatorIN8casacore7QuantumIdEEEE@Base 3.2.1-1kern1
 _ZTSN9__gnu_cxx13new_allocatorIN8casacore8AutoDiffISt7complexIdEEEEE@Base 3.2.1-1kern1
 _ZTSN9__gnu_cxx13new_allocatorIN8casacore8AutoDiffIdEEEE@Base 3.2.1-1kern1
 _ZTSN9__gnu_cxx13new_allocatorIPvEE@Base 3.2.1-1kern1
 _ZTSN9__gnu_cxx13new_allocatorISt7complexIdEEE@Base 3.2.1-1kern1
 _ZTSN9__gnu_cxx13new_allocatorISt7complexIfEEE@Base 3.2.1-1kern1
 _ZTSN9__gnu_cxx13new_allocatorIdEE@Base 3.2.1-1kern1
 _ZTSN9__gnu_cxx13new_allocatorIjEE@Base 3.2.1-1kern1
 _ZTSSaIN8casacore6VectorIdEEE@Base 3.2.1-1kern1
 _ZTSSaIN8casacore7QuantumIdEEE@Base 3.2.1-1kern1
 _ZTSSaIN8casacore8AutoDiffISt7complexIdEEEE@Base 3.2.1-1kern1
 _ZTSSaIN8casacore8AutoDiffIdEEE@Base 3.2.1-1kern1
 _ZTSSaIPvE@Base 3.2.1-1kern1
 _ZTSSaISt7complexIdEE@Base 3.2.1-1kern1
 _ZTSSaISt7complexIfEE@Base 3.2.1-1kern1
 _ZTSSaIdE@Base 3.2.1-1kern1
 _ZTSSaIjE@Base 3.2.1-1kern1
 _ZTSSt11_Mutex_baseILN9__gnu_cxx12_Lock_policyE2EE@Base 3.2.1-1kern1
 _ZTSSt15_Sp_counted_ptrIPN8casacore5BlockINS0_6VectorIdEEEELN9__gnu_cxx12_Lock_policyE2EE@Base 3.2.1-1kern1
 _ZTSSt15_Sp_counted_ptrIPN8casacore5BlockINS0_7QuantumIdEEEELN9__gnu_cxx12_Lock_policyE2EE@Base 3.2.1-1kern1
 _ZTSSt15_Sp_counted_ptrIPN8casacore5BlockINS0_8AutoDiffISt7complexIdEEEEELN9__gnu_cxx12_Lock_policyE2EE@Base 3.2.1-1kern1
 _ZTSSt15_Sp_counted_ptrIPN8casacore5BlockINS0_8AutoDiffIdEEEELN9__gnu_cxx12_Lock_policyE2EE@Base 3.2.1-1kern1
 _ZTSSt16_Sp_counted_baseILN9__gnu_cxx12_Lock_policyE2EE@Base 3.2.1-1kern1
 _ZTSSt19_Sp_counted_deleterIPN8casacore21ArrayPositionIteratorENS0_10CountedPtrIS1_E7DeleterIS1_EESaIvELN9__gnu_cxx12_Lock_policyE2EE@Base 3.2.1-1kern1
 _ZTSSt19_Sp_counted_deleterIPN8casacore5BlockINS0_6VectorIdEEEENS0_10CountedPtrIS4_E7DeleterIS4_EESaIvELN9__gnu_cxx12_Lock_policyE2EE@Base 3.2.1-1kern1
 _ZTSSt19_Sp_counted_deleterIPN8casacore5BlockINS0_7QuantumIdEEEENS0_10CountedPtrIS4_E7DeleterIS4_EESaIvELN9__gnu_cxx12_Lock_policyE2EE@Base 3.2.1-1kern1
 _ZTSSt19_Sp_counted_deleterIPN8casacore5BlockINS0_8AutoDiffISt7complexIdEEEEENS0_10CountedPtrIS6_E7DeleterIS6_EESaIvELN9__gnu_cxx12_Lock_policyE2EE@Base 3.2.1-1kern1
 _ZTSSt19_Sp_counted_deleterIPN8casacore5BlockINS0_8AutoDiffIdEEEENS0_10CountedPtrIS4_E7DeleterIS4_EESaIvELN9__gnu_cxx12_Lock_policyE2EE@Base 3.2.1-1kern1
 _ZTSSt19_Sp_counted_deleterIPN8casacore9ArrayBaseENS0_10CountedPtrIS1_E7DeleterIS1_EESaIvELN9__gnu_cxx12_Lock_policyE2EE@Base 3.2.1-1kern1
 _ZTVN8casacore10CombiParamINS_8AutoDiffISt7complexIdEEEEE@Base 3.2.1-1kern1
 _ZTVN8casacore10CombiParamINS_8AutoDiffIdEEEE@Base 3.2.1-1kern1
 _ZTVN8casacore10CombiParamISt7complexIdEEE@Base 3.2.1-1kern1
 _ZTVN8casacore10CombiParamIdEE@Base 3.2.1-1kern1
 _ZTVN8casacore10Gaussian1DINS_8AutoDiffISt7complexIdEEEEE@Base 3.2.1-1kern1
 _ZTVN8casacore10Gaussian1DINS_8AutoDiffIdEEEE@Base 3.2.1-1kern1
 _ZTVN8casacore10Gaussian1DISt7complexIdEEE@Base 3.2.1-1kern1
 _ZTVN8casacore10Gaussian1DIdEE@Base 3.2.1-1kern1
 _ZTVN8casacore10Gaussian2DINS_8AutoDiffISt7complexIdEEEEE@Base 3.2.1-1kern1
 _ZTVN8casacore10Gaussian2DINS_8AutoDiffIdEEEE@Base 3.2.1-1kern1
 _ZTVN8casacore10Gaussian2DISt7complexIdEEE@Base 3.2.1-1kern1
 _ZTVN8casacore10Gaussian2DIdEE@Base 3.2.1-1kern1
 _ZTVN8casacore10Gaussian3DINS_8AutoDiffISt7complexIdEEEEE@Base 3.2.1-1kern1
 _ZTVN8casacore10Gaussian3DINS_8AutoDiffIdEEEE@Base 3.2.1-1kern1
 _ZTVN8casacore10Gaussian3DISt7complexIdEEE@Base 3.2.1-1kern1
 _ZTVN8casacore10Gaussian3DIdEE@Base 3.2.1-1kern1
 _ZTVN8casacore10GaussianNDINS_8AutoDiffISt7complexIdEEEEE@Base 3.2.1-1kern1
 _ZTVN8casacore10GaussianNDINS_8AutoDiffIdEEEE@Base 3.2.1-1kern1
 _ZTVN8casacore10GaussianNDISt7complexIdEEE@Base 3.2.1-1kern1
 _ZTVN8casacore10GaussianNDIdEE@Base 3.2.1-1kern1
 _ZTVN8casacore10HyperPlaneINS_8AutoDiffISt7complexIdEEEEE@Base 3.2.1-1kern1
 _ZTVN8casacore10HyperPlaneINS_8AutoDiffIdEEEE@Base 3.2.1-1kern1
 _ZTVN8casacore10HyperPlaneISt7complexIdEEE@Base 3.2.1-1kern1
 _ZTVN8casacore10HyperPlaneIdEE@Base 3.2.1-1kern1
 _ZTVN8casacore10PolynomialINS_8AutoDiffISt7complexIdEEEEE@Base 3.2.1-1kern1
 _ZTVN8casacore10PolynomialINS_8AutoDiffIdEEEE@Base 3.2.1-1kern1
 _ZTVN8casacore10PolynomialISt7complexIdEEE@Base 3.2.1-1kern1
 _ZTVN8casacore10PolynomialIdEE@Base 3.2.1-1kern1
 _ZTVN8casacore10Sinusoid1DINS_8AutoDiffISt7complexIdEEEEE@Base 3.2.1-1kern1
 _ZTVN8casacore10Sinusoid1DINS_8AutoDiffIdEEEE@Base 3.2.1-1kern1
 _ZTVN8casacore10Sinusoid1DISt7complexIdEEE@Base 3.2.1-1kern1
 _ZTVN8casacore10Sinusoid1DIdEE@Base 3.2.1-1kern1
 _ZTVN8casacore12FittingProxyE@Base 3.2.1-1kern1
 _ZTVN8casacore12GenericL2FitISt7complexIdEEE@Base 3.2.1-1kern1
 _ZTVN8casacore12GenericL2FitIdEE@Base 3.2.1-1kern1
 _ZTVN8casacore12LinearFitSVDISt7complexIdEEE@Base 3.2.1-1kern1
 _ZTVN8casacore12LinearFitSVDIdEE@Base 3.2.1-1kern1
 _ZTVN8casacore12MatrixSolverE@Base 3.2.1-1kern1
 _ZTVN8casacore12NonLinearFitISt7complexIdEEE@Base 3.2.1-1kern1
 _ZTVN8casacore12NonLinearFitIdEE@Base 3.2.1-1kern1
 _ZTVN8casacore13ArrayIteratorINS_6VectorIdEEEE@Base 3.2.1-1kern1
 _ZTVN8casacore13ArrayIteratorINS_7QuantumIdEEEE@Base 3.2.1-1kern1
 _ZTVN8casacore13ArrayIteratorINS_8AutoDiffISt7complexIdEEEEE@Base 3.2.1-1kern1
 _ZTVN8casacore13ArrayIteratorINS_8AutoDiffIdEEEE@Base 3.2.1-1kern1
 _ZTVN8casacore13ArrayIteratorISt7complexIdEEE@Base 3.2.1-1kern1
 _ZTVN8casacore13ArrayIteratorISt7complexIfEEE@Base 3.2.1-1kern1
 _ZTVN8casacore13ArrayIteratorIbEE@Base 3.2.1-1kern1
 _ZTVN8casacore13ArrayIteratorIdEE@Base 3.2.1-1kern1
 _ZTVN8casacore13ArrayIteratorIfEE@Base 3.2.1-1kern1
 _ZTVN8casacore13CombiFunctionINS_8AutoDiffISt7complexIdEEEEE@Base 3.2.1-1kern1
 _ZTVN8casacore13CombiFunctionINS_8AutoDiffIdEEEE@Base 3.2.1-1kern1
 _ZTVN8casacore13CombiFunctionISt7complexIdEEE@Base 3.2.1-1kern1
 _ZTVN8casacore13CombiFunctionIdEE@Base 3.2.1-1kern1
 _ZTVN8casacore13CompiledParamINS_8AutoDiffISt7complexIdEEEEE@Base 3.2.1-1kern1
 _ZTVN8casacore13CompiledParamINS_8AutoDiffIdEEEE@Base 3.2.1-1kern1
 _ZTVN8casacore13CompiledParamISt7complexIdEEE@Base 3.2.1-1kern1
 _ZTVN8casacore13CompiledParamIdEE@Base 3.2.1-1kern1
 _ZTVN8casacore13CompoundParamINS_8AutoDiffISt7complexIdEEEEE@Base 3.2.1-1kern1
 _ZTVN8casacore13CompoundParamINS_8AutoDiffIdEEEE@Base 3.2.1-1kern1
 _ZTVN8casacore13CompoundParamISt7complexIdEEE@Base 3.2.1-1kern1
 _ZTVN8casacore13CompoundParamIdEE@Base 3.2.1-1kern1
 _ZTVN8casacore13FunctionParamINS_8AutoDiffISt7complexIdEEEEE@Base 3.2.1-1kern1
 _ZTVN8casacore13FunctionParamINS_8AutoDiffIdEEEE@Base 3.2.1-1kern1
 _ZTVN8casacore13FunctionParamISt7complexIdEEE@Base 3.2.1-1kern1
 _ZTVN8casacore13FunctionParamIdEE@Base 3.2.1-1kern1
 _ZTVN8casacore13Interpolate1DIddEE@Base 3.2.1-1kern1
 _ZTVN8casacore13OddPolynomialINS_8AutoDiffISt7complexIdEEEEE@Base 3.2.1-1kern1
 _ZTVN8casacore13OddPolynomialINS_8AutoDiffIdEEEE@Base 3.2.1-1kern1
 _ZTVN8casacore13OddPolynomialISt7complexIdEEE@Base 3.2.1-1kern1
 _ZTVN8casacore13OddPolynomialIdEE@Base 3.2.1-1kern1
 _ZTVN8casacore14ChebyshevParamINS_8AutoDiffISt7complexIdEEEEE@Base 3.2.1-1kern1
 _ZTVN8casacore14ChebyshevParamINS_8AutoDiffIdEEEE@Base 3.2.1-1kern1
 _ZTVN8casacore14EvenPolynomialINS_8AutoDiffISt7complexIdEEEEE@Base 3.2.1-1kern1
 _ZTVN8casacore14EvenPolynomialINS_8AutoDiffIdEEEE@Base 3.2.1-1kern1
 _ZTVN8casacore14EvenPolynomialISt7complexIdEEE@Base 3.2.1-1kern1
 _ZTVN8casacore14EvenPolynomialIdEE@Base 3.2.1-1kern1
 _ZTVN8casacore14FunctionHolderISt7complexIdEEE@Base 3.2.1-1kern1
 _ZTVN8casacore14FunctionHolderIdEE@Base 3.2.1-1kern1
 _ZTVN8casacore14NonLinearFitLMISt7complexIdEEE@Base 3.2.1-1kern1
 _ZTVN8casacore14NonLinearFitLMIdEE@Base 3.2.1-1kern1
 _ZTVN8casacore14VectorIteratorISt7complexIdEEE@Base 3.2.1-1kern1
 _ZTVN8casacore14VectorIteratorISt7complexIfEEE@Base 3.2.1-1kern1
 _ZTVN8casacore15FunctionalProxyE@Base 3.2.1-1kern1
 _ZTVN8casacore15Gaussian1DParamINS_8AutoDiffISt7complexIdEEEEE@Base 3.2.1-1kern1
 _ZTVN8casacore15Gaussian1DParamINS_8AutoDiffIdEEEE@Base 3.2.1-1kern1
 _ZTVN8casacore15Gaussian1DParamISt7complexIdEEE@Base 3.2.1-1kern1
 _ZTVN8casacore15Gaussian1DParamIdEE@Base 3.2.1-1kern1
 _ZTVN8casacore15Gaussian2DParamINS_8AutoDiffISt7complexIdEEEEE@Base 3.2.1-1kern1
 _ZTVN8casacore15Gaussian2DParamINS_8AutoDiffIdEEEE@Base 3.2.1-1kern1
 _ZTVN8casacore15Gaussian2DParamISt7complexIdEEE@Base 3.2.1-1kern1
 _ZTVN8casacore15Gaussian2DParamIdEE@Base 3.2.1-1kern1
 _ZTVN8casacore15Gaussian3DParamINS_8AutoDiffISt7complexIdEEEEE@Base 3.2.1-1kern1
 _ZTVN8casacore15Gaussian3DParamINS_8AutoDiffIdEEEE@Base 3.2.1-1kern1
 _ZTVN8casacore15Gaussian3DParamISt7complexIdEEE@Base 3.2.1-1kern1
 _ZTVN8casacore15Gaussian3DParamIdEE@Base 3.2.1-1kern1
 _ZTVN8casacore15GaussianNDParamINS_8AutoDiffISt7complexIdEEEEE@Base 3.2.1-1kern1
 _ZTVN8casacore15GaussianNDParamINS_8AutoDiffIdEEEE@Base 3.2.1-1kern1
 _ZTVN8casacore15GaussianNDParamISt7complexIdEEE@Base 3.2.1-1kern1
 _ZTVN8casacore15GaussianNDParamIdEE@Base 3.2.1-1kern1
 _ZTVN8casacore15NewDelAllocatorINS_6VectorIdEEEE@Base 3.2.1-1kern1
 _ZTVN8casacore15NewDelAllocatorINS_7QuantumIdEEEE@Base 3.2.1-1kern1
 _ZTVN8casacore15NewDelAllocatorINS_8AutoDiffISt7complexIdEEEEE@Base 3.2.1-1kern1
 _ZTVN8casacore15NewDelAllocatorINS_8AutoDiffIdEEEE@Base 3.2.1-1kern1
 _ZTVN8casacore15Sinusoid1DParamINS_8AutoDiffISt7complexIdEEEEE@Base 3.2.1-1kern1
 _ZTVN8casacore15Sinusoid1DParamINS_8AutoDiffIdEEEE@Base 3.2.1-1kern1
 _ZTVN8casacore15Sinusoid1DParamISt7complexIdEEE@Base 3.2.1-1kern1
 _ZTVN8casacore15Sinusoid1DParamIdEE@Base 3.2.1-1kern1
 _ZTVN8casacore16CompiledFunctionINS_8AutoDiffISt7complexIdEEEEE@Base 3.2.1-1kern1
 _ZTVN8casacore16CompiledFunctionINS_8AutoDiffIdEEEE@Base 3.2.1-1kern1
 _ZTVN8casacore16CompiledFunctionISt7complexIdEEE@Base 3.2.1-1kern1
 _ZTVN8casacore16CompiledFunctionIdEE@Base 3.2.1-1kern1
 _ZTVN8casacore16CompoundFunctionINS_8AutoDiffISt7complexIdEEEEE@Base 3.2.1-1kern1
 _ZTVN8casacore16CompoundFunctionINS_8AutoDiffIdEEEE@Base 3.2.1-1kern1
 _ZTVN8casacore16CompoundFunctionISt7complexIdEEE@Base 3.2.1-1kern1
 _ZTVN8casacore16CompoundFunctionIdEE@Base 3.2.1-1kern1
 _ZTVN8casacore16DefaultAllocatorINS_6VectorIdEEEE@Base 3.2.1-1kern1
 _ZTVN8casacore16DefaultAllocatorINS_7QuantumIdEEEE@Base 3.2.1-1kern1
 _ZTVN8casacore16DefaultAllocatorINS_8AutoDiffISt7complexIdEEEEE@Base 3.2.1-1kern1
 _ZTVN8casacore16DefaultAllocatorINS_8AutoDiffIdEEEE@Base 3.2.1-1kern1
 _ZTVN8casacore16NNLSMatrixSolverE@Base 3.2.1-1kern1
 _ZTVN8casacore17Allocator_private17BulkAllocatorImplINS_17new_del_allocatorINS_6VectorIdEEEEEE@Base 3.2.1-1kern1
 _ZTVN8casacore17Allocator_private17BulkAllocatorImplINS_17new_del_allocatorINS_7QuantumIdEEEEEE@Base 3.2.1-1kern1
 _ZTVN8casacore17Allocator_private17BulkAllocatorImplINS_17new_del_allocatorINS_8AutoDiffISt7complexIdEEEEEEE@Base 3.2.1-1kern1
 _ZTVN8casacore17Allocator_private17BulkAllocatorImplINS_17new_del_allocatorINS_8AutoDiffIdEEEEEE@Base 3.2.1-1kern1
 _ZTVN8casacore17Allocator_private17BulkAllocatorImplINS_18casacore_allocatorINS_6VectorIdEELm32EEEEE@Base 3.2.1-1kern1
 _ZTVN8casacore17Allocator_private17BulkAllocatorImplINS_18casacore_allocatorINS_7QuantumIdEELm32EEEEE@Base 3.2.1-1kern1
 _ZTVN8casacore17Allocator_private17BulkAllocatorImplINS_18casacore_allocatorINS_8AutoDiffISt7complexIdEEELm32EEEEE@Base 3.2.1-1kern1
 _ZTVN8casacore17Allocator_private17BulkAllocatorImplINS_18casacore_allocatorINS_8AutoDiffIdEELm32EEEEE@Base 3.2.1-1kern1
 _ZTVN8casacore17Allocator_private17BulkAllocatorImplINS_18casacore_allocatorIPvLm32EEEEE@Base 3.2.1-1kern1
 _ZTVN8casacore17Allocator_private17BulkAllocatorImplINS_18casacore_allocatorISt7complexIdELm32EEEEE@Base 3.2.1-1kern1
 _ZTVN8casacore17Allocator_private17BulkAllocatorImplINS_18casacore_allocatorISt7complexIfELm32EEEEE@Base 3.2.1-1kern1
 _ZTVN8casacore17Allocator_private17BulkAllocatorImplINS_18casacore_allocatorIdLm32EEEEE@Base 3.2.1-1kern1
 _ZTVN8casacore17Allocator_private17BulkAllocatorImplINS_18casacore_allocatorIjLm32EEEEE@Base 3.2.1-1kern1
 _ZTVN8casacore18FieldNotFoundErrorE@Base 3.2.1-1kern1
 _ZTVN8casacore20FunctionFactoryErrorE@Base 3.2.1-1kern1
 _ZTVN8casacore22ChebyshevParamModeImplINS_8AutoDiffISt7complexIdEEEEE@Base 3.2.1-1kern1
 _ZTVN8casacore22ChebyshevParamModeImplINS_8AutoDiffIdEEEE@Base 3.2.1-1kern1
 _ZTVN8casacore22ChebyshevParamModeImplISt7complexIdEEE@Base 3.2.1-1kern1
 _ZTVN8casacore22ChebyshevParamModeImplIdEE@Base 3.2.1-1kern1
 _ZTVN8casacore22SimButterworthBandpassINS_8AutoDiffISt7complexIdEEEEE@Base 3.2.1-1kern1
 _ZTVN8casacore22SimButterworthBandpassINS_8AutoDiffIdEEEE@Base 3.2.1-1kern1
 _ZTVN8casacore22SimButterworthBandpassISt7complexIdEEE@Base 3.2.1-1kern1
 _ZTVN8casacore22SimButterworthBandpassIdEE@Base 3.2.1-1kern1
 _ZTVN8casacore23ScalarSampledFunctionalIdEE@Base 3.2.1-1kern1
 _ZTVN8casacore25InvalidSerializationErrorE@Base 3.2.1-1kern1
 _ZTVN8casacore25UnrecognizedFunctionErrorE@Base 3.2.1-1kern1
 _ZTVN8casacore5ArrayINS_6VectorIdEEEE@Base 3.2.1-1kern1
 _ZTVN8casacore5ArrayINS_7QuantumIdEEEE@Base 3.2.1-1kern1
 _ZTVN8casacore5ArrayINS_8AutoDiffISt7complexIdEEEEE@Base 3.2.1-1kern1
 _ZTVN8casacore5ArrayINS_8AutoDiffIdEEEE@Base 3.2.1-1kern1
 _ZTVN8casacore6VectorINS0_IdEEEE@Base 3.2.1-1kern1
 _ZTVN8casacore6VectorINS_7QuantumIdEEEE@Base 3.2.1-1kern1
 _ZTVN8casacore6VectorINS_8AutoDiffISt7complexIdEEEEE@Base 3.2.1-1kern1
 _ZTVN8casacore6VectorINS_8AutoDiffIdEEEE@Base 3.2.1-1kern1
 _ZTVN8casacore8FunctionINS_8AutoDiffISt7complexIdEEES4_EE@Base 3.2.1-1kern1
 _ZTVN8casacore8FunctionINS_8AutoDiffIdEES2_EE@Base 3.2.1-1kern1
 _ZTVN8casacore8FunctionISt7complexIdES2_EE@Base 3.2.1-1kern1
 _ZTVN8casacore8FunctionIddEE@Base 3.2.1-1kern1
 _ZTVN8casacore9ChebyshevINS_8AutoDiffISt7complexIdEEEEE@Base 3.2.1-1kern1
 _ZTVN8casacore9ChebyshevINS_8AutoDiffIdEEEE@Base 3.2.1-1kern1
 _ZTVN8casacore9ChebyshevISt7complexIdEEE@Base 3.2.1-1kern1
 _ZTVN8casacore9ChebyshevIdEE@Base 3.2.1-1kern1
 _ZTVN8casacore9LSQMatrixE@Base 3.2.1-1kern1
 _ZTVN8casacore9LinearFitISt7complexIdEEE@Base 3.2.1-1kern1
 _ZTVN8casacore9LinearFitIdEE@Base 3.2.1-1kern1
 _ZTVSt15_Sp_counted_ptrIPN8casacore5BlockINS0_6VectorIdEEEELN9__gnu_cxx12_Lock_policyE2EE@Base 3.2.1-1kern1
 _ZTVSt15_Sp_counted_ptrIPN8casacore5BlockINS0_7QuantumIdEEEELN9__gnu_cxx12_Lock_policyE2EE@Base 3.2.1-1kern1
 _ZTVSt15_Sp_counted_ptrIPN8casacore5BlockINS0_8AutoDiffISt7complexIdEEEEELN9__gnu_cxx12_Lock_policyE2EE@Base 3.2.1-1kern1
 _ZTVSt15_Sp_counted_ptrIPN8casacore5BlockINS0_8AutoDiffIdEEEELN9__gnu_cxx12_Lock_policyE2EE@Base 3.2.1-1kern1
 _ZTVSt19_Sp_counted_deleterIPN8casacore21ArrayPositionIteratorENS0_10CountedPtrIS1_E7DeleterIS1_EESaIvELN9__gnu_cxx12_Lock_policyE2EE@Base 3.2.1-1kern1
 _ZTVSt19_Sp_counted_deleterIPN8casacore5BlockINS0_6VectorIdEEEENS0_10CountedPtrIS4_E7DeleterIS4_EESaIvELN9__gnu_cxx12_Lock_policyE2EE@Base 3.2.1-1kern1
 _ZTVSt19_Sp_counted_deleterIPN8casacore5BlockINS0_7QuantumIdEEEENS0_10CountedPtrIS4_E7DeleterIS4_EESaIvELN9__gnu_cxx12_Lock_policyE2EE@Base 3.2.1-1kern1
 _ZTVSt19_Sp_counted_deleterIPN8casacore5BlockINS0_8AutoDiffISt7complexIdEEEEENS0_10CountedPtrIS6_E7DeleterIS6_EESaIvELN9__gnu_cxx12_Lock_policyE2EE@Base 3.2.1-1kern1
 _ZTVSt19_Sp_counted_deleterIPN8casacore5BlockINS0_8AutoDiffIdEEEENS0_10CountedPtrIS4_E7DeleterIS4_EESaIvELN9__gnu_cxx12_Lock_policyE2EE@Base 3.2.1-1kern1
 _ZTVSt19_Sp_counted_deleterIPN8casacore9ArrayBaseENS0_10CountedPtrIS1_E7DeleterIS1_EESaIvELN9__gnu_cxx12_Lock_policyE2EE@Base 3.2.1-1kern1
 _ZThn8_N8casacore10CombiParamINS_8AutoDiffISt7complexIdEEEED0Ev@Base 3.2.1-1kern1
 _ZThn8_N8casacore10CombiParamINS_8AutoDiffISt7complexIdEEEED1Ev@Base 3.2.1-1kern1
 _ZThn8_N8casacore10CombiParamINS_8AutoDiffIdEEED0Ev@Base 3.2.1-1kern1
 _ZThn8_N8casacore10CombiParamINS_8AutoDiffIdEEED1Ev@Base 3.2.1-1kern1
 _ZThn8_N8casacore10CombiParamISt7complexIdEED0Ev@Base 3.2.1-1kern1
 _ZThn8_N8casacore10CombiParamISt7complexIdEED1Ev@Base 3.2.1-1kern1
 _ZThn8_N8casacore10CombiParamIdED0Ev@Base 3.2.1-1kern1
 _ZThn8_N8casacore10CombiParamIdED1Ev@Base 3.2.1-1kern1
 _ZThn8_N8casacore10Gaussian1DINS_8AutoDiffISt7complexIdEEEED0Ev@Base 3.2.1-1kern1
 _ZThn8_N8casacore10Gaussian1DINS_8AutoDiffISt7complexIdEEEED1Ev@Base 3.2.1-1kern1
 _ZThn8_N8casacore10Gaussian1DINS_8AutoDiffIdEEED0Ev@Base 3.2.1-1kern1
 _ZThn8_N8casacore10Gaussian1DINS_8AutoDiffIdEEED1Ev@Base 3.2.1-1kern1
 _ZThn8_N8casacore10Gaussian1DISt7complexIdEED0Ev@Base 3.2.1-1kern1
 _ZThn8_N8casacore10Gaussian1DISt7complexIdEED1Ev@Base 3.2.1-1kern1
 _ZThn8_N8casacore10Gaussian1DIdED0Ev@Base 3.2.1-1kern1
 _ZThn8_N8casacore10Gaussian1DIdED1Ev@Base 3.2.1-1kern1
 _ZThn8_N8casacore10Gaussian2DINS_8AutoDiffISt7complexIdEEEED0Ev@Base 3.2.1-1kern1
 _ZThn8_N8casacore10Gaussian2DINS_8AutoDiffISt7complexIdEEEED1Ev@Base 3.2.1-1kern1
 _ZThn8_N8casacore10Gaussian2DINS_8AutoDiffIdEEED0Ev@Base 3.2.1-1kern1
 _ZThn8_N8casacore10Gaussian2DINS_8AutoDiffIdEEED1Ev@Base 3.2.1-1kern1
 _ZThn8_N8casacore10Gaussian2DISt7complexIdEED0Ev@Base 3.2.1-1kern1
 _ZThn8_N8casacore10Gaussian2DISt7complexIdEED1Ev@Base 3.2.1-1kern1
 _ZThn8_N8casacore10Gaussian2DIdED0Ev@Base 3.2.1-1kern1
 _ZThn8_N8casacore10Gaussian2DIdED1Ev@Base 3.2.1-1kern1
 _ZThn8_N8casacore10Gaussian3DINS_8AutoDiffISt7complexIdEEEED0Ev@Base 3.2.1-1kern1
 _ZThn8_N8casacore10Gaussian3DINS_8AutoDiffISt7complexIdEEEED1Ev@Base 3.2.1-1kern1
 _ZThn8_N8casacore10Gaussian3DINS_8AutoDiffIdEEED0Ev@Base 3.2.1-1kern1
 _ZThn8_N8casacore10Gaussian3DINS_8AutoDiffIdEEED1Ev@Base 3.2.1-1kern1
 _ZThn8_N8casacore10Gaussian3DISt7complexIdEED0Ev@Base 3.2.1-1kern1
 _ZThn8_N8casacore10Gaussian3DISt7complexIdEED1Ev@Base 3.2.1-1kern1
 _ZThn8_N8casacore10Gaussian3DIdED0Ev@Base 3.2.1-1kern1
 _ZThn8_N8casacore10Gaussian3DIdED1Ev@Base 3.2.1-1kern1
 _ZThn8_N8casacore10GaussianNDINS_8AutoDiffISt7complexIdEEEED0Ev@Base 3.2.1-1kern1
 _ZThn8_N8casacore10GaussianNDINS_8AutoDiffISt7complexIdEEEED1Ev@Base 3.2.1-1kern1
 _ZThn8_N8casacore10GaussianNDINS_8AutoDiffIdEEED0Ev@Base 3.2.1-1kern1
 _ZThn8_N8casacore10GaussianNDINS_8AutoDiffIdEEED1Ev@Base 3.2.1-1kern1
 _ZThn8_N8casacore10GaussianNDISt7complexIdEED0Ev@Base 3.2.1-1kern1
 _ZThn8_N8casacore10GaussianNDISt7complexIdEED1Ev@Base 3.2.1-1kern1
 _ZThn8_N8casacore10GaussianNDIdED0Ev@Base 3.2.1-1kern1
 _ZThn8_N8casacore10GaussianNDIdED1Ev@Base 3.2.1-1kern1
 _ZThn8_N8casacore10HyperPlaneINS_8AutoDiffISt7complexIdEEEED0Ev@Base 3.2.1-1kern1
 _ZThn8_N8casacore10HyperPlaneINS_8AutoDiffISt7complexIdEEEED1Ev@Base 3.2.1-1kern1
 _ZThn8_N8casacore10HyperPlaneINS_8AutoDiffIdEEED0Ev@Base 3.2.1-1kern1
 _ZThn8_N8casacore10HyperPlaneINS_8AutoDiffIdEEED1Ev@Base 3.2.1-1kern1
 _ZThn8_N8casacore10HyperPlaneISt7complexIdEED0Ev@Base 3.2.1-1kern1
 _ZThn8_N8casacore10HyperPlaneISt7complexIdEED1Ev@Base 3.2.1-1kern1
 _ZThn8_N8casacore10HyperPlaneIdED0Ev@Base 3.2.1-1kern1
 _ZThn8_N8casacore10HyperPlaneIdED1Ev@Base 3.2.1-1kern1
 _ZThn8_N8casacore10PolynomialINS_8AutoDiffISt7complexIdEEEED0Ev@Base 3.2.1-1kern1
 _ZThn8_N8casacore10PolynomialINS_8AutoDiffISt7complexIdEEEED1Ev@Base 3.2.1-1kern1
 _ZThn8_N8casacore10PolynomialINS_8AutoDiffIdEEED0Ev@Base 3.2.1-1kern1
 _ZThn8_N8casacore10PolynomialINS_8AutoDiffIdEEED1Ev@Base 3.2.1-1kern1
 _ZThn8_N8casacore10PolynomialISt7complexIdEED0Ev@Base 3.2.1-1kern1
 _ZThn8_N8casacore10PolynomialISt7complexIdEED1Ev@Base 3.2.1-1kern1
 _ZThn8_N8casacore10PolynomialIdED0Ev@Base 3.2.1-1kern1
 _ZThn8_N8casacore10PolynomialIdED1Ev@Base 3.2.1-1kern1
 _ZThn8_N8casacore10Sinusoid1DINS_8AutoDiffISt7complexIdEEEED0Ev@Base 3.2.1-1kern1
 _ZThn8_N8casacore10Sinusoid1DINS_8AutoDiffISt7complexIdEEEED1Ev@Base 3.2.1-1kern1
 _ZThn8_N8casacore10Sinusoid1DINS_8AutoDiffIdEEED0Ev@Base 3.2.1-1kern1
 _ZThn8_N8casacore10Sinusoid1DINS_8AutoDiffIdEEED1Ev@Base 3.2.1-1kern1
 _ZThn8_N8casacore10Sinusoid1DISt7complexIdEED0Ev@Base 3.2.1-1kern1
 _ZThn8_N8casacore10Sinusoid1DISt7complexIdEED1Ev@Base 3.2.1-1kern1
 _ZThn8_N8casacore10Sinusoid1DIdED0Ev@Base 3.2.1-1kern1
 _ZThn8_N8casacore10Sinusoid1DIdED1Ev@Base 3.2.1-1kern1
 _ZThn8_N8casacore13CombiFunctionINS_8AutoDiffISt7complexIdEEEED0Ev@Base 3.2.1-1kern1
 _ZThn8_N8casacore13CombiFunctionINS_8AutoDiffISt7complexIdEEEED1Ev@Base 3.2.1-1kern1
 _ZThn8_N8casacore13CombiFunctionINS_8AutoDiffIdEEED0Ev@Base 3.2.1-1kern1
 _ZThn8_N8casacore13CombiFunctionINS_8AutoDiffIdEEED1Ev@Base 3.2.1-1kern1
 _ZThn8_N8casacore13CombiFunctionISt7complexIdEED0Ev@Base 3.2.1-1kern1
 _ZThn8_N8casacore13CombiFunctionISt7complexIdEED1Ev@Base 3.2.1-1kern1
 _ZThn8_N8casacore13CombiFunctionIdED0Ev@Base 3.2.1-1kern1
 _ZThn8_N8casacore13CombiFunctionIdED1Ev@Base 3.2.1-1kern1
 _ZThn8_N8casacore13CompiledParamINS_8AutoDiffISt7complexIdEEEED0Ev@Base 3.2.1-1kern1
 _ZThn8_N8casacore13CompiledParamINS_8AutoDiffISt7complexIdEEEED1Ev@Base 3.2.1-1kern1
 _ZThn8_N8casacore13CompiledParamINS_8AutoDiffIdEEED0Ev@Base 3.2.1-1kern1
 _ZThn8_N8casacore13CompiledParamINS_8AutoDiffIdEEED1Ev@Base 3.2.1-1kern1
 _ZThn8_N8casacore13CompiledParamISt7complexIdEED0Ev@Base 3.2.1-1kern1
 _ZThn8_N8casacore13CompiledParamISt7complexIdEED1Ev@Base 3.2.1-1kern1
 _ZThn8_N8casacore13CompiledParamIdED0Ev@Base 3.2.1-1kern1
 _ZThn8_N8casacore13CompiledParamIdED1Ev@Base 3.2.1-1kern1
 _ZThn8_N8casacore13CompoundParamINS_8AutoDiffISt7complexIdEEEED0Ev@Base 3.2.1-1kern1
 _ZThn8_N8casacore13CompoundParamINS_8AutoDiffISt7complexIdEEEED1Ev@Base 3.2.1-1kern1
 _ZThn8_N8casacore13CompoundParamINS_8AutoDiffIdEEED0Ev@Base 3.2.1-1kern1
 _ZThn8_N8casacore13CompoundParamINS_8AutoDiffIdEEED1Ev@Base 3.2.1-1kern1
 _ZThn8_N8casacore13CompoundParamISt7complexIdEED0Ev@Base 3.2.1-1kern1
 _ZThn8_N8casacore13CompoundParamISt7complexIdEED1Ev@Base 3.2.1-1kern1
 _ZThn8_N8casacore13CompoundParamIdED0Ev@Base 3.2.1-1kern1
 _ZThn8_N8casacore13CompoundParamIdED1Ev@Base 3.2.1-1kern1
 _ZThn8_N8casacore13Interpolate1DIddED0Ev@Base 3.2.1-1kern1
 _ZThn8_N8casacore13Interpolate1DIddED1Ev@Base 3.2.1-1kern1
 _ZThn8_N8casacore13OddPolynomialINS_8AutoDiffISt7complexIdEEEED0Ev@Base 3.2.1-1kern1
 _ZThn8_N8casacore13OddPolynomialINS_8AutoDiffISt7complexIdEEEED1Ev@Base 3.2.1-1kern1
 _ZThn8_N8casacore13OddPolynomialINS_8AutoDiffIdEEED0Ev@Base 3.2.1-1kern1
 _ZThn8_N8casacore13OddPolynomialINS_8AutoDiffIdEEED1Ev@Base 3.2.1-1kern1
 _ZThn8_N8casacore13OddPolynomialISt7complexIdEED0Ev@Base 3.2.1-1kern1
 _ZThn8_N8casacore13OddPolynomialISt7complexIdEED1Ev@Base 3.2.1-1kern1
 _ZThn8_N8casacore13OddPolynomialIdED0Ev@Base 3.2.1-1kern1
 _ZThn8_N8casacore13OddPolynomialIdED1Ev@Base 3.2.1-1kern1
 _ZThn8_N8casacore14ChebyshevParamINS_8AutoDiffISt7complexIdEEEED0Ev@Base 3.2.1-1kern1
 _ZThn8_N8casacore14ChebyshevParamINS_8AutoDiffISt7complexIdEEEED1Ev@Base 3.2.1-1kern1
 _ZThn8_N8casacore14ChebyshevParamINS_8AutoDiffIdEEED0Ev@Base 3.2.1-1kern1
 _ZThn8_N8casacore14ChebyshevParamINS_8AutoDiffIdEEED1Ev@Base 3.2.1-1kern1
 _ZThn8_N8casacore14EvenPolynomialINS_8AutoDiffISt7complexIdEEEED0Ev@Base 3.2.1-1kern1
 _ZThn8_N8casacore14EvenPolynomialINS_8AutoDiffISt7complexIdEEEED1Ev@Base 3.2.1-1kern1
 _ZThn8_N8casacore14EvenPolynomialINS_8AutoDiffIdEEED0Ev@Base 3.2.1-1kern1
 _ZThn8_N8casacore14EvenPolynomialINS_8AutoDiffIdEEED1Ev@Base 3.2.1-1kern1
 _ZThn8_N8casacore14EvenPolynomialISt7complexIdEED0Ev@Base 3.2.1-1kern1
 _ZThn8_N8casacore14EvenPolynomialISt7complexIdEED1Ev@Base 3.2.1-1kern1
 _ZThn8_N8casacore14EvenPolynomialIdED0Ev@Base 3.2.1-1kern1
 _ZThn8_N8casacore14EvenPolynomialIdED1Ev@Base 3.2.1-1kern1
 _ZThn8_N8casacore15Gaussian1DParamINS_8AutoDiffISt7complexIdEEEED0Ev@Base 3.2.1-1kern1
 _ZThn8_N8casacore15Gaussian1DParamINS_8AutoDiffISt7complexIdEEEED1Ev@Base 3.2.1-1kern1
 _ZThn8_N8casacore15Gaussian1DParamINS_8AutoDiffIdEEED0Ev@Base 3.2.1-1kern1
 _ZThn8_N8casacore15Gaussian1DParamINS_8AutoDiffIdEEED1Ev@Base 3.2.1-1kern1
 _ZThn8_N8casacore15Gaussian2DParamINS_8AutoDiffISt7complexIdEEEED0Ev@Base 3.2.1-1kern1
 _ZThn8_N8casacore15Gaussian2DParamINS_8AutoDiffISt7complexIdEEEED1Ev@Base 3.2.1-1kern1
 _ZThn8_N8casacore15Gaussian2DParamINS_8AutoDiffIdEEED0Ev@Base 3.2.1-1kern1
 _ZThn8_N8casacore15Gaussian2DParamINS_8AutoDiffIdEEED1Ev@Base 3.2.1-1kern1
 _ZThn8_N8casacore15Gaussian3DParamINS_8AutoDiffISt7complexIdEEEED0Ev@Base 3.2.1-1kern1
 _ZThn8_N8casacore15Gaussian3DParamINS_8AutoDiffISt7complexIdEEEED1Ev@Base 3.2.1-1kern1
 _ZThn8_N8casacore15Gaussian3DParamINS_8AutoDiffIdEEED0Ev@Base 3.2.1-1kern1
 _ZThn8_N8casacore15Gaussian3DParamINS_8AutoDiffIdEEED1Ev@Base 3.2.1-1kern1
 _ZThn8_N8casacore15GaussianNDParamINS_8AutoDiffISt7complexIdEEEED0Ev@Base 3.2.1-1kern1
 _ZThn8_N8casacore15GaussianNDParamINS_8AutoDiffISt7complexIdEEEED1Ev@Base 3.2.1-1kern1
 _ZThn8_N8casacore15GaussianNDParamINS_8AutoDiffIdEEED0Ev@Base 3.2.1-1kern1
 _ZThn8_N8casacore15GaussianNDParamINS_8AutoDiffIdEEED1Ev@Base 3.2.1-1kern1
 _ZThn8_N8casacore16CompiledFunctionINS_8AutoDiffISt7complexIdEEEED0Ev@Base 3.2.1-1kern1
 _ZThn8_N8casacore16CompiledFunctionINS_8AutoDiffISt7complexIdEEEED1Ev@Base 3.2.1-1kern1
 _ZThn8_N8casacore16CompiledFunctionINS_8AutoDiffIdEEED0Ev@Base 3.2.1-1kern1
 _ZThn8_N8casacore16CompiledFunctionINS_8AutoDiffIdEEED1Ev@Base 3.2.1-1kern1
 _ZThn8_N8casacore16CompiledFunctionISt7complexIdEED0Ev@Base 3.2.1-1kern1
 _ZThn8_N8casacore16CompiledFunctionISt7complexIdEED1Ev@Base 3.2.1-1kern1
 _ZThn8_N8casacore16CompiledFunctionIdED0Ev@Base 3.2.1-1kern1
 _ZThn8_N8casacore16CompiledFunctionIdED1Ev@Base 3.2.1-1kern1
 _ZThn8_N8casacore16CompoundFunctionINS_8AutoDiffISt7complexIdEEEED0Ev@Base 3.2.1-1kern1
 _ZThn8_N8casacore16CompoundFunctionINS_8AutoDiffISt7complexIdEEEED1Ev@Base 3.2.1-1kern1
 _ZThn8_N8casacore16CompoundFunctionINS_8AutoDiffIdEEED0Ev@Base 3.2.1-1kern1
 _ZThn8_N8casacore16CompoundFunctionINS_8AutoDiffIdEEED1Ev@Base 3.2.1-1kern1
 _ZThn8_N8casacore16CompoundFunctionISt7complexIdEED0Ev@Base 3.2.1-1kern1
 _ZThn8_N8casacore16CompoundFunctionISt7complexIdEED1Ev@Base 3.2.1-1kern1
 _ZThn8_N8casacore16CompoundFunctionIdED0Ev@Base 3.2.1-1kern1
 _ZThn8_N8casacore16CompoundFunctionIdED1Ev@Base 3.2.1-1kern1
 _ZThn8_N8casacore22SimButterworthBandpassINS_8AutoDiffISt7complexIdEEEED0Ev@Base 3.2.1-1kern1
 _ZThn8_N8casacore22SimButterworthBandpassINS_8AutoDiffISt7complexIdEEEED1Ev@Base 3.2.1-1kern1
 _ZThn8_N8casacore22SimButterworthBandpassINS_8AutoDiffIdEEED0Ev@Base 3.2.1-1kern1
 _ZThn8_N8casacore22SimButterworthBandpassINS_8AutoDiffIdEEED1Ev@Base 3.2.1-1kern1
 _ZThn8_N8casacore22SimButterworthBandpassISt7complexIdEED0Ev@Base 3.2.1-1kern1
 _ZThn8_N8casacore22SimButterworthBandpassISt7complexIdEED1Ev@Base 3.2.1-1kern1
 _ZThn8_N8casacore22SimButterworthBandpassIdED0Ev@Base 3.2.1-1kern1
 _ZThn8_N8casacore22SimButterworthBandpassIdED1Ev@Base 3.2.1-1kern1
 _ZThn8_N8casacore9ChebyshevINS_8AutoDiffISt7complexIdEEEED0Ev@Base 3.2.1-1kern1
 _ZThn8_N8casacore9ChebyshevINS_8AutoDiffISt7complexIdEEEED1Ev@Base 3.2.1-1kern1
 _ZThn8_N8casacore9ChebyshevINS_8AutoDiffIdEEED0Ev@Base 3.2.1-1kern1
 _ZThn8_N8casacore9ChebyshevINS_8AutoDiffIdEEED1Ev@Base 3.2.1-1kern1
 _ZThn8_N8casacore9ChebyshevISt7complexIdEED0Ev@Base 3.2.1-1kern1
 _ZThn8_N8casacore9ChebyshevISt7complexIdEED1Ev@Base 3.2.1-1kern1
 _ZThn8_N8casacore9ChebyshevIdED0Ev@Base 3.2.1-1kern1
 _ZThn8_N8casacore9ChebyshevIdED1Ev@Base 3.2.1-1kern1
 _ZThn8_NK8casacore8FunctionINS_8AutoDiffISt7complexIdEEES4_EclERKNS_6VectorIS3_EE@Base 3.2.1-1kern1
 _ZThn8_NK8casacore8FunctionINS_8AutoDiffIdEES2_EclERKNS_6VectorIdEE@Base 3.2.1-1kern1
 _ZThn8_NK8casacore8FunctionISt7complexIdES2_EclERKNS_6VectorIS2_EE@Base 3.2.1-1kern1
 _ZThn8_NK8casacore8FunctionIddEclERKNS_6VectorIdEE@Base 3.2.1-1kern1
 _ZZN8casacore17Allocator_private17get_allocator_rawINS_17new_del_allocatorINS_6VectorIdEEEEEEPNS0_17BulkAllocatorImplIT_EEvE3ptr@Base 3.2.1-1kern1
 _ZZN8casacore17Allocator_private17get_allocator_rawINS_17new_del_allocatorINS_6VectorIdEEEEEEPNS0_17BulkAllocatorImplIT_EEvE7storage@Base 3.2.1-1kern1
 _ZZN8casacore17Allocator_private17get_allocator_rawINS_17new_del_allocatorINS_7QuantumIdEEEEEEPNS0_17BulkAllocatorImplIT_EEvE3ptr@Base 3.2.1-1kern1
 _ZZN8casacore17Allocator_private17get_allocator_rawINS_17new_del_allocatorINS_7QuantumIdEEEEEEPNS0_17BulkAllocatorImplIT_EEvE7storage@Base 3.2.1-1kern1
 _ZZN8casacore17Allocator_private17get_allocator_rawINS_17new_del_allocatorINS_8AutoDiffISt7complexIdEEEEEEEPNS0_17BulkAllocatorImplIT_EEvE3ptr@Base 3.2.1-1kern1
 _ZZN8casacore17Allocator_private17get_allocator_rawINS_17new_del_allocatorINS_8AutoDiffISt7complexIdEEEEEEEPNS0_17BulkAllocatorImplIT_EEvE7storage@Base 3.2.1-1kern1
 _ZZN8casacore17Allocator_private17get_allocator_rawINS_17new_del_allocatorINS_8AutoDiffIdEEEEEEPNS0_17BulkAllocatorImplIT_EEvE3ptr@Base 3.2.1-1kern1
 _ZZN8casacore17Allocator_private17get_allocator_rawINS_17new_del_allocatorINS_8AutoDiffIdEEEEEEPNS0_17BulkAllocatorImplIT_EEvE7storage@Base 3.2.1-1kern1
 _ZZN8casacore17Allocator_private17get_allocator_rawINS_18casacore_allocatorINS_6VectorIdEELm32EEEEEPNS0_17BulkAllocatorImplIT_EEvE3ptr@Base 3.2.1-1kern1
 _ZZN8casacore17Allocator_private17get_allocator_rawINS_18casacore_allocatorINS_6VectorIdEELm32EEEEEPNS0_17BulkAllocatorImplIT_EEvE7storage@Base 3.2.1-1kern1
 _ZZN8casacore17Allocator_private17get_allocator_rawINS_18casacore_allocatorINS_7QuantumIdEELm32EEEEEPNS0_17BulkAllocatorImplIT_EEvE3ptr@Base 3.2.1-1kern1
 _ZZN8casacore17Allocator_private17get_allocator_rawINS_18casacore_allocatorINS_7QuantumIdEELm32EEEEEPNS0_17BulkAllocatorImplIT_EEvE7storage@Base 3.2.1-1kern1
 _ZZN8casacore17Allocator_private17get_allocator_rawINS_18casacore_allocatorINS_8AutoDiffISt7complexIdEEELm32EEEEEPNS0_17BulkAllocatorImplIT_EEvE3ptr@Base 3.2.1-1kern1
 _ZZN8casacore17Allocator_private17get_allocator_rawINS_18casacore_allocatorINS_8AutoDiffISt7complexIdEEELm32EEEEEPNS0_17BulkAllocatorImplIT_EEvE7storage@Base 3.2.1-1kern1
 _ZZN8casacore17Allocator_private17get_allocator_rawINS_18casacore_allocatorINS_8AutoDiffIdEELm32EEEEEPNS0_17BulkAllocatorImplIT_EEvE3ptr@Base 3.2.1-1kern1
 _ZZN8casacore17Allocator_private17get_allocator_rawINS_18casacore_allocatorINS_8AutoDiffIdEELm32EEEEEPNS0_17BulkAllocatorImplIT_EEvE7storage@Base 3.2.1-1kern1
 _ZZN8casacore17Allocator_private17get_allocator_rawINS_18casacore_allocatorIPvLm32EEEEEPNS0_17BulkAllocatorImplIT_EEvE3ptr@Base 3.2.1-1kern1
 _ZZN8casacore17Allocator_private17get_allocator_rawINS_18casacore_allocatorIPvLm32EEEEEPNS0_17BulkAllocatorImplIT_EEvE7storage@Base 3.2.1-1kern1
 _ZZN8casacore17Allocator_private17get_allocator_rawINS_18casacore_allocatorISt7complexIdELm32EEEEEPNS0_17BulkAllocatorImplIT_EEvE3ptr@Base 3.2.1-1kern1
 _ZZN8casacore17Allocator_private17get_allocator_rawINS_18casacore_allocatorISt7complexIdELm32EEEEEPNS0_17BulkAllocatorImplIT_EEvE7storage@Base 3.2.1-1kern1
 _ZZN8casacore17Allocator_private17get_allocator_rawINS_18casacore_allocatorISt7complexIfELm32EEEEEPNS0_17BulkAllocatorImplIT_EEvE3ptr@Base 3.2.1-1kern1
 _ZZN8casacore17Allocator_private17get_allocator_rawINS_18casacore_allocatorISt7complexIfELm32EEEEEPNS0_17BulkAllocatorImplIT_EEvE7storage@Base 3.2.1-1kern1
 _ZZN8casacore17Allocator_private17get_allocator_rawINS_18casacore_allocatorIdLm32EEEEEPNS0_17BulkAllocatorImplIT_EEvE3ptr@Base 3.2.1-1kern1
 _ZZN8casacore17Allocator_private17get_allocator_rawINS_18casacore_allocatorIdLm32EEEEEPNS0_17BulkAllocatorImplIT_EEvE7storage@Base 3.2.1-1kern1
 _ZZN8casacore17Allocator_private17get_allocator_rawINS_18casacore_allocatorIjLm32EEEEEPNS0_17BulkAllocatorImplIT_EEvE3ptr@Base 3.2.1-1kern1
 _ZZN8casacore17Allocator_private17get_allocator_rawINS_18casacore_allocatorIjLm32EEEEEPNS0_17BulkAllocatorImplIT_EEvE7storage@Base 3.2.1-1kern1
 _ZZN8casacore2QC5hTurnEvE6result@Base 3.2.1-1kern1
 _ZZN8casacore2QC5qTurnEvE6result@Base 3.2.1-1kern1
 _ZZN8casacore7assert_INS_9AipsErrorEEC4EiPKcS4_iE7message@Base 3.2.1-1kern1
 _ZZNK8casacore10CombiParamINS_8AutoDiffISt7complexIdEEEE4nameEvE1x@Base 3.2.1-1kern1
 _ZZNK8casacore10CombiParamINS_8AutoDiffIdEEE4nameEvE1x@Base 3.2.1-1kern1
 _ZZNK8casacore10CombiParamISt7complexIdEE4nameEvE1x@Base 3.2.1-1kern1
 _ZZNK8casacore10CombiParamIdE4nameEvE1x@Base 3.2.1-1kern1
 _ZZNK8casacore13CompiledParamINS_8AutoDiffISt7complexIdEEEE4nameEvE1x@Base 3.2.1-1kern1
 _ZZNK8casacore13CompiledParamINS_8AutoDiffIdEEE4nameEvE1x@Base 3.2.1-1kern1
 _ZZNK8casacore13CompiledParamISt7complexIdEE4nameEvE1x@Base 3.2.1-1kern1
 _ZZNK8casacore13CompiledParamIdE4nameEvE1x@Base 3.2.1-1kern1
 _ZZNK8casacore13CompoundParamINS_8AutoDiffISt7complexIdEEEE4nameEvE1x@Base 3.2.1-1kern1
 _ZZNK8casacore13CompoundParamINS_8AutoDiffIdEEE4nameEvE1x@Base 3.2.1-1kern1
 _ZZNK8casacore13CompoundParamISt7complexIdEE4nameEvE1x@Base 3.2.1-1kern1
 _ZZNK8casacore13CompoundParamIdE4nameEvE1x@Base 3.2.1-1kern1
 _ZZNK8casacore13Interpolate1DIddE4nameEvE1x@Base 3.2.1-1kern1
 _ZZNK8casacore14ChebyshevParamINS_8AutoDiffISt7complexIdEEEE4nameEvE1x@Base 3.2.1-1kern1
 _ZZNK8casacore14ChebyshevParamINS_8AutoDiffIdEEE4nameEvE1x@Base 3.2.1-1kern1
 _ZZNK8casacore14ChebyshevParamISt7complexIdEE4nameEvE1x@Base 3.2.1-1kern1
 _ZZNK8casacore14ChebyshevParamIdE4nameEvE1x@Base 3.2.1-1kern1
 _ZZNK8casacore14FunctionHolderISt7complexIdEE4initEvE3fnc@Base 3.2.1-1kern1
 _ZZNK8casacore14FunctionHolderISt7complexIdEE5identEvE4myid@Base 3.2.1-1kern1
 _ZZNK8casacore14FunctionHolderIdE4initEvE3fnc@Base 3.2.1-1kern1
 _ZZNK8casacore14FunctionHolderIdE5identEvE4myid@Base 3.2.1-1kern1
 _ZZNK8casacore15Gaussian1DParamINS_8AutoDiffISt7complexIdEEEE4nameEvE1x@Base 3.2.1-1kern1
 _ZZNK8casacore15Gaussian1DParamINS_8AutoDiffIdEEE4nameEvE1x@Base 3.2.1-1kern1
 _ZZNK8casacore15Gaussian1DParamISt7complexIdEE4nameEvE1x@Base 3.2.1-1kern1
 _ZZNK8casacore15Gaussian1DParamIdE4nameEvE1x@Base 3.2.1-1kern1
 _ZZNK8casacore15Gaussian2DParamINS_8AutoDiffISt7complexIdEEEE4nameEvE1x@Base 3.2.1-1kern1
 _ZZNK8casacore15Gaussian2DParamINS_8AutoDiffIdEEE4nameEvE1x@Base 3.2.1-1kern1
 _ZZNK8casacore15Gaussian2DParamISt7complexIdEE4nameEvE1x@Base 3.2.1-1kern1
 _ZZNK8casacore15Gaussian2DParamIdE4nameEvE1x@Base 3.2.1-1kern1
 _ZZNK8casacore15Gaussian3DParamINS_8AutoDiffISt7complexIdEEEE4nameEvE1x@Base 3.2.1-1kern1
 _ZZNK8casacore15Gaussian3DParamINS_8AutoDiffIdEEE4nameEvE1x@Base 3.2.1-1kern1
 _ZZNK8casacore15Gaussian3DParamISt7complexIdEE4nameEvE1x@Base 3.2.1-1kern1
 _ZZNK8casacore15Gaussian3DParamIdE4nameEvE1x@Base 3.2.1-1kern1
 _ZZNK8casacore15GaussianNDParamINS_8AutoDiffISt7complexIdEEEE4nameEvE1x@Base 3.2.1-1kern1
 _ZZNK8casacore15GaussianNDParamINS_8AutoDiffIdEEE4nameEvE1x@Base 3.2.1-1kern1
 _ZZNK8casacore15GaussianNDParamISt7complexIdEE4nameEvE1x@Base 3.2.1-1kern1
 _ZZNK8casacore15GaussianNDParamIdE4nameEvE1x@Base 3.2.1-1kern1
 _ZZNK8casacore15HyperPlaneParamINS_8AutoDiffISt7complexIdEEEE4nameEvE1x@Base 3.2.1-1kern1
 _ZZNK8casacore15HyperPlaneParamINS_8AutoDiffIdEEE4nameEvE1x@Base 3.2.1-1kern1
 _ZZNK8casacore15HyperPlaneParamISt7complexIdEE4nameEvE1x@Base 3.2.1-1kern1
 _ZZNK8casacore15HyperPlaneParamIdE4nameEvE1x@Base 3.2.1-1kern1
 _ZZNK8casacore15PolynomialParamINS_8AutoDiffISt7complexIdEEEE4nameEvE1x@Base 3.2.1-1kern1
 _ZZNK8casacore15PolynomialParamINS_8AutoDiffIdEEE4nameEvE1x@Base 3.2.1-1kern1
 _ZZNK8casacore15PolynomialParamISt7complexIdEE4nameEvE1x@Base 3.2.1-1kern1
 _ZZNK8casacore15PolynomialParamIdE4nameEvE1x@Base 3.2.1-1kern1
 _ZZNK8casacore15Sinusoid1DParamINS_8AutoDiffISt7complexIdEEEE4nameEvE1x@Base 3.2.1-1kern1
 _ZZNK8casacore15Sinusoid1DParamINS_8AutoDiffIdEEE4nameEvE1x@Base 3.2.1-1kern1
 _ZZNK8casacore15Sinusoid1DParamISt7complexIdEE4nameEvE1x@Base 3.2.1-1kern1
 _ZZNK8casacore15Sinusoid1DParamIdE4nameEvE1x@Base 3.2.1-1kern1
 _ZZNK8casacore18OddPolynomialParamINS_8AutoDiffISt7complexIdEEEE4nameEvE1x@Base 3.2.1-1kern1
 _ZZNK8casacore18OddPolynomialParamINS_8AutoDiffIdEEE4nameEvE1x@Base 3.2.1-1kern1
 _ZZNK8casacore18OddPolynomialParamISt7complexIdEE4nameEvE1x@Base 3.2.1-1kern1
 _ZZNK8casacore18OddPolynomialParamIdE4nameEvE1x@Base 3.2.1-1kern1
 _ZZNK8casacore19EvenPolynomialParamINS_8AutoDiffISt7complexIdEEEE4nameEvE1x@Base 3.2.1-1kern1
 _ZZNK8casacore19EvenPolynomialParamINS_8AutoDiffIdEEE4nameEvE1x@Base 3.2.1-1kern1
 _ZZNK8casacore19EvenPolynomialParamISt7complexIdEE4nameEvE1x@Base 3.2.1-1kern1
 _ZZNK8casacore19EvenPolynomialParamIdE4nameEvE1x@Base 3.2.1-1kern1
 _ZZNK8casacore8FunctionINS_8AutoDiffISt7complexIdEEES4_E4nameEvE1x@Base 3.2.1-1kern1
 _ZZNK8casacore8FunctionINS_8AutoDiffIdEES2_E4nameEvE1x@Base 3.2.1-1kern1
 _ZZNK8casacore8FunctionISt7complexIdES2_E4nameEvE1x@Base 3.2.1-1kern1
 _ZZNK8casacore8FunctionIddE4nameEvE1x@Base 3.2.1-1kern1
 sphfn@Base 3.2.1-1kern1
